Archive member included because of file (symbol)

/opt/paparazzi/arm-multilib/lib/gcc/arm-none-eabi/4.6.2/../../../../arm-none-eabi/lib/thumb/libm.a(lib_a-s_atan.o)
                              /home/lionel/paparazziProto1/var/MYAC/ap/math/pprz_geodetic_float.o (atan)
/opt/paparazzi/arm-multilib/lib/gcc/arm-none-eabi/4.6.2/../../../../arm-none-eabi/lib/thumb/libm.a(lib_a-s_cos.o)
                              /home/lionel/paparazziProto1/var/MYAC/ap/math/pprz_geodetic_float.o (cos)
/opt/paparazzi/arm-multilib/lib/gcc/arm-none-eabi/4.6.2/../../../../arm-none-eabi/lib/thumb/libm.a(lib_a-s_fabs.o)
                              /opt/paparazzi/arm-multilib/lib/gcc/arm-none-eabi/4.6.2/../../../../arm-none-eabi/lib/thumb/libm.a(lib_a-s_atan.o) (fabs)
/opt/paparazzi/arm-multilib/lib/gcc/arm-none-eabi/4.6.2/../../../../arm-none-eabi/lib/thumb/libm.a(lib_a-s_rint.o)
                              /home/lionel/paparazziProto1/var/MYAC/ap/math/pprz_geodetic_int.o (rint)
/opt/paparazzi/arm-multilib/lib/gcc/arm-none-eabi/4.6.2/../../../../arm-none-eabi/lib/thumb/libm.a(lib_a-s_sin.o)
                              /home/lionel/paparazziProto1/var/MYAC/ap/math/pprz_geodetic_float.o (sin)
/opt/paparazzi/arm-multilib/lib/gcc/arm-none-eabi/4.6.2/../../../../arm-none-eabi/lib/thumb/libm.a(lib_a-s_tan.o)
                              /home/lionel/paparazziProto1/var/MYAC/ap/math/pprz_geodetic_float.o (tan)
/opt/paparazzi/arm-multilib/lib/gcc/arm-none-eabi/4.6.2/../../../../arm-none-eabi/lib/thumb/libm.a(lib_a-sf_atan.o)
                              /home/lionel/paparazziProto1/var/MYAC/ap/math/pprz_geodetic_float.o (atanf)
/opt/paparazzi/arm-multilib/lib/gcc/arm-none-eabi/4.6.2/../../../../arm-none-eabi/lib/thumb/libm.a(lib_a-sf_cos.o)
                              /home/lionel/paparazziProto1/var/MYAC/ap/math/pprz_geodetic_int.o (cosf)
/opt/paparazzi/arm-multilib/lib/gcc/arm-none-eabi/4.6.2/../../../../arm-none-eabi/lib/thumb/libm.a(lib_a-sf_fabs.o)
                              /opt/paparazzi/arm-multilib/lib/gcc/arm-none-eabi/4.6.2/../../../../arm-none-eabi/lib/thumb/libm.a(lib_a-sf_atan.o) (fabsf)
/opt/paparazzi/arm-multilib/lib/gcc/arm-none-eabi/4.6.2/../../../../arm-none-eabi/lib/thumb/libm.a(lib_a-sf_floor.o)
                              /home/lionel/paparazziProto1/var/MYAC/ap/firmwares/fixedwing/main_ap.o (floorf)
/opt/paparazzi/arm-multilib/lib/gcc/arm-none-eabi/4.6.2/../../../../arm-none-eabi/lib/thumb/libm.a(lib_a-sf_fmax.o)
                              /home/lionel/paparazziProto1/var/MYAC/ap/modules/digital_cam/dc.o (fmaxf)
/opt/paparazzi/arm-multilib/lib/gcc/arm-none-eabi/4.6.2/../../../../arm-none-eabi/lib/thumb/libm.a(lib_a-sf_fmin.o)
                              /home/lionel/paparazziProto1/var/MYAC/ap/firmwares/fixedwing/main_ap.o (fminf)
/opt/paparazzi/arm-multilib/lib/gcc/arm-none-eabi/4.6.2/../../../../arm-none-eabi/lib/thumb/libm.a(lib_a-sf_fpclassify.o)
                              /opt/paparazzi/arm-multilib/lib/gcc/arm-none-eabi/4.6.2/../../../../arm-none-eabi/lib/thumb/libm.a(lib_a-sf_fmax.o) (__fpclassifyf)
/opt/paparazzi/arm-multilib/lib/gcc/arm-none-eabi/4.6.2/../../../../arm-none-eabi/lib/thumb/libm.a(lib_a-sf_sin.o)
                              /home/lionel/paparazziProto1/var/MYAC/ap/math/pprz_geodetic_int.o (sinf)
/opt/paparazzi/arm-multilib/lib/gcc/arm-none-eabi/4.6.2/../../../../arm-none-eabi/lib/thumb/libm.a(lib_a-w_asin.o)
                              /home/lionel/paparazziProto1/var/MYAC/ap/math/pprz_geodetic_float.o (asin)
/opt/paparazzi/arm-multilib/lib/gcc/arm-none-eabi/4.6.2/../../../../arm-none-eabi/lib/thumb/libm.a(lib_a-w_atan2.o)
                              /home/lionel/paparazziProto1/var/MYAC/ap/math/pprz_geodetic_double.o (atan2)
/opt/paparazzi/arm-multilib/lib/gcc/arm-none-eabi/4.6.2/../../../../arm-none-eabi/lib/thumb/libm.a(lib_a-w_cosh.o)
                              /home/lionel/paparazziProto1/var/MYAC/ap/math/pprz_geodetic_float.o (cosh)
/opt/paparazzi/arm-multilib/lib/gcc/arm-none-eabi/4.6.2/../../../../arm-none-eabi/lib/thumb/libm.a(lib_a-w_exp.o)
                              /home/lionel/paparazziProto1/var/MYAC/ap/math/pprz_geodetic_float.o (exp)
/opt/paparazzi/arm-multilib/lib/gcc/arm-none-eabi/4.6.2/../../../../arm-none-eabi/lib/thumb/libm.a(lib_a-w_log.o)
                              /home/lionel/paparazziProto1/var/MYAC/ap/math/pprz_geodetic_float.o (log)
/opt/paparazzi/arm-multilib/lib/gcc/arm-none-eabi/4.6.2/../../../../arm-none-eabi/lib/thumb/libm.a(lib_a-w_pow.o)
                              /home/lionel/paparazziProto1/var/MYAC/ap/math/pprz_geodetic_float.o (pow)
/opt/paparazzi/arm-multilib/lib/gcc/arm-none-eabi/4.6.2/../../../../arm-none-eabi/lib/thumb/libm.a(lib_a-w_sinh.o)
                              /home/lionel/paparazziProto1/var/MYAC/ap/math/pprz_geodetic_float.o (sinh)
/opt/paparazzi/arm-multilib/lib/gcc/arm-none-eabi/4.6.2/../../../../arm-none-eabi/lib/thumb/libm.a(lib_a-w_sqrt.o)
                              /home/lionel/paparazziProto1/var/MYAC/ap/math/pprz_geodetic_double.o (sqrt)
/opt/paparazzi/arm-multilib/lib/gcc/arm-none-eabi/4.6.2/../../../../arm-none-eabi/lib/thumb/libm.a(lib_a-wf_asin.o)
                              /home/lionel/paparazziProto1/var/MYAC/ap/math/pprz_orientation_conversion.o (asinf)
/opt/paparazzi/arm-multilib/lib/gcc/arm-none-eabi/4.6.2/../../../../arm-none-eabi/lib/thumb/libm.a(lib_a-wf_atan2.o)
                              /home/lionel/paparazziProto1/var/MYAC/ap/math/pprz_geodetic_float.o (atan2f)
/opt/paparazzi/arm-multilib/lib/gcc/arm-none-eabi/4.6.2/../../../../arm-none-eabi/lib/thumb/libm.a(lib_a-wf_fmod.o)
                              /home/lionel/paparazziProto1/var/MYAC/ap/modules/digital_cam/dc.o (fmodf)
/opt/paparazzi/arm-multilib/lib/gcc/arm-none-eabi/4.6.2/../../../../arm-none-eabi/lib/thumb/libm.a(lib_a-wf_pow.o)
                              /home/lionel/paparazziProto1/var/MYAC/ap/math/pprz_geodetic_float.o (powf)
/opt/paparazzi/arm-multilib/lib/gcc/arm-none-eabi/4.6.2/../../../../arm-none-eabi/lib/thumb/libm.a(lib_a-wf_sqrt.o)
                              /home/lionel/paparazziProto1/var/MYAC/ap/math/pprz_geodetic_float.o (sqrtf)
/opt/paparazzi/arm-multilib/lib/gcc/arm-none-eabi/4.6.2/../../../../arm-none-eabi/lib/thumb/libm.a(lib_a-e_asin.o)
                              /opt/paparazzi/arm-multilib/lib/gcc/arm-none-eabi/4.6.2/../../../../arm-none-eabi/lib/thumb/libm.a(lib_a-w_asin.o) (__ieee754_asin)
/opt/paparazzi/arm-multilib/lib/gcc/arm-none-eabi/4.6.2/../../../../arm-none-eabi/lib/thumb/libm.a(lib_a-e_atan2.o)
                              /opt/paparazzi/arm-multilib/lib/gcc/arm-none-eabi/4.6.2/../../../../arm-none-eabi/lib/thumb/libm.a(lib_a-w_atan2.o) (__ieee754_atan2)
/opt/paparazzi/arm-multilib/lib/gcc/arm-none-eabi/4.6.2/../../../../arm-none-eabi/lib/thumb/libm.a(lib_a-e_cosh.o)
                              /opt/paparazzi/arm-multilib/lib/gcc/arm-none-eabi/4.6.2/../../../../arm-none-eabi/lib/thumb/libm.a(lib_a-w_cosh.o) (__ieee754_cosh)
/opt/paparazzi/arm-multilib/lib/gcc/arm-none-eabi/4.6.2/../../../../arm-none-eabi/lib/thumb/libm.a(lib_a-e_exp.o)
                              /opt/paparazzi/arm-multilib/lib/gcc/arm-none-eabi/4.6.2/../../../../arm-none-eabi/lib/thumb/libm.a(lib_a-w_exp.o) (__ieee754_exp)
/opt/paparazzi/arm-multilib/lib/gcc/arm-none-eabi/4.6.2/../../../../arm-none-eabi/lib/thumb/libm.a(lib_a-e_log.o)
                              /opt/paparazzi/arm-multilib/lib/gcc/arm-none-eabi/4.6.2/../../../../arm-none-eabi/lib/thumb/libm.a(lib_a-w_log.o) (__ieee754_log)
/opt/paparazzi/arm-multilib/lib/gcc/arm-none-eabi/4.6.2/../../../../arm-none-eabi/lib/thumb/libm.a(lib_a-e_pow.o)
                              /opt/paparazzi/arm-multilib/lib/gcc/arm-none-eabi/4.6.2/../../../../arm-none-eabi/lib/thumb/libm.a(lib_a-w_pow.o) (__ieee754_pow)
/opt/paparazzi/arm-multilib/lib/gcc/arm-none-eabi/4.6.2/../../../../arm-none-eabi/lib/thumb/libm.a(lib_a-e_rem_pio2.o)
                              /opt/paparazzi/arm-multilib/lib/gcc/arm-none-eabi/4.6.2/../../../../arm-none-eabi/lib/thumb/libm.a(lib_a-s_cos.o) (__ieee754_rem_pio2)
/opt/paparazzi/arm-multilib/lib/gcc/arm-none-eabi/4.6.2/../../../../arm-none-eabi/lib/thumb/libm.a(lib_a-e_sinh.o)
                              /opt/paparazzi/arm-multilib/lib/gcc/arm-none-eabi/4.6.2/../../../../arm-none-eabi/lib/thumb/libm.a(lib_a-w_sinh.o) (__ieee754_sinh)
/opt/paparazzi/arm-multilib/lib/gcc/arm-none-eabi/4.6.2/../../../../arm-none-eabi/lib/thumb/libm.a(lib_a-e_sqrt.o)
                              /opt/paparazzi/arm-multilib/lib/gcc/arm-none-eabi/4.6.2/../../../../arm-none-eabi/lib/thumb/libm.a(lib_a-w_sqrt.o) (__ieee754_sqrt)
/opt/paparazzi/arm-multilib/lib/gcc/arm-none-eabi/4.6.2/../../../../arm-none-eabi/lib/thumb/libm.a(lib_a-ef_asin.o)
                              /opt/paparazzi/arm-multilib/lib/gcc/arm-none-eabi/4.6.2/../../../../arm-none-eabi/lib/thumb/libm.a(lib_a-wf_asin.o) (__ieee754_asinf)
/opt/paparazzi/arm-multilib/lib/gcc/arm-none-eabi/4.6.2/../../../../arm-none-eabi/lib/thumb/libm.a(lib_a-ef_atan2.o)
                              /opt/paparazzi/arm-multilib/lib/gcc/arm-none-eabi/4.6.2/../../../../arm-none-eabi/lib/thumb/libm.a(lib_a-wf_atan2.o) (__ieee754_atan2f)
/opt/paparazzi/arm-multilib/lib/gcc/arm-none-eabi/4.6.2/../../../../arm-none-eabi/lib/thumb/libm.a(lib_a-ef_fmod.o)
                              /opt/paparazzi/arm-multilib/lib/gcc/arm-none-eabi/4.6.2/../../../../arm-none-eabi/lib/thumb/libm.a(lib_a-wf_fmod.o) (__ieee754_fmodf)
/opt/paparazzi/arm-multilib/lib/gcc/arm-none-eabi/4.6.2/../../../../arm-none-eabi/lib/thumb/libm.a(lib_a-ef_pow.o)
                              /opt/paparazzi/arm-multilib/lib/gcc/arm-none-eabi/4.6.2/../../../../arm-none-eabi/lib/thumb/libm.a(lib_a-wf_pow.o) (__ieee754_powf)
/opt/paparazzi/arm-multilib/lib/gcc/arm-none-eabi/4.6.2/../../../../arm-none-eabi/lib/thumb/libm.a(lib_a-ef_rem_pio2.o)
                              /opt/paparazzi/arm-multilib/lib/gcc/arm-none-eabi/4.6.2/../../../../arm-none-eabi/lib/thumb/libm.a(lib_a-sf_cos.o) (__ieee754_rem_pio2f)
/opt/paparazzi/arm-multilib/lib/gcc/arm-none-eabi/4.6.2/../../../../arm-none-eabi/lib/thumb/libm.a(lib_a-ef_sqrt.o)
                              /opt/paparazzi/arm-multilib/lib/gcc/arm-none-eabi/4.6.2/../../../../arm-none-eabi/lib/thumb/libm.a(lib_a-wf_sqrt.o) (__ieee754_sqrtf)
/opt/paparazzi/arm-multilib/lib/gcc/arm-none-eabi/4.6.2/../../../../arm-none-eabi/lib/thumb/libm.a(lib_a-k_cos.o)
                              /opt/paparazzi/arm-multilib/lib/gcc/arm-none-eabi/4.6.2/../../../../arm-none-eabi/lib/thumb/libm.a(lib_a-s_cos.o) (__kernel_cos)
/opt/paparazzi/arm-multilib/lib/gcc/arm-none-eabi/4.6.2/../../../../arm-none-eabi/lib/thumb/libm.a(lib_a-k_rem_pio2.o)
                              /opt/paparazzi/arm-multilib/lib/gcc/arm-none-eabi/4.6.2/../../../../arm-none-eabi/lib/thumb/libm.a(lib_a-e_rem_pio2.o) (__kernel_rem_pio2)
/opt/paparazzi/arm-multilib/lib/gcc/arm-none-eabi/4.6.2/../../../../arm-none-eabi/lib/thumb/libm.a(lib_a-k_sin.o)
                              /opt/paparazzi/arm-multilib/lib/gcc/arm-none-eabi/4.6.2/../../../../arm-none-eabi/lib/thumb/libm.a(lib_a-s_cos.o) (__kernel_sin)
/opt/paparazzi/arm-multilib/lib/gcc/arm-none-eabi/4.6.2/../../../../arm-none-eabi/lib/thumb/libm.a(lib_a-k_tan.o)
                              /opt/paparazzi/arm-multilib/lib/gcc/arm-none-eabi/4.6.2/../../../../arm-none-eabi/lib/thumb/libm.a(lib_a-s_tan.o) (__kernel_tan)
/opt/paparazzi/arm-multilib/lib/gcc/arm-none-eabi/4.6.2/../../../../arm-none-eabi/lib/thumb/libm.a(lib_a-kf_cos.o)
                              /opt/paparazzi/arm-multilib/lib/gcc/arm-none-eabi/4.6.2/../../../../arm-none-eabi/lib/thumb/libm.a(lib_a-sf_cos.o) (__kernel_cosf)
/opt/paparazzi/arm-multilib/lib/gcc/arm-none-eabi/4.6.2/../../../../arm-none-eabi/lib/thumb/libm.a(lib_a-kf_rem_pio2.o)
                              /opt/paparazzi/arm-multilib/lib/gcc/arm-none-eabi/4.6.2/../../../../arm-none-eabi/lib/thumb/libm.a(lib_a-ef_rem_pio2.o) (__kernel_rem_pio2f)
/opt/paparazzi/arm-multilib/lib/gcc/arm-none-eabi/4.6.2/../../../../arm-none-eabi/lib/thumb/libm.a(lib_a-kf_sin.o)
                              /opt/paparazzi/arm-multilib/lib/gcc/arm-none-eabi/4.6.2/../../../../arm-none-eabi/lib/thumb/libm.a(lib_a-sf_cos.o) (__kernel_sinf)
/opt/paparazzi/arm-multilib/lib/gcc/arm-none-eabi/4.6.2/../../../../arm-none-eabi/lib/thumb/libm.a(lib_a-s_expm1.o)
                              /opt/paparazzi/arm-multilib/lib/gcc/arm-none-eabi/4.6.2/../../../../arm-none-eabi/lib/thumb/libm.a(lib_a-e_cosh.o) (expm1)
/opt/paparazzi/arm-multilib/lib/gcc/arm-none-eabi/4.6.2/../../../../arm-none-eabi/lib/thumb/libm.a(lib_a-s_finite.o)
                              /opt/paparazzi/arm-multilib/lib/gcc/arm-none-eabi/4.6.2/../../../../arm-none-eabi/lib/thumb/libm.a(lib_a-w_exp.o) (finite)
/opt/paparazzi/arm-multilib/lib/gcc/arm-none-eabi/4.6.2/../../../../arm-none-eabi/lib/thumb/libm.a(lib_a-s_floor.o)
                              /opt/paparazzi/arm-multilib/lib/gcc/arm-none-eabi/4.6.2/../../../../arm-none-eabi/lib/thumb/libm.a(lib_a-k_rem_pio2.o) (floor)
/opt/paparazzi/arm-multilib/lib/gcc/arm-none-eabi/4.6.2/../../../../arm-none-eabi/lib/thumb/libm.a(lib_a-s_fpclassify.o)
                              /opt/paparazzi/arm-multilib/lib/gcc/arm-none-eabi/4.6.2/../../../../arm-none-eabi/lib/thumb/libm.a(lib_a-w_asin.o) (__fpclassifyd)
/opt/paparazzi/arm-multilib/lib/gcc/arm-none-eabi/4.6.2/../../../../arm-none-eabi/lib/thumb/libm.a(lib_a-s_lib_ver.o)
                              /opt/paparazzi/arm-multilib/lib/gcc/arm-none-eabi/4.6.2/../../../../arm-none-eabi/lib/thumb/libm.a(lib_a-w_asin.o) (__fdlib_version)
/opt/paparazzi/arm-multilib/lib/gcc/arm-none-eabi/4.6.2/../../../../arm-none-eabi/lib/thumb/libm.a(lib_a-s_matherr.o)
                              /opt/paparazzi/arm-multilib/lib/gcc/arm-none-eabi/4.6.2/../../../../arm-none-eabi/lib/thumb/libm.a(lib_a-w_asin.o) (matherr)
/opt/paparazzi/arm-multilib/lib/gcc/arm-none-eabi/4.6.2/../../../../arm-none-eabi/lib/thumb/libm.a(lib_a-s_nan.o)
                              /opt/paparazzi/arm-multilib/lib/gcc/arm-none-eabi/4.6.2/../../../../arm-none-eabi/lib/thumb/libm.a(lib_a-w_asin.o) (nan)
/opt/paparazzi/arm-multilib/lib/gcc/arm-none-eabi/4.6.2/../../../../arm-none-eabi/lib/thumb/libm.a(lib_a-s_scalbn.o)
                              /opt/paparazzi/arm-multilib/lib/gcc/arm-none-eabi/4.6.2/../../../../arm-none-eabi/lib/thumb/libm.a(lib_a-e_pow.o) (scalbn)
/opt/paparazzi/arm-multilib/lib/gcc/arm-none-eabi/4.6.2/../../../../arm-none-eabi/lib/thumb/libm.a(lib_a-sf_finite.o)
                              /opt/paparazzi/arm-multilib/lib/gcc/arm-none-eabi/4.6.2/../../../../arm-none-eabi/lib/thumb/libm.a(lib_a-wf_pow.o) (finitef)
/opt/paparazzi/arm-multilib/lib/gcc/arm-none-eabi/4.6.2/../../../../arm-none-eabi/lib/thumb/libm.a(lib_a-sf_nan.o)
                              /opt/paparazzi/arm-multilib/lib/gcc/arm-none-eabi/4.6.2/../../../../arm-none-eabi/lib/thumb/libm.a(lib_a-ef_pow.o) (nanf)
/opt/paparazzi/arm-multilib/lib/gcc/arm-none-eabi/4.6.2/../../../../arm-none-eabi/lib/thumb/libm.a(lib_a-sf_scalbn.o)
                              /opt/paparazzi/arm-multilib/lib/gcc/arm-none-eabi/4.6.2/../../../../arm-none-eabi/lib/thumb/libm.a(lib_a-ef_pow.o) (scalbnf)
/opt/paparazzi/arm-multilib/lib/gcc/arm-none-eabi/4.6.2/../../../../arm-none-eabi/lib/thumb/libm.a(lib_a-s_copysign.o)
                              /opt/paparazzi/arm-multilib/lib/gcc/arm-none-eabi/4.6.2/../../../../arm-none-eabi/lib/thumb/libm.a(lib_a-s_scalbn.o) (copysign)
/opt/paparazzi/arm-multilib/lib/gcc/arm-none-eabi/4.6.2/../../../../arm-none-eabi/lib/thumb/libm.a(lib_a-sf_copysign.o)
                              /opt/paparazzi/arm-multilib/lib/gcc/arm-none-eabi/4.6.2/../../../../arm-none-eabi/lib/thumb/libm.a(lib_a-sf_scalbn.o) (copysignf)
/opt/paparazzi/arm-multilib/lib/gcc/arm-none-eabi/4.6.2/../../../../arm-none-eabi/lib/thumb/libc.a(lib_a-errno.o)
                              /opt/paparazzi/arm-multilib/lib/gcc/arm-none-eabi/4.6.2/../../../../arm-none-eabi/lib/thumb/libm.a(lib_a-w_asin.o) (__errno)
/opt/paparazzi/arm-multilib/lib/gcc/arm-none-eabi/4.6.2/../../../../arm-none-eabi/lib/thumb/libc.a(lib_a-impure.o)
                              /opt/paparazzi/arm-multilib/lib/gcc/arm-none-eabi/4.6.2/../../../../arm-none-eabi/lib/thumb/libc.a(lib_a-errno.o) (_impure_ptr)
/opt/paparazzi/arm-multilib/lib/gcc/arm-none-eabi/4.6.2/thumb/libgcc.a(_thumb1_case_uqi.o)
                              /opt/paparazzi/arm-multilib/lib/gcc/arm-none-eabi/4.6.2/../../../../arm-none-eabi/lib/thumb/libm.a(lib_a-e_atan2.o) (__gnu_thumb1_case_uqi)
/opt/paparazzi/arm-multilib/lib/gcc/arm-none-eabi/4.6.2/thumb/libgcc.a(_udivsi3.o)
                              /home/lionel/paparazziProto1/var/MYAC/ap/math/pprz_orientation_conversion.o (__aeabi_uidiv)
/opt/paparazzi/arm-multilib/lib/gcc/arm-none-eabi/4.6.2/thumb/libgcc.a(_divsi3.o)
                              /home/lionel/paparazziProto1/var/MYAC/ap/math/pprz_orientation_conversion.o (__aeabi_idiv)
/opt/paparazzi/arm-multilib/lib/gcc/arm-none-eabi/4.6.2/thumb/libgcc.a(_dvmd_tls.o)
                              /opt/paparazzi/arm-multilib/lib/gcc/arm-none-eabi/4.6.2/thumb/libgcc.a(_udivsi3.o) (__aeabi_idiv0)
/opt/paparazzi/arm-multilib/lib/gcc/arm-none-eabi/4.6.2/thumb/libgcc.a(_arm_addsubdf3.o)
                              /home/lionel/paparazziProto1/var/MYAC/ap/math/pprz_geodetic_float.o (__aeabi_dsub)
/opt/paparazzi/arm-multilib/lib/gcc/arm-none-eabi/4.6.2/thumb/libgcc.a(_arm_muldivdf3.o)
                              /home/lionel/paparazziProto1/var/MYAC/ap/math/pprz_geodetic_int.o (__aeabi_dmul)
/opt/paparazzi/arm-multilib/lib/gcc/arm-none-eabi/4.6.2/thumb/libgcc.a(_arm_cmpdf2.o)
                              /opt/paparazzi/arm-multilib/lib/gcc/arm-none-eabi/4.6.2/../../../../arm-none-eabi/lib/thumb/libm.a(lib_a-w_log.o) (__aeabi_dcmpeq)
/opt/paparazzi/arm-multilib/lib/gcc/arm-none-eabi/4.6.2/thumb/libgcc.a(_arm_fixdfsi.o)
                              /home/lionel/paparazziProto1/var/MYAC/ap/math/pprz_geodetic_int.o (__aeabi_d2iz)
/opt/paparazzi/arm-multilib/lib/gcc/arm-none-eabi/4.6.2/thumb/libgcc.a(_arm_fixunsdfsi.o)
                              /home/lionel/paparazziProto1/var/MYAC/ap/mcu_periph/sys_time.o (__aeabi_d2uiz)
/opt/paparazzi/arm-multilib/lib/gcc/arm-none-eabi/4.6.2/thumb/libgcc.a(_arm_truncdfsf2.o)
                              /home/lionel/paparazziProto1/var/MYAC/ap/math/pprz_geodetic_float.o (__aeabi_d2f)
/opt/paparazzi/arm-multilib/lib/gcc/arm-none-eabi/4.6.2/thumb/libgcc.a(_arm_addsubsf3.o)
                              /home/lionel/paparazziProto1/var/MYAC/ap/math/pprz_geodetic_float.o (__aeabi_fsub)
/opt/paparazzi/arm-multilib/lib/gcc/arm-none-eabi/4.6.2/thumb/libgcc.a(_arm_muldivsf3.o)
                              /home/lionel/paparazziProto1/var/MYAC/ap/math/pprz_geodetic_int.o (__aeabi_fmul)
/opt/paparazzi/arm-multilib/lib/gcc/arm-none-eabi/4.6.2/thumb/libgcc.a(_arm_cmpsf2.o)
                              /home/lionel/paparazziProto1/var/MYAC/ap/firmwares/fixedwing/main_ap.o (__aeabi_fcmpeq)
/opt/paparazzi/arm-multilib/lib/gcc/arm-none-eabi/4.6.2/thumb/libgcc.a(_arm_fixsfsi.o)
                              /home/lionel/paparazziProto1/var/MYAC/ap/math/pprz_orientation_conversion.o (__aeabi_f2iz)
/opt/paparazzi/arm-multilib/lib/gcc/arm-none-eabi/4.6.2/thumb/libgcc.a(_arm_fixunssfsi.o)
                              /home/lionel/paparazziProto1/var/MYAC/ap/firmwares/fixedwing/datalink.o (__aeabi_f2uiz)

Allocating common symbols
Common symbol       size              file

radio_control       0x14              /home/lionel/paparazziProto1/var/MYAC/ap/subsystems/radio_control.o
estimator_z_dot     0x4               /home/lionel/paparazziProto1/var/MYAC/ap/./subsystems/ins/ins_alt_float.o
dl_msg_available    0x1               /home/lionel/paparazziProto1/var/MYAC/ap/firmwares/fixedwing/datalink.o
xbee_rssi           0x1               /home/lionel/paparazziProto1/var/MYAC/ap/subsystems/datalink/xbee.o
h_ctl_auto1_rate    0x1               /home/lionel/paparazziProto1/var/MYAC/ap/firmwares/fixedwing/stabilization/stabilization_attitude.o
h_ctl_course_setpoint
                    0x4               /home/lionel/paparazziProto1/var/MYAC/ap/firmwares/fixedwing/stabilization/stabilization_attitude.o
uart0               0x120             /home/lionel/paparazziProto1/var/MYAC/ap/mcu_periph/uart.o
v_ctl_auto_throttle_nominal_cruise_throttle
                    0x4               /home/lionel/paparazziProto1/var/MYAC/ap/firmwares/fixedwing/guidance/guidance_v.o
nav_glide_pitch_trim
                    0x4               /home/lionel/paparazziProto1/var/MYAC/ap/subsystems/nav.o
gps                 0xf4              /home/lionel/paparazziProto1/var/MYAC/ap/subsystems/gps.o
v_ctl_altitude_error
                    0x4               /home/lionel/paparazziProto1/var/MYAC/ap/firmwares/fixedwing/guidance/guidance_v.o
dist2_to_wp         0x4               /home/lionel/paparazziProto1/var/MYAC/ap/subsystems/nav.o
nav_segment_x_1     0x4               /home/lionel/paparazziProto1/var/MYAC/ap/subsystems/nav.o
ahrs                0x1               /home/lionel/paparazziProto1/var/MYAC/ap/subsystems/ahrs.o
ppm_frame_available
                    0x1               /home/lionel/paparazziProto1/var/MYAC/ap/subsystems/radio_control/ppm.o
estimator_z         0x4               /home/lionel/paparazziProto1/var/MYAC/ap/./subsystems/ins/ins_alt_float.o
desired_x           0x4               /home/lionel/paparazziProto1/var/MYAC/ap/subsystems/nav.o
ins                 0x3               /home/lionel/paparazziProto1/var/MYAC/ap/./subsystems/ins.o
ppm_pulses          0xe               /home/lionel/paparazziProto1/var/MYAC/ap/subsystems/radio_control/ppm.o
nav_survey_east     0x4               /home/lionel/paparazziProto1/var/MYAC/ap/subsystems/nav.o
infrared            0x38              /home/lionel/paparazziProto1/var/MYAC/ap/subsystems/sensors/infrared.o
sys_time            0xac              /home/lionel/paparazziProto1/var/MYAC/ap/mcu_periph/sys_time.o
nav_segment_x_2     0x4               /home/lionel/paparazziProto1/var/MYAC/ap/subsystems/nav.o
navigation_tid      0x1               /home/lionel/paparazziProto1/var/MYAC/ap/firmwares/fixedwing/main_ap.o
imu                 0xb8              /home/lionel/paparazziProto1/var/MYAC/ap/subsystems/imu.o
nav_circle_radius   0x4               /home/lionel/paparazziProto1/var/MYAC/ap/subsystems/nav.o
v_ctl_climb_mode    0x1               /home/lionel/paparazziProto1/var/MYAC/ap/firmwares/fixedwing/guidance/guidance_v.o
nav_ground_speed_setpoint
                    0x4               /home/lionel/paparazziProto1/var/MYAC/ap/subsystems/nav.o
nav_circle_radians  0x4               /home/lionel/paparazziProto1/var/MYAC/ap/subsystems/nav.o
h_ctl_roll_max_setpoint
                    0x4               /home/lionel/paparazziProto1/var/MYAC/ap/firmwares/fixedwing/stabilization/stabilization_attitude.o
fbw_periodic_tid    0x1               /home/lionel/paparazziProto1/var/MYAC/ap/firmwares/fixedwing/main_fbw.o
nav_throttle_setpoint
                    0x2               /home/lionel/paparazziProto1/var/MYAC/ap/subsystems/nav.o
h_ctl_course_pre_bank_correction
                    0x4               /home/lionel/paparazziProto1/var/MYAC/ap/firmwares/fixedwing/stabilization/stabilization_attitude.o
desired_y           0x4               /home/lionel/paparazziProto1/var/MYAC/ap/subsystems/nav.o
uart1               0x120             /home/lionel/paparazziProto1/var/MYAC/ap/mcu_periph/uart.o
nav_shift           0x4               /home/lionel/paparazziProto1/var/MYAC/ap/subsystems/nav.o
the_acs_id          0x100             /home/lionel/paparazziProto1/var/MYAC/ap/subsystems/navigation/traffic_info.o
carrot_x            0x4               /home/lionel/paparazziProto1/var/MYAC/ap/subsystems/nav.o
last_y              0x4               /home/lionel/paparazziProto1/var/MYAC/ap/subsystems/nav.o
v_ctl_auto_throttle_pitch_of_vz_dgain
                    0x4               /home/lionel/paparazziProto1/var/MYAC/ap/firmwares/fixedwing/guidance/guidance_v.o
the_acs             0x300             /home/lionel/paparazziProto1/var/MYAC/ap/subsystems/navigation/traffic_info.o
v_ctl_pitch_setpoint
                    0x4               /home/lionel/paparazziProto1/var/MYAC/ap/firmwares/fixedwing/guidance/guidance_v.o
horizontal_mode     0x1               /home/lionel/paparazziProto1/var/MYAC/ap/subsystems/nav.o
v_ctl_altitude_pre_climb_correction
                    0x4               /home/lionel/paparazziProto1/var/MYAC/ap/firmwares/fixedwing/guidance/guidance_v.o
monitor_tid         0x1               /home/lionel/paparazziProto1/var/MYAC/ap/firmwares/fixedwing/main_ap.o
v_ctl_auto_throttle_sum_err
                    0x4               /home/lionel/paparazziProto1/var/MYAC/ap/firmwares/fixedwing/guidance/guidance_v.o
v_ctl_auto_throttle_submode
                    0x1               /home/lionel/paparazziProto1/var/MYAC/ap/firmwares/fixedwing/guidance/guidance_v.o
h_ctl_elevator_setpoint
                    0x2               /home/lionel/paparazziProto1/var/MYAC/ap/firmwares/fixedwing/stabilization/stabilization_attitude.o
fbw_mode            0x1               /home/lionel/paparazziProto1/var/MYAC/ap/firmwares/fixedwing/main_fbw.o
xbee_delay_time     0x4               /home/lionel/paparazziProto1/var/MYAC/ap/subsystems/datalink/xbee.o
actuators           0x8               /home/lionel/paparazziProto1/var/MYAC/ap/actuators.o
state               0x268             /home/lionel/paparazziProto1/var/MYAC/ap/state.o
settings_store_now  0x1               /home/lionel/paparazziProto1/var/MYAC/ap/subsystems/settings.o
nav_block           0x1               /home/lionel/paparazziProto1/var/MYAC/ap/subsystems/navigation/common_flight_plan.o
ppm_data_valid      0x1               /home/lionel/paparazziProto1/var/MYAC/ap/arch/lpc21/subsystems/radio_control/ppm_arch.o
v_ctl_auto_throttle_pitch_of_vz_pgain
                    0x4               /home/lionel/paparazziProto1/var/MYAC/ap/firmwares/fixedwing/guidance/guidance_v.o
v_ctl_altitude_max_climb
                    0x4               /home/lionel/paparazziProto1/var/MYAC/ap/firmwares/fixedwing/guidance/guidance_v.o
servos_4015_idx     0x1               /home/lionel/paparazziProto1/var/MYAC/ap/arch/lpc21/servos_4015_MAT_hw.o
nav_circle_y        0x4               /home/lionel/paparazziProto1/var/MYAC/ap/subsystems/nav.o
too_far_from_home   0x1               /home/lionel/paparazziProto1/var/MYAC/ap/subsystems/nav.o
sensors_tid         0x1               /home/lionel/paparazziProto1/var/MYAC/ap/firmwares/fixedwing/main_ap.o
nav_pitch           0x4               /home/lionel/paparazziProto1/var/MYAC/ap/subsystems/nav.o
downlink_nb_ovrn    0x1               /home/lionel/paparazziProto1/var/MYAC/ap/subsystems/datalink/downlink.o
imu_overrun         0x4               /home/lionel/paparazziProto1/var/MYAC/ap/subsystems/imu/imu_analog.o
h_ctl_aileron_of_throttle
                    0x4               /home/lionel/paparazziProto1/var/MYAC/ap/firmwares/fixedwing/stabilization/stabilization_attitude.o
rc_pitch            0x4               /home/lionel/paparazziProto1/var/MYAC/ap/subsystems/nav.o
h_ctl_aileron_setpoint
                    0x2               /home/lionel/paparazziProto1/var/MYAC/ap/firmwares/fixedwing/stabilization/stabilization_attitude.o
v_ctl_altitude_setpoint
                    0x4               /home/lionel/paparazziProto1/var/MYAC/ap/firmwares/fixedwing/guidance/guidance_v.o
h_ctl_pitch_setpoint
                    0x4               /home/lionel/paparazziProto1/var/MYAC/ap/firmwares/fixedwing/stabilization/stabilization_attitude.o
servos_values       0x10              /home/lionel/paparazziProto1/var/MYAC/ap/arch/lpc21/servos_4015_MAT_hw.o
analog_imu_available
                    0x1               /home/lionel/paparazziProto1/var/MYAC/ap/subsystems/imu/imu_analog.o
v_ctl_mode          0x1               /home/lionel/paparazziProto1/var/MYAC/ap/firmwares/fixedwing/guidance/guidance_v.o
v_ctl_auto_throttle_cruise_throttle
                    0x4               /home/lionel/paparazziProto1/var/MYAC/ap/firmwares/fixedwing/guidance/guidance_v.o
v_ctl_altitude_pgain
                    0x4               /home/lionel/paparazziProto1/var/MYAC/ap/firmwares/fixedwing/guidance/guidance_v.o
electrical          0x8               /home/lionel/paparazziProto1/var/MYAC/ap/subsystems/electrical.o
downlink_nb_msgs    0x2               /home/lionel/paparazziProto1/var/MYAC/ap/subsystems/datalink/downlink.o
h_ctl_roll_slew     0x4               /home/lionel/paparazziProto1/var/MYAC/ap/firmwares/fixedwing/stabilization/stabilization_attitude.o
ap_ok               0x1               /home/lionel/paparazziProto1/var/MYAC/ap/./inter_mcu.o
downlink_nb_bytes   0x2               /home/lionel/paparazziProto1/var/MYAC/ap/subsystems/datalink/downlink.o
h_ctl_course_pgain  0x4               /home/lionel/paparazziProto1/var/MYAC/ap/firmwares/fixedwing/stabilization/stabilization_attitude.o
nav_oval_count      0x1               /home/lionel/paparazziProto1/var/MYAC/ap/subsystems/nav.o
nav_mode            0x4               /home/lionel/paparazziProto1/var/MYAC/ap/subsystems/nav.o
h_ctl_pitch_pgain   0x4               /home/lionel/paparazziProto1/var/MYAC/ap/firmwares/fixedwing/stabilization/stabilization_attitude.o
openlog_periodic_2Hz_openlog_status
                    0x1               /home/lionel/paparazziProto1/var/MYAC/ap/firmwares/fixedwing/main_ap.o
h_ctl_pitch_loop_setpoint
                    0x4               /home/lionel/paparazziProto1/var/MYAC/ap/firmwares/fixedwing/stabilization/stabilization_attitude.o
attitude_tid        0x1               /home/lionel/paparazziProto1/var/MYAC/ap/firmwares/fixedwing/main_ap.o
dist2_to_home       0x4               /home/lionel/paparazziProto1/var/MYAC/ap/subsystems/nav.o
nav_climb           0x4               /home/lionel/paparazziProto1/var/MYAC/ap/subsystems/nav.o
h_ctl_course_pre_bank
                    0x4               /home/lionel/paparazziProto1/var/MYAC/ap/firmwares/fixedwing/stabilization/stabilization_attitude.o
v_ctl_auto_pitch_pgain
                    0x4               /home/lionel/paparazziProto1/var/MYAC/ap/firmwares/fixedwing/guidance/guidance_v.o
last_x              0x4               /home/lionel/paparazziProto1/var/MYAC/ap/subsystems/nav.o
dl_buffer           0x80              /home/lionel/paparazziProto1/var/MYAC/ap/firmwares/fixedwing/datalink.o
ppm_last_pulse_time
                    0x4               /home/lionel/paparazziProto1/var/MYAC/ap/arch/lpc21/subsystems/radio_control/ppm_arch.o
acs_idx             0x1               /home/lionel/paparazziProto1/var/MYAC/ap/subsystems/navigation/traffic_info.o
last_block          0x1               /home/lionel/paparazziProto1/var/MYAC/ap/subsystems/navigation/common_flight_plan.o
v_ctl_auto_throttle_climb_throttle_increment
                    0x4               /home/lionel/paparazziProto1/var/MYAC/ap/firmwares/fixedwing/guidance/guidance_v.o
v_ctl_auto_throttle_igain
                    0x4               /home/lionel/paparazziProto1/var/MYAC/ap/firmwares/fixedwing/guidance/guidance_v.o
gps_ubx             0x118             /home/lionel/paparazziProto1/var/MYAC/ap/subsystems/gps/gps_ubx.o
nav_survey_active   0x1               /home/lionel/paparazziProto1/var/MYAC/ap/subsystems/nav.o
h_ctl_pitch_dgain   0x4               /home/lionel/paparazziProto1/var/MYAC/ap/firmwares/fixedwing/stabilization/stabilization_attitude.o
time_since_last_ap  0x1               /home/lionel/paparazziProto1/var/MYAC/ap/./inter_mcu.o
v_ctl_auto_throttle_min_cruise_throttle
                    0x4               /home/lionel/paparazziProto1/var/MYAC/ap/firmwares/fixedwing/guidance/guidance_v.o
nav_stage           0x1               /home/lionel/paparazziProto1/var/MYAC/ap/subsystems/navigation/common_flight_plan.o
oval_status         0x1               /home/lionel/paparazziProto1/var/MYAC/ap/subsystems/nav.o
energy              0x4               /home/lionel/paparazziProto1/var/MYAC/ap/firmwares/fixedwing/main_ap.o
last_stage          0x1               /home/lionel/paparazziProto1/var/MYAC/ap/subsystems/navigation/common_flight_plan.o
nav_ground_speed_pgain
                    0x4               /home/lionel/paparazziProto1/var/MYAC/ap/subsystems/nav.o
pers_settings       0x0               /home/lionel/paparazziProto1/var/MYAC/ap/subsystems/settings.o
v_ctl_throttle_setpoint
                    0x2               /home/lionel/paparazziProto1/var/MYAC/ap/firmwares/fixedwing/guidance/guidance_v.o
telemetry_tid       0x1               /home/lionel/paparazziProto1/var/MYAC/ap/firmwares/fixedwing/main_ap.o
v_ctl_climb_setpoint
                    0x4               /home/lionel/paparazziProto1/var/MYAC/ap/firmwares/fixedwing/guidance/guidance_v.o
ppm_cur_pulse       0x1               /home/lionel/paparazziProto1/var/MYAC/ap/arch/lpc21/subsystems/radio_control/ppm_arch.o
v_ctl_auto_throttle_dgain
                    0x4               /home/lionel/paparazziProto1/var/MYAC/ap/firmwares/fixedwing/guidance/guidance_v.o
electrical_tid      0x1               /home/lionel/paparazziProto1/var/MYAC/ap/firmwares/fixedwing/main_fbw.o
nav_circle_x        0x4               /home/lionel/paparazziProto1/var/MYAC/ap/subsystems/nav.o
nav_segment_y_2     0x4               /home/lionel/paparazziProto1/var/MYAC/ap/subsystems/nav.o
dc_timer            0x1               /home/lionel/paparazziProto1/var/MYAC/ap/modules/digital_cam/servo_cam_ctrl.o
datalink_time       0x2               /home/lionel/paparazziProto1/var/MYAC/ap/firmwares/fixedwing/datalink.o
h_ctl_course_dgain  0x4               /home/lionel/paparazziProto1/var/MYAC/ap/firmwares/fixedwing/stabilization/stabilization_attitude.o
power_switch        0x1               /home/lionel/paparazziProto1/var/MYAC/ap/firmwares/fixedwing/main_ap.o
nav_segment_y_1     0x4               /home/lionel/paparazziProto1/var/MYAC/ap/subsystems/nav.o
h_ctl_roll_attitude_gain
                    0x4               /home/lionel/paparazziProto1/var/MYAC/ap/firmwares/fixedwing/stabilization/stabilization_attitude.o
h_ctl_roll_rate_gain
                    0x4               /home/lionel/paparazziProto1/var/MYAC/ap/firmwares/fixedwing/stabilization/stabilization_attitude.o
h_ctl_disabled      0x1               /home/lionel/paparazziProto1/var/MYAC/ap/firmwares/fixedwing/stabilization/stabilization_attitude.o
modules_tid         0x1               /home/lionel/paparazziProto1/var/MYAC/ap/firmwares/fixedwing/main_ap.o
commands            0x8               /home/lionel/paparazziProto1/var/MYAC/ap/./commands.o
ground_alt          0x4               /home/lionel/paparazziProto1/var/MYAC/ap/subsystems/nav.o
nav_survey_west     0x4               /home/lionel/paparazziProto1/var/MYAC/ap/subsystems/nav.o
v_ctl_auto_pitch_igain
                    0x4               /home/lionel/paparazziProto1/var/MYAC/ap/firmwares/fixedwing/guidance/guidance_v.o
h_ctl_roll_pgain    0x4               /home/lionel/paparazziProto1/var/MYAC/ap/firmwares/fixedwing/stabilization/stabilization_attitude.o
v_ctl_altitude_pre_climb
                    0x4               /home/lionel/paparazziProto1/var/MYAC/ap/firmwares/fixedwing/guidance/guidance_v.o
nav_radius          0x4               /home/lionel/paparazziProto1/var/MYAC/ap/subsystems/nav.o
nav_course          0x4               /home/lionel/paparazziProto1/var/MYAC/ap/subsystems/nav.o
xbee_cs             0x1               /home/lionel/paparazziProto1/var/MYAC/ap/subsystems/datalink/xbee.o
nav_survey_shift    0x4               /home/lionel/paparazziProto1/var/MYAC/ap/subsystems/nav.o
carrot_y            0x4               /home/lionel/paparazziProto1/var/MYAC/ap/subsystems/nav.o
v_ctl_auto_throttle_max_cruise_throttle
                    0x4               /home/lionel/paparazziProto1/var/MYAC/ap/firmwares/fixedwing/guidance/guidance_v.o
v_ctl_throttle_slewed
                    0x2               /home/lionel/paparazziProto1/var/MYAC/ap/firmwares/fixedwing/guidance/guidance_v.o
alt_kalman_enabled  0x1               /home/lionel/paparazziProto1/var/MYAC/ap/./subsystems/ins/ins_alt_float.o
ir_adc              0x6               /home/lionel/paparazziProto1/var/MYAC/ap/subsystems/sensors/infrared_adc.o
stage_time          0x2               /home/lionel/paparazziProto1/var/MYAC/ap/subsystems/navigation/common_flight_plan.o
h_ctl_roll_setpoint
                    0x4               /home/lionel/paparazziProto1/var/MYAC/ap/firmwares/fixedwing/stabilization/stabilization_attitude.o
nav_survey_south    0x4               /home/lionel/paparazziProto1/var/MYAC/ap/subsystems/nav.o
v_ctl_auto_throttle_pgain
                    0x4               /home/lionel/paparazziProto1/var/MYAC/ap/firmwares/fixedwing/guidance/guidance_v.o
vsupply             0x1               /home/lionel/paparazziProto1/var/MYAC/ap/firmwares/fixedwing/main_ap.o
block_time          0x2               /home/lionel/paparazziProto1/var/MYAC/ap/subsystems/navigation/common_flight_plan.o
nav_circle_trigo_qdr
                    0x4               /home/lionel/paparazziProto1/var/MYAC/ap/subsystems/nav.o
fp_pitch            0x4               /home/lionel/paparazziProto1/var/MYAC/ap/subsystems/nav.o
flight_altitude     0x4               /home/lionel/paparazziProto1/var/MYAC/ap/subsystems/nav.o
nav_survey_north    0x4               /home/lionel/paparazziProto1/var/MYAC/ap/subsystems/nav.o
heading             0x4               /home/lionel/paparazziProto1/var/MYAC/ap/subsystems/ahrs/ahrs_infrared.o
h_ctl_elevator_of_roll
                    0x4               /home/lionel/paparazziProto1/var/MYAC/ap/firmwares/fixedwing/stabilization/stabilization_attitude.o
digital_cam_servo_servo_cam_ctrl_periodic_status
                    0x1               /home/lionel/paparazziProto1/var/MYAC/ap/firmwares/fixedwing/main_ap.o
v_ctl_auto_pitch_sum_err
                    0x4               /home/lionel/paparazziProto1/var/MYAC/ap/firmwares/fixedwing/guidance/guidance_v.o
xbee_tp             0x107             /home/lionel/paparazziProto1/var/MYAC/ap/subsystems/datalink/xbee.o

Discarded input sections

 .text          0x00000000        0x0 /home/lionel/paparazziProto1/var/MYAC/ap/crt0.o
 .data          0x00000000        0x0 /home/lionel/paparazziProto1/var/MYAC/ap/crt0.o
 .bss           0x00000000        0x0 /home/lionel/paparazziProto1/var/MYAC/ap/crt0.o
 .text          0x00000000        0x0 /home/lionel/paparazziProto1/var/MYAC/ap/mcu.o
 .data          0x00000000        0x0 /home/lionel/paparazziProto1/var/MYAC/ap/mcu.o
 .bss           0x00000000        0x0 /home/lionel/paparazziProto1/var/MYAC/ap/mcu.o
 .text          0x00000000        0x0 /home/lionel/paparazziProto1/var/MYAC/ap/arch/lpc21/mcu_arch.o
 .data          0x00000000        0x0 /home/lionel/paparazziProto1/var/MYAC/ap/arch/lpc21/mcu_arch.o
 .bss           0x00000000        0x0 /home/lionel/paparazziProto1/var/MYAC/ap/arch/lpc21/mcu_arch.o
 .text          0x00000000        0x0 /home/lionel/paparazziProto1/var/MYAC/ap/mcu_periph/sys_time.o
 .data          0x00000000        0x0 /home/lionel/paparazziProto1/var/MYAC/ap/mcu_periph/sys_time.o
 .bss           0x00000000        0x0 /home/lionel/paparazziProto1/var/MYAC/ap/mcu_periph/sys_time.o
 .text.sys_time_cancel_timer
                0x00000000       0x1c /home/lionel/paparazziProto1/var/MYAC/ap/mcu_periph/sys_time.o
 .text.sys_time_update_timer
                0x00000000       0x74 /home/lionel/paparazziProto1/var/MYAC/ap/mcu_periph/sys_time.o
 .text          0x00000000        0x0 /home/lionel/paparazziProto1/var/MYAC/ap/arch/lpc21/mcu_periph/sys_time_arch.o
 .data          0x00000000        0x0 /home/lionel/paparazziProto1/var/MYAC/ap/arch/lpc21/mcu_periph/sys_time_arch.o
 .bss           0x00000000        0x0 /home/lionel/paparazziProto1/var/MYAC/ap/arch/lpc21/mcu_periph/sys_time_arch.o
 .text          0x00000000        0x0 /home/lionel/paparazziProto1/var/MYAC/ap/./inter_mcu.o
 .data          0x00000000        0x0 /home/lionel/paparazziProto1/var/MYAC/ap/./inter_mcu.o
 .bss           0x00000000        0x0 /home/lionel/paparazziProto1/var/MYAC/ap/./inter_mcu.o
 .text          0x00000000        0x0 /home/lionel/paparazziProto1/var/MYAC/ap/math/pprz_geodetic_int.o
 .data          0x00000000        0x0 /home/lionel/paparazziProto1/var/MYAC/ap/math/pprz_geodetic_int.o
 .bss           0x00000000        0x0 /home/lionel/paparazziProto1/var/MYAC/ap/math/pprz_geodetic_int.o
 .text.ned_of_ecef_point_i
                0x00000000       0x34 /home/lionel/paparazziProto1/var/MYAC/ap/math/pprz_geodetic_int.o
 .text.enu_of_ecef_vect_i
                0x00000000       0x7c /home/lionel/paparazziProto1/var/MYAC/ap/math/pprz_geodetic_int.o
 .text.ned_of_ecef_vect_i
                0x00000000       0x34 /home/lionel/paparazziProto1/var/MYAC/ap/math/pprz_geodetic_int.o
 .text.ecef_of_enu_point_i
                0x00000000       0x9c /home/lionel/paparazziProto1/var/MYAC/ap/math/pprz_geodetic_int.o
 .text.ecef_of_ned_point_i
                0x00000000       0x34 /home/lionel/paparazziProto1/var/MYAC/ap/math/pprz_geodetic_int.o
 .text.ecef_of_enu_vect_i
                0x00000000       0x78 /home/lionel/paparazziProto1/var/MYAC/ap/math/pprz_geodetic_int.o
 .text.ecef_of_ned_vect_i
                0x00000000       0x34 /home/lionel/paparazziProto1/var/MYAC/ap/math/pprz_geodetic_int.o
 .text.lla_of_ecef_i
                0x00000000       0xe0 /home/lionel/paparazziProto1/var/MYAC/ap/math/pprz_geodetic_int.o
 .text.ltp_def_from_ecef_i
                0x00000000      0x174 /home/lionel/paparazziProto1/var/MYAC/ap/math/pprz_geodetic_int.o
 .text.ned_of_lla_vect_i
                0x00000000       0x38 /home/lionel/paparazziProto1/var/MYAC/ap/math/pprz_geodetic_int.o
 .text.enu_of_lla_vect_i
                0x00000000       0x38 /home/lionel/paparazziProto1/var/MYAC/ap/math/pprz_geodetic_int.o
 .text.ned_of_lla_point_i
                0x00000000       0x38 /home/lionel/paparazziProto1/var/MYAC/ap/math/pprz_geodetic_int.o
 .text.enu_of_lla_point_i
                0x00000000       0x38 /home/lionel/paparazziProto1/var/MYAC/ap/math/pprz_geodetic_int.o
 .text.ltp_def_from_lla_i
                0x00000000      0x170 /home/lionel/paparazziProto1/var/MYAC/ap/math/pprz_geodetic_int.o
 .text          0x00000000        0x0 /home/lionel/paparazziProto1/var/MYAC/ap/math/pprz_geodetic_float.o
 .data          0x00000000        0x0 /home/lionel/paparazziProto1/var/MYAC/ap/math/pprz_geodetic_float.o
 .bss           0x00000000        0x0 /home/lionel/paparazziProto1/var/MYAC/ap/math/pprz_geodetic_float.o
 .text.ned_of_ecef_point_f
                0x00000000       0x34 /home/lionel/paparazziProto1/var/MYAC/ap/math/pprz_geodetic_float.o
 .text.ned_of_ecef_vect_f
                0x00000000       0x34 /home/lionel/paparazziProto1/var/MYAC/ap/math/pprz_geodetic_float.o
 .text.ecef_of_enu_point_f
                0x00000000      0x1ec /home/lionel/paparazziProto1/var/MYAC/ap/math/pprz_geodetic_float.o
 .text.ecef_of_ned_point_f
                0x00000000       0x34 /home/lionel/paparazziProto1/var/MYAC/ap/math/pprz_geodetic_float.o
 .text.ecef_of_enu_vect_f
                0x00000000      0x1d4 /home/lionel/paparazziProto1/var/MYAC/ap/math/pprz_geodetic_float.o
 .text.ecef_of_ned_vect_f
                0x00000000       0x34 /home/lionel/paparazziProto1/var/MYAC/ap/math/pprz_geodetic_float.o
 .text.lla_of_ecef_f
                0x00000000      0x37c /home/lionel/paparazziProto1/var/MYAC/ap/math/pprz_geodetic_float.o
 .text.ltp_def_from_ecef_f
                0x00000000       0xcc /home/lionel/paparazziProto1/var/MYAC/ap/math/pprz_geodetic_float.o
 .text.ned_of_lla_point_f
                0x00000000       0x38 /home/lionel/paparazziProto1/var/MYAC/ap/math/pprz_geodetic_float.o
 .text.ltp_def_from_lla_f
                0x00000000       0xc8 /home/lionel/paparazziProto1/var/MYAC/ap/math/pprz_geodetic_float.o
 .text.lla_of_utm_f
                0x00000000      0x35c /home/lionel/paparazziProto1/var/MYAC/ap/math/pprz_geodetic_float.o
 .text          0x00000000        0x0 /home/lionel/paparazziProto1/var/MYAC/ap/math/pprz_geodetic_double.o
 .data          0x00000000        0x0 /home/lionel/paparazziProto1/var/MYAC/ap/math/pprz_geodetic_double.o
 .bss           0x00000000        0x0 /home/lionel/paparazziProto1/var/MYAC/ap/math/pprz_geodetic_double.o
 .text.lla_of_ecef_d
                0x00000000      0x530 /home/lionel/paparazziProto1/var/MYAC/ap/math/pprz_geodetic_double.o
 .text.ltp_def_from_ecef_d
                0x00000000      0x150 /home/lionel/paparazziProto1/var/MYAC/ap/math/pprz_geodetic_double.o
 .text.enu_of_ecef_point_d
                0x00000000      0x1c4 /home/lionel/paparazziProto1/var/MYAC/ap/math/pprz_geodetic_double.o
 .text.ned_of_ecef_point_d
                0x00000000       0x4c /home/lionel/paparazziProto1/var/MYAC/ap/math/pprz_geodetic_double.o
 .text.enu_of_ecef_vect_d
                0x00000000      0x190 /home/lionel/paparazziProto1/var/MYAC/ap/math/pprz_geodetic_double.o
 .text.ned_of_ecef_vect_d
                0x00000000       0x4c /home/lionel/paparazziProto1/var/MYAC/ap/math/pprz_geodetic_double.o
 .text.ecef_of_enu_point_d
                0x00000000      0x204 /home/lionel/paparazziProto1/var/MYAC/ap/math/pprz_geodetic_double.o
 .text.ecef_of_ned_point_d
                0x00000000       0x48 /home/lionel/paparazziProto1/var/MYAC/ap/math/pprz_geodetic_double.o
 .text.ecef_of_enu_vect_d
                0x00000000      0x190 /home/lionel/paparazziProto1/var/MYAC/ap/math/pprz_geodetic_double.o
 .text.ecef_of_ned_vect_d
                0x00000000       0x48 /home/lionel/paparazziProto1/var/MYAC/ap/math/pprz_geodetic_double.o
 .text.gc_of_gd_lat_d
                0x00000000      0x138 /home/lionel/paparazziProto1/var/MYAC/ap/math/pprz_geodetic_double.o
 .text.lla_of_utm_d
                0x00000000      0x43c /home/lionel/paparazziProto1/var/MYAC/ap/math/pprz_geodetic_double.o
 .text          0x00000000        0x0 /home/lionel/paparazziProto1/var/MYAC/ap/math/pprz_trig_int.o
 .data          0x00000000        0x0 /home/lionel/paparazziProto1/var/MYAC/ap/math/pprz_trig_int.o
 .bss           0x00000000        0x0 /home/lionel/paparazziProto1/var/MYAC/ap/math/pprz_trig_int.o
 .text          0x00000000        0x0 /home/lionel/paparazziProto1/var/MYAC/ap/math/pprz_orientation_conversion.o
 .data          0x00000000        0x0 /home/lionel/paparazziProto1/var/MYAC/ap/math/pprz_orientation_conversion.o
 .bss           0x00000000        0x0 /home/lionel/paparazziProto1/var/MYAC/ap/math/pprz_orientation_conversion.o
 .text.orientationCalcQuat_i
                0x00000000     0x1040 /home/lionel/paparazziProto1/var/MYAC/ap/math/pprz_orientation_conversion.o
 .text.orientationCalcRMat_i
                0x00000000      0xaec /home/lionel/paparazziProto1/var/MYAC/ap/math/pprz_orientation_conversion.o
 .text.orientationCalcEulers_i
                0x00000000      0x518 /home/lionel/paparazziProto1/var/MYAC/ap/math/pprz_orientation_conversion.o
 .text.orientationCalcQuat_f
                0x00000000      0x65c /home/lionel/paparazziProto1/var/MYAC/ap/math/pprz_orientation_conversion.o
 .text.orientationCalcRMat_f
                0x00000000      0x818 /home/lionel/paparazziProto1/var/MYAC/ap/math/pprz_orientation_conversion.o
 .text          0x00000000        0x0 /home/lionel/paparazziProto1/var/MYAC/ap/mcu_periph/i2c.o
 .data          0x00000000        0x0 /home/lionel/paparazziProto1/var/MYAC/ap/mcu_periph/i2c.o
 .bss           0x00000000        0x0 /home/lionel/paparazziProto1/var/MYAC/ap/mcu_periph/i2c.o
 .text.i2c_init
                0x00000000       0x14 /home/lionel/paparazziProto1/var/MYAC/ap/mcu_periph/i2c.o
 .text          0x00000000        0x0 /home/lionel/paparazziProto1/var/MYAC/ap/arch/lpc21/mcu_periph/i2c_arch.o
 .data          0x00000000        0x0 /home/lionel/paparazziProto1/var/MYAC/ap/arch/lpc21/mcu_periph/i2c_arch.o
 .bss           0x00000000        0x0 /home/lionel/paparazziProto1/var/MYAC/ap/arch/lpc21/mcu_periph/i2c_arch.o
 .text.i2c_idle
                0x00000000       0x10 /home/lionel/paparazziProto1/var/MYAC/ap/arch/lpc21/mcu_periph/i2c_arch.o
 .text.i2c_submit
                0x00000000       0x78 /home/lionel/paparazziProto1/var/MYAC/ap/arch/lpc21/mcu_periph/i2c_arch.o
 .text.i2c_setbitrate
                0x00000000       0x4c /home/lionel/paparazziProto1/var/MYAC/ap/arch/lpc21/mcu_periph/i2c_arch.o
 .text          0x00000000        0x0 /home/lionel/paparazziProto1/var/MYAC/ap/firmwares/fixedwing/main_fbw.o
 .data          0x00000000        0x0 /home/lionel/paparazziProto1/var/MYAC/ap/firmwares/fixedwing/main_fbw.o
 .bss           0x00000000        0x0 /home/lionel/paparazziProto1/var/MYAC/ap/firmwares/fixedwing/main_fbw.o
 .text          0x00000000        0x0 /home/lionel/paparazziProto1/var/MYAC/ap/subsystems/electrical.o
 .data          0x00000000        0x0 /home/lionel/paparazziProto1/var/MYAC/ap/subsystems/electrical.o
 .bss           0x00000000        0x0 /home/lionel/paparazziProto1/var/MYAC/ap/subsystems/electrical.o
 .text          0x00000000        0x0 /home/lionel/paparazziProto1/var/MYAC/ap/./commands.o
 .data          0x00000000        0x0 /home/lionel/paparazziProto1/var/MYAC/ap/./commands.o
 .bss           0x00000000        0x0 /home/lionel/paparazziProto1/var/MYAC/ap/./commands.o
 .text          0x00000000        0x0 /home/lionel/paparazziProto1/var/MYAC/ap/firmwares/fixedwing/fbw_downlink.o
 .data          0x00000000        0x0 /home/lionel/paparazziProto1/var/MYAC/ap/firmwares/fixedwing/fbw_downlink.o
 .bss           0x00000000        0x0 /home/lionel/paparazziProto1/var/MYAC/ap/firmwares/fixedwing/fbw_downlink.o
 .text          0x00000000        0x0 /home/lionel/paparazziProto1/var/MYAC/ap/firmwares/fixedwing/main_ap.o
 .data          0x00000000        0x0 /home/lionel/paparazziProto1/var/MYAC/ap/firmwares/fixedwing/main_ap.o
 .bss           0x00000000        0x0 /home/lionel/paparazziProto1/var/MYAC/ap/firmwares/fixedwing/main_ap.o
 .text          0x00000000        0x0 /home/lionel/paparazziProto1/var/MYAC/ap/firmwares/fixedwing/ap_downlink.o
 .data          0x00000000        0x0 /home/lionel/paparazziProto1/var/MYAC/ap/firmwares/fixedwing/ap_downlink.o
 .bss           0x00000000        0x0 /home/lionel/paparazziProto1/var/MYAC/ap/firmwares/fixedwing/ap_downlink.o
 .text          0x00000000        0x0 /home/lionel/paparazziProto1/var/MYAC/ap/state.o
 .data          0x00000000        0x0 /home/lionel/paparazziProto1/var/MYAC/ap/state.o
 .bss           0x00000000        0x0 /home/lionel/paparazziProto1/var/MYAC/ap/state.o
 .text.stateCalcPositionEcef_i
                0x00000000       0xfc /home/lionel/paparazziProto1/var/MYAC/ap/state.o
 .text.stateCalcPositionNed_i
                0x00000000      0x330 /home/lionel/paparazziProto1/var/MYAC/ap/state.o
 .text.stateCalcPositionEnu_i
                0x00000000      0x32c /home/lionel/paparazziProto1/var/MYAC/ap/state.o
 .text.stateCalcPositionLla_i
                0x00000000      0x134 /home/lionel/paparazziProto1/var/MYAC/ap/state.o
 .text.stateCalcPositionEcef_f
                0x00000000      0x158 /home/lionel/paparazziProto1/var/MYAC/ap/state.o
 .text.stateCalcPositionNed_f
                0x00000000      0x26c /home/lionel/paparazziProto1/var/MYAC/ap/state.o
 .text.stateCalcPositionLla_f
                0x00000000      0x184 /home/lionel/paparazziProto1/var/MYAC/ap/state.o
 .text.stateCalcSpeedNed_i
                0x00000000      0x1a0 /home/lionel/paparazziProto1/var/MYAC/ap/state.o
 .text.stateCalcSpeedEnu_i
                0x00000000      0x1cc /home/lionel/paparazziProto1/var/MYAC/ap/state.o
 .text.stateCalcSpeedEcef_i
                0x00000000       0xe4 /home/lionel/paparazziProto1/var/MYAC/ap/state.o
 .text.stateCalcHorizontalSpeedNorm_i
                0x00000000      0x1d4 /home/lionel/paparazziProto1/var/MYAC/ap/state.o
 .text.stateCalcHorizontalSpeedDir_i
                0x00000000      0x3c8 /home/lionel/paparazziProto1/var/MYAC/ap/state.o
 .text.stateCalcSpeedNed_f
                0x00000000      0x1a0 /home/lionel/paparazziProto1/var/MYAC/ap/state.o
 .text.stateCalcSpeedEcef_f
                0x00000000       0xe4 /home/lionel/paparazziProto1/var/MYAC/ap/state.o
 .text.stateCalcAccelNed_i
                0x00000000       0xec /home/lionel/paparazziProto1/var/MYAC/ap/state.o
 .text.stateCalcAccelEcef_i
                0x00000000       0xe0 /home/lionel/paparazziProto1/var/MYAC/ap/state.o
 .text.stateCalcAccelNed_f
                0x00000000       0xe8 /home/lionel/paparazziProto1/var/MYAC/ap/state.o
 .text.stateCalcAccelEcef_f
                0x00000000       0xdc /home/lionel/paparazziProto1/var/MYAC/ap/state.o
 .text.stateCalcBodyRates_i
                0x00000000       0x74 /home/lionel/paparazziProto1/var/MYAC/ap/state.o
 .text.stateCalcHorizontalWindspeed_i
                0x00000000       0x60 /home/lionel/paparazziProto1/var/MYAC/ap/state.o
 .text.stateCalcAirspeed_i
                0x00000000       0x44 /home/lionel/paparazziProto1/var/MYAC/ap/state.o
 .text.stateCalcAirspeed_f
                0x00000000       0x44 /home/lionel/paparazziProto1/var/MYAC/ap/state.o
 .text          0x00000000        0x0 /home/lionel/paparazziProto1/var/MYAC/ap/./subsystems/ins.o
 .data          0x00000000        0x0 /home/lionel/paparazziProto1/var/MYAC/ap/./subsystems/ins.o
 .bss           0x00000000        0x0 /home/lionel/paparazziProto1/var/MYAC/ap/./subsystems/ins.o
 .text          0x00000000        0x0 /home/lionel/paparazziProto1/var/MYAC/ap/./subsystems/ins/ins_alt_float.o
 .data          0x00000000        0x0 /home/lionel/paparazziProto1/var/MYAC/ap/./subsystems/ins/ins_alt_float.o
 .bss           0x00000000        0x0 /home/lionel/paparazziProto1/var/MYAC/ap/./subsystems/ins/ins_alt_float.o
 .text.ins_realign_h
                0x00000000       0x18 /home/lionel/paparazziProto1/var/MYAC/ap/./subsystems/ins/ins_alt_float.o
 .text.ins_realign_v
                0x00000000        0x4 /home/lionel/paparazziProto1/var/MYAC/ap/./subsystems/ins/ins_alt_float.o
 .text.ins_propagate
                0x00000000        0x4 /home/lionel/paparazziProto1/var/MYAC/ap/./subsystems/ins/ins_alt_float.o
 .text.ins_update_baro
                0x00000000        0x4 /home/lionel/paparazziProto1/var/MYAC/ap/./subsystems/ins/ins_alt_float.o
 .text.ins_update_sonar
                0x00000000        0x4 /home/lionel/paparazziProto1/var/MYAC/ap/./subsystems/ins/ins_alt_float.o
 .text          0x00000000        0x0 /home/lionel/paparazziProto1/var/MYAC/ap/arch/lpc21/armVIC.o
 .data          0x00000000        0x0 /home/lionel/paparazziProto1/var/MYAC/ap/arch/lpc21/armVIC.o
 .bss           0x00000000        0x0 /home/lionel/paparazziProto1/var/MYAC/ap/arch/lpc21/armVIC.o
 .text.disableFIQ
                0x00000000       0x10 /home/lionel/paparazziProto1/var/MYAC/ap/arch/lpc21/armVIC.o
 .text.restoreFIQ
                0x00000000       0x1c /home/lionel/paparazziProto1/var/MYAC/ap/arch/lpc21/armVIC.o
 .text.enableFIQ
                0x00000000       0x10 /home/lionel/paparazziProto1/var/MYAC/ap/arch/lpc21/armVIC.o
 .text          0x00000000        0x0 /home/lionel/paparazziProto1/var/MYAC/ap/firmwares/fixedwing/main.o
 .data          0x00000000        0x0 /home/lionel/paparazziProto1/var/MYAC/ap/firmwares/fixedwing/main.o
 .bss           0x00000000        0x0 /home/lionel/paparazziProto1/var/MYAC/ap/firmwares/fixedwing/main.o
 .text          0x00000000        0x0 /home/lionel/paparazziProto1/var/MYAC/ap/mcu_periph/uart.o
 .data          0x00000000        0x0 /home/lionel/paparazziProto1/var/MYAC/ap/mcu_periph/uart.o
 .bss           0x00000000        0x0 /home/lionel/paparazziProto1/var/MYAC/ap/mcu_periph/uart.o
 .text          0x00000000        0x0 /home/lionel/paparazziProto1/var/MYAC/ap/arch/lpc21/mcu_periph/uart_arch.o
 .data          0x00000000        0x0 /home/lionel/paparazziProto1/var/MYAC/ap/arch/lpc21/mcu_periph/uart_arch.o
 .bss           0x00000000        0x0 /home/lionel/paparazziProto1/var/MYAC/ap/arch/lpc21/mcu_periph/uart_arch.o
 .text.uart_periph_set_baudrate
                0x00000000       0x30 /home/lionel/paparazziProto1/var/MYAC/ap/arch/lpc21/mcu_periph/uart_arch.o
 .text          0x00000000        0x0 /home/lionel/paparazziProto1/var/MYAC/ap/subsystems/settings.o
 .data          0x00000000        0x0 /home/lionel/paparazziProto1/var/MYAC/ap/subsystems/settings.o
 .bss           0x00000000        0x0 /home/lionel/paparazziProto1/var/MYAC/ap/subsystems/settings.o
 .text.settings_store
                0x00000000        0x4 /home/lionel/paparazziProto1/var/MYAC/ap/subsystems/settings.o
 COMMON         0x00000000        0x1 /home/lionel/paparazziProto1/var/MYAC/ap/subsystems/settings.o
 .text          0x00000000        0x0 /home/lionel/paparazziProto1/var/MYAC/ap/arch/lpc21/subsystems/settings_arch.o
 .data          0x00000000        0x0 /home/lionel/paparazziProto1/var/MYAC/ap/arch/lpc21/subsystems/settings_arch.o
 .bss           0x00000000        0x0 /home/lionel/paparazziProto1/var/MYAC/ap/arch/lpc21/subsystems/settings_arch.o
 .text.flash_detect
                0x00000000       0x78 /home/lionel/paparazziProto1/var/MYAC/ap/arch/lpc21/subsystems/settings_arch.o
 .text.pflash_program_array
                0x00000000       0x90 /home/lionel/paparazziProto1/var/MYAC/ap/arch/lpc21/subsystems/settings_arch.o
 .text.pflash_program_bytes
                0x00000000      0x1b8 /home/lionel/paparazziProto1/var/MYAC/ap/arch/lpc21/subsystems/settings_arch.o
 .text.persistent_write
                0x00000000       0x80 /home/lionel/paparazziProto1/var/MYAC/ap/arch/lpc21/subsystems/settings_arch.o
 .text.persistent_read
                0x00000000       0xb4 /home/lionel/paparazziProto1/var/MYAC/ap/arch/lpc21/subsystems/settings_arch.o
 .text          0x00000000        0x0 /home/lionel/paparazziProto1/var/MYAC/ap/arch/lpc21/mcu_periph/adc_arch.o
 .data          0x00000000        0x0 /home/lionel/paparazziProto1/var/MYAC/ap/arch/lpc21/mcu_periph/adc_arch.o
 .bss           0x00000000        0x0 /home/lionel/paparazziProto1/var/MYAC/ap/arch/lpc21/mcu_periph/adc_arch.o
 .text          0x00000000        0x0 /home/lionel/paparazziProto1/var/MYAC/ap/arch/lpc21/servos_4015_MAT_hw.o
 .data          0x00000000        0x0 /home/lionel/paparazziProto1/var/MYAC/ap/arch/lpc21/servos_4015_MAT_hw.o
 .bss           0x00000000        0x0 /home/lionel/paparazziProto1/var/MYAC/ap/arch/lpc21/servos_4015_MAT_hw.o
 .text          0x00000000        0x0 /home/lionel/paparazziProto1/var/MYAC/ap/actuators.o
 .data          0x00000000        0x0 /home/lionel/paparazziProto1/var/MYAC/ap/actuators.o
 .bss           0x00000000        0x0 /home/lionel/paparazziProto1/var/MYAC/ap/actuators.o
 .text          0x00000000        0x0 /home/lionel/paparazziProto1/var/MYAC/ap/subsystems/radio_control.o
 .data          0x00000000        0x0 /home/lionel/paparazziProto1/var/MYAC/ap/subsystems/radio_control.o
 .bss           0x00000000        0x0 /home/lionel/paparazziProto1/var/MYAC/ap/subsystems/radio_control.o
 .text          0x00000000        0x0 /home/lionel/paparazziProto1/var/MYAC/ap/subsystems/radio_control/ppm.o
 .data          0x00000000        0x0 /home/lionel/paparazziProto1/var/MYAC/ap/subsystems/radio_control/ppm.o
 .bss           0x00000000        0x0 /home/lionel/paparazziProto1/var/MYAC/ap/subsystems/radio_control/ppm.o
 .text          0x00000000        0x0 /home/lionel/paparazziProto1/var/MYAC/ap/arch/lpc21/subsystems/radio_control/ppm_arch.o
 .data          0x00000000        0x0 /home/lionel/paparazziProto1/var/MYAC/ap/arch/lpc21/subsystems/radio_control/ppm_arch.o
 .bss           0x00000000        0x0 /home/lionel/paparazziProto1/var/MYAC/ap/arch/lpc21/subsystems/radio_control/ppm_arch.o
 .text          0x00000000        0x0 /home/lionel/paparazziProto1/var/MYAC/ap/subsystems/datalink/downlink.o
 .data          0x00000000        0x0 /home/lionel/paparazziProto1/var/MYAC/ap/subsystems/datalink/downlink.o
 .bss           0x00000000        0x0 /home/lionel/paparazziProto1/var/MYAC/ap/subsystems/datalink/downlink.o
 .text          0x00000000        0x0 /home/lionel/paparazziProto1/var/MYAC/ap/subsystems/datalink/xbee.o
 .data          0x00000000        0x0 /home/lionel/paparazziProto1/var/MYAC/ap/subsystems/datalink/xbee.o
 .bss           0x00000000        0x0 /home/lionel/paparazziProto1/var/MYAC/ap/subsystems/datalink/xbee.o
 .text          0x00000000        0x0 /home/lionel/paparazziProto1/var/MYAC/ap/firmwares/fixedwing/datalink.o
 .data          0x00000000        0x0 /home/lionel/paparazziProto1/var/MYAC/ap/firmwares/fixedwing/datalink.o
 .bss           0x00000000        0x0 /home/lionel/paparazziProto1/var/MYAC/ap/firmwares/fixedwing/datalink.o
 .text          0x00000000        0x0 /home/lionel/paparazziProto1/var/MYAC/ap/firmwares/fixedwing/stabilization/stabilization_attitude.o
 .data          0x00000000        0x0 /home/lionel/paparazziProto1/var/MYAC/ap/firmwares/fixedwing/stabilization/stabilization_attitude.o
 .bss           0x00000000        0x0 /home/lionel/paparazziProto1/var/MYAC/ap/firmwares/fixedwing/stabilization/stabilization_attitude.o
 .text          0x00000000        0x0 /home/lionel/paparazziProto1/var/MYAC/ap/firmwares/fixedwing/guidance/guidance_v.o
 .data          0x00000000        0x0 /home/lionel/paparazziProto1/var/MYAC/ap/firmwares/fixedwing/guidance/guidance_v.o
 .bss           0x00000000        0x0 /home/lionel/paparazziProto1/var/MYAC/ap/firmwares/fixedwing/guidance/guidance_v.o
 .text          0x00000000        0x0 /home/lionel/paparazziProto1/var/MYAC/ap/subsystems/imu.o
 .data          0x00000000        0x0 /home/lionel/paparazziProto1/var/MYAC/ap/subsystems/imu.o
 .bss           0x00000000        0x0 /home/lionel/paparazziProto1/var/MYAC/ap/subsystems/imu.o
 .text.imu_float_init
                0x00000000       0x50 /home/lionel/paparazziProto1/var/MYAC/ap/subsystems/imu.o
 .text          0x00000000        0x0 /home/lionel/paparazziProto1/var/MYAC/ap/subsystems/imu/imu_analog.o
 .data          0x00000000        0x0 /home/lionel/paparazziProto1/var/MYAC/ap/subsystems/imu/imu_analog.o
 .bss           0x00000000        0x0 /home/lionel/paparazziProto1/var/MYAC/ap/subsystems/imu/imu_analog.o
 .text          0x00000000        0x0 /home/lionel/paparazziProto1/var/MYAC/ap/subsystems/ahrs.o
 .data          0x00000000        0x0 /home/lionel/paparazziProto1/var/MYAC/ap/subsystems/ahrs.o
 .bss           0x00000000        0x0 /home/lionel/paparazziProto1/var/MYAC/ap/subsystems/ahrs.o
 .text          0x00000000        0x0 /home/lionel/paparazziProto1/var/MYAC/ap/subsystems/ahrs/ahrs_infrared.o
 .data          0x00000000        0x0 /home/lionel/paparazziProto1/var/MYAC/ap/subsystems/ahrs/ahrs_infrared.o
 .bss           0x00000000        0x0 /home/lionel/paparazziProto1/var/MYAC/ap/subsystems/ahrs/ahrs_infrared.o
 .text.ahrs_align
                0x00000000       0x14 /home/lionel/paparazziProto1/var/MYAC/ap/subsystems/ahrs/ahrs_infrared.o
 .text.ahrs_update_mag
                0x00000000        0x4 /home/lionel/paparazziProto1/var/MYAC/ap/subsystems/ahrs/ahrs_infrared.o
 .text          0x00000000        0x0 /home/lionel/paparazziProto1/var/MYAC/ap/subsystems/gps/gps_ubx.o
 .data          0x00000000        0x0 /home/lionel/paparazziProto1/var/MYAC/ap/subsystems/gps/gps_ubx.o
 .bss           0x00000000        0x0 /home/lionel/paparazziProto1/var/MYAC/ap/subsystems/gps/gps_ubx.o
 .text.ubxsend_cfg_rst
                0x00000000      0x190 /home/lionel/paparazziProto1/var/MYAC/ap/subsystems/gps/gps_ubx.o
 .text          0x00000000        0x0 /home/lionel/paparazziProto1/var/MYAC/ap/subsystems/gps.o
 .data          0x00000000        0x0 /home/lionel/paparazziProto1/var/MYAC/ap/subsystems/gps.o
 .bss           0x00000000        0x0 /home/lionel/paparazziProto1/var/MYAC/ap/subsystems/gps.o
 .text          0x00000000        0x0 /home/lionel/paparazziProto1/var/MYAC/ap/subsystems/nav.o
 .data          0x00000000        0x0 /home/lionel/paparazziProto1/var/MYAC/ap/subsystems/nav.o
 .bss           0x00000000        0x0 /home/lionel/paparazziProto1/var/MYAC/ap/subsystems/nav.o
 .text.nav_eight_init
                0x00000000       0x14 /home/lionel/paparazziProto1/var/MYAC/ap/subsystems/nav.o
 .text          0x00000000        0x0 /home/lionel/paparazziProto1/var/MYAC/ap/subsystems/navigation/common_flight_plan.o
 .data          0x00000000        0x0 /home/lionel/paparazziProto1/var/MYAC/ap/subsystems/navigation/common_flight_plan.o
 .bss           0x00000000        0x0 /home/lionel/paparazziProto1/var/MYAC/ap/subsystems/navigation/common_flight_plan.o
 .text          0x00000000        0x0 /home/lionel/paparazziProto1/var/MYAC/ap/subsystems/navigation/traffic_info.o
 .data          0x00000000        0x0 /home/lionel/paparazziProto1/var/MYAC/ap/subsystems/navigation/traffic_info.o
 .bss           0x00000000        0x0 /home/lionel/paparazziProto1/var/MYAC/ap/subsystems/navigation/traffic_info.o
 .text.get_ac_info
                0x00000000       0x1c /home/lionel/paparazziProto1/var/MYAC/ap/subsystems/navigation/traffic_info.o
 .text          0x00000000        0x0 /home/lionel/paparazziProto1/var/MYAC/ap/subsystems/navigation/nav_survey_rectangle.o
 .data          0x00000000        0x0 /home/lionel/paparazziProto1/var/MYAC/ap/subsystems/navigation/nav_survey_rectangle.o
 .bss           0x00000000        0x0 /home/lionel/paparazziProto1/var/MYAC/ap/subsystems/navigation/nav_survey_rectangle.o
 .text          0x00000000        0x0 /home/lionel/paparazziProto1/var/MYAC/ap/subsystems/navigation/nav_line.o
 .data          0x00000000        0x0 /home/lionel/paparazziProto1/var/MYAC/ap/subsystems/navigation/nav_line.o
 .bss           0x00000000        0x0 /home/lionel/paparazziProto1/var/MYAC/ap/subsystems/navigation/nav_line.o
 .text          0x00000000        0x0 /home/lionel/paparazziProto1/var/MYAC/ap/modules/openlog/openlog.o
 .data          0x00000000        0x0 /home/lionel/paparazziProto1/var/MYAC/ap/modules/openlog/openlog.o
 .bss           0x00000000        0x0 /home/lionel/paparazziProto1/var/MYAC/ap/modules/openlog/openlog.o
 .text          0x00000000        0x0 /home/lionel/paparazziProto1/var/MYAC/ap/subsystems/sensors/infrared.o
 .data          0x00000000        0x0 /home/lionel/paparazziProto1/var/MYAC/ap/subsystems/sensors/infrared.o
 .bss           0x00000000        0x0 /home/lionel/paparazziProto1/var/MYAC/ap/subsystems/sensors/infrared.o
 .text          0x00000000        0x0 /home/lionel/paparazziProto1/var/MYAC/ap/subsystems/sensors/infrared_adc.o
 .data          0x00000000        0x0 /home/lionel/paparazziProto1/var/MYAC/ap/subsystems/sensors/infrared_adc.o
 .bss           0x00000000        0x0 /home/lionel/paparazziProto1/var/MYAC/ap/subsystems/sensors/infrared_adc.o
 .text.infrared_event
                0x00000000        0x4 /home/lionel/paparazziProto1/var/MYAC/ap/subsystems/sensors/infrared_adc.o
 .text.infrared_init
                0x00000000        0x4 /home/lionel/paparazziProto1/var/MYAC/ap/subsystems/sensors/infrared_adc.o
 .text.infrared_update
                0x00000000        0x4 /home/lionel/paparazziProto1/var/MYAC/ap/subsystems/sensors/infrared_adc.o
 .text          0x00000000        0x0 /home/lionel/paparazziProto1/var/MYAC/ap/modules/digital_cam/servo_cam_ctrl.o
 .data          0x00000000        0x0 /home/lionel/paparazziProto1/var/MYAC/ap/modules/digital_cam/servo_cam_ctrl.o
 .bss           0x00000000        0x0 /home/lionel/paparazziProto1/var/MYAC/ap/modules/digital_cam/servo_cam_ctrl.o
 .text          0x00000000        0x0 /home/lionel/paparazziProto1/var/MYAC/ap/modules/digital_cam/dc.o
 .data          0x00000000        0x0 /home/lionel/paparazziProto1/var/MYAC/ap/modules/digital_cam/dc.o
 .bss           0x00000000        0x0 /home/lionel/paparazziProto1/var/MYAC/ap/modules/digital_cam/dc.o
 .text.stateGetPositionEnu_f
                0x00000000       0x28 /home/lionel/paparazziProto1/var/MYAC/ap/modules/digital_cam/dc.o
 .text.dc_info  0x00000000      0x61c /home/lionel/paparazziProto1/var/MYAC/ap/modules/digital_cam/dc.o
 .text.dc_circle
                0x00000000       0xf0 /home/lionel/paparazziProto1/var/MYAC/ap/modules/digital_cam/dc.o
 .text.dc_survey
                0x00000000      0x104 /home/lionel/paparazziProto1/var/MYAC/ap/modules/digital_cam/dc.o
 .text.dc_stop  0x00000000       0x24 /home/lionel/paparazziProto1/var/MYAC/ap/modules/digital_cam/dc.o
 .data.dc_cam_tracing
                0x00000000        0x1 /home/lionel/paparazziProto1/var/MYAC/ap/modules/digital_cam/dc.o
 .bss.dc_cam_angle
                0x00000000        0x4 /home/lionel/paparazziProto1/var/MYAC/ap/modules/digital_cam/dc.o
 .data          0x00000000        0x0 /opt/paparazzi/arm-multilib/lib/gcc/arm-none-eabi/4.6.2/../../../../arm-none-eabi/lib/thumb/libm.a(lib_a-s_atan.o)
 .bss           0x00000000        0x0 /opt/paparazzi/arm-multilib/lib/gcc/arm-none-eabi/4.6.2/../../../../arm-none-eabi/lib/thumb/libm.a(lib_a-s_atan.o)
 .data          0x00000000        0x0 /opt/paparazzi/arm-multilib/lib/gcc/arm-none-eabi/4.6.2/../../../../arm-none-eabi/lib/thumb/libm.a(lib_a-s_cos.o)
 .bss           0x00000000        0x0 /opt/paparazzi/arm-multilib/lib/gcc/arm-none-eabi/4.6.2/../../../../arm-none-eabi/lib/thumb/libm.a(lib_a-s_cos.o)
 .data          0x00000000        0x0 /opt/paparazzi/arm-multilib/lib/gcc/arm-none-eabi/4.6.2/../../../../arm-none-eabi/lib/thumb/libm.a(lib_a-s_fabs.o)
 .bss           0x00000000        0x0 /opt/paparazzi/arm-multilib/lib/gcc/arm-none-eabi/4.6.2/../../../../arm-none-eabi/lib/thumb/libm.a(lib_a-s_fabs.o)
 .data          0x00000000        0x0 /opt/paparazzi/arm-multilib/lib/gcc/arm-none-eabi/4.6.2/../../../../arm-none-eabi/lib/thumb/libm.a(lib_a-s_rint.o)
 .bss           0x00000000        0x0 /opt/paparazzi/arm-multilib/lib/gcc/arm-none-eabi/4.6.2/../../../../arm-none-eabi/lib/thumb/libm.a(lib_a-s_rint.o)
 .data          0x00000000        0x0 /opt/paparazzi/arm-multilib/lib/gcc/arm-none-eabi/4.6.2/../../../../arm-none-eabi/lib/thumb/libm.a(lib_a-s_sin.o)
 .bss           0x00000000        0x0 /opt/paparazzi/arm-multilib/lib/gcc/arm-none-eabi/4.6.2/../../../../arm-none-eabi/lib/thumb/libm.a(lib_a-s_sin.o)
 .data          0x00000000        0x0 /opt/paparazzi/arm-multilib/lib/gcc/arm-none-eabi/4.6.2/../../../../arm-none-eabi/lib/thumb/libm.a(lib_a-s_tan.o)
 .bss           0x00000000        0x0 /opt/paparazzi/arm-multilib/lib/gcc/arm-none-eabi/4.6.2/../../../../arm-none-eabi/lib/thumb/libm.a(lib_a-s_tan.o)
 .data          0x00000000        0x0 /opt/paparazzi/arm-multilib/lib/gcc/arm-none-eabi/4.6.2/../../../../arm-none-eabi/lib/thumb/libm.a(lib_a-sf_atan.o)
 .bss           0x00000000        0x0 /opt/paparazzi/arm-multilib/lib/gcc/arm-none-eabi/4.6.2/../../../../arm-none-eabi/lib/thumb/libm.a(lib_a-sf_atan.o)
 .data          0x00000000        0x0 /opt/paparazzi/arm-multilib/lib/gcc/arm-none-eabi/4.6.2/../../../../arm-none-eabi/lib/thumb/libm.a(lib_a-sf_cos.o)
 .bss           0x00000000        0x0 /opt/paparazzi/arm-multilib/lib/gcc/arm-none-eabi/4.6.2/../../../../arm-none-eabi/lib/thumb/libm.a(lib_a-sf_cos.o)
 .data          0x00000000        0x0 /opt/paparazzi/arm-multilib/lib/gcc/arm-none-eabi/4.6.2/../../../../arm-none-eabi/lib/thumb/libm.a(lib_a-sf_fabs.o)
 .bss           0x00000000        0x0 /opt/paparazzi/arm-multilib/lib/gcc/arm-none-eabi/4.6.2/../../../../arm-none-eabi/lib/thumb/libm.a(lib_a-sf_fabs.o)
 .data          0x00000000        0x0 /opt/paparazzi/arm-multilib/lib/gcc/arm-none-eabi/4.6.2/../../../../arm-none-eabi/lib/thumb/libm.a(lib_a-sf_floor.o)
 .bss           0x00000000        0x0 /opt/paparazzi/arm-multilib/lib/gcc/arm-none-eabi/4.6.2/../../../../arm-none-eabi/lib/thumb/libm.a(lib_a-sf_floor.o)
 .text          0x00000000       0x2e /opt/paparazzi/arm-multilib/lib/gcc/arm-none-eabi/4.6.2/../../../../arm-none-eabi/lib/thumb/libm.a(lib_a-sf_fmax.o)
 .data          0x00000000        0x0 /opt/paparazzi/arm-multilib/lib/gcc/arm-none-eabi/4.6.2/../../../../arm-none-eabi/lib/thumb/libm.a(lib_a-sf_fmax.o)
 .bss           0x00000000        0x0 /opt/paparazzi/arm-multilib/lib/gcc/arm-none-eabi/4.6.2/../../../../arm-none-eabi/lib/thumb/libm.a(lib_a-sf_fmax.o)
 .data          0x00000000        0x0 /opt/paparazzi/arm-multilib/lib/gcc/arm-none-eabi/4.6.2/../../../../arm-none-eabi/lib/thumb/libm.a(lib_a-sf_fmin.o)
 .bss           0x00000000        0x0 /opt/paparazzi/arm-multilib/lib/gcc/arm-none-eabi/4.6.2/../../../../arm-none-eabi/lib/thumb/libm.a(lib_a-sf_fmin.o)
 .data          0x00000000        0x0 /opt/paparazzi/arm-multilib/lib/gcc/arm-none-eabi/4.6.2/../../../../arm-none-eabi/lib/thumb/libm.a(lib_a-sf_fpclassify.o)
 .bss           0x00000000        0x0 /opt/paparazzi/arm-multilib/lib/gcc/arm-none-eabi/4.6.2/../../../../arm-none-eabi/lib/thumb/libm.a(lib_a-sf_fpclassify.o)
 .data          0x00000000        0x0 /opt/paparazzi/arm-multilib/lib/gcc/arm-none-eabi/4.6.2/../../../../arm-none-eabi/lib/thumb/libm.a(lib_a-sf_sin.o)
 .bss           0x00000000        0x0 /opt/paparazzi/arm-multilib/lib/gcc/arm-none-eabi/4.6.2/../../../../arm-none-eabi/lib/thumb/libm.a(lib_a-sf_sin.o)
 .data          0x00000000        0x0 /opt/paparazzi/arm-multilib/lib/gcc/arm-none-eabi/4.6.2/../../../../arm-none-eabi/lib/thumb/libm.a(lib_a-w_asin.o)
 .bss           0x00000000        0x0 /opt/paparazzi/arm-multilib/lib/gcc/arm-none-eabi/4.6.2/../../../../arm-none-eabi/lib/thumb/libm.a(lib_a-w_asin.o)
 .data          0x00000000        0x0 /opt/paparazzi/arm-multilib/lib/gcc/arm-none-eabi/4.6.2/../../../../arm-none-eabi/lib/thumb/libm.a(lib_a-w_atan2.o)
 .bss           0x00000000        0x0 /opt/paparazzi/arm-multilib/lib/gcc/arm-none-eabi/4.6.2/../../../../arm-none-eabi/lib/thumb/libm.a(lib_a-w_atan2.o)
 .data          0x00000000        0x0 /opt/paparazzi/arm-multilib/lib/gcc/arm-none-eabi/4.6.2/../../../../arm-none-eabi/lib/thumb/libm.a(lib_a-w_cosh.o)
 .bss           0x00000000        0x0 /opt/paparazzi/arm-multilib/lib/gcc/arm-none-eabi/4.6.2/../../../../arm-none-eabi/lib/thumb/libm.a(lib_a-w_cosh.o)
 .data          0x00000000        0x0 /opt/paparazzi/arm-multilib/lib/gcc/arm-none-eabi/4.6.2/../../../../arm-none-eabi/lib/thumb/libm.a(lib_a-w_exp.o)
 .bss           0x00000000        0x0 /opt/paparazzi/arm-multilib/lib/gcc/arm-none-eabi/4.6.2/../../../../arm-none-eabi/lib/thumb/libm.a(lib_a-w_exp.o)
 .data          0x00000000        0x0 /opt/paparazzi/arm-multilib/lib/gcc/arm-none-eabi/4.6.2/../../../../arm-none-eabi/lib/thumb/libm.a(lib_a-w_log.o)
 .bss           0x00000000        0x0 /opt/paparazzi/arm-multilib/lib/gcc/arm-none-eabi/4.6.2/../../../../arm-none-eabi/lib/thumb/libm.a(lib_a-w_log.o)
 .data          0x00000000        0x0 /opt/paparazzi/arm-multilib/lib/gcc/arm-none-eabi/4.6.2/../../../../arm-none-eabi/lib/thumb/libm.a(lib_a-w_pow.o)
 .bss           0x00000000        0x0 /opt/paparazzi/arm-multilib/lib/gcc/arm-none-eabi/4.6.2/../../../../arm-none-eabi/lib/thumb/libm.a(lib_a-w_pow.o)
 .data          0x00000000        0x0 /opt/paparazzi/arm-multilib/lib/gcc/arm-none-eabi/4.6.2/../../../../arm-none-eabi/lib/thumb/libm.a(lib_a-w_sinh.o)
 .bss           0x00000000        0x0 /opt/paparazzi/arm-multilib/lib/gcc/arm-none-eabi/4.6.2/../../../../arm-none-eabi/lib/thumb/libm.a(lib_a-w_sinh.o)
 .data          0x00000000        0x0 /opt/paparazzi/arm-multilib/lib/gcc/arm-none-eabi/4.6.2/../../../../arm-none-eabi/lib/thumb/libm.a(lib_a-w_sqrt.o)
 .bss           0x00000000        0x0 /opt/paparazzi/arm-multilib/lib/gcc/arm-none-eabi/4.6.2/../../../../arm-none-eabi/lib/thumb/libm.a(lib_a-w_sqrt.o)
 .data          0x00000000        0x0 /opt/paparazzi/arm-multilib/lib/gcc/arm-none-eabi/4.6.2/../../../../arm-none-eabi/lib/thumb/libm.a(lib_a-wf_asin.o)
 .bss           0x00000000        0x0 /opt/paparazzi/arm-multilib/lib/gcc/arm-none-eabi/4.6.2/../../../../arm-none-eabi/lib/thumb/libm.a(lib_a-wf_asin.o)
 .data          0x00000000        0x0 /opt/paparazzi/arm-multilib/lib/gcc/arm-none-eabi/4.6.2/../../../../arm-none-eabi/lib/thumb/libm.a(lib_a-wf_atan2.o)
 .bss           0x00000000        0x0 /opt/paparazzi/arm-multilib/lib/gcc/arm-none-eabi/4.6.2/../../../../arm-none-eabi/lib/thumb/libm.a(lib_a-wf_atan2.o)
 .text          0x00000000       0xc8 /opt/paparazzi/arm-multilib/lib/gcc/arm-none-eabi/4.6.2/../../../../arm-none-eabi/lib/thumb/libm.a(lib_a-wf_fmod.o)
 .data          0x00000000        0x0 /opt/paparazzi/arm-multilib/lib/gcc/arm-none-eabi/4.6.2/../../../../arm-none-eabi/lib/thumb/libm.a(lib_a-wf_fmod.o)
 .bss           0x00000000        0x0 /opt/paparazzi/arm-multilib/lib/gcc/arm-none-eabi/4.6.2/../../../../arm-none-eabi/lib/thumb/libm.a(lib_a-wf_fmod.o)
 .rodata.str1.1
                0x00000000        0x6 /opt/paparazzi/arm-multilib/lib/gcc/arm-none-eabi/4.6.2/../../../../arm-none-eabi/lib/thumb/libm.a(lib_a-wf_fmod.o)
 .text          0x00000000      0x308 /opt/paparazzi/arm-multilib/lib/gcc/arm-none-eabi/4.6.2/../../../../arm-none-eabi/lib/thumb/libm.a(lib_a-wf_pow.o)
 .data          0x00000000        0x0 /opt/paparazzi/arm-multilib/lib/gcc/arm-none-eabi/4.6.2/../../../../arm-none-eabi/lib/thumb/libm.a(lib_a-wf_pow.o)
 .bss           0x00000000        0x0 /opt/paparazzi/arm-multilib/lib/gcc/arm-none-eabi/4.6.2/../../../../arm-none-eabi/lib/thumb/libm.a(lib_a-wf_pow.o)
 .rodata.str1.1
                0x00000000        0x5 /opt/paparazzi/arm-multilib/lib/gcc/arm-none-eabi/4.6.2/../../../../arm-none-eabi/lib/thumb/libm.a(lib_a-wf_pow.o)
 .data          0x00000000        0x0 /opt/paparazzi/arm-multilib/lib/gcc/arm-none-eabi/4.6.2/../../../../arm-none-eabi/lib/thumb/libm.a(lib_a-wf_sqrt.o)
 .bss           0x00000000        0x0 /opt/paparazzi/arm-multilib/lib/gcc/arm-none-eabi/4.6.2/../../../../arm-none-eabi/lib/thumb/libm.a(lib_a-wf_sqrt.o)
 .data          0x00000000        0x0 /opt/paparazzi/arm-multilib/lib/gcc/arm-none-eabi/4.6.2/../../../../arm-none-eabi/lib/thumb/libm.a(lib_a-e_asin.o)
 .bss           0x00000000        0x0 /opt/paparazzi/arm-multilib/lib/gcc/arm-none-eabi/4.6.2/../../../../arm-none-eabi/lib/thumb/libm.a(lib_a-e_asin.o)
 .data          0x00000000        0x0 /opt/paparazzi/arm-multilib/lib/gcc/arm-none-eabi/4.6.2/../../../../arm-none-eabi/lib/thumb/libm.a(lib_a-e_atan2.o)
 .bss           0x00000000        0x0 /opt/paparazzi/arm-multilib/lib/gcc/arm-none-eabi/4.6.2/../../../../arm-none-eabi/lib/thumb/libm.a(lib_a-e_atan2.o)
 .data          0x00000000        0x0 /opt/paparazzi/arm-multilib/lib/gcc/arm-none-eabi/4.6.2/../../../../arm-none-eabi/lib/thumb/libm.a(lib_a-e_cosh.o)
 .bss           0x00000000        0x0 /opt/paparazzi/arm-multilib/lib/gcc/arm-none-eabi/4.6.2/../../../../arm-none-eabi/lib/thumb/libm.a(lib_a-e_cosh.o)
 .data          0x00000000        0x0 /opt/paparazzi/arm-multilib/lib/gcc/arm-none-eabi/4.6.2/../../../../arm-none-eabi/lib/thumb/libm.a(lib_a-e_exp.o)
 .bss           0x00000000        0x0 /opt/paparazzi/arm-multilib/lib/gcc/arm-none-eabi/4.6.2/../../../../arm-none-eabi/lib/thumb/libm.a(lib_a-e_exp.o)
 .data          0x00000000        0x0 /opt/paparazzi/arm-multilib/lib/gcc/arm-none-eabi/4.6.2/../../../../arm-none-eabi/lib/thumb/libm.a(lib_a-e_log.o)
 .bss           0x00000000        0x0 /opt/paparazzi/arm-multilib/lib/gcc/arm-none-eabi/4.6.2/../../../../arm-none-eabi/lib/thumb/libm.a(lib_a-e_log.o)
 .data          0x00000000        0x0 /opt/paparazzi/arm-multilib/lib/gcc/arm-none-eabi/4.6.2/../../../../arm-none-eabi/lib/thumb/libm.a(lib_a-e_pow.o)
 .bss           0x00000000        0x0 /opt/paparazzi/arm-multilib/lib/gcc/arm-none-eabi/4.6.2/../../../../arm-none-eabi/lib/thumb/libm.a(lib_a-e_pow.o)
 .data          0x00000000        0x0 /opt/paparazzi/arm-multilib/lib/gcc/arm-none-eabi/4.6.2/../../../../arm-none-eabi/lib/thumb/libm.a(lib_a-e_rem_pio2.o)
 .bss           0x00000000        0x0 /opt/paparazzi/arm-multilib/lib/gcc/arm-none-eabi/4.6.2/../../../../arm-none-eabi/lib/thumb/libm.a(lib_a-e_rem_pio2.o)
 .data          0x00000000        0x0 /opt/paparazzi/arm-multilib/lib/gcc/arm-none-eabi/4.6.2/../../../../arm-none-eabi/lib/thumb/libm.a(lib_a-e_sinh.o)
 .bss           0x00000000        0x0 /opt/paparazzi/arm-multilib/lib/gcc/arm-none-eabi/4.6.2/../../../../arm-none-eabi/lib/thumb/libm.a(lib_a-e_sinh.o)
 .data          0x00000000        0x0 /opt/paparazzi/arm-multilib/lib/gcc/arm-none-eabi/4.6.2/../../../../arm-none-eabi/lib/thumb/libm.a(lib_a-e_sqrt.o)
 .bss           0x00000000        0x0 /opt/paparazzi/arm-multilib/lib/gcc/arm-none-eabi/4.6.2/../../../../arm-none-eabi/lib/thumb/libm.a(lib_a-e_sqrt.o)
 .data          0x00000000        0x0 /opt/paparazzi/arm-multilib/lib/gcc/arm-none-eabi/4.6.2/../../../../arm-none-eabi/lib/thumb/libm.a(lib_a-ef_asin.o)
 .bss           0x00000000        0x0 /opt/paparazzi/arm-multilib/lib/gcc/arm-none-eabi/4.6.2/../../../../arm-none-eabi/lib/thumb/libm.a(lib_a-ef_asin.o)
 .data          0x00000000        0x0 /opt/paparazzi/arm-multilib/lib/gcc/arm-none-eabi/4.6.2/../../../../arm-none-eabi/lib/thumb/libm.a(lib_a-ef_atan2.o)
 .bss           0x00000000        0x0 /opt/paparazzi/arm-multilib/lib/gcc/arm-none-eabi/4.6.2/../../../../arm-none-eabi/lib/thumb/libm.a(lib_a-ef_atan2.o)
 .text          0x00000000      0x108 /opt/paparazzi/arm-multilib/lib/gcc/arm-none-eabi/4.6.2/../../../../arm-none-eabi/lib/thumb/libm.a(lib_a-ef_fmod.o)
 .data          0x00000000        0x0 /opt/paparazzi/arm-multilib/lib/gcc/arm-none-eabi/4.6.2/../../../../arm-none-eabi/lib/thumb/libm.a(lib_a-ef_fmod.o)
 .bss           0x00000000        0x0 /opt/paparazzi/arm-multilib/lib/gcc/arm-none-eabi/4.6.2/../../../../arm-none-eabi/lib/thumb/libm.a(lib_a-ef_fmod.o)
 .rodata        0x00000000        0x8 /opt/paparazzi/arm-multilib/lib/gcc/arm-none-eabi/4.6.2/../../../../arm-none-eabi/lib/thumb/libm.a(lib_a-ef_fmod.o)
 .text          0x00000000      0x6fc /opt/paparazzi/arm-multilib/lib/gcc/arm-none-eabi/4.6.2/../../../../arm-none-eabi/lib/thumb/libm.a(lib_a-ef_pow.o)
 .data          0x00000000        0x0 /opt/paparazzi/arm-multilib/lib/gcc/arm-none-eabi/4.6.2/../../../../arm-none-eabi/lib/thumb/libm.a(lib_a-ef_pow.o)
 .bss           0x00000000        0x0 /opt/paparazzi/arm-multilib/lib/gcc/arm-none-eabi/4.6.2/../../../../arm-none-eabi/lib/thumb/libm.a(lib_a-ef_pow.o)
 .rodata        0x00000000       0x18 /opt/paparazzi/arm-multilib/lib/gcc/arm-none-eabi/4.6.2/../../../../arm-none-eabi/lib/thumb/libm.a(lib_a-ef_pow.o)
 .rodata.str1.1
                0x00000000        0x1 /opt/paparazzi/arm-multilib/lib/gcc/arm-none-eabi/4.6.2/../../../../arm-none-eabi/lib/thumb/libm.a(lib_a-ef_pow.o)
 .data          0x00000000        0x0 /opt/paparazzi/arm-multilib/lib/gcc/arm-none-eabi/4.6.2/../../../../arm-none-eabi/lib/thumb/libm.a(lib_a-ef_rem_pio2.o)
 .bss           0x00000000        0x0 /opt/paparazzi/arm-multilib/lib/gcc/arm-none-eabi/4.6.2/../../../../arm-none-eabi/lib/thumb/libm.a(lib_a-ef_rem_pio2.o)
 .data          0x00000000        0x0 /opt/paparazzi/arm-multilib/lib/gcc/arm-none-eabi/4.6.2/../../../../arm-none-eabi/lib/thumb/libm.a(lib_a-ef_sqrt.o)
 .bss           0x00000000        0x0 /opt/paparazzi/arm-multilib/lib/gcc/arm-none-eabi/4.6.2/../../../../arm-none-eabi/lib/thumb/libm.a(lib_a-ef_sqrt.o)
 .data          0x00000000        0x0 /opt/paparazzi/arm-multilib/lib/gcc/arm-none-eabi/4.6.2/../../../../arm-none-eabi/lib/thumb/libm.a(lib_a-k_cos.o)
 .bss           0x00000000        0x0 /opt/paparazzi/arm-multilib/lib/gcc/arm-none-eabi/4.6.2/../../../../arm-none-eabi/lib/thumb/libm.a(lib_a-k_cos.o)
 .data          0x00000000        0x0 /opt/paparazzi/arm-multilib/lib/gcc/arm-none-eabi/4.6.2/../../../../arm-none-eabi/lib/thumb/libm.a(lib_a-k_rem_pio2.o)
 .bss           0x00000000        0x0 /opt/paparazzi/arm-multilib/lib/gcc/arm-none-eabi/4.6.2/../../../../arm-none-eabi/lib/thumb/libm.a(lib_a-k_rem_pio2.o)
 .data          0x00000000        0x0 /opt/paparazzi/arm-multilib/lib/gcc/arm-none-eabi/4.6.2/../../../../arm-none-eabi/lib/thumb/libm.a(lib_a-k_sin.o)
 .bss           0x00000000        0x0 /opt/paparazzi/arm-multilib/lib/gcc/arm-none-eabi/4.6.2/../../../../arm-none-eabi/lib/thumb/libm.a(lib_a-k_sin.o)
 .data          0x00000000        0x0 /opt/paparazzi/arm-multilib/lib/gcc/arm-none-eabi/4.6.2/../../../../arm-none-eabi/lib/thumb/libm.a(lib_a-k_tan.o)
 .bss           0x00000000        0x0 /opt/paparazzi/arm-multilib/lib/gcc/arm-none-eabi/4.6.2/../../../../arm-none-eabi/lib/thumb/libm.a(lib_a-k_tan.o)
 .data          0x00000000        0x0 /opt/paparazzi/arm-multilib/lib/gcc/arm-none-eabi/4.6.2/../../../../arm-none-eabi/lib/thumb/libm.a(lib_a-kf_cos.o)
 .bss           0x00000000        0x0 /opt/paparazzi/arm-multilib/lib/gcc/arm-none-eabi/4.6.2/../../../../arm-none-eabi/lib/thumb/libm.a(lib_a-kf_cos.o)
 .data          0x00000000        0x0 /opt/paparazzi/arm-multilib/lib/gcc/arm-none-eabi/4.6.2/../../../../arm-none-eabi/lib/thumb/libm.a(lib_a-kf_rem_pio2.o)
 .bss           0x00000000        0x0 /opt/paparazzi/arm-multilib/lib/gcc/arm-none-eabi/4.6.2/../../../../arm-none-eabi/lib/thumb/libm.a(lib_a-kf_rem_pio2.o)
 .data          0x00000000        0x0 /opt/paparazzi/arm-multilib/lib/gcc/arm-none-eabi/4.6.2/../../../../arm-none-eabi/lib/thumb/libm.a(lib_a-kf_sin.o)
 .bss           0x00000000        0x0 /opt/paparazzi/arm-multilib/lib/gcc/arm-none-eabi/4.6.2/../../../../arm-none-eabi/lib/thumb/libm.a(lib_a-kf_sin.o)
 .data          0x00000000        0x0 /opt/paparazzi/arm-multilib/lib/gcc/arm-none-eabi/4.6.2/../../../../arm-none-eabi/lib/thumb/libm.a(lib_a-s_expm1.o)
 .bss           0x00000000        0x0 /opt/paparazzi/arm-multilib/lib/gcc/arm-none-eabi/4.6.2/../../../../arm-none-eabi/lib/thumb/libm.a(lib_a-s_expm1.o)
 .data          0x00000000        0x0 /opt/paparazzi/arm-multilib/lib/gcc/arm-none-eabi/4.6.2/../../../../arm-none-eabi/lib/thumb/libm.a(lib_a-s_finite.o)
 .bss           0x00000000        0x0 /opt/paparazzi/arm-multilib/lib/gcc/arm-none-eabi/4.6.2/../../../../arm-none-eabi/lib/thumb/libm.a(lib_a-s_finite.o)
 .data          0x00000000        0x0 /opt/paparazzi/arm-multilib/lib/gcc/arm-none-eabi/4.6.2/../../../../arm-none-eabi/lib/thumb/libm.a(lib_a-s_floor.o)
 .bss           0x00000000        0x0 /opt/paparazzi/arm-multilib/lib/gcc/arm-none-eabi/4.6.2/../../../../arm-none-eabi/lib/thumb/libm.a(lib_a-s_floor.o)
 .data          0x00000000        0x0 /opt/paparazzi/arm-multilib/lib/gcc/arm-none-eabi/4.6.2/../../../../arm-none-eabi/lib/thumb/libm.a(lib_a-s_fpclassify.o)
 .bss           0x00000000        0x0 /opt/paparazzi/arm-multilib/lib/gcc/arm-none-eabi/4.6.2/../../../../arm-none-eabi/lib/thumb/libm.a(lib_a-s_fpclassify.o)
 .text          0x00000000        0x0 /opt/paparazzi/arm-multilib/lib/gcc/arm-none-eabi/4.6.2/../../../../arm-none-eabi/lib/thumb/libm.a(lib_a-s_lib_ver.o)
 .bss           0x00000000        0x0 /opt/paparazzi/arm-multilib/lib/gcc/arm-none-eabi/4.6.2/../../../../arm-none-eabi/lib/thumb/libm.a(lib_a-s_lib_ver.o)
 .data          0x00000000        0x0 /opt/paparazzi/arm-multilib/lib/gcc/arm-none-eabi/4.6.2/../../../../arm-none-eabi/lib/thumb/libm.a(lib_a-s_matherr.o)
 .bss           0x00000000        0x0 /opt/paparazzi/arm-multilib/lib/gcc/arm-none-eabi/4.6.2/../../../../arm-none-eabi/lib/thumb/libm.a(lib_a-s_matherr.o)
 .data          0x00000000        0x0 /opt/paparazzi/arm-multilib/lib/gcc/arm-none-eabi/4.6.2/../../../../arm-none-eabi/lib/thumb/libm.a(lib_a-s_nan.o)
 .bss           0x00000000        0x0 /opt/paparazzi/arm-multilib/lib/gcc/arm-none-eabi/4.6.2/../../../../arm-none-eabi/lib/thumb/libm.a(lib_a-s_nan.o)
 .data          0x00000000        0x0 /opt/paparazzi/arm-multilib/lib/gcc/arm-none-eabi/4.6.2/../../../../arm-none-eabi/lib/thumb/libm.a(lib_a-s_scalbn.o)
 .bss           0x00000000        0x0 /opt/paparazzi/arm-multilib/lib/gcc/arm-none-eabi/4.6.2/../../../../arm-none-eabi/lib/thumb/libm.a(lib_a-s_scalbn.o)
 .text          0x00000000       0x14 /opt/paparazzi/arm-multilib/lib/gcc/arm-none-eabi/4.6.2/../../../../arm-none-eabi/lib/thumb/libm.a(lib_a-sf_finite.o)
 .data          0x00000000        0x0 /opt/paparazzi/arm-multilib/lib/gcc/arm-none-eabi/4.6.2/../../../../arm-none-eabi/lib/thumb/libm.a(lib_a-sf_finite.o)
 .bss           0x00000000        0x0 /opt/paparazzi/arm-multilib/lib/gcc/arm-none-eabi/4.6.2/../../../../arm-none-eabi/lib/thumb/libm.a(lib_a-sf_finite.o)
 .text          0x00000000        0x8 /opt/paparazzi/arm-multilib/lib/gcc/arm-none-eabi/4.6.2/../../../../arm-none-eabi/lib/thumb/libm.a(lib_a-sf_nan.o)
 .data          0x00000000        0x0 /opt/paparazzi/arm-multilib/lib/gcc/arm-none-eabi/4.6.2/../../../../arm-none-eabi/lib/thumb/libm.a(lib_a-sf_nan.o)
 .bss           0x00000000        0x0 /opt/paparazzi/arm-multilib/lib/gcc/arm-none-eabi/4.6.2/../../../../arm-none-eabi/lib/thumb/libm.a(lib_a-sf_nan.o)
 .data          0x00000000        0x0 /opt/paparazzi/arm-multilib/lib/gcc/arm-none-eabi/4.6.2/../../../../arm-none-eabi/lib/thumb/libm.a(lib_a-sf_scalbn.o)
 .bss           0x00000000        0x0 /opt/paparazzi/arm-multilib/lib/gcc/arm-none-eabi/4.6.2/../../../../arm-none-eabi/lib/thumb/libm.a(lib_a-sf_scalbn.o)
 .data          0x00000000        0x0 /opt/paparazzi/arm-multilib/lib/gcc/arm-none-eabi/4.6.2/../../../../arm-none-eabi/lib/thumb/libm.a(lib_a-s_copysign.o)
 .bss           0x00000000        0x0 /opt/paparazzi/arm-multilib/lib/gcc/arm-none-eabi/4.6.2/../../../../arm-none-eabi/lib/thumb/libm.a(lib_a-s_copysign.o)
 .data          0x00000000        0x0 /opt/paparazzi/arm-multilib/lib/gcc/arm-none-eabi/4.6.2/../../../../arm-none-eabi/lib/thumb/libm.a(lib_a-sf_copysign.o)
 .bss           0x00000000        0x0 /opt/paparazzi/arm-multilib/lib/gcc/arm-none-eabi/4.6.2/../../../../arm-none-eabi/lib/thumb/libm.a(lib_a-sf_copysign.o)
 .data          0x00000000        0x0 /opt/paparazzi/arm-multilib/lib/gcc/arm-none-eabi/4.6.2/../../../../arm-none-eabi/lib/thumb/libc.a(lib_a-errno.o)
 .bss           0x00000000        0x0 /opt/paparazzi/arm-multilib/lib/gcc/arm-none-eabi/4.6.2/../../../../arm-none-eabi/lib/thumb/libc.a(lib_a-errno.o)
 .text          0x00000000        0x0 /opt/paparazzi/arm-multilib/lib/gcc/arm-none-eabi/4.6.2/../../../../arm-none-eabi/lib/thumb/libc.a(lib_a-impure.o)
 .bss           0x00000000        0x0 /opt/paparazzi/arm-multilib/lib/gcc/arm-none-eabi/4.6.2/../../../../arm-none-eabi/lib/thumb/libc.a(lib_a-impure.o)
 .rodata        0x00000000        0x4 /opt/paparazzi/arm-multilib/lib/gcc/arm-none-eabi/4.6.2/../../../../arm-none-eabi/lib/thumb/libc.a(lib_a-impure.o)
 .data          0x00000000        0x0 /opt/paparazzi/arm-multilib/lib/gcc/arm-none-eabi/4.6.2/thumb/libgcc.a(_thumb1_case_uqi.o)
 .bss           0x00000000        0x0 /opt/paparazzi/arm-multilib/lib/gcc/arm-none-eabi/4.6.2/thumb/libgcc.a(_thumb1_case_uqi.o)
 .data          0x00000000        0x0 /opt/paparazzi/arm-multilib/lib/gcc/arm-none-eabi/4.6.2/thumb/libgcc.a(_udivsi3.o)
 .bss           0x00000000        0x0 /opt/paparazzi/arm-multilib/lib/gcc/arm-none-eabi/4.6.2/thumb/libgcc.a(_udivsi3.o)
 .data          0x00000000        0x0 /opt/paparazzi/arm-multilib/lib/gcc/arm-none-eabi/4.6.2/thumb/libgcc.a(_divsi3.o)
 .bss           0x00000000        0x0 /opt/paparazzi/arm-multilib/lib/gcc/arm-none-eabi/4.6.2/thumb/libgcc.a(_divsi3.o)
 .data          0x00000000        0x0 /opt/paparazzi/arm-multilib/lib/gcc/arm-none-eabi/4.6.2/thumb/libgcc.a(_dvmd_tls.o)
 .bss           0x00000000        0x0 /opt/paparazzi/arm-multilib/lib/gcc/arm-none-eabi/4.6.2/thumb/libgcc.a(_dvmd_tls.o)
 .data          0x00000000        0x0 /opt/paparazzi/arm-multilib/lib/gcc/arm-none-eabi/4.6.2/thumb/libgcc.a(_arm_addsubdf3.o)
 .bss           0x00000000        0x0 /opt/paparazzi/arm-multilib/lib/gcc/arm-none-eabi/4.6.2/thumb/libgcc.a(_arm_addsubdf3.o)
 .data          0x00000000        0x0 /opt/paparazzi/arm-multilib/lib/gcc/arm-none-eabi/4.6.2/thumb/libgcc.a(_arm_muldivdf3.o)
 .bss           0x00000000        0x0 /opt/paparazzi/arm-multilib/lib/gcc/arm-none-eabi/4.6.2/thumb/libgcc.a(_arm_muldivdf3.o)
 .data          0x00000000        0x0 /opt/paparazzi/arm-multilib/lib/gcc/arm-none-eabi/4.6.2/thumb/libgcc.a(_arm_cmpdf2.o)
 .bss           0x00000000        0x0 /opt/paparazzi/arm-multilib/lib/gcc/arm-none-eabi/4.6.2/thumb/libgcc.a(_arm_cmpdf2.o)
 .data          0x00000000        0x0 /opt/paparazzi/arm-multilib/lib/gcc/arm-none-eabi/4.6.2/thumb/libgcc.a(_arm_fixdfsi.o)
 .bss           0x00000000        0x0 /opt/paparazzi/arm-multilib/lib/gcc/arm-none-eabi/4.6.2/thumb/libgcc.a(_arm_fixdfsi.o)
 .data          0x00000000        0x0 /opt/paparazzi/arm-multilib/lib/gcc/arm-none-eabi/4.6.2/thumb/libgcc.a(_arm_fixunsdfsi.o)
 .bss           0x00000000        0x0 /opt/paparazzi/arm-multilib/lib/gcc/arm-none-eabi/4.6.2/thumb/libgcc.a(_arm_fixunsdfsi.o)
 .data          0x00000000        0x0 /opt/paparazzi/arm-multilib/lib/gcc/arm-none-eabi/4.6.2/thumb/libgcc.a(_arm_truncdfsf2.o)
 .bss           0x00000000        0x0 /opt/paparazzi/arm-multilib/lib/gcc/arm-none-eabi/4.6.2/thumb/libgcc.a(_arm_truncdfsf2.o)
 .data          0x00000000        0x0 /opt/paparazzi/arm-multilib/lib/gcc/arm-none-eabi/4.6.2/thumb/libgcc.a(_arm_addsubsf3.o)
 .bss           0x00000000        0x0 /opt/paparazzi/arm-multilib/lib/gcc/arm-none-eabi/4.6.2/thumb/libgcc.a(_arm_addsubsf3.o)
 .data          0x00000000        0x0 /opt/paparazzi/arm-multilib/lib/gcc/arm-none-eabi/4.6.2/thumb/libgcc.a(_arm_muldivsf3.o)
 .bss           0x00000000        0x0 /opt/paparazzi/arm-multilib/lib/gcc/arm-none-eabi/4.6.2/thumb/libgcc.a(_arm_muldivsf3.o)
 .data          0x00000000        0x0 /opt/paparazzi/arm-multilib/lib/gcc/arm-none-eabi/4.6.2/thumb/libgcc.a(_arm_cmpsf2.o)
 .bss           0x00000000        0x0 /opt/paparazzi/arm-multilib/lib/gcc/arm-none-eabi/4.6.2/thumb/libgcc.a(_arm_cmpsf2.o)
 .data          0x00000000        0x0 /opt/paparazzi/arm-multilib/lib/gcc/arm-none-eabi/4.6.2/thumb/libgcc.a(_arm_fixsfsi.o)
 .bss           0x00000000        0x0 /opt/paparazzi/arm-multilib/lib/gcc/arm-none-eabi/4.6.2/thumb/libgcc.a(_arm_fixsfsi.o)
 .data          0x00000000        0x0 /opt/paparazzi/arm-multilib/lib/gcc/arm-none-eabi/4.6.2/thumb/libgcc.a(_arm_fixunssfsi.o)
 .bss           0x00000000        0x0 /opt/paparazzi/arm-multilib/lib/gcc/arm-none-eabi/4.6.2/thumb/libgcc.a(_arm_fixunssfsi.o)

Memory Configuration

Name             Origin             Length             Attributes
ROM              0x00004000         0x00078000         xr
RAM              0x40000000         0x00007fe0         rw
*default*        0x00000000         0xffffffff

Linker script and memory map

LOAD /home/lionel/paparazziProto1/var/MYAC/ap/crt0.o
LOAD /home/lionel/paparazziProto1/var/MYAC/ap/mcu.o
LOAD /home/lionel/paparazziProto1/var/MYAC/ap/arch/lpc21/mcu_arch.o
LOAD /home/lionel/paparazziProto1/var/MYAC/ap/mcu_periph/sys_time.o
LOAD /home/lionel/paparazziProto1/var/MYAC/ap/arch/lpc21/mcu_periph/sys_time_arch.o
LOAD /home/lionel/paparazziProto1/var/MYAC/ap/./inter_mcu.o
LOAD /home/lionel/paparazziProto1/var/MYAC/ap/math/pprz_geodetic_int.o
LOAD /home/lionel/paparazziProto1/var/MYAC/ap/math/pprz_geodetic_float.o
LOAD /home/lionel/paparazziProto1/var/MYAC/ap/math/pprz_geodetic_double.o
LOAD /home/lionel/paparazziProto1/var/MYAC/ap/math/pprz_trig_int.o
LOAD /home/lionel/paparazziProto1/var/MYAC/ap/math/pprz_orientation_conversion.o
LOAD /home/lionel/paparazziProto1/var/MYAC/ap/mcu_periph/i2c.o
LOAD /home/lionel/paparazziProto1/var/MYAC/ap/arch/lpc21/mcu_periph/i2c_arch.o
LOAD /home/lionel/paparazziProto1/var/MYAC/ap/firmwares/fixedwing/main_fbw.o
LOAD /home/lionel/paparazziProto1/var/MYAC/ap/subsystems/electrical.o
LOAD /home/lionel/paparazziProto1/var/MYAC/ap/./commands.o
LOAD /home/lionel/paparazziProto1/var/MYAC/ap/firmwares/fixedwing/fbw_downlink.o
LOAD /home/lionel/paparazziProto1/var/MYAC/ap/firmwares/fixedwing/main_ap.o
LOAD /home/lionel/paparazziProto1/var/MYAC/ap/firmwares/fixedwing/ap_downlink.o
LOAD /home/lionel/paparazziProto1/var/MYAC/ap/state.o
LOAD /home/lionel/paparazziProto1/var/MYAC/ap/./subsystems/ins.o
LOAD /home/lionel/paparazziProto1/var/MYAC/ap/./subsystems/ins/ins_alt_float.o
LOAD /home/lionel/paparazziProto1/var/MYAC/ap/arch/lpc21/armVIC.o
LOAD /home/lionel/paparazziProto1/var/MYAC/ap/firmwares/fixedwing/main.o
LOAD /home/lionel/paparazziProto1/var/MYAC/ap/mcu_periph/uart.o
LOAD /home/lionel/paparazziProto1/var/MYAC/ap/arch/lpc21/mcu_periph/uart_arch.o
LOAD /home/lionel/paparazziProto1/var/MYAC/ap/subsystems/settings.o
LOAD /home/lionel/paparazziProto1/var/MYAC/ap/arch/lpc21/subsystems/settings_arch.o
LOAD /home/lionel/paparazziProto1/var/MYAC/ap/arch/lpc21/mcu_periph/adc_arch.o
LOAD /home/lionel/paparazziProto1/var/MYAC/ap/arch/lpc21/servos_4015_MAT_hw.o
LOAD /home/lionel/paparazziProto1/var/MYAC/ap/actuators.o
LOAD /home/lionel/paparazziProto1/var/MYAC/ap/subsystems/radio_control.o
LOAD /home/lionel/paparazziProto1/var/MYAC/ap/subsystems/radio_control/ppm.o
LOAD /home/lionel/paparazziProto1/var/MYAC/ap/arch/lpc21/subsystems/radio_control/ppm_arch.o
LOAD /home/lionel/paparazziProto1/var/MYAC/ap/subsystems/datalink/downlink.o
LOAD /home/lionel/paparazziProto1/var/MYAC/ap/subsystems/datalink/xbee.o
LOAD /home/lionel/paparazziProto1/var/MYAC/ap/firmwares/fixedwing/datalink.o
LOAD /home/lionel/paparazziProto1/var/MYAC/ap/firmwares/fixedwing/stabilization/stabilization_attitude.o
LOAD /home/lionel/paparazziProto1/var/MYAC/ap/firmwares/fixedwing/guidance/guidance_v.o
LOAD /home/lionel/paparazziProto1/var/MYAC/ap/subsystems/imu.o
LOAD /home/lionel/paparazziProto1/var/MYAC/ap/subsystems/imu/imu_analog.o
LOAD /home/lionel/paparazziProto1/var/MYAC/ap/subsystems/ahrs.o
LOAD /home/lionel/paparazziProto1/var/MYAC/ap/subsystems/ahrs/ahrs_infrared.o
LOAD /home/lionel/paparazziProto1/var/MYAC/ap/subsystems/gps/gps_ubx.o
LOAD /home/lionel/paparazziProto1/var/MYAC/ap/subsystems/gps.o
LOAD /home/lionel/paparazziProto1/var/MYAC/ap/subsystems/nav.o
LOAD /home/lionel/paparazziProto1/var/MYAC/ap/subsystems/navigation/common_flight_plan.o
LOAD /home/lionel/paparazziProto1/var/MYAC/ap/subsystems/navigation/traffic_info.o
LOAD /home/lionel/paparazziProto1/var/MYAC/ap/subsystems/navigation/nav_survey_rectangle.o
LOAD /home/lionel/paparazziProto1/var/MYAC/ap/subsystems/navigation/nav_line.o
LOAD /home/lionel/paparazziProto1/var/MYAC/ap/modules/openlog/openlog.o
LOAD /home/lionel/paparazziProto1/var/MYAC/ap/subsystems/sensors/infrared.o
LOAD /home/lionel/paparazziProto1/var/MYAC/ap/subsystems/sensors/infrared_adc.o
LOAD /home/lionel/paparazziProto1/var/MYAC/ap/modules/digital_cam/servo_cam_ctrl.o
LOAD /home/lionel/paparazziProto1/var/MYAC/ap/modules/digital_cam/dc.o
LOAD /opt/paparazzi/arm-multilib/lib/gcc/arm-none-eabi/4.6.2/../../../../arm-none-eabi/lib/thumb/libc.a
LOAD /opt/paparazzi/arm-multilib/lib/gcc/arm-none-eabi/4.6.2/../../../../arm-none-eabi/lib/thumb/libm.a
LOAD /opt/paparazzi/arm-multilib/lib/gcc/arm-none-eabi/4.6.2/../../../../arm-none-eabi/lib/thumb/libc.a
LOAD /opt/paparazzi/arm-multilib/lib/gcc/arm-none-eabi/4.6.2/thumb/libgcc.a
START GROUP
LOAD /opt/paparazzi/arm-multilib/lib/gcc/arm-none-eabi/4.6.2/thumb/libgcc.a
LOAD /opt/paparazzi/arm-multilib/lib/gcc/arm-none-eabi/4.6.2/../../../../arm-none-eabi/lib/thumb/libc.a
END GROUP
                0x00001000                STACK_SIZE = 0x1000

.text           0x00004000    0x1e960
 *(.init)
 .init          0x00004000      0x13c /home/lionel/paparazziProto1/var/MYAC/ap/crt0.o
                0x00004000                _boot
                0x00004050                _mainCRTStartup
                0x00004050                _start
                0x00004050                start
                0x00004114                reset
                0x00004114                abort
                0x00004114                _reset
                0x00004114                exit
 *(.text .text.*)
 .text.mcu_init
                0x0000413c       0x64 /home/lionel/paparazziProto1/var/MYAC/ap/mcu.o
                0x0000413c                mcu_init
 .text.mcu_arch_init
                0x000041a0       0x8c /home/lionel/paparazziProto1/var/MYAC/ap/arch/lpc21/mcu_arch.o
                0x000041a0                mcu_arch_init
 .text.sys_time_register_timer
                0x0000422c       0x98 /home/lionel/paparazziProto1/var/MYAC/ap/mcu_periph/sys_time.o
                0x0000422c                sys_time_register_timer
 .text.sys_time_init
                0x000042c4       0x60 /home/lionel/paparazziProto1/var/MYAC/ap/mcu_periph/sys_time.o
                0x000042c4                sys_time_init
 .text.TIMER0_ISR
                0x00004324      0x2f8 /home/lionel/paparazziProto1/var/MYAC/ap/arch/lpc21/mcu_periph/sys_time_arch.o
                0x00004324                TIMER0_ISR
 .text.sys_time_arch_init
                0x0000461c       0x68 /home/lionel/paparazziProto1/var/MYAC/ap/arch/lpc21/mcu_periph/sys_time_arch.o
                0x0000461c                sys_time_arch_init
 .text.enu_of_ecef_point_i
                0x00004684       0x94 /home/lionel/paparazziProto1/var/MYAC/ap/math/pprz_geodetic_int.o
                0x00004684                enu_of_ecef_point_i
 .text.ecef_of_lla_i
                0x00004718       0xd8 /home/lionel/paparazziProto1/var/MYAC/ap/math/pprz_geodetic_int.o
                0x00004718                ecef_of_lla_i
 .text.isometric_latitude_fast_f
                0x000047f0       0x40 /home/lionel/paparazziProto1/var/MYAC/ap/math/pprz_geodetic_float.o
 .text.enu_of_ecef_point_f
                0x00004830      0x120 /home/lionel/paparazziProto1/var/MYAC/ap/math/pprz_geodetic_float.o
                0x00004830                enu_of_ecef_point_f
 .text.enu_of_ecef_vect_f
                0x00004950       0xf8 /home/lionel/paparazziProto1/var/MYAC/ap/math/pprz_geodetic_float.o
                0x00004950                enu_of_ecef_vect_f
 .text.ecef_of_lla_f
                0x00004a48      0x128 /home/lionel/paparazziProto1/var/MYAC/ap/math/pprz_geodetic_float.o
                0x00004a48                ecef_of_lla_f
 .text.enu_of_lla_point_f
                0x00004b70       0x38 /home/lionel/paparazziProto1/var/MYAC/ap/math/pprz_geodetic_float.o
                0x00004b70                enu_of_lla_point_f
 .text.utm_of_lla_f
                0x00004ba8      0x380 /home/lionel/paparazziProto1/var/MYAC/ap/math/pprz_geodetic_float.o
                0x00004ba8                utm_of_lla_f
 .text.ecef_of_lla_d
                0x00004f28      0x16c /home/lionel/paparazziProto1/var/MYAC/ap/math/pprz_geodetic_double.o
                0x00004f28                ecef_of_lla_d
 .text.orientationCalcEulers_f
                0x00005094      0x3b4 /home/lionel/paparazziProto1/var/MYAC/ap/math/pprz_orientation_conversion.o
                0x00005094                orientationCalcEulers_f
 .text.i2c_event
                0x00005448        0x4 /home/lionel/paparazziProto1/var/MYAC/ap/arch/lpc21/mcu_periph/i2c_arch.o
                0x00005448                i2c_event
 .text.inter_mcu_fill_fbw_state
                0x0000544c       0xc0 /home/lionel/paparazziProto1/var/MYAC/ap/firmwares/fixedwing/main_fbw.o
 .text.init_fbw
                0x0000550c      0x108 /home/lionel/paparazziProto1/var/MYAC/ap/firmwares/fixedwing/main_fbw.o
                0x0000550c                init_fbw
 .text.event_task_fbw
                0x00005614      0x714 /home/lionel/paparazziProto1/var/MYAC/ap/firmwares/fixedwing/main_fbw.o
                0x00005614                event_task_fbw
 .text.periodic_task_fbw
                0x00005d28      0xea0 /home/lionel/paparazziProto1/var/MYAC/ap/firmwares/fixedwing/main_fbw.o
                0x00005d28                periodic_task_fbw
 .text.handle_periodic_tasks_fbw
                0x00006bc8       0x70 /home/lionel/paparazziProto1/var/MYAC/ap/firmwares/fixedwing/main_fbw.o
                0x00006bc8                handle_periodic_tasks_fbw
 .text.electrical_init
                0x00006c38       0x44 /home/lionel/paparazziProto1/var/MYAC/ap/subsystems/electrical.o
                0x00006c38                electrical_init
 .text.electrical_periodic
                0x00006c7c      0x13c /home/lionel/paparazziProto1/var/MYAC/ap/subsystems/electrical.o
                0x00006c7c                electrical_periodic
 .text.stateGetPositionEnu_f
                0x00006db8       0x28 /home/lionel/paparazziProto1/var/MYAC/ap/firmwares/fixedwing/main_ap.o
 .text.stateGetNedToBodyEulers_f
                0x00006de0       0x2c /home/lionel/paparazziProto1/var/MYAC/ap/firmwares/fixedwing/main_ap.o
 .text.stateGetPositionUtm_f
                0x00006e0c       0x28 /home/lionel/paparazziProto1/var/MYAC/ap/firmwares/fixedwing/main_ap.o
 .text.stateGetSpeedEnu_f
                0x00006e34       0x28 /home/lionel/paparazziProto1/var/MYAC/ap/firmwares/fixedwing/main_ap.o
 .text.init_ap  0x00006e5c      0x114 /home/lionel/paparazziProto1/var/MYAC/ap/firmwares/fixedwing/main_ap.o
                0x00006e5c                init_ap
 .text.reporting_task
                0x00006f70     0x923c /home/lionel/paparazziProto1/var/MYAC/ap/firmwares/fixedwing/main_ap.o
                0x00006f70                reporting_task
 .text.navigation_task
                0x000101ac      0x7e8 /home/lionel/paparazziProto1/var/MYAC/ap/firmwares/fixedwing/main_ap.o
                0x000101ac                navigation_task
 .text.attitude_loop
                0x00010994      0x1e8 /home/lionel/paparazziProto1/var/MYAC/ap/firmwares/fixedwing/main_ap.o
                0x00010994                attitude_loop
 .text.sensors_task
                0x00010b7c       0x34 /home/lionel/paparazziProto1/var/MYAC/ap/firmwares/fixedwing/main_ap.o
                0x00010b7c                sensors_task
 .text.monitor_task
                0x00010bb0      0x278 /home/lionel/paparazziProto1/var/MYAC/ap/firmwares/fixedwing/main_ap.o
                0x00010bb0                monitor_task
 .text.handle_periodic_tasks_ap
                0x00010e28      0x5a0 /home/lionel/paparazziProto1/var/MYAC/ap/firmwares/fixedwing/main_ap.o
                0x00010e28                handle_periodic_tasks_ap
 .text.event_task_ap
                0x000113c8      0x740 /home/lionel/paparazziProto1/var/MYAC/ap/firmwares/fixedwing/main_ap.o
                0x000113c8                event_task_ap
 .text.stateInit
                0x00011b08       0x38 /home/lionel/paparazziProto1/var/MYAC/ap/state.o
                0x00011b08                stateInit
 .text.stateCalcPositionUtm_f
                0x00011b40       0xb4 /home/lionel/paparazziProto1/var/MYAC/ap/state.o
                0x00011b40                stateCalcPositionUtm_f
 .text.stateCalcPositionEnu_f
                0x00011bf4      0x27c /home/lionel/paparazziProto1/var/MYAC/ap/state.o
                0x00011bf4                stateCalcPositionEnu_f
 .text.stateCalcSpeedEnu_f
                0x00011e70      0x1a4 /home/lionel/paparazziProto1/var/MYAC/ap/state.o
                0x00011e70                stateCalcSpeedEnu_f
 .text.stateCalcHorizontalSpeedNorm_f
                0x00012014      0x160 /home/lionel/paparazziProto1/var/MYAC/ap/state.o
                0x00012014                stateCalcHorizontalSpeedNorm_f
 .text.stateCalcHorizontalSpeedDir_f
                0x00012174      0x12c /home/lionel/paparazziProto1/var/MYAC/ap/state.o
                0x00012174                stateCalcHorizontalSpeedDir_f
 .text.stateCalcBodyRates_f
                0x000122a0       0x70 /home/lionel/paparazziProto1/var/MYAC/ap/state.o
                0x000122a0                stateCalcBodyRates_f
 .text.stateCalcHorizontalWindspeed_f
                0x00012310       0x48 /home/lionel/paparazziProto1/var/MYAC/ap/state.o
                0x00012310                stateCalcHorizontalWindspeed_f
 .text.ins_periodic
                0x00012358        0x4 /home/lionel/paparazziProto1/var/MYAC/ap/./subsystems/ins/ins_alt_float.o
                0x00012358                ins_periodic
 .text.alt_kalman_reset
                0x0001235c       0x24 /home/lionel/paparazziProto1/var/MYAC/ap/./subsystems/ins/ins_alt_float.o
                0x0001235c                alt_kalman_reset
 .text.alt_kalman_init
                0x00012380       0x14 /home/lionel/paparazziProto1/var/MYAC/ap/./subsystems/ins/ins_alt_float.o
                0x00012380                alt_kalman_init
 .text.alt_kalman
                0x00012394      0x1fc /home/lionel/paparazziProto1/var/MYAC/ap/./subsystems/ins/ins_alt_float.o
                0x00012394                alt_kalman
 .text.ins_update_gps
                0x00012590      0x128 /home/lionel/paparazziProto1/var/MYAC/ap/./subsystems/ins/ins_alt_float.o
                0x00012590                ins_update_gps
 .text.ins_init
                0x000126b8       0xd4 /home/lionel/paparazziProto1/var/MYAC/ap/./subsystems/ins/ins_alt_float.o
                0x000126b8                ins_init
 .text.disableIRQ
                0x0001278c       0x10 /home/lionel/paparazziProto1/var/MYAC/ap/arch/lpc21/armVIC.o
                0x0001278c                disableIRQ
 .text.restoreIRQ
                0x0001279c       0x1c /home/lionel/paparazziProto1/var/MYAC/ap/arch/lpc21/armVIC.o
                0x0001279c                restoreIRQ
 .text.enableIRQ
                0x000127b8       0x10 /home/lionel/paparazziProto1/var/MYAC/ap/arch/lpc21/armVIC.o
                0x000127b8                enableIRQ
 .text.startup.main
                0x000127c8       0x20 /home/lionel/paparazziProto1/var/MYAC/ap/firmwares/fixedwing/main.o
                0x000127c8                main
 .text.uart_periph_init
                0x000127e8       0x24 /home/lionel/paparazziProto1/var/MYAC/ap/mcu_periph/uart.o
                0x000127e8                uart_periph_init
 .text.uart_check_free_space
                0x0001280c       0x50 /home/lionel/paparazziProto1/var/MYAC/ap/mcu_periph/uart.o
                0x0001280c                uart_check_free_space
 .text.uart_disable_interrupts
                0x0001285c       0x20 /home/lionel/paparazziProto1/var/MYAC/ap/arch/lpc21/mcu_periph/uart_arch.o
 .text.uart_set_baudrate
                0x0001287c       0x44 /home/lionel/paparazziProto1/var/MYAC/ap/arch/lpc21/mcu_periph/uart_arch.o
 .text.uart_ISR
                0x000128c0       0xfc /home/lionel/paparazziProto1/var/MYAC/ap/arch/lpc21/mcu_periph/uart_arch.o
 .text.uart0_ISR
                0x000129bc       0x34 /home/lionel/paparazziProto1/var/MYAC/ap/arch/lpc21/mcu_periph/uart_arch.o
                0x000129bc                uart0_ISR
 .text.uart1_ISR
                0x000129f0       0x34 /home/lionel/paparazziProto1/var/MYAC/ap/arch/lpc21/mcu_periph/uart_arch.o
                0x000129f0                uart1_ISR
 .text.uart_transmit
                0x00012a24       0x90 /home/lionel/paparazziProto1/var/MYAC/ap/arch/lpc21/mcu_periph/uart_arch.o
                0x00012a24                uart_transmit
 .text.uart0_init
                0x00012ab4       0x88 /home/lionel/paparazziProto1/var/MYAC/ap/arch/lpc21/mcu_periph/uart_arch.o
                0x00012ab4                uart0_init
 .text.uart1_init
                0x00012b3c       0x88 /home/lionel/paparazziProto1/var/MYAC/ap/arch/lpc21/mcu_periph/uart_arch.o
                0x00012b3c                uart1_init
 .text.settings_init
                0x00012bc4        0x4 /home/lionel/paparazziProto1/var/MYAC/ap/subsystems/settings.o
                0x00012bc4                settings_init
 .text.adcISR0  0x00012bc8       0xa0 /home/lionel/paparazziProto1/var/MYAC/ap/arch/lpc21/mcu_periph/adc_arch.o
                0x00012bc8                adcISR0
 .text.adcISR1  0x00012c68       0xa4 /home/lionel/paparazziProto1/var/MYAC/ap/arch/lpc21/mcu_periph/adc_arch.o
                0x00012c68                adcISR1
 .text.adc_buf_channel
                0x00012d0c       0x14 /home/lionel/paparazziProto1/var/MYAC/ap/arch/lpc21/mcu_periph/adc_arch.o
                0x00012d0c                adc_buf_channel
 .text.adc_init
                0x00012d20       0xa0 /home/lionel/paparazziProto1/var/MYAC/ap/arch/lpc21/mcu_periph/adc_arch.o
                0x00012d20                adc_init
 .text.actuators_init
                0x00012dc0       0xcc /home/lionel/paparazziProto1/var/MYAC/ap/arch/lpc21/servos_4015_MAT_hw.o
                0x00012dc0                actuators_init
 .text.radio_control_impl_init
                0x00012e8c       0x20 /home/lionel/paparazziProto1/var/MYAC/ap/subsystems/radio_control/ppm.o
                0x00012e8c                radio_control_impl_init
 .text.ppm_arch_init
                0x00012eac       0x5c /home/lionel/paparazziProto1/var/MYAC/ap/arch/lpc21/subsystems/radio_control/ppm_arch.o
                0x00012eac                ppm_arch_init
 .text.sys_time_usleep.constprop.0
                0x00012f08       0x28 /home/lionel/paparazziProto1/var/MYAC/ap/subsystems/datalink/xbee.o
 .text.xbee_init
                0x00012f30      0x15c /home/lionel/paparazziProto1/var/MYAC/ap/subsystems/datalink/xbee.o
                0x00012f30                xbee_init
 .text.dl_parse_msg
                0x0001308c      0xf34 /home/lionel/paparazziProto1/var/MYAC/ap/firmwares/fixedwing/datalink.o
                0x0001308c                dl_parse_msg
 .text.h_ctl_init
                0x00013fc0      0x130 /home/lionel/paparazziProto1/var/MYAC/ap/firmwares/fixedwing/stabilization/stabilization_attitude.o
                0x00013fc0                h_ctl_init
 .text.h_ctl_course_loop
                0x000140f0      0x47c /home/lionel/paparazziProto1/var/MYAC/ap/firmwares/fixedwing/stabilization/stabilization_attitude.o
                0x000140f0                h_ctl_course_loop
 .text.h_ctl_attitude_loop
                0x0001456c      0x40c /home/lionel/paparazziProto1/var/MYAC/ap/firmwares/fixedwing/stabilization/stabilization_attitude.o
                0x0001456c                h_ctl_attitude_loop
 .text.v_ctl_init
                0x00014978      0x158 /home/lionel/paparazziProto1/var/MYAC/ap/firmwares/fixedwing/guidance/guidance_v.o
                0x00014978                v_ctl_init
 .text.v_ctl_altitude_loop
                0x00014ad0      0x12c /home/lionel/paparazziProto1/var/MYAC/ap/firmwares/fixedwing/guidance/guidance_v.o
                0x00014ad0                v_ctl_altitude_loop
 .text.v_ctl_climb_loop
                0x00014bfc      0x3e4 /home/lionel/paparazziProto1/var/MYAC/ap/firmwares/fixedwing/guidance/guidance_v.o
                0x00014bfc                v_ctl_climb_loop
 .text.v_ctl_throttle_slew
                0x00014fe0       0x8c /home/lionel/paparazziProto1/var/MYAC/ap/firmwares/fixedwing/guidance/guidance_v.o
                0x00014fe0                v_ctl_throttle_slew
 .text.imu_init
                0x0001506c      0x1f0 /home/lionel/paparazziProto1/var/MYAC/ap/subsystems/imu.o
                0x0001506c                imu_init
 .text.imu_impl_init
                0x0001525c       0x3c /home/lionel/paparazziProto1/var/MYAC/ap/subsystems/imu/imu_analog.o
                0x0001525c                imu_impl_init
 .text.imu_periodic
                0x00015298       0x60 /home/lionel/paparazziProto1/var/MYAC/ap/subsystems/imu/imu_analog.o
                0x00015298                imu_periodic
 .text.ahrs_init
                0x000152f8       0x24 /home/lionel/paparazziProto1/var/MYAC/ap/subsystems/ahrs/ahrs_infrared.o
                0x000152f8                ahrs_init
 .text.ahrs_propagate
                0x0001531c       0x44 /home/lionel/paparazziProto1/var/MYAC/ap/subsystems/ahrs/ahrs_infrared.o
                0x0001531c                ahrs_propagate
 .text.ahrs_update_accel
                0x00015360        0x4 /home/lionel/paparazziProto1/var/MYAC/ap/subsystems/ahrs/ahrs_infrared.o
                0x00015360                ahrs_update_accel
 .text.ahrs_update_gps
                0x00015364      0x104 /home/lionel/paparazziProto1/var/MYAC/ap/subsystems/ahrs/ahrs_infrared.o
                0x00015364                ahrs_update_gps
 .text.ahrs_update_infrared
                0x00015468      0x1ac /home/lionel/paparazziProto1/var/MYAC/ap/subsystems/ahrs/ahrs_infrared.o
                0x00015468                ahrs_update_infrared
 .text.gps_impl_init
                0x00015614       0x24 /home/lionel/paparazziProto1/var/MYAC/ap/subsystems/gps/gps_ubx.o
                0x00015614                gps_impl_init
 .text.gps_ubx_read_message
                0x00015638      0x528 /home/lionel/paparazziProto1/var/MYAC/ap/subsystems/gps/gps_ubx.o
                0x00015638                gps_ubx_read_message
 .text.gps_ubx_parse
                0x00015b60      0x1a4 /home/lionel/paparazziProto1/var/MYAC/ap/subsystems/gps/gps_ubx.o
                0x00015b60                gps_ubx_parse
 .text.gps_init
                0x00015d04       0x24 /home/lionel/paparazziProto1/var/MYAC/ap/subsystems/gps.o
                0x00015d04                gps_init
 .text.nav_set_altitude
                0x00015d28       0x5c /home/lionel/paparazziProto1/var/MYAC/ap/subsystems/nav.o
 .text.stateGetPositionEnu_f
                0x00015d84       0x28 /home/lionel/paparazziProto1/var/MYAC/ap/subsystems/nav.o
 .text.stateGetPositionUtm_f
                0x00015dac       0x28 /home/lionel/paparazziProto1/var/MYAC/ap/subsystems/nav.o
 .text.stateGetHorizontalSpeedNorm_f
                0x00015dd4       0x28 /home/lionel/paparazziProto1/var/MYAC/ap/subsystems/nav.o
 .text.nav_init_stage
                0x00015dfc       0x84 /home/lionel/paparazziProto1/var/MYAC/ap/subsystems/nav.o
                0x00015dfc                nav_init_stage
 .text.nav_approaching_xy
                0x00015e80      0x104 /home/lionel/paparazziProto1/var/MYAC/ap/subsystems/nav.o
                0x00015e80                nav_approaching_xy
 .text.fly_to_xy
                0x00015f84      0x2e0 /home/lionel/paparazziProto1/var/MYAC/ap/subsystems/nav.o
                0x00015f84                fly_to_xy
 .text.nav_circle_XY
                0x00016264      0x498 /home/lionel/paparazziProto1/var/MYAC/ap/subsystems/nav.o
                0x00016264                nav_circle_XY
 .text.nav_route_xy
                0x000166fc      0x224 /home/lionel/paparazziProto1/var/MYAC/ap/subsystems/nav.o
                0x000166fc                nav_route_xy
 .text.compute_dist2_to_home
                0x00016920       0x94 /home/lionel/paparazziProto1/var/MYAC/ap/subsystems/nav.o
                0x00016920                compute_dist2_to_home
 .text.nav_reset_reference
                0x000169b4       0xec /home/lionel/paparazziProto1/var/MYAC/ap/subsystems/nav.o
                0x000169b4                nav_reset_reference
 .text.nav_update_waypoints_alt
                0x00016aa0       0x58 /home/lionel/paparazziProto1/var/MYAC/ap/subsystems/nav.o
                0x00016aa0                nav_update_waypoints_alt
 .text.common_nav_periodic_task_4Hz
                0x00016af8       0x58 /home/lionel/paparazziProto1/var/MYAC/ap/subsystems/nav.o
                0x00016af8                common_nav_periodic_task_4Hz
 .text.nav_move_waypoint
                0x00016b50      0x11c /home/lionel/paparazziProto1/var/MYAC/ap/subsystems/nav.o
                0x00016b50                nav_move_waypoint
 .text.nav_home
                0x00016c6c       0x88 /home/lionel/paparazziProto1/var/MYAC/ap/subsystems/nav.o
                0x00016c6c                nav_home
 .text.nav_init
                0x00016cf4       0x74 /home/lionel/paparazziProto1/var/MYAC/ap/subsystems/nav.o
                0x00016cf4                nav_init
 .text.nav_without_gps
                0x00016d68       0x58 /home/lionel/paparazziProto1/var/MYAC/ap/subsystems/nav.o
                0x00016d68                nav_without_gps
 .text.nav_eight
                0x00016dc0      0x7d4 /home/lionel/paparazziProto1/var/MYAC/ap/subsystems/nav.o
                0x00016dc0                nav_eight
 .text.nav_oval_init
                0x00017594       0x24 /home/lionel/paparazziProto1/var/MYAC/ap/subsystems/nav.o
                0x00017594                nav_oval_init
 .text.nav_oval
                0x000175b8      0x6f4 /home/lionel/paparazziProto1/var/MYAC/ap/subsystems/nav.o
                0x000175b8                nav_oval
 .text.nav_periodic_task
                0x00017cac      0xf10 /home/lionel/paparazziProto1/var/MYAC/ap/subsystems/nav.o
                0x00017cac                nav_periodic_task
 .text.nav_init_block
                0x00018bbc       0x44 /home/lionel/paparazziProto1/var/MYAC/ap/subsystems/navigation/common_flight_plan.o
                0x00018bbc                nav_init_block
 .text.nav_goto_block
                0x00018c00       0x40 /home/lionel/paparazziProto1/var/MYAC/ap/subsystems/navigation/common_flight_plan.o
                0x00018c00                nav_goto_block
 .text.traffic_info_init
                0x00018c40       0x38 /home/lionel/paparazziProto1/var/MYAC/ap/subsystems/navigation/traffic_info.o
                0x00018c40                traffic_info_init
 .text.stateGetPositionEnu_f
                0x00018c78       0x28 /home/lionel/paparazziProto1/var/MYAC/ap/subsystems/navigation/nav_survey_rectangle.o
 .text.stateGetHorizontalSpeedDir_f
                0x00018ca0       0x2c /home/lionel/paparazziProto1/var/MYAC/ap/subsystems/navigation/nav_survey_rectangle.o
 .text.nav_survey_rectangle_init
                0x00018ccc      0x4c4 /home/lionel/paparazziProto1/var/MYAC/ap/subsystems/navigation/nav_survey_rectangle.o
                0x00018ccc                nav_survey_rectangle_init
 .text.nav_survey_rectangle
                0x00019190      0x9bc /home/lionel/paparazziProto1/var/MYAC/ap/subsystems/navigation/nav_survey_rectangle.o
                0x00019190                nav_survey_rectangle
 .text.nav_line_init
                0x00019b4c       0x14 /home/lionel/paparazziProto1/var/MYAC/ap/subsystems/navigation/nav_line.o
                0x00019b4c                nav_line_init
 .text.nav_line
                0x00019b60      0xf00 /home/lionel/paparazziProto1/var/MYAC/ap/subsystems/navigation/nav_line.o
                0x00019b60                nav_line
 .text.init_openlog
                0x0001aa60        0x4 /home/lionel/paparazziProto1/var/MYAC/ap/modules/openlog/openlog.o
                0x0001aa60                init_openlog
 .text.periodic_2Hz_openlog
                0x0001aa64      0x19c /home/lionel/paparazziProto1/var/MYAC/ap/modules/openlog/openlog.o
                0x0001aa64                periodic_2Hz_openlog
 .text.infrared_struct_init
                0x0001ac00       0x48 /home/lionel/paparazziProto1/var/MYAC/ap/subsystems/sensors/infrared.o
                0x0001ac00                infrared_struct_init
 .text.infrared_adc_init
                0x0001ac48       0x4c /home/lionel/paparazziProto1/var/MYAC/ap/subsystems/sensors/infrared_adc.o
                0x0001ac48                infrared_adc_init
 .text.infrared_adc_update
                0x0001ac94      0x108 /home/lionel/paparazziProto1/var/MYAC/ap/subsystems/sensors/infrared_adc.o
                0x0001ac94                infrared_adc_update
 .text.dc_send_command
                0x0001ad9c       0x3c /home/lionel/paparazziProto1/var/MYAC/ap/modules/digital_cam/servo_cam_ctrl.o
                0x0001ad9c                dc_send_command
 .text.stateGetNedToBodyEulers_f
                0x0001add8       0x2c /home/lionel/paparazziProto1/var/MYAC/ap/modules/digital_cam/dc.o
 .text.dc_send_shot_position
                0x0001ae04      0x4a8 /home/lionel/paparazziProto1/var/MYAC/ap/modules/digital_cam/dc.o
                0x0001ae04                dc_send_shot_position
 *fill*         0x0001b2ac        0x4 00
 .text          0x0001b2b0      0x348 /opt/paparazzi/arm-multilib/lib/gcc/arm-none-eabi/4.6.2/../../../../arm-none-eabi/lib/thumb/libm.a(lib_a-s_atan.o)
                0x0001b2b0                atan
 .text          0x0001b5f8       0x88 /opt/paparazzi/arm-multilib/lib/gcc/arm-none-eabi/4.6.2/../../../../arm-none-eabi/lib/thumb/libm.a(lib_a-s_cos.o)
                0x0001b5f8                cos
 .text          0x0001b680        0x6 /opt/paparazzi/arm-multilib/lib/gcc/arm-none-eabi/4.6.2/../../../../arm-none-eabi/lib/thumb/libm.a(lib_a-s_fabs.o)
                0x0001b680                fabs
 *fill*         0x0001b686        0x2 00
 .text          0x0001b688      0x120 /opt/paparazzi/arm-multilib/lib/gcc/arm-none-eabi/4.6.2/../../../../arm-none-eabi/lib/thumb/libm.a(lib_a-s_rint.o)
                0x0001b688                rint
 .text          0x0001b7a8       0x88 /opt/paparazzi/arm-multilib/lib/gcc/arm-none-eabi/4.6.2/../../../../arm-none-eabi/lib/thumb/libm.a(lib_a-s_sin.o)
                0x0001b7a8                sin
 .text          0x0001b830       0x60 /opt/paparazzi/arm-multilib/lib/gcc/arm-none-eabi/4.6.2/../../../../arm-none-eabi/lib/thumb/libm.a(lib_a-s_tan.o)
                0x0001b830                tan
 .text          0x0001b890      0x244 /opt/paparazzi/arm-multilib/lib/gcc/arm-none-eabi/4.6.2/../../../../arm-none-eabi/lib/thumb/libm.a(lib_a-sf_atan.o)
                0x0001b890                atanf
 .text          0x0001bad4       0x68 /opt/paparazzi/arm-multilib/lib/gcc/arm-none-eabi/4.6.2/../../../../arm-none-eabi/lib/thumb/libm.a(lib_a-sf_cos.o)
                0x0001bad4                cosf
 .text          0x0001bb3c        0x6 /opt/paparazzi/arm-multilib/lib/gcc/arm-none-eabi/4.6.2/../../../../arm-none-eabi/lib/thumb/libm.a(lib_a-sf_fabs.o)
                0x0001bb3c                fabsf
 *fill*         0x0001bb42        0x2 00
 .text          0x0001bb44       0x84 /opt/paparazzi/arm-multilib/lib/gcc/arm-none-eabi/4.6.2/../../../../arm-none-eabi/lib/thumb/libm.a(lib_a-sf_floor.o)
                0x0001bb44                floorf
 .text          0x0001bbc8       0x2e /opt/paparazzi/arm-multilib/lib/gcc/arm-none-eabi/4.6.2/../../../../arm-none-eabi/lib/thumb/libm.a(lib_a-sf_fmin.o)
                0x0001bbc8                fminf
 *fill*         0x0001bbf6        0x2 00
 .text          0x0001bbf8       0x88 /opt/paparazzi/arm-multilib/lib/gcc/arm-none-eabi/4.6.2/../../../../arm-none-eabi/lib/thumb/libm.a(lib_a-sf_fpclassify.o)
                0x0001bbf8                __fpclassifyf
 .text          0x0001bc80       0x68 /opt/paparazzi/arm-multilib/lib/gcc/arm-none-eabi/4.6.2/../../../../arm-none-eabi/lib/thumb/libm.a(lib_a-sf_sin.o)
                0x0001bc80                sinf
 .text          0x0001bce8       0xb0 /opt/paparazzi/arm-multilib/lib/gcc/arm-none-eabi/4.6.2/../../../../arm-none-eabi/lib/thumb/libm.a(lib_a-w_asin.o)
                0x0001bce8                asin
 .text          0x0001bd98        0xc /opt/paparazzi/arm-multilib/lib/gcc/arm-none-eabi/4.6.2/../../../../arm-none-eabi/lib/thumb/libm.a(lib_a-w_atan2.o)
                0x0001bd98                atan2
 *fill*         0x0001bda4        0x4 00
 .text          0x0001bda8       0xc0 /opt/paparazzi/arm-multilib/lib/gcc/arm-none-eabi/4.6.2/../../../../arm-none-eabi/lib/thumb/libm.a(lib_a-w_cosh.o)
                0x0001bda8                cosh
 .text          0x0001be68      0x100 /opt/paparazzi/arm-multilib/lib/gcc/arm-none-eabi/4.6.2/../../../../arm-none-eabi/lib/thumb/libm.a(lib_a-w_exp.o)
                0x0001be68                exp
 .text          0x0001bf68       0xf8 /opt/paparazzi/arm-multilib/lib/gcc/arm-none-eabi/4.6.2/../../../../arm-none-eabi/lib/thumb/libm.a(lib_a-w_log.o)
                0x0001bf68                log
 .text          0x0001c060      0x328 /opt/paparazzi/arm-multilib/lib/gcc/arm-none-eabi/4.6.2/../../../../arm-none-eabi/lib/thumb/libm.a(lib_a-w_pow.o)
                0x0001c060                pow
 .text          0x0001c388       0xe8 /opt/paparazzi/arm-multilib/lib/gcc/arm-none-eabi/4.6.2/../../../../arm-none-eabi/lib/thumb/libm.a(lib_a-w_sinh.o)
                0x0001c388                sinh
 .text          0x0001c470       0xb8 /opt/paparazzi/arm-multilib/lib/gcc/arm-none-eabi/4.6.2/../../../../arm-none-eabi/lib/thumb/libm.a(lib_a-w_sqrt.o)
                0x0001c470                sqrt
 .text          0x0001c528       0xa0 /opt/paparazzi/arm-multilib/lib/gcc/arm-none-eabi/4.6.2/../../../../arm-none-eabi/lib/thumb/libm.a(lib_a-wf_asin.o)
                0x0001c528                asinf
 .text          0x0001c5c8        0xc /opt/paparazzi/arm-multilib/lib/gcc/arm-none-eabi/4.6.2/../../../../arm-none-eabi/lib/thumb/libm.a(lib_a-wf_atan2.o)
                0x0001c5c8                atan2f
 *fill*         0x0001c5d4        0x4 00
 .text          0x0001c5d8       0xb0 /opt/paparazzi/arm-multilib/lib/gcc/arm-none-eabi/4.6.2/../../../../arm-none-eabi/lib/thumb/libm.a(lib_a-wf_sqrt.o)
                0x0001c5d8                sqrtf
 .text          0x0001c688      0x428 /opt/paparazzi/arm-multilib/lib/gcc/arm-none-eabi/4.6.2/../../../../arm-none-eabi/lib/thumb/libm.a(lib_a-e_asin.o)
                0x0001c688                __ieee754_asin
 .text          0x0001cab0      0x1e0 /opt/paparazzi/arm-multilib/lib/gcc/arm-none-eabi/4.6.2/../../../../arm-none-eabi/lib/thumb/libm.a(lib_a-e_atan2.o)
                0x0001cab0                __ieee754_atan2
 .text          0x0001cc90      0x140 /opt/paparazzi/arm-multilib/lib/gcc/arm-none-eabi/4.6.2/../../../../arm-none-eabi/lib/thumb/libm.a(lib_a-e_cosh.o)
                0x0001cc90                __ieee754_cosh
 .text          0x0001cdd0      0x2e8 /opt/paparazzi/arm-multilib/lib/gcc/arm-none-eabi/4.6.2/../../../../arm-none-eabi/lib/thumb/libm.a(lib_a-e_exp.o)
                0x0001cdd0                __ieee754_exp
 .text          0x0001d0b8      0x410 /opt/paparazzi/arm-multilib/lib/gcc/arm-none-eabi/4.6.2/../../../../arm-none-eabi/lib/thumb/libm.a(lib_a-e_log.o)
                0x0001d0b8                __ieee754_log
 .text          0x0001d4c8      0xab8 /opt/paparazzi/arm-multilib/lib/gcc/arm-none-eabi/4.6.2/../../../../arm-none-eabi/lib/thumb/libm.a(lib_a-e_pow.o)
                0x0001d4c8                __ieee754_pow
 .text          0x0001df80      0x3d0 /opt/paparazzi/arm-multilib/lib/gcc/arm-none-eabi/4.6.2/../../../../arm-none-eabi/lib/thumb/libm.a(lib_a-e_rem_pio2.o)
                0x0001df80                __ieee754_rem_pio2
 .text          0x0001e350      0x188 /opt/paparazzi/arm-multilib/lib/gcc/arm-none-eabi/4.6.2/../../../../arm-none-eabi/lib/thumb/libm.a(lib_a-e_sinh.o)
                0x0001e350                __ieee754_sinh
 .text          0x0001e4d8      0x188 /opt/paparazzi/arm-multilib/lib/gcc/arm-none-eabi/4.6.2/../../../../arm-none-eabi/lib/thumb/libm.a(lib_a-e_sqrt.o)
                0x0001e4d8                __ieee754_sqrt
 .text          0x0001e660      0x2bc /opt/paparazzi/arm-multilib/lib/gcc/arm-none-eabi/4.6.2/../../../../arm-none-eabi/lib/thumb/libm.a(lib_a-ef_asin.o)
                0x0001e660                __ieee754_asinf
 .text          0x0001e91c      0x12c /opt/paparazzi/arm-multilib/lib/gcc/arm-none-eabi/4.6.2/../../../../arm-none-eabi/lib/thumb/libm.a(lib_a-ef_atan2.o)
                0x0001e91c                __ieee754_atan2f
 .text          0x0001ea48      0x2bc /opt/paparazzi/arm-multilib/lib/gcc/arm-none-eabi/4.6.2/../../../../arm-none-eabi/lib/thumb/libm.a(lib_a-ef_rem_pio2.o)
                0x0001ea48                __ieee754_rem_pio2f
 .text          0x0001ed04       0xb0 /opt/paparazzi/arm-multilib/lib/gcc/arm-none-eabi/4.6.2/../../../../arm-none-eabi/lib/thumb/libm.a(lib_a-ef_sqrt.o)
                0x0001ed04                __ieee754_sqrtf
 *fill*         0x0001edb4        0x4 00
 .text          0x0001edb8      0x1d8 /opt/paparazzi/arm-multilib/lib/gcc/arm-none-eabi/4.6.2/../../../../arm-none-eabi/lib/thumb/libm.a(lib_a-k_cos.o)
                0x0001edb8                __kernel_cos
 .text          0x0001ef90      0x738 /opt/paparazzi/arm-multilib/lib/gcc/arm-none-eabi/4.6.2/../../../../arm-none-eabi/lib/thumb/libm.a(lib_a-k_rem_pio2.o)
                0x0001ef90                __kernel_rem_pio2
 .text          0x0001f6c8      0x178 /opt/paparazzi/arm-multilib/lib/gcc/arm-none-eabi/4.6.2/../../../../arm-none-eabi/lib/thumb/libm.a(lib_a-k_sin.o)
                0x0001f6c8                __kernel_sin
 .text          0x0001f840      0x3c8 /opt/paparazzi/arm-multilib/lib/gcc/arm-none-eabi/4.6.2/../../../../arm-none-eabi/lib/thumb/libm.a(lib_a-k_tan.o)
                0x0001f840                __kernel_tan
 .text          0x0001fc08      0x13c /opt/paparazzi/arm-multilib/lib/gcc/arm-none-eabi/4.6.2/../../../../arm-none-eabi/lib/thumb/libm.a(lib_a-kf_cos.o)
                0x0001fc08                __kernel_cosf
 .text          0x0001fd44      0x5c4 /opt/paparazzi/arm-multilib/lib/gcc/arm-none-eabi/4.6.2/../../../../arm-none-eabi/lib/thumb/libm.a(lib_a-kf_rem_pio2.o)
                0x0001fd44                __kernel_rem_pio2f
 .text          0x00020308       0xf8 /opt/paparazzi/arm-multilib/lib/gcc/arm-none-eabi/4.6.2/../../../../arm-none-eabi/lib/thumb/libm.a(lib_a-kf_sin.o)
                0x00020308                __kernel_sinf
 .text          0x00020400      0x470 /opt/paparazzi/arm-multilib/lib/gcc/arm-none-eabi/4.6.2/../../../../arm-none-eabi/lib/thumb/libm.a(lib_a-s_expm1.o)
                0x00020400                expm1
 .text          0x00020870       0x10 /opt/paparazzi/arm-multilib/lib/gcc/arm-none-eabi/4.6.2/../../../../arm-none-eabi/lib/thumb/libm.a(lib_a-s_finite.o)
                0x00020870                finite
 .text          0x00020880      0x128 /opt/paparazzi/arm-multilib/lib/gcc/arm-none-eabi/4.6.2/../../../../arm-none-eabi/lib/thumb/libm.a(lib_a-s_floor.o)
                0x00020880                floor
 .text          0x000209a8       0x90 /opt/paparazzi/arm-multilib/lib/gcc/arm-none-eabi/4.6.2/../../../../arm-none-eabi/lib/thumb/libm.a(lib_a-s_fpclassify.o)
                0x000209a8                __fpclassifyd
 .text          0x00020a38        0x4 /opt/paparazzi/arm-multilib/lib/gcc/arm-none-eabi/4.6.2/../../../../arm-none-eabi/lib/thumb/libm.a(lib_a-s_matherr.o)
                0x00020a38                matherr
 *fill*         0x00020a3c        0x4 00
 .text          0x00020a40       0x10 /opt/paparazzi/arm-multilib/lib/gcc/arm-none-eabi/4.6.2/../../../../arm-none-eabi/lib/thumb/libm.a(lib_a-s_nan.o)
                0x00020a40                nan
 .text          0x00020a50       0xf8 /opt/paparazzi/arm-multilib/lib/gcc/arm-none-eabi/4.6.2/../../../../arm-none-eabi/lib/thumb/libm.a(lib_a-s_scalbn.o)
                0x00020a50                scalbn
 .text          0x00020b48       0xb4 /opt/paparazzi/arm-multilib/lib/gcc/arm-none-eabi/4.6.2/../../../../arm-none-eabi/lib/thumb/libm.a(lib_a-sf_scalbn.o)
                0x00020b48                scalbnf
 .text          0x00020bfc       0x14 /opt/paparazzi/arm-multilib/lib/gcc/arm-none-eabi/4.6.2/../../../../arm-none-eabi/lib/thumb/libm.a(lib_a-s_copysign.o)
                0x00020bfc                copysign
 .text          0x00020c10        0xc /opt/paparazzi/arm-multilib/lib/gcc/arm-none-eabi/4.6.2/../../../../arm-none-eabi/lib/thumb/libm.a(lib_a-sf_copysign.o)
                0x00020c10                copysignf
 .text          0x00020c1c        0xc /opt/paparazzi/arm-multilib/lib/gcc/arm-none-eabi/4.6.2/../../../../arm-none-eabi/lib/thumb/libc.a(lib_a-errno.o)
                0x00020c1c                __errno
 .text          0x00020c28       0x14 /opt/paparazzi/arm-multilib/lib/gcc/arm-none-eabi/4.6.2/thumb/libgcc.a(_thumb1_case_uqi.o)
                0x00020c28                __gnu_thumb1_case_uqi
 .text          0x00020c3c       0x94 /opt/paparazzi/arm-multilib/lib/gcc/arm-none-eabi/4.6.2/thumb/libgcc.a(_udivsi3.o)
                0x00020c3c                __udivsi3
                0x00020c3c                __aeabi_uidiv
                0x00020cbc                __aeabi_uidivmod
 .text          0x00020cd0       0xb0 /opt/paparazzi/arm-multilib/lib/gcc/arm-none-eabi/4.6.2/thumb/libgcc.a(_divsi3.o)
                0x00020cd0                __aeabi_idiv
                0x00020cd0                __divsi3
                0x00020d6c                __aeabi_idivmod
 .text          0x00020d80        0x4 /opt/paparazzi/arm-multilib/lib/gcc/arm-none-eabi/4.6.2/thumb/libgcc.a(_dvmd_tls.o)
                0x00020d80                __aeabi_ldiv0
                0x00020d80                __aeabi_idiv0
 .text          0x00020d84      0x41c /opt/paparazzi/arm-multilib/lib/gcc/arm-none-eabi/4.6.2/thumb/libgcc.a(_arm_addsubdf3.o)
                0x00020d84                __aeabi_drsub
                0x00020d8c                __aeabi_dsub
                0x00020d8c                __subdf3
                0x00020d90                __adddf3
                0x00020d90                __aeabi_dadd
                0x000210a0                __aeabi_ui2d
                0x000210a0                __floatunsidf
                0x000210c4                __floatsidf
                0x000210c4                __aeabi_i2d
                0x000210ec                __extendsfdf2
                0x000210ec                __aeabi_f2d
                0x0002112c                __aeabi_ul2d
                0x0002112c                __floatundidf
                0x00021140                __floatdidf
                0x00021140                __aeabi_l2d
 .text          0x000211a0      0x49c /opt/paparazzi/arm-multilib/lib/gcc/arm-none-eabi/4.6.2/thumb/libgcc.a(_arm_muldivdf3.o)
                0x000211a0                __aeabi_dmul
                0x000211a0                __muldf3
                0x00021430                __aeabi_ddiv
                0x00021430                __divdf3
 .text          0x0002163c      0x144 /opt/paparazzi/arm-multilib/lib/gcc/arm-none-eabi/4.6.2/thumb/libgcc.a(_arm_cmpdf2.o)
                0x0002163c                __gtdf2
                0x0002163c                __gedf2
                0x00021644                __ltdf2
                0x00021644                __ledf2
                0x0002164c                __cmpdf2
                0x0002164c                __eqdf2
                0x0002164c                __nedf2
                0x000216d4                __aeabi_cdrcmple
                0x000216f0                __aeabi_cdcmple
                0x000216f0                __aeabi_cdcmpeq
                0x00021708                __aeabi_dcmpeq
                0x00021720                __aeabi_dcmplt
                0x00021738                __aeabi_dcmple
                0x00021750                __aeabi_dcmpge
                0x00021768                __aeabi_dcmpgt
 .text          0x00021780       0x5c /opt/paparazzi/arm-multilib/lib/gcc/arm-none-eabi/4.6.2/thumb/libgcc.a(_arm_fixdfsi.o)
                0x00021780                __fixdfsi
                0x00021780                __aeabi_d2iz
 .text          0x000217dc       0x54 /opt/paparazzi/arm-multilib/lib/gcc/arm-none-eabi/4.6.2/thumb/libgcc.a(_arm_fixunsdfsi.o)
                0x000217dc                __fixunsdfsi
                0x000217dc                __aeabi_d2uiz
 .text          0x00021830       0xa0 /opt/paparazzi/arm-multilib/lib/gcc/arm-none-eabi/4.6.2/thumb/libgcc.a(_arm_truncdfsf2.o)
                0x00021830                __aeabi_d2f
                0x00021830                __truncdfsf2
 .text          0x000218d0      0x2ac /opt/paparazzi/arm-multilib/lib/gcc/arm-none-eabi/4.6.2/thumb/libgcc.a(_arm_addsubsf3.o)
                0x000218d0                __aeabi_frsub
                0x000218d8                __subsf3
                0x000218d8                __aeabi_fsub
                0x000218dc                __aeabi_fadd
                0x000218dc                __addsf3
                0x00021a98                __aeabi_ui2f
                0x00021a98                __floatunsisf
                0x00021aa0                __aeabi_i2f
                0x00021aa0                __floatsisf
                0x00021ac0                __floatundisf
                0x00021ac0                __aeabi_ul2f
                0x00021ad0                __floatdisf
                0x00021ad0                __aeabi_l2f
 .text          0x00021b7c      0x2f8 /opt/paparazzi/arm-multilib/lib/gcc/arm-none-eabi/4.6.2/thumb/libgcc.a(_arm_muldivsf3.o)
                0x00021b7c                __mulsf3
                0x00021b7c                __aeabi_fmul
                0x00021d14                __divsf3
                0x00021d14                __aeabi_fdiv
 .text          0x00021e74      0x114 /opt/paparazzi/arm-multilib/lib/gcc/arm-none-eabi/4.6.2/thumb/libgcc.a(_arm_cmpsf2.o)
                0x00021e74                __gtsf2
                0x00021e74                __gesf2
                0x00021e7c                __lesf2
                0x00021e7c                __ltsf2
                0x00021e84                __nesf2
                0x00021e84                __eqsf2
                0x00021e84                __cmpsf2
                0x00021ee8                __aeabi_cfrcmple
                0x00021ef8                __aeabi_cfcmple
                0x00021ef8                __aeabi_cfcmpeq
                0x00021f10                __aeabi_fcmpeq
                0x00021f28                __aeabi_fcmplt
                0x00021f40                __aeabi_fcmple
                0x00021f58                __aeabi_fcmpge
                0x00021f70                __aeabi_fcmpgt
 .text          0x00021f88       0x5c /opt/paparazzi/arm-multilib/lib/gcc/arm-none-eabi/4.6.2/thumb/libgcc.a(_arm_fixsfsi.o)
                0x00021f88                __fixsfsi
                0x00021f88                __aeabi_f2iz
 .text          0x00021fe4       0x54 /opt/paparazzi/arm-multilib/lib/gcc/arm-none-eabi/4.6.2/thumb/libgcc.a(_arm_fixunssfsi.o)
                0x00021fe4                __aeabi_f2uiz
                0x00021fe4                __fixunssfsi
 .text.stub     0x00022038      0x1cc linker stubs
 *(.gnu.linkonce.t.*)
 *(.glue_7)
 .glue_7        0x00000000        0x0 linker stubs
 *(.glue_7t)
 .glue_7t       0x00000000        0x0 linker stubs
 *(.gcc_except_table)
 *(.rodata)
 .rodata        0x00022260       0x40 /opt/paparazzi/arm-multilib/lib/gcc/arm-none-eabi/4.6.2/../../../../arm-none-eabi/lib/thumb/libm.a(lib_a-s_atan.o)
 .rodata        0x000222a0       0x10 /opt/paparazzi/arm-multilib/lib/gcc/arm-none-eabi/4.6.2/../../../../arm-none-eabi/lib/thumb/libm.a(lib_a-s_rint.o)
 .rodata        0x000222b0       0x20 /opt/paparazzi/arm-multilib/lib/gcc/arm-none-eabi/4.6.2/../../../../arm-none-eabi/lib/thumb/libm.a(lib_a-sf_atan.o)
 .rodata        0x000222d0       0x30 /opt/paparazzi/arm-multilib/lib/gcc/arm-none-eabi/4.6.2/../../../../arm-none-eabi/lib/thumb/libm.a(lib_a-e_exp.o)
 .rodata        0x00022300       0x30 /opt/paparazzi/arm-multilib/lib/gcc/arm-none-eabi/4.6.2/../../../../arm-none-eabi/lib/thumb/libm.a(lib_a-e_pow.o)
 .rodata        0x00022330      0x188 /opt/paparazzi/arm-multilib/lib/gcc/arm-none-eabi/4.6.2/../../../../arm-none-eabi/lib/thumb/libm.a(lib_a-e_rem_pio2.o)
 .rodata        0x000224b8      0x398 /opt/paparazzi/arm-multilib/lib/gcc/arm-none-eabi/4.6.2/../../../../arm-none-eabi/lib/thumb/libm.a(lib_a-ef_rem_pio2.o)
 .rodata        0x00022850       0x50 /opt/paparazzi/arm-multilib/lib/gcc/arm-none-eabi/4.6.2/../../../../arm-none-eabi/lib/thumb/libm.a(lib_a-k_rem_pio2.o)
 .rodata        0x000228a0       0x38 /opt/paparazzi/arm-multilib/lib/gcc/arm-none-eabi/4.6.2/../../../../arm-none-eabi/lib/thumb/libm.a(lib_a-kf_rem_pio2.o)
 *(.rodata*)
 .rodata.serie_coeff_proj_mercator
                0x000228d8       0x14 /home/lionel/paparazziProto1/var/MYAC/ap/math/pprz_geodetic_float.o
 .rodata.commands_failsafe
                0x000228ec        0x8 /home/lionel/paparazziProto1/var/MYAC/ap/./commands.o
                0x000228ec                commands_failsafe
 .rodata.version
                0x000228f4        0x2 /home/lionel/paparazziProto1/var/MYAC/ap/firmwares/fixedwing/main_ap.o
 .rodata.str1.1
                0x000228f6       0x11 /home/lionel/paparazziProto1/var/MYAC/ap/firmwares/fixedwing/main_ap.o
 .rodata.str1.1
                0x00022907       0x2a /home/lionel/paparazziProto1/var/MYAC/ap/subsystems/datalink/xbee.o
                                 0x2c (size before relaxing)
 .rodata.nb_waypoint
                0x00022931        0x1 /home/lionel/paparazziProto1/var/MYAC/ap/subsystems/nav.o
                0x00022931                nb_waypoint
 .rodata.str1.1
                0x00022932        0x5 /opt/paparazzi/arm-multilib/lib/gcc/arm-none-eabi/4.6.2/../../../../arm-none-eabi/lib/thumb/libm.a(lib_a-w_asin.o)
                                  0x6 (size before relaxing)
 .rodata.str1.1
                0x00022937        0x5 /opt/paparazzi/arm-multilib/lib/gcc/arm-none-eabi/4.6.2/../../../../arm-none-eabi/lib/thumb/libm.a(lib_a-w_cosh.o)
 .rodata.str1.1
                0x0002293c        0x4 /opt/paparazzi/arm-multilib/lib/gcc/arm-none-eabi/4.6.2/../../../../arm-none-eabi/lib/thumb/libm.a(lib_a-w_exp.o)
 .rodata.str1.1
                0x00022940        0x4 /opt/paparazzi/arm-multilib/lib/gcc/arm-none-eabi/4.6.2/../../../../arm-none-eabi/lib/thumb/libm.a(lib_a-w_log.o)
                                  0x5 (size before relaxing)
 .rodata.str1.1
                0x00022944        0x4 /opt/paparazzi/arm-multilib/lib/gcc/arm-none-eabi/4.6.2/../../../../arm-none-eabi/lib/thumb/libm.a(lib_a-w_pow.o)
 .rodata.str1.1
                0x00022948        0x5 /opt/paparazzi/arm-multilib/lib/gcc/arm-none-eabi/4.6.2/../../../../arm-none-eabi/lib/thumb/libm.a(lib_a-w_sinh.o)
 .rodata.str1.1
                0x0002294d        0x5 /opt/paparazzi/arm-multilib/lib/gcc/arm-none-eabi/4.6.2/../../../../arm-none-eabi/lib/thumb/libm.a(lib_a-w_sqrt.o)
 .rodata.str1.1
                0x00022952        0x6 /opt/paparazzi/arm-multilib/lib/gcc/arm-none-eabi/4.6.2/../../../../arm-none-eabi/lib/thumb/libm.a(lib_a-wf_asin.o)
                                  0x7 (size before relaxing)
 .rodata.str1.1
                0x00022958        0x6 /opt/paparazzi/arm-multilib/lib/gcc/arm-none-eabi/4.6.2/../../../../arm-none-eabi/lib/thumb/libm.a(lib_a-wf_sqrt.o)
 .rodata.str1.1
                0x00000000        0x1 /opt/paparazzi/arm-multilib/lib/gcc/arm-none-eabi/4.6.2/../../../../arm-none-eabi/lib/thumb/libm.a(lib_a-e_pow.o)
 .rodata.str1.1
                0x0002295e        0x2 /opt/paparazzi/arm-multilib/lib/gcc/arm-none-eabi/4.6.2/../../../../arm-none-eabi/lib/thumb/libc.a(lib_a-impure.o)
 *(.gnu.linkonce.r.*)

.vfp11_veneer   0x00022960        0x0
 .vfp11_veneer  0x00000000        0x0 linker stubs

.v4_bx          0x00022960        0x0
 .v4_bx         0x00000000        0x0 linker stubs
                0x00022960                . = ALIGN (0x4)

.ARM.exidx      0x00022960        0x0
                0x00022960                __exidx_start = .
 *(.ARM.exidx* .gnu.linkonce.armexidx.*)
                0x00022960                __exidx_end = .
                0x00022960                . = ALIGN (0x4)

.ctors          0x00022960        0x0
                0x00022960                PROVIDE (__ctors_start__, .)
 *(SORT(.ctors.*))
 *(.ctors)
                0x00022960                PROVIDE (__ctors_end__, .)

.dtors          0x00022960        0x0
                0x00022960                PROVIDE (__dtors_start__, .)
 *(SORT(.dtors.*))
 *(.dtors)
                0x00022960                PROVIDE (__dtors_end__, .)
                0x00022960                . = ALIGN (0x4)
                0x00022960                _etext = .
                0x00022960                PROVIDE (etext, .)

.data           0x40000000     0x3760 load address 0x00022960
                0x40000000                _data = .
 *(.data)
 .data          0x40000000        0x1 /opt/paparazzi/arm-multilib/lib/gcc/arm-none-eabi/4.6.2/../../../../arm-none-eabi/lib/thumb/libm.a(lib_a-s_lib_ver.o)
                0x40000000                __fdlib_version
 *fill*         0x40000001        0x7 00
 .data          0x40000008      0x430 /opt/paparazzi/arm-multilib/lib/gcc/arm-none-eabi/4.6.2/../../../../arm-none-eabi/lib/thumb/libc.a(lib_a-impure.o)
                0x40000008                _impure_ptr
 *(.data.*)
 .data.fbw_state
                0x40000438        0x4 /home/lionel/paparazziProto1/var/MYAC/ap/./inter_mcu.o
                0x40000438                fbw_state
 .data.ap_state
                0x4000043c        0x4 /home/lionel/paparazziProto1/var/MYAC/ap/./inter_mcu.o
                0x4000043c                ap_state
 .data.pprz_trig_int
                0x40000440     0x3244 /home/lionel/paparazziProto1/var/MYAC/ap/math/pprz_trig_int.o
                0x40000440                pprz_trig_int
 .data.pprz_mode
                0x40003684        0x1 /home/lionel/paparazziProto1/var/MYAC/ap/firmwares/fixedwing/main_ap.o
                0x40003684                pprz_mode
 .data.boot.4453
                0x40003685        0x1 /home/lionel/paparazziProto1/var/MYAC/ap/firmwares/fixedwing/main_ap.o
 .data.adc0_val
                0x40003686       0x10 /home/lionel/paparazziProto1/var/MYAC/ap/arch/lpc21/mcu_periph/adc_arch.o
                0x40003686                adc0_val
 .data.adc1_val
                0x40003696       0x10 /home/lionel/paparazziProto1/var/MYAC/ap/arch/lpc21/mcu_periph/adc_arch.o
                0x40003696                adc1_val
 *fill*         0x400036a6        0x2 00
 .data.servos_delay
                0x400036a8        0x4 /home/lionel/paparazziProto1/var/MYAC/ap/arch/lpc21/servos_4015_MAT_hw.o
                0x400036a8                servos_delay
 .data.v_ctl_auto_throttle_dash_trim
                0x400036ac        0x4 /home/lionel/paparazziProto1/var/MYAC/ap/firmwares/fixedwing/stabilization/stabilization_attitude.o
                0x400036ac                v_ctl_auto_throttle_dash_trim
 .data.v_ctl_auto_throttle_loiter_trim
                0x400036b0        0x4 /home/lionel/paparazziProto1/var/MYAC/ap/firmwares/fixedwing/stabilization/stabilization_attitude.o
                0x400036b0                v_ctl_auto_throttle_loiter_trim
 .data.nav_utm_zone0
                0x400036b4        0x1 /home/lionel/paparazziProto1/var/MYAC/ap/subsystems/nav.o
                0x400036b4                nav_utm_zone0
 *fill*         0x400036b5        0x3 00
 .data.nav_utm_north0
                0x400036b8        0x4 /home/lionel/paparazziProto1/var/MYAC/ap/subsystems/nav.o
                0x400036b8                nav_utm_north0
 .data.nav_altitude
                0x400036bc        0x4 /home/lionel/paparazziProto1/var/MYAC/ap/subsystems/nav.o
                0x400036bc                nav_altitude
 .data.waypoints
                0x400036c0       0x90 /home/lionel/paparazziProto1/var/MYAC/ap/subsystems/nav.o
                0x400036c0                waypoints
 .data.max_dist_from_home
                0x40003750        0x4 /home/lionel/paparazziProto1/var/MYAC/ap/subsystems/nav.o
                0x40003750                max_dist_from_home
 .data.nav_utm_east0
                0x40003754        0x4 /home/lionel/paparazziProto1/var/MYAC/ap/subsystems/nav.o
                0x40003754                nav_utm_east0
 .data.dc_autoshoot_meter_grid
                0x40003758        0x1 /home/lionel/paparazziProto1/var/MYAC/ap/modules/digital_cam/dc.o
                0x40003758                dc_autoshoot_meter_grid
 .data.dc_autoshoot_quartersec_period
                0x40003759        0x1 /home/lionel/paparazziProto1/var/MYAC/ap/modules/digital_cam/dc.o
                0x40003759                dc_autoshoot_quartersec_period
 *fill*         0x4000375a        0x2 00
 .data.dc_gps_dist
                0x4000375c        0x4 /home/lionel/paparazziProto1/var/MYAC/ap/modules/digital_cam/dc.o
                0x4000375c                dc_gps_dist
 *(.gnu.linkonce.d*)
                0x40003760                . = ALIGN (0x4)
 *(.fastrun)
                0x40003760                . = ALIGN (0x4)
                0x40003760                _edata = .
                0x40003760                PROVIDE (edata, .)

.bss            0x40003760     0x1450 load address 0x000260c0
                0x40003760                __bss_start = .
                0x40003760                __bss_start__ = .
 *(.bss)
 *(.bss.*)
 .bss.inter_mcu_received_ap
                0x40003760        0x1 /home/lionel/paparazziProto1/var/MYAC/ap/./inter_mcu.o
                0x40003760                inter_mcu_received_ap
 *fill*         0x40003761        0x1 00
 .bss._ap_state
                0x40003762        0xc /home/lionel/paparazziProto1/var/MYAC/ap/./inter_mcu.o
 .bss.inter_mcu_received_fbw
                0x4000376e        0x1 /home/lionel/paparazziProto1/var/MYAC/ap/./inter_mcu.o
                0x4000376e                inter_mcu_received_fbw
 *fill*         0x4000376f        0x1 00
 .bss._fbw_state
                0x40003770       0x18 /home/lionel/paparazziProto1/var/MYAC/ap/./inter_mcu.o
 .bss.i300.4161
                0x40003788        0x2 /home/lionel/paparazziProto1/var/MYAC/ap/firmwares/fixedwing/main_fbw.o
 .bss.i30.4188  0x4000378a        0x1 /home/lionel/paparazziProto1/var/MYAC/ap/firmwares/fixedwing/main_fbw.o
 .bss.i60.4189  0x4000378b        0x1 /home/lionel/paparazziProto1/var/MYAC/ap/firmwares/fixedwing/main_fbw.o
 .bss.i300.4190
                0x4000378c        0x2 /home/lionel/paparazziProto1/var/MYAC/ap/firmwares/fixedwing/main_fbw.o
 .bss.fbw_new_actuators
                0x4000378e        0x1 /home/lionel/paparazziProto1/var/MYAC/ap/firmwares/fixedwing/main_fbw.o
                0x4000378e                fbw_new_actuators
 .bss.i120.4160
                0x4000378f        0x1 /home/lionel/paparazziProto1/var/MYAC/ap/firmwares/fixedwing/main_fbw.o
 .bss._1Hz.2780
                0x40003790        0x1 /home/lionel/paparazziProto1/var/MYAC/ap/firmwares/fixedwing/main_fbw.o
 *fill*         0x40003791        0x3 00
 .bss.electrical_priv
                0x40003794       0x4c /home/lionel/paparazziProto1/var/MYAC/ap/subsystems/electrical.o
 .bss.command_roll_trim
                0x400037e0        0x2 /home/lionel/paparazziProto1/var/MYAC/ap/./commands.o
                0x400037e0                command_roll_trim
 .bss.command_pitch_trim
                0x400037e2        0x2 /home/lionel/paparazziProto1/var/MYAC/ap/./commands.o
                0x400037e2                command_pitch_trim
 .bss.telemetry_mode_Fbw
                0x400037e4        0x1 /home/lionel/paparazziProto1/var/MYAC/ap/firmwares/fixedwing/fbw_downlink.o
                0x400037e4                telemetry_mode_Fbw
 .bss.i60.4460  0x400037e5        0x1 /home/lionel/paparazziProto1/var/MYAC/ap/firmwares/fixedwing/main_ap.o
 .bss.i306.5162
                0x400037e6        0x2 /home/lionel/paparazziProto1/var/MYAC/ap/firmwares/fixedwing/main_ap.o
 .bss.i30.5332  0x400037e8        0x1 /home/lionel/paparazziProto1/var/MYAC/ap/firmwares/fixedwing/main_ap.o
 *fill*         0x400037e9        0x1 00
 .bss.last.5262
                0x400037ea        0x2 /home/lionel/paparazziProto1/var/MYAC/ap/firmwares/fixedwing/main_ap.o
 .bss.i66.4819  0x400037ec        0x1 /home/lionel/paparazziProto1/var/MYAC/ap/firmwares/fixedwing/main_ap.o
 .bss.i.4693    0x400037ed        0x1 /home/lionel/paparazziProto1/var/MYAC/ap/firmwares/fixedwing/main_ap.o
 .bss.i420.5167
                0x400037ee        0x2 /home/lionel/paparazziProto1/var/MYAC/ap/firmwares/fixedwing/main_ap.o
 .bss.i330.5165
                0x400037f0        0x2 /home/lionel/paparazziProto1/var/MYAC/ap/firmwares/fixedwing/main_ap.o
 .bss.last.5114
                0x400037f2        0x2 /home/lionel/paparazziProto1/var/MYAC/ap/firmwares/fixedwing/main_ap.o
 .bss.mcu1_ppm_cpt
                0x400037f4        0x1 /home/lionel/paparazziProto1/var/MYAC/ap/firmwares/fixedwing/main_ap.o
 *fill*         0x400037f5        0x1 00
 .bss.i300.4829
                0x400037f6        0x2 /home/lionel/paparazziProto1/var/MYAC/ap/firmwares/fixedwing/main_ap.o
 .bss.ahrs_timeout_counter
                0x400037f8        0x1 /home/lionel/paparazziProto1/var/MYAC/ap/firmwares/fixedwing/main_ap.o
                0x400037f8                ahrs_timeout_counter
 .bss.i192.4826
                0x400037f9        0x1 /home/lionel/paparazziProto1/var/MYAC/ap/firmwares/fixedwing/main_ap.o
 .bss.i183.4825
                0x400037fa        0x1 /home/lionel/paparazziProto1/var/MYAC/ap/firmwares/fixedwing/main_ap.o
 *fill*         0x400037fb        0x1 00
 .bss.i342.5166
                0x400037fc        0x2 /home/lionel/paparazziProto1/var/MYAC/ap/firmwares/fixedwing/main_ap.o
 .bss.i.5348    0x400037fe        0x1 /home/lionel/paparazziProto1/var/MYAC/ap/firmwares/fixedwing/main_ap.o
 .bss.i90.4822  0x400037ff        0x1 /home/lionel/paparazziProto1/var/MYAC/ap/firmwares/fixedwing/main_ap.o
 .bss.i30.4230  0x40003800        0x1 /home/lionel/paparazziProto1/var/MYAC/ap/firmwares/fixedwing/main_ap.o
 *fill*         0x40003801        0x1 00
 .bss.last.4798
                0x40003802        0x2 /home/lionel/paparazziProto1/var/MYAC/ap/firmwares/fixedwing/main_ap.o
 .bss.i612.5169
                0x40003804        0x2 /home/lionel/paparazziProto1/var/MYAC/ap/firmwares/fixedwing/main_ap.o
 .bss.i180.4824
                0x40003806        0x1 /home/lionel/paparazziProto1/var/MYAC/ap/firmwares/fixedwing/main_ap.o
 .bss.t.5446    0x40003807        0x1 /home/lionel/paparazziProto1/var/MYAC/ap/firmwares/fixedwing/main_ap.o
 .bss.i30.4459  0x40003808        0x1 /home/lionel/paparazziProto1/var/MYAC/ap/firmwares/fixedwing/main_ap.o
 .bss.i.4471    0x40003809        0x1 /home/lionel/paparazziProto1/var/MYAC/ap/firmwares/fixedwing/main_ap.o
 .bss.last_pprz_mode.5394
                0x4000380a        0x1 /home/lionel/paparazziProto1/var/MYAC/ap/firmwares/fixedwing/main_ap.o
 .bss.i90.4464  0x4000380b        0x1 /home/lionel/paparazziProto1/var/MYAC/ap/firmwares/fixedwing/main_ap.o
 .bss.lateral_mode
                0x4000380c        0x1 /home/lionel/paparazziProto1/var/MYAC/ap/firmwares/fixedwing/main_ap.o
                0x4000380c                lateral_mode
 .bss.i.4904    0x4000380d        0x1 /home/lionel/paparazziProto1/var/MYAC/ap/firmwares/fixedwing/main_ap.o
 .bss.mcu1_status
                0x4000380e        0x1 /home/lionel/paparazziProto1/var/MYAC/ap/firmwares/fixedwing/main_ap.o
 *fill*         0x4000380f        0x1 00
 .bss.i606.4833
                0x40003810        0x2 /home/lionel/paparazziProto1/var/MYAC/ap/firmwares/fixedwing/main_ap.o
 .bss.i63.4461  0x40003812        0x1 /home/lionel/paparazziProto1/var/MYAC/ap/firmwares/fixedwing/main_ap.o
 .bss.i.4923    0x40003813        0x1 /home/lionel/paparazziProto1/var/MYAC/ap/firmwares/fixedwing/main_ap.o
 .bss.i126.4466
                0x40003814        0x1 /home/lionel/paparazziProto1/var/MYAC/ap/firmwares/fixedwing/main_ap.o
 *fill*         0x40003815        0x1 00
 .bss.i606.5168
                0x40003816        0x2 /home/lionel/paparazziProto1/var/MYAC/ap/firmwares/fixedwing/main_ap.o
 .bss.i312.4831
                0x40003818        0x2 /home/lionel/paparazziProto1/var/MYAC/ap/firmwares/fixedwing/main_ap.o
 .bss.gps_lost  0x4000381a        0x1 /home/lionel/paparazziProto1/var/MYAC/ap/firmwares/fixedwing/main_ap.o
                0x4000381a                gps_lost
 .bss.dc_shutter_timer.4201
                0x4000381b        0x1 /home/lionel/paparazziProto1/var/MYAC/ap/firmwares/fixedwing/main_ap.o
 .bss.i324.5164
                0x4000381c        0x2 /home/lionel/paparazziProto1/var/MYAC/ap/firmwares/fixedwing/main_ap.o
 .bss.i1.4228   0x4000381e        0x1 /home/lionel/paparazziProto1/var/MYAC/ap/firmwares/fixedwing/main_ap.o
 .bss.i120.4465
                0x4000381f        0x1 /home/lionel/paparazziProto1/var/MYAC/ap/firmwares/fixedwing/main_ap.o
 .bss.i66.4462  0x40003820        0x1 /home/lionel/paparazziProto1/var/MYAC/ap/firmwares/fixedwing/main_ap.o
 .bss.i240.4827
                0x40003821        0x1 /home/lionel/paparazziProto1/var/MYAC/ap/firmwares/fixedwing/main_ap.o
 .bss.i.4538    0x40003822        0x1 /home/lionel/paparazziProto1/var/MYAC/ap/firmwares/fixedwing/main_ap.o
 .bss.i.4834    0x40003823        0x1 /home/lionel/paparazziProto1/var/MYAC/ap/firmwares/fixedwing/main_ap.o
 .bss.kill_throttle
                0x40003824        0x1 /home/lionel/paparazziProto1/var/MYAC/ap/firmwares/fixedwing/main_ap.o
                0x40003824                kill_throttle
 *fill*         0x40003825        0x1 00
 .bss.i306.4830
                0x40003826        0x2 /home/lionel/paparazziProto1/var/MYAC/ap/firmwares/fixedwing/main_ap.o
 .bss.i243.4828
                0x40003828        0x1 /home/lionel/paparazziProto1/var/MYAC/ap/firmwares/fixedwing/main_ap.o
 .bss.i126.4823
                0x40003829        0x1 /home/lionel/paparazziProto1/var/MYAC/ap/firmwares/fixedwing/main_ap.o
 .bss.i126.5333
                0x4000382a        0x1 /home/lionel/paparazziProto1/var/MYAC/ap/firmwares/fixedwing/main_ap.o
 *fill*         0x4000382b        0x1 00
 .bss.i540.4832
                0x4000382c        0x2 /home/lionel/paparazziProto1/var/MYAC/ap/firmwares/fixedwing/main_ap.o
 .bss.i150.4467
                0x4000382e        0x1 /home/lionel/paparazziProto1/var/MYAC/ap/firmwares/fixedwing/main_ap.o
 .bss.i72.4463  0x4000382f        0x1 /home/lionel/paparazziProto1/var/MYAC/ap/firmwares/fixedwing/main_ap.o
 .bss.i15.4458  0x40003830        0x1 /home/lionel/paparazziProto1/var/MYAC/ap/firmwares/fixedwing/main_ap.o
 *fill*         0x40003831        0x1 00
 .bss.i318.5163
                0x40003832        0x2 /home/lionel/paparazziProto1/var/MYAC/ap/firmwares/fixedwing/main_ap.o
 .bss.i63.4818  0x40003834        0x1 /home/lionel/paparazziProto1/var/MYAC/ap/firmwares/fixedwing/main_ap.o
 .bss.i84.4821  0x40003835        0x1 /home/lionel/paparazziProto1/var/MYAC/ap/firmwares/fixedwing/main_ap.o
 .bss.i78.4820  0x40003836        0x1 /home/lionel/paparazziProto1/var/MYAC/ap/firmwares/fixedwing/main_ap.o
 *fill*         0x40003837        0x1 00
 .bss.current   0x40003838        0x4 /home/lionel/paparazziProto1/var/MYAC/ap/firmwares/fixedwing/main_ap.o
 .bss.i300.5161
                0x4000383c        0x2 /home/lionel/paparazziProto1/var/MYAC/ap/firmwares/fixedwing/main_ap.o
 .bss.i300.4468
                0x4000383e        0x2 /home/lionel/paparazziProto1/var/MYAC/ap/firmwares/fixedwing/main_ap.o
 .bss.i306.4469
                0x40003840        0x2 /home/lionel/paparazziProto1/var/MYAC/ap/firmwares/fixedwing/main_ap.o
 .bss.autopilot_flight_time
                0x40003842        0x2 /home/lionel/paparazziProto1/var/MYAC/ap/firmwares/fixedwing/main_ap.o
                0x40003842                autopilot_flight_time
 .bss.i.5177    0x40003844        0x1 /home/lionel/paparazziProto1/var/MYAC/ap/firmwares/fixedwing/main_ap.o
 .bss.i6.5331   0x40003845        0x1 /home/lionel/paparazziProto1/var/MYAC/ap/firmwares/fixedwing/main_ap.o
 .bss.launch    0x40003846        0x1 /home/lionel/paparazziProto1/var/MYAC/ap/firmwares/fixedwing/main_ap.o
                0x40003846                launch
 .bss.i15.4229  0x40003847        0x1 /home/lionel/paparazziProto1/var/MYAC/ap/firmwares/fixedwing/main_ap.o
 .bss.i540.4470
                0x40003848        0x2 /home/lionel/paparazziProto1/var/MYAC/ap/firmwares/fixedwing/main_ap.o
 .bss.telemetry_mode_Ap
                0x4000384a        0x1 /home/lionel/paparazziProto1/var/MYAC/ap/firmwares/fixedwing/ap_downlink.o
                0x4000384a                telemetry_mode_Ap
 *fill*         0x4000384b        0x1 00
 .bss.p         0x4000384c       0x10 /home/lionel/paparazziProto1/var/MYAC/ap/./subsystems/ins/ins_alt_float.o
 .bss.buffers   0x4000385c       0x40 /home/lionel/paparazziProto1/var/MYAC/ap/arch/lpc21/mcu_periph/adc_arch.o
 .bss.last_err.3865
                0x4000389c        0x4 /home/lionel/paparazziProto1/var/MYAC/ap/firmwares/fixedwing/stabilization/stabilization_attitude.o
 .bss.last_err.3823
                0x400038a0        0x4 /home/lionel/paparazziProto1/var/MYAC/ap/firmwares/fixedwing/stabilization/stabilization_attitude.o
 .bss.nav_ratio
                0x400038a4        0x4 /home/lionel/paparazziProto1/var/MYAC/ap/firmwares/fixedwing/stabilization/stabilization_attitude.o
 .bss.last_elevator_trim.3856
                0x400038a8        0x4 /home/lionel/paparazziProto1/var/MYAC/ap/firmwares/fixedwing/stabilization/stabilization_attitude.o
 .bss.last_err.3805
                0x400038ac        0x4 /home/lionel/paparazziProto1/var/MYAC/ap/firmwares/fixedwing/guidance/guidance_v.o
 .bss.analog_imu_adc_buf
                0x400038b0      0x1b0 /home/lionel/paparazziProto1/var/MYAC/ap/subsystems/imu/imu_analog.o
 .bss.last_head.2665
                0x40003a60        0x4 /home/lionel/paparazziProto1/var/MYAC/ap/subsystems/imu/imu_analog.o
 .bss.prescaler.4443
                0x40003a64        0x2 /home/lionel/paparazziProto1/var/MYAC/ap/subsystems/nav.o
 *fill*         0x40003a66        0x2 00
 .bss.previous_ground_alt
                0x40003a68        0x4 /home/lionel/paparazziProto1/var/MYAC/ap/subsystems/nav.o
 .bss.baseleg_out_qdr
                0x40003a6c        0x4 /home/lionel/paparazziProto1/var/MYAC/ap/subsystems/nav.o
 .bss.last_nav_altitude.4455
                0x40003a70        0x4 /home/lionel/paparazziProto1/var/MYAC/ap/subsystems/nav.o
 .bss.nav_in_segment
                0x40003a74        0x1 /home/lionel/paparazziProto1/var/MYAC/ap/subsystems/nav.o
                0x40003a74                nav_in_segment
 .bss.last_wp   0x40003a75        0x1 /home/lionel/paparazziProto1/var/MYAC/ap/subsystems/nav.o
 .bss.nav_in_circle
                0x40003a76        0x1 /home/lionel/paparazziProto1/var/MYAC/ap/subsystems/nav.o
                0x40003a76                nav_in_circle
 *fill*         0x40003a77        0x1 00
 .bss.nav_leg_length
                0x40003a78        0x4 /home/lionel/paparazziProto1/var/MYAC/ap/subsystems/nav.o
 .bss.eight_status
                0x40003a7c        0x1 /home/lionel/paparazziProto1/var/MYAC/ap/subsystems/nav.o
 *fill*         0x40003a7d        0x3 00
 .bss.circle_bank
                0x40003a80        0x4 /home/lionel/paparazziProto1/var/MYAC/ap/subsystems/nav.o
                0x40003a80                circle_bank
 .bss.nav_leg_progress
                0x40003a84        0x4 /home/lionel/paparazziProto1/var/MYAC/ap/subsystems/nav.o
 .bss.survey_from
                0x40003a88        0xc /home/lionel/paparazziProto1/var/MYAC/ap/subsystems/navigation/nav_survey_rectangle.o
 .bss.survey_orientation
                0x40003a94        0x1 /home/lionel/paparazziProto1/var/MYAC/ap/subsystems/navigation/nav_survey_rectangle.o
 *fill*         0x40003a95        0x3 00
 .bss.survey_to
                0x40003a98        0xc /home/lionel/paparazziProto1/var/MYAC/ap/subsystems/navigation/nav_survey_rectangle.o
 .bss.survey_uturn
                0x40003aa4        0x1 /home/lionel/paparazziProto1/var/MYAC/ap/subsystems/navigation/nav_survey_rectangle.o
 *fill*         0x40003aa5        0x3 00
 .bss.survey_radius.4080
                0x40003aa8        0x4 /home/lionel/paparazziProto1/var/MYAC/ap/subsystems/navigation/nav_survey_rectangle.o
 .bss.line_status
                0x40003aac        0x1 /home/lionel/paparazziProto1/var/MYAC/ap/subsystems/navigation/nav_line.o
 *fill*         0x40003aad        0x3 00
 .bss.timestamp
                0x40003ab0        0x4 /home/lionel/paparazziProto1/var/MYAC/ap/modules/openlog/openlog.o
                0x40003ab0                timestamp
 .bss.buf_ir1   0x40003ab4       0x48 /home/lionel/paparazziProto1/var/MYAC/ap/subsystems/sensors/infrared_adc.o
 .bss.buf_ir2   0x40003afc       0x48 /home/lionel/paparazziProto1/var/MYAC/ap/subsystems/sensors/infrared_adc.o
 .bss.buf_ir3   0x40003b44       0x48 /home/lionel/paparazziProto1/var/MYAC/ap/subsystems/sensors/infrared_adc.o
 .bss.dc_circle_start_angle
                0x40003b8c        0x4 /home/lionel/paparazziProto1/var/MYAC/ap/modules/digital_cam/dc.o
                0x40003b8c                dc_circle_start_angle
 .bss.dc_autoshoot
                0x40003b90        0x1 /home/lionel/paparazziProto1/var/MYAC/ap/modules/digital_cam/dc.o
                0x40003b90                dc_autoshoot
 *fill*         0x40003b91        0x3 00
 .bss.dc_gps_next_dist
                0x40003b94        0x4 /home/lionel/paparazziProto1/var/MYAC/ap/modules/digital_cam/dc.o
                0x40003b94                dc_gps_next_dist
 .bss.dc_gps_count
                0x40003b98        0x2 /home/lionel/paparazziProto1/var/MYAC/ap/modules/digital_cam/dc.o
                0x40003b98                dc_gps_count
 .bss.dc_buffer
                0x40003b9a        0x2 /home/lionel/paparazziProto1/var/MYAC/ap/modules/digital_cam/dc.o
                0x40003b9a                dc_buffer
 .bss.dc_circle_interval
                0x40003b9c        0x4 /home/lionel/paparazziProto1/var/MYAC/ap/modules/digital_cam/dc.o
                0x40003b9c                dc_circle_interval
 .bss.dc_photo_nr
                0x40003ba0        0x2 /home/lionel/paparazziProto1/var/MYAC/ap/modules/digital_cam/dc.o
                0x40003ba0                dc_photo_nr
 *fill*         0x40003ba2        0x2 00
 .bss.dc_gps_x  0x40003ba4        0x4 /home/lionel/paparazziProto1/var/MYAC/ap/modules/digital_cam/dc.o
                0x40003ba4                dc_gps_x
 .bss.dc_gps_y  0x40003ba8        0x4 /home/lionel/paparazziProto1/var/MYAC/ap/modules/digital_cam/dc.o
                0x40003ba8                dc_gps_y
 .bss.dc_probing
                0x40003bac        0x1 /home/lionel/paparazziProto1/var/MYAC/ap/modules/digital_cam/dc.o
                0x40003bac                dc_probing
 *fill*         0x40003bad        0x3 00
 .bss.dc_circle_max_blocks
                0x40003bb0        0x4 /home/lionel/paparazziProto1/var/MYAC/ap/modules/digital_cam/dc.o
                0x40003bb0                dc_circle_max_blocks
 .bss.dc_circle_last_block
                0x40003bb4        0x4 /home/lionel/paparazziProto1/var/MYAC/ap/modules/digital_cam/dc.o
                0x40003bb4                dc_circle_last_block
 *(.gnu.linkonce.b*)
 *(COMMON)
 COMMON         0x40003bb8       0xac /home/lionel/paparazziProto1/var/MYAC/ap/mcu_periph/sys_time.o
                0x40003bb8                sys_time
 COMMON         0x40003c64        0x2 /home/lionel/paparazziProto1/var/MYAC/ap/./inter_mcu.o
                0x40003c64                ap_ok
                0x40003c65                time_since_last_ap
 COMMON         0x40003c66        0x3 /home/lionel/paparazziProto1/var/MYAC/ap/firmwares/fixedwing/main_fbw.o
                0x40003c66                fbw_periodic_tid
                0x40003c67                fbw_mode
                0x40003c68                electrical_tid
 *fill*         0x40003c69        0x3 00
 COMMON         0x40003c6c        0x8 /home/lionel/paparazziProto1/var/MYAC/ap/subsystems/electrical.o
                0x40003c6c                electrical
 COMMON         0x40003c74        0x8 /home/lionel/paparazziProto1/var/MYAC/ap/./commands.o
                0x40003c74                commands
 COMMON         0x40003c7c       0x11 /home/lionel/paparazziProto1/var/MYAC/ap/firmwares/fixedwing/main_ap.o
                0x40003c7c                navigation_tid
                0x40003c7d                monitor_tid
                0x40003c7e                sensors_tid
                0x40003c7f                openlog_periodic_2Hz_openlog_status
                0x40003c80                attitude_tid
                0x40003c84                energy
                0x40003c88                telemetry_tid
                0x40003c89                power_switch
                0x40003c8a                modules_tid
                0x40003c8b                vsupply
                0x40003c8c                digital_cam_servo_servo_cam_ctrl_periodic_status
 *fill*         0x40003c8d        0x3 00
 COMMON         0x40003c90      0x268 /home/lionel/paparazziProto1/var/MYAC/ap/state.o
                0x40003c90                state
 COMMON         0x40003ef8        0x3 /home/lionel/paparazziProto1/var/MYAC/ap/./subsystems/ins.o
                0x40003ef8                ins
 *fill*         0x40003efb        0x1 00
 COMMON         0x40003efc        0x9 /home/lionel/paparazziProto1/var/MYAC/ap/./subsystems/ins/ins_alt_float.o
                0x40003efc                estimator_z_dot
                0x40003f00                estimator_z
                0x40003f04                alt_kalman_enabled
 *fill*         0x40003f05        0x3 00
 COMMON         0x40003f08      0x240 /home/lionel/paparazziProto1/var/MYAC/ap/mcu_periph/uart.o
                0x40003f08                uart0
                0x40004028                uart1
 COMMON         0x40004148       0x12 /home/lionel/paparazziProto1/var/MYAC/ap/arch/lpc21/servos_4015_MAT_hw.o
                0x40004148                servos_4015_idx
                0x4000414a                servos_values
 COMMON         0x4000415a        0x8 /home/lionel/paparazziProto1/var/MYAC/ap/actuators.o
                0x4000415a                actuators
 COMMON         0x40004162       0x14 /home/lionel/paparazziProto1/var/MYAC/ap/subsystems/radio_control.o
                0x40004162                radio_control
 COMMON         0x40004176       0x10 /home/lionel/paparazziProto1/var/MYAC/ap/subsystems/radio_control/ppm.o
                0x40004176                ppm_frame_available
                0x40004178                ppm_pulses
 *fill*         0x40004186        0x2 00
 COMMON         0x40004188        0x9 /home/lionel/paparazziProto1/var/MYAC/ap/arch/lpc21/subsystems/radio_control/ppm_arch.o
                0x40004188                ppm_data_valid
                0x4000418c                ppm_last_pulse_time
                0x40004190                ppm_cur_pulse
 *fill*         0x40004191        0x1 00
 COMMON         0x40004192        0x6 /home/lionel/paparazziProto1/var/MYAC/ap/subsystems/datalink/downlink.o
                0x40004192                downlink_nb_ovrn
                0x40004194                downlink_nb_msgs
                0x40004196                downlink_nb_bytes
 COMMON         0x40004198      0x110 /home/lionel/paparazziProto1/var/MYAC/ap/subsystems/datalink/xbee.o
                0x40004198                xbee_rssi
                0x4000419c                xbee_delay_time
                0x400041a0                xbee_cs
                0x400041a1                xbee_tp
 COMMON         0x400042a8       0x8a /home/lionel/paparazziProto1/var/MYAC/ap/firmwares/fixedwing/datalink.o
                0x400042a8                dl_msg_available
                0x400042b0                dl_buffer
                0x40004330                datalink_time
 *fill*         0x40004332        0x2 00
 COMMON         0x40004334       0x54 /home/lionel/paparazziProto1/var/MYAC/ap/firmwares/fixedwing/stabilization/stabilization_attitude.o
                0x40004334                h_ctl_auto1_rate
                0x40004338                h_ctl_course_setpoint
                0x4000433c                h_ctl_roll_max_setpoint
                0x40004340                h_ctl_course_pre_bank_correction
                0x40004344                h_ctl_elevator_setpoint
                0x40004348                h_ctl_aileron_of_throttle
                0x4000434c                h_ctl_aileron_setpoint
                0x40004350                h_ctl_pitch_setpoint
                0x40004354                h_ctl_roll_slew
                0x40004358                h_ctl_course_pgain
                0x4000435c                h_ctl_pitch_pgain
                0x40004360                h_ctl_pitch_loop_setpoint
                0x40004364                h_ctl_course_pre_bank
                0x40004368                h_ctl_pitch_dgain
                0x4000436c                h_ctl_course_dgain
                0x40004370                h_ctl_roll_attitude_gain
                0x40004374                h_ctl_roll_rate_gain
                0x40004378                h_ctl_disabled
                0x4000437c                h_ctl_roll_pgain
                0x40004380                h_ctl_roll_setpoint
                0x40004384                h_ctl_elevator_of_roll
 COMMON         0x40004388       0x6c /home/lionel/paparazziProto1/var/MYAC/ap/firmwares/fixedwing/guidance/guidance_v.o
                0x40004388                v_ctl_auto_throttle_nominal_cruise_throttle
                0x4000438c                v_ctl_altitude_error
                0x40004390                v_ctl_climb_mode
                0x40004394                v_ctl_auto_throttle_pitch_of_vz_dgain
                0x40004398                v_ctl_pitch_setpoint
                0x4000439c                v_ctl_altitude_pre_climb_correction
                0x400043a0                v_ctl_auto_throttle_sum_err
                0x400043a4                v_ctl_auto_throttle_submode
                0x400043a8                v_ctl_auto_throttle_pitch_of_vz_pgain
                0x400043ac                v_ctl_altitude_max_climb
                0x400043b0                v_ctl_altitude_setpoint
                0x400043b4                v_ctl_mode
                0x400043b8                v_ctl_auto_throttle_cruise_throttle
                0x400043bc                v_ctl_altitude_pgain
                0x400043c0                v_ctl_auto_pitch_pgain
                0x400043c4                v_ctl_auto_throttle_climb_throttle_increment
                0x400043c8                v_ctl_auto_throttle_igain
                0x400043cc                v_ctl_auto_throttle_min_cruise_throttle
                0x400043d0                v_ctl_throttle_setpoint
                0x400043d4                v_ctl_climb_setpoint
                0x400043d8                v_ctl_auto_throttle_dgain
                0x400043dc                v_ctl_auto_pitch_igain
                0x400043e0                v_ctl_altitude_pre_climb
                0x400043e4                v_ctl_auto_throttle_max_cruise_throttle
                0x400043e8                v_ctl_throttle_slewed
                0x400043ec                v_ctl_auto_throttle_pgain
                0x400043f0                v_ctl_auto_pitch_sum_err
 COMMON         0x400043f4       0xb8 /home/lionel/paparazziProto1/var/MYAC/ap/subsystems/imu.o
                0x400043f4                imu
 COMMON         0x400044ac        0x5 /home/lionel/paparazziProto1/var/MYAC/ap/subsystems/imu/imu_analog.o
                0x400044ac                imu_overrun
                0x400044b0                analog_imu_available
 COMMON         0x400044b1        0x1 /home/lionel/paparazziProto1/var/MYAC/ap/subsystems/ahrs.o
                0x400044b1                ahrs
 *fill*         0x400044b2        0x2 00
 COMMON         0x400044b4        0x4 /home/lionel/paparazziProto1/var/MYAC/ap/subsystems/ahrs/ahrs_infrared.o
                0x400044b4                heading
 COMMON         0x400044b8      0x118 /home/lionel/paparazziProto1/var/MYAC/ap/subsystems/gps/gps_ubx.o
                0x400044b8                gps_ubx
 COMMON         0x400045d0       0xf4 /home/lionel/paparazziProto1/var/MYAC/ap/subsystems/gps.o
                0x400045d0                gps
 COMMON         0x400046c4       0xa0 /home/lionel/paparazziProto1/var/MYAC/ap/subsystems/nav.o
                0x400046c4                nav_glide_pitch_trim
                0x400046c8                dist2_to_wp
                0x400046cc                nav_segment_x_1
                0x400046d0                desired_x
                0x400046d4                nav_survey_east
                0x400046d8                nav_segment_x_2
                0x400046dc                nav_circle_radius
                0x400046e0                nav_ground_speed_setpoint
                0x400046e4                nav_circle_radians
                0x400046e8                nav_throttle_setpoint
                0x400046ec                desired_y
                0x400046f0                nav_shift
                0x400046f4                carrot_x
                0x400046f8                last_y
                0x400046fc                horizontal_mode
                0x40004700                nav_circle_y
                0x40004704                too_far_from_home
                0x40004708                nav_pitch
                0x4000470c                rc_pitch
                0x40004710                nav_oval_count
                0x40004714                nav_mode
                0x40004718                dist2_to_home
                0x4000471c                nav_climb
                0x40004720                last_x
                0x40004724                nav_survey_active
                0x40004725                oval_status
                0x40004728                nav_ground_speed_pgain
                0x4000472c                nav_circle_x
                0x40004730                nav_segment_y_2
                0x40004734                nav_segment_y_1
                0x40004738                ground_alt
                0x4000473c                nav_survey_west
                0x40004740                nav_radius
                0x40004744                nav_course
                0x40004748                nav_survey_shift
                0x4000474c                carrot_y
                0x40004750                nav_survey_south
                0x40004754                nav_circle_trigo_qdr
                0x40004758                fp_pitch
                0x4000475c                flight_altitude
                0x40004760                nav_survey_north
 COMMON         0x40004764        0x8 /home/lionel/paparazziProto1/var/MYAC/ap/subsystems/navigation/common_flight_plan.o
                0x40004764                nav_block
                0x40004765                last_block
                0x40004766                nav_stage
                0x40004767                last_stage
                0x40004768                stage_time
                0x4000476a                block_time
 COMMON         0x4000476c      0x401 /home/lionel/paparazziProto1/var/MYAC/ap/subsystems/navigation/traffic_info.o
                0x4000476c                the_acs_id
                0x4000486c                the_acs
                0x40004b6c                acs_idx
 *fill*         0x40004b6d        0x3 00
 COMMON         0x40004b70       0x38 /home/lionel/paparazziProto1/var/MYAC/ap/subsystems/sensors/infrared.o
                0x40004b70                infrared
 COMMON         0x40004ba8        0x6 /home/lionel/paparazziProto1/var/MYAC/ap/subsystems/sensors/infrared_adc.o
                0x40004ba8                ir_adc
 COMMON         0x40004bae        0x1 /home/lionel/paparazziProto1/var/MYAC/ap/modules/digital_cam/servo_cam_ctrl.o
                0x40004bae                dc_timer
                0x40004bb0                . = ALIGN (0x4)
 *fill*         0x40004baf        0x1 00
                0x40004bb0                . = ALIGN (0x4)
                0x40004bb0                __bss_end__ = .
                0x40004bb0                PROVIDE (__bss_end, .)

.stack          0x40004c00     0x1000 load address 0x00027560
                0x40005c00                . = (. + STACK_SIZE)
 *fill*         0x40004c00     0x1000 00
                0x40005c00                PROVIDE (_stack, .)
                0x40005c00                _end = .
                0x40005c00                PROVIDE (end, .)

.stab
 *(.stab)

.stabstr
 *(.stabstr)

.stab.excl
 *(.stab.excl)

.stab.exclstr
 *(.stab.exclstr)

.stab.index
 *(.stab.index)

.stab.indexstr
 *(.stab.indexstr)

.comment        0x00000000       0x3c
 *(.comment)
 .comment       0x00000000       0x3c /home/lionel/paparazziProto1/var/MYAC/ap/mcu.o
                                 0x3d (size before relaxing)
 .comment       0x00000000       0x3d /home/lionel/paparazziProto1/var/MYAC/ap/arch/lpc21/mcu_arch.o
 .comment       0x00000000       0x3d /home/lionel/paparazziProto1/var/MYAC/ap/mcu_periph/sys_time.o
 .comment       0x00000000       0x3d /home/lionel/paparazziProto1/var/MYAC/ap/arch/lpc21/mcu_periph/sys_time_arch.o
 .comment       0x00000000       0x3d /home/lionel/paparazziProto1/var/MYAC/ap/./inter_mcu.o
 .comment       0x00000000       0x3d /home/lionel/paparazziProto1/var/MYAC/ap/math/pprz_geodetic_int.o
 .comment       0x00000000       0x3d /home/lionel/paparazziProto1/var/MYAC/ap/math/pprz_geodetic_float.o
 .comment       0x00000000       0x3d /home/lionel/paparazziProto1/var/MYAC/ap/math/pprz_geodetic_double.o
 .comment       0x00000000       0x3d /home/lionel/paparazziProto1/var/MYAC/ap/math/pprz_trig_int.o
 .comment       0x00000000       0x3d /home/lionel/paparazziProto1/var/MYAC/ap/math/pprz_orientation_conversion.o
 .comment       0x00000000       0x3d /home/lionel/paparazziProto1/var/MYAC/ap/mcu_periph/i2c.o
 .comment       0x00000000       0x3d /home/lionel/paparazziProto1/var/MYAC/ap/arch/lpc21/mcu_periph/i2c_arch.o
 .comment       0x00000000       0x3d /home/lionel/paparazziProto1/var/MYAC/ap/firmwares/fixedwing/main_fbw.o
 .comment       0x00000000       0x3d /home/lionel/paparazziProto1/var/MYAC/ap/subsystems/electrical.o
 .comment       0x00000000       0x3d /home/lionel/paparazziProto1/var/MYAC/ap/./commands.o
 .comment       0x00000000       0x3d /home/lionel/paparazziProto1/var/MYAC/ap/firmwares/fixedwing/fbw_downlink.o
 .comment       0x00000000       0x3d /home/lionel/paparazziProto1/var/MYAC/ap/firmwares/fixedwing/main_ap.o
 .comment       0x00000000       0x3d /home/lionel/paparazziProto1/var/MYAC/ap/firmwares/fixedwing/ap_downlink.o
 .comment       0x00000000       0x3d /home/lionel/paparazziProto1/var/MYAC/ap/state.o
 .comment       0x00000000       0x3d /home/lionel/paparazziProto1/var/MYAC/ap/./subsystems/ins.o
 .comment       0x00000000       0x3d /home/lionel/paparazziProto1/var/MYAC/ap/./subsystems/ins/ins_alt_float.o
 .comment       0x00000000       0x3d /home/lionel/paparazziProto1/var/MYAC/ap/arch/lpc21/armVIC.o
 .comment       0x00000000       0x3d /home/lionel/paparazziProto1/var/MYAC/ap/firmwares/fixedwing/main.o
 .comment       0x00000000       0x3d /home/lionel/paparazziProto1/var/MYAC/ap/mcu_periph/uart.o
 .comment       0x00000000       0x3d /home/lionel/paparazziProto1/var/MYAC/ap/arch/lpc21/mcu_periph/uart_arch.o
 .comment       0x00000000       0x3d /home/lionel/paparazziProto1/var/MYAC/ap/subsystems/settings.o
 .comment       0x00000000       0x3d /home/lionel/paparazziProto1/var/MYAC/ap/arch/lpc21/subsystems/settings_arch.o
 .comment       0x00000000       0x3d /home/lionel/paparazziProto1/var/MYAC/ap/arch/lpc21/mcu_periph/adc_arch.o
 .comment       0x00000000       0x3d /home/lionel/paparazziProto1/var/MYAC/ap/arch/lpc21/servos_4015_MAT_hw.o
 .comment       0x00000000       0x3d /home/lionel/paparazziProto1/var/MYAC/ap/actuators.o
 .comment       0x00000000       0x3d /home/lionel/paparazziProto1/var/MYAC/ap/subsystems/radio_control.o
 .comment       0x00000000       0x3d /home/lionel/paparazziProto1/var/MYAC/ap/subsystems/radio_control/ppm.o
 .comment       0x00000000       0x3d /home/lionel/paparazziProto1/var/MYAC/ap/arch/lpc21/subsystems/radio_control/ppm_arch.o
 .comment       0x00000000       0x3d /home/lionel/paparazziProto1/var/MYAC/ap/subsystems/datalink/downlink.o
 .comment       0x00000000       0x3d /home/lionel/paparazziProto1/var/MYAC/ap/subsystems/datalink/xbee.o
 .comment       0x00000000       0x3d /home/lionel/paparazziProto1/var/MYAC/ap/firmwares/fixedwing/datalink.o
 .comment       0x00000000       0x3d /home/lionel/paparazziProto1/var/MYAC/ap/firmwares/fixedwing/stabilization/stabilization_attitude.o
 .comment       0x00000000       0x3d /home/lionel/paparazziProto1/var/MYAC/ap/firmwares/fixedwing/guidance/guidance_v.o
 .comment       0x00000000       0x3d /home/lionel/paparazziProto1/var/MYAC/ap/subsystems/imu.o
 .comment       0x00000000       0x3d /home/lionel/paparazziProto1/var/MYAC/ap/subsystems/imu/imu_analog.o
 .comment       0x00000000       0x3d /home/lionel/paparazziProto1/var/MYAC/ap/subsystems/ahrs.o
 .comment       0x00000000       0x3d /home/lionel/paparazziProto1/var/MYAC/ap/subsystems/ahrs/ahrs_infrared.o
 .comment       0x00000000       0x3d /home/lionel/paparazziProto1/var/MYAC/ap/subsystems/gps/gps_ubx.o
 .comment       0x00000000       0x3d /home/lionel/paparazziProto1/var/MYAC/ap/subsystems/gps.o
 .comment       0x00000000       0x3d /home/lionel/paparazziProto1/var/MYAC/ap/subsystems/nav.o
 .comment       0x00000000       0x3d /home/lionel/paparazziProto1/var/MYAC/ap/subsystems/navigation/common_flight_plan.o
 .comment       0x00000000       0x3d /home/lionel/paparazziProto1/var/MYAC/ap/subsystems/navigation/traffic_info.o
 .comment       0x00000000       0x3d /home/lionel/paparazziProto1/var/MYAC/ap/subsystems/navigation/nav_survey_rectangle.o
 .comment       0x00000000       0x3d /home/lionel/paparazziProto1/var/MYAC/ap/subsystems/navigation/nav_line.o
 .comment       0x00000000       0x3d /home/lionel/paparazziProto1/var/MYAC/ap/modules/openlog/openlog.o
 .comment       0x00000000       0x3d /home/lionel/paparazziProto1/var/MYAC/ap/subsystems/sensors/infrared.o
 .comment       0x00000000       0x3d /home/lionel/paparazziProto1/var/MYAC/ap/subsystems/sensors/infrared_adc.o
 .comment       0x00000000       0x3d /home/lionel/paparazziProto1/var/MYAC/ap/modules/digital_cam/servo_cam_ctrl.o
 .comment       0x00000000       0x3d /home/lionel/paparazziProto1/var/MYAC/ap/modules/digital_cam/dc.o
 .comment       0x00000000       0x3d /opt/paparazzi/arm-multilib/lib/gcc/arm-none-eabi/4.6.2/../../../../arm-none-eabi/lib/thumb/libm.a(lib_a-s_atan.o)
 .comment       0x00000000       0x3d /opt/paparazzi/arm-multilib/lib/gcc/arm-none-eabi/4.6.2/../../../../arm-none-eabi/lib/thumb/libm.a(lib_a-s_cos.o)
 .comment       0x00000000       0x3d /opt/paparazzi/arm-multilib/lib/gcc/arm-none-eabi/4.6.2/../../../../arm-none-eabi/lib/thumb/libm.a(lib_a-s_fabs.o)
 .comment       0x00000000       0x3d /opt/paparazzi/arm-multilib/lib/gcc/arm-none-eabi/4.6.2/../../../../arm-none-eabi/lib/thumb/libm.a(lib_a-s_rint.o)
 .comment       0x00000000       0x3d /opt/paparazzi/arm-multilib/lib/gcc/arm-none-eabi/4.6.2/../../../../arm-none-eabi/lib/thumb/libm.a(lib_a-s_sin.o)
 .comment       0x00000000       0x3d /opt/paparazzi/arm-multilib/lib/gcc/arm-none-eabi/4.6.2/../../../../arm-none-eabi/lib/thumb/libm.a(lib_a-s_tan.o)
 .comment       0x00000000       0x3d /opt/paparazzi/arm-multilib/lib/gcc/arm-none-eabi/4.6.2/../../../../arm-none-eabi/lib/thumb/libm.a(lib_a-sf_atan.o)
 .comment       0x00000000       0x3d /opt/paparazzi/arm-multilib/lib/gcc/arm-none-eabi/4.6.2/../../../../arm-none-eabi/lib/thumb/libm.a(lib_a-sf_cos.o)
 .comment       0x00000000       0x3d /opt/paparazzi/arm-multilib/lib/gcc/arm-none-eabi/4.6.2/../../../../arm-none-eabi/lib/thumb/libm.a(lib_a-sf_fabs.o)
 .comment       0x00000000       0x3d /opt/paparazzi/arm-multilib/lib/gcc/arm-none-eabi/4.6.2/../../../../arm-none-eabi/lib/thumb/libm.a(lib_a-sf_floor.o)
 .comment       0x00000000       0x3d /opt/paparazzi/arm-multilib/lib/gcc/arm-none-eabi/4.6.2/../../../../arm-none-eabi/lib/thumb/libm.a(lib_a-sf_fmax.o)
 .comment       0x00000000       0x3d /opt/paparazzi/arm-multilib/lib/gcc/arm-none-eabi/4.6.2/../../../../arm-none-eabi/lib/thumb/libm.a(lib_a-sf_fmin.o)
 .comment       0x00000000       0x3d /opt/paparazzi/arm-multilib/lib/gcc/arm-none-eabi/4.6.2/../../../../arm-none-eabi/lib/thumb/libm.a(lib_a-sf_fpclassify.o)
 .comment       0x00000000       0x3d /opt/paparazzi/arm-multilib/lib/gcc/arm-none-eabi/4.6.2/../../../../arm-none-eabi/lib/thumb/libm.a(lib_a-sf_sin.o)
 .comment       0x00000000       0x3d /opt/paparazzi/arm-multilib/lib/gcc/arm-none-eabi/4.6.2/../../../../arm-none-eabi/lib/thumb/libm.a(lib_a-w_asin.o)
 .comment       0x00000000       0x3d /opt/paparazzi/arm-multilib/lib/gcc/arm-none-eabi/4.6.2/../../../../arm-none-eabi/lib/thumb/libm.a(lib_a-w_atan2.o)
 .comment       0x00000000       0x3d /opt/paparazzi/arm-multilib/lib/gcc/arm-none-eabi/4.6.2/../../../../arm-none-eabi/lib/thumb/libm.a(lib_a-w_cosh.o)
 .comment       0x00000000       0x3d /opt/paparazzi/arm-multilib/lib/gcc/arm-none-eabi/4.6.2/../../../../arm-none-eabi/lib/thumb/libm.a(lib_a-w_exp.o)
 .comment       0x00000000       0x3d /opt/paparazzi/arm-multilib/lib/gcc/arm-none-eabi/4.6.2/../../../../arm-none-eabi/lib/thumb/libm.a(lib_a-w_log.o)
 .comment       0x00000000       0x3d /opt/paparazzi/arm-multilib/lib/gcc/arm-none-eabi/4.6.2/../../../../arm-none-eabi/lib/thumb/libm.a(lib_a-w_pow.o)
 .comment       0x00000000       0x3d /opt/paparazzi/arm-multilib/lib/gcc/arm-none-eabi/4.6.2/../../../../arm-none-eabi/lib/thumb/libm.a(lib_a-w_sinh.o)
 .comment       0x00000000       0x3d /opt/paparazzi/arm-multilib/lib/gcc/arm-none-eabi/4.6.2/../../../../arm-none-eabi/lib/thumb/libm.a(lib_a-w_sqrt.o)
 .comment       0x00000000       0x3d /opt/paparazzi/arm-multilib/lib/gcc/arm-none-eabi/4.6.2/../../../../arm-none-eabi/lib/thumb/libm.a(lib_a-wf_asin.o)
 .comment       0x00000000       0x3d /opt/paparazzi/arm-multilib/lib/gcc/arm-none-eabi/4.6.2/../../../../arm-none-eabi/lib/thumb/libm.a(lib_a-wf_atan2.o)
 .comment       0x00000000       0x3d /opt/paparazzi/arm-multilib/lib/gcc/arm-none-eabi/4.6.2/../../../../arm-none-eabi/lib/thumb/libm.a(lib_a-wf_fmod.o)
 .comment       0x00000000       0x3d /opt/paparazzi/arm-multilib/lib/gcc/arm-none-eabi/4.6.2/../../../../arm-none-eabi/lib/thumb/libm.a(lib_a-wf_pow.o)
 .comment       0x00000000       0x3d /opt/paparazzi/arm-multilib/lib/gcc/arm-none-eabi/4.6.2/../../../../arm-none-eabi/lib/thumb/libm.a(lib_a-wf_sqrt.o)
 .comment       0x00000000       0x3d /opt/paparazzi/arm-multilib/lib/gcc/arm-none-eabi/4.6.2/../../../../arm-none-eabi/lib/thumb/libm.a(lib_a-e_asin.o)
 .comment       0x00000000       0x3d /opt/paparazzi/arm-multilib/lib/gcc/arm-none-eabi/4.6.2/../../../../arm-none-eabi/lib/thumb/libm.a(lib_a-e_atan2.o)
 .comment       0x00000000       0x3d /opt/paparazzi/arm-multilib/lib/gcc/arm-none-eabi/4.6.2/../../../../arm-none-eabi/lib/thumb/libm.a(lib_a-e_cosh.o)
 .comment       0x00000000       0x3d /opt/paparazzi/arm-multilib/lib/gcc/arm-none-eabi/4.6.2/../../../../arm-none-eabi/lib/thumb/libm.a(lib_a-e_exp.o)
 .comment       0x00000000       0x3d /opt/paparazzi/arm-multilib/lib/gcc/arm-none-eabi/4.6.2/../../../../arm-none-eabi/lib/thumb/libm.a(lib_a-e_log.o)
 .comment       0x00000000       0x3d /opt/paparazzi/arm-multilib/lib/gcc/arm-none-eabi/4.6.2/../../../../arm-none-eabi/lib/thumb/libm.a(lib_a-e_pow.o)
 .comment       0x00000000       0x3d /opt/paparazzi/arm-multilib/lib/gcc/arm-none-eabi/4.6.2/../../../../arm-none-eabi/lib/thumb/libm.a(lib_a-e_rem_pio2.o)
 .comment       0x00000000       0x3d /opt/paparazzi/arm-multilib/lib/gcc/arm-none-eabi/4.6.2/../../../../arm-none-eabi/lib/thumb/libm.a(lib_a-e_sinh.o)
 .comment       0x00000000       0x3d /opt/paparazzi/arm-multilib/lib/gcc/arm-none-eabi/4.6.2/../../../../arm-none-eabi/lib/thumb/libm.a(lib_a-e_sqrt.o)
 .comment       0x00000000       0x3d /opt/paparazzi/arm-multilib/lib/gcc/arm-none-eabi/4.6.2/../../../../arm-none-eabi/lib/thumb/libm.a(lib_a-ef_asin.o)
 .comment       0x00000000       0x3d /opt/paparazzi/arm-multilib/lib/gcc/arm-none-eabi/4.6.2/../../../../arm-none-eabi/lib/thumb/libm.a(lib_a-ef_atan2.o)
 .comment       0x00000000       0x3d /opt/paparazzi/arm-multilib/lib/gcc/arm-none-eabi/4.6.2/../../../../arm-none-eabi/lib/thumb/libm.a(lib_a-ef_fmod.o)
 .comment       0x00000000       0x3d /opt/paparazzi/arm-multilib/lib/gcc/arm-none-eabi/4.6.2/../../../../arm-none-eabi/lib/thumb/libm.a(lib_a-ef_pow.o)
 .comment       0x00000000       0x3d /opt/paparazzi/arm-multilib/lib/gcc/arm-none-eabi/4.6.2/../../../../arm-none-eabi/lib/thumb/libm.a(lib_a-ef_rem_pio2.o)
 .comment       0x00000000       0x3d /opt/paparazzi/arm-multilib/lib/gcc/arm-none-eabi/4.6.2/../../../../arm-none-eabi/lib/thumb/libm.a(lib_a-ef_sqrt.o)
 .comment       0x00000000       0x3d /opt/paparazzi/arm-multilib/lib/gcc/arm-none-eabi/4.6.2/../../../../arm-none-eabi/lib/thumb/libm.a(lib_a-k_cos.o)
 .comment       0x00000000       0x3d /opt/paparazzi/arm-multilib/lib/gcc/arm-none-eabi/4.6.2/../../../../arm-none-eabi/lib/thumb/libm.a(lib_a-k_rem_pio2.o)
 .comment       0x00000000       0x3d /opt/paparazzi/arm-multilib/lib/gcc/arm-none-eabi/4.6.2/../../../../arm-none-eabi/lib/thumb/libm.a(lib_a-k_sin.o)
 .comment       0x00000000       0x3d /opt/paparazzi/arm-multilib/lib/gcc/arm-none-eabi/4.6.2/../../../../arm-none-eabi/lib/thumb/libm.a(lib_a-k_tan.o)
 .comment       0x00000000       0x3d /opt/paparazzi/arm-multilib/lib/gcc/arm-none-eabi/4.6.2/../../../../arm-none-eabi/lib/thumb/libm.a(lib_a-kf_cos.o)
 .comment       0x00000000       0x3d /opt/paparazzi/arm-multilib/lib/gcc/arm-none-eabi/4.6.2/../../../../arm-none-eabi/lib/thumb/libm.a(lib_a-kf_rem_pio2.o)
 .comment       0x00000000       0x3d /opt/paparazzi/arm-multilib/lib/gcc/arm-none-eabi/4.6.2/../../../../arm-none-eabi/lib/thumb/libm.a(lib_a-kf_sin.o)
 .comment       0x00000000       0x3d /opt/paparazzi/arm-multilib/lib/gcc/arm-none-eabi/4.6.2/../../../../arm-none-eabi/lib/thumb/libm.a(lib_a-s_expm1.o)
 .comment       0x00000000       0x3d /opt/paparazzi/arm-multilib/lib/gcc/arm-none-eabi/4.6.2/../../../../arm-none-eabi/lib/thumb/libm.a(lib_a-s_finite.o)
 .comment       0x00000000       0x3d /opt/paparazzi/arm-multilib/lib/gcc/arm-none-eabi/4.6.2/../../../../arm-none-eabi/lib/thumb/libm.a(lib_a-s_floor.o)
 .comment       0x00000000       0x3d /opt/paparazzi/arm-multilib/lib/gcc/arm-none-eabi/4.6.2/../../../../arm-none-eabi/lib/thumb/libm.a(lib_a-s_fpclassify.o)
 .comment       0x00000000       0x3d /opt/paparazzi/arm-multilib/lib/gcc/arm-none-eabi/4.6.2/../../../../arm-none-eabi/lib/thumb/libm.a(lib_a-s_lib_ver.o)
 .comment       0x00000000       0x3d /opt/paparazzi/arm-multilib/lib/gcc/arm-none-eabi/4.6.2/../../../../arm-none-eabi/lib/thumb/libm.a(lib_a-s_matherr.o)
 .comment       0x00000000       0x3d /opt/paparazzi/arm-multilib/lib/gcc/arm-none-eabi/4.6.2/../../../../arm-none-eabi/lib/thumb/libm.a(lib_a-s_nan.o)
 .comment       0x00000000       0x3d /opt/paparazzi/arm-multilib/lib/gcc/arm-none-eabi/4.6.2/../../../../arm-none-eabi/lib/thumb/libm.a(lib_a-s_scalbn.o)
 .comment       0x00000000       0x3d /opt/paparazzi/arm-multilib/lib/gcc/arm-none-eabi/4.6.2/../../../../arm-none-eabi/lib/thumb/libm.a(lib_a-sf_finite.o)
 .comment       0x00000000       0x3d /opt/paparazzi/arm-multilib/lib/gcc/arm-none-eabi/4.6.2/../../../../arm-none-eabi/lib/thumb/libm.a(lib_a-sf_nan.o)
 .comment       0x00000000       0x3d /opt/paparazzi/arm-multilib/lib/gcc/arm-none-eabi/4.6.2/../../../../arm-none-eabi/lib/thumb/libm.a(lib_a-sf_scalbn.o)
 .comment       0x00000000       0x3d /opt/paparazzi/arm-multilib/lib/gcc/arm-none-eabi/4.6.2/../../../../arm-none-eabi/lib/thumb/libm.a(lib_a-s_copysign.o)
 .comment       0x00000000       0x3d /opt/paparazzi/arm-multilib/lib/gcc/arm-none-eabi/4.6.2/../../../../arm-none-eabi/lib/thumb/libm.a(lib_a-sf_copysign.o)
 .comment       0x00000000       0x3d /opt/paparazzi/arm-multilib/lib/gcc/arm-none-eabi/4.6.2/../../../../arm-none-eabi/lib/thumb/libc.a(lib_a-errno.o)
 .comment       0x00000000       0x3d /opt/paparazzi/arm-multilib/lib/gcc/arm-none-eabi/4.6.2/../../../../arm-none-eabi/lib/thumb/libc.a(lib_a-impure.o)

.ARM.attributes
                0x00000000       0x2e
 .ARM.attributes
                0x00000000       0x22 /home/lionel/paparazziProto1/var/MYAC/ap/crt0.o
 .ARM.attributes
                0x00000022       0x32 /home/lionel/paparazziProto1/var/MYAC/ap/mcu.o
 .ARM.attributes
                0x00000054       0x32 /home/lionel/paparazziProto1/var/MYAC/ap/arch/lpc21/mcu_arch.o
 .ARM.attributes
                0x00000086       0x32 /home/lionel/paparazziProto1/var/MYAC/ap/mcu_periph/sys_time.o
 .ARM.attributes
                0x000000b8       0x32 /home/lionel/paparazziProto1/var/MYAC/ap/arch/lpc21/mcu_periph/sys_time_arch.o
 .ARM.attributes
                0x000000ea       0x32 /home/lionel/paparazziProto1/var/MYAC/ap/./inter_mcu.o
 .ARM.attributes
                0x0000011c       0x32 /home/lionel/paparazziProto1/var/MYAC/ap/math/pprz_geodetic_int.o
 .ARM.attributes
                0x0000014e       0x32 /home/lionel/paparazziProto1/var/MYAC/ap/math/pprz_geodetic_float.o
 .ARM.attributes
                0x00000180       0x32 /home/lionel/paparazziProto1/var/MYAC/ap/math/pprz_geodetic_double.o
 .ARM.attributes
                0x000001b2       0x32 /home/lionel/paparazziProto1/var/MYAC/ap/math/pprz_trig_int.o
 .ARM.attributes
                0x000001e4       0x32 /home/lionel/paparazziProto1/var/MYAC/ap/math/pprz_orientation_conversion.o
 .ARM.attributes
                0x00000216       0x32 /home/lionel/paparazziProto1/var/MYAC/ap/mcu_periph/i2c.o
 .ARM.attributes
                0x00000248       0x32 /home/lionel/paparazziProto1/var/MYAC/ap/arch/lpc21/mcu_periph/i2c_arch.o
 .ARM.attributes
                0x0000027a       0x32 /home/lionel/paparazziProto1/var/MYAC/ap/firmwares/fixedwing/main_fbw.o
 .ARM.attributes
                0x000002ac       0x32 /home/lionel/paparazziProto1/var/MYAC/ap/subsystems/electrical.o
 .ARM.attributes
                0x000002de       0x32 /home/lionel/paparazziProto1/var/MYAC/ap/./commands.o
 .ARM.attributes
                0x00000310       0x32 /home/lionel/paparazziProto1/var/MYAC/ap/firmwares/fixedwing/fbw_downlink.o
 .ARM.attributes
                0x00000342       0x32 /home/lionel/paparazziProto1/var/MYAC/ap/firmwares/fixedwing/main_ap.o
 .ARM.attributes
                0x00000374       0x32 /home/lionel/paparazziProto1/var/MYAC/ap/firmwares/fixedwing/ap_downlink.o
 .ARM.attributes
                0x000003a6       0x32 /home/lionel/paparazziProto1/var/MYAC/ap/state.o
 .ARM.attributes
                0x000003d8       0x32 /home/lionel/paparazziProto1/var/MYAC/ap/./subsystems/ins.o
 .ARM.attributes
                0x0000040a       0x32 /home/lionel/paparazziProto1/var/MYAC/ap/./subsystems/ins/ins_alt_float.o
 .ARM.attributes
                0x0000043c       0x32 /home/lionel/paparazziProto1/var/MYAC/ap/arch/lpc21/armVIC.o
 .ARM.attributes
                0x0000046e       0x32 /home/lionel/paparazziProto1/var/MYAC/ap/firmwares/fixedwing/main.o
 .ARM.attributes
                0x000004a0       0x32 /home/lionel/paparazziProto1/var/MYAC/ap/mcu_periph/uart.o
 .ARM.attributes
                0x000004d2       0x32 /home/lionel/paparazziProto1/var/MYAC/ap/arch/lpc21/mcu_periph/uart_arch.o
 .ARM.attributes
                0x00000504       0x32 /home/lionel/paparazziProto1/var/MYAC/ap/subsystems/settings.o
 .ARM.attributes
                0x00000536       0x32 /home/lionel/paparazziProto1/var/MYAC/ap/arch/lpc21/subsystems/settings_arch.o
 .ARM.attributes
                0x00000568       0x32 /home/lionel/paparazziProto1/var/MYAC/ap/arch/lpc21/mcu_periph/adc_arch.o
 .ARM.attributes
                0x0000059a       0x32 /home/lionel/paparazziProto1/var/MYAC/ap/arch/lpc21/servos_4015_MAT_hw.o
 .ARM.attributes
                0x000005cc       0x32 /home/lionel/paparazziProto1/var/MYAC/ap/actuators.o
 .ARM.attributes
                0x000005fe       0x32 /home/lionel/paparazziProto1/var/MYAC/ap/subsystems/radio_control.o
 .ARM.attributes
                0x00000630       0x32 /home/lionel/paparazziProto1/var/MYAC/ap/subsystems/radio_control/ppm.o
 .ARM.attributes
                0x00000662       0x32 /home/lionel/paparazziProto1/var/MYAC/ap/arch/lpc21/subsystems/radio_control/ppm_arch.o
 .ARM.attributes
                0x00000694       0x32 /home/lionel/paparazziProto1/var/MYAC/ap/subsystems/datalink/downlink.o
 .ARM.attributes
                0x000006c6       0x32 /home/lionel/paparazziProto1/var/MYAC/ap/subsystems/datalink/xbee.o
 .ARM.attributes
                0x000006f8       0x32 /home/lionel/paparazziProto1/var/MYAC/ap/firmwares/fixedwing/datalink.o
 .ARM.attributes
                0x0000072a       0x32 /home/lionel/paparazziProto1/var/MYAC/ap/firmwares/fixedwing/stabilization/stabilization_attitude.o
 .ARM.attributes
                0x0000075c       0x32 /home/lionel/paparazziProto1/var/MYAC/ap/firmwares/fixedwing/guidance/guidance_v.o
 .ARM.attributes
                0x0000078e       0x32 /home/lionel/paparazziProto1/var/MYAC/ap/subsystems/imu.o
 .ARM.attributes
                0x000007c0       0x32 /home/lionel/paparazziProto1/var/MYAC/ap/subsystems/imu/imu_analog.o
 .ARM.attributes
                0x000007f2       0x32 /home/lionel/paparazziProto1/var/MYAC/ap/subsystems/ahrs.o
 .ARM.attributes
                0x00000824       0x32 /home/lionel/paparazziProto1/var/MYAC/ap/subsystems/ahrs/ahrs_infrared.o
 .ARM.attributes
                0x00000856       0x32 /home/lionel/paparazziProto1/var/MYAC/ap/subsystems/gps/gps_ubx.o
 .ARM.attributes
                0x00000888       0x32 /home/lionel/paparazziProto1/var/MYAC/ap/subsystems/gps.o
 .ARM.attributes
                0x000008ba       0x32 /home/lionel/paparazziProto1/var/MYAC/ap/subsystems/nav.o
 .ARM.attributes
                0x000008ec       0x32 /home/lionel/paparazziProto1/var/MYAC/ap/subsystems/navigation/common_flight_plan.o
 .ARM.attributes
                0x0000091e       0x32 /home/lionel/paparazziProto1/var/MYAC/ap/subsystems/navigation/traffic_info.o
 .ARM.attributes
                0x00000950       0x32 /home/lionel/paparazziProto1/var/MYAC/ap/subsystems/navigation/nav_survey_rectangle.o
 .ARM.attributes
                0x00000982       0x32 /home/lionel/paparazziProto1/var/MYAC/ap/subsystems/navigation/nav_line.o
 .ARM.attributes
                0x000009b4       0x32 /home/lionel/paparazziProto1/var/MYAC/ap/modules/openlog/openlog.o
 .ARM.attributes
                0x000009e6       0x32 /home/lionel/paparazziProto1/var/MYAC/ap/subsystems/sensors/infrared.o
 .ARM.attributes
                0x00000a18       0x32 /home/lionel/paparazziProto1/var/MYAC/ap/subsystems/sensors/infrared_adc.o
 .ARM.attributes
                0x00000a4a       0x32 /home/lionel/paparazziProto1/var/MYAC/ap/modules/digital_cam/servo_cam_ctrl.o
 .ARM.attributes
                0x00000a7c       0x32 /home/lionel/paparazziProto1/var/MYAC/ap/modules/digital_cam/dc.o
 .ARM.attributes
                0x00000aae       0x32 /opt/paparazzi/arm-multilib/lib/gcc/arm-none-eabi/4.6.2/../../../../arm-none-eabi/lib/thumb/libm.a(lib_a-s_atan.o)
 .ARM.attributes
                0x00000ae0       0x32 /opt/paparazzi/arm-multilib/lib/gcc/arm-none-eabi/4.6.2/../../../../arm-none-eabi/lib/thumb/libm.a(lib_a-s_cos.o)
 .ARM.attributes
                0x00000b12       0x32 /opt/paparazzi/arm-multilib/lib/gcc/arm-none-eabi/4.6.2/../../../../arm-none-eabi/lib/thumb/libm.a(lib_a-s_fabs.o)
 .ARM.attributes
                0x00000b44       0x32 /opt/paparazzi/arm-multilib/lib/gcc/arm-none-eabi/4.6.2/../../../../arm-none-eabi/lib/thumb/libm.a(lib_a-s_rint.o)
 .ARM.attributes
                0x00000b76       0x32 /opt/paparazzi/arm-multilib/lib/gcc/arm-none-eabi/4.6.2/../../../../arm-none-eabi/lib/thumb/libm.a(lib_a-s_sin.o)
 .ARM.attributes
                0x00000ba8       0x32 /opt/paparazzi/arm-multilib/lib/gcc/arm-none-eabi/4.6.2/../../../../arm-none-eabi/lib/thumb/libm.a(lib_a-s_tan.o)
 .ARM.attributes
                0x00000bda       0x32 /opt/paparazzi/arm-multilib/lib/gcc/arm-none-eabi/4.6.2/../../../../arm-none-eabi/lib/thumb/libm.a(lib_a-sf_atan.o)
 .ARM.attributes
                0x00000c0c       0x32 /opt/paparazzi/arm-multilib/lib/gcc/arm-none-eabi/4.6.2/../../../../arm-none-eabi/lib/thumb/libm.a(lib_a-sf_cos.o)
 .ARM.attributes
                0x00000c3e       0x32 /opt/paparazzi/arm-multilib/lib/gcc/arm-none-eabi/4.6.2/../../../../arm-none-eabi/lib/thumb/libm.a(lib_a-sf_fabs.o)
 .ARM.attributes
                0x00000c70       0x32 /opt/paparazzi/arm-multilib/lib/gcc/arm-none-eabi/4.6.2/../../../../arm-none-eabi/lib/thumb/libm.a(lib_a-sf_floor.o)
 .ARM.attributes
                0x00000ca2       0x32 /opt/paparazzi/arm-multilib/lib/gcc/arm-none-eabi/4.6.2/../../../../arm-none-eabi/lib/thumb/libm.a(lib_a-sf_fmax.o)
 .ARM.attributes
                0x00000cd4       0x32 /opt/paparazzi/arm-multilib/lib/gcc/arm-none-eabi/4.6.2/../../../../arm-none-eabi/lib/thumb/libm.a(lib_a-sf_fmin.o)
 .ARM.attributes
                0x00000d06       0x32 /opt/paparazzi/arm-multilib/lib/gcc/arm-none-eabi/4.6.2/../../../../arm-none-eabi/lib/thumb/libm.a(lib_a-sf_fpclassify.o)
 .ARM.attributes
                0x00000d38       0x32 /opt/paparazzi/arm-multilib/lib/gcc/arm-none-eabi/4.6.2/../../../../arm-none-eabi/lib/thumb/libm.a(lib_a-sf_sin.o)
 .ARM.attributes
                0x00000d6a       0x32 /opt/paparazzi/arm-multilib/lib/gcc/arm-none-eabi/4.6.2/../../../../arm-none-eabi/lib/thumb/libm.a(lib_a-w_asin.o)
 .ARM.attributes
                0x00000d9c       0x32 /opt/paparazzi/arm-multilib/lib/gcc/arm-none-eabi/4.6.2/../../../../arm-none-eabi/lib/thumb/libm.a(lib_a-w_atan2.o)
 .ARM.attributes
                0x00000dce       0x32 /opt/paparazzi/arm-multilib/lib/gcc/arm-none-eabi/4.6.2/../../../../arm-none-eabi/lib/thumb/libm.a(lib_a-w_cosh.o)
 .ARM.attributes
                0x00000e00       0x32 /opt/paparazzi/arm-multilib/lib/gcc/arm-none-eabi/4.6.2/../../../../arm-none-eabi/lib/thumb/libm.a(lib_a-w_exp.o)
 .ARM.attributes
                0x00000e32       0x32 /opt/paparazzi/arm-multilib/lib/gcc/arm-none-eabi/4.6.2/../../../../arm-none-eabi/lib/thumb/libm.a(lib_a-w_log.o)
 .ARM.attributes
                0x00000e64       0x32 /opt/paparazzi/arm-multilib/lib/gcc/arm-none-eabi/4.6.2/../../../../arm-none-eabi/lib/thumb/libm.a(lib_a-w_pow.o)
 .ARM.attributes
                0x00000e96       0x32 /opt/paparazzi/arm-multilib/lib/gcc/arm-none-eabi/4.6.2/../../../../arm-none-eabi/lib/thumb/libm.a(lib_a-w_sinh.o)
 .ARM.attributes
                0x00000ec8       0x32 /opt/paparazzi/arm-multilib/lib/gcc/arm-none-eabi/4.6.2/../../../../arm-none-eabi/lib/thumb/libm.a(lib_a-w_sqrt.o)
 .ARM.attributes
                0x00000efa       0x32 /opt/paparazzi/arm-multilib/lib/gcc/arm-none-eabi/4.6.2/../../../../arm-none-eabi/lib/thumb/libm.a(lib_a-wf_asin.o)
 .ARM.attributes
                0x00000f2c       0x32 /opt/paparazzi/arm-multilib/lib/gcc/arm-none-eabi/4.6.2/../../../../arm-none-eabi/lib/thumb/libm.a(lib_a-wf_atan2.o)
 .ARM.attributes
                0x00000f5e       0x32 /opt/paparazzi/arm-multilib/lib/gcc/arm-none-eabi/4.6.2/../../../../arm-none-eabi/lib/thumb/libm.a(lib_a-wf_fmod.o)
 .ARM.attributes
                0x00000f90       0x32 /opt/paparazzi/arm-multilib/lib/gcc/arm-none-eabi/4.6.2/../../../../arm-none-eabi/lib/thumb/libm.a(lib_a-wf_pow.o)
 .ARM.attributes
                0x00000fc2       0x32 /opt/paparazzi/arm-multilib/lib/gcc/arm-none-eabi/4.6.2/../../../../arm-none-eabi/lib/thumb/libm.a(lib_a-wf_sqrt.o)
 .ARM.attributes
                0x00000ff4       0x32 /opt/paparazzi/arm-multilib/lib/gcc/arm-none-eabi/4.6.2/../../../../arm-none-eabi/lib/thumb/libm.a(lib_a-e_asin.o)
 .ARM.attributes
                0x00001026       0x32 /opt/paparazzi/arm-multilib/lib/gcc/arm-none-eabi/4.6.2/../../../../arm-none-eabi/lib/thumb/libm.a(lib_a-e_atan2.o)
 .ARM.attributes
                0x00001058       0x32 /opt/paparazzi/arm-multilib/lib/gcc/arm-none-eabi/4.6.2/../../../../arm-none-eabi/lib/thumb/libm.a(lib_a-e_cosh.o)
 .ARM.attributes
                0x0000108a       0x32 /opt/paparazzi/arm-multilib/lib/gcc/arm-none-eabi/4.6.2/../../../../arm-none-eabi/lib/thumb/libm.a(lib_a-e_exp.o)
 .ARM.attributes
                0x000010bc       0x32 /opt/paparazzi/arm-multilib/lib/gcc/arm-none-eabi/4.6.2/../../../../arm-none-eabi/lib/thumb/libm.a(lib_a-e_log.o)
 .ARM.attributes
                0x000010ee       0x32 /opt/paparazzi/arm-multilib/lib/gcc/arm-none-eabi/4.6.2/../../../../arm-none-eabi/lib/thumb/libm.a(lib_a-e_pow.o)
 .ARM.attributes
                0x00001120       0x32 /opt/paparazzi/arm-multilib/lib/gcc/arm-none-eabi/4.6.2/../../../../arm-none-eabi/lib/thumb/libm.a(lib_a-e_rem_pio2.o)
 .ARM.attributes
                0x00001152       0x32 /opt/paparazzi/arm-multilib/lib/gcc/arm-none-eabi/4.6.2/../../../../arm-none-eabi/lib/thumb/libm.a(lib_a-e_sinh.o)
 .ARM.attributes
                0x00001184       0x32 /opt/paparazzi/arm-multilib/lib/gcc/arm-none-eabi/4.6.2/../../../../arm-none-eabi/lib/thumb/libm.a(lib_a-e_sqrt.o)
 .ARM.attributes
                0x000011b6       0x32 /opt/paparazzi/arm-multilib/lib/gcc/arm-none-eabi/4.6.2/../../../../arm-none-eabi/lib/thumb/libm.a(lib_a-ef_asin.o)
 .ARM.attributes
                0x000011e8       0x32 /opt/paparazzi/arm-multilib/lib/gcc/arm-none-eabi/4.6.2/../../../../arm-none-eabi/lib/thumb/libm.a(lib_a-ef_atan2.o)
 .ARM.attributes
                0x0000121a       0x32 /opt/paparazzi/arm-multilib/lib/gcc/arm-none-eabi/4.6.2/../../../../arm-none-eabi/lib/thumb/libm.a(lib_a-ef_fmod.o)
 .ARM.attributes
                0x0000124c       0x32 /opt/paparazzi/arm-multilib/lib/gcc/arm-none-eabi/4.6.2/../../../../arm-none-eabi/lib/thumb/libm.a(lib_a-ef_pow.o)
 .ARM.attributes
                0x0000127e       0x32 /opt/paparazzi/arm-multilib/lib/gcc/arm-none-eabi/4.6.2/../../../../arm-none-eabi/lib/thumb/libm.a(lib_a-ef_rem_pio2.o)
 .ARM.attributes
                0x000012b0       0x32 /opt/paparazzi/arm-multilib/lib/gcc/arm-none-eabi/4.6.2/../../../../arm-none-eabi/lib/thumb/libm.a(lib_a-ef_sqrt.o)
 .ARM.attributes
                0x000012e2       0x32 /opt/paparazzi/arm-multilib/lib/gcc/arm-none-eabi/4.6.2/../../../../arm-none-eabi/lib/thumb/libm.a(lib_a-k_cos.o)
 .ARM.attributes
                0x00001314       0x32 /opt/paparazzi/arm-multilib/lib/gcc/arm-none-eabi/4.6.2/../../../../arm-none-eabi/lib/thumb/libm.a(lib_a-k_rem_pio2.o)
 .ARM.attributes
                0x00001346       0x32 /opt/paparazzi/arm-multilib/lib/gcc/arm-none-eabi/4.6.2/../../../../arm-none-eabi/lib/thumb/libm.a(lib_a-k_sin.o)
 .ARM.attributes
                0x00001378       0x32 /opt/paparazzi/arm-multilib/lib/gcc/arm-none-eabi/4.6.2/../../../../arm-none-eabi/lib/thumb/libm.a(lib_a-k_tan.o)
 .ARM.attributes
                0x000013aa       0x32 /opt/paparazzi/arm-multilib/lib/gcc/arm-none-eabi/4.6.2/../../../../arm-none-eabi/lib/thumb/libm.a(lib_a-kf_cos.o)
 .ARM.attributes
                0x000013dc       0x32 /opt/paparazzi/arm-multilib/lib/gcc/arm-none-eabi/4.6.2/../../../../arm-none-eabi/lib/thumb/libm.a(lib_a-kf_rem_pio2.o)
 .ARM.attributes
                0x0000140e       0x32 /opt/paparazzi/arm-multilib/lib/gcc/arm-none-eabi/4.6.2/../../../../arm-none-eabi/lib/thumb/libm.a(lib_a-kf_sin.o)
 .ARM.attributes
                0x00001440       0x32 /opt/paparazzi/arm-multilib/lib/gcc/arm-none-eabi/4.6.2/../../../../arm-none-eabi/lib/thumb/libm.a(lib_a-s_expm1.o)
 .ARM.attributes
                0x00001472       0x32 /opt/paparazzi/arm-multilib/lib/gcc/arm-none-eabi/4.6.2/../../../../arm-none-eabi/lib/thumb/libm.a(lib_a-s_finite.o)
 .ARM.attributes
                0x000014a4       0x32 /opt/paparazzi/arm-multilib/lib/gcc/arm-none-eabi/4.6.2/../../../../arm-none-eabi/lib/thumb/libm.a(lib_a-s_floor.o)
 .ARM.attributes
                0x000014d6       0x32 /opt/paparazzi/arm-multilib/lib/gcc/arm-none-eabi/4.6.2/../../../../arm-none-eabi/lib/thumb/libm.a(lib_a-s_fpclassify.o)
 .ARM.attributes
                0x00001508       0x32 /opt/paparazzi/arm-multilib/lib/gcc/arm-none-eabi/4.6.2/../../../../arm-none-eabi/lib/thumb/libm.a(lib_a-s_lib_ver.o)
 .ARM.attributes
                0x0000153a       0x32 /opt/paparazzi/arm-multilib/lib/gcc/arm-none-eabi/4.6.2/../../../../arm-none-eabi/lib/thumb/libm.a(lib_a-s_matherr.o)
 .ARM.attributes
                0x0000156c       0x32 /opt/paparazzi/arm-multilib/lib/gcc/arm-none-eabi/4.6.2/../../../../arm-none-eabi/lib/thumb/libm.a(lib_a-s_nan.o)
 .ARM.attributes
                0x0000159e       0x32 /opt/paparazzi/arm-multilib/lib/gcc/arm-none-eabi/4.6.2/../../../../arm-none-eabi/lib/thumb/libm.a(lib_a-s_scalbn.o)
 .ARM.attributes
                0x000015d0       0x32 /opt/paparazzi/arm-multilib/lib/gcc/arm-none-eabi/4.6.2/../../../../arm-none-eabi/lib/thumb/libm.a(lib_a-sf_finite.o)
 .ARM.attributes
                0x00001602       0x32 /opt/paparazzi/arm-multilib/lib/gcc/arm-none-eabi/4.6.2/../../../../arm-none-eabi/lib/thumb/libm.a(lib_a-sf_nan.o)
 .ARM.attributes
                0x00001634       0x32 /opt/paparazzi/arm-multilib/lib/gcc/arm-none-eabi/4.6.2/../../../../arm-none-eabi/lib/thumb/libm.a(lib_a-sf_scalbn.o)
 .ARM.attributes
                0x00001666       0x32 /opt/paparazzi/arm-multilib/lib/gcc/arm-none-eabi/4.6.2/../../../../arm-none-eabi/lib/thumb/libm.a(lib_a-s_copysign.o)
 .ARM.attributes
                0x00001698       0x32 /opt/paparazzi/arm-multilib/lib/gcc/arm-none-eabi/4.6.2/../../../../arm-none-eabi/lib/thumb/libm.a(lib_a-sf_copysign.o)
 .ARM.attributes
                0x000016ca       0x32 /opt/paparazzi/arm-multilib/lib/gcc/arm-none-eabi/4.6.2/../../../../arm-none-eabi/lib/thumb/libc.a(lib_a-errno.o)
 .ARM.attributes
                0x000016fc       0x32 /opt/paparazzi/arm-multilib/lib/gcc/arm-none-eabi/4.6.2/../../../../arm-none-eabi/lib/thumb/libc.a(lib_a-impure.o)
 .ARM.attributes
                0x0000172e       0x18 /opt/paparazzi/arm-multilib/lib/gcc/arm-none-eabi/4.6.2/thumb/libgcc.a(_thumb1_case_uqi.o)
 .ARM.attributes
                0x00001746       0x1a /opt/paparazzi/arm-multilib/lib/gcc/arm-none-eabi/4.6.2/thumb/libgcc.a(_udivsi3.o)
 .ARM.attributes
                0x00001760       0x1a /opt/paparazzi/arm-multilib/lib/gcc/arm-none-eabi/4.6.2/thumb/libgcc.a(_divsi3.o)
 .ARM.attributes
                0x0000177a       0x18 /opt/paparazzi/arm-multilib/lib/gcc/arm-none-eabi/4.6.2/thumb/libgcc.a(_dvmd_tls.o)
 .ARM.attributes
                0x00001792       0x1a /opt/paparazzi/arm-multilib/lib/gcc/arm-none-eabi/4.6.2/thumb/libgcc.a(_arm_addsubdf3.o)
 .ARM.attributes
                0x000017ac       0x1a /opt/paparazzi/arm-multilib/lib/gcc/arm-none-eabi/4.6.2/thumb/libgcc.a(_arm_muldivdf3.o)
 .ARM.attributes
                0x000017c6       0x1a /opt/paparazzi/arm-multilib/lib/gcc/arm-none-eabi/4.6.2/thumb/libgcc.a(_arm_cmpdf2.o)
 .ARM.attributes
                0x000017e0       0x1a /opt/paparazzi/arm-multilib/lib/gcc/arm-none-eabi/4.6.2/thumb/libgcc.a(_arm_fixdfsi.o)
 .ARM.attributes
                0x000017fa       0x1a /opt/paparazzi/arm-multilib/lib/gcc/arm-none-eabi/4.6.2/thumb/libgcc.a(_arm_fixunsdfsi.o)
 .ARM.attributes
                0x00001814       0x1a /opt/paparazzi/arm-multilib/lib/gcc/arm-none-eabi/4.6.2/thumb/libgcc.a(_arm_truncdfsf2.o)
 .ARM.attributes
                0x0000182e       0x1a /opt/paparazzi/arm-multilib/lib/gcc/arm-none-eabi/4.6.2/thumb/libgcc.a(_arm_addsubsf3.o)
 .ARM.attributes
                0x00001848       0x1a /opt/paparazzi/arm-multilib/lib/gcc/arm-none-eabi/4.6.2/thumb/libgcc.a(_arm_muldivsf3.o)
 .ARM.attributes
                0x00001862       0x1a /opt/paparazzi/arm-multilib/lib/gcc/arm-none-eabi/4.6.2/thumb/libgcc.a(_arm_cmpsf2.o)
 .ARM.attributes
                0x0000187c       0x1a /opt/paparazzi/arm-multilib/lib/gcc/arm-none-eabi/4.6.2/thumb/libgcc.a(_arm_fixsfsi.o)
 .ARM.attributes
                0x00001896       0x1a /opt/paparazzi/arm-multilib/lib/gcc/arm-none-eabi/4.6.2/thumb/libgcc.a(_arm_fixunssfsi.o)

.debug
 *(.debug)

.line
 *(.line)

.debug_srcinfo
 *(.debug_srcinfo)

.debug_sfnames
 *(.debug_sfnames)

.debug_aranges  0x00000000      0x9a0
 *(.debug_aranges)
 .debug_aranges
                0x00000000       0x20 /opt/paparazzi/arm-multilib/lib/gcc/arm-none-eabi/4.6.2/../../../../arm-none-eabi/lib/thumb/libm.a(lib_a-s_atan.o)
 .debug_aranges
                0x00000020       0x20 /opt/paparazzi/arm-multilib/lib/gcc/arm-none-eabi/4.6.2/../../../../arm-none-eabi/lib/thumb/libm.a(lib_a-s_cos.o)
 .debug_aranges
                0x00000040       0x20 /opt/paparazzi/arm-multilib/lib/gcc/arm-none-eabi/4.6.2/../../../../arm-none-eabi/lib/thumb/libm.a(lib_a-s_fabs.o)
 .debug_aranges
                0x00000060       0x20 /opt/paparazzi/arm-multilib/lib/gcc/arm-none-eabi/4.6.2/../../../../arm-none-eabi/lib/thumb/libm.a(lib_a-s_rint.o)
 .debug_aranges
                0x00000080       0x20 /opt/paparazzi/arm-multilib/lib/gcc/arm-none-eabi/4.6.2/../../../../arm-none-eabi/lib/thumb/libm.a(lib_a-s_sin.o)
 .debug_aranges
                0x000000a0       0x20 /opt/paparazzi/arm-multilib/lib/gcc/arm-none-eabi/4.6.2/../../../../arm-none-eabi/lib/thumb/libm.a(lib_a-s_tan.o)
 .debug_aranges
                0x000000c0       0x20 /opt/paparazzi/arm-multilib/lib/gcc/arm-none-eabi/4.6.2/../../../../arm-none-eabi/lib/thumb/libm.a(lib_a-sf_atan.o)
 .debug_aranges
                0x000000e0       0x20 /opt/paparazzi/arm-multilib/lib/gcc/arm-none-eabi/4.6.2/../../../../arm-none-eabi/lib/thumb/libm.a(lib_a-sf_cos.o)
 .debug_aranges
                0x00000100       0x20 /opt/paparazzi/arm-multilib/lib/gcc/arm-none-eabi/4.6.2/../../../../arm-none-eabi/lib/thumb/libm.a(lib_a-sf_fabs.o)
 .debug_aranges
                0x00000120       0x20 /opt/paparazzi/arm-multilib/lib/gcc/arm-none-eabi/4.6.2/../../../../arm-none-eabi/lib/thumb/libm.a(lib_a-sf_floor.o)
 .debug_aranges
                0x00000140       0x20 /opt/paparazzi/arm-multilib/lib/gcc/arm-none-eabi/4.6.2/../../../../arm-none-eabi/lib/thumb/libm.a(lib_a-sf_fmax.o)
 .debug_aranges
                0x00000160       0x20 /opt/paparazzi/arm-multilib/lib/gcc/arm-none-eabi/4.6.2/../../../../arm-none-eabi/lib/thumb/libm.a(lib_a-sf_fmin.o)
 .debug_aranges
                0x00000180       0x20 /opt/paparazzi/arm-multilib/lib/gcc/arm-none-eabi/4.6.2/../../../../arm-none-eabi/lib/thumb/libm.a(lib_a-sf_fpclassify.o)
 .debug_aranges
                0x000001a0       0x20 /opt/paparazzi/arm-multilib/lib/gcc/arm-none-eabi/4.6.2/../../../../arm-none-eabi/lib/thumb/libm.a(lib_a-sf_sin.o)
 .debug_aranges
                0x000001c0       0x20 /opt/paparazzi/arm-multilib/lib/gcc/arm-none-eabi/4.6.2/../../../../arm-none-eabi/lib/thumb/libm.a(lib_a-w_asin.o)
 .debug_aranges
                0x000001e0       0x20 /opt/paparazzi/arm-multilib/lib/gcc/arm-none-eabi/4.6.2/../../../../arm-none-eabi/lib/thumb/libm.a(lib_a-w_atan2.o)
 .debug_aranges
                0x00000200       0x20 /opt/paparazzi/arm-multilib/lib/gcc/arm-none-eabi/4.6.2/../../../../arm-none-eabi/lib/thumb/libm.a(lib_a-w_cosh.o)
 .debug_aranges
                0x00000220       0x20 /opt/paparazzi/arm-multilib/lib/gcc/arm-none-eabi/4.6.2/../../../../arm-none-eabi/lib/thumb/libm.a(lib_a-w_exp.o)
 .debug_aranges
                0x00000240       0x20 /opt/paparazzi/arm-multilib/lib/gcc/arm-none-eabi/4.6.2/../../../../arm-none-eabi/lib/thumb/libm.a(lib_a-w_log.o)
 .debug_aranges
                0x00000260       0x20 /opt/paparazzi/arm-multilib/lib/gcc/arm-none-eabi/4.6.2/../../../../arm-none-eabi/lib/thumb/libm.a(lib_a-w_pow.o)
 .debug_aranges
                0x00000280       0x20 /opt/paparazzi/arm-multilib/lib/gcc/arm-none-eabi/4.6.2/../../../../arm-none-eabi/lib/thumb/libm.a(lib_a-w_sinh.o)
 .debug_aranges
                0x000002a0       0x20 /opt/paparazzi/arm-multilib/lib/gcc/arm-none-eabi/4.6.2/../../../../arm-none-eabi/lib/thumb/libm.a(lib_a-w_sqrt.o)
 .debug_aranges
                0x000002c0       0x20 /opt/paparazzi/arm-multilib/lib/gcc/arm-none-eabi/4.6.2/../../../../arm-none-eabi/lib/thumb/libm.a(lib_a-wf_asin.o)
 .debug_aranges
                0x000002e0       0x20 /opt/paparazzi/arm-multilib/lib/gcc/arm-none-eabi/4.6.2/../../../../arm-none-eabi/lib/thumb/libm.a(lib_a-wf_atan2.o)
 .debug_aranges
                0x00000300       0x20 /opt/paparazzi/arm-multilib/lib/gcc/arm-none-eabi/4.6.2/../../../../arm-none-eabi/lib/thumb/libm.a(lib_a-wf_fmod.o)
 .debug_aranges
                0x00000320       0x20 /opt/paparazzi/arm-multilib/lib/gcc/arm-none-eabi/4.6.2/../../../../arm-none-eabi/lib/thumb/libm.a(lib_a-wf_pow.o)
 .debug_aranges
                0x00000340       0x20 /opt/paparazzi/arm-multilib/lib/gcc/arm-none-eabi/4.6.2/../../../../arm-none-eabi/lib/thumb/libm.a(lib_a-wf_sqrt.o)
 .debug_aranges
                0x00000360       0x20 /opt/paparazzi/arm-multilib/lib/gcc/arm-none-eabi/4.6.2/../../../../arm-none-eabi/lib/thumb/libm.a(lib_a-e_asin.o)
 .debug_aranges
                0x00000380       0x20 /opt/paparazzi/arm-multilib/lib/gcc/arm-none-eabi/4.6.2/../../../../arm-none-eabi/lib/thumb/libm.a(lib_a-e_atan2.o)
 .debug_aranges
                0x000003a0       0x20 /opt/paparazzi/arm-multilib/lib/gcc/arm-none-eabi/4.6.2/../../../../arm-none-eabi/lib/thumb/libm.a(lib_a-e_cosh.o)
 .debug_aranges
                0x000003c0       0x20 /opt/paparazzi/arm-multilib/lib/gcc/arm-none-eabi/4.6.2/../../../../arm-none-eabi/lib/thumb/libm.a(lib_a-e_exp.o)
 .debug_aranges
                0x000003e0       0x20 /opt/paparazzi/arm-multilib/lib/gcc/arm-none-eabi/4.6.2/../../../../arm-none-eabi/lib/thumb/libm.a(lib_a-e_log.o)
 .debug_aranges
                0x00000400       0x20 /opt/paparazzi/arm-multilib/lib/gcc/arm-none-eabi/4.6.2/../../../../arm-none-eabi/lib/thumb/libm.a(lib_a-e_pow.o)
 .debug_aranges
                0x00000420       0x20 /opt/paparazzi/arm-multilib/lib/gcc/arm-none-eabi/4.6.2/../../../../arm-none-eabi/lib/thumb/libm.a(lib_a-e_rem_pio2.o)
 .debug_aranges
                0x00000440       0x20 /opt/paparazzi/arm-multilib/lib/gcc/arm-none-eabi/4.6.2/../../../../arm-none-eabi/lib/thumb/libm.a(lib_a-e_sinh.o)
 .debug_aranges
                0x00000460       0x20 /opt/paparazzi/arm-multilib/lib/gcc/arm-none-eabi/4.6.2/../../../../arm-none-eabi/lib/thumb/libm.a(lib_a-e_sqrt.o)
 .debug_aranges
                0x00000480       0x20 /opt/paparazzi/arm-multilib/lib/gcc/arm-none-eabi/4.6.2/../../../../arm-none-eabi/lib/thumb/libm.a(lib_a-ef_asin.o)
 .debug_aranges
                0x000004a0       0x20 /opt/paparazzi/arm-multilib/lib/gcc/arm-none-eabi/4.6.2/../../../../arm-none-eabi/lib/thumb/libm.a(lib_a-ef_atan2.o)
 .debug_aranges
                0x000004c0       0x20 /opt/paparazzi/arm-multilib/lib/gcc/arm-none-eabi/4.6.2/../../../../arm-none-eabi/lib/thumb/libm.a(lib_a-ef_fmod.o)
 .debug_aranges
                0x000004e0       0x20 /opt/paparazzi/arm-multilib/lib/gcc/arm-none-eabi/4.6.2/../../../../arm-none-eabi/lib/thumb/libm.a(lib_a-ef_pow.o)
 .debug_aranges
                0x00000500       0x20 /opt/paparazzi/arm-multilib/lib/gcc/arm-none-eabi/4.6.2/../../../../arm-none-eabi/lib/thumb/libm.a(lib_a-ef_rem_pio2.o)
 .debug_aranges
                0x00000520       0x20 /opt/paparazzi/arm-multilib/lib/gcc/arm-none-eabi/4.6.2/../../../../arm-none-eabi/lib/thumb/libm.a(lib_a-ef_sqrt.o)
 .debug_aranges
                0x00000540       0x20 /opt/paparazzi/arm-multilib/lib/gcc/arm-none-eabi/4.6.2/../../../../arm-none-eabi/lib/thumb/libm.a(lib_a-k_cos.o)
 .debug_aranges
                0x00000560       0x20 /opt/paparazzi/arm-multilib/lib/gcc/arm-none-eabi/4.6.2/../../../../arm-none-eabi/lib/thumb/libm.a(lib_a-k_rem_pio2.o)
 .debug_aranges
                0x00000580       0x20 /opt/paparazzi/arm-multilib/lib/gcc/arm-none-eabi/4.6.2/../../../../arm-none-eabi/lib/thumb/libm.a(lib_a-k_sin.o)
 .debug_aranges
                0x000005a0       0x20 /opt/paparazzi/arm-multilib/lib/gcc/arm-none-eabi/4.6.2/../../../../arm-none-eabi/lib/thumb/libm.a(lib_a-k_tan.o)
 .debug_aranges
                0x000005c0       0x20 /opt/paparazzi/arm-multilib/lib/gcc/arm-none-eabi/4.6.2/../../../../arm-none-eabi/lib/thumb/libm.a(lib_a-kf_cos.o)
 .debug_aranges
                0x000005e0       0x20 /opt/paparazzi/arm-multilib/lib/gcc/arm-none-eabi/4.6.2/../../../../arm-none-eabi/lib/thumb/libm.a(lib_a-kf_rem_pio2.o)
 .debug_aranges
                0x00000600       0x20 /opt/paparazzi/arm-multilib/lib/gcc/arm-none-eabi/4.6.2/../../../../arm-none-eabi/lib/thumb/libm.a(lib_a-kf_sin.o)
 .debug_aranges
                0x00000620       0x20 /opt/paparazzi/arm-multilib/lib/gcc/arm-none-eabi/4.6.2/../../../../arm-none-eabi/lib/thumb/libm.a(lib_a-s_expm1.o)
 .debug_aranges
                0x00000640       0x20 /opt/paparazzi/arm-multilib/lib/gcc/arm-none-eabi/4.6.2/../../../../arm-none-eabi/lib/thumb/libm.a(lib_a-s_finite.o)
 .debug_aranges
                0x00000660       0x20 /opt/paparazzi/arm-multilib/lib/gcc/arm-none-eabi/4.6.2/../../../../arm-none-eabi/lib/thumb/libm.a(lib_a-s_floor.o)
 .debug_aranges
                0x00000680       0x20 /opt/paparazzi/arm-multilib/lib/gcc/arm-none-eabi/4.6.2/../../../../arm-none-eabi/lib/thumb/libm.a(lib_a-s_fpclassify.o)
 .debug_aranges
                0x000006a0       0x20 /opt/paparazzi/arm-multilib/lib/gcc/arm-none-eabi/4.6.2/../../../../arm-none-eabi/lib/thumb/libm.a(lib_a-s_matherr.o)
 .debug_aranges
                0x000006c0       0x20 /opt/paparazzi/arm-multilib/lib/gcc/arm-none-eabi/4.6.2/../../../../arm-none-eabi/lib/thumb/libm.a(lib_a-s_nan.o)
 .debug_aranges
                0x000006e0       0x20 /opt/paparazzi/arm-multilib/lib/gcc/arm-none-eabi/4.6.2/../../../../arm-none-eabi/lib/thumb/libm.a(lib_a-s_scalbn.o)
 .debug_aranges
                0x00000700       0x20 /opt/paparazzi/arm-multilib/lib/gcc/arm-none-eabi/4.6.2/../../../../arm-none-eabi/lib/thumb/libm.a(lib_a-sf_finite.o)
 .debug_aranges
                0x00000720       0x20 /opt/paparazzi/arm-multilib/lib/gcc/arm-none-eabi/4.6.2/../../../../arm-none-eabi/lib/thumb/libm.a(lib_a-sf_nan.o)
 .debug_aranges
                0x00000740       0x20 /opt/paparazzi/arm-multilib/lib/gcc/arm-none-eabi/4.6.2/../../../../arm-none-eabi/lib/thumb/libm.a(lib_a-sf_scalbn.o)
 .debug_aranges
                0x00000760       0x20 /opt/paparazzi/arm-multilib/lib/gcc/arm-none-eabi/4.6.2/../../../../arm-none-eabi/lib/thumb/libm.a(lib_a-s_copysign.o)
 .debug_aranges
                0x00000780       0x20 /opt/paparazzi/arm-multilib/lib/gcc/arm-none-eabi/4.6.2/../../../../arm-none-eabi/lib/thumb/libm.a(lib_a-sf_copysign.o)
 .debug_aranges
                0x000007a0       0x20 /opt/paparazzi/arm-multilib/lib/gcc/arm-none-eabi/4.6.2/../../../../arm-none-eabi/lib/thumb/libc.a(lib_a-errno.o)
 .debug_aranges
                0x000007c0       0x20 /opt/paparazzi/arm-multilib/lib/gcc/arm-none-eabi/4.6.2/thumb/libgcc.a(_thumb1_case_uqi.o)
 .debug_aranges
                0x000007e0       0x20 /opt/paparazzi/arm-multilib/lib/gcc/arm-none-eabi/4.6.2/thumb/libgcc.a(_udivsi3.o)
 .debug_aranges
                0x00000800       0x20 /opt/paparazzi/arm-multilib/lib/gcc/arm-none-eabi/4.6.2/thumb/libgcc.a(_divsi3.o)
 .debug_aranges
                0x00000820       0x20 /opt/paparazzi/arm-multilib/lib/gcc/arm-none-eabi/4.6.2/thumb/libgcc.a(_dvmd_tls.o)
 .debug_aranges
                0x00000840       0x20 /opt/paparazzi/arm-multilib/lib/gcc/arm-none-eabi/4.6.2/thumb/libgcc.a(_arm_addsubdf3.o)
 .debug_aranges
                0x00000860       0x20 /opt/paparazzi/arm-multilib/lib/gcc/arm-none-eabi/4.6.2/thumb/libgcc.a(_arm_muldivdf3.o)
 .debug_aranges
                0x00000880       0x20 /opt/paparazzi/arm-multilib/lib/gcc/arm-none-eabi/4.6.2/thumb/libgcc.a(_arm_cmpdf2.o)
 .debug_aranges
                0x000008a0       0x20 /opt/paparazzi/arm-multilib/lib/gcc/arm-none-eabi/4.6.2/thumb/libgcc.a(_arm_fixdfsi.o)
 .debug_aranges
                0x000008c0       0x20 /opt/paparazzi/arm-multilib/lib/gcc/arm-none-eabi/4.6.2/thumb/libgcc.a(_arm_fixunsdfsi.o)
 .debug_aranges
                0x000008e0       0x20 /opt/paparazzi/arm-multilib/lib/gcc/arm-none-eabi/4.6.2/thumb/libgcc.a(_arm_truncdfsf2.o)
 .debug_aranges
                0x00000900       0x20 /opt/paparazzi/arm-multilib/lib/gcc/arm-none-eabi/4.6.2/thumb/libgcc.a(_arm_addsubsf3.o)
 .debug_aranges
                0x00000920       0x20 /opt/paparazzi/arm-multilib/lib/gcc/arm-none-eabi/4.6.2/thumb/libgcc.a(_arm_muldivsf3.o)
 .debug_aranges
                0x00000940       0x20 /opt/paparazzi/arm-multilib/lib/gcc/arm-none-eabi/4.6.2/thumb/libgcc.a(_arm_cmpsf2.o)
 .debug_aranges
                0x00000960       0x20 /opt/paparazzi/arm-multilib/lib/gcc/arm-none-eabi/4.6.2/thumb/libgcc.a(_arm_fixsfsi.o)
 .debug_aranges
                0x00000980       0x20 /opt/paparazzi/arm-multilib/lib/gcc/arm-none-eabi/4.6.2/thumb/libgcc.a(_arm_fixunssfsi.o)

.debug_pubnames
 *(.debug_pubnames)

.debug_info     0x00000000     0x8da1
 *(.debug_info .gnu.linkonce.wi.*)
 .debug_info    0x00000000      0x235 /opt/paparazzi/arm-multilib/lib/gcc/arm-none-eabi/4.6.2/../../../../arm-none-eabi/lib/thumb/libm.a(lib_a-s_atan.o)
 .debug_info    0x00000235      0x103 /opt/paparazzi/arm-multilib/lib/gcc/arm-none-eabi/4.6.2/../../../../arm-none-eabi/lib/thumb/libm.a(lib_a-s_cos.o)
 .debug_info    0x00000338      0x136 /opt/paparazzi/arm-multilib/lib/gcc/arm-none-eabi/4.6.2/../../../../arm-none-eabi/lib/thumb/libm.a(lib_a-s_fabs.o)
 .debug_info    0x0000046e      0x208 /opt/paparazzi/arm-multilib/lib/gcc/arm-none-eabi/4.6.2/../../../../arm-none-eabi/lib/thumb/libm.a(lib_a-s_rint.o)
 .debug_info    0x00000676      0x103 /opt/paparazzi/arm-multilib/lib/gcc/arm-none-eabi/4.6.2/../../../../arm-none-eabi/lib/thumb/libm.a(lib_a-s_sin.o)
 .debug_info    0x00000779      0x103 /opt/paparazzi/arm-multilib/lib/gcc/arm-none-eabi/4.6.2/../../../../arm-none-eabi/lib/thumb/libm.a(lib_a-s_tan.o)
 .debug_info    0x0000087c      0x1f1 /opt/paparazzi/arm-multilib/lib/gcc/arm-none-eabi/4.6.2/../../../../arm-none-eabi/lib/thumb/libm.a(lib_a-sf_atan.o)
 .debug_info    0x00000a6d      0x119 /opt/paparazzi/arm-multilib/lib/gcc/arm-none-eabi/4.6.2/../../../../arm-none-eabi/lib/thumb/libm.a(lib_a-sf_cos.o)
 .debug_info    0x00000b86      0x107 /opt/paparazzi/arm-multilib/lib/gcc/arm-none-eabi/4.6.2/../../../../arm-none-eabi/lib/thumb/libm.a(lib_a-sf_fabs.o)
 .debug_info    0x00000c8d      0x15d /opt/paparazzi/arm-multilib/lib/gcc/arm-none-eabi/4.6.2/../../../../arm-none-eabi/lib/thumb/libm.a(lib_a-sf_floor.o)
 .debug_info    0x00000dea       0xbd /opt/paparazzi/arm-multilib/lib/gcc/arm-none-eabi/4.6.2/../../../../arm-none-eabi/lib/thumb/libm.a(lib_a-sf_fmax.o)
 .debug_info    0x00000ea7       0xbd /opt/paparazzi/arm-multilib/lib/gcc/arm-none-eabi/4.6.2/../../../../arm-none-eabi/lib/thumb/libm.a(lib_a-sf_fmin.o)
 .debug_info    0x00000f64       0xc7 /opt/paparazzi/arm-multilib/lib/gcc/arm-none-eabi/4.6.2/../../../../arm-none-eabi/lib/thumb/libm.a(lib_a-sf_fpclassify.o)
 .debug_info    0x0000102b      0x100 /opt/paparazzi/arm-multilib/lib/gcc/arm-none-eabi/4.6.2/../../../../arm-none-eabi/lib/thumb/libm.a(lib_a-sf_sin.o)
 .debug_info    0x0000112b      0x17e /opt/paparazzi/arm-multilib/lib/gcc/arm-none-eabi/4.6.2/../../../../arm-none-eabi/lib/thumb/libm.a(lib_a-w_asin.o)
 .debug_info    0x000012a9       0xbc /opt/paparazzi/arm-multilib/lib/gcc/arm-none-eabi/4.6.2/../../../../arm-none-eabi/lib/thumb/libm.a(lib_a-w_atan2.o)
 .debug_info    0x00001365      0x17e /opt/paparazzi/arm-multilib/lib/gcc/arm-none-eabi/4.6.2/../../../../arm-none-eabi/lib/thumb/libm.a(lib_a-w_cosh.o)
 .debug_info    0x000014e3      0x1ab /opt/paparazzi/arm-multilib/lib/gcc/arm-none-eabi/4.6.2/../../../../arm-none-eabi/lib/thumb/libm.a(lib_a-w_exp.o)
 .debug_info    0x0000168e      0x17e /opt/paparazzi/arm-multilib/lib/gcc/arm-none-eabi/4.6.2/../../../../arm-none-eabi/lib/thumb/libm.a(lib_a-w_log.o)
 .debug_info    0x0000180c      0x18b /opt/paparazzi/arm-multilib/lib/gcc/arm-none-eabi/4.6.2/../../../../arm-none-eabi/lib/thumb/libm.a(lib_a-w_pow.o)
 .debug_info    0x00001997      0x17e /opt/paparazzi/arm-multilib/lib/gcc/arm-none-eabi/4.6.2/../../../../arm-none-eabi/lib/thumb/libm.a(lib_a-w_sinh.o)
 .debug_info    0x00001b15      0x17e /opt/paparazzi/arm-multilib/lib/gcc/arm-none-eabi/4.6.2/../../../../arm-none-eabi/lib/thumb/libm.a(lib_a-w_sqrt.o)
 .debug_info    0x00001c93      0x17f /opt/paparazzi/arm-multilib/lib/gcc/arm-none-eabi/4.6.2/../../../../arm-none-eabi/lib/thumb/libm.a(lib_a-wf_asin.o)
 .debug_info    0x00001e12       0xbd /opt/paparazzi/arm-multilib/lib/gcc/arm-none-eabi/4.6.2/../../../../arm-none-eabi/lib/thumb/libm.a(lib_a-wf_atan2.o)
 .debug_info    0x00001ecf      0x18c /opt/paparazzi/arm-multilib/lib/gcc/arm-none-eabi/4.6.2/../../../../arm-none-eabi/lib/thumb/libm.a(lib_a-wf_fmod.o)
 .debug_info    0x0000205b      0x18c /opt/paparazzi/arm-multilib/lib/gcc/arm-none-eabi/4.6.2/../../../../arm-none-eabi/lib/thumb/libm.a(lib_a-wf_pow.o)
 .debug_info    0x000021e7      0x17f /opt/paparazzi/arm-multilib/lib/gcc/arm-none-eabi/4.6.2/../../../../arm-none-eabi/lib/thumb/libm.a(lib_a-wf_sqrt.o)
 .debug_info    0x00002366      0x326 /opt/paparazzi/arm-multilib/lib/gcc/arm-none-eabi/4.6.2/../../../../arm-none-eabi/lib/thumb/libm.a(lib_a-e_asin.o)
 .debug_info    0x0000268c      0x283 /opt/paparazzi/arm-multilib/lib/gcc/arm-none-eabi/4.6.2/../../../../arm-none-eabi/lib/thumb/libm.a(lib_a-e_atan2.o)
 .debug_info    0x0000290f      0x140 /opt/paparazzi/arm-multilib/lib/gcc/arm-none-eabi/4.6.2/../../../../arm-none-eabi/lib/thumb/libm.a(lib_a-e_cosh.o)
 .debug_info    0x00002a4f      0x32c /opt/paparazzi/arm-multilib/lib/gcc/arm-none-eabi/4.6.2/../../../../arm-none-eabi/lib/thumb/libm.a(lib_a-e_exp.o)
 .debug_info    0x00002d7b      0x2f8 /opt/paparazzi/arm-multilib/lib/gcc/arm-none-eabi/4.6.2/../../../../arm-none-eabi/lib/thumb/libm.a(lib_a-e_log.o)
 .debug_info    0x00003073      0x6b5 /opt/paparazzi/arm-multilib/lib/gcc/arm-none-eabi/4.6.2/../../../../arm-none-eabi/lib/thumb/libm.a(lib_a-e_pow.o)
 .debug_info    0x00003728      0x378 /opt/paparazzi/arm-multilib/lib/gcc/arm-none-eabi/4.6.2/../../../../arm-none-eabi/lib/thumb/libm.a(lib_a-e_rem_pio2.o)
 .debug_info    0x00003aa0      0x147 /opt/paparazzi/arm-multilib/lib/gcc/arm-none-eabi/4.6.2/../../../../arm-none-eabi/lib/thumb/libm.a(lib_a-e_sinh.o)
 .debug_info    0x00003be7      0x22e /opt/paparazzi/arm-multilib/lib/gcc/arm-none-eabi/4.6.2/../../../../arm-none-eabi/lib/thumb/libm.a(lib_a-e_sqrt.o)
 .debug_info    0x00003e15      0x2a5 /opt/paparazzi/arm-multilib/lib/gcc/arm-none-eabi/4.6.2/../../../../arm-none-eabi/lib/thumb/libm.a(lib_a-ef_asin.o)
 .debug_info    0x000040ba      0x1fd /opt/paparazzi/arm-multilib/lib/gcc/arm-none-eabi/4.6.2/../../../../arm-none-eabi/lib/thumb/libm.a(lib_a-ef_atan2.o)
 .debug_info    0x000042b7      0x1c6 /opt/paparazzi/arm-multilib/lib/gcc/arm-none-eabi/4.6.2/../../../../arm-none-eabi/lib/thumb/libm.a(lib_a-ef_fmod.o)
 .debug_info    0x0000447d      0x60b /opt/paparazzi/arm-multilib/lib/gcc/arm-none-eabi/4.6.2/../../../../arm-none-eabi/lib/thumb/libm.a(lib_a-ef_pow.o)
 .debug_info    0x00004a88      0x30c /opt/paparazzi/arm-multilib/lib/gcc/arm-none-eabi/4.6.2/../../../../arm-none-eabi/lib/thumb/libm.a(lib_a-ef_rem_pio2.o)
 .debug_info    0x00004d94      0x1ac /opt/paparazzi/arm-multilib/lib/gcc/arm-none-eabi/4.6.2/../../../../arm-none-eabi/lib/thumb/libm.a(lib_a-ef_sqrt.o)
 .debug_info    0x00004f40      0x219 /opt/paparazzi/arm-multilib/lib/gcc/arm-none-eabi/4.6.2/../../../../arm-none-eabi/lib/thumb/libm.a(lib_a-k_cos.o)
 .debug_info    0x00005159      0x2e3 /opt/paparazzi/arm-multilib/lib/gcc/arm-none-eabi/4.6.2/../../../../arm-none-eabi/lib/thumb/libm.a(lib_a-k_rem_pio2.o)
 .debug_info    0x0000543c      0x194 /opt/paparazzi/arm-multilib/lib/gcc/arm-none-eabi/4.6.2/../../../../arm-none-eabi/lib/thumb/libm.a(lib_a-k_sin.o)
 .debug_info    0x000055d0      0x292 /opt/paparazzi/arm-multilib/lib/gcc/arm-none-eabi/4.6.2/../../../../arm-none-eabi/lib/thumb/libm.a(lib_a-k_tan.o)
 .debug_info    0x00005862      0x183 /opt/paparazzi/arm-multilib/lib/gcc/arm-none-eabi/4.6.2/../../../../arm-none-eabi/lib/thumb/libm.a(lib_a-kf_cos.o)
 .debug_info    0x000059e5      0x2d3 /opt/paparazzi/arm-multilib/lib/gcc/arm-none-eabi/4.6.2/../../../../arm-none-eabi/lib/thumb/libm.a(lib_a-kf_rem_pio2.o)
 .debug_info    0x00005cb8      0x17d /opt/paparazzi/arm-multilib/lib/gcc/arm-none-eabi/4.6.2/../../../../arm-none-eabi/lib/thumb/libm.a(lib_a-kf_sin.o)
 .debug_info    0x00005e35      0x37e /opt/paparazzi/arm-multilib/lib/gcc/arm-none-eabi/4.6.2/../../../../arm-none-eabi/lib/thumb/libm.a(lib_a-s_expm1.o)
 .debug_info    0x000061b3       0xd2 /opt/paparazzi/arm-multilib/lib/gcc/arm-none-eabi/4.6.2/../../../../arm-none-eabi/lib/thumb/libm.a(lib_a-s_finite.o)
 .debug_info    0x00006285      0x1a6 /opt/paparazzi/arm-multilib/lib/gcc/arm-none-eabi/4.6.2/../../../../arm-none-eabi/lib/thumb/libm.a(lib_a-s_floor.o)
 .debug_info    0x0000642b      0x143 /opt/paparazzi/arm-multilib/lib/gcc/arm-none-eabi/4.6.2/../../../../arm-none-eabi/lib/thumb/libm.a(lib_a-s_fpclassify.o)
 .debug_info    0x0000656e       0xc1 /opt/paparazzi/arm-multilib/lib/gcc/arm-none-eabi/4.6.2/../../../../arm-none-eabi/lib/thumb/libm.a(lib_a-s_lib_ver.o)
 .debug_info    0x0000662f      0x131 /opt/paparazzi/arm-multilib/lib/gcc/arm-none-eabi/4.6.2/../../../../arm-none-eabi/lib/thumb/libm.a(lib_a-s_matherr.o)
 .debug_info    0x00006760       0xcd /opt/paparazzi/arm-multilib/lib/gcc/arm-none-eabi/4.6.2/../../../../arm-none-eabi/lib/thumb/libm.a(lib_a-s_nan.o)
 .debug_info    0x0000682d      0x20d /opt/paparazzi/arm-multilib/lib/gcc/arm-none-eabi/4.6.2/../../../../arm-none-eabi/lib/thumb/libm.a(lib_a-s_scalbn.o)
 .debug_info    0x00006a3a       0xc8 /opt/paparazzi/arm-multilib/lib/gcc/arm-none-eabi/4.6.2/../../../../arm-none-eabi/lib/thumb/libm.a(lib_a-sf_finite.o)
 .debug_info    0x00006b02       0xca /opt/paparazzi/arm-multilib/lib/gcc/arm-none-eabi/4.6.2/../../../../arm-none-eabi/lib/thumb/libm.a(lib_a-sf_nan.o)
 .debug_info    0x00006bcc      0x1db /opt/paparazzi/arm-multilib/lib/gcc/arm-none-eabi/4.6.2/../../../../arm-none-eabi/lib/thumb/libm.a(lib_a-sf_scalbn.o)
 .debug_info    0x00006da7      0x151 /opt/paparazzi/arm-multilib/lib/gcc/arm-none-eabi/4.6.2/../../../../arm-none-eabi/lib/thumb/libm.a(lib_a-s_copysign.o)
 .debug_info    0x00006ef8      0x122 /opt/paparazzi/arm-multilib/lib/gcc/arm-none-eabi/4.6.2/../../../../arm-none-eabi/lib/thumb/libm.a(lib_a-sf_copysign.o)
 .debug_info    0x0000701a      0x964 /opt/paparazzi/arm-multilib/lib/gcc/arm-none-eabi/4.6.2/../../../../arm-none-eabi/lib/thumb/libc.a(lib_a-errno.o)
 .debug_info    0x0000797e      0x966 /opt/paparazzi/arm-multilib/lib/gcc/arm-none-eabi/4.6.2/../../../../arm-none-eabi/lib/thumb/libc.a(lib_a-impure.o)
 .debug_info    0x000082e4       0xb8 /opt/paparazzi/arm-multilib/lib/gcc/arm-none-eabi/4.6.2/thumb/libgcc.a(_thumb1_case_uqi.o)
 .debug_info    0x0000839c       0xb8 /opt/paparazzi/arm-multilib/lib/gcc/arm-none-eabi/4.6.2/thumb/libgcc.a(_udivsi3.o)
 .debug_info    0x00008454       0xb8 /opt/paparazzi/arm-multilib/lib/gcc/arm-none-eabi/4.6.2/thumb/libgcc.a(_divsi3.o)
 .debug_info    0x0000850c       0xb8 /opt/paparazzi/arm-multilib/lib/gcc/arm-none-eabi/4.6.2/thumb/libgcc.a(_dvmd_tls.o)
 .debug_info    0x000085c4       0xb7 /opt/paparazzi/arm-multilib/lib/gcc/arm-none-eabi/4.6.2/thumb/libgcc.a(_arm_addsubdf3.o)
 .debug_info    0x0000867b       0xb7 /opt/paparazzi/arm-multilib/lib/gcc/arm-none-eabi/4.6.2/thumb/libgcc.a(_arm_muldivdf3.o)
 .debug_info    0x00008732       0xb7 /opt/paparazzi/arm-multilib/lib/gcc/arm-none-eabi/4.6.2/thumb/libgcc.a(_arm_cmpdf2.o)
 .debug_info    0x000087e9       0xb7 /opt/paparazzi/arm-multilib/lib/gcc/arm-none-eabi/4.6.2/thumb/libgcc.a(_arm_fixdfsi.o)
 .debug_info    0x000088a0       0xb7 /opt/paparazzi/arm-multilib/lib/gcc/arm-none-eabi/4.6.2/thumb/libgcc.a(_arm_fixunsdfsi.o)
 .debug_info    0x00008957       0xb7 /opt/paparazzi/arm-multilib/lib/gcc/arm-none-eabi/4.6.2/thumb/libgcc.a(_arm_truncdfsf2.o)
 .debug_info    0x00008a0e       0xb7 /opt/paparazzi/arm-multilib/lib/gcc/arm-none-eabi/4.6.2/thumb/libgcc.a(_arm_addsubsf3.o)
 .debug_info    0x00008ac5       0xb7 /opt/paparazzi/arm-multilib/lib/gcc/arm-none-eabi/4.6.2/thumb/libgcc.a(_arm_muldivsf3.o)
 .debug_info    0x00008b7c       0xb7 /opt/paparazzi/arm-multilib/lib/gcc/arm-none-eabi/4.6.2/thumb/libgcc.a(_arm_cmpsf2.o)
 .debug_info    0x00008c33       0xb7 /opt/paparazzi/arm-multilib/lib/gcc/arm-none-eabi/4.6.2/thumb/libgcc.a(_arm_fixsfsi.o)
 .debug_info    0x00008cea       0xb7 /opt/paparazzi/arm-multilib/lib/gcc/arm-none-eabi/4.6.2/thumb/libgcc.a(_arm_fixunssfsi.o)

.debug_abbrev   0x00000000     0x3544
 *(.debug_abbrev)
 .debug_abbrev  0x00000000      0x123 /opt/paparazzi/arm-multilib/lib/gcc/arm-none-eabi/4.6.2/../../../../arm-none-eabi/lib/thumb/libm.a(lib_a-s_atan.o)
 .debug_abbrev  0x00000123       0x9c /opt/paparazzi/arm-multilib/lib/gcc/arm-none-eabi/4.6.2/../../../../arm-none-eabi/lib/thumb/libm.a(lib_a-s_cos.o)
 .debug_abbrev  0x000001bf       0xc5 /opt/paparazzi/arm-multilib/lib/gcc/arm-none-eabi/4.6.2/../../../../arm-none-eabi/lib/thumb/libm.a(lib_a-s_fabs.o)
 .debug_abbrev  0x00000284      0x126 /opt/paparazzi/arm-multilib/lib/gcc/arm-none-eabi/4.6.2/../../../../arm-none-eabi/lib/thumb/libm.a(lib_a-s_rint.o)
 .debug_abbrev  0x000003aa       0x9c /opt/paparazzi/arm-multilib/lib/gcc/arm-none-eabi/4.6.2/../../../../arm-none-eabi/lib/thumb/libm.a(lib_a-s_sin.o)
 .debug_abbrev  0x00000446       0x9c /opt/paparazzi/arm-multilib/lib/gcc/arm-none-eabi/4.6.2/../../../../arm-none-eabi/lib/thumb/libm.a(lib_a-s_tan.o)
 .debug_abbrev  0x000004e2      0x100 /opt/paparazzi/arm-multilib/lib/gcc/arm-none-eabi/4.6.2/../../../../arm-none-eabi/lib/thumb/libm.a(lib_a-sf_atan.o)
 .debug_abbrev  0x000005e2       0xa5 /opt/paparazzi/arm-multilib/lib/gcc/arm-none-eabi/4.6.2/../../../../arm-none-eabi/lib/thumb/libm.a(lib_a-sf_cos.o)
 .debug_abbrev  0x00000687       0xa7 /opt/paparazzi/arm-multilib/lib/gcc/arm-none-eabi/4.6.2/../../../../arm-none-eabi/lib/thumb/libm.a(lib_a-sf_fabs.o)
 .debug_abbrev  0x0000072e       0xc3 /opt/paparazzi/arm-multilib/lib/gcc/arm-none-eabi/4.6.2/../../../../arm-none-eabi/lib/thumb/libm.a(lib_a-sf_floor.o)
 .debug_abbrev  0x000007f1       0x50 /opt/paparazzi/arm-multilib/lib/gcc/arm-none-eabi/4.6.2/../../../../arm-none-eabi/lib/thumb/libm.a(lib_a-sf_fmax.o)
 .debug_abbrev  0x00000841       0x50 /opt/paparazzi/arm-multilib/lib/gcc/arm-none-eabi/4.6.2/../../../../arm-none-eabi/lib/thumb/libm.a(lib_a-sf_fmin.o)
 .debug_abbrev  0x00000891       0x6c /opt/paparazzi/arm-multilib/lib/gcc/arm-none-eabi/4.6.2/../../../../arm-none-eabi/lib/thumb/libm.a(lib_a-sf_fpclassify.o)
 .debug_abbrev  0x000008fd       0x9c /opt/paparazzi/arm-multilib/lib/gcc/arm-none-eabi/4.6.2/../../../../arm-none-eabi/lib/thumb/libm.a(lib_a-sf_sin.o)
 .debug_abbrev  0x00000999       0xcf /opt/paparazzi/arm-multilib/lib/gcc/arm-none-eabi/4.6.2/../../../../arm-none-eabi/lib/thumb/libm.a(lib_a-w_asin.o)
 .debug_abbrev  0x00000a68       0x50 /opt/paparazzi/arm-multilib/lib/gcc/arm-none-eabi/4.6.2/../../../../arm-none-eabi/lib/thumb/libm.a(lib_a-w_atan2.o)
 .debug_abbrev  0x00000ab8       0xcf /opt/paparazzi/arm-multilib/lib/gcc/arm-none-eabi/4.6.2/../../../../arm-none-eabi/lib/thumb/libm.a(lib_a-w_cosh.o)
 .debug_abbrev  0x00000b87       0xe5 /opt/paparazzi/arm-multilib/lib/gcc/arm-none-eabi/4.6.2/../../../../arm-none-eabi/lib/thumb/libm.a(lib_a-w_exp.o)
 .debug_abbrev  0x00000c6c       0xcf /opt/paparazzi/arm-multilib/lib/gcc/arm-none-eabi/4.6.2/../../../../arm-none-eabi/lib/thumb/libm.a(lib_a-w_log.o)
 .debug_abbrev  0x00000d3b       0xcf /opt/paparazzi/arm-multilib/lib/gcc/arm-none-eabi/4.6.2/../../../../arm-none-eabi/lib/thumb/libm.a(lib_a-w_pow.o)
 .debug_abbrev  0x00000e0a       0xcf /opt/paparazzi/arm-multilib/lib/gcc/arm-none-eabi/4.6.2/../../../../arm-none-eabi/lib/thumb/libm.a(lib_a-w_sinh.o)
 .debug_abbrev  0x00000ed9       0xcf /opt/paparazzi/arm-multilib/lib/gcc/arm-none-eabi/4.6.2/../../../../arm-none-eabi/lib/thumb/libm.a(lib_a-w_sqrt.o)
 .debug_abbrev  0x00000fa8       0xcf /opt/paparazzi/arm-multilib/lib/gcc/arm-none-eabi/4.6.2/../../../../arm-none-eabi/lib/thumb/libm.a(lib_a-wf_asin.o)
 .debug_abbrev  0x00001077       0x50 /opt/paparazzi/arm-multilib/lib/gcc/arm-none-eabi/4.6.2/../../../../arm-none-eabi/lib/thumb/libm.a(lib_a-wf_atan2.o)
 .debug_abbrev  0x000010c7       0xcf /opt/paparazzi/arm-multilib/lib/gcc/arm-none-eabi/4.6.2/../../../../arm-none-eabi/lib/thumb/libm.a(lib_a-wf_fmod.o)
 .debug_abbrev  0x00001196       0xcf /opt/paparazzi/arm-multilib/lib/gcc/arm-none-eabi/4.6.2/../../../../arm-none-eabi/lib/thumb/libm.a(lib_a-wf_pow.o)
 .debug_abbrev  0x00001265       0xcf /opt/paparazzi/arm-multilib/lib/gcc/arm-none-eabi/4.6.2/../../../../arm-none-eabi/lib/thumb/libm.a(lib_a-wf_sqrt.o)
 .debug_abbrev  0x00001334      0x113 /opt/paparazzi/arm-multilib/lib/gcc/arm-none-eabi/4.6.2/../../../../arm-none-eabi/lib/thumb/libm.a(lib_a-e_asin.o)
 .debug_abbrev  0x00001447      0x12f /opt/paparazzi/arm-multilib/lib/gcc/arm-none-eabi/4.6.2/../../../../arm-none-eabi/lib/thumb/libm.a(lib_a-e_atan2.o)
 .debug_abbrev  0x00001576       0x93 /opt/paparazzi/arm-multilib/lib/gcc/arm-none-eabi/4.6.2/../../../../arm-none-eabi/lib/thumb/libm.a(lib_a-e_cosh.o)
 .debug_abbrev  0x00001609      0x13b /opt/paparazzi/arm-multilib/lib/gcc/arm-none-eabi/4.6.2/../../../../arm-none-eabi/lib/thumb/libm.a(lib_a-e_exp.o)
 .debug_abbrev  0x00001744      0x11a /opt/paparazzi/arm-multilib/lib/gcc/arm-none-eabi/4.6.2/../../../../arm-none-eabi/lib/thumb/libm.a(lib_a-e_log.o)
 .debug_abbrev  0x0000185e      0x168 /opt/paparazzi/arm-multilib/lib/gcc/arm-none-eabi/4.6.2/../../../../arm-none-eabi/lib/thumb/libm.a(lib_a-e_pow.o)
 .debug_abbrev  0x000019c6      0x13d /opt/paparazzi/arm-multilib/lib/gcc/arm-none-eabi/4.6.2/../../../../arm-none-eabi/lib/thumb/libm.a(lib_a-e_rem_pio2.o)
 .debug_abbrev  0x00001b03       0x93 /opt/paparazzi/arm-multilib/lib/gcc/arm-none-eabi/4.6.2/../../../../arm-none-eabi/lib/thumb/libm.a(lib_a-e_sinh.o)
 .debug_abbrev  0x00001b96      0x106 /opt/paparazzi/arm-multilib/lib/gcc/arm-none-eabi/4.6.2/../../../../arm-none-eabi/lib/thumb/libm.a(lib_a-e_sqrt.o)
 .debug_abbrev  0x00001c9c       0xf1 /opt/paparazzi/arm-multilib/lib/gcc/arm-none-eabi/4.6.2/../../../../arm-none-eabi/lib/thumb/libm.a(lib_a-ef_asin.o)
 .debug_abbrev  0x00001d8d       0xdd /opt/paparazzi/arm-multilib/lib/gcc/arm-none-eabi/4.6.2/../../../../arm-none-eabi/lib/thumb/libm.a(lib_a-ef_atan2.o)
 .debug_abbrev  0x00001e6a       0xe4 /opt/paparazzi/arm-multilib/lib/gcc/arm-none-eabi/4.6.2/../../../../arm-none-eabi/lib/thumb/libm.a(lib_a-ef_fmod.o)
 .debug_abbrev  0x00001f4e      0x130 /opt/paparazzi/arm-multilib/lib/gcc/arm-none-eabi/4.6.2/../../../../arm-none-eabi/lib/thumb/libm.a(lib_a-ef_pow.o)
 .debug_abbrev  0x0000207e      0x107 /opt/paparazzi/arm-multilib/lib/gcc/arm-none-eabi/4.6.2/../../../../arm-none-eabi/lib/thumb/libm.a(lib_a-ef_rem_pio2.o)
 .debug_abbrev  0x00002185       0xd2 /opt/paparazzi/arm-multilib/lib/gcc/arm-none-eabi/4.6.2/../../../../arm-none-eabi/lib/thumb/libm.a(lib_a-ef_sqrt.o)
 .debug_abbrev  0x00002257       0xec /opt/paparazzi/arm-multilib/lib/gcc/arm-none-eabi/4.6.2/../../../../arm-none-eabi/lib/thumb/libm.a(lib_a-k_cos.o)
 .debug_abbrev  0x00002343       0xf7 /opt/paparazzi/arm-multilib/lib/gcc/arm-none-eabi/4.6.2/../../../../arm-none-eabi/lib/thumb/libm.a(lib_a-k_rem_pio2.o)
 .debug_abbrev  0x0000243a       0xaf /opt/paparazzi/arm-multilib/lib/gcc/arm-none-eabi/4.6.2/../../../../arm-none-eabi/lib/thumb/libm.a(lib_a-k_sin.o)
 .debug_abbrev  0x000024e9      0x144 /opt/paparazzi/arm-multilib/lib/gcc/arm-none-eabi/4.6.2/../../../../arm-none-eabi/lib/thumb/libm.a(lib_a-k_tan.o)
 .debug_abbrev  0x0000262d       0x91 /opt/paparazzi/arm-multilib/lib/gcc/arm-none-eabi/4.6.2/../../../../arm-none-eabi/lib/thumb/libm.a(lib_a-kf_cos.o)
 .debug_abbrev  0x000026be       0xf7 /opt/paparazzi/arm-multilib/lib/gcc/arm-none-eabi/4.6.2/../../../../arm-none-eabi/lib/thumb/libm.a(lib_a-kf_rem_pio2.o)
 .debug_abbrev  0x000027b5       0x93 /opt/paparazzi/arm-multilib/lib/gcc/arm-none-eabi/4.6.2/../../../../arm-none-eabi/lib/thumb/libm.a(lib_a-kf_sin.o)
 .debug_abbrev  0x00002848      0x132 /opt/paparazzi/arm-multilib/lib/gcc/arm-none-eabi/4.6.2/../../../../arm-none-eabi/lib/thumb/libm.a(lib_a-s_expm1.o)
 .debug_abbrev  0x0000297a       0x6c /opt/paparazzi/arm-multilib/lib/gcc/arm-none-eabi/4.6.2/../../../../arm-none-eabi/lib/thumb/libm.a(lib_a-s_finite.o)
 .debug_abbrev  0x000029e6       0xe6 /opt/paparazzi/arm-multilib/lib/gcc/arm-none-eabi/4.6.2/../../../../arm-none-eabi/lib/thumb/libm.a(lib_a-s_floor.o)
 .debug_abbrev  0x00002acc       0xc5 /opt/paparazzi/arm-multilib/lib/gcc/arm-none-eabi/4.6.2/../../../../arm-none-eabi/lib/thumb/libm.a(lib_a-s_fpclassify.o)
 .debug_abbrev  0x00002b91       0x53 /opt/paparazzi/arm-multilib/lib/gcc/arm-none-eabi/4.6.2/../../../../arm-none-eabi/lib/thumb/libm.a(lib_a-s_lib_ver.o)
 .debug_abbrev  0x00002be4       0x97 /opt/paparazzi/arm-multilib/lib/gcc/arm-none-eabi/4.6.2/../../../../arm-none-eabi/lib/thumb/libm.a(lib_a-s_matherr.o)
 .debug_abbrev  0x00002c7b       0x6f /opt/paparazzi/arm-multilib/lib/gcc/arm-none-eabi/4.6.2/../../../../arm-none-eabi/lib/thumb/libm.a(lib_a-s_nan.o)
 .debug_abbrev  0x00002cea      0x10d /opt/paparazzi/arm-multilib/lib/gcc/arm-none-eabi/4.6.2/../../../../arm-none-eabi/lib/thumb/libm.a(lib_a-s_scalbn.o)
 .debug_abbrev  0x00002df7       0x6c /opt/paparazzi/arm-multilib/lib/gcc/arm-none-eabi/4.6.2/../../../../arm-none-eabi/lib/thumb/libm.a(lib_a-sf_finite.o)
 .debug_abbrev  0x00002e63       0x6f /opt/paparazzi/arm-multilib/lib/gcc/arm-none-eabi/4.6.2/../../../../arm-none-eabi/lib/thumb/libm.a(lib_a-sf_nan.o)
 .debug_abbrev  0x00002ed2       0xd9 /opt/paparazzi/arm-multilib/lib/gcc/arm-none-eabi/4.6.2/../../../../arm-none-eabi/lib/thumb/libm.a(lib_a-sf_scalbn.o)
 .debug_abbrev  0x00002fab       0xe3 /opt/paparazzi/arm-multilib/lib/gcc/arm-none-eabi/4.6.2/../../../../arm-none-eabi/lib/thumb/libm.a(lib_a-s_copysign.o)
 .debug_abbrev  0x0000308e       0xb6 /opt/paparazzi/arm-multilib/lib/gcc/arm-none-eabi/4.6.2/../../../../arm-none-eabi/lib/thumb/libm.a(lib_a-sf_copysign.o)
 .debug_abbrev  0x00003144      0x16e /opt/paparazzi/arm-multilib/lib/gcc/arm-none-eabi/4.6.2/../../../../arm-none-eabi/lib/thumb/libc.a(lib_a-errno.o)
 .debug_abbrev  0x000032b2      0x166 /opt/paparazzi/arm-multilib/lib/gcc/arm-none-eabi/4.6.2/../../../../arm-none-eabi/lib/thumb/libc.a(lib_a-impure.o)
 .debug_abbrev  0x00003418       0x14 /opt/paparazzi/arm-multilib/lib/gcc/arm-none-eabi/4.6.2/thumb/libgcc.a(_thumb1_case_uqi.o)
 .debug_abbrev  0x0000342c       0x14 /opt/paparazzi/arm-multilib/lib/gcc/arm-none-eabi/4.6.2/thumb/libgcc.a(_udivsi3.o)
 .debug_abbrev  0x00003440       0x14 /opt/paparazzi/arm-multilib/lib/gcc/arm-none-eabi/4.6.2/thumb/libgcc.a(_divsi3.o)
 .debug_abbrev  0x00003454       0x14 /opt/paparazzi/arm-multilib/lib/gcc/arm-none-eabi/4.6.2/thumb/libgcc.a(_dvmd_tls.o)
 .debug_abbrev  0x00003468       0x14 /opt/paparazzi/arm-multilib/lib/gcc/arm-none-eabi/4.6.2/thumb/libgcc.a(_arm_addsubdf3.o)
 .debug_abbrev  0x0000347c       0x14 /opt/paparazzi/arm-multilib/lib/gcc/arm-none-eabi/4.6.2/thumb/libgcc.a(_arm_muldivdf3.o)
 .debug_abbrev  0x00003490       0x14 /opt/paparazzi/arm-multilib/lib/gcc/arm-none-eabi/4.6.2/thumb/libgcc.a(_arm_cmpdf2.o)
 .debug_abbrev  0x000034a4       0x14 /opt/paparazzi/arm-multilib/lib/gcc/arm-none-eabi/4.6.2/thumb/libgcc.a(_arm_fixdfsi.o)
 .debug_abbrev  0x000034b8       0x14 /opt/paparazzi/arm-multilib/lib/gcc/arm-none-eabi/4.6.2/thumb/libgcc.a(_arm_fixunsdfsi.o)
 .debug_abbrev  0x000034cc       0x14 /opt/paparazzi/arm-multilib/lib/gcc/arm-none-eabi/4.6.2/thumb/libgcc.a(_arm_truncdfsf2.o)
 .debug_abbrev  0x000034e0       0x14 /opt/paparazzi/arm-multilib/lib/gcc/arm-none-eabi/4.6.2/thumb/libgcc.a(_arm_addsubsf3.o)
 .debug_abbrev  0x000034f4       0x14 /opt/paparazzi/arm-multilib/lib/gcc/arm-none-eabi/4.6.2/thumb/libgcc.a(_arm_muldivsf3.o)
 .debug_abbrev  0x00003508       0x14 /opt/paparazzi/arm-multilib/lib/gcc/arm-none-eabi/4.6.2/thumb/libgcc.a(_arm_cmpsf2.o)
 .debug_abbrev  0x0000351c       0x14 /opt/paparazzi/arm-multilib/lib/gcc/arm-none-eabi/4.6.2/thumb/libgcc.a(_arm_fixsfsi.o)
 .debug_abbrev  0x00003530       0x14 /opt/paparazzi/arm-multilib/lib/gcc/arm-none-eabi/4.6.2/thumb/libgcc.a(_arm_fixunssfsi.o)

.debug_line     0x00000000     0x671b
 *(.debug_line)
 .debug_line    0x00000000      0x1e1 /opt/paparazzi/arm-multilib/lib/gcc/arm-none-eabi/4.6.2/../../../../arm-none-eabi/lib/thumb/libm.a(lib_a-s_atan.o)
 .debug_line    0x000001e1      0x152 /opt/paparazzi/arm-multilib/lib/gcc/arm-none-eabi/4.6.2/../../../../arm-none-eabi/lib/thumb/libm.a(lib_a-s_cos.o)
 .debug_line    0x00000333      0x18f /opt/paparazzi/arm-multilib/lib/gcc/arm-none-eabi/4.6.2/../../../../arm-none-eabi/lib/thumb/libm.a(lib_a-s_fabs.o)
 .debug_line    0x000004c2      0x183 /opt/paparazzi/arm-multilib/lib/gcc/arm-none-eabi/4.6.2/../../../../arm-none-eabi/lib/thumb/libm.a(lib_a-s_rint.o)
 .debug_line    0x00000645      0x155 /opt/paparazzi/arm-multilib/lib/gcc/arm-none-eabi/4.6.2/../../../../arm-none-eabi/lib/thumb/libm.a(lib_a-s_sin.o)
 .debug_line    0x0000079a      0x14f /opt/paparazzi/arm-multilib/lib/gcc/arm-none-eabi/4.6.2/../../../../arm-none-eabi/lib/thumb/libm.a(lib_a-s_tan.o)
 .debug_line    0x000008e9      0x1d1 /opt/paparazzi/arm-multilib/lib/gcc/arm-none-eabi/4.6.2/../../../../arm-none-eabi/lib/thumb/libm.a(lib_a-sf_atan.o)
 .debug_line    0x00000aba      0x152 /opt/paparazzi/arm-multilib/lib/gcc/arm-none-eabi/4.6.2/../../../../arm-none-eabi/lib/thumb/libm.a(lib_a-sf_cos.o)
 .debug_line    0x00000c0c      0x190 /opt/paparazzi/arm-multilib/lib/gcc/arm-none-eabi/4.6.2/../../../../arm-none-eabi/lib/thumb/libm.a(lib_a-sf_fabs.o)
 .debug_line    0x00000d9c      0x1b3 /opt/paparazzi/arm-multilib/lib/gcc/arm-none-eabi/4.6.2/../../../../arm-none-eabi/lib/thumb/libm.a(lib_a-sf_floor.o)
 .debug_line    0x00000f4f       0xd7 /opt/paparazzi/arm-multilib/lib/gcc/arm-none-eabi/4.6.2/../../../../arm-none-eabi/lib/thumb/libm.a(lib_a-sf_fmax.o)
 .debug_line    0x00001026       0xd7 /opt/paparazzi/arm-multilib/lib/gcc/arm-none-eabi/4.6.2/../../../../arm-none-eabi/lib/thumb/libm.a(lib_a-sf_fmin.o)
 .debug_line    0x000010fd      0x148 /opt/paparazzi/arm-multilib/lib/gcc/arm-none-eabi/4.6.2/../../../../arm-none-eabi/lib/thumb/libm.a(lib_a-sf_fpclassify.o)
 .debug_line    0x00001245      0x152 /opt/paparazzi/arm-multilib/lib/gcc/arm-none-eabi/4.6.2/../../../../arm-none-eabi/lib/thumb/libm.a(lib_a-sf_sin.o)
 .debug_line    0x00001397       0xec /opt/paparazzi/arm-multilib/lib/gcc/arm-none-eabi/4.6.2/../../../../arm-none-eabi/lib/thumb/libm.a(lib_a-w_asin.o)
 .debug_line    0x00001483       0xd2 /opt/paparazzi/arm-multilib/lib/gcc/arm-none-eabi/4.6.2/../../../../arm-none-eabi/lib/thumb/libm.a(lib_a-w_atan2.o)
 .debug_line    0x00001555       0xec /opt/paparazzi/arm-multilib/lib/gcc/arm-none-eabi/4.6.2/../../../../arm-none-eabi/lib/thumb/libm.a(lib_a-w_cosh.o)
 .debug_line    0x00001641       0xed /opt/paparazzi/arm-multilib/lib/gcc/arm-none-eabi/4.6.2/../../../../arm-none-eabi/lib/thumb/libm.a(lib_a-w_exp.o)
 .debug_line    0x0000172e       0xf6 /opt/paparazzi/arm-multilib/lib/gcc/arm-none-eabi/4.6.2/../../../../arm-none-eabi/lib/thumb/libm.a(lib_a-w_log.o)
 .debug_line    0x00001824      0x168 /opt/paparazzi/arm-multilib/lib/gcc/arm-none-eabi/4.6.2/../../../../arm-none-eabi/lib/thumb/libm.a(lib_a-w_pow.o)
 .debug_line    0x0000198c      0x103 /opt/paparazzi/arm-multilib/lib/gcc/arm-none-eabi/4.6.2/../../../../arm-none-eabi/lib/thumb/libm.a(lib_a-w_sinh.o)
 .debug_line    0x00001a8f       0xea /opt/paparazzi/arm-multilib/lib/gcc/arm-none-eabi/4.6.2/../../../../arm-none-eabi/lib/thumb/libm.a(lib_a-w_sqrt.o)
 .debug_line    0x00001b79       0xec /opt/paparazzi/arm-multilib/lib/gcc/arm-none-eabi/4.6.2/../../../../arm-none-eabi/lib/thumb/libm.a(lib_a-wf_asin.o)
 .debug_line    0x00001c65       0xd2 /opt/paparazzi/arm-multilib/lib/gcc/arm-none-eabi/4.6.2/../../../../arm-none-eabi/lib/thumb/libm.a(lib_a-wf_atan2.o)
 .debug_line    0x00001d37       0xf4 /opt/paparazzi/arm-multilib/lib/gcc/arm-none-eabi/4.6.2/../../../../arm-none-eabi/lib/thumb/libm.a(lib_a-wf_fmod.o)
 .debug_line    0x00001e2b      0x16b /opt/paparazzi/arm-multilib/lib/gcc/arm-none-eabi/4.6.2/../../../../arm-none-eabi/lib/thumb/libm.a(lib_a-wf_pow.o)
 .debug_line    0x00001f96       0xee /opt/paparazzi/arm-multilib/lib/gcc/arm-none-eabi/4.6.2/../../../../arm-none-eabi/lib/thumb/libm.a(lib_a-wf_sqrt.o)
 .debug_line    0x00002084      0x184 /opt/paparazzi/arm-multilib/lib/gcc/arm-none-eabi/4.6.2/../../../../arm-none-eabi/lib/thumb/libm.a(lib_a-e_asin.o)
 .debug_line    0x00002208      0x1a2 /opt/paparazzi/arm-multilib/lib/gcc/arm-none-eabi/4.6.2/../../../../arm-none-eabi/lib/thumb/libm.a(lib_a-e_atan2.o)
 .debug_line    0x000023aa      0x113 /opt/paparazzi/arm-multilib/lib/gcc/arm-none-eabi/4.6.2/../../../../arm-none-eabi/lib/thumb/libm.a(lib_a-e_cosh.o)
 .debug_line    0x000024bd      0x187 /opt/paparazzi/arm-multilib/lib/gcc/arm-none-eabi/4.6.2/../../../../arm-none-eabi/lib/thumb/libm.a(lib_a-e_exp.o)
 .debug_line    0x00002644      0x1d9 /opt/paparazzi/arm-multilib/lib/gcc/arm-none-eabi/4.6.2/../../../../arm-none-eabi/lib/thumb/libm.a(lib_a-e_log.o)
 .debug_line    0x0000281d      0x2ab /opt/paparazzi/arm-multilib/lib/gcc/arm-none-eabi/4.6.2/../../../../arm-none-eabi/lib/thumb/libm.a(lib_a-e_pow.o)
 .debug_line    0x00002ac8      0x1c9 /opt/paparazzi/arm-multilib/lib/gcc/arm-none-eabi/4.6.2/../../../../arm-none-eabi/lib/thumb/libm.a(lib_a-e_rem_pio2.o)
 .debug_line    0x00002c91      0x11a /opt/paparazzi/arm-multilib/lib/gcc/arm-none-eabi/4.6.2/../../../../arm-none-eabi/lib/thumb/libm.a(lib_a-e_sinh.o)
 .debug_line    0x00002dab      0x1ce /opt/paparazzi/arm-multilib/lib/gcc/arm-none-eabi/4.6.2/../../../../arm-none-eabi/lib/thumb/libm.a(lib_a-e_sqrt.o)
 .debug_line    0x00002f79      0x17c /opt/paparazzi/arm-multilib/lib/gcc/arm-none-eabi/4.6.2/../../../../arm-none-eabi/lib/thumb/libm.a(lib_a-ef_asin.o)
 .debug_line    0x000030f5      0x17a /opt/paparazzi/arm-multilib/lib/gcc/arm-none-eabi/4.6.2/../../../../arm-none-eabi/lib/thumb/libm.a(lib_a-ef_atan2.o)
 .debug_line    0x0000326f      0x195 /opt/paparazzi/arm-multilib/lib/gcc/arm-none-eabi/4.6.2/../../../../arm-none-eabi/lib/thumb/libm.a(lib_a-ef_fmod.o)
 .debug_line    0x00003404      0x269 /opt/paparazzi/arm-multilib/lib/gcc/arm-none-eabi/4.6.2/../../../../arm-none-eabi/lib/thumb/libm.a(lib_a-ef_pow.o)
 .debug_line    0x0000366d      0x1c2 /opt/paparazzi/arm-multilib/lib/gcc/arm-none-eabi/4.6.2/../../../../arm-none-eabi/lib/thumb/libm.a(lib_a-ef_rem_pio2.o)
 .debug_line    0x0000382f      0x18b /opt/paparazzi/arm-multilib/lib/gcc/arm-none-eabi/4.6.2/../../../../arm-none-eabi/lib/thumb/libm.a(lib_a-ef_sqrt.o)
 .debug_line    0x000039ba      0x15d /opt/paparazzi/arm-multilib/lib/gcc/arm-none-eabi/4.6.2/../../../../arm-none-eabi/lib/thumb/libm.a(lib_a-k_cos.o)
 .debug_line    0x00003b17      0x460 /opt/paparazzi/arm-multilib/lib/gcc/arm-none-eabi/4.6.2/../../../../arm-none-eabi/lib/thumb/libm.a(lib_a-k_rem_pio2.o)
 .debug_line    0x00003f77       0xff /opt/paparazzi/arm-multilib/lib/gcc/arm-none-eabi/4.6.2/../../../../arm-none-eabi/lib/thumb/libm.a(lib_a-k_sin.o)
 .debug_line    0x00004076      0x198 /opt/paparazzi/arm-multilib/lib/gcc/arm-none-eabi/4.6.2/../../../../arm-none-eabi/lib/thumb/libm.a(lib_a-k_tan.o)
 .debug_line    0x0000420e      0x103 /opt/paparazzi/arm-multilib/lib/gcc/arm-none-eabi/4.6.2/../../../../arm-none-eabi/lib/thumb/libm.a(lib_a-kf_cos.o)
 .debug_line    0x00004311      0x468 /opt/paparazzi/arm-multilib/lib/gcc/arm-none-eabi/4.6.2/../../../../arm-none-eabi/lib/thumb/libm.a(lib_a-kf_rem_pio2.o)
 .debug_line    0x00004779       0xfd /opt/paparazzi/arm-multilib/lib/gcc/arm-none-eabi/4.6.2/../../../../arm-none-eabi/lib/thumb/libm.a(lib_a-kf_sin.o)
 .debug_line    0x00004876      0x1da /opt/paparazzi/arm-multilib/lib/gcc/arm-none-eabi/4.6.2/../../../../arm-none-eabi/lib/thumb/libm.a(lib_a-s_expm1.o)
 .debug_line    0x00004a50      0x139 /opt/paparazzi/arm-multilib/lib/gcc/arm-none-eabi/4.6.2/../../../../arm-none-eabi/lib/thumb/libm.a(lib_a-s_finite.o)
 .debug_line    0x00004b89      0x1c6 /opt/paparazzi/arm-multilib/lib/gcc/arm-none-eabi/4.6.2/../../../../arm-none-eabi/lib/thumb/libm.a(lib_a-s_floor.o)
 .debug_line    0x00004d4f      0x171 /opt/paparazzi/arm-multilib/lib/gcc/arm-none-eabi/4.6.2/../../../../arm-none-eabi/lib/thumb/libm.a(lib_a-s_fpclassify.o)
 .debug_line    0x00004ec0       0x70 /opt/paparazzi/arm-multilib/lib/gcc/arm-none-eabi/4.6.2/../../../../arm-none-eabi/lib/thumb/libm.a(lib_a-s_lib_ver.o)
 .debug_line    0x00004f30       0xd5 /opt/paparazzi/arm-multilib/lib/gcc/arm-none-eabi/4.6.2/../../../../arm-none-eabi/lib/thumb/libm.a(lib_a-s_matherr.o)
 .debug_line    0x00005005       0xd0 /opt/paparazzi/arm-multilib/lib/gcc/arm-none-eabi/4.6.2/../../../../arm-none-eabi/lib/thumb/libm.a(lib_a-s_nan.o)
 .debug_line    0x000050d5      0x16b /opt/paparazzi/arm-multilib/lib/gcc/arm-none-eabi/4.6.2/../../../../arm-none-eabi/lib/thumb/libm.a(lib_a-s_scalbn.o)
 .debug_line    0x00005240      0x13d /opt/paparazzi/arm-multilib/lib/gcc/arm-none-eabi/4.6.2/../../../../arm-none-eabi/lib/thumb/libm.a(lib_a-sf_finite.o)
 .debug_line    0x0000537d       0xcf /opt/paparazzi/arm-multilib/lib/gcc/arm-none-eabi/4.6.2/../../../../arm-none-eabi/lib/thumb/libm.a(lib_a-sf_nan.o)
 .debug_line    0x0000544c      0x163 /opt/paparazzi/arm-multilib/lib/gcc/arm-none-eabi/4.6.2/../../../../arm-none-eabi/lib/thumb/libm.a(lib_a-sf_scalbn.o)
 .debug_line    0x000055af      0x148 /opt/paparazzi/arm-multilib/lib/gcc/arm-none-eabi/4.6.2/../../../../arm-none-eabi/lib/thumb/libm.a(lib_a-s_copysign.o)
 .debug_line    0x000056f7      0x149 /opt/paparazzi/arm-multilib/lib/gcc/arm-none-eabi/4.6.2/../../../../arm-none-eabi/lib/thumb/libm.a(lib_a-sf_copysign.o)
 .debug_line    0x00005840      0x134 /opt/paparazzi/arm-multilib/lib/gcc/arm-none-eabi/4.6.2/../../../../arm-none-eabi/lib/thumb/libc.a(lib_a-errno.o)
 .debug_line    0x00005974      0x117 /opt/paparazzi/arm-multilib/lib/gcc/arm-none-eabi/4.6.2/../../../../arm-none-eabi/lib/thumb/libc.a(lib_a-impure.o)
 .debug_line    0x00005a8b       0x8b /opt/paparazzi/arm-multilib/lib/gcc/arm-none-eabi/4.6.2/thumb/libgcc.a(_thumb1_case_uqi.o)
 .debug_line    0x00005b16       0x9e /opt/paparazzi/arm-multilib/lib/gcc/arm-none-eabi/4.6.2/thumb/libgcc.a(_udivsi3.o)
 .debug_line    0x00005bb4       0xab /opt/paparazzi/arm-multilib/lib/gcc/arm-none-eabi/4.6.2/thumb/libgcc.a(_divsi3.o)
 .debug_line    0x00005c5f       0x83 /opt/paparazzi/arm-multilib/lib/gcc/arm-none-eabi/4.6.2/thumb/libgcc.a(_dvmd_tls.o)
 .debug_line    0x00005ce2      0x188 /opt/paparazzi/arm-multilib/lib/gcc/arm-none-eabi/4.6.2/thumb/libgcc.a(_arm_addsubdf3.o)
 .debug_line    0x00005e6a      0x1a0 /opt/paparazzi/arm-multilib/lib/gcc/arm-none-eabi/4.6.2/thumb/libgcc.a(_arm_muldivdf3.o)
 .debug_line    0x0000600a       0xce /opt/paparazzi/arm-multilib/lib/gcc/arm-none-eabi/4.6.2/thumb/libgcc.a(_arm_cmpdf2.o)
 .debug_line    0x000060d8       0x98 /opt/paparazzi/arm-multilib/lib/gcc/arm-none-eabi/4.6.2/thumb/libgcc.a(_arm_fixdfsi.o)
 .debug_line    0x00006170       0x96 /opt/paparazzi/arm-multilib/lib/gcc/arm-none-eabi/4.6.2/thumb/libgcc.a(_arm_fixunsdfsi.o)
 .debug_line    0x00006206       0xa9 /opt/paparazzi/arm-multilib/lib/gcc/arm-none-eabi/4.6.2/thumb/libgcc.a(_arm_truncdfsf2.o)
 .debug_line    0x000062af      0x139 /opt/paparazzi/arm-multilib/lib/gcc/arm-none-eabi/4.6.2/thumb/libgcc.a(_arm_addsubsf3.o)
 .debug_line    0x000063e8      0x143 /opt/paparazzi/arm-multilib/lib/gcc/arm-none-eabi/4.6.2/thumb/libgcc.a(_arm_muldivsf3.o)
 .debug_line    0x0000652b       0xc2 /opt/paparazzi/arm-multilib/lib/gcc/arm-none-eabi/4.6.2/thumb/libgcc.a(_arm_cmpsf2.o)
 .debug_line    0x000065ed       0x98 /opt/paparazzi/arm-multilib/lib/gcc/arm-none-eabi/4.6.2/thumb/libgcc.a(_arm_fixsfsi.o)
 .debug_line    0x00006685       0x96 /opt/paparazzi/arm-multilib/lib/gcc/arm-none-eabi/4.6.2/thumb/libgcc.a(_arm_fixunssfsi.o)

.debug_frame    0x00000000      0xb24
 *(.debug_frame)
 .debug_frame   0x00000000       0x30 /opt/paparazzi/arm-multilib/lib/gcc/arm-none-eabi/4.6.2/../../../../arm-none-eabi/lib/thumb/libm.a(lib_a-s_atan.o)
 .debug_frame   0x00000030       0x2c /opt/paparazzi/arm-multilib/lib/gcc/arm-none-eabi/4.6.2/../../../../arm-none-eabi/lib/thumb/libm.a(lib_a-s_cos.o)
 .debug_frame   0x0000005c       0x20 /opt/paparazzi/arm-multilib/lib/gcc/arm-none-eabi/4.6.2/../../../../arm-none-eabi/lib/thumb/libm.a(lib_a-s_fabs.o)
 .debug_frame   0x0000007c       0x30 /opt/paparazzi/arm-multilib/lib/gcc/arm-none-eabi/4.6.2/../../../../arm-none-eabi/lib/thumb/libm.a(lib_a-s_rint.o)
 .debug_frame   0x000000ac       0x2c /opt/paparazzi/arm-multilib/lib/gcc/arm-none-eabi/4.6.2/../../../../arm-none-eabi/lib/thumb/libm.a(lib_a-s_sin.o)
 .debug_frame   0x000000d8       0x2c /opt/paparazzi/arm-multilib/lib/gcc/arm-none-eabi/4.6.2/../../../../arm-none-eabi/lib/thumb/libm.a(lib_a-s_tan.o)
 .debug_frame   0x00000104       0x34 /opt/paparazzi/arm-multilib/lib/gcc/arm-none-eabi/4.6.2/../../../../arm-none-eabi/lib/thumb/libm.a(lib_a-sf_atan.o)
 .debug_frame   0x00000138       0x2c /opt/paparazzi/arm-multilib/lib/gcc/arm-none-eabi/4.6.2/../../../../arm-none-eabi/lib/thumb/libm.a(lib_a-sf_cos.o)
 .debug_frame   0x00000164       0x20 /opt/paparazzi/arm-multilib/lib/gcc/arm-none-eabi/4.6.2/../../../../arm-none-eabi/lib/thumb/libm.a(lib_a-sf_fabs.o)
 .debug_frame   0x00000184       0x2c /opt/paparazzi/arm-multilib/lib/gcc/arm-none-eabi/4.6.2/../../../../arm-none-eabi/lib/thumb/libm.a(lib_a-sf_floor.o)
 .debug_frame   0x000001b0       0x2c /opt/paparazzi/arm-multilib/lib/gcc/arm-none-eabi/4.6.2/../../../../arm-none-eabi/lib/thumb/libm.a(lib_a-sf_fmax.o)
 .debug_frame   0x000001dc       0x2c /opt/paparazzi/arm-multilib/lib/gcc/arm-none-eabi/4.6.2/../../../../arm-none-eabi/lib/thumb/libm.a(lib_a-sf_fmin.o)
 .debug_frame   0x00000208       0x28 /opt/paparazzi/arm-multilib/lib/gcc/arm-none-eabi/4.6.2/../../../../arm-none-eabi/lib/thumb/libm.a(lib_a-sf_fpclassify.o)
 .debug_frame   0x00000230       0x2c /opt/paparazzi/arm-multilib/lib/gcc/arm-none-eabi/4.6.2/../../../../arm-none-eabi/lib/thumb/libm.a(lib_a-sf_sin.o)
 .debug_frame   0x0000025c       0x30 /opt/paparazzi/arm-multilib/lib/gcc/arm-none-eabi/4.6.2/../../../../arm-none-eabi/lib/thumb/libm.a(lib_a-w_asin.o)
 .debug_frame   0x0000028c       0x28 /opt/paparazzi/arm-multilib/lib/gcc/arm-none-eabi/4.6.2/../../../../arm-none-eabi/lib/thumb/libm.a(lib_a-w_atan2.o)
 .debug_frame   0x000002b4       0x30 /opt/paparazzi/arm-multilib/lib/gcc/arm-none-eabi/4.6.2/../../../../arm-none-eabi/lib/thumb/libm.a(lib_a-w_cosh.o)
 .debug_frame   0x000002e4       0x30 /opt/paparazzi/arm-multilib/lib/gcc/arm-none-eabi/4.6.2/../../../../arm-none-eabi/lib/thumb/libm.a(lib_a-w_exp.o)
 .debug_frame   0x00000314       0x30 /opt/paparazzi/arm-multilib/lib/gcc/arm-none-eabi/4.6.2/../../../../arm-none-eabi/lib/thumb/libm.a(lib_a-w_log.o)
 .debug_frame   0x00000344       0x30 /opt/paparazzi/arm-multilib/lib/gcc/arm-none-eabi/4.6.2/../../../../arm-none-eabi/lib/thumb/libm.a(lib_a-w_pow.o)
 .debug_frame   0x00000374       0x30 /opt/paparazzi/arm-multilib/lib/gcc/arm-none-eabi/4.6.2/../../../../arm-none-eabi/lib/thumb/libm.a(lib_a-w_sinh.o)
 .debug_frame   0x000003a4       0x30 /opt/paparazzi/arm-multilib/lib/gcc/arm-none-eabi/4.6.2/../../../../arm-none-eabi/lib/thumb/libm.a(lib_a-w_sqrt.o)
 .debug_frame   0x000003d4       0x30 /opt/paparazzi/arm-multilib/lib/gcc/arm-none-eabi/4.6.2/../../../../arm-none-eabi/lib/thumb/libm.a(lib_a-wf_asin.o)
 .debug_frame   0x00000404       0x28 /opt/paparazzi/arm-multilib/lib/gcc/arm-none-eabi/4.6.2/../../../../arm-none-eabi/lib/thumb/libm.a(lib_a-wf_atan2.o)
 .debug_frame   0x0000042c       0x30 /opt/paparazzi/arm-multilib/lib/gcc/arm-none-eabi/4.6.2/../../../../arm-none-eabi/lib/thumb/libm.a(lib_a-wf_fmod.o)
 .debug_frame   0x0000045c       0x30 /opt/paparazzi/arm-multilib/lib/gcc/arm-none-eabi/4.6.2/../../../../arm-none-eabi/lib/thumb/libm.a(lib_a-wf_pow.o)
 .debug_frame   0x0000048c       0x30 /opt/paparazzi/arm-multilib/lib/gcc/arm-none-eabi/4.6.2/../../../../arm-none-eabi/lib/thumb/libm.a(lib_a-wf_sqrt.o)
 .debug_frame   0x000004bc       0x30 /opt/paparazzi/arm-multilib/lib/gcc/arm-none-eabi/4.6.2/../../../../arm-none-eabi/lib/thumb/libm.a(lib_a-e_asin.o)
 .debug_frame   0x000004ec       0x30 /opt/paparazzi/arm-multilib/lib/gcc/arm-none-eabi/4.6.2/../../../../arm-none-eabi/lib/thumb/libm.a(lib_a-e_atan2.o)
 .debug_frame   0x0000051c       0x34 /opt/paparazzi/arm-multilib/lib/gcc/arm-none-eabi/4.6.2/../../../../arm-none-eabi/lib/thumb/libm.a(lib_a-e_cosh.o)
 .debug_frame   0x00000550       0x30 /opt/paparazzi/arm-multilib/lib/gcc/arm-none-eabi/4.6.2/../../../../arm-none-eabi/lib/thumb/libm.a(lib_a-e_exp.o)
 .debug_frame   0x00000580       0x30 /opt/paparazzi/arm-multilib/lib/gcc/arm-none-eabi/4.6.2/../../../../arm-none-eabi/lib/thumb/libm.a(lib_a-e_log.o)
 .debug_frame   0x000005b0       0x30 /opt/paparazzi/arm-multilib/lib/gcc/arm-none-eabi/4.6.2/../../../../arm-none-eabi/lib/thumb/libm.a(lib_a-e_pow.o)
 .debug_frame   0x000005e0       0x30 /opt/paparazzi/arm-multilib/lib/gcc/arm-none-eabi/4.6.2/../../../../arm-none-eabi/lib/thumb/libm.a(lib_a-e_rem_pio2.o)
 .debug_frame   0x00000610       0x30 /opt/paparazzi/arm-multilib/lib/gcc/arm-none-eabi/4.6.2/../../../../arm-none-eabi/lib/thumb/libm.a(lib_a-e_sinh.o)
 .debug_frame   0x00000640       0x30 /opt/paparazzi/arm-multilib/lib/gcc/arm-none-eabi/4.6.2/../../../../arm-none-eabi/lib/thumb/libm.a(lib_a-e_sqrt.o)
 .debug_frame   0x00000670       0x30 /opt/paparazzi/arm-multilib/lib/gcc/arm-none-eabi/4.6.2/../../../../arm-none-eabi/lib/thumb/libm.a(lib_a-ef_asin.o)
 .debug_frame   0x000006a0       0x34 /opt/paparazzi/arm-multilib/lib/gcc/arm-none-eabi/4.6.2/../../../../arm-none-eabi/lib/thumb/libm.a(lib_a-ef_atan2.o)
 .debug_frame   0x000006d4       0x30 /opt/paparazzi/arm-multilib/lib/gcc/arm-none-eabi/4.6.2/../../../../arm-none-eabi/lib/thumb/libm.a(lib_a-ef_fmod.o)
 .debug_frame   0x00000704       0x30 /opt/paparazzi/arm-multilib/lib/gcc/arm-none-eabi/4.6.2/../../../../arm-none-eabi/lib/thumb/libm.a(lib_a-ef_pow.o)
 .debug_frame   0x00000734       0x30 /opt/paparazzi/arm-multilib/lib/gcc/arm-none-eabi/4.6.2/../../../../arm-none-eabi/lib/thumb/libm.a(lib_a-ef_rem_pio2.o)
 .debug_frame   0x00000764       0x2c /opt/paparazzi/arm-multilib/lib/gcc/arm-none-eabi/4.6.2/../../../../arm-none-eabi/lib/thumb/libm.a(lib_a-ef_sqrt.o)
 .debug_frame   0x00000790       0x30 /opt/paparazzi/arm-multilib/lib/gcc/arm-none-eabi/4.6.2/../../../../arm-none-eabi/lib/thumb/libm.a(lib_a-k_cos.o)
 .debug_frame   0x000007c0       0x34 /opt/paparazzi/arm-multilib/lib/gcc/arm-none-eabi/4.6.2/../../../../arm-none-eabi/lib/thumb/libm.a(lib_a-k_rem_pio2.o)
 .debug_frame   0x000007f4       0x30 /opt/paparazzi/arm-multilib/lib/gcc/arm-none-eabi/4.6.2/../../../../arm-none-eabi/lib/thumb/libm.a(lib_a-k_sin.o)
 .debug_frame   0x00000824       0x30 /opt/paparazzi/arm-multilib/lib/gcc/arm-none-eabi/4.6.2/../../../../arm-none-eabi/lib/thumb/libm.a(lib_a-k_tan.o)
 .debug_frame   0x00000854       0x30 /opt/paparazzi/arm-multilib/lib/gcc/arm-none-eabi/4.6.2/../../../../arm-none-eabi/lib/thumb/libm.a(lib_a-kf_cos.o)
 .debug_frame   0x00000884       0x34 /opt/paparazzi/arm-multilib/lib/gcc/arm-none-eabi/4.6.2/../../../../arm-none-eabi/lib/thumb/libm.a(lib_a-kf_rem_pio2.o)
 .debug_frame   0x000008b8       0x34 /opt/paparazzi/arm-multilib/lib/gcc/arm-none-eabi/4.6.2/../../../../arm-none-eabi/lib/thumb/libm.a(lib_a-kf_sin.o)
 .debug_frame   0x000008ec       0x30 /opt/paparazzi/arm-multilib/lib/gcc/arm-none-eabi/4.6.2/../../../../arm-none-eabi/lib/thumb/libm.a(lib_a-s_expm1.o)
 .debug_frame   0x0000091c       0x20 /opt/paparazzi/arm-multilib/lib/gcc/arm-none-eabi/4.6.2/../../../../arm-none-eabi/lib/thumb/libm.a(lib_a-s_finite.o)
 .debug_frame   0x0000093c       0x34 /opt/paparazzi/arm-multilib/lib/gcc/arm-none-eabi/4.6.2/../../../../arm-none-eabi/lib/thumb/libm.a(lib_a-s_floor.o)
 .debug_frame   0x00000970       0x2c /opt/paparazzi/arm-multilib/lib/gcc/arm-none-eabi/4.6.2/../../../../arm-none-eabi/lib/thumb/libm.a(lib_a-s_fpclassify.o)
 .debug_frame   0x0000099c       0x20 /opt/paparazzi/arm-multilib/lib/gcc/arm-none-eabi/4.6.2/../../../../arm-none-eabi/lib/thumb/libm.a(lib_a-s_matherr.o)
 .debug_frame   0x000009bc       0x20 /opt/paparazzi/arm-multilib/lib/gcc/arm-none-eabi/4.6.2/../../../../arm-none-eabi/lib/thumb/libm.a(lib_a-s_nan.o)
 .debug_frame   0x000009dc       0x30 /opt/paparazzi/arm-multilib/lib/gcc/arm-none-eabi/4.6.2/../../../../arm-none-eabi/lib/thumb/libm.a(lib_a-s_scalbn.o)
 .debug_frame   0x00000a0c       0x20 /opt/paparazzi/arm-multilib/lib/gcc/arm-none-eabi/4.6.2/../../../../arm-none-eabi/lib/thumb/libm.a(lib_a-sf_finite.o)
 .debug_frame   0x00000a2c       0x20 /opt/paparazzi/arm-multilib/lib/gcc/arm-none-eabi/4.6.2/../../../../arm-none-eabi/lib/thumb/libm.a(lib_a-sf_nan.o)
 .debug_frame   0x00000a4c       0x2c /opt/paparazzi/arm-multilib/lib/gcc/arm-none-eabi/4.6.2/../../../../arm-none-eabi/lib/thumb/libm.a(lib_a-sf_scalbn.o)
 .debug_frame   0x00000a78       0x2c /opt/paparazzi/arm-multilib/lib/gcc/arm-none-eabi/4.6.2/../../../../arm-none-eabi/lib/thumb/libm.a(lib_a-s_copysign.o)
 .debug_frame   0x00000aa4       0x20 /opt/paparazzi/arm-multilib/lib/gcc/arm-none-eabi/4.6.2/../../../../arm-none-eabi/lib/thumb/libm.a(lib_a-sf_copysign.o)
 .debug_frame   0x00000ac4       0x20 /opt/paparazzi/arm-multilib/lib/gcc/arm-none-eabi/4.6.2/../../../../arm-none-eabi/lib/thumb/libc.a(lib_a-errno.o)
 .debug_frame   0x00000ae4       0x20 /opt/paparazzi/arm-multilib/lib/gcc/arm-none-eabi/4.6.2/thumb/libgcc.a(_udivsi3.o)
 .debug_frame   0x00000b04       0x20 /opt/paparazzi/arm-multilib/lib/gcc/arm-none-eabi/4.6.2/thumb/libgcc.a(_divsi3.o)

.debug_str      0x00000000     0x1d3e
 *(.debug_str)
 .debug_str     0x00000000      0x161 /opt/paparazzi/arm-multilib/lib/gcc/arm-none-eabi/4.6.2/../../../../arm-none-eabi/lib/thumb/libm.a(lib_a-s_atan.o)
                                0x1ac (size before relaxing)
 .debug_str     0x00000161       0x4b /opt/paparazzi/arm-multilib/lib/gcc/arm-none-eabi/4.6.2/../../../../arm-none-eabi/lib/thumb/libm.a(lib_a-s_cos.o)
                                0x160 (size before relaxing)
 .debug_str     0x000001ac       0x5b /opt/paparazzi/arm-multilib/lib/gcc/arm-none-eabi/4.6.2/../../../../arm-none-eabi/lib/thumb/libm.a(lib_a-s_fabs.o)
                                0x194 (size before relaxing)
 .debug_str     0x00000207       0xac /opt/paparazzi/arm-multilib/lib/gcc/arm-none-eabi/4.6.2/../../../../arm-none-eabi/lib/thumb/libm.a(lib_a-s_rint.o)
                                0x1ad (size before relaxing)
 .debug_str     0x000002b3       0x4b /opt/paparazzi/arm-multilib/lib/gcc/arm-none-eabi/4.6.2/../../../../arm-none-eabi/lib/thumb/libm.a(lib_a-s_sin.o)
                                0x160 (size before relaxing)
 .debug_str     0x000002fe       0x4b /opt/paparazzi/arm-multilib/lib/gcc/arm-none-eabi/4.6.2/../../../../arm-none-eabi/lib/thumb/libm.a(lib_a-s_tan.o)
                                0x160 (size before relaxing)
 .debug_str     0x00000349       0x73 /opt/paparazzi/arm-multilib/lib/gcc/arm-none-eabi/4.6.2/../../../../arm-none-eabi/lib/thumb/libm.a(lib_a-sf_atan.o)
                                0x1ac (size before relaxing)
 .debug_str     0x000003bc       0x4c /opt/paparazzi/arm-multilib/lib/gcc/arm-none-eabi/4.6.2/../../../../arm-none-eabi/lib/thumb/libm.a(lib_a-sf_cos.o)
                                0x166 (size before relaxing)
 .debug_str     0x00000408       0x58 /opt/paparazzi/arm-multilib/lib/gcc/arm-none-eabi/4.6.2/../../../../arm-none-eabi/lib/thumb/libm.a(lib_a-sf_fabs.o)
                                0x18f (size before relaxing)
 .debug_str     0x00000460       0x55 /opt/paparazzi/arm-multilib/lib/gcc/arm-none-eabi/4.6.2/../../../../arm-none-eabi/lib/thumb/libm.a(lib_a-sf_floor.o)
                                0x1a0 (size before relaxing)
 .debug_str     0x000004b5       0x55 /opt/paparazzi/arm-multilib/lib/gcc/arm-none-eabi/4.6.2/../../../../arm-none-eabi/lib/thumb/libm.a(lib_a-sf_fmax.o)
                                0x162 (size before relaxing)
 .debug_str     0x0000050a       0x55 /opt/paparazzi/arm-multilib/lib/gcc/arm-none-eabi/4.6.2/../../../../arm-none-eabi/lib/thumb/libm.a(lib_a-sf_fmin.o)
                                0x162 (size before relaxing)
 .debug_str     0x0000055f       0x63 /opt/paparazzi/arm-multilib/lib/gcc/arm-none-eabi/4.6.2/../../../../arm-none-eabi/lib/thumb/libm.a(lib_a-sf_fpclassify.o)
                                0x17b (size before relaxing)
 .debug_str     0x000005c2       0x4c /opt/paparazzi/arm-multilib/lib/gcc/arm-none-eabi/4.6.2/../../../../arm-none-eabi/lib/thumb/libm.a(lib_a-sf_sin.o)
                                0x166 (size before relaxing)
 .debug_str     0x0000060e       0xc7 /opt/paparazzi/arm-multilib/lib/gcc/arm-none-eabi/4.6.2/../../../../arm-none-eabi/lib/thumb/libm.a(lib_a-w_asin.o)
                                0x1dc (size before relaxing)
 .debug_str     0x000006d5       0x4d /opt/paparazzi/arm-multilib/lib/gcc/arm-none-eabi/4.6.2/../../../../arm-none-eabi/lib/thumb/libm.a(lib_a-w_atan2.o)
                                0x15e (size before relaxing)
 .debug_str     0x00000722       0x4c /opt/paparazzi/arm-multilib/lib/gcc/arm-none-eabi/4.6.2/../../../../arm-none-eabi/lib/thumb/libm.a(lib_a-w_cosh.o)
                                0x1dc (size before relaxing)
 .debug_str     0x0000076e       0x63 /opt/paparazzi/arm-multilib/lib/gcc/arm-none-eabi/4.6.2/../../../../arm-none-eabi/lib/thumb/libm.a(lib_a-w_exp.o)
                                0x1ee (size before relaxing)
 .debug_str     0x000007d1       0x4b /opt/paparazzi/arm-multilib/lib/gcc/arm-none-eabi/4.6.2/../../../../arm-none-eabi/lib/thumb/libm.a(lib_a-w_log.o)
                                0x1d6 (size before relaxing)
 .debug_str     0x0000081c       0x4b /opt/paparazzi/arm-multilib/lib/gcc/arm-none-eabi/4.6.2/../../../../arm-none-eabi/lib/thumb/libm.a(lib_a-w_pow.o)
                                0x1d6 (size before relaxing)
 .debug_str     0x00000867       0x4c /opt/paparazzi/arm-multilib/lib/gcc/arm-none-eabi/4.6.2/../../../../arm-none-eabi/lib/thumb/libm.a(lib_a-w_sinh.o)
                                0x1dc (size before relaxing)
 .debug_str     0x000008b3       0x4c /opt/paparazzi/arm-multilib/lib/gcc/arm-none-eabi/4.6.2/../../../../arm-none-eabi/lib/thumb/libm.a(lib_a-w_sqrt.o)
                                0x1dc (size before relaxing)
 .debug_str     0x000008ff       0x4d /opt/paparazzi/arm-multilib/lib/gcc/arm-none-eabi/4.6.2/../../../../arm-none-eabi/lib/thumb/libm.a(lib_a-wf_asin.o)
                                0x1de (size before relaxing)
 .debug_str     0x0000094c       0x4e /opt/paparazzi/arm-multilib/lib/gcc/arm-none-eabi/4.6.2/../../../../arm-none-eabi/lib/thumb/libm.a(lib_a-wf_atan2.o)
                                0x160 (size before relaxing)
 .debug_str     0x0000099a       0x4d /opt/paparazzi/arm-multilib/lib/gcc/arm-none-eabi/4.6.2/../../../../arm-none-eabi/lib/thumb/libm.a(lib_a-wf_fmod.o)
                                0x1de (size before relaxing)
 .debug_str     0x000009e7       0x4c /opt/paparazzi/arm-multilib/lib/gcc/arm-none-eabi/4.6.2/../../../../arm-none-eabi/lib/thumb/libm.a(lib_a-wf_pow.o)
                                0x1dc (size before relaxing)
 .debug_str     0x00000a33       0x4d /opt/paparazzi/arm-multilib/lib/gcc/arm-none-eabi/4.6.2/../../../../arm-none-eabi/lib/thumb/libm.a(lib_a-wf_sqrt.o)
                                0x1de (size before relaxing)
 .debug_str     0x00000a80       0x7d /opt/paparazzi/arm-multilib/lib/gcc/arm-none-eabi/4.6.2/../../../../arm-none-eabi/lib/thumb/libm.a(lib_a-e_asin.o)
                                0x1ca (size before relaxing)
 .debug_str     0x00000afd       0x7b /opt/paparazzi/arm-multilib/lib/gcc/arm-none-eabi/4.6.2/../../../../arm-none-eabi/lib/thumb/libm.a(lib_a-e_atan2.o)
                                0x1c8 (size before relaxing)
 .debug_str     0x00000b78       0x60 /opt/paparazzi/arm-multilib/lib/gcc/arm-none-eabi/4.6.2/../../../../arm-none-eabi/lib/thumb/libm.a(lib_a-e_cosh.o)
                                0x185 (size before relaxing)
 .debug_str     0x00000bd8       0x7a /opt/paparazzi/arm-multilib/lib/gcc/arm-none-eabi/4.6.2/../../../../arm-none-eabi/lib/thumb/libm.a(lib_a-e_exp.o)
                                0x1df (size before relaxing)
 .debug_str     0x00000c52       0x72 /opt/paparazzi/arm-multilib/lib/gcc/arm-none-eabi/4.6.2/../../../../arm-none-eabi/lib/thumb/libm.a(lib_a-e_log.o)
                                0x1c9 (size before relaxing)
 .debug_str     0x00000cc4       0x9c /opt/paparazzi/arm-multilib/lib/gcc/arm-none-eabi/4.6.2/../../../../arm-none-eabi/lib/thumb/libm.a(lib_a-e_pow.o)
                                0x202 (size before relaxing)
 .debug_str     0x00000d60       0xb3 /opt/paparazzi/arm-multilib/lib/gcc/arm-none-eabi/4.6.2/../../../../arm-none-eabi/lib/thumb/libm.a(lib_a-e_rem_pio2.o)
                                0x214 (size before relaxing)
 .debug_str     0x00000e13       0x61 /opt/paparazzi/arm-multilib/lib/gcc/arm-none-eabi/4.6.2/../../../../arm-none-eabi/lib/thumb/libm.a(lib_a-e_sinh.o)
                                0x181 (size before relaxing)
 .debug_str     0x00000e74       0x5b /opt/paparazzi/arm-multilib/lib/gcc/arm-none-eabi/4.6.2/../../../../arm-none-eabi/lib/thumb/libm.a(lib_a-e_sqrt.o)
                                0x1b2 (size before relaxing)
 .debug_str     0x00000ecf       0x5d /opt/paparazzi/arm-multilib/lib/gcc/arm-none-eabi/4.6.2/../../../../arm-none-eabi/lib/thumb/libm.a(lib_a-ef_asin.o)
                                0x1c5 (size before relaxing)
 .debug_str     0x00000f2c       0x5f /opt/paparazzi/arm-multilib/lib/gcc/arm-none-eabi/4.6.2/../../../../arm-none-eabi/lib/thumb/libm.a(lib_a-ef_atan2.o)
                                0x1c3 (size before relaxing)
 .debug_str     0x00000f8b       0x62 /opt/paparazzi/arm-multilib/lib/gcc/arm-none-eabi/4.6.2/../../../../arm-none-eabi/lib/thumb/libm.a(lib_a-ef_fmod.o)
                                0x1a8 (size before relaxing)
 .debug_str     0x00000fed       0x5b /opt/paparazzi/arm-multilib/lib/gcc/arm-none-eabi/4.6.2/../../../../arm-none-eabi/lib/thumb/libm.a(lib_a-ef_pow.o)
                                0x1f8 (size before relaxing)
 .debug_str     0x00001048       0x6a /opt/paparazzi/arm-multilib/lib/gcc/arm-none-eabi/4.6.2/../../../../arm-none-eabi/lib/thumb/libm.a(lib_a-ef_rem_pio2.o)
                                0x20e (size before relaxing)
 .debug_str     0x000010b2       0x5d /opt/paparazzi/arm-multilib/lib/gcc/arm-none-eabi/4.6.2/../../../../arm-none-eabi/lib/thumb/libm.a(lib_a-ef_sqrt.o)
                                0x1a8 (size before relaxing)
 .debug_str     0x0000110f       0x58 /opt/paparazzi/arm-multilib/lib/gcc/arm-none-eabi/4.6.2/../../../../arm-none-eabi/lib/thumb/libm.a(lib_a-k_cos.o)
                                0x1a0 (size before relaxing)
 .debug_str     0x00001167       0x91 /opt/paparazzi/arm-multilib/lib/gcc/arm-none-eabi/4.6.2/../../../../arm-none-eabi/lib/thumb/libm.a(lib_a-k_rem_pio2.o)
                                0x1b1 (size before relaxing)
 .debug_str     0x000011f8       0x58 /opt/paparazzi/arm-multilib/lib/gcc/arm-none-eabi/4.6.2/../../../../arm-none-eabi/lib/thumb/libm.a(lib_a-k_sin.o)
                                0x172 (size before relaxing)
 .debug_str     0x00001250       0x64 /opt/paparazzi/arm-multilib/lib/gcc/arm-none-eabi/4.6.2/../../../../arm-none-eabi/lib/thumb/libm.a(lib_a-k_tan.o)
                                0x1b6 (size before relaxing)
 .debug_str     0x000012b4       0x5a /opt/paparazzi/arm-multilib/lib/gcc/arm-none-eabi/4.6.2/../../../../arm-none-eabi/lib/thumb/libm.a(lib_a-kf_cos.o)
                                0x16f (size before relaxing)
 .debug_str     0x0000130e       0x6a /opt/paparazzi/arm-multilib/lib/gcc/arm-none-eabi/4.6.2/../../../../arm-none-eabi/lib/thumb/libm.a(lib_a-kf_rem_pio2.o)
                                0x1b1 (size before relaxing)
 .debug_str     0x00001378       0x5a /opt/paparazzi/arm-multilib/lib/gcc/arm-none-eabi/4.6.2/../../../../arm-none-eabi/lib/thumb/libm.a(lib_a-kf_sin.o)
                                0x174 (size before relaxing)
 .debug_str     0x000013d2       0x55 /opt/paparazzi/arm-multilib/lib/gcc/arm-none-eabi/4.6.2/../../../../arm-none-eabi/lib/thumb/libm.a(lib_a-s_expm1.o)
                                0x1cf (size before relaxing)
 .debug_str     0x00001427       0x57 /opt/paparazzi/arm-multilib/lib/gcc/arm-none-eabi/4.6.2/../../../../arm-none-eabi/lib/thumb/libm.a(lib_a-s_finite.o)
                                0x179 (size before relaxing)
 .debug_str     0x0000147e       0x53 /opt/paparazzi/arm-multilib/lib/gcc/arm-none-eabi/4.6.2/../../../../arm-none-eabi/lib/thumb/libm.a(lib_a-s_floor.o)
                                0x1a5 (size before relaxing)
 .debug_str     0x000014d1       0x62 /opt/paparazzi/arm-multilib/lib/gcc/arm-none-eabi/4.6.2/../../../../arm-none-eabi/lib/thumb/libm.a(lib_a-s_fpclassify.o)
                                0x1a2 (size before relaxing)
 .debug_str     0x00001533       0x51 /opt/paparazzi/arm-multilib/lib/gcc/arm-none-eabi/4.6.2/../../../../arm-none-eabi/lib/thumb/libm.a(lib_a-s_lib_ver.o)
                                0x1b9 (size before relaxing)
 .debug_str     0x00001584       0x59 /opt/paparazzi/arm-multilib/lib/gcc/arm-none-eabi/4.6.2/../../../../arm-none-eabi/lib/thumb/libm.a(lib_a-s_matherr.o)
                                0x18b (size before relaxing)
 .debug_str     0x000015dd       0x4d /opt/paparazzi/arm-multilib/lib/gcc/arm-none-eabi/4.6.2/../../../../arm-none-eabi/lib/thumb/libm.a(lib_a-s_nan.o)
                                0x161 (size before relaxing)
 .debug_str     0x0000162a       0x5e /opt/paparazzi/arm-multilib/lib/gcc/arm-none-eabi/4.6.2/../../../../arm-none-eabi/lib/thumb/libm.a(lib_a-s_scalbn.o)
                                0x1c2 (size before relaxing)
 .debug_str     0x00001688       0x59 /opt/paparazzi/arm-multilib/lib/gcc/arm-none-eabi/4.6.2/../../../../arm-none-eabi/lib/thumb/libm.a(lib_a-sf_finite.o)
                                0x170 (size before relaxing)
 .debug_str     0x000016e1       0x53 /opt/paparazzi/arm-multilib/lib/gcc/arm-none-eabi/4.6.2/../../../../arm-none-eabi/lib/thumb/libm.a(lib_a-sf_nan.o)
                                0x167 (size before relaxing)
 .debug_str     0x00001734       0x66 /opt/paparazzi/arm-multilib/lib/gcc/arm-none-eabi/4.6.2/../../../../arm-none-eabi/lib/thumb/libm.a(lib_a-sf_scalbn.o)
                                0x1bd (size before relaxing)
 .debug_str     0x0000179a       0x5b /opt/paparazzi/arm-multilib/lib/gcc/arm-none-eabi/4.6.2/../../../../arm-none-eabi/lib/thumb/libm.a(lib_a-s_copysign.o)
                                0x19b (size before relaxing)
 .debug_str     0x000017f5       0x5d /opt/paparazzi/arm-multilib/lib/gcc/arm-none-eabi/4.6.2/../../../../arm-none-eabi/lib/thumb/libm.a(lib_a-sf_copysign.o)
                                0x19b (size before relaxing)
 .debug_str     0x00001852      0x438 /opt/paparazzi/arm-multilib/lib/gcc/arm-none-eabi/4.6.2/../../../../arm-none-eabi/lib/thumb/libc.a(lib_a-errno.o)
                                0x502 (size before relaxing)
 .debug_str     0x00001c8a       0xb4 /opt/paparazzi/arm-multilib/lib/gcc/arm-none-eabi/4.6.2/../../../../arm-none-eabi/lib/thumb/libc.a(lib_a-impure.o)
                                0x51a (size before relaxing)

.debug_loc      0x00000000     0x6961
 *(.debug_loc)
 .debug_loc     0x00000000      0x315 /opt/paparazzi/arm-multilib/lib/gcc/arm-none-eabi/4.6.2/../../../../arm-none-eabi/lib/thumb/libm.a(lib_a-s_atan.o)
 .debug_loc     0x00000315       0x90 /opt/paparazzi/arm-multilib/lib/gcc/arm-none-eabi/4.6.2/../../../../arm-none-eabi/lib/thumb/libm.a(lib_a-s_cos.o)
 .debug_loc     0x000003a5       0x18 /opt/paparazzi/arm-multilib/lib/gcc/arm-none-eabi/4.6.2/../../../../arm-none-eabi/lib/thumb/libm.a(lib_a-s_fabs.o)
 .debug_loc     0x000003bd      0x28b /opt/paparazzi/arm-multilib/lib/gcc/arm-none-eabi/4.6.2/../../../../arm-none-eabi/lib/thumb/libm.a(lib_a-s_rint.o)
 .debug_loc     0x00000648       0x90 /opt/paparazzi/arm-multilib/lib/gcc/arm-none-eabi/4.6.2/../../../../arm-none-eabi/lib/thumb/libm.a(lib_a-s_sin.o)
 .debug_loc     0x000006d8       0x90 /opt/paparazzi/arm-multilib/lib/gcc/arm-none-eabi/4.6.2/../../../../arm-none-eabi/lib/thumb/libm.a(lib_a-s_tan.o)
 .debug_loc     0x00000768      0x289 /opt/paparazzi/arm-multilib/lib/gcc/arm-none-eabi/4.6.2/../../../../arm-none-eabi/lib/thumb/libm.a(lib_a-sf_atan.o)
 .debug_loc     0x000009f1       0x85 /opt/paparazzi/arm-multilib/lib/gcc/arm-none-eabi/4.6.2/../../../../arm-none-eabi/lib/thumb/libm.a(lib_a-sf_cos.o)
 .debug_loc     0x00000a76       0x13 /opt/paparazzi/arm-multilib/lib/gcc/arm-none-eabi/4.6.2/../../../../arm-none-eabi/lib/thumb/libm.a(lib_a-sf_fabs.o)
 .debug_loc     0x00000a89      0x106 /opt/paparazzi/arm-multilib/lib/gcc/arm-none-eabi/4.6.2/../../../../arm-none-eabi/lib/thumb/libm.a(lib_a-sf_floor.o)
 .debug_loc     0x00000b8f       0x5c /opt/paparazzi/arm-multilib/lib/gcc/arm-none-eabi/4.6.2/../../../../arm-none-eabi/lib/thumb/libm.a(lib_a-sf_fmax.o)
 .debug_loc     0x00000beb       0x5c /opt/paparazzi/arm-multilib/lib/gcc/arm-none-eabi/4.6.2/../../../../arm-none-eabi/lib/thumb/libm.a(lib_a-sf_fmin.o)
 .debug_loc     0x00000c47       0x95 /opt/paparazzi/arm-multilib/lib/gcc/arm-none-eabi/4.6.2/../../../../arm-none-eabi/lib/thumb/libm.a(lib_a-sf_fpclassify.o)
 .debug_loc     0x00000cdc       0x85 /opt/paparazzi/arm-multilib/lib/gcc/arm-none-eabi/4.6.2/../../../../arm-none-eabi/lib/thumb/libm.a(lib_a-sf_sin.o)
 .debug_loc     0x00000d61       0x75 /opt/paparazzi/arm-multilib/lib/gcc/arm-none-eabi/4.6.2/../../../../arm-none-eabi/lib/thumb/libm.a(lib_a-w_asin.o)
 .debug_loc     0x00000dd6       0x50 /opt/paparazzi/arm-multilib/lib/gcc/arm-none-eabi/4.6.2/../../../../arm-none-eabi/lib/thumb/libm.a(lib_a-w_atan2.o)
 .debug_loc     0x00000e26       0x75 /opt/paparazzi/arm-multilib/lib/gcc/arm-none-eabi/4.6.2/../../../../arm-none-eabi/lib/thumb/libm.a(lib_a-w_cosh.o)
 .debug_loc     0x00000e9b       0x75 /opt/paparazzi/arm-multilib/lib/gcc/arm-none-eabi/4.6.2/../../../../arm-none-eabi/lib/thumb/libm.a(lib_a-w_exp.o)
 .debug_loc     0x00000f10       0x75 /opt/paparazzi/arm-multilib/lib/gcc/arm-none-eabi/4.6.2/../../../../arm-none-eabi/lib/thumb/libm.a(lib_a-w_log.o)
 .debug_loc     0x00000f85       0x9a /opt/paparazzi/arm-multilib/lib/gcc/arm-none-eabi/4.6.2/../../../../arm-none-eabi/lib/thumb/libm.a(lib_a-w_pow.o)
 .debug_loc     0x0000101f       0x5d /opt/paparazzi/arm-multilib/lib/gcc/arm-none-eabi/4.6.2/../../../../arm-none-eabi/lib/thumb/libm.a(lib_a-w_sinh.o)
 .debug_loc     0x0000107c       0x75 /opt/paparazzi/arm-multilib/lib/gcc/arm-none-eabi/4.6.2/../../../../arm-none-eabi/lib/thumb/libm.a(lib_a-w_sqrt.o)
 .debug_loc     0x000010f1       0x68 /opt/paparazzi/arm-multilib/lib/gcc/arm-none-eabi/4.6.2/../../../../arm-none-eabi/lib/thumb/libm.a(lib_a-wf_asin.o)
 .debug_loc     0x00001159       0x46 /opt/paparazzi/arm-multilib/lib/gcc/arm-none-eabi/4.6.2/../../../../arm-none-eabi/lib/thumb/libm.a(lib_a-wf_atan2.o)
 .debug_loc     0x0000119f       0x87 /opt/paparazzi/arm-multilib/lib/gcc/arm-none-eabi/4.6.2/../../../../arm-none-eabi/lib/thumb/libm.a(lib_a-wf_fmod.o)
 .debug_loc     0x00001226       0xd4 /opt/paparazzi/arm-multilib/lib/gcc/arm-none-eabi/4.6.2/../../../../arm-none-eabi/lib/thumb/libm.a(lib_a-wf_pow.o)
 .debug_loc     0x000012fa       0x68 /opt/paparazzi/arm-multilib/lib/gcc/arm-none-eabi/4.6.2/../../../../arm-none-eabi/lib/thumb/libm.a(lib_a-wf_sqrt.o)
 .debug_loc     0x00001362      0x1bd /opt/paparazzi/arm-multilib/lib/gcc/arm-none-eabi/4.6.2/../../../../arm-none-eabi/lib/thumb/libm.a(lib_a-e_asin.o)
 .debug_loc     0x0000151f      0x1f7 /opt/paparazzi/arm-multilib/lib/gcc/arm-none-eabi/4.6.2/../../../../arm-none-eabi/lib/thumb/libm.a(lib_a-e_atan2.o)
 .debug_loc     0x00001716      0x158 /opt/paparazzi/arm-multilib/lib/gcc/arm-none-eabi/4.6.2/../../../../arm-none-eabi/lib/thumb/libm.a(lib_a-e_cosh.o)
 .debug_loc     0x0000186e      0x24a /opt/paparazzi/arm-multilib/lib/gcc/arm-none-eabi/4.6.2/../../../../arm-none-eabi/lib/thumb/libm.a(lib_a-e_exp.o)
 .debug_loc     0x00001ab8      0x399 /opt/paparazzi/arm-multilib/lib/gcc/arm-none-eabi/4.6.2/../../../../arm-none-eabi/lib/thumb/libm.a(lib_a-e_log.o)
 .debug_loc     0x00001e51      0x9c9 /opt/paparazzi/arm-multilib/lib/gcc/arm-none-eabi/4.6.2/../../../../arm-none-eabi/lib/thumb/libm.a(lib_a-e_pow.o)
 .debug_loc     0x0000281a      0x3d8 /opt/paparazzi/arm-multilib/lib/gcc/arm-none-eabi/4.6.2/../../../../arm-none-eabi/lib/thumb/libm.a(lib_a-e_rem_pio2.o)
 .debug_loc     0x00002bf2      0x19f /opt/paparazzi/arm-multilib/lib/gcc/arm-none-eabi/4.6.2/../../../../arm-none-eabi/lib/thumb/libm.a(lib_a-e_sinh.o)
 .debug_loc     0x00002d91      0x2e5 /opt/paparazzi/arm-multilib/lib/gcc/arm-none-eabi/4.6.2/../../../../arm-none-eabi/lib/thumb/libm.a(lib_a-e_sqrt.o)
 .debug_loc     0x00003076      0x1c4 /opt/paparazzi/arm-multilib/lib/gcc/arm-none-eabi/4.6.2/../../../../arm-none-eabi/lib/thumb/libm.a(lib_a-ef_asin.o)
 .debug_loc     0x0000323a      0x31c /opt/paparazzi/arm-multilib/lib/gcc/arm-none-eabi/4.6.2/../../../../arm-none-eabi/lib/thumb/libm.a(lib_a-ef_atan2.o)
 .debug_loc     0x00003556      0x262 /opt/paparazzi/arm-multilib/lib/gcc/arm-none-eabi/4.6.2/../../../../arm-none-eabi/lib/thumb/libm.a(lib_a-ef_fmod.o)
 .debug_loc     0x000037b8      0x98f /opt/paparazzi/arm-multilib/lib/gcc/arm-none-eabi/4.6.2/../../../../arm-none-eabi/lib/thumb/libm.a(lib_a-ef_pow.o)
 .debug_loc     0x00004147      0x450 /opt/paparazzi/arm-multilib/lib/gcc/arm-none-eabi/4.6.2/../../../../arm-none-eabi/lib/thumb/libm.a(lib_a-ef_rem_pio2.o)
 .debug_loc     0x00004597      0x1af /opt/paparazzi/arm-multilib/lib/gcc/arm-none-eabi/4.6.2/../../../../arm-none-eabi/lib/thumb/libm.a(lib_a-ef_sqrt.o)
 .debug_loc     0x00004746      0x151 /opt/paparazzi/arm-multilib/lib/gcc/arm-none-eabi/4.6.2/../../../../arm-none-eabi/lib/thumb/libm.a(lib_a-k_cos.o)
 .debug_loc     0x00004897      0x790 /opt/paparazzi/arm-multilib/lib/gcc/arm-none-eabi/4.6.2/../../../../arm-none-eabi/lib/thumb/libm.a(lib_a-k_rem_pio2.o)
 .debug_loc     0x00005027       0xd4 /opt/paparazzi/arm-multilib/lib/gcc/arm-none-eabi/4.6.2/../../../../arm-none-eabi/lib/thumb/libm.a(lib_a-k_sin.o)
 .debug_loc     0x000050fb      0x3a9 /opt/paparazzi/arm-multilib/lib/gcc/arm-none-eabi/4.6.2/../../../../arm-none-eabi/lib/thumb/libm.a(lib_a-k_tan.o)
 .debug_loc     0x000054a4      0x112 /opt/paparazzi/arm-multilib/lib/gcc/arm-none-eabi/4.6.2/../../../../arm-none-eabi/lib/thumb/libm.a(lib_a-kf_cos.o)
 .debug_loc     0x000055b6      0x78c /opt/paparazzi/arm-multilib/lib/gcc/arm-none-eabi/4.6.2/../../../../arm-none-eabi/lib/thumb/libm.a(lib_a-kf_rem_pio2.o)
 .debug_loc     0x00005d42       0xfc /opt/paparazzi/arm-multilib/lib/gcc/arm-none-eabi/4.6.2/../../../../arm-none-eabi/lib/thumb/libm.a(lib_a-kf_sin.o)
 .debug_loc     0x00005e3e      0x4d3 /opt/paparazzi/arm-multilib/lib/gcc/arm-none-eabi/4.6.2/../../../../arm-none-eabi/lib/thumb/libm.a(lib_a-s_expm1.o)
 .debug_loc     0x00006311       0x2b /opt/paparazzi/arm-multilib/lib/gcc/arm-none-eabi/4.6.2/../../../../arm-none-eabi/lib/thumb/libm.a(lib_a-s_finite.o)
 .debug_loc     0x0000633c      0x14c /opt/paparazzi/arm-multilib/lib/gcc/arm-none-eabi/4.6.2/../../../../arm-none-eabi/lib/thumb/libm.a(lib_a-s_floor.o)
 .debug_loc     0x00006488       0xb7 /opt/paparazzi/arm-multilib/lib/gcc/arm-none-eabi/4.6.2/../../../../arm-none-eabi/lib/thumb/libm.a(lib_a-s_fpclassify.o)
 .debug_loc     0x0000653f       0x13 /opt/paparazzi/arm-multilib/lib/gcc/arm-none-eabi/4.6.2/../../../../arm-none-eabi/lib/thumb/libm.a(lib_a-s_matherr.o)
 .debug_loc     0x00006552       0x13 /opt/paparazzi/arm-multilib/lib/gcc/arm-none-eabi/4.6.2/../../../../arm-none-eabi/lib/thumb/libm.a(lib_a-s_nan.o)
 .debug_loc     0x00006565      0x148 /opt/paparazzi/arm-multilib/lib/gcc/arm-none-eabi/4.6.2/../../../../arm-none-eabi/lib/thumb/libm.a(lib_a-s_scalbn.o)
 .debug_loc     0x000066ad       0x2e /opt/paparazzi/arm-multilib/lib/gcc/arm-none-eabi/4.6.2/../../../../arm-none-eabi/lib/thumb/libm.a(lib_a-sf_finite.o)
 .debug_loc     0x000066db       0x13 /opt/paparazzi/arm-multilib/lib/gcc/arm-none-eabi/4.6.2/../../../../arm-none-eabi/lib/thumb/libm.a(lib_a-sf_nan.o)
 .debug_loc     0x000066ee      0x1ea /opt/paparazzi/arm-multilib/lib/gcc/arm-none-eabi/4.6.2/../../../../arm-none-eabi/lib/thumb/libm.a(lib_a-sf_scalbn.o)
 .debug_loc     0x000068d8       0x63 /opt/paparazzi/arm-multilib/lib/gcc/arm-none-eabi/4.6.2/../../../../arm-none-eabi/lib/thumb/libm.a(lib_a-s_copysign.o)
 .debug_loc     0x0000693b       0x26 /opt/paparazzi/arm-multilib/lib/gcc/arm-none-eabi/4.6.2/../../../../arm-none-eabi/lib/thumb/libm.a(lib_a-sf_copysign.o)

.debug_macinfo
 *(.debug_macinfo)

.debug_weaknames
 *(.debug_weaknames)

.debug_funcnames
 *(.debug_funcnames)

.debug_typenames
 *(.debug_typenames)

.debug_varnames
 *(.debug_varnames)
OUTPUT(/home/lionel/paparazziProto1/var/MYAC/ap/ap.elf elf32-littlearm)

.debug_ranges   0x00000000      0x338
 .debug_ranges  0x00000000       0x18 /opt/paparazzi/arm-multilib/lib/gcc/arm-none-eabi/4.6.2/../../../../arm-none-eabi/lib/thumb/libm.a(lib_a-s_atan.o)
 .debug_ranges  0x00000018       0x30 /opt/paparazzi/arm-multilib/lib/gcc/arm-none-eabi/4.6.2/../../../../arm-none-eabi/lib/thumb/libm.a(lib_a-s_rint.o)
 .debug_ranges  0x00000048       0x50 /opt/paparazzi/arm-multilib/lib/gcc/arm-none-eabi/4.6.2/../../../../arm-none-eabi/lib/thumb/libm.a(lib_a-e_atan2.o)
 .debug_ranges  0x00000098       0x18 /opt/paparazzi/arm-multilib/lib/gcc/arm-none-eabi/4.6.2/../../../../arm-none-eabi/lib/thumb/libm.a(lib_a-e_exp.o)
 .debug_ranges  0x000000b0       0x30 /opt/paparazzi/arm-multilib/lib/gcc/arm-none-eabi/4.6.2/../../../../arm-none-eabi/lib/thumb/libm.a(lib_a-e_log.o)
 .debug_ranges  0x000000e0      0x118 /opt/paparazzi/arm-multilib/lib/gcc/arm-none-eabi/4.6.2/../../../../arm-none-eabi/lib/thumb/libm.a(lib_a-e_pow.o)
 .debug_ranges  0x000001f8       0x18 /opt/paparazzi/arm-multilib/lib/gcc/arm-none-eabi/4.6.2/../../../../arm-none-eabi/lib/thumb/libm.a(lib_a-ef_asin.o)
 .debug_ranges  0x00000210       0x48 /opt/paparazzi/arm-multilib/lib/gcc/arm-none-eabi/4.6.2/../../../../arm-none-eabi/lib/thumb/libm.a(lib_a-ef_pow.o)
 .debug_ranges  0x00000258       0x30 /opt/paparazzi/arm-multilib/lib/gcc/arm-none-eabi/4.6.2/../../../../arm-none-eabi/lib/thumb/libm.a(lib_a-k_tan.o)
 .debug_ranges  0x00000288       0x30 /opt/paparazzi/arm-multilib/lib/gcc/arm-none-eabi/4.6.2/../../../../arm-none-eabi/lib/thumb/libm.a(lib_a-s_expm1.o)
 .debug_ranges  0x000002b8       0x18 /opt/paparazzi/arm-multilib/lib/gcc/arm-none-eabi/4.6.2/../../../../arm-none-eabi/lib/thumb/libm.a(lib_a-s_floor.o)
 .debug_ranges  0x000002d0       0x18 /opt/paparazzi/arm-multilib/lib/gcc/arm-none-eabi/4.6.2/../../../../arm-none-eabi/lib/thumb/libm.a(lib_a-s_fpclassify.o)
 .debug_ranges  0x000002e8       0x38 /opt/paparazzi/arm-multilib/lib/gcc/arm-none-eabi/4.6.2/../../../../arm-none-eabi/lib/thumb/libm.a(lib_a-s_scalbn.o)
 .debug_ranges  0x00000320       0x18 /opt/paparazzi/arm-multilib/lib/gcc/arm-none-eabi/4.6.2/../../../../arm-none-eabi/lib/thumb/libm.a(lib_a-sf_scalbn.o)

Cross Reference Table

Symbol                                            File
TIMER0_ISR                                        /home/lionel/paparazziProto1/var/MYAC/ap/arch/lpc21/mcu_periph/sys_time_arch.o
__adddf3                                          /opt/paparazzi/arm-multilib/lib/gcc/arm-none-eabi/4.6.2/thumb/libgcc.a(_arm_addsubdf3.o)
__addsf3                                          /opt/paparazzi/arm-multilib/lib/gcc/arm-none-eabi/4.6.2/thumb/libgcc.a(_arm_addsubsf3.o)
__aeabi_cdcmpeq                                   /opt/paparazzi/arm-multilib/lib/gcc/arm-none-eabi/4.6.2/thumb/libgcc.a(_arm_cmpdf2.o)
__aeabi_cdcmple                                   /opt/paparazzi/arm-multilib/lib/gcc/arm-none-eabi/4.6.2/thumb/libgcc.a(_arm_cmpdf2.o)
__aeabi_cdrcmple                                  /opt/paparazzi/arm-multilib/lib/gcc/arm-none-eabi/4.6.2/thumb/libgcc.a(_arm_cmpdf2.o)
__aeabi_cfcmpeq                                   /opt/paparazzi/arm-multilib/lib/gcc/arm-none-eabi/4.6.2/thumb/libgcc.a(_arm_cmpsf2.o)
__aeabi_cfcmple                                   /opt/paparazzi/arm-multilib/lib/gcc/arm-none-eabi/4.6.2/thumb/libgcc.a(_arm_cmpsf2.o)
__aeabi_cfrcmple                                  /opt/paparazzi/arm-multilib/lib/gcc/arm-none-eabi/4.6.2/thumb/libgcc.a(_arm_cmpsf2.o)
__aeabi_d2f                                       /opt/paparazzi/arm-multilib/lib/gcc/arm-none-eabi/4.6.2/thumb/libgcc.a(_arm_truncdfsf2.o)
                                                  /opt/paparazzi/arm-multilib/lib/gcc/arm-none-eabi/4.6.2/../../../../arm-none-eabi/lib/thumb/libm.a(lib_a-wf_sqrt.o)
                                                  /opt/paparazzi/arm-multilib/lib/gcc/arm-none-eabi/4.6.2/../../../../arm-none-eabi/lib/thumb/libm.a(lib_a-wf_pow.o)
                                                  /opt/paparazzi/arm-multilib/lib/gcc/arm-none-eabi/4.6.2/../../../../arm-none-eabi/lib/thumb/libm.a(lib_a-wf_fmod.o)
                                                  /opt/paparazzi/arm-multilib/lib/gcc/arm-none-eabi/4.6.2/../../../../arm-none-eabi/lib/thumb/libm.a(lib_a-wf_asin.o)
                                                  /home/lionel/paparazziProto1/var/MYAC/ap/modules/digital_cam/dc.o
                                                  /home/lionel/paparazziProto1/var/MYAC/ap/subsystems/navigation/nav_line.o
                                                  /home/lionel/paparazziProto1/var/MYAC/ap/subsystems/navigation/nav_survey_rectangle.o
                                                  /home/lionel/paparazziProto1/var/MYAC/ap/subsystems/nav.o
                                                  /home/lionel/paparazziProto1/var/MYAC/ap/subsystems/ahrs/ahrs_infrared.o
                                                  /home/lionel/paparazziProto1/var/MYAC/ap/firmwares/fixedwing/guidance/guidance_v.o
                                                  /home/lionel/paparazziProto1/var/MYAC/ap/firmwares/fixedwing/stabilization/stabilization_attitude.o
                                                  /home/lionel/paparazziProto1/var/MYAC/ap/firmwares/fixedwing/datalink.o
                                                  /home/lionel/paparazziProto1/var/MYAC/ap/./subsystems/ins/ins_alt_float.o
                                                  /home/lionel/paparazziProto1/var/MYAC/ap/state.o
                                                  /home/lionel/paparazziProto1/var/MYAC/ap/firmwares/fixedwing/main_ap.o
                                                  /home/lionel/paparazziProto1/var/MYAC/ap/firmwares/fixedwing/main_fbw.o
                                                  /home/lionel/paparazziProto1/var/MYAC/ap/math/pprz_orientation_conversion.o
                                                  /home/lionel/paparazziProto1/var/MYAC/ap/math/pprz_geodetic_double.o
                                                  /home/lionel/paparazziProto1/var/MYAC/ap/math/pprz_geodetic_float.o
__aeabi_d2iz                                      /opt/paparazzi/arm-multilib/lib/gcc/arm-none-eabi/4.6.2/thumb/libgcc.a(_arm_fixdfsi.o)
                                                  /opt/paparazzi/arm-multilib/lib/gcc/arm-none-eabi/4.6.2/../../../../arm-none-eabi/lib/thumb/libm.a(lib_a-s_expm1.o)
                                                  /opt/paparazzi/arm-multilib/lib/gcc/arm-none-eabi/4.6.2/../../../../arm-none-eabi/lib/thumb/libm.a(lib_a-k_tan.o)
                                                  /opt/paparazzi/arm-multilib/lib/gcc/arm-none-eabi/4.6.2/../../../../arm-none-eabi/lib/thumb/libm.a(lib_a-k_sin.o)
                                                  /opt/paparazzi/arm-multilib/lib/gcc/arm-none-eabi/4.6.2/../../../../arm-none-eabi/lib/thumb/libm.a(lib_a-k_rem_pio2.o)
                                                  /opt/paparazzi/arm-multilib/lib/gcc/arm-none-eabi/4.6.2/../../../../arm-none-eabi/lib/thumb/libm.a(lib_a-k_cos.o)
                                                  /opt/paparazzi/arm-multilib/lib/gcc/arm-none-eabi/4.6.2/../../../../arm-none-eabi/lib/thumb/libm.a(lib_a-e_rem_pio2.o)
                                                  /opt/paparazzi/arm-multilib/lib/gcc/arm-none-eabi/4.6.2/../../../../arm-none-eabi/lib/thumb/libm.a(lib_a-e_exp.o)
                                                  /home/lionel/paparazziProto1/var/MYAC/ap/modules/digital_cam/dc.o
                                                  /home/lionel/paparazziProto1/var/MYAC/ap/subsystems/gps/gps_ubx.o
                                                  /home/lionel/paparazziProto1/var/MYAC/ap/state.o
                                                  /home/lionel/paparazziProto1/var/MYAC/ap/firmwares/fixedwing/main_ap.o
                                                  /home/lionel/paparazziProto1/var/MYAC/ap/subsystems/electrical.o
                                                  /home/lionel/paparazziProto1/var/MYAC/ap/firmwares/fixedwing/main_fbw.o
                                                  /home/lionel/paparazziProto1/var/MYAC/ap/math/pprz_orientation_conversion.o
                                                  /home/lionel/paparazziProto1/var/MYAC/ap/math/pprz_geodetic_int.o
__aeabi_d2uiz                                     /opt/paparazzi/arm-multilib/lib/gcc/arm-none-eabi/4.6.2/thumb/libgcc.a(_arm_fixunsdfsi.o)
                                                  /home/lionel/paparazziProto1/var/MYAC/ap/subsystems/gps/gps_ubx.o
                                                  /home/lionel/paparazziProto1/var/MYAC/ap/firmwares/fixedwing/datalink.o
                                                  /home/lionel/paparazziProto1/var/MYAC/ap/firmwares/fixedwing/main_ap.o
                                                  /home/lionel/paparazziProto1/var/MYAC/ap/subsystems/electrical.o
                                                  /home/lionel/paparazziProto1/var/MYAC/ap/firmwares/fixedwing/main_fbw.o
                                                  /home/lionel/paparazziProto1/var/MYAC/ap/mcu_periph/sys_time.o
__aeabi_dadd                                      /opt/paparazzi/arm-multilib/lib/gcc/arm-none-eabi/4.6.2/thumb/libgcc.a(_arm_addsubdf3.o)
                                                  /opt/paparazzi/arm-multilib/lib/gcc/arm-none-eabi/4.6.2/../../../../arm-none-eabi/lib/thumb/libm.a(lib_a-s_scalbn.o)
                                                  /opt/paparazzi/arm-multilib/lib/gcc/arm-none-eabi/4.6.2/../../../../arm-none-eabi/lib/thumb/libm.a(lib_a-s_floor.o)
                                                  /opt/paparazzi/arm-multilib/lib/gcc/arm-none-eabi/4.6.2/../../../../arm-none-eabi/lib/thumb/libm.a(lib_a-s_expm1.o)
                                                  /opt/paparazzi/arm-multilib/lib/gcc/arm-none-eabi/4.6.2/../../../../arm-none-eabi/lib/thumb/libm.a(lib_a-k_tan.o)
                                                  /opt/paparazzi/arm-multilib/lib/gcc/arm-none-eabi/4.6.2/../../../../arm-none-eabi/lib/thumb/libm.a(lib_a-k_sin.o)
                                                  /opt/paparazzi/arm-multilib/lib/gcc/arm-none-eabi/4.6.2/../../../../arm-none-eabi/lib/thumb/libm.a(lib_a-k_rem_pio2.o)
                                                  /opt/paparazzi/arm-multilib/lib/gcc/arm-none-eabi/4.6.2/../../../../arm-none-eabi/lib/thumb/libm.a(lib_a-k_cos.o)
                                                  /opt/paparazzi/arm-multilib/lib/gcc/arm-none-eabi/4.6.2/../../../../arm-none-eabi/lib/thumb/libm.a(lib_a-e_sqrt.o)
                                                  /opt/paparazzi/arm-multilib/lib/gcc/arm-none-eabi/4.6.2/../../../../arm-none-eabi/lib/thumb/libm.a(lib_a-e_sinh.o)
                                                  /opt/paparazzi/arm-multilib/lib/gcc/arm-none-eabi/4.6.2/../../../../arm-none-eabi/lib/thumb/libm.a(lib_a-e_rem_pio2.o)
                                                  /opt/paparazzi/arm-multilib/lib/gcc/arm-none-eabi/4.6.2/../../../../arm-none-eabi/lib/thumb/libm.a(lib_a-e_pow.o)
                                                  /opt/paparazzi/arm-multilib/lib/gcc/arm-none-eabi/4.6.2/../../../../arm-none-eabi/lib/thumb/libm.a(lib_a-e_log.o)
                                                  /opt/paparazzi/arm-multilib/lib/gcc/arm-none-eabi/4.6.2/../../../../arm-none-eabi/lib/thumb/libm.a(lib_a-e_exp.o)
                                                  /opt/paparazzi/arm-multilib/lib/gcc/arm-none-eabi/4.6.2/../../../../arm-none-eabi/lib/thumb/libm.a(lib_a-e_cosh.o)
                                                  /opt/paparazzi/arm-multilib/lib/gcc/arm-none-eabi/4.6.2/../../../../arm-none-eabi/lib/thumb/libm.a(lib_a-e_atan2.o)
                                                  /opt/paparazzi/arm-multilib/lib/gcc/arm-none-eabi/4.6.2/../../../../arm-none-eabi/lib/thumb/libm.a(lib_a-e_asin.o)
                                                  /opt/paparazzi/arm-multilib/lib/gcc/arm-none-eabi/4.6.2/../../../../arm-none-eabi/lib/thumb/libm.a(lib_a-s_rint.o)
                                                  /opt/paparazzi/arm-multilib/lib/gcc/arm-none-eabi/4.6.2/../../../../arm-none-eabi/lib/thumb/libm.a(lib_a-s_atan.o)
                                                  /home/lionel/paparazziProto1/var/MYAC/ap/subsystems/navigation/nav_line.o
                                                  /home/lionel/paparazziProto1/var/MYAC/ap/subsystems/navigation/nav_survey_rectangle.o
                                                  /home/lionel/paparazziProto1/var/MYAC/ap/subsystems/nav.o
                                                  /home/lionel/paparazziProto1/var/MYAC/ap/subsystems/ahrs/ahrs_infrared.o
                                                  /home/lionel/paparazziProto1/var/MYAC/ap/firmwares/fixedwing/guidance/guidance_v.o
                                                  /home/lionel/paparazziProto1/var/MYAC/ap/firmwares/fixedwing/stabilization/stabilization_attitude.o
                                                  /home/lionel/paparazziProto1/var/MYAC/ap/firmwares/fixedwing/main_ap.o
                                                  /home/lionel/paparazziProto1/var/MYAC/ap/firmwares/fixedwing/main_fbw.o
                                                  /home/lionel/paparazziProto1/var/MYAC/ap/math/pprz_orientation_conversion.o
                                                  /home/lionel/paparazziProto1/var/MYAC/ap/math/pprz_geodetic_double.o
                                                  /home/lionel/paparazziProto1/var/MYAC/ap/math/pprz_geodetic_float.o
                                                  /home/lionel/paparazziProto1/var/MYAC/ap/mcu_periph/sys_time.o
__aeabi_dcmpeq                                    /opt/paparazzi/arm-multilib/lib/gcc/arm-none-eabi/4.6.2/thumb/libgcc.a(_arm_cmpdf2.o)
                                                  /opt/paparazzi/arm-multilib/lib/gcc/arm-none-eabi/4.6.2/../../../../arm-none-eabi/lib/thumb/libm.a(lib_a-k_rem_pio2.o)
                                                  /opt/paparazzi/arm-multilib/lib/gcc/arm-none-eabi/4.6.2/../../../../arm-none-eabi/lib/thumb/libm.a(lib_a-e_rem_pio2.o)
                                                  /opt/paparazzi/arm-multilib/lib/gcc/arm-none-eabi/4.6.2/../../../../arm-none-eabi/lib/thumb/libm.a(lib_a-e_log.o)
                                                  /opt/paparazzi/arm-multilib/lib/gcc/arm-none-eabi/4.6.2/../../../../arm-none-eabi/lib/thumb/libm.a(lib_a-wf_pow.o)
                                                  /opt/paparazzi/arm-multilib/lib/gcc/arm-none-eabi/4.6.2/../../../../arm-none-eabi/lib/thumb/libm.a(lib_a-w_pow.o)
                                                  /opt/paparazzi/arm-multilib/lib/gcc/arm-none-eabi/4.6.2/../../../../arm-none-eabi/lib/thumb/libm.a(lib_a-w_log.o)
__aeabi_dcmpge                                    /opt/paparazzi/arm-multilib/lib/gcc/arm-none-eabi/4.6.2/thumb/libgcc.a(_arm_cmpdf2.o)
                                                  /opt/paparazzi/arm-multilib/lib/gcc/arm-none-eabi/4.6.2/../../../../arm-none-eabi/lib/thumb/libm.a(lib_a-k_rem_pio2.o)
__aeabi_dcmpgt                                    /opt/paparazzi/arm-multilib/lib/gcc/arm-none-eabi/4.6.2/thumb/libgcc.a(_arm_cmpdf2.o)
                                                  /opt/paparazzi/arm-multilib/lib/gcc/arm-none-eabi/4.6.2/../../../../arm-none-eabi/lib/thumb/libm.a(lib_a-s_floor.o)
                                                  /opt/paparazzi/arm-multilib/lib/gcc/arm-none-eabi/4.6.2/../../../../arm-none-eabi/lib/thumb/libm.a(lib_a-s_expm1.o)
                                                  /opt/paparazzi/arm-multilib/lib/gcc/arm-none-eabi/4.6.2/../../../../arm-none-eabi/lib/thumb/libm.a(lib_a-e_sinh.o)
                                                  /opt/paparazzi/arm-multilib/lib/gcc/arm-none-eabi/4.6.2/../../../../arm-none-eabi/lib/thumb/libm.a(lib_a-e_pow.o)
                                                  /opt/paparazzi/arm-multilib/lib/gcc/arm-none-eabi/4.6.2/../../../../arm-none-eabi/lib/thumb/libm.a(lib_a-e_exp.o)
                                                  /opt/paparazzi/arm-multilib/lib/gcc/arm-none-eabi/4.6.2/../../../../arm-none-eabi/lib/thumb/libm.a(lib_a-e_asin.o)
                                                  /opt/paparazzi/arm-multilib/lib/gcc/arm-none-eabi/4.6.2/../../../../arm-none-eabi/lib/thumb/libm.a(lib_a-w_sinh.o)
                                                  /opt/paparazzi/arm-multilib/lib/gcc/arm-none-eabi/4.6.2/../../../../arm-none-eabi/lib/thumb/libm.a(lib_a-w_log.o)
                                                  /opt/paparazzi/arm-multilib/lib/gcc/arm-none-eabi/4.6.2/../../../../arm-none-eabi/lib/thumb/libm.a(lib_a-w_exp.o)
                                                  /opt/paparazzi/arm-multilib/lib/gcc/arm-none-eabi/4.6.2/../../../../arm-none-eabi/lib/thumb/libm.a(lib_a-w_cosh.o)
                                                  /opt/paparazzi/arm-multilib/lib/gcc/arm-none-eabi/4.6.2/../../../../arm-none-eabi/lib/thumb/libm.a(lib_a-w_asin.o)
                                                  /opt/paparazzi/arm-multilib/lib/gcc/arm-none-eabi/4.6.2/../../../../arm-none-eabi/lib/thumb/libm.a(lib_a-s_atan.o)
                                                  /home/lionel/paparazziProto1/var/MYAC/ap/subsystems/navigation/nav_survey_rectangle.o
                                                  /home/lionel/paparazziProto1/var/MYAC/ap/subsystems/nav.o
                                                  /home/lionel/paparazziProto1/var/MYAC/ap/subsystems/ahrs/ahrs_infrared.o
                                                  /home/lionel/paparazziProto1/var/MYAC/ap/firmwares/fixedwing/guidance/guidance_v.o
                                                  /home/lionel/paparazziProto1/var/MYAC/ap/firmwares/fixedwing/stabilization/stabilization_attitude.o
                                                  /home/lionel/paparazziProto1/var/MYAC/ap/./subsystems/ins/ins_alt_float.o
                                                  /home/lionel/paparazziProto1/var/MYAC/ap/firmwares/fixedwing/main_ap.o
                                                  /home/lionel/paparazziProto1/var/MYAC/ap/math/pprz_geodetic_double.o
__aeabi_dcmple                                    /opt/paparazzi/arm-multilib/lib/gcc/arm-none-eabi/4.6.2/thumb/libgcc.a(_arm_cmpdf2.o)
                                                  /opt/paparazzi/arm-multilib/lib/gcc/arm-none-eabi/4.6.2/../../../../arm-none-eabi/lib/thumb/libm.a(lib_a-e_pow.o)
__aeabi_dcmplt                                    /opt/paparazzi/arm-multilib/lib/gcc/arm-none-eabi/4.6.2/thumb/libgcc.a(_arm_cmpdf2.o)
                                                  /opt/paparazzi/arm-multilib/lib/gcc/arm-none-eabi/4.6.2/../../../../arm-none-eabi/lib/thumb/libm.a(lib_a-s_expm1.o)
                                                  /opt/paparazzi/arm-multilib/lib/gcc/arm-none-eabi/4.6.2/../../../../arm-none-eabi/lib/thumb/libm.a(lib_a-e_exp.o)
                                                  /opt/paparazzi/arm-multilib/lib/gcc/arm-none-eabi/4.6.2/../../../../arm-none-eabi/lib/thumb/libm.a(lib_a-w_sqrt.o)
                                                  /opt/paparazzi/arm-multilib/lib/gcc/arm-none-eabi/4.6.2/../../../../arm-none-eabi/lib/thumb/libm.a(lib_a-w_pow.o)
                                                  /opt/paparazzi/arm-multilib/lib/gcc/arm-none-eabi/4.6.2/../../../../arm-none-eabi/lib/thumb/libm.a(lib_a-w_exp.o)
                                                  /home/lionel/paparazziProto1/var/MYAC/ap/subsystems/navigation/nav_survey_rectangle.o
                                                  /home/lionel/paparazziProto1/var/MYAC/ap/subsystems/nav.o
                                                  /home/lionel/paparazziProto1/var/MYAC/ap/subsystems/ahrs/ahrs_infrared.o
                                                  /home/lionel/paparazziProto1/var/MYAC/ap/firmwares/fixedwing/guidance/guidance_v.o
                                                  /home/lionel/paparazziProto1/var/MYAC/ap/firmwares/fixedwing/stabilization/stabilization_attitude.o
                                                  /home/lionel/paparazziProto1/var/MYAC/ap/firmwares/fixedwing/main_ap.o
__aeabi_ddiv                                      /opt/paparazzi/arm-multilib/lib/gcc/arm-none-eabi/4.6.2/thumb/libgcc.a(_arm_muldivdf3.o)
                                                  /opt/paparazzi/arm-multilib/lib/gcc/arm-none-eabi/4.6.2/../../../../arm-none-eabi/lib/thumb/libm.a(lib_a-s_expm1.o)
                                                  /opt/paparazzi/arm-multilib/lib/gcc/arm-none-eabi/4.6.2/../../../../arm-none-eabi/lib/thumb/libm.a(lib_a-k_tan.o)
                                                  /opt/paparazzi/arm-multilib/lib/gcc/arm-none-eabi/4.6.2/../../../../arm-none-eabi/lib/thumb/libm.a(lib_a-e_sqrt.o)
                                                  /opt/paparazzi/arm-multilib/lib/gcc/arm-none-eabi/4.6.2/../../../../arm-none-eabi/lib/thumb/libm.a(lib_a-e_sinh.o)
                                                  /opt/paparazzi/arm-multilib/lib/gcc/arm-none-eabi/4.6.2/../../../../arm-none-eabi/lib/thumb/libm.a(lib_a-e_pow.o)
                                                  /opt/paparazzi/arm-multilib/lib/gcc/arm-none-eabi/4.6.2/../../../../arm-none-eabi/lib/thumb/libm.a(lib_a-e_log.o)
                                                  /opt/paparazzi/arm-multilib/lib/gcc/arm-none-eabi/4.6.2/../../../../arm-none-eabi/lib/thumb/libm.a(lib_a-e_exp.o)
                                                  /opt/paparazzi/arm-multilib/lib/gcc/arm-none-eabi/4.6.2/../../../../arm-none-eabi/lib/thumb/libm.a(lib_a-e_cosh.o)
                                                  /opt/paparazzi/arm-multilib/lib/gcc/arm-none-eabi/4.6.2/../../../../arm-none-eabi/lib/thumb/libm.a(lib_a-e_atan2.o)
                                                  /opt/paparazzi/arm-multilib/lib/gcc/arm-none-eabi/4.6.2/../../../../arm-none-eabi/lib/thumb/libm.a(lib_a-e_asin.o)
                                                  /opt/paparazzi/arm-multilib/lib/gcc/arm-none-eabi/4.6.2/../../../../arm-none-eabi/lib/thumb/libm.a(lib_a-wf_sqrt.o)
                                                  /opt/paparazzi/arm-multilib/lib/gcc/arm-none-eabi/4.6.2/../../../../arm-none-eabi/lib/thumb/libm.a(lib_a-wf_pow.o)
                                                  /opt/paparazzi/arm-multilib/lib/gcc/arm-none-eabi/4.6.2/../../../../arm-none-eabi/lib/thumb/libm.a(lib_a-wf_fmod.o)
                                                  /opt/paparazzi/arm-multilib/lib/gcc/arm-none-eabi/4.6.2/../../../../arm-none-eabi/lib/thumb/libm.a(lib_a-w_sqrt.o)
                                                  /opt/paparazzi/arm-multilib/lib/gcc/arm-none-eabi/4.6.2/../../../../arm-none-eabi/lib/thumb/libm.a(lib_a-w_pow.o)
                                                  /opt/paparazzi/arm-multilib/lib/gcc/arm-none-eabi/4.6.2/../../../../arm-none-eabi/lib/thumb/libm.a(lib_a-s_atan.o)
                                                  /home/lionel/paparazziProto1/var/MYAC/ap/modules/digital_cam/dc.o
                                                  /home/lionel/paparazziProto1/var/MYAC/ap/subsystems/nav.o
                                                  /home/lionel/paparazziProto1/var/MYAC/ap/subsystems/ahrs/ahrs_infrared.o
                                                  /home/lionel/paparazziProto1/var/MYAC/ap/firmwares/fixedwing/guidance/guidance_v.o
                                                  /home/lionel/paparazziProto1/var/MYAC/ap/firmwares/fixedwing/stabilization/stabilization_attitude.o
                                                  /home/lionel/paparazziProto1/var/MYAC/ap/firmwares/fixedwing/datalink.o
                                                  /home/lionel/paparazziProto1/var/MYAC/ap/./subsystems/ins/ins_alt_float.o
                                                  /home/lionel/paparazziProto1/var/MYAC/ap/state.o
                                                  /home/lionel/paparazziProto1/var/MYAC/ap/firmwares/fixedwing/main_ap.o
                                                  /home/lionel/paparazziProto1/var/MYAC/ap/subsystems/electrical.o
                                                  /home/lionel/paparazziProto1/var/MYAC/ap/math/pprz_geodetic_double.o
                                                  /home/lionel/paparazziProto1/var/MYAC/ap/math/pprz_geodetic_float.o
                                                  /home/lionel/paparazziProto1/var/MYAC/ap/math/pprz_geodetic_int.o
                                                  /home/lionel/paparazziProto1/var/MYAC/ap/mcu_periph/sys_time.o
__aeabi_dmul                                      /opt/paparazzi/arm-multilib/lib/gcc/arm-none-eabi/4.6.2/thumb/libgcc.a(_arm_muldivdf3.o)
                                                  /opt/paparazzi/arm-multilib/lib/gcc/arm-none-eabi/4.6.2/../../../../arm-none-eabi/lib/thumb/libm.a(lib_a-s_scalbn.o)
                                                  /opt/paparazzi/arm-multilib/lib/gcc/arm-none-eabi/4.6.2/../../../../arm-none-eabi/lib/thumb/libm.a(lib_a-s_expm1.o)
                                                  /opt/paparazzi/arm-multilib/lib/gcc/arm-none-eabi/4.6.2/../../../../arm-none-eabi/lib/thumb/libm.a(lib_a-k_tan.o)
                                                  /opt/paparazzi/arm-multilib/lib/gcc/arm-none-eabi/4.6.2/../../../../arm-none-eabi/lib/thumb/libm.a(lib_a-k_sin.o)
                                                  /opt/paparazzi/arm-multilib/lib/gcc/arm-none-eabi/4.6.2/../../../../arm-none-eabi/lib/thumb/libm.a(lib_a-k_rem_pio2.o)
                                                  /opt/paparazzi/arm-multilib/lib/gcc/arm-none-eabi/4.6.2/../../../../arm-none-eabi/lib/thumb/libm.a(lib_a-k_cos.o)
                                                  /opt/paparazzi/arm-multilib/lib/gcc/arm-none-eabi/4.6.2/../../../../arm-none-eabi/lib/thumb/libm.a(lib_a-e_sqrt.o)
                                                  /opt/paparazzi/arm-multilib/lib/gcc/arm-none-eabi/4.6.2/../../../../arm-none-eabi/lib/thumb/libm.a(lib_a-e_sinh.o)
                                                  /opt/paparazzi/arm-multilib/lib/gcc/arm-none-eabi/4.6.2/../../../../arm-none-eabi/lib/thumb/libm.a(lib_a-e_rem_pio2.o)
                                                  /opt/paparazzi/arm-multilib/lib/gcc/arm-none-eabi/4.6.2/../../../../arm-none-eabi/lib/thumb/libm.a(lib_a-e_pow.o)
                                                  /opt/paparazzi/arm-multilib/lib/gcc/arm-none-eabi/4.6.2/../../../../arm-none-eabi/lib/thumb/libm.a(lib_a-e_log.o)
                                                  /opt/paparazzi/arm-multilib/lib/gcc/arm-none-eabi/4.6.2/../../../../arm-none-eabi/lib/thumb/libm.a(lib_a-e_exp.o)
                                                  /opt/paparazzi/arm-multilib/lib/gcc/arm-none-eabi/4.6.2/../../../../arm-none-eabi/lib/thumb/libm.a(lib_a-e_cosh.o)
                                                  /opt/paparazzi/arm-multilib/lib/gcc/arm-none-eabi/4.6.2/../../../../arm-none-eabi/lib/thumb/libm.a(lib_a-e_asin.o)
                                                  /opt/paparazzi/arm-multilib/lib/gcc/arm-none-eabi/4.6.2/../../../../arm-none-eabi/lib/thumb/libm.a(lib_a-w_pow.o)
                                                  /opt/paparazzi/arm-multilib/lib/gcc/arm-none-eabi/4.6.2/../../../../arm-none-eabi/lib/thumb/libm.a(lib_a-s_atan.o)
                                                  /home/lionel/paparazziProto1/var/MYAC/ap/modules/digital_cam/dc.o
                                                  /home/lionel/paparazziProto1/var/MYAC/ap/subsystems/navigation/nav_line.o
                                                  /home/lionel/paparazziProto1/var/MYAC/ap/subsystems/navigation/nav_survey_rectangle.o
                                                  /home/lionel/paparazziProto1/var/MYAC/ap/subsystems/nav.o
                                                  /home/lionel/paparazziProto1/var/MYAC/ap/subsystems/gps/gps_ubx.o
                                                  /home/lionel/paparazziProto1/var/MYAC/ap/firmwares/fixedwing/guidance/guidance_v.o
                                                  /home/lionel/paparazziProto1/var/MYAC/ap/firmwares/fixedwing/stabilization/stabilization_attitude.o
                                                  /home/lionel/paparazziProto1/var/MYAC/ap/firmwares/fixedwing/datalink.o
                                                  /home/lionel/paparazziProto1/var/MYAC/ap/state.o
                                                  /home/lionel/paparazziProto1/var/MYAC/ap/firmwares/fixedwing/main_ap.o
                                                  /home/lionel/paparazziProto1/var/MYAC/ap/subsystems/electrical.o
                                                  /home/lionel/paparazziProto1/var/MYAC/ap/firmwares/fixedwing/main_fbw.o
                                                  /home/lionel/paparazziProto1/var/MYAC/ap/math/pprz_orientation_conversion.o
                                                  /home/lionel/paparazziProto1/var/MYAC/ap/math/pprz_geodetic_double.o
                                                  /home/lionel/paparazziProto1/var/MYAC/ap/math/pprz_geodetic_float.o
                                                  /home/lionel/paparazziProto1/var/MYAC/ap/math/pprz_geodetic_int.o
__aeabi_drsub                                     /opt/paparazzi/arm-multilib/lib/gcc/arm-none-eabi/4.6.2/thumb/libgcc.a(_arm_addsubdf3.o)
__aeabi_dsub                                      /opt/paparazzi/arm-multilib/lib/gcc/arm-none-eabi/4.6.2/thumb/libgcc.a(_arm_addsubdf3.o)
                                                  /opt/paparazzi/arm-multilib/lib/gcc/arm-none-eabi/4.6.2/../../../../arm-none-eabi/lib/thumb/libm.a(lib_a-s_expm1.o)
                                                  /opt/paparazzi/arm-multilib/lib/gcc/arm-none-eabi/4.6.2/../../../../arm-none-eabi/lib/thumb/libm.a(lib_a-k_tan.o)
                                                  /opt/paparazzi/arm-multilib/lib/gcc/arm-none-eabi/4.6.2/../../../../arm-none-eabi/lib/thumb/libm.a(lib_a-k_sin.o)
                                                  /opt/paparazzi/arm-multilib/lib/gcc/arm-none-eabi/4.6.2/../../../../arm-none-eabi/lib/thumb/libm.a(lib_a-k_rem_pio2.o)
                                                  /opt/paparazzi/arm-multilib/lib/gcc/arm-none-eabi/4.6.2/../../../../arm-none-eabi/lib/thumb/libm.a(lib_a-k_cos.o)
                                                  /opt/paparazzi/arm-multilib/lib/gcc/arm-none-eabi/4.6.2/../../../../arm-none-eabi/lib/thumb/libm.a(lib_a-e_sqrt.o)
                                                  /opt/paparazzi/arm-multilib/lib/gcc/arm-none-eabi/4.6.2/../../../../arm-none-eabi/lib/thumb/libm.a(lib_a-e_sinh.o)
                                                  /opt/paparazzi/arm-multilib/lib/gcc/arm-none-eabi/4.6.2/../../../../arm-none-eabi/lib/thumb/libm.a(lib_a-e_rem_pio2.o)
                                                  /opt/paparazzi/arm-multilib/lib/gcc/arm-none-eabi/4.6.2/../../../../arm-none-eabi/lib/thumb/libm.a(lib_a-e_pow.o)
                                                  /opt/paparazzi/arm-multilib/lib/gcc/arm-none-eabi/4.6.2/../../../../arm-none-eabi/lib/thumb/libm.a(lib_a-e_log.o)
                                                  /opt/paparazzi/arm-multilib/lib/gcc/arm-none-eabi/4.6.2/../../../../arm-none-eabi/lib/thumb/libm.a(lib_a-e_exp.o)
                                                  /opt/paparazzi/arm-multilib/lib/gcc/arm-none-eabi/4.6.2/../../../../arm-none-eabi/lib/thumb/libm.a(lib_a-e_atan2.o)
                                                  /opt/paparazzi/arm-multilib/lib/gcc/arm-none-eabi/4.6.2/../../../../arm-none-eabi/lib/thumb/libm.a(lib_a-e_asin.o)
                                                  /opt/paparazzi/arm-multilib/lib/gcc/arm-none-eabi/4.6.2/../../../../arm-none-eabi/lib/thumb/libm.a(lib_a-s_tan.o)
                                                  /opt/paparazzi/arm-multilib/lib/gcc/arm-none-eabi/4.6.2/../../../../arm-none-eabi/lib/thumb/libm.a(lib_a-s_sin.o)
                                                  /opt/paparazzi/arm-multilib/lib/gcc/arm-none-eabi/4.6.2/../../../../arm-none-eabi/lib/thumb/libm.a(lib_a-s_rint.o)
                                                  /opt/paparazzi/arm-multilib/lib/gcc/arm-none-eabi/4.6.2/../../../../arm-none-eabi/lib/thumb/libm.a(lib_a-s_cos.o)
                                                  /opt/paparazzi/arm-multilib/lib/gcc/arm-none-eabi/4.6.2/../../../../arm-none-eabi/lib/thumb/libm.a(lib_a-s_atan.o)
                                                  /home/lionel/paparazziProto1/var/MYAC/ap/subsystems/navigation/nav_line.o
                                                  /home/lionel/paparazziProto1/var/MYAC/ap/subsystems/navigation/nav_survey_rectangle.o
                                                  /home/lionel/paparazziProto1/var/MYAC/ap/subsystems/nav.o
                                                  /home/lionel/paparazziProto1/var/MYAC/ap/subsystems/ahrs/ahrs_infrared.o
                                                  /home/lionel/paparazziProto1/var/MYAC/ap/firmwares/fixedwing/guidance/guidance_v.o
                                                  /home/lionel/paparazziProto1/var/MYAC/ap/firmwares/fixedwing/stabilization/stabilization_attitude.o
                                                  /home/lionel/paparazziProto1/var/MYAC/ap/firmwares/fixedwing/main_ap.o
                                                  /home/lionel/paparazziProto1/var/MYAC/ap/subsystems/electrical.o
                                                  /home/lionel/paparazziProto1/var/MYAC/ap/math/pprz_orientation_conversion.o
                                                  /home/lionel/paparazziProto1/var/MYAC/ap/math/pprz_geodetic_double.o
                                                  /home/lionel/paparazziProto1/var/MYAC/ap/math/pprz_geodetic_float.o
__aeabi_f2d                                       /opt/paparazzi/arm-multilib/lib/gcc/arm-none-eabi/4.6.2/thumb/libgcc.a(_arm_addsubdf3.o)
                                                  /opt/paparazzi/arm-multilib/lib/gcc/arm-none-eabi/4.6.2/../../../../arm-none-eabi/lib/thumb/libm.a(lib_a-wf_sqrt.o)
                                                  /opt/paparazzi/arm-multilib/lib/gcc/arm-none-eabi/4.6.2/../../../../arm-none-eabi/lib/thumb/libm.a(lib_a-wf_pow.o)
                                                  /opt/paparazzi/arm-multilib/lib/gcc/arm-none-eabi/4.6.2/../../../../arm-none-eabi/lib/thumb/libm.a(lib_a-wf_fmod.o)
                                                  /opt/paparazzi/arm-multilib/lib/gcc/arm-none-eabi/4.6.2/../../../../arm-none-eabi/lib/thumb/libm.a(lib_a-wf_asin.o)
                                                  /home/lionel/paparazziProto1/var/MYAC/ap/modules/digital_cam/dc.o
                                                  /home/lionel/paparazziProto1/var/MYAC/ap/subsystems/navigation/nav_line.o
                                                  /home/lionel/paparazziProto1/var/MYAC/ap/subsystems/navigation/nav_survey_rectangle.o
                                                  /home/lionel/paparazziProto1/var/MYAC/ap/subsystems/nav.o
                                                  /home/lionel/paparazziProto1/var/MYAC/ap/subsystems/ahrs/ahrs_infrared.o
                                                  /home/lionel/paparazziProto1/var/MYAC/ap/firmwares/fixedwing/guidance/guidance_v.o
                                                  /home/lionel/paparazziProto1/var/MYAC/ap/firmwares/fixedwing/stabilization/stabilization_attitude.o
                                                  /home/lionel/paparazziProto1/var/MYAC/ap/firmwares/fixedwing/datalink.o
                                                  /home/lionel/paparazziProto1/var/MYAC/ap/./subsystems/ins/ins_alt_float.o
                                                  /home/lionel/paparazziProto1/var/MYAC/ap/state.o
                                                  /home/lionel/paparazziProto1/var/MYAC/ap/firmwares/fixedwing/main_ap.o
                                                  /home/lionel/paparazziProto1/var/MYAC/ap/subsystems/electrical.o
                                                  /home/lionel/paparazziProto1/var/MYAC/ap/firmwares/fixedwing/main_fbw.o
                                                  /home/lionel/paparazziProto1/var/MYAC/ap/math/pprz_orientation_conversion.o
                                                  /home/lionel/paparazziProto1/var/MYAC/ap/math/pprz_geodetic_double.o
                                                  /home/lionel/paparazziProto1/var/MYAC/ap/math/pprz_geodetic_float.o
                                                  /home/lionel/paparazziProto1/var/MYAC/ap/math/pprz_geodetic_int.o
                                                  /home/lionel/paparazziProto1/var/MYAC/ap/mcu_periph/sys_time.o
__aeabi_f2iz                                      /opt/paparazzi/arm-multilib/lib/gcc/arm-none-eabi/4.6.2/thumb/libgcc.a(_arm_fixsfsi.o)
                                                  /opt/paparazzi/arm-multilib/lib/gcc/arm-none-eabi/4.6.2/../../../../arm-none-eabi/lib/thumb/libm.a(lib_a-kf_sin.o)
                                                  /opt/paparazzi/arm-multilib/lib/gcc/arm-none-eabi/4.6.2/../../../../arm-none-eabi/lib/thumb/libm.a(lib_a-kf_rem_pio2.o)
                                                  /opt/paparazzi/arm-multilib/lib/gcc/arm-none-eabi/4.6.2/../../../../arm-none-eabi/lib/thumb/libm.a(lib_a-kf_cos.o)
                                                  /opt/paparazzi/arm-multilib/lib/gcc/arm-none-eabi/4.6.2/../../../../arm-none-eabi/lib/thumb/libm.a(lib_a-ef_rem_pio2.o)
                                                  /home/lionel/paparazziProto1/var/MYAC/ap/subsystems/sensors/infrared_adc.o
                                                  /home/lionel/paparazziProto1/var/MYAC/ap/firmwares/fixedwing/guidance/guidance_v.o
                                                  /home/lionel/paparazziProto1/var/MYAC/ap/firmwares/fixedwing/stabilization/stabilization_attitude.o
                                                  /home/lionel/paparazziProto1/var/MYAC/ap/state.o
                                                  /home/lionel/paparazziProto1/var/MYAC/ap/firmwares/fixedwing/main_ap.o
                                                  /home/lionel/paparazziProto1/var/MYAC/ap/firmwares/fixedwing/main_fbw.o
                                                  /home/lionel/paparazziProto1/var/MYAC/ap/math/pprz_orientation_conversion.o
__aeabi_f2uiz                                     /opt/paparazzi/arm-multilib/lib/gcc/arm-none-eabi/4.6.2/thumb/libgcc.a(_arm_fixunssfsi.o)
                                                  /home/lionel/paparazziProto1/var/MYAC/ap/modules/digital_cam/dc.o
                                                  /home/lionel/paparazziProto1/var/MYAC/ap/firmwares/fixedwing/datalink.o
__aeabi_fadd                                      /opt/paparazzi/arm-multilib/lib/gcc/arm-none-eabi/4.6.2/thumb/libgcc.a(_arm_addsubsf3.o)
                                                  /opt/paparazzi/arm-multilib/lib/gcc/arm-none-eabi/4.6.2/../../../../arm-none-eabi/lib/thumb/libm.a(lib_a-sf_scalbn.o)
                                                  /opt/paparazzi/arm-multilib/lib/gcc/arm-none-eabi/4.6.2/../../../../arm-none-eabi/lib/thumb/libm.a(lib_a-kf_sin.o)
                                                  /opt/paparazzi/arm-multilib/lib/gcc/arm-none-eabi/4.6.2/../../../../arm-none-eabi/lib/thumb/libm.a(lib_a-kf_rem_pio2.o)
                                                  /opt/paparazzi/arm-multilib/lib/gcc/arm-none-eabi/4.6.2/../../../../arm-none-eabi/lib/thumb/libm.a(lib_a-kf_cos.o)
                                                  /opt/paparazzi/arm-multilib/lib/gcc/arm-none-eabi/4.6.2/../../../../arm-none-eabi/lib/thumb/libm.a(lib_a-ef_sqrt.o)
                                                  /opt/paparazzi/arm-multilib/lib/gcc/arm-none-eabi/4.6.2/../../../../arm-none-eabi/lib/thumb/libm.a(lib_a-ef_rem_pio2.o)
                                                  /opt/paparazzi/arm-multilib/lib/gcc/arm-none-eabi/4.6.2/../../../../arm-none-eabi/lib/thumb/libm.a(lib_a-ef_pow.o)
                                                  /opt/paparazzi/arm-multilib/lib/gcc/arm-none-eabi/4.6.2/../../../../arm-none-eabi/lib/thumb/libm.a(lib_a-ef_atan2.o)
                                                  /opt/paparazzi/arm-multilib/lib/gcc/arm-none-eabi/4.6.2/../../../../arm-none-eabi/lib/thumb/libm.a(lib_a-ef_asin.o)
                                                  /opt/paparazzi/arm-multilib/lib/gcc/arm-none-eabi/4.6.2/../../../../arm-none-eabi/lib/thumb/libm.a(lib_a-sf_floor.o)
                                                  /opt/paparazzi/arm-multilib/lib/gcc/arm-none-eabi/4.6.2/../../../../arm-none-eabi/lib/thumb/libm.a(lib_a-sf_atan.o)
                                                  /home/lionel/paparazziProto1/var/MYAC/ap/subsystems/navigation/nav_line.o
                                                  /home/lionel/paparazziProto1/var/MYAC/ap/subsystems/navigation/nav_survey_rectangle.o
                                                  /home/lionel/paparazziProto1/var/MYAC/ap/subsystems/nav.o
                                                  /home/lionel/paparazziProto1/var/MYAC/ap/firmwares/fixedwing/guidance/guidance_v.o
                                                  /home/lionel/paparazziProto1/var/MYAC/ap/firmwares/fixedwing/stabilization/stabilization_attitude.o
                                                  /home/lionel/paparazziProto1/var/MYAC/ap/firmwares/fixedwing/datalink.o
                                                  /home/lionel/paparazziProto1/var/MYAC/ap/./subsystems/ins/ins_alt_float.o
                                                  /home/lionel/paparazziProto1/var/MYAC/ap/state.o
                                                  /home/lionel/paparazziProto1/var/MYAC/ap/firmwares/fixedwing/main_ap.o
                                                  /home/lionel/paparazziProto1/var/MYAC/ap/math/pprz_orientation_conversion.o
                                                  /home/lionel/paparazziProto1/var/MYAC/ap/math/pprz_geodetic_float.o
__aeabi_fcmpeq                                    /opt/paparazzi/arm-multilib/lib/gcc/arm-none-eabi/4.6.2/thumb/libgcc.a(_arm_cmpsf2.o)
                                                  /opt/paparazzi/arm-multilib/lib/gcc/arm-none-eabi/4.6.2/../../../../arm-none-eabi/lib/thumb/libm.a(lib_a-kf_rem_pio2.o)
                                                  /opt/paparazzi/arm-multilib/lib/gcc/arm-none-eabi/4.6.2/../../../../arm-none-eabi/lib/thumb/libm.a(lib_a-ef_rem_pio2.o)
                                                  /opt/paparazzi/arm-multilib/lib/gcc/arm-none-eabi/4.6.2/../../../../arm-none-eabi/lib/thumb/libm.a(lib_a-wf_pow.o)
                                                  /opt/paparazzi/arm-multilib/lib/gcc/arm-none-eabi/4.6.2/../../../../arm-none-eabi/lib/thumb/libm.a(lib_a-wf_fmod.o)
                                                  /home/lionel/paparazziProto1/var/MYAC/ap/modules/digital_cam/dc.o
                                                  /home/lionel/paparazziProto1/var/MYAC/ap/firmwares/fixedwing/datalink.o
                                                  /home/lionel/paparazziProto1/var/MYAC/ap/firmwares/fixedwing/main_ap.o
__aeabi_fcmpge                                    /opt/paparazzi/arm-multilib/lib/gcc/arm-none-eabi/4.6.2/thumb/libgcc.a(_arm_cmpsf2.o)
                                                  /opt/paparazzi/arm-multilib/lib/gcc/arm-none-eabi/4.6.2/../../../../arm-none-eabi/lib/thumb/libm.a(lib_a-kf_rem_pio2.o)
                                                  /home/lionel/paparazziProto1/var/MYAC/ap/subsystems/navigation/nav_line.o
                                                  /home/lionel/paparazziProto1/var/MYAC/ap/subsystems/navigation/nav_survey_rectangle.o
                                                  /home/lionel/paparazziProto1/var/MYAC/ap/subsystems/nav.o
                                                  /home/lionel/paparazziProto1/var/MYAC/ap/subsystems/ahrs/ahrs_infrared.o
                                                  /home/lionel/paparazziProto1/var/MYAC/ap/firmwares/fixedwing/main_ap.o
__aeabi_fcmpgt                                    /opt/paparazzi/arm-multilib/lib/gcc/arm-none-eabi/4.6.2/thumb/libgcc.a(_arm_cmpsf2.o)
                                                  /opt/paparazzi/arm-multilib/lib/gcc/arm-none-eabi/4.6.2/../../../../arm-none-eabi/lib/thumb/libm.a(lib_a-ef_pow.o)
                                                  /opt/paparazzi/arm-multilib/lib/gcc/arm-none-eabi/4.6.2/../../../../arm-none-eabi/lib/thumb/libm.a(lib_a-ef_asin.o)
                                                  /opt/paparazzi/arm-multilib/lib/gcc/arm-none-eabi/4.6.2/../../../../arm-none-eabi/lib/thumb/libm.a(lib_a-wf_asin.o)
                                                  /opt/paparazzi/arm-multilib/lib/gcc/arm-none-eabi/4.6.2/../../../../arm-none-eabi/lib/thumb/libm.a(lib_a-sf_fmax.o)
                                                  /opt/paparazzi/arm-multilib/lib/gcc/arm-none-eabi/4.6.2/../../../../arm-none-eabi/lib/thumb/libm.a(lib_a-sf_floor.o)
                                                  /opt/paparazzi/arm-multilib/lib/gcc/arm-none-eabi/4.6.2/../../../../arm-none-eabi/lib/thumb/libm.a(lib_a-sf_atan.o)
                                                  /home/lionel/paparazziProto1/var/MYAC/ap/subsystems/navigation/nav_line.o
                                                  /home/lionel/paparazziProto1/var/MYAC/ap/subsystems/navigation/nav_survey_rectangle.o
                                                  /home/lionel/paparazziProto1/var/MYAC/ap/subsystems/nav.o
                                                  /home/lionel/paparazziProto1/var/MYAC/ap/firmwares/fixedwing/guidance/guidance_v.o
                                                  /home/lionel/paparazziProto1/var/MYAC/ap/firmwares/fixedwing/stabilization/stabilization_attitude.o
                                                  /home/lionel/paparazziProto1/var/MYAC/ap/firmwares/fixedwing/main_ap.o
                                                  /home/lionel/paparazziProto1/var/MYAC/ap/firmwares/fixedwing/main_fbw.o
                                                  /home/lionel/paparazziProto1/var/MYAC/ap/math/pprz_orientation_conversion.o
                                                  /home/lionel/paparazziProto1/var/MYAC/ap/math/pprz_geodetic_float.o
__aeabi_fcmple                                    /opt/paparazzi/arm-multilib/lib/gcc/arm-none-eabi/4.6.2/thumb/libgcc.a(_arm_cmpsf2.o)
                                                  /opt/paparazzi/arm-multilib/lib/gcc/arm-none-eabi/4.6.2/../../../../arm-none-eabi/lib/thumb/libm.a(lib_a-ef_pow.o)
__aeabi_fcmplt                                    /opt/paparazzi/arm-multilib/lib/gcc/arm-none-eabi/4.6.2/thumb/libgcc.a(_arm_cmpsf2.o)
                                                  /opt/paparazzi/arm-multilib/lib/gcc/arm-none-eabi/4.6.2/../../../../arm-none-eabi/lib/thumb/libm.a(lib_a-wf_sqrt.o)
                                                  /opt/paparazzi/arm-multilib/lib/gcc/arm-none-eabi/4.6.2/../../../../arm-none-eabi/lib/thumb/libm.a(lib_a-wf_pow.o)
                                                  /opt/paparazzi/arm-multilib/lib/gcc/arm-none-eabi/4.6.2/../../../../arm-none-eabi/lib/thumb/libm.a(lib_a-sf_fmin.o)
                                                  /home/lionel/paparazziProto1/var/MYAC/ap/subsystems/navigation/nav_line.o
                                                  /home/lionel/paparazziProto1/var/MYAC/ap/subsystems/navigation/nav_survey_rectangle.o
                                                  /home/lionel/paparazziProto1/var/MYAC/ap/subsystems/nav.o
                                                  /home/lionel/paparazziProto1/var/MYAC/ap/subsystems/ahrs/ahrs_infrared.o
                                                  /home/lionel/paparazziProto1/var/MYAC/ap/firmwares/fixedwing/guidance/guidance_v.o
                                                  /home/lionel/paparazziProto1/var/MYAC/ap/firmwares/fixedwing/stabilization/stabilization_attitude.o
                                                  /home/lionel/paparazziProto1/var/MYAC/ap/firmwares/fixedwing/main_ap.o
__aeabi_fdiv                                      /opt/paparazzi/arm-multilib/lib/gcc/arm-none-eabi/4.6.2/thumb/libgcc.a(_arm_muldivsf3.o)
                                                  /opt/paparazzi/arm-multilib/lib/gcc/arm-none-eabi/4.6.2/../../../../arm-none-eabi/lib/thumb/libm.a(lib_a-ef_sqrt.o)
                                                  /opt/paparazzi/arm-multilib/lib/gcc/arm-none-eabi/4.6.2/../../../../arm-none-eabi/lib/thumb/libm.a(lib_a-ef_pow.o)
                                                  /opt/paparazzi/arm-multilib/lib/gcc/arm-none-eabi/4.6.2/../../../../arm-none-eabi/lib/thumb/libm.a(lib_a-ef_fmod.o)
                                                  /opt/paparazzi/arm-multilib/lib/gcc/arm-none-eabi/4.6.2/../../../../arm-none-eabi/lib/thumb/libm.a(lib_a-ef_atan2.o)
                                                  /opt/paparazzi/arm-multilib/lib/gcc/arm-none-eabi/4.6.2/../../../../arm-none-eabi/lib/thumb/libm.a(lib_a-ef_asin.o)
                                                  /opt/paparazzi/arm-multilib/lib/gcc/arm-none-eabi/4.6.2/../../../../arm-none-eabi/lib/thumb/libm.a(lib_a-sf_atan.o)
                                                  /home/lionel/paparazziProto1/var/MYAC/ap/modules/digital_cam/dc.o
                                                  /home/lionel/paparazziProto1/var/MYAC/ap/subsystems/navigation/nav_line.o
                                                  /home/lionel/paparazziProto1/var/MYAC/ap/subsystems/nav.o
                                                  /home/lionel/paparazziProto1/var/MYAC/ap/firmwares/fixedwing/stabilization/stabilization_attitude.o
                                                  /home/lionel/paparazziProto1/var/MYAC/ap/firmwares/fixedwing/datalink.o
                                                  /home/lionel/paparazziProto1/var/MYAC/ap/./subsystems/ins/ins_alt_float.o
                                                  /home/lionel/paparazziProto1/var/MYAC/ap/state.o
                                                  /home/lionel/paparazziProto1/var/MYAC/ap/firmwares/fixedwing/main_ap.o
                                                  /home/lionel/paparazziProto1/var/MYAC/ap/subsystems/electrical.o
                                                  /home/lionel/paparazziProto1/var/MYAC/ap/math/pprz_orientation_conversion.o
                                                  /home/lionel/paparazziProto1/var/MYAC/ap/math/pprz_geodetic_float.o
                                                  /home/lionel/paparazziProto1/var/MYAC/ap/math/pprz_geodetic_int.o
__aeabi_fmul                                      /opt/paparazzi/arm-multilib/lib/gcc/arm-none-eabi/4.6.2/thumb/libgcc.a(_arm_muldivsf3.o)
                                                  /opt/paparazzi/arm-multilib/lib/gcc/arm-none-eabi/4.6.2/../../../../arm-none-eabi/lib/thumb/libm.a(lib_a-sf_scalbn.o)
                                                  /opt/paparazzi/arm-multilib/lib/gcc/arm-none-eabi/4.6.2/../../../../arm-none-eabi/lib/thumb/libm.a(lib_a-kf_sin.o)
                                                  /opt/paparazzi/arm-multilib/lib/gcc/arm-none-eabi/4.6.2/../../../../arm-none-eabi/lib/thumb/libm.a(lib_a-kf_rem_pio2.o)
                                                  /opt/paparazzi/arm-multilib/lib/gcc/arm-none-eabi/4.6.2/../../../../arm-none-eabi/lib/thumb/libm.a(lib_a-kf_cos.o)
                                                  /opt/paparazzi/arm-multilib/lib/gcc/arm-none-eabi/4.6.2/../../../../arm-none-eabi/lib/thumb/libm.a(lib_a-ef_sqrt.o)
                                                  /opt/paparazzi/arm-multilib/lib/gcc/arm-none-eabi/4.6.2/../../../../arm-none-eabi/lib/thumb/libm.a(lib_a-ef_rem_pio2.o)
                                                  /opt/paparazzi/arm-multilib/lib/gcc/arm-none-eabi/4.6.2/../../../../arm-none-eabi/lib/thumb/libm.a(lib_a-ef_pow.o)
                                                  /opt/paparazzi/arm-multilib/lib/gcc/arm-none-eabi/4.6.2/../../../../arm-none-eabi/lib/thumb/libm.a(lib_a-ef_fmod.o)
                                                  /opt/paparazzi/arm-multilib/lib/gcc/arm-none-eabi/4.6.2/../../../../arm-none-eabi/lib/thumb/libm.a(lib_a-ef_asin.o)
                                                  /opt/paparazzi/arm-multilib/lib/gcc/arm-none-eabi/4.6.2/../../../../arm-none-eabi/lib/thumb/libm.a(lib_a-wf_pow.o)
                                                  /opt/paparazzi/arm-multilib/lib/gcc/arm-none-eabi/4.6.2/../../../../arm-none-eabi/lib/thumb/libm.a(lib_a-sf_atan.o)
                                                  /home/lionel/paparazziProto1/var/MYAC/ap/modules/digital_cam/dc.o
                                                  /home/lionel/paparazziProto1/var/MYAC/ap/subsystems/sensors/infrared_adc.o
                                                  /home/lionel/paparazziProto1/var/MYAC/ap/subsystems/navigation/nav_line.o
                                                  /home/lionel/paparazziProto1/var/MYAC/ap/subsystems/navigation/nav_survey_rectangle.o
                                                  /home/lionel/paparazziProto1/var/MYAC/ap/subsystems/nav.o
                                                  /home/lionel/paparazziProto1/var/MYAC/ap/subsystems/ahrs/ahrs_infrared.o
                                                  /home/lionel/paparazziProto1/var/MYAC/ap/firmwares/fixedwing/guidance/guidance_v.o
                                                  /home/lionel/paparazziProto1/var/MYAC/ap/firmwares/fixedwing/stabilization/stabilization_attitude.o
                                                  /home/lionel/paparazziProto1/var/MYAC/ap/./subsystems/ins/ins_alt_float.o
                                                  /home/lionel/paparazziProto1/var/MYAC/ap/state.o
                                                  /home/lionel/paparazziProto1/var/MYAC/ap/firmwares/fixedwing/main_ap.o
                                                  /home/lionel/paparazziProto1/var/MYAC/ap/subsystems/electrical.o
                                                  /home/lionel/paparazziProto1/var/MYAC/ap/math/pprz_orientation_conversion.o
                                                  /home/lionel/paparazziProto1/var/MYAC/ap/math/pprz_geodetic_float.o
                                                  /home/lionel/paparazziProto1/var/MYAC/ap/math/pprz_geodetic_int.o
__aeabi_frsub                                     /opt/paparazzi/arm-multilib/lib/gcc/arm-none-eabi/4.6.2/thumb/libgcc.a(_arm_addsubsf3.o)
__aeabi_fsub                                      /opt/paparazzi/arm-multilib/lib/gcc/arm-none-eabi/4.6.2/thumb/libgcc.a(_arm_addsubsf3.o)
                                                  /opt/paparazzi/arm-multilib/lib/gcc/arm-none-eabi/4.6.2/../../../../arm-none-eabi/lib/thumb/libm.a(lib_a-kf_sin.o)
                                                  /opt/paparazzi/arm-multilib/lib/gcc/arm-none-eabi/4.6.2/../../../../arm-none-eabi/lib/thumb/libm.a(lib_a-kf_rem_pio2.o)
                                                  /opt/paparazzi/arm-multilib/lib/gcc/arm-none-eabi/4.6.2/../../../../arm-none-eabi/lib/thumb/libm.a(lib_a-kf_cos.o)
                                                  /opt/paparazzi/arm-multilib/lib/gcc/arm-none-eabi/4.6.2/../../../../arm-none-eabi/lib/thumb/libm.a(lib_a-ef_sqrt.o)
                                                  /opt/paparazzi/arm-multilib/lib/gcc/arm-none-eabi/4.6.2/../../../../arm-none-eabi/lib/thumb/libm.a(lib_a-ef_rem_pio2.o)
                                                  /opt/paparazzi/arm-multilib/lib/gcc/arm-none-eabi/4.6.2/../../../../arm-none-eabi/lib/thumb/libm.a(lib_a-ef_pow.o)
                                                  /opt/paparazzi/arm-multilib/lib/gcc/arm-none-eabi/4.6.2/../../../../arm-none-eabi/lib/thumb/libm.a(lib_a-ef_atan2.o)
                                                  /opt/paparazzi/arm-multilib/lib/gcc/arm-none-eabi/4.6.2/../../../../arm-none-eabi/lib/thumb/libm.a(lib_a-ef_asin.o)
                                                  /opt/paparazzi/arm-multilib/lib/gcc/arm-none-eabi/4.6.2/../../../../arm-none-eabi/lib/thumb/libm.a(lib_a-sf_sin.o)
                                                  /opt/paparazzi/arm-multilib/lib/gcc/arm-none-eabi/4.6.2/../../../../arm-none-eabi/lib/thumb/libm.a(lib_a-sf_cos.o)
                                                  /opt/paparazzi/arm-multilib/lib/gcc/arm-none-eabi/4.6.2/../../../../arm-none-eabi/lib/thumb/libm.a(lib_a-sf_atan.o)
                                                  /home/lionel/paparazziProto1/var/MYAC/ap/subsystems/navigation/nav_line.o
                                                  /home/lionel/paparazziProto1/var/MYAC/ap/subsystems/navigation/nav_survey_rectangle.o
                                                  /home/lionel/paparazziProto1/var/MYAC/ap/subsystems/nav.o
                                                  /home/lionel/paparazziProto1/var/MYAC/ap/subsystems/ahrs/ahrs_infrared.o
                                                  /home/lionel/paparazziProto1/var/MYAC/ap/firmwares/fixedwing/guidance/guidance_v.o
                                                  /home/lionel/paparazziProto1/var/MYAC/ap/firmwares/fixedwing/stabilization/stabilization_attitude.o
                                                  /home/lionel/paparazziProto1/var/MYAC/ap/firmwares/fixedwing/datalink.o
                                                  /home/lionel/paparazziProto1/var/MYAC/ap/./subsystems/ins/ins_alt_float.o
                                                  /home/lionel/paparazziProto1/var/MYAC/ap/state.o
                                                  /home/lionel/paparazziProto1/var/MYAC/ap/firmwares/fixedwing/main_ap.o
                                                  /home/lionel/paparazziProto1/var/MYAC/ap/math/pprz_orientation_conversion.o
                                                  /home/lionel/paparazziProto1/var/MYAC/ap/math/pprz_geodetic_float.o
__aeabi_i2d                                       /opt/paparazzi/arm-multilib/lib/gcc/arm-none-eabi/4.6.2/thumb/libgcc.a(_arm_addsubdf3.o)
                                                  /opt/paparazzi/arm-multilib/lib/gcc/arm-none-eabi/4.6.2/../../../../arm-none-eabi/lib/thumb/libm.a(lib_a-s_expm1.o)
                                                  /opt/paparazzi/arm-multilib/lib/gcc/arm-none-eabi/4.6.2/../../../../arm-none-eabi/lib/thumb/libm.a(lib_a-k_tan.o)
                                                  /opt/paparazzi/arm-multilib/lib/gcc/arm-none-eabi/4.6.2/../../../../arm-none-eabi/lib/thumb/libm.a(lib_a-k_rem_pio2.o)
                                                  /opt/paparazzi/arm-multilib/lib/gcc/arm-none-eabi/4.6.2/../../../../arm-none-eabi/lib/thumb/libm.a(lib_a-e_rem_pio2.o)
                                                  /opt/paparazzi/arm-multilib/lib/gcc/arm-none-eabi/4.6.2/../../../../arm-none-eabi/lib/thumb/libm.a(lib_a-e_pow.o)
                                                  /opt/paparazzi/arm-multilib/lib/gcc/arm-none-eabi/4.6.2/../../../../arm-none-eabi/lib/thumb/libm.a(lib_a-e_log.o)
                                                  /opt/paparazzi/arm-multilib/lib/gcc/arm-none-eabi/4.6.2/../../../../arm-none-eabi/lib/thumb/libm.a(lib_a-e_exp.o)
                                                  /home/lionel/paparazziProto1/var/MYAC/ap/modules/digital_cam/dc.o
                                                  /home/lionel/paparazziProto1/var/MYAC/ap/subsystems/nav.o
                                                  /home/lionel/paparazziProto1/var/MYAC/ap/subsystems/gps/gps_ubx.o
                                                  /home/lionel/paparazziProto1/var/MYAC/ap/subsystems/ahrs/ahrs_infrared.o
                                                  /home/lionel/paparazziProto1/var/MYAC/ap/firmwares/fixedwing/guidance/guidance_v.o
                                                  /home/lionel/paparazziProto1/var/MYAC/ap/firmwares/fixedwing/datalink.o
                                                  /home/lionel/paparazziProto1/var/MYAC/ap/./subsystems/ins/ins_alt_float.o
                                                  /home/lionel/paparazziProto1/var/MYAC/ap/state.o
                                                  /home/lionel/paparazziProto1/var/MYAC/ap/firmwares/fixedwing/main_ap.o
                                                  /home/lionel/paparazziProto1/var/MYAC/ap/firmwares/fixedwing/main_fbw.o
                                                  /home/lionel/paparazziProto1/var/MYAC/ap/math/pprz_orientation_conversion.o
                                                  /home/lionel/paparazziProto1/var/MYAC/ap/math/pprz_geodetic_double.o
                                                  /home/lionel/paparazziProto1/var/MYAC/ap/math/pprz_geodetic_float.o
                                                  /home/lionel/paparazziProto1/var/MYAC/ap/math/pprz_geodetic_int.o
__aeabi_i2f                                       /opt/paparazzi/arm-multilib/lib/gcc/arm-none-eabi/4.6.2/thumb/libgcc.a(_arm_addsubsf3.o)
                                                  /opt/paparazzi/arm-multilib/lib/gcc/arm-none-eabi/4.6.2/../../../../arm-none-eabi/lib/thumb/libm.a(lib_a-kf_rem_pio2.o)
                                                  /opt/paparazzi/arm-multilib/lib/gcc/arm-none-eabi/4.6.2/../../../../arm-none-eabi/lib/thumb/libm.a(lib_a-ef_rem_pio2.o)
                                                  /opt/paparazzi/arm-multilib/lib/gcc/arm-none-eabi/4.6.2/../../../../arm-none-eabi/lib/thumb/libm.a(lib_a-ef_pow.o)
                                                  /home/lionel/paparazziProto1/var/MYAC/ap/modules/digital_cam/dc.o
                                                  /home/lionel/paparazziProto1/var/MYAC/ap/subsystems/sensors/infrared_adc.o
                                                  /home/lionel/paparazziProto1/var/MYAC/ap/subsystems/nav.o
                                                  /home/lionel/paparazziProto1/var/MYAC/ap/subsystems/ahrs/ahrs_infrared.o
                                                  /home/lionel/paparazziProto1/var/MYAC/ap/firmwares/fixedwing/stabilization/stabilization_attitude.o
                                                  /home/lionel/paparazziProto1/var/MYAC/ap/firmwares/fixedwing/datalink.o
                                                  /home/lionel/paparazziProto1/var/MYAC/ap/./subsystems/ins/ins_alt_float.o
                                                  /home/lionel/paparazziProto1/var/MYAC/ap/state.o
                                                  /home/lionel/paparazziProto1/var/MYAC/ap/firmwares/fixedwing/main_ap.o
                                                  /home/lionel/paparazziProto1/var/MYAC/ap/subsystems/electrical.o
                                                  /home/lionel/paparazziProto1/var/MYAC/ap/firmwares/fixedwing/main_fbw.o
                                                  /home/lionel/paparazziProto1/var/MYAC/ap/math/pprz_orientation_conversion.o
                                                  /home/lionel/paparazziProto1/var/MYAC/ap/math/pprz_geodetic_float.o
                                                  /home/lionel/paparazziProto1/var/MYAC/ap/math/pprz_geodetic_int.o
__aeabi_idiv                                      /opt/paparazzi/arm-multilib/lib/gcc/arm-none-eabi/4.6.2/thumb/libgcc.a(_divsi3.o)
                                                  /opt/paparazzi/arm-multilib/lib/gcc/arm-none-eabi/4.6.2/../../../../arm-none-eabi/lib/thumb/libm.a(lib_a-k_rem_pio2.o)
                                                  /home/lionel/paparazziProto1/var/MYAC/ap/subsystems/nav.o
                                                  /home/lionel/paparazziProto1/var/MYAC/ap/subsystems/imu.o
                                                  /home/lionel/paparazziProto1/var/MYAC/ap/state.o
                                                  /home/lionel/paparazziProto1/var/MYAC/ap/firmwares/fixedwing/main_ap.o
                                                  /home/lionel/paparazziProto1/var/MYAC/ap/firmwares/fixedwing/main_fbw.o
                                                  /home/lionel/paparazziProto1/var/MYAC/ap/arch/lpc21/mcu_periph/i2c_arch.o
                                                  /home/lionel/paparazziProto1/var/MYAC/ap/math/pprz_orientation_conversion.o
__aeabi_idiv0                                     /opt/paparazzi/arm-multilib/lib/gcc/arm-none-eabi/4.6.2/thumb/libgcc.a(_dvmd_tls.o)
                                                  /opt/paparazzi/arm-multilib/lib/gcc/arm-none-eabi/4.6.2/thumb/libgcc.a(_divsi3.o)
                                                  /opt/paparazzi/arm-multilib/lib/gcc/arm-none-eabi/4.6.2/thumb/libgcc.a(_udivsi3.o)
__aeabi_idivmod                                   /opt/paparazzi/arm-multilib/lib/gcc/arm-none-eabi/4.6.2/thumb/libgcc.a(_divsi3.o)
                                                  /home/lionel/paparazziProto1/var/MYAC/ap/firmwares/fixedwing/main_ap.o
__aeabi_l2d                                       /opt/paparazzi/arm-multilib/lib/gcc/arm-none-eabi/4.6.2/thumb/libgcc.a(_arm_addsubdf3.o)
__aeabi_l2f                                       /opt/paparazzi/arm-multilib/lib/gcc/arm-none-eabi/4.6.2/thumb/libgcc.a(_arm_addsubsf3.o)
__aeabi_ldiv0                                     /opt/paparazzi/arm-multilib/lib/gcc/arm-none-eabi/4.6.2/thumb/libgcc.a(_dvmd_tls.o)
__aeabi_ui2d                                      /opt/paparazzi/arm-multilib/lib/gcc/arm-none-eabi/4.6.2/thumb/libgcc.a(_arm_addsubdf3.o)
                                                  /home/lionel/paparazziProto1/var/MYAC/ap/subsystems/gps/gps_ubx.o
                                                  /home/lionel/paparazziProto1/var/MYAC/ap/subsystems/electrical.o
__aeabi_ui2f                                      /opt/paparazzi/arm-multilib/lib/gcc/arm-none-eabi/4.6.2/thumb/libgcc.a(_arm_addsubsf3.o)
                                                  /home/lionel/paparazziProto1/var/MYAC/ap/firmwares/fixedwing/datalink.o
                                                  /home/lionel/paparazziProto1/var/MYAC/ap/firmwares/fixedwing/main_ap.o
__aeabi_uidiv                                     /opt/paparazzi/arm-multilib/lib/gcc/arm-none-eabi/4.6.2/thumb/libgcc.a(_udivsi3.o)
                                                  /home/lionel/paparazziProto1/var/MYAC/ap/subsystems/sensors/infrared_adc.o
                                                  /home/lionel/paparazziProto1/var/MYAC/ap/subsystems/imu.o
                                                  /home/lionel/paparazziProto1/var/MYAC/ap/state.o
                                                  /home/lionel/paparazziProto1/var/MYAC/ap/subsystems/electrical.o
                                                  /home/lionel/paparazziProto1/var/MYAC/ap/firmwares/fixedwing/main_fbw.o
                                                  /home/lionel/paparazziProto1/var/MYAC/ap/math/pprz_orientation_conversion.o
__aeabi_uidivmod                                  /opt/paparazzi/arm-multilib/lib/gcc/arm-none-eabi/4.6.2/thumb/libgcc.a(_udivsi3.o)
__aeabi_ul2d                                      /opt/paparazzi/arm-multilib/lib/gcc/arm-none-eabi/4.6.2/thumb/libgcc.a(_arm_addsubdf3.o)
__aeabi_ul2f                                      /opt/paparazzi/arm-multilib/lib/gcc/arm-none-eabi/4.6.2/thumb/libgcc.a(_arm_addsubsf3.o)
__bss_end__                                       /home/lionel/paparazziProto1/var/MYAC/ap/crt0.o
__bss_start                                       /home/lionel/paparazziProto1/var/MYAC/ap/crt0.o
__cmpdf2                                          /opt/paparazzi/arm-multilib/lib/gcc/arm-none-eabi/4.6.2/thumb/libgcc.a(_arm_cmpdf2.o)
__cmpsf2                                          /opt/paparazzi/arm-multilib/lib/gcc/arm-none-eabi/4.6.2/thumb/libgcc.a(_arm_cmpsf2.o)
__ctors_end__                                     /home/lionel/paparazziProto1/var/MYAC/ap/crt0.o
__ctors_start__                                   /home/lionel/paparazziProto1/var/MYAC/ap/crt0.o
__divdf3                                          /opt/paparazzi/arm-multilib/lib/gcc/arm-none-eabi/4.6.2/thumb/libgcc.a(_arm_muldivdf3.o)
__divsf3                                          /opt/paparazzi/arm-multilib/lib/gcc/arm-none-eabi/4.6.2/thumb/libgcc.a(_arm_muldivsf3.o)
__divsi3                                          /opt/paparazzi/arm-multilib/lib/gcc/arm-none-eabi/4.6.2/thumb/libgcc.a(_divsi3.o)
__eqdf2                                           /opt/paparazzi/arm-multilib/lib/gcc/arm-none-eabi/4.6.2/thumb/libgcc.a(_arm_cmpdf2.o)
__eqsf2                                           /opt/paparazzi/arm-multilib/lib/gcc/arm-none-eabi/4.6.2/thumb/libgcc.a(_arm_cmpsf2.o)
__errno                                           /opt/paparazzi/arm-multilib/lib/gcc/arm-none-eabi/4.6.2/../../../../arm-none-eabi/lib/thumb/libc.a(lib_a-errno.o)
                                                  /opt/paparazzi/arm-multilib/lib/gcc/arm-none-eabi/4.6.2/../../../../arm-none-eabi/lib/thumb/libm.a(lib_a-wf_sqrt.o)
                                                  /opt/paparazzi/arm-multilib/lib/gcc/arm-none-eabi/4.6.2/../../../../arm-none-eabi/lib/thumb/libm.a(lib_a-wf_pow.o)
                                                  /opt/paparazzi/arm-multilib/lib/gcc/arm-none-eabi/4.6.2/../../../../arm-none-eabi/lib/thumb/libm.a(lib_a-wf_fmod.o)
                                                  /opt/paparazzi/arm-multilib/lib/gcc/arm-none-eabi/4.6.2/../../../../arm-none-eabi/lib/thumb/libm.a(lib_a-wf_asin.o)
                                                  /opt/paparazzi/arm-multilib/lib/gcc/arm-none-eabi/4.6.2/../../../../arm-none-eabi/lib/thumb/libm.a(lib_a-w_sqrt.o)
                                                  /opt/paparazzi/arm-multilib/lib/gcc/arm-none-eabi/4.6.2/../../../../arm-none-eabi/lib/thumb/libm.a(lib_a-w_sinh.o)
                                                  /opt/paparazzi/arm-multilib/lib/gcc/arm-none-eabi/4.6.2/../../../../arm-none-eabi/lib/thumb/libm.a(lib_a-w_pow.o)
                                                  /opt/paparazzi/arm-multilib/lib/gcc/arm-none-eabi/4.6.2/../../../../arm-none-eabi/lib/thumb/libm.a(lib_a-w_log.o)
                                                  /opt/paparazzi/arm-multilib/lib/gcc/arm-none-eabi/4.6.2/../../../../arm-none-eabi/lib/thumb/libm.a(lib_a-w_exp.o)
                                                  /opt/paparazzi/arm-multilib/lib/gcc/arm-none-eabi/4.6.2/../../../../arm-none-eabi/lib/thumb/libm.a(lib_a-w_cosh.o)
                                                  /opt/paparazzi/arm-multilib/lib/gcc/arm-none-eabi/4.6.2/../../../../arm-none-eabi/lib/thumb/libm.a(lib_a-w_asin.o)
__extendsfdf2                                     /opt/paparazzi/arm-multilib/lib/gcc/arm-none-eabi/4.6.2/thumb/libgcc.a(_arm_addsubdf3.o)
__fdlib_version                                   /opt/paparazzi/arm-multilib/lib/gcc/arm-none-eabi/4.6.2/../../../../arm-none-eabi/lib/thumb/libm.a(lib_a-s_lib_ver.o)
                                                  /opt/paparazzi/arm-multilib/lib/gcc/arm-none-eabi/4.6.2/../../../../arm-none-eabi/lib/thumb/libm.a(lib_a-wf_sqrt.o)
                                                  /opt/paparazzi/arm-multilib/lib/gcc/arm-none-eabi/4.6.2/../../../../arm-none-eabi/lib/thumb/libm.a(lib_a-wf_pow.o)
                                                  /opt/paparazzi/arm-multilib/lib/gcc/arm-none-eabi/4.6.2/../../../../arm-none-eabi/lib/thumb/libm.a(lib_a-wf_fmod.o)
                                                  /opt/paparazzi/arm-multilib/lib/gcc/arm-none-eabi/4.6.2/../../../../arm-none-eabi/lib/thumb/libm.a(lib_a-wf_asin.o)
                                                  /opt/paparazzi/arm-multilib/lib/gcc/arm-none-eabi/4.6.2/../../../../arm-none-eabi/lib/thumb/libm.a(lib_a-w_sqrt.o)
                                                  /opt/paparazzi/arm-multilib/lib/gcc/arm-none-eabi/4.6.2/../../../../arm-none-eabi/lib/thumb/libm.a(lib_a-w_sinh.o)
                                                  /opt/paparazzi/arm-multilib/lib/gcc/arm-none-eabi/4.6.2/../../../../arm-none-eabi/lib/thumb/libm.a(lib_a-w_pow.o)
                                                  /opt/paparazzi/arm-multilib/lib/gcc/arm-none-eabi/4.6.2/../../../../arm-none-eabi/lib/thumb/libm.a(lib_a-w_log.o)
                                                  /opt/paparazzi/arm-multilib/lib/gcc/arm-none-eabi/4.6.2/../../../../arm-none-eabi/lib/thumb/libm.a(lib_a-w_exp.o)
                                                  /opt/paparazzi/arm-multilib/lib/gcc/arm-none-eabi/4.6.2/../../../../arm-none-eabi/lib/thumb/libm.a(lib_a-w_cosh.o)
                                                  /opt/paparazzi/arm-multilib/lib/gcc/arm-none-eabi/4.6.2/../../../../arm-none-eabi/lib/thumb/libm.a(lib_a-w_asin.o)
__fixdfsi                                         /opt/paparazzi/arm-multilib/lib/gcc/arm-none-eabi/4.6.2/thumb/libgcc.a(_arm_fixdfsi.o)
__fixsfsi                                         /opt/paparazzi/arm-multilib/lib/gcc/arm-none-eabi/4.6.2/thumb/libgcc.a(_arm_fixsfsi.o)
__fixunsdfsi                                      /opt/paparazzi/arm-multilib/lib/gcc/arm-none-eabi/4.6.2/thumb/libgcc.a(_arm_fixunsdfsi.o)
__fixunssfsi                                      /opt/paparazzi/arm-multilib/lib/gcc/arm-none-eabi/4.6.2/thumb/libgcc.a(_arm_fixunssfsi.o)
__floatdidf                                       /opt/paparazzi/arm-multilib/lib/gcc/arm-none-eabi/4.6.2/thumb/libgcc.a(_arm_addsubdf3.o)
__floatdisf                                       /opt/paparazzi/arm-multilib/lib/gcc/arm-none-eabi/4.6.2/thumb/libgcc.a(_arm_addsubsf3.o)
__floatsidf                                       /opt/paparazzi/arm-multilib/lib/gcc/arm-none-eabi/4.6.2/thumb/libgcc.a(_arm_addsubdf3.o)
__floatsisf                                       /opt/paparazzi/arm-multilib/lib/gcc/arm-none-eabi/4.6.2/thumb/libgcc.a(_arm_addsubsf3.o)
__floatundidf                                     /opt/paparazzi/arm-multilib/lib/gcc/arm-none-eabi/4.6.2/thumb/libgcc.a(_arm_addsubdf3.o)
__floatundisf                                     /opt/paparazzi/arm-multilib/lib/gcc/arm-none-eabi/4.6.2/thumb/libgcc.a(_arm_addsubsf3.o)
__floatunsidf                                     /opt/paparazzi/arm-multilib/lib/gcc/arm-none-eabi/4.6.2/thumb/libgcc.a(_arm_addsubdf3.o)
__floatunsisf                                     /opt/paparazzi/arm-multilib/lib/gcc/arm-none-eabi/4.6.2/thumb/libgcc.a(_arm_addsubsf3.o)
__fpclassifyd                                     /opt/paparazzi/arm-multilib/lib/gcc/arm-none-eabi/4.6.2/../../../../arm-none-eabi/lib/thumb/libm.a(lib_a-s_fpclassify.o)
                                                  /opt/paparazzi/arm-multilib/lib/gcc/arm-none-eabi/4.6.2/../../../../arm-none-eabi/lib/thumb/libm.a(lib_a-w_sqrt.o)
                                                  /opt/paparazzi/arm-multilib/lib/gcc/arm-none-eabi/4.6.2/../../../../arm-none-eabi/lib/thumb/libm.a(lib_a-w_pow.o)
                                                  /opt/paparazzi/arm-multilib/lib/gcc/arm-none-eabi/4.6.2/../../../../arm-none-eabi/lib/thumb/libm.a(lib_a-w_log.o)
                                                  /opt/paparazzi/arm-multilib/lib/gcc/arm-none-eabi/4.6.2/../../../../arm-none-eabi/lib/thumb/libm.a(lib_a-w_cosh.o)
                                                  /opt/paparazzi/arm-multilib/lib/gcc/arm-none-eabi/4.6.2/../../../../arm-none-eabi/lib/thumb/libm.a(lib_a-w_asin.o)
__fpclassifyf                                     /opt/paparazzi/arm-multilib/lib/gcc/arm-none-eabi/4.6.2/../../../../arm-none-eabi/lib/thumb/libm.a(lib_a-sf_fpclassify.o)
                                                  /opt/paparazzi/arm-multilib/lib/gcc/arm-none-eabi/4.6.2/../../../../arm-none-eabi/lib/thumb/libm.a(lib_a-wf_sqrt.o)
                                                  /opt/paparazzi/arm-multilib/lib/gcc/arm-none-eabi/4.6.2/../../../../arm-none-eabi/lib/thumb/libm.a(lib_a-wf_pow.o)
                                                  /opt/paparazzi/arm-multilib/lib/gcc/arm-none-eabi/4.6.2/../../../../arm-none-eabi/lib/thumb/libm.a(lib_a-wf_fmod.o)
                                                  /opt/paparazzi/arm-multilib/lib/gcc/arm-none-eabi/4.6.2/../../../../arm-none-eabi/lib/thumb/libm.a(lib_a-wf_asin.o)
                                                  /opt/paparazzi/arm-multilib/lib/gcc/arm-none-eabi/4.6.2/../../../../arm-none-eabi/lib/thumb/libm.a(lib_a-sf_fmin.o)
                                                  /opt/paparazzi/arm-multilib/lib/gcc/arm-none-eabi/4.6.2/../../../../arm-none-eabi/lib/thumb/libm.a(lib_a-sf_fmax.o)
__gedf2                                           /opt/paparazzi/arm-multilib/lib/gcc/arm-none-eabi/4.6.2/thumb/libgcc.a(_arm_cmpdf2.o)
__gesf2                                           /opt/paparazzi/arm-multilib/lib/gcc/arm-none-eabi/4.6.2/thumb/libgcc.a(_arm_cmpsf2.o)
__gnu_thumb1_case_uqi                             /opt/paparazzi/arm-multilib/lib/gcc/arm-none-eabi/4.6.2/thumb/libgcc.a(_thumb1_case_uqi.o)
                                                  /opt/paparazzi/arm-multilib/lib/gcc/arm-none-eabi/4.6.2/../../../../arm-none-eabi/lib/thumb/libm.a(lib_a-kf_rem_pio2.o)
                                                  /opt/paparazzi/arm-multilib/lib/gcc/arm-none-eabi/4.6.2/../../../../arm-none-eabi/lib/thumb/libm.a(lib_a-k_rem_pio2.o)
                                                  /opt/paparazzi/arm-multilib/lib/gcc/arm-none-eabi/4.6.2/../../../../arm-none-eabi/lib/thumb/libm.a(lib_a-e_atan2.o)
__gtdf2                                           /opt/paparazzi/arm-multilib/lib/gcc/arm-none-eabi/4.6.2/thumb/libgcc.a(_arm_cmpdf2.o)
__gtsf2                                           /opt/paparazzi/arm-multilib/lib/gcc/arm-none-eabi/4.6.2/thumb/libgcc.a(_arm_cmpsf2.o)
__ieee754_asin                                    /opt/paparazzi/arm-multilib/lib/gcc/arm-none-eabi/4.6.2/../../../../arm-none-eabi/lib/thumb/libm.a(lib_a-e_asin.o)
                                                  /opt/paparazzi/arm-multilib/lib/gcc/arm-none-eabi/4.6.2/../../../../arm-none-eabi/lib/thumb/libm.a(lib_a-w_asin.o)
__ieee754_asinf                                   /opt/paparazzi/arm-multilib/lib/gcc/arm-none-eabi/4.6.2/../../../../arm-none-eabi/lib/thumb/libm.a(lib_a-ef_asin.o)
                                                  /opt/paparazzi/arm-multilib/lib/gcc/arm-none-eabi/4.6.2/../../../../arm-none-eabi/lib/thumb/libm.a(lib_a-wf_asin.o)
__ieee754_atan2                                   /opt/paparazzi/arm-multilib/lib/gcc/arm-none-eabi/4.6.2/../../../../arm-none-eabi/lib/thumb/libm.a(lib_a-e_atan2.o)
                                                  /opt/paparazzi/arm-multilib/lib/gcc/arm-none-eabi/4.6.2/../../../../arm-none-eabi/lib/thumb/libm.a(lib_a-w_atan2.o)
__ieee754_atan2f                                  /opt/paparazzi/arm-multilib/lib/gcc/arm-none-eabi/4.6.2/../../../../arm-none-eabi/lib/thumb/libm.a(lib_a-ef_atan2.o)
                                                  /opt/paparazzi/arm-multilib/lib/gcc/arm-none-eabi/4.6.2/../../../../arm-none-eabi/lib/thumb/libm.a(lib_a-wf_atan2.o)
__ieee754_cosh                                    /opt/paparazzi/arm-multilib/lib/gcc/arm-none-eabi/4.6.2/../../../../arm-none-eabi/lib/thumb/libm.a(lib_a-e_cosh.o)
                                                  /opt/paparazzi/arm-multilib/lib/gcc/arm-none-eabi/4.6.2/../../../../arm-none-eabi/lib/thumb/libm.a(lib_a-w_cosh.o)
__ieee754_exp                                     /opt/paparazzi/arm-multilib/lib/gcc/arm-none-eabi/4.6.2/../../../../arm-none-eabi/lib/thumb/libm.a(lib_a-e_exp.o)
                                                  /opt/paparazzi/arm-multilib/lib/gcc/arm-none-eabi/4.6.2/../../../../arm-none-eabi/lib/thumb/libm.a(lib_a-e_sinh.o)
                                                  /opt/paparazzi/arm-multilib/lib/gcc/arm-none-eabi/4.6.2/../../../../arm-none-eabi/lib/thumb/libm.a(lib_a-e_cosh.o)
                                                  /opt/paparazzi/arm-multilib/lib/gcc/arm-none-eabi/4.6.2/../../../../arm-none-eabi/lib/thumb/libm.a(lib_a-w_exp.o)
__ieee754_fmodf                                   /opt/paparazzi/arm-multilib/lib/gcc/arm-none-eabi/4.6.2/../../../../arm-none-eabi/lib/thumb/libm.a(lib_a-ef_fmod.o)
                                                  /opt/paparazzi/arm-multilib/lib/gcc/arm-none-eabi/4.6.2/../../../../arm-none-eabi/lib/thumb/libm.a(lib_a-wf_fmod.o)
__ieee754_log                                     /opt/paparazzi/arm-multilib/lib/gcc/arm-none-eabi/4.6.2/../../../../arm-none-eabi/lib/thumb/libm.a(lib_a-e_log.o)
                                                  /opt/paparazzi/arm-multilib/lib/gcc/arm-none-eabi/4.6.2/../../../../arm-none-eabi/lib/thumb/libm.a(lib_a-w_log.o)
__ieee754_pow                                     /opt/paparazzi/arm-multilib/lib/gcc/arm-none-eabi/4.6.2/../../../../arm-none-eabi/lib/thumb/libm.a(lib_a-e_pow.o)
                                                  /opt/paparazzi/arm-multilib/lib/gcc/arm-none-eabi/4.6.2/../../../../arm-none-eabi/lib/thumb/libm.a(lib_a-w_pow.o)
__ieee754_powf                                    /opt/paparazzi/arm-multilib/lib/gcc/arm-none-eabi/4.6.2/../../../../arm-none-eabi/lib/thumb/libm.a(lib_a-ef_pow.o)
                                                  /opt/paparazzi/arm-multilib/lib/gcc/arm-none-eabi/4.6.2/../../../../arm-none-eabi/lib/thumb/libm.a(lib_a-wf_pow.o)
__ieee754_rem_pio2                                /opt/paparazzi/arm-multilib/lib/gcc/arm-none-eabi/4.6.2/../../../../arm-none-eabi/lib/thumb/libm.a(lib_a-e_rem_pio2.o)
                                                  /opt/paparazzi/arm-multilib/lib/gcc/arm-none-eabi/4.6.2/../../../../arm-none-eabi/lib/thumb/libm.a(lib_a-s_tan.o)
                                                  /opt/paparazzi/arm-multilib/lib/gcc/arm-none-eabi/4.6.2/../../../../arm-none-eabi/lib/thumb/libm.a(lib_a-s_sin.o)
                                                  /opt/paparazzi/arm-multilib/lib/gcc/arm-none-eabi/4.6.2/../../../../arm-none-eabi/lib/thumb/libm.a(lib_a-s_cos.o)
__ieee754_rem_pio2f                               /opt/paparazzi/arm-multilib/lib/gcc/arm-none-eabi/4.6.2/../../../../arm-none-eabi/lib/thumb/libm.a(lib_a-ef_rem_pio2.o)
                                                  /opt/paparazzi/arm-multilib/lib/gcc/arm-none-eabi/4.6.2/../../../../arm-none-eabi/lib/thumb/libm.a(lib_a-sf_sin.o)
                                                  /opt/paparazzi/arm-multilib/lib/gcc/arm-none-eabi/4.6.2/../../../../arm-none-eabi/lib/thumb/libm.a(lib_a-sf_cos.o)
__ieee754_sinh                                    /opt/paparazzi/arm-multilib/lib/gcc/arm-none-eabi/4.6.2/../../../../arm-none-eabi/lib/thumb/libm.a(lib_a-e_sinh.o)
                                                  /opt/paparazzi/arm-multilib/lib/gcc/arm-none-eabi/4.6.2/../../../../arm-none-eabi/lib/thumb/libm.a(lib_a-w_sinh.o)
__ieee754_sqrt                                    /opt/paparazzi/arm-multilib/lib/gcc/arm-none-eabi/4.6.2/../../../../arm-none-eabi/lib/thumb/libm.a(lib_a-e_sqrt.o)
                                                  /opt/paparazzi/arm-multilib/lib/gcc/arm-none-eabi/4.6.2/../../../../arm-none-eabi/lib/thumb/libm.a(lib_a-e_pow.o)
                                                  /opt/paparazzi/arm-multilib/lib/gcc/arm-none-eabi/4.6.2/../../../../arm-none-eabi/lib/thumb/libm.a(lib_a-e_asin.o)
                                                  /opt/paparazzi/arm-multilib/lib/gcc/arm-none-eabi/4.6.2/../../../../arm-none-eabi/lib/thumb/libm.a(lib_a-w_sqrt.o)
__ieee754_sqrtf                                   /opt/paparazzi/arm-multilib/lib/gcc/arm-none-eabi/4.6.2/../../../../arm-none-eabi/lib/thumb/libm.a(lib_a-ef_sqrt.o)
                                                  /opt/paparazzi/arm-multilib/lib/gcc/arm-none-eabi/4.6.2/../../../../arm-none-eabi/lib/thumb/libm.a(lib_a-ef_pow.o)
                                                  /opt/paparazzi/arm-multilib/lib/gcc/arm-none-eabi/4.6.2/../../../../arm-none-eabi/lib/thumb/libm.a(lib_a-ef_asin.o)
                                                  /opt/paparazzi/arm-multilib/lib/gcc/arm-none-eabi/4.6.2/../../../../arm-none-eabi/lib/thumb/libm.a(lib_a-wf_sqrt.o)
__kernel_cos                                      /opt/paparazzi/arm-multilib/lib/gcc/arm-none-eabi/4.6.2/../../../../arm-none-eabi/lib/thumb/libm.a(lib_a-k_cos.o)
                                                  /opt/paparazzi/arm-multilib/lib/gcc/arm-none-eabi/4.6.2/../../../../arm-none-eabi/lib/thumb/libm.a(lib_a-s_sin.o)
                                                  /opt/paparazzi/arm-multilib/lib/gcc/arm-none-eabi/4.6.2/../../../../arm-none-eabi/lib/thumb/libm.a(lib_a-s_cos.o)
__kernel_cosf                                     /opt/paparazzi/arm-multilib/lib/gcc/arm-none-eabi/4.6.2/../../../../arm-none-eabi/lib/thumb/libm.a(lib_a-kf_cos.o)
                                                  /opt/paparazzi/arm-multilib/lib/gcc/arm-none-eabi/4.6.2/../../../../arm-none-eabi/lib/thumb/libm.a(lib_a-sf_sin.o)
                                                  /opt/paparazzi/arm-multilib/lib/gcc/arm-none-eabi/4.6.2/../../../../arm-none-eabi/lib/thumb/libm.a(lib_a-sf_cos.o)
__kernel_rem_pio2                                 /opt/paparazzi/arm-multilib/lib/gcc/arm-none-eabi/4.6.2/../../../../arm-none-eabi/lib/thumb/libm.a(lib_a-k_rem_pio2.o)
                                                  /opt/paparazzi/arm-multilib/lib/gcc/arm-none-eabi/4.6.2/../../../../arm-none-eabi/lib/thumb/libm.a(lib_a-e_rem_pio2.o)
__kernel_rem_pio2f                                /opt/paparazzi/arm-multilib/lib/gcc/arm-none-eabi/4.6.2/../../../../arm-none-eabi/lib/thumb/libm.a(lib_a-kf_rem_pio2.o)
                                                  /opt/paparazzi/arm-multilib/lib/gcc/arm-none-eabi/4.6.2/../../../../arm-none-eabi/lib/thumb/libm.a(lib_a-ef_rem_pio2.o)
__kernel_sin                                      /opt/paparazzi/arm-multilib/lib/gcc/arm-none-eabi/4.6.2/../../../../arm-none-eabi/lib/thumb/libm.a(lib_a-k_sin.o)
                                                  /opt/paparazzi/arm-multilib/lib/gcc/arm-none-eabi/4.6.2/../../../../arm-none-eabi/lib/thumb/libm.a(lib_a-s_sin.o)
                                                  /opt/paparazzi/arm-multilib/lib/gcc/arm-none-eabi/4.6.2/../../../../arm-none-eabi/lib/thumb/libm.a(lib_a-s_cos.o)
__kernel_sinf                                     /opt/paparazzi/arm-multilib/lib/gcc/arm-none-eabi/4.6.2/../../../../arm-none-eabi/lib/thumb/libm.a(lib_a-kf_sin.o)
                                                  /opt/paparazzi/arm-multilib/lib/gcc/arm-none-eabi/4.6.2/../../../../arm-none-eabi/lib/thumb/libm.a(lib_a-sf_sin.o)
                                                  /opt/paparazzi/arm-multilib/lib/gcc/arm-none-eabi/4.6.2/../../../../arm-none-eabi/lib/thumb/libm.a(lib_a-sf_cos.o)
__kernel_tan                                      /opt/paparazzi/arm-multilib/lib/gcc/arm-none-eabi/4.6.2/../../../../arm-none-eabi/lib/thumb/libm.a(lib_a-k_tan.o)
                                                  /opt/paparazzi/arm-multilib/lib/gcc/arm-none-eabi/4.6.2/../../../../arm-none-eabi/lib/thumb/libm.a(lib_a-s_tan.o)
__ledf2                                           /opt/paparazzi/arm-multilib/lib/gcc/arm-none-eabi/4.6.2/thumb/libgcc.a(_arm_cmpdf2.o)
__lesf2                                           /opt/paparazzi/arm-multilib/lib/gcc/arm-none-eabi/4.6.2/thumb/libgcc.a(_arm_cmpsf2.o)
__ltdf2                                           /opt/paparazzi/arm-multilib/lib/gcc/arm-none-eabi/4.6.2/thumb/libgcc.a(_arm_cmpdf2.o)
__ltsf2                                           /opt/paparazzi/arm-multilib/lib/gcc/arm-none-eabi/4.6.2/thumb/libgcc.a(_arm_cmpsf2.o)
__muldf3                                          /opt/paparazzi/arm-multilib/lib/gcc/arm-none-eabi/4.6.2/thumb/libgcc.a(_arm_muldivdf3.o)
__mulsf3                                          /opt/paparazzi/arm-multilib/lib/gcc/arm-none-eabi/4.6.2/thumb/libgcc.a(_arm_muldivsf3.o)
__nedf2                                           /opt/paparazzi/arm-multilib/lib/gcc/arm-none-eabi/4.6.2/thumb/libgcc.a(_arm_cmpdf2.o)
__nesf2                                           /opt/paparazzi/arm-multilib/lib/gcc/arm-none-eabi/4.6.2/thumb/libgcc.a(_arm_cmpsf2.o)
__subdf3                                          /opt/paparazzi/arm-multilib/lib/gcc/arm-none-eabi/4.6.2/thumb/libgcc.a(_arm_addsubdf3.o)
__subsf3                                          /opt/paparazzi/arm-multilib/lib/gcc/arm-none-eabi/4.6.2/thumb/libgcc.a(_arm_addsubsf3.o)
__truncdfsf2                                      /opt/paparazzi/arm-multilib/lib/gcc/arm-none-eabi/4.6.2/thumb/libgcc.a(_arm_truncdfsf2.o)
__udivsi3                                         /opt/paparazzi/arm-multilib/lib/gcc/arm-none-eabi/4.6.2/thumb/libgcc.a(_udivsi3.o)
_boot                                             /home/lionel/paparazziProto1/var/MYAC/ap/crt0.o
_data                                             /home/lionel/paparazziProto1/var/MYAC/ap/crt0.o
_edata                                            /home/lionel/paparazziProto1/var/MYAC/ap/crt0.o
_etext                                            /home/lionel/paparazziProto1/var/MYAC/ap/crt0.o
_global_impure_ptr                                /opt/paparazzi/arm-multilib/lib/gcc/arm-none-eabi/4.6.2/../../../../arm-none-eabi/lib/thumb/libc.a(lib_a-impure.o)
_impure_ptr                                       /opt/paparazzi/arm-multilib/lib/gcc/arm-none-eabi/4.6.2/../../../../arm-none-eabi/lib/thumb/libc.a(lib_a-impure.o)
                                                  /opt/paparazzi/arm-multilib/lib/gcc/arm-none-eabi/4.6.2/../../../../arm-none-eabi/lib/thumb/libc.a(lib_a-errno.o)
_mainCRTStartup                                   /home/lionel/paparazziProto1/var/MYAC/ap/crt0.o
_reset                                            /home/lionel/paparazziProto1/var/MYAC/ap/crt0.o
_stack                                            /home/lionel/paparazziProto1/var/MYAC/ap/crt0.o
_start                                            /home/lionel/paparazziProto1/var/MYAC/ap/crt0.o
abort                                             /home/lionel/paparazziProto1/var/MYAC/ap/crt0.o
acs_idx                                           /home/lionel/paparazziProto1/var/MYAC/ap/subsystems/navigation/traffic_info.o
                                                  /home/lionel/paparazziProto1/var/MYAC/ap/firmwares/fixedwing/datalink.o
actuators                                         /home/lionel/paparazziProto1/var/MYAC/ap/actuators.o
                                                  /home/lionel/paparazziProto1/var/MYAC/ap/firmwares/fixedwing/main_fbw.o
actuators_init                                    /home/lionel/paparazziProto1/var/MYAC/ap/arch/lpc21/servos_4015_MAT_hw.o
                                                  /home/lionel/paparazziProto1/var/MYAC/ap/firmwares/fixedwing/main_fbw.o
adc0_val                                          /home/lionel/paparazziProto1/var/MYAC/ap/arch/lpc21/mcu_periph/adc_arch.o
adc1_val                                          /home/lionel/paparazziProto1/var/MYAC/ap/arch/lpc21/mcu_periph/adc_arch.o
adcISR0                                           /home/lionel/paparazziProto1/var/MYAC/ap/arch/lpc21/mcu_periph/adc_arch.o
adcISR1                                           /home/lionel/paparazziProto1/var/MYAC/ap/arch/lpc21/mcu_periph/adc_arch.o
adc_buf_channel                                   /home/lionel/paparazziProto1/var/MYAC/ap/arch/lpc21/mcu_periph/adc_arch.o
                                                  /home/lionel/paparazziProto1/var/MYAC/ap/subsystems/sensors/infrared_adc.o
                                                  /home/lionel/paparazziProto1/var/MYAC/ap/subsystems/imu/imu_analog.o
                                                  /home/lionel/paparazziProto1/var/MYAC/ap/subsystems/electrical.o
adc_init                                          /home/lionel/paparazziProto1/var/MYAC/ap/arch/lpc21/mcu_periph/adc_arch.o
                                                  /home/lionel/paparazziProto1/var/MYAC/ap/mcu.o
ahrs                                              /home/lionel/paparazziProto1/var/MYAC/ap/subsystems/ahrs/ahrs_infrared.o
                                                  /home/lionel/paparazziProto1/var/MYAC/ap/subsystems/ahrs.o
ahrs_align                                        /home/lionel/paparazziProto1/var/MYAC/ap/subsystems/ahrs/ahrs_infrared.o
ahrs_init                                         /home/lionel/paparazziProto1/var/MYAC/ap/subsystems/ahrs/ahrs_infrared.o
                                                  /home/lionel/paparazziProto1/var/MYAC/ap/firmwares/fixedwing/main_ap.o
ahrs_propagate                                    /home/lionel/paparazziProto1/var/MYAC/ap/subsystems/ahrs/ahrs_infrared.o
                                                  /home/lionel/paparazziProto1/var/MYAC/ap/firmwares/fixedwing/main_ap.o
ahrs_timeout_counter                              /home/lionel/paparazziProto1/var/MYAC/ap/firmwares/fixedwing/main_ap.o
ahrs_update_accel                                 /home/lionel/paparazziProto1/var/MYAC/ap/subsystems/ahrs/ahrs_infrared.o
                                                  /home/lionel/paparazziProto1/var/MYAC/ap/firmwares/fixedwing/main_ap.o
ahrs_update_gps                                   /home/lionel/paparazziProto1/var/MYAC/ap/subsystems/ahrs/ahrs_infrared.o
                                                  /home/lionel/paparazziProto1/var/MYAC/ap/firmwares/fixedwing/main_ap.o
ahrs_update_infrared                              /home/lionel/paparazziProto1/var/MYAC/ap/subsystems/ahrs/ahrs_infrared.o
                                                  /home/lionel/paparazziProto1/var/MYAC/ap/firmwares/fixedwing/main_ap.o
ahrs_update_mag                                   /home/lionel/paparazziProto1/var/MYAC/ap/subsystems/ahrs/ahrs_infrared.o
alt_kalman                                        /home/lionel/paparazziProto1/var/MYAC/ap/./subsystems/ins/ins_alt_float.o
alt_kalman_enabled                                /home/lionel/paparazziProto1/var/MYAC/ap/./subsystems/ins/ins_alt_float.o
alt_kalman_init                                   /home/lionel/paparazziProto1/var/MYAC/ap/./subsystems/ins/ins_alt_float.o
alt_kalman_reset                                  /home/lionel/paparazziProto1/var/MYAC/ap/./subsystems/ins/ins_alt_float.o
analog_imu_available                              /home/lionel/paparazziProto1/var/MYAC/ap/subsystems/imu/imu_analog.o
                                                  /home/lionel/paparazziProto1/var/MYAC/ap/firmwares/fixedwing/main_ap.o
ap_ok                                             /home/lionel/paparazziProto1/var/MYAC/ap/firmwares/fixedwing/main_fbw.o
                                                  /home/lionel/paparazziProto1/var/MYAC/ap/./inter_mcu.o
ap_state                                          /home/lionel/paparazziProto1/var/MYAC/ap/./inter_mcu.o
                                                  /home/lionel/paparazziProto1/var/MYAC/ap/modules/digital_cam/servo_cam_ctrl.o
                                                  /home/lionel/paparazziProto1/var/MYAC/ap/firmwares/fixedwing/main_ap.o
                                                  /home/lionel/paparazziProto1/var/MYAC/ap/firmwares/fixedwing/main_fbw.o
asin                                              /opt/paparazzi/arm-multilib/lib/gcc/arm-none-eabi/4.6.2/../../../../arm-none-eabi/lib/thumb/libm.a(lib_a-w_asin.o)
                                                  /home/lionel/paparazziProto1/var/MYAC/ap/math/pprz_geodetic_double.o
                                                  /home/lionel/paparazziProto1/var/MYAC/ap/math/pprz_geodetic_float.o
asinf                                             /opt/paparazzi/arm-multilib/lib/gcc/arm-none-eabi/4.6.2/../../../../arm-none-eabi/lib/thumb/libm.a(lib_a-wf_asin.o)
                                                  /home/lionel/paparazziProto1/var/MYAC/ap/math/pprz_orientation_conversion.o
atan                                              /opt/paparazzi/arm-multilib/lib/gcc/arm-none-eabi/4.6.2/../../../../arm-none-eabi/lib/thumb/libm.a(lib_a-s_atan.o)
                                                  /opt/paparazzi/arm-multilib/lib/gcc/arm-none-eabi/4.6.2/../../../../arm-none-eabi/lib/thumb/libm.a(lib_a-e_atan2.o)
                                                  /home/lionel/paparazziProto1/var/MYAC/ap/subsystems/nav.o
                                                  /home/lionel/paparazziProto1/var/MYAC/ap/math/pprz_geodetic_double.o
                                                  /home/lionel/paparazziProto1/var/MYAC/ap/math/pprz_geodetic_float.o
atan2                                             /opt/paparazzi/arm-multilib/lib/gcc/arm-none-eabi/4.6.2/../../../../arm-none-eabi/lib/thumb/libm.a(lib_a-w_atan2.o)
                                                  /home/lionel/paparazziProto1/var/MYAC/ap/subsystems/navigation/nav_line.o
                                                  /home/lionel/paparazziProto1/var/MYAC/ap/subsystems/nav.o
                                                  /home/lionel/paparazziProto1/var/MYAC/ap/subsystems/ahrs/ahrs_infrared.o
                                                  /home/lionel/paparazziProto1/var/MYAC/ap/math/pprz_geodetic_double.o
atan2f                                            /opt/paparazzi/arm-multilib/lib/gcc/arm-none-eabi/4.6.2/../../../../arm-none-eabi/lib/thumb/libm.a(lib_a-wf_atan2.o)
                                                  /home/lionel/paparazziProto1/var/MYAC/ap/subsystems/ahrs/ahrs_infrared.o
                                                  /home/lionel/paparazziProto1/var/MYAC/ap/state.o
                                                  /home/lionel/paparazziProto1/var/MYAC/ap/math/pprz_orientation_conversion.o
                                                  /home/lionel/paparazziProto1/var/MYAC/ap/math/pprz_geodetic_float.o
atanf                                             /opt/paparazzi/arm-multilib/lib/gcc/arm-none-eabi/4.6.2/../../../../arm-none-eabi/lib/thumb/libm.a(lib_a-sf_atan.o)
                                                  /opt/paparazzi/arm-multilib/lib/gcc/arm-none-eabi/4.6.2/../../../../arm-none-eabi/lib/thumb/libm.a(lib_a-ef_atan2.o)
                                                  /home/lionel/paparazziProto1/var/MYAC/ap/math/pprz_geodetic_float.o
attitude_loop                                     /home/lionel/paparazziProto1/var/MYAC/ap/firmwares/fixedwing/main_ap.o
attitude_tid                                      /home/lionel/paparazziProto1/var/MYAC/ap/firmwares/fixedwing/main_ap.o
autopilot_flight_time                             /home/lionel/paparazziProto1/var/MYAC/ap/firmwares/fixedwing/main_ap.o
                                                  /home/lionel/paparazziProto1/var/MYAC/ap/subsystems/nav.o
                                                  /home/lionel/paparazziProto1/var/MYAC/ap/firmwares/fixedwing/datalink.o
block_time                                        /home/lionel/paparazziProto1/var/MYAC/ap/subsystems/navigation/common_flight_plan.o
                                                  /home/lionel/paparazziProto1/var/MYAC/ap/subsystems/nav.o
                                                  /home/lionel/paparazziProto1/var/MYAC/ap/firmwares/fixedwing/main_ap.o
carrot_x                                          /home/lionel/paparazziProto1/var/MYAC/ap/subsystems/nav.o
carrot_y                                          /home/lionel/paparazziProto1/var/MYAC/ap/subsystems/nav.o
circle_bank                                       /home/lionel/paparazziProto1/var/MYAC/ap/subsystems/nav.o
command_pitch_trim                                /home/lionel/paparazziProto1/var/MYAC/ap/./commands.o
                                                  /home/lionel/paparazziProto1/var/MYAC/ap/firmwares/fixedwing/main_fbw.o
command_roll_trim                                 /home/lionel/paparazziProto1/var/MYAC/ap/./commands.o
                                                  /home/lionel/paparazziProto1/var/MYAC/ap/firmwares/fixedwing/main_fbw.o
commands                                          /home/lionel/paparazziProto1/var/MYAC/ap/./commands.o
                                                  /home/lionel/paparazziProto1/var/MYAC/ap/subsystems/electrical.o
                                                  /home/lionel/paparazziProto1/var/MYAC/ap/firmwares/fixedwing/main_fbw.o
commands_failsafe                                 /home/lionel/paparazziProto1/var/MYAC/ap/./commands.o
                                                  /home/lionel/paparazziProto1/var/MYAC/ap/firmwares/fixedwing/main_fbw.o
common_nav_periodic_task_4Hz                      /home/lionel/paparazziProto1/var/MYAC/ap/subsystems/nav.o
                                                  /home/lionel/paparazziProto1/var/MYAC/ap/firmwares/fixedwing/main_ap.o
compute_dist2_to_home                             /home/lionel/paparazziProto1/var/MYAC/ap/subsystems/nav.o
copysign                                          /opt/paparazzi/arm-multilib/lib/gcc/arm-none-eabi/4.6.2/../../../../arm-none-eabi/lib/thumb/libm.a(lib_a-s_copysign.o)
                                                  /opt/paparazzi/arm-multilib/lib/gcc/arm-none-eabi/4.6.2/../../../../arm-none-eabi/lib/thumb/libm.a(lib_a-s_scalbn.o)
copysignf                                         /opt/paparazzi/arm-multilib/lib/gcc/arm-none-eabi/4.6.2/../../../../arm-none-eabi/lib/thumb/libm.a(lib_a-sf_copysign.o)
                                                  /opt/paparazzi/arm-multilib/lib/gcc/arm-none-eabi/4.6.2/../../../../arm-none-eabi/lib/thumb/libm.a(lib_a-sf_scalbn.o)
cos                                               /opt/paparazzi/arm-multilib/lib/gcc/arm-none-eabi/4.6.2/../../../../arm-none-eabi/lib/thumb/libm.a(lib_a-s_cos.o)
                                                  /home/lionel/paparazziProto1/var/MYAC/ap/subsystems/nav.o
                                                  /home/lionel/paparazziProto1/var/MYAC/ap/math/pprz_geodetic_double.o
                                                  /home/lionel/paparazziProto1/var/MYAC/ap/math/pprz_geodetic_float.o
cosf                                              /opt/paparazzi/arm-multilib/lib/gcc/arm-none-eabi/4.6.2/../../../../arm-none-eabi/lib/thumb/libm.a(lib_a-sf_cos.o)
                                                  /home/lionel/paparazziProto1/var/MYAC/ap/subsystems/ahrs/ahrs_infrared.o
                                                  /home/lionel/paparazziProto1/var/MYAC/ap/math/pprz_orientation_conversion.o
                                                  /home/lionel/paparazziProto1/var/MYAC/ap/math/pprz_geodetic_double.o
                                                  /home/lionel/paparazziProto1/var/MYAC/ap/math/pprz_geodetic_float.o
                                                  /home/lionel/paparazziProto1/var/MYAC/ap/math/pprz_geodetic_int.o
cosh                                              /opt/paparazzi/arm-multilib/lib/gcc/arm-none-eabi/4.6.2/../../../../arm-none-eabi/lib/thumb/libm.a(lib_a-w_cosh.o)
                                                  /home/lionel/paparazziProto1/var/MYAC/ap/math/pprz_geodetic_double.o
                                                  /home/lionel/paparazziProto1/var/MYAC/ap/math/pprz_geodetic_float.o
datalink_time                                     /home/lionel/paparazziProto1/var/MYAC/ap/firmwares/fixedwing/datalink.o
                                                  /home/lionel/paparazziProto1/var/MYAC/ap/firmwares/fixedwing/main_ap.o
dc_autoshoot                                      /home/lionel/paparazziProto1/var/MYAC/ap/modules/digital_cam/dc.o
                                                  /home/lionel/paparazziProto1/var/MYAC/ap/firmwares/fixedwing/main_ap.o
dc_autoshoot_meter_grid                           /home/lionel/paparazziProto1/var/MYAC/ap/modules/digital_cam/dc.o
                                                  /home/lionel/paparazziProto1/var/MYAC/ap/firmwares/fixedwing/main_ap.o
dc_autoshoot_quartersec_period                    /home/lionel/paparazziProto1/var/MYAC/ap/modules/digital_cam/dc.o
                                                  /home/lionel/paparazziProto1/var/MYAC/ap/firmwares/fixedwing/main_ap.o
dc_buffer                                         /home/lionel/paparazziProto1/var/MYAC/ap/modules/digital_cam/dc.o
dc_cam_angle                                      /home/lionel/paparazziProto1/var/MYAC/ap/modules/digital_cam/dc.o
dc_cam_tracing                                    /home/lionel/paparazziProto1/var/MYAC/ap/modules/digital_cam/dc.o
dc_circle                                         /home/lionel/paparazziProto1/var/MYAC/ap/modules/digital_cam/dc.o
dc_circle_interval                                /home/lionel/paparazziProto1/var/MYAC/ap/modules/digital_cam/dc.o
                                                  /home/lionel/paparazziProto1/var/MYAC/ap/firmwares/fixedwing/main_ap.o
dc_circle_last_block                              /home/lionel/paparazziProto1/var/MYAC/ap/modules/digital_cam/dc.o
                                                  /home/lionel/paparazziProto1/var/MYAC/ap/firmwares/fixedwing/main_ap.o
dc_circle_max_blocks                              /home/lionel/paparazziProto1/var/MYAC/ap/modules/digital_cam/dc.o
                                                  /home/lionel/paparazziProto1/var/MYAC/ap/firmwares/fixedwing/main_ap.o
dc_circle_start_angle                             /home/lionel/paparazziProto1/var/MYAC/ap/modules/digital_cam/dc.o
                                                  /home/lionel/paparazziProto1/var/MYAC/ap/firmwares/fixedwing/main_ap.o
dc_gps_count                                      /home/lionel/paparazziProto1/var/MYAC/ap/modules/digital_cam/dc.o
                                                  /home/lionel/paparazziProto1/var/MYAC/ap/firmwares/fixedwing/main_ap.o
dc_gps_dist                                       /home/lionel/paparazziProto1/var/MYAC/ap/modules/digital_cam/dc.o
                                                  /home/lionel/paparazziProto1/var/MYAC/ap/firmwares/fixedwing/main_ap.o
dc_gps_next_dist                                  /home/lionel/paparazziProto1/var/MYAC/ap/modules/digital_cam/dc.o
                                                  /home/lionel/paparazziProto1/var/MYAC/ap/firmwares/fixedwing/main_ap.o
dc_gps_x                                          /home/lionel/paparazziProto1/var/MYAC/ap/modules/digital_cam/dc.o
                                                  /home/lionel/paparazziProto1/var/MYAC/ap/firmwares/fixedwing/main_ap.o
dc_gps_y                                          /home/lionel/paparazziProto1/var/MYAC/ap/modules/digital_cam/dc.o
                                                  /home/lionel/paparazziProto1/var/MYAC/ap/firmwares/fixedwing/main_ap.o
dc_info                                           /home/lionel/paparazziProto1/var/MYAC/ap/modules/digital_cam/dc.o
dc_photo_nr                                       /home/lionel/paparazziProto1/var/MYAC/ap/modules/digital_cam/dc.o
dc_probing                                        /home/lionel/paparazziProto1/var/MYAC/ap/modules/digital_cam/dc.o
                                                  /home/lionel/paparazziProto1/var/MYAC/ap/firmwares/fixedwing/main_ap.o
dc_send_command                                   /home/lionel/paparazziProto1/var/MYAC/ap/modules/digital_cam/servo_cam_ctrl.o
                                                  /home/lionel/paparazziProto1/var/MYAC/ap/firmwares/fixedwing/main_ap.o
dc_send_shot_position                             /home/lionel/paparazziProto1/var/MYAC/ap/modules/digital_cam/dc.o
                                                  /home/lionel/paparazziProto1/var/MYAC/ap/modules/digital_cam/servo_cam_ctrl.o
dc_stop                                           /home/lionel/paparazziProto1/var/MYAC/ap/modules/digital_cam/dc.o
dc_survey                                         /home/lionel/paparazziProto1/var/MYAC/ap/modules/digital_cam/dc.o
dc_timer                                          /home/lionel/paparazziProto1/var/MYAC/ap/modules/digital_cam/servo_cam_ctrl.o
                                                  /home/lionel/paparazziProto1/var/MYAC/ap/firmwares/fixedwing/main_ap.o
desired_x                                         /home/lionel/paparazziProto1/var/MYAC/ap/subsystems/nav.o
                                                  /home/lionel/paparazziProto1/var/MYAC/ap/firmwares/fixedwing/main_ap.o
desired_y                                         /home/lionel/paparazziProto1/var/MYAC/ap/subsystems/nav.o
                                                  /home/lionel/paparazziProto1/var/MYAC/ap/firmwares/fixedwing/main_ap.o
digital_cam_servo_servo_cam_ctrl_periodic_status  /home/lionel/paparazziProto1/var/MYAC/ap/firmwares/fixedwing/datalink.o
                                                  /home/lionel/paparazziProto1/var/MYAC/ap/firmwares/fixedwing/main_ap.o
disableFIQ                                        /home/lionel/paparazziProto1/var/MYAC/ap/arch/lpc21/armVIC.o
disableIRQ                                        /home/lionel/paparazziProto1/var/MYAC/ap/arch/lpc21/armVIC.o
                                                  /home/lionel/paparazziProto1/var/MYAC/ap/arch/lpc21/subsystems/settings_arch.o
                                                  /home/lionel/paparazziProto1/var/MYAC/ap/arch/lpc21/mcu_periph/uart_arch.o
                                                  /home/lionel/paparazziProto1/var/MYAC/ap/arch/lpc21/mcu_periph/i2c_arch.o
                                                  /home/lionel/paparazziProto1/var/MYAC/ap/mcu_periph/sys_time.o
dist2_to_home                                     /home/lionel/paparazziProto1/var/MYAC/ap/subsystems/nav.o
                                                  /home/lionel/paparazziProto1/var/MYAC/ap/firmwares/fixedwing/datalink.o
                                                  /home/lionel/paparazziProto1/var/MYAC/ap/firmwares/fixedwing/main_ap.o
dist2_to_wp                                       /home/lionel/paparazziProto1/var/MYAC/ap/subsystems/nav.o
                                                  /home/lionel/paparazziProto1/var/MYAC/ap/firmwares/fixedwing/datalink.o
                                                  /home/lionel/paparazziProto1/var/MYAC/ap/firmwares/fixedwing/main_ap.o
dl_buffer                                         /home/lionel/paparazziProto1/var/MYAC/ap/firmwares/fixedwing/datalink.o
                                                  /home/lionel/paparazziProto1/var/MYAC/ap/firmwares/fixedwing/main_ap.o
dl_msg_available                                  /home/lionel/paparazziProto1/var/MYAC/ap/firmwares/fixedwing/datalink.o
                                                  /home/lionel/paparazziProto1/var/MYAC/ap/firmwares/fixedwing/main_ap.o
dl_parse_msg                                      /home/lionel/paparazziProto1/var/MYAC/ap/firmwares/fixedwing/datalink.o
                                                  /home/lionel/paparazziProto1/var/MYAC/ap/firmwares/fixedwing/main_ap.o
downlink_nb_bytes                                 /home/lionel/paparazziProto1/var/MYAC/ap/modules/digital_cam/dc.o
                                                  /home/lionel/paparazziProto1/var/MYAC/ap/modules/openlog/openlog.o
                                                  /home/lionel/paparazziProto1/var/MYAC/ap/firmwares/fixedwing/datalink.o
                                                  /home/lionel/paparazziProto1/var/MYAC/ap/subsystems/datalink/downlink.o
                                                  /home/lionel/paparazziProto1/var/MYAC/ap/firmwares/fixedwing/main_ap.o
                                                  /home/lionel/paparazziProto1/var/MYAC/ap/firmwares/fixedwing/main_fbw.o
downlink_nb_msgs                                  /home/lionel/paparazziProto1/var/MYAC/ap/modules/digital_cam/dc.o
                                                  /home/lionel/paparazziProto1/var/MYAC/ap/modules/openlog/openlog.o
                                                  /home/lionel/paparazziProto1/var/MYAC/ap/firmwares/fixedwing/datalink.o
                                                  /home/lionel/paparazziProto1/var/MYAC/ap/subsystems/datalink/downlink.o
                                                  /home/lionel/paparazziProto1/var/MYAC/ap/firmwares/fixedwing/main_ap.o
                                                  /home/lionel/paparazziProto1/var/MYAC/ap/firmwares/fixedwing/main_fbw.o
downlink_nb_ovrn                                  /home/lionel/paparazziProto1/var/MYAC/ap/modules/digital_cam/dc.o
                                                  /home/lionel/paparazziProto1/var/MYAC/ap/modules/openlog/openlog.o
                                                  /home/lionel/paparazziProto1/var/MYAC/ap/firmwares/fixedwing/datalink.o
                                                  /home/lionel/paparazziProto1/var/MYAC/ap/subsystems/datalink/downlink.o
                                                  /home/lionel/paparazziProto1/var/MYAC/ap/firmwares/fixedwing/main_ap.o
                                                  /home/lionel/paparazziProto1/var/MYAC/ap/firmwares/fixedwing/main_fbw.o
ecef_of_enu_point_d                               /home/lionel/paparazziProto1/var/MYAC/ap/math/pprz_geodetic_double.o
ecef_of_enu_point_f                               /home/lionel/paparazziProto1/var/MYAC/ap/math/pprz_geodetic_float.o
ecef_of_enu_point_i                               /home/lionel/paparazziProto1/var/MYAC/ap/math/pprz_geodetic_int.o
ecef_of_enu_vect_d                                /home/lionel/paparazziProto1/var/MYAC/ap/math/pprz_geodetic_double.o
ecef_of_enu_vect_f                                /home/lionel/paparazziProto1/var/MYAC/ap/math/pprz_geodetic_float.o
ecef_of_enu_vect_i                                /home/lionel/paparazziProto1/var/MYAC/ap/math/pprz_geodetic_int.o
ecef_of_lla_d                                     /home/lionel/paparazziProto1/var/MYAC/ap/math/pprz_geodetic_double.o
                                                  /home/lionel/paparazziProto1/var/MYAC/ap/math/pprz_geodetic_int.o
ecef_of_lla_f                                     /home/lionel/paparazziProto1/var/MYAC/ap/math/pprz_geodetic_float.o
                                                  /home/lionel/paparazziProto1/var/MYAC/ap/state.o
ecef_of_lla_i                                     /home/lionel/paparazziProto1/var/MYAC/ap/math/pprz_geodetic_int.o
                                                  /home/lionel/paparazziProto1/var/MYAC/ap/state.o
ecef_of_ned_point_d                               /home/lionel/paparazziProto1/var/MYAC/ap/math/pprz_geodetic_double.o
ecef_of_ned_point_f                               /home/lionel/paparazziProto1/var/MYAC/ap/math/pprz_geodetic_float.o
                                                  /home/lionel/paparazziProto1/var/MYAC/ap/state.o
ecef_of_ned_point_i                               /home/lionel/paparazziProto1/var/MYAC/ap/math/pprz_geodetic_int.o
                                                  /home/lionel/paparazziProto1/var/MYAC/ap/state.o
ecef_of_ned_vect_d                                /home/lionel/paparazziProto1/var/MYAC/ap/math/pprz_geodetic_double.o
ecef_of_ned_vect_f                                /home/lionel/paparazziProto1/var/MYAC/ap/math/pprz_geodetic_float.o
                                                  /home/lionel/paparazziProto1/var/MYAC/ap/state.o
ecef_of_ned_vect_i                                /home/lionel/paparazziProto1/var/MYAC/ap/math/pprz_geodetic_int.o
                                                  /home/lionel/paparazziProto1/var/MYAC/ap/state.o
electrical                                        /home/lionel/paparazziProto1/var/MYAC/ap/subsystems/electrical.o
                                                  /home/lionel/paparazziProto1/var/MYAC/ap/firmwares/fixedwing/main_fbw.o
electrical_init                                   /home/lionel/paparazziProto1/var/MYAC/ap/subsystems/electrical.o
                                                  /home/lionel/paparazziProto1/var/MYAC/ap/firmwares/fixedwing/main_fbw.o
electrical_periodic                               /home/lionel/paparazziProto1/var/MYAC/ap/subsystems/electrical.o
                                                  /home/lionel/paparazziProto1/var/MYAC/ap/firmwares/fixedwing/main_fbw.o
electrical_tid                                    /home/lionel/paparazziProto1/var/MYAC/ap/firmwares/fixedwing/main_fbw.o
enableFIQ                                         /home/lionel/paparazziProto1/var/MYAC/ap/arch/lpc21/armVIC.o
enableIRQ                                         /home/lionel/paparazziProto1/var/MYAC/ap/arch/lpc21/armVIC.o
                                                  /home/lionel/paparazziProto1/var/MYAC/ap/arch/lpc21/subsystems/settings_arch.o
                                                  /home/lionel/paparazziProto1/var/MYAC/ap/firmwares/fixedwing/main_ap.o
                                                  /home/lionel/paparazziProto1/var/MYAC/ap/arch/lpc21/mcu_periph/i2c_arch.o
                                                  /home/lionel/paparazziProto1/var/MYAC/ap/mcu_periph/sys_time.o
energy                                            /home/lionel/paparazziProto1/var/MYAC/ap/firmwares/fixedwing/main_ap.o
enu_of_ecef_point_d                               /home/lionel/paparazziProto1/var/MYAC/ap/math/pprz_geodetic_double.o
enu_of_ecef_point_f                               /home/lionel/paparazziProto1/var/MYAC/ap/math/pprz_geodetic_float.o
                                                  /home/lionel/paparazziProto1/var/MYAC/ap/state.o
enu_of_ecef_point_i                               /home/lionel/paparazziProto1/var/MYAC/ap/math/pprz_geodetic_int.o
                                                  /home/lionel/paparazziProto1/var/MYAC/ap/state.o
enu_of_ecef_vect_d                                /home/lionel/paparazziProto1/var/MYAC/ap/math/pprz_geodetic_double.o
enu_of_ecef_vect_f                                /home/lionel/paparazziProto1/var/MYAC/ap/math/pprz_geodetic_float.o
                                                  /home/lionel/paparazziProto1/var/MYAC/ap/state.o
enu_of_ecef_vect_i                                /home/lionel/paparazziProto1/var/MYAC/ap/math/pprz_geodetic_int.o
                                                  /home/lionel/paparazziProto1/var/MYAC/ap/state.o
enu_of_lla_point_f                                /home/lionel/paparazziProto1/var/MYAC/ap/math/pprz_geodetic_float.o
                                                  /home/lionel/paparazziProto1/var/MYAC/ap/state.o
enu_of_lla_point_i                                /home/lionel/paparazziProto1/var/MYAC/ap/math/pprz_geodetic_int.o
                                                  /home/lionel/paparazziProto1/var/MYAC/ap/state.o
enu_of_lla_vect_i                                 /home/lionel/paparazziProto1/var/MYAC/ap/math/pprz_geodetic_int.o
estimator_z                                       /home/lionel/paparazziProto1/var/MYAC/ap/./subsystems/ins/ins_alt_float.o
estimator_z_dot                                   /home/lionel/paparazziProto1/var/MYAC/ap/./subsystems/ins/ins_alt_float.o
event_task_ap                                     /home/lionel/paparazziProto1/var/MYAC/ap/firmwares/fixedwing/main_ap.o
                                                  /home/lionel/paparazziProto1/var/MYAC/ap/firmwares/fixedwing/main.o
event_task_fbw                                    /home/lionel/paparazziProto1/var/MYAC/ap/firmwares/fixedwing/main_fbw.o
                                                  /home/lionel/paparazziProto1/var/MYAC/ap/firmwares/fixedwing/main.o
exit                                              /home/lionel/paparazziProto1/var/MYAC/ap/crt0.o
exp                                               /opt/paparazzi/arm-multilib/lib/gcc/arm-none-eabi/4.6.2/../../../../arm-none-eabi/lib/thumb/libm.a(lib_a-w_exp.o)
                                                  /home/lionel/paparazziProto1/var/MYAC/ap/math/pprz_geodetic_double.o
                                                  /home/lionel/paparazziProto1/var/MYAC/ap/math/pprz_geodetic_float.o
expm1                                             /opt/paparazzi/arm-multilib/lib/gcc/arm-none-eabi/4.6.2/../../../../arm-none-eabi/lib/thumb/libm.a(lib_a-s_expm1.o)
                                                  /opt/paparazzi/arm-multilib/lib/gcc/arm-none-eabi/4.6.2/../../../../arm-none-eabi/lib/thumb/libm.a(lib_a-e_sinh.o)
                                                  /opt/paparazzi/arm-multilib/lib/gcc/arm-none-eabi/4.6.2/../../../../arm-none-eabi/lib/thumb/libm.a(lib_a-e_cosh.o)
fabs                                              /opt/paparazzi/arm-multilib/lib/gcc/arm-none-eabi/4.6.2/../../../../arm-none-eabi/lib/thumb/libm.a(lib_a-s_fabs.o)
                                                  /opt/paparazzi/arm-multilib/lib/gcc/arm-none-eabi/4.6.2/../../../../arm-none-eabi/lib/thumb/libm.a(lib_a-k_tan.o)
                                                  /opt/paparazzi/arm-multilib/lib/gcc/arm-none-eabi/4.6.2/../../../../arm-none-eabi/lib/thumb/libm.a(lib_a-e_sinh.o)
                                                  /opt/paparazzi/arm-multilib/lib/gcc/arm-none-eabi/4.6.2/../../../../arm-none-eabi/lib/thumb/libm.a(lib_a-e_rem_pio2.o)
                                                  /opt/paparazzi/arm-multilib/lib/gcc/arm-none-eabi/4.6.2/../../../../arm-none-eabi/lib/thumb/libm.a(lib_a-e_pow.o)
                                                  /opt/paparazzi/arm-multilib/lib/gcc/arm-none-eabi/4.6.2/../../../../arm-none-eabi/lib/thumb/libm.a(lib_a-e_cosh.o)
                                                  /opt/paparazzi/arm-multilib/lib/gcc/arm-none-eabi/4.6.2/../../../../arm-none-eabi/lib/thumb/libm.a(lib_a-e_atan2.o)
                                                  /opt/paparazzi/arm-multilib/lib/gcc/arm-none-eabi/4.6.2/../../../../arm-none-eabi/lib/thumb/libm.a(lib_a-e_asin.o)
                                                  /opt/paparazzi/arm-multilib/lib/gcc/arm-none-eabi/4.6.2/../../../../arm-none-eabi/lib/thumb/libm.a(lib_a-w_cosh.o)
                                                  /opt/paparazzi/arm-multilib/lib/gcc/arm-none-eabi/4.6.2/../../../../arm-none-eabi/lib/thumb/libm.a(lib_a-w_asin.o)
                                                  /opt/paparazzi/arm-multilib/lib/gcc/arm-none-eabi/4.6.2/../../../../arm-none-eabi/lib/thumb/libm.a(lib_a-s_atan.o)
fabsf                                             /opt/paparazzi/arm-multilib/lib/gcc/arm-none-eabi/4.6.2/../../../../arm-none-eabi/lib/thumb/libm.a(lib_a-sf_fabs.o)
                                                  /opt/paparazzi/arm-multilib/lib/gcc/arm-none-eabi/4.6.2/../../../../arm-none-eabi/lib/thumb/libm.a(lib_a-ef_rem_pio2.o)
                                                  /opt/paparazzi/arm-multilib/lib/gcc/arm-none-eabi/4.6.2/../../../../arm-none-eabi/lib/thumb/libm.a(lib_a-ef_pow.o)
                                                  /opt/paparazzi/arm-multilib/lib/gcc/arm-none-eabi/4.6.2/../../../../arm-none-eabi/lib/thumb/libm.a(lib_a-ef_atan2.o)
                                                  /opt/paparazzi/arm-multilib/lib/gcc/arm-none-eabi/4.6.2/../../../../arm-none-eabi/lib/thumb/libm.a(lib_a-ef_asin.o)
                                                  /opt/paparazzi/arm-multilib/lib/gcc/arm-none-eabi/4.6.2/../../../../arm-none-eabi/lib/thumb/libm.a(lib_a-wf_asin.o)
                                                  /opt/paparazzi/arm-multilib/lib/gcc/arm-none-eabi/4.6.2/../../../../arm-none-eabi/lib/thumb/libm.a(lib_a-sf_atan.o)
fbw_mode                                          /home/lionel/paparazziProto1/var/MYAC/ap/firmwares/fixedwing/main_fbw.o
fbw_new_actuators                                 /home/lionel/paparazziProto1/var/MYAC/ap/firmwares/fixedwing/main_fbw.o
fbw_periodic_tid                                  /home/lionel/paparazziProto1/var/MYAC/ap/firmwares/fixedwing/main_fbw.o
fbw_state                                         /home/lionel/paparazziProto1/var/MYAC/ap/./inter_mcu.o
                                                  /home/lionel/paparazziProto1/var/MYAC/ap/firmwares/fixedwing/main_ap.o
                                                  /home/lionel/paparazziProto1/var/MYAC/ap/firmwares/fixedwing/main_fbw.o
finite                                            /opt/paparazzi/arm-multilib/lib/gcc/arm-none-eabi/4.6.2/../../../../arm-none-eabi/lib/thumb/libm.a(lib_a-s_finite.o)
                                                  /opt/paparazzi/arm-multilib/lib/gcc/arm-none-eabi/4.6.2/../../../../arm-none-eabi/lib/thumb/libm.a(lib_a-w_sinh.o)
                                                  /opt/paparazzi/arm-multilib/lib/gcc/arm-none-eabi/4.6.2/../../../../arm-none-eabi/lib/thumb/libm.a(lib_a-w_pow.o)
                                                  /opt/paparazzi/arm-multilib/lib/gcc/arm-none-eabi/4.6.2/../../../../arm-none-eabi/lib/thumb/libm.a(lib_a-w_exp.o)
finitef                                           /opt/paparazzi/arm-multilib/lib/gcc/arm-none-eabi/4.6.2/../../../../arm-none-eabi/lib/thumb/libm.a(lib_a-sf_finite.o)
                                                  /opt/paparazzi/arm-multilib/lib/gcc/arm-none-eabi/4.6.2/../../../../arm-none-eabi/lib/thumb/libm.a(lib_a-wf_pow.o)
flight_altitude                                   /home/lionel/paparazziProto1/var/MYAC/ap/subsystems/nav.o
                                                  /home/lionel/paparazziProto1/var/MYAC/ap/firmwares/fixedwing/datalink.o
                                                  /home/lionel/paparazziProto1/var/MYAC/ap/firmwares/fixedwing/main_ap.o
floor                                             /opt/paparazzi/arm-multilib/lib/gcc/arm-none-eabi/4.6.2/../../../../arm-none-eabi/lib/thumb/libm.a(lib_a-s_floor.o)
                                                  /opt/paparazzi/arm-multilib/lib/gcc/arm-none-eabi/4.6.2/../../../../arm-none-eabi/lib/thumb/libm.a(lib_a-k_rem_pio2.o)
floorf                                            /opt/paparazzi/arm-multilib/lib/gcc/arm-none-eabi/4.6.2/../../../../arm-none-eabi/lib/thumb/libm.a(lib_a-sf_floor.o)
                                                  /opt/paparazzi/arm-multilib/lib/gcc/arm-none-eabi/4.6.2/../../../../arm-none-eabi/lib/thumb/libm.a(lib_a-kf_rem_pio2.o)
                                                  /home/lionel/paparazziProto1/var/MYAC/ap/modules/digital_cam/dc.o
                                                  /home/lionel/paparazziProto1/var/MYAC/ap/firmwares/fixedwing/main_ap.o
fly_to_xy                                         /home/lionel/paparazziProto1/var/MYAC/ap/subsystems/nav.o
fmaxf                                             /opt/paparazzi/arm-multilib/lib/gcc/arm-none-eabi/4.6.2/../../../../arm-none-eabi/lib/thumb/libm.a(lib_a-sf_fmax.o)
                                                  /home/lionel/paparazziProto1/var/MYAC/ap/modules/digital_cam/dc.o
fminf                                             /opt/paparazzi/arm-multilib/lib/gcc/arm-none-eabi/4.6.2/../../../../arm-none-eabi/lib/thumb/libm.a(lib_a-sf_fmin.o)
                                                  /home/lionel/paparazziProto1/var/MYAC/ap/firmwares/fixedwing/main_ap.o
fmodf                                             /opt/paparazzi/arm-multilib/lib/gcc/arm-none-eabi/4.6.2/../../../../arm-none-eabi/lib/thumb/libm.a(lib_a-wf_fmod.o)
                                                  /home/lionel/paparazziProto1/var/MYAC/ap/modules/digital_cam/dc.o
fp_pitch                                          /home/lionel/paparazziProto1/var/MYAC/ap/subsystems/nav.o
gc_of_gd_lat_d                                    /home/lionel/paparazziProto1/var/MYAC/ap/math/pprz_geodetic_double.o
get_ac_info                                       /home/lionel/paparazziProto1/var/MYAC/ap/subsystems/navigation/traffic_info.o
gps                                               /home/lionel/paparazziProto1/var/MYAC/ap/modules/digital_cam/dc.o
                                                  /home/lionel/paparazziProto1/var/MYAC/ap/subsystems/nav.o
                                                  /home/lionel/paparazziProto1/var/MYAC/ap/subsystems/gps.o
                                                  /home/lionel/paparazziProto1/var/MYAC/ap/subsystems/gps/gps_ubx.o
                                                  /home/lionel/paparazziProto1/var/MYAC/ap/subsystems/ahrs/ahrs_infrared.o
                                                  /home/lionel/paparazziProto1/var/MYAC/ap/firmwares/fixedwing/datalink.o
                                                  /home/lionel/paparazziProto1/var/MYAC/ap/./subsystems/ins/ins_alt_float.o
                                                  /home/lionel/paparazziProto1/var/MYAC/ap/firmwares/fixedwing/main_ap.o
gps_impl_init                                     /home/lionel/paparazziProto1/var/MYAC/ap/subsystems/gps/gps_ubx.o
                                                  /home/lionel/paparazziProto1/var/MYAC/ap/subsystems/gps.o
gps_init                                          /home/lionel/paparazziProto1/var/MYAC/ap/subsystems/gps.o
                                                  /home/lionel/paparazziProto1/var/MYAC/ap/firmwares/fixedwing/main_ap.o
gps_lost                                          /home/lionel/paparazziProto1/var/MYAC/ap/firmwares/fixedwing/main_ap.o
gps_ubx                                           /home/lionel/paparazziProto1/var/MYAC/ap/subsystems/gps/gps_ubx.o
                                                  /home/lionel/paparazziProto1/var/MYAC/ap/firmwares/fixedwing/main_ap.o
gps_ubx_parse                                     /home/lionel/paparazziProto1/var/MYAC/ap/subsystems/gps/gps_ubx.o
                                                  /home/lionel/paparazziProto1/var/MYAC/ap/firmwares/fixedwing/main_ap.o
gps_ubx_read_message                              /home/lionel/paparazziProto1/var/MYAC/ap/subsystems/gps/gps_ubx.o
                                                  /home/lionel/paparazziProto1/var/MYAC/ap/firmwares/fixedwing/main_ap.o
ground_alt                                        /home/lionel/paparazziProto1/var/MYAC/ap/subsystems/nav.o
h_ctl_aileron_of_throttle                         /home/lionel/paparazziProto1/var/MYAC/ap/firmwares/fixedwing/stabilization/stabilization_attitude.o
h_ctl_aileron_setpoint                            /home/lionel/paparazziProto1/var/MYAC/ap/firmwares/fixedwing/stabilization/stabilization_attitude.o
                                                  /home/lionel/paparazziProto1/var/MYAC/ap/firmwares/fixedwing/main_ap.o
h_ctl_attitude_loop                               /home/lionel/paparazziProto1/var/MYAC/ap/firmwares/fixedwing/stabilization/stabilization_attitude.o
                                                  /home/lionel/paparazziProto1/var/MYAC/ap/firmwares/fixedwing/main_ap.o
h_ctl_auto1_rate                                  /home/lionel/paparazziProto1/var/MYAC/ap/firmwares/fixedwing/stabilization/stabilization_attitude.o
h_ctl_course_dgain                                /home/lionel/paparazziProto1/var/MYAC/ap/firmwares/fixedwing/stabilization/stabilization_attitude.o
h_ctl_course_loop                                 /home/lionel/paparazziProto1/var/MYAC/ap/firmwares/fixedwing/stabilization/stabilization_attitude.o
                                                  /home/lionel/paparazziProto1/var/MYAC/ap/firmwares/fixedwing/main_ap.o
h_ctl_course_pgain                                /home/lionel/paparazziProto1/var/MYAC/ap/subsystems/nav.o
                                                  /home/lionel/paparazziProto1/var/MYAC/ap/firmwares/fixedwing/stabilization/stabilization_attitude.o
h_ctl_course_pre_bank                             /home/lionel/paparazziProto1/var/MYAC/ap/subsystems/nav.o
                                                  /home/lionel/paparazziProto1/var/MYAC/ap/firmwares/fixedwing/stabilization/stabilization_attitude.o
h_ctl_course_pre_bank_correction                  /home/lionel/paparazziProto1/var/MYAC/ap/firmwares/fixedwing/stabilization/stabilization_attitude.o
h_ctl_course_setpoint                             /home/lionel/paparazziProto1/var/MYAC/ap/subsystems/nav.o
                                                  /home/lionel/paparazziProto1/var/MYAC/ap/firmwares/fixedwing/stabilization/stabilization_attitude.o
                                                  /home/lionel/paparazziProto1/var/MYAC/ap/firmwares/fixedwing/main_ap.o
h_ctl_disabled                                    /home/lionel/paparazziProto1/var/MYAC/ap/firmwares/fixedwing/stabilization/stabilization_attitude.o
h_ctl_elevator_of_roll                            /home/lionel/paparazziProto1/var/MYAC/ap/firmwares/fixedwing/stabilization/stabilization_attitude.o
h_ctl_elevator_setpoint                           /home/lionel/paparazziProto1/var/MYAC/ap/firmwares/fixedwing/stabilization/stabilization_attitude.o
                                                  /home/lionel/paparazziProto1/var/MYAC/ap/firmwares/fixedwing/main_ap.o
h_ctl_init                                        /home/lionel/paparazziProto1/var/MYAC/ap/firmwares/fixedwing/stabilization/stabilization_attitude.o
                                                  /home/lionel/paparazziProto1/var/MYAC/ap/firmwares/fixedwing/main_ap.o
h_ctl_pitch_dgain                                 /home/lionel/paparazziProto1/var/MYAC/ap/firmwares/fixedwing/stabilization/stabilization_attitude.o
h_ctl_pitch_loop_setpoint                         /home/lionel/paparazziProto1/var/MYAC/ap/firmwares/fixedwing/stabilization/stabilization_attitude.o
                                                  /home/lionel/paparazziProto1/var/MYAC/ap/firmwares/fixedwing/main_ap.o
h_ctl_pitch_pgain                                 /home/lionel/paparazziProto1/var/MYAC/ap/firmwares/fixedwing/stabilization/stabilization_attitude.o
h_ctl_pitch_setpoint                              /home/lionel/paparazziProto1/var/MYAC/ap/firmwares/fixedwing/stabilization/stabilization_attitude.o
                                                  /home/lionel/paparazziProto1/var/MYAC/ap/firmwares/fixedwing/main_ap.o
h_ctl_roll_attitude_gain                          /home/lionel/paparazziProto1/var/MYAC/ap/firmwares/fixedwing/stabilization/stabilization_attitude.o
h_ctl_roll_max_setpoint                           /home/lionel/paparazziProto1/var/MYAC/ap/subsystems/nav.o
                                                  /home/lionel/paparazziProto1/var/MYAC/ap/firmwares/fixedwing/stabilization/stabilization_attitude.o
h_ctl_roll_pgain                                  /home/lionel/paparazziProto1/var/MYAC/ap/firmwares/fixedwing/stabilization/stabilization_attitude.o
h_ctl_roll_rate_gain                              /home/lionel/paparazziProto1/var/MYAC/ap/firmwares/fixedwing/stabilization/stabilization_attitude.o
h_ctl_roll_setpoint                               /home/lionel/paparazziProto1/var/MYAC/ap/subsystems/nav.o
                                                  /home/lionel/paparazziProto1/var/MYAC/ap/firmwares/fixedwing/stabilization/stabilization_attitude.o
                                                  /home/lionel/paparazziProto1/var/MYAC/ap/firmwares/fixedwing/main_ap.o
h_ctl_roll_slew                                   /home/lionel/paparazziProto1/var/MYAC/ap/firmwares/fixedwing/stabilization/stabilization_attitude.o
handle_periodic_tasks_ap                          /home/lionel/paparazziProto1/var/MYAC/ap/firmwares/fixedwing/main_ap.o
                                                  /home/lionel/paparazziProto1/var/MYAC/ap/firmwares/fixedwing/main.o
handle_periodic_tasks_fbw                         /home/lionel/paparazziProto1/var/MYAC/ap/firmwares/fixedwing/main_fbw.o
                                                  /home/lionel/paparazziProto1/var/MYAC/ap/firmwares/fixedwing/main.o
heading                                           /home/lionel/paparazziProto1/var/MYAC/ap/subsystems/ahrs/ahrs_infrared.o
horizontal_mode                                   /home/lionel/paparazziProto1/var/MYAC/ap/subsystems/nav.o
                                                  /home/lionel/paparazziProto1/var/MYAC/ap/firmwares/fixedwing/main_ap.o
i2c_event                                         /home/lionel/paparazziProto1/var/MYAC/ap/arch/lpc21/mcu_periph/i2c_arch.o
                                                  /home/lionel/paparazziProto1/var/MYAC/ap/firmwares/fixedwing/main_fbw.o
i2c_idle                                          /home/lionel/paparazziProto1/var/MYAC/ap/arch/lpc21/mcu_periph/i2c_arch.o
i2c_init                                          /home/lionel/paparazziProto1/var/MYAC/ap/mcu_periph/i2c.o
i2c_setbitrate                                    /home/lionel/paparazziProto1/var/MYAC/ap/arch/lpc21/mcu_periph/i2c_arch.o
i2c_submit                                        /home/lionel/paparazziProto1/var/MYAC/ap/arch/lpc21/mcu_periph/i2c_arch.o
imu                                               /home/lionel/paparazziProto1/var/MYAC/ap/subsystems/ahrs/ahrs_infrared.o
                                                  /home/lionel/paparazziProto1/var/MYAC/ap/subsystems/imu/imu_analog.o
                                                  /home/lionel/paparazziProto1/var/MYAC/ap/subsystems/imu.o
                                                  /home/lionel/paparazziProto1/var/MYAC/ap/firmwares/fixedwing/main_ap.o
imu_float_init                                    /home/lionel/paparazziProto1/var/MYAC/ap/subsystems/imu.o
imu_impl_init                                     /home/lionel/paparazziProto1/var/MYAC/ap/subsystems/imu/imu_analog.o
                                                  /home/lionel/paparazziProto1/var/MYAC/ap/subsystems/imu.o
imu_init                                          /home/lionel/paparazziProto1/var/MYAC/ap/subsystems/imu.o
                                                  /home/lionel/paparazziProto1/var/MYAC/ap/firmwares/fixedwing/main_ap.o
imu_overrun                                       /home/lionel/paparazziProto1/var/MYAC/ap/subsystems/imu/imu_analog.o
imu_periodic                                      /home/lionel/paparazziProto1/var/MYAC/ap/subsystems/imu/imu_analog.o
                                                  /home/lionel/paparazziProto1/var/MYAC/ap/firmwares/fixedwing/main_ap.o
infrared                                          /home/lionel/paparazziProto1/var/MYAC/ap/subsystems/sensors/infrared_adc.o
                                                  /home/lionel/paparazziProto1/var/MYAC/ap/subsystems/sensors/infrared.o
                                                  /home/lionel/paparazziProto1/var/MYAC/ap/subsystems/ahrs/ahrs_infrared.o
                                                  /home/lionel/paparazziProto1/var/MYAC/ap/firmwares/fixedwing/main_ap.o
infrared_adc_init                                 /home/lionel/paparazziProto1/var/MYAC/ap/subsystems/sensors/infrared_adc.o
                                                  /home/lionel/paparazziProto1/var/MYAC/ap/firmwares/fixedwing/main_ap.o
infrared_adc_update                               /home/lionel/paparazziProto1/var/MYAC/ap/subsystems/sensors/infrared_adc.o
                                                  /home/lionel/paparazziProto1/var/MYAC/ap/firmwares/fixedwing/main_ap.o
infrared_event                                    /home/lionel/paparazziProto1/var/MYAC/ap/subsystems/sensors/infrared_adc.o
infrared_init                                     /home/lionel/paparazziProto1/var/MYAC/ap/subsystems/sensors/infrared_adc.o
infrared_struct_init                              /home/lionel/paparazziProto1/var/MYAC/ap/subsystems/sensors/infrared.o
                                                  /home/lionel/paparazziProto1/var/MYAC/ap/subsystems/sensors/infrared_adc.o
infrared_update                                   /home/lionel/paparazziProto1/var/MYAC/ap/subsystems/sensors/infrared_adc.o
init_ap                                           /home/lionel/paparazziProto1/var/MYAC/ap/firmwares/fixedwing/main_ap.o
                                                  /home/lionel/paparazziProto1/var/MYAC/ap/firmwares/fixedwing/main.o
init_fbw                                          /home/lionel/paparazziProto1/var/MYAC/ap/firmwares/fixedwing/main_fbw.o
                                                  /home/lionel/paparazziProto1/var/MYAC/ap/firmwares/fixedwing/main.o
init_openlog                                      /home/lionel/paparazziProto1/var/MYAC/ap/modules/openlog/openlog.o
                                                  /home/lionel/paparazziProto1/var/MYAC/ap/firmwares/fixedwing/main_ap.o
ins                                               /home/lionel/paparazziProto1/var/MYAC/ap/./subsystems/ins/ins_alt_float.o
                                                  /home/lionel/paparazziProto1/var/MYAC/ap/./subsystems/ins.o
ins_init                                          /home/lionel/paparazziProto1/var/MYAC/ap/./subsystems/ins/ins_alt_float.o
                                                  /home/lionel/paparazziProto1/var/MYAC/ap/firmwares/fixedwing/main_ap.o
ins_periodic                                      /home/lionel/paparazziProto1/var/MYAC/ap/./subsystems/ins/ins_alt_float.o
                                                  /home/lionel/paparazziProto1/var/MYAC/ap/firmwares/fixedwing/main_ap.o
ins_propagate                                     /home/lionel/paparazziProto1/var/MYAC/ap/./subsystems/ins/ins_alt_float.o
ins_realign_h                                     /home/lionel/paparazziProto1/var/MYAC/ap/./subsystems/ins/ins_alt_float.o
ins_realign_v                                     /home/lionel/paparazziProto1/var/MYAC/ap/./subsystems/ins/ins_alt_float.o
ins_update_baro                                   /home/lionel/paparazziProto1/var/MYAC/ap/./subsystems/ins/ins_alt_float.o
ins_update_gps                                    /home/lionel/paparazziProto1/var/MYAC/ap/./subsystems/ins/ins_alt_float.o
                                                  /home/lionel/paparazziProto1/var/MYAC/ap/firmwares/fixedwing/main_ap.o
ins_update_sonar                                  /home/lionel/paparazziProto1/var/MYAC/ap/./subsystems/ins/ins_alt_float.o
inter_mcu_received_ap                             /home/lionel/paparazziProto1/var/MYAC/ap/./inter_mcu.o
                                                  /home/lionel/paparazziProto1/var/MYAC/ap/firmwares/fixedwing/main_ap.o
                                                  /home/lionel/paparazziProto1/var/MYAC/ap/firmwares/fixedwing/main_fbw.o
inter_mcu_received_fbw                            /home/lionel/paparazziProto1/var/MYAC/ap/./inter_mcu.o
                                                  /home/lionel/paparazziProto1/var/MYAC/ap/firmwares/fixedwing/main_ap.o
                                                  /home/lionel/paparazziProto1/var/MYAC/ap/firmwares/fixedwing/main_fbw.o
ir_adc                                            /home/lionel/paparazziProto1/var/MYAC/ap/subsystems/sensors/infrared_adc.o
kill_throttle                                     /home/lionel/paparazziProto1/var/MYAC/ap/firmwares/fixedwing/main_ap.o
                                                  /home/lionel/paparazziProto1/var/MYAC/ap/subsystems/nav.o
                                                  /home/lionel/paparazziProto1/var/MYAC/ap/firmwares/fixedwing/datalink.o
last_block                                        /home/lionel/paparazziProto1/var/MYAC/ap/subsystems/navigation/common_flight_plan.o
last_stage                                        /home/lionel/paparazziProto1/var/MYAC/ap/subsystems/navigation/common_flight_plan.o
last_x                                            /home/lionel/paparazziProto1/var/MYAC/ap/subsystems/nav.o
last_y                                            /home/lionel/paparazziProto1/var/MYAC/ap/subsystems/nav.o
lateral_mode                                      /home/lionel/paparazziProto1/var/MYAC/ap/firmwares/fixedwing/main_ap.o
                                                  /home/lionel/paparazziProto1/var/MYAC/ap/subsystems/nav.o
launch                                            /home/lionel/paparazziProto1/var/MYAC/ap/firmwares/fixedwing/main_ap.o
                                                  /home/lionel/paparazziProto1/var/MYAC/ap/firmwares/fixedwing/datalink.o
lla_of_ecef_d                                     /home/lionel/paparazziProto1/var/MYAC/ap/math/pprz_geodetic_double.o
                                                  /home/lionel/paparazziProto1/var/MYAC/ap/math/pprz_geodetic_int.o
lla_of_ecef_f                                     /home/lionel/paparazziProto1/var/MYAC/ap/math/pprz_geodetic_float.o
                                                  /home/lionel/paparazziProto1/var/MYAC/ap/state.o
lla_of_ecef_i                                     /home/lionel/paparazziProto1/var/MYAC/ap/math/pprz_geodetic_int.o
                                                  /home/lionel/paparazziProto1/var/MYAC/ap/state.o
lla_of_utm_d                                      /home/lionel/paparazziProto1/var/MYAC/ap/math/pprz_geodetic_double.o
lla_of_utm_f                                      /home/lionel/paparazziProto1/var/MYAC/ap/math/pprz_geodetic_float.o
                                                  /home/lionel/paparazziProto1/var/MYAC/ap/state.o
log                                               /opt/paparazzi/arm-multilib/lib/gcc/arm-none-eabi/4.6.2/../../../../arm-none-eabi/lib/thumb/libm.a(lib_a-w_log.o)
                                                  /home/lionel/paparazziProto1/var/MYAC/ap/math/pprz_geodetic_double.o
                                                  /home/lionel/paparazziProto1/var/MYAC/ap/math/pprz_geodetic_float.o
ltp_def_from_ecef_d                               /home/lionel/paparazziProto1/var/MYAC/ap/math/pprz_geodetic_double.o
ltp_def_from_ecef_f                               /home/lionel/paparazziProto1/var/MYAC/ap/math/pprz_geodetic_float.o
ltp_def_from_ecef_i                               /home/lionel/paparazziProto1/var/MYAC/ap/math/pprz_geodetic_int.o
ltp_def_from_lla_f                                /home/lionel/paparazziProto1/var/MYAC/ap/math/pprz_geodetic_float.o
ltp_def_from_lla_i                                /home/lionel/paparazziProto1/var/MYAC/ap/math/pprz_geodetic_int.o
main                                              /home/lionel/paparazziProto1/var/MYAC/ap/firmwares/fixedwing/main.o
                                                  /home/lionel/paparazziProto1/var/MYAC/ap/crt0.o
matherr                                           /opt/paparazzi/arm-multilib/lib/gcc/arm-none-eabi/4.6.2/../../../../arm-none-eabi/lib/thumb/libm.a(lib_a-s_matherr.o)
                                                  /opt/paparazzi/arm-multilib/lib/gcc/arm-none-eabi/4.6.2/../../../../arm-none-eabi/lib/thumb/libm.a(lib_a-wf_sqrt.o)
                                                  /opt/paparazzi/arm-multilib/lib/gcc/arm-none-eabi/4.6.2/../../../../arm-none-eabi/lib/thumb/libm.a(lib_a-wf_pow.o)
                                                  /opt/paparazzi/arm-multilib/lib/gcc/arm-none-eabi/4.6.2/../../../../arm-none-eabi/lib/thumb/libm.a(lib_a-wf_fmod.o)
                                                  /opt/paparazzi/arm-multilib/lib/gcc/arm-none-eabi/4.6.2/../../../../arm-none-eabi/lib/thumb/libm.a(lib_a-wf_asin.o)
                                                  /opt/paparazzi/arm-multilib/lib/gcc/arm-none-eabi/4.6.2/../../../../arm-none-eabi/lib/thumb/libm.a(lib_a-w_sqrt.o)
                                                  /opt/paparazzi/arm-multilib/lib/gcc/arm-none-eabi/4.6.2/../../../../arm-none-eabi/lib/thumb/libm.a(lib_a-w_sinh.o)
                                                  /opt/paparazzi/arm-multilib/lib/gcc/arm-none-eabi/4.6.2/../../../../arm-none-eabi/lib/thumb/libm.a(lib_a-w_pow.o)
                                                  /opt/paparazzi/arm-multilib/lib/gcc/arm-none-eabi/4.6.2/../../../../arm-none-eabi/lib/thumb/libm.a(lib_a-w_log.o)
                                                  /opt/paparazzi/arm-multilib/lib/gcc/arm-none-eabi/4.6.2/../../../../arm-none-eabi/lib/thumb/libm.a(lib_a-w_exp.o)
                                                  /opt/paparazzi/arm-multilib/lib/gcc/arm-none-eabi/4.6.2/../../../../arm-none-eabi/lib/thumb/libm.a(lib_a-w_cosh.o)
                                                  /opt/paparazzi/arm-multilib/lib/gcc/arm-none-eabi/4.6.2/../../../../arm-none-eabi/lib/thumb/libm.a(lib_a-w_asin.o)
max_dist_from_home                                /home/lionel/paparazziProto1/var/MYAC/ap/subsystems/nav.o
mcu_arch_init                                     /home/lionel/paparazziProto1/var/MYAC/ap/arch/lpc21/mcu_arch.o
                                                  /home/lionel/paparazziProto1/var/MYAC/ap/mcu.o
mcu_init                                          /home/lionel/paparazziProto1/var/MYAC/ap/mcu.o
                                                  /home/lionel/paparazziProto1/var/MYAC/ap/firmwares/fixedwing/main_fbw.o
modules_tid                                       /home/lionel/paparazziProto1/var/MYAC/ap/firmwares/fixedwing/main_ap.o
monitor_task                                      /home/lionel/paparazziProto1/var/MYAC/ap/firmwares/fixedwing/main_ap.o
monitor_tid                                       /home/lionel/paparazziProto1/var/MYAC/ap/firmwares/fixedwing/main_ap.o
nan                                               /opt/paparazzi/arm-multilib/lib/gcc/arm-none-eabi/4.6.2/../../../../arm-none-eabi/lib/thumb/libm.a(lib_a-s_nan.o)
                                                  /opt/paparazzi/arm-multilib/lib/gcc/arm-none-eabi/4.6.2/../../../../arm-none-eabi/lib/thumb/libm.a(lib_a-e_pow.o)
                                                  /opt/paparazzi/arm-multilib/lib/gcc/arm-none-eabi/4.6.2/../../../../arm-none-eabi/lib/thumb/libm.a(lib_a-wf_asin.o)
                                                  /opt/paparazzi/arm-multilib/lib/gcc/arm-none-eabi/4.6.2/../../../../arm-none-eabi/lib/thumb/libm.a(lib_a-w_log.o)
                                                  /opt/paparazzi/arm-multilib/lib/gcc/arm-none-eabi/4.6.2/../../../../arm-none-eabi/lib/thumb/libm.a(lib_a-w_asin.o)
nanf                                              /opt/paparazzi/arm-multilib/lib/gcc/arm-none-eabi/4.6.2/../../../../arm-none-eabi/lib/thumb/libm.a(lib_a-sf_nan.o)
                                                  /opt/paparazzi/arm-multilib/lib/gcc/arm-none-eabi/4.6.2/../../../../arm-none-eabi/lib/thumb/libm.a(lib_a-ef_pow.o)
nav_altitude                                      /home/lionel/paparazziProto1/var/MYAC/ap/subsystems/nav.o
                                                  /home/lionel/paparazziProto1/var/MYAC/ap/subsystems/navigation/nav_line.o
                                                  /home/lionel/paparazziProto1/var/MYAC/ap/subsystems/navigation/nav_survey_rectangle.o
nav_approaching_xy                                /home/lionel/paparazziProto1/var/MYAC/ap/subsystems/nav.o
                                                  /home/lionel/paparazziProto1/var/MYAC/ap/subsystems/navigation/nav_line.o
nav_block                                         /home/lionel/paparazziProto1/var/MYAC/ap/subsystems/navigation/common_flight_plan.o
                                                  /home/lionel/paparazziProto1/var/MYAC/ap/subsystems/nav.o
                                                  /home/lionel/paparazziProto1/var/MYAC/ap/firmwares/fixedwing/datalink.o
                                                  /home/lionel/paparazziProto1/var/MYAC/ap/firmwares/fixedwing/main_ap.o
nav_circle_XY                                     /home/lionel/paparazziProto1/var/MYAC/ap/subsystems/nav.o
                                                  /home/lionel/paparazziProto1/var/MYAC/ap/subsystems/navigation/nav_line.o
                                                  /home/lionel/paparazziProto1/var/MYAC/ap/subsystems/navigation/nav_survey_rectangle.o
nav_circle_radians                                /home/lionel/paparazziProto1/var/MYAC/ap/subsystems/nav.o
                                                  /home/lionel/paparazziProto1/var/MYAC/ap/firmwares/fixedwing/datalink.o
                                                  /home/lionel/paparazziProto1/var/MYAC/ap/firmwares/fixedwing/main_ap.o
nav_circle_radius                                 /home/lionel/paparazziProto1/var/MYAC/ap/subsystems/nav.o
                                                  /home/lionel/paparazziProto1/var/MYAC/ap/firmwares/fixedwing/main_ap.o
nav_circle_trigo_qdr                              /home/lionel/paparazziProto1/var/MYAC/ap/subsystems/navigation/nav_line.o
                                                  /home/lionel/paparazziProto1/var/MYAC/ap/subsystems/nav.o
nav_circle_x                                      /home/lionel/paparazziProto1/var/MYAC/ap/subsystems/nav.o
                                                  /home/lionel/paparazziProto1/var/MYAC/ap/firmwares/fixedwing/main_ap.o
nav_circle_y                                      /home/lionel/paparazziProto1/var/MYAC/ap/subsystems/nav.o
                                                  /home/lionel/paparazziProto1/var/MYAC/ap/firmwares/fixedwing/main_ap.o
nav_climb                                         /home/lionel/paparazziProto1/var/MYAC/ap/subsystems/nav.o
nav_course                                        /home/lionel/paparazziProto1/var/MYAC/ap/subsystems/nav.o
                                                  /home/lionel/paparazziProto1/var/MYAC/ap/firmwares/fixedwing/datalink.o
                                                  /home/lionel/paparazziProto1/var/MYAC/ap/firmwares/fixedwing/main_ap.o
nav_eight                                         /home/lionel/paparazziProto1/var/MYAC/ap/subsystems/nav.o
nav_eight_init                                    /home/lionel/paparazziProto1/var/MYAC/ap/subsystems/nav.o
nav_glide_pitch_trim                              /home/lionel/paparazziProto1/var/MYAC/ap/subsystems/nav.o
nav_goto_block                                    /home/lionel/paparazziProto1/var/MYAC/ap/subsystems/navigation/common_flight_plan.o
                                                  /home/lionel/paparazziProto1/var/MYAC/ap/firmwares/fixedwing/datalink.o
nav_ground_speed_pgain                            /home/lionel/paparazziProto1/var/MYAC/ap/subsystems/nav.o
nav_ground_speed_setpoint                         /home/lionel/paparazziProto1/var/MYAC/ap/subsystems/nav.o
nav_home                                          /home/lionel/paparazziProto1/var/MYAC/ap/subsystems/nav.o
                                                  /home/lionel/paparazziProto1/var/MYAC/ap/firmwares/fixedwing/main_ap.o
nav_in_circle                                     /home/lionel/paparazziProto1/var/MYAC/ap/subsystems/nav.o
                                                  /home/lionel/paparazziProto1/var/MYAC/ap/subsystems/navigation/nav_survey_rectangle.o
                                                  /home/lionel/paparazziProto1/var/MYAC/ap/firmwares/fixedwing/main_ap.o
nav_in_segment                                    /home/lionel/paparazziProto1/var/MYAC/ap/subsystems/nav.o
                                                  /home/lionel/paparazziProto1/var/MYAC/ap/subsystems/navigation/nav_survey_rectangle.o
                                                  /home/lionel/paparazziProto1/var/MYAC/ap/firmwares/fixedwing/main_ap.o
nav_init                                          /home/lionel/paparazziProto1/var/MYAC/ap/subsystems/nav.o
                                                  /home/lionel/paparazziProto1/var/MYAC/ap/firmwares/fixedwing/main_ap.o
nav_init_block                                    /home/lionel/paparazziProto1/var/MYAC/ap/subsystems/navigation/common_flight_plan.o
                                                  /home/lionel/paparazziProto1/var/MYAC/ap/subsystems/nav.o
nav_init_stage                                    /home/lionel/paparazziProto1/var/MYAC/ap/subsystems/nav.o
                                                  /home/lionel/paparazziProto1/var/MYAC/ap/subsystems/navigation/nav_line.o
                                                  /home/lionel/paparazziProto1/var/MYAC/ap/subsystems/navigation/common_flight_plan.o
nav_line                                          /home/lionel/paparazziProto1/var/MYAC/ap/subsystems/navigation/nav_line.o
                                                  /home/lionel/paparazziProto1/var/MYAC/ap/subsystems/nav.o
nav_line_init                                     /home/lionel/paparazziProto1/var/MYAC/ap/subsystems/navigation/nav_line.o
                                                  /home/lionel/paparazziProto1/var/MYAC/ap/subsystems/nav.o
nav_mode                                          /home/lionel/paparazziProto1/var/MYAC/ap/subsystems/nav.o
nav_move_waypoint                                 /home/lionel/paparazziProto1/var/MYAC/ap/subsystems/nav.o
                                                  /home/lionel/paparazziProto1/var/MYAC/ap/firmwares/fixedwing/datalink.o
nav_oval                                          /home/lionel/paparazziProto1/var/MYAC/ap/subsystems/nav.o
nav_oval_count                                    /home/lionel/paparazziProto1/var/MYAC/ap/subsystems/nav.o
                                                  /home/lionel/paparazziProto1/var/MYAC/ap/firmwares/fixedwing/datalink.o
                                                  /home/lionel/paparazziProto1/var/MYAC/ap/firmwares/fixedwing/main_ap.o
nav_oval_init                                     /home/lionel/paparazziProto1/var/MYAC/ap/subsystems/nav.o
nav_periodic_task                                 /home/lionel/paparazziProto1/var/MYAC/ap/subsystems/nav.o
                                                  /home/lionel/paparazziProto1/var/MYAC/ap/firmwares/fixedwing/main_ap.o
nav_pitch                                         /home/lionel/paparazziProto1/var/MYAC/ap/subsystems/navigation/nav_line.o
                                                  /home/lionel/paparazziProto1/var/MYAC/ap/subsystems/navigation/nav_survey_rectangle.o
                                                  /home/lionel/paparazziProto1/var/MYAC/ap/subsystems/nav.o
                                                  /home/lionel/paparazziProto1/var/MYAC/ap/firmwares/fixedwing/guidance/guidance_v.o
                                                  /home/lionel/paparazziProto1/var/MYAC/ap/firmwares/fixedwing/main_ap.o
nav_radius                                        /home/lionel/paparazziProto1/var/MYAC/ap/subsystems/nav.o
                                                  /home/lionel/paparazziProto1/var/MYAC/ap/firmwares/fixedwing/datalink.o
                                                  /home/lionel/paparazziProto1/var/MYAC/ap/firmwares/fixedwing/main_ap.o
nav_reset_reference                               /home/lionel/paparazziProto1/var/MYAC/ap/subsystems/nav.o
nav_route_xy                                      /home/lionel/paparazziProto1/var/MYAC/ap/subsystems/nav.o
                                                  /home/lionel/paparazziProto1/var/MYAC/ap/subsystems/navigation/nav_line.o
                                                  /home/lionel/paparazziProto1/var/MYAC/ap/subsystems/navigation/nav_survey_rectangle.o
nav_segment_x_1                                   /home/lionel/paparazziProto1/var/MYAC/ap/subsystems/nav.o
                                                  /home/lionel/paparazziProto1/var/MYAC/ap/firmwares/fixedwing/main_ap.o
nav_segment_x_2                                   /home/lionel/paparazziProto1/var/MYAC/ap/subsystems/nav.o
                                                  /home/lionel/paparazziProto1/var/MYAC/ap/firmwares/fixedwing/main_ap.o
nav_segment_y_1                                   /home/lionel/paparazziProto1/var/MYAC/ap/subsystems/nav.o
                                                  /home/lionel/paparazziProto1/var/MYAC/ap/firmwares/fixedwing/main_ap.o
nav_segment_y_2                                   /home/lionel/paparazziProto1/var/MYAC/ap/subsystems/nav.o
                                                  /home/lionel/paparazziProto1/var/MYAC/ap/firmwares/fixedwing/main_ap.o
nav_shift                                         /home/lionel/paparazziProto1/var/MYAC/ap/subsystems/nav.o
                                                  /home/lionel/paparazziProto1/var/MYAC/ap/firmwares/fixedwing/datalink.o
                                                  /home/lionel/paparazziProto1/var/MYAC/ap/firmwares/fixedwing/main_ap.o
nav_stage                                         /home/lionel/paparazziProto1/var/MYAC/ap/subsystems/navigation/common_flight_plan.o
                                                  /home/lionel/paparazziProto1/var/MYAC/ap/subsystems/nav.o
                                                  /home/lionel/paparazziProto1/var/MYAC/ap/firmwares/fixedwing/datalink.o
                                                  /home/lionel/paparazziProto1/var/MYAC/ap/firmwares/fixedwing/main_ap.o
nav_survey_active                                 /home/lionel/paparazziProto1/var/MYAC/ap/subsystems/navigation/nav_survey_rectangle.o
                                                  /home/lionel/paparazziProto1/var/MYAC/ap/subsystems/nav.o
                                                  /home/lionel/paparazziProto1/var/MYAC/ap/firmwares/fixedwing/main_ap.o
nav_survey_east                                   /home/lionel/paparazziProto1/var/MYAC/ap/subsystems/navigation/nav_survey_rectangle.o
                                                  /home/lionel/paparazziProto1/var/MYAC/ap/subsystems/nav.o
                                                  /home/lionel/paparazziProto1/var/MYAC/ap/firmwares/fixedwing/main_ap.o
nav_survey_north                                  /home/lionel/paparazziProto1/var/MYAC/ap/subsystems/navigation/nav_survey_rectangle.o
                                                  /home/lionel/paparazziProto1/var/MYAC/ap/subsystems/nav.o
                                                  /home/lionel/paparazziProto1/var/MYAC/ap/firmwares/fixedwing/main_ap.o
nav_survey_rectangle                              /home/lionel/paparazziProto1/var/MYAC/ap/subsystems/navigation/nav_survey_rectangle.o
                                                  /home/lionel/paparazziProto1/var/MYAC/ap/subsystems/nav.o
nav_survey_rectangle_init                         /home/lionel/paparazziProto1/var/MYAC/ap/subsystems/navigation/nav_survey_rectangle.o
                                                  /home/lionel/paparazziProto1/var/MYAC/ap/subsystems/nav.o
nav_survey_shift                                  /home/lionel/paparazziProto1/var/MYAC/ap/subsystems/navigation/nav_survey_rectangle.o
                                                  /home/lionel/paparazziProto1/var/MYAC/ap/subsystems/nav.o
nav_survey_south                                  /home/lionel/paparazziProto1/var/MYAC/ap/subsystems/navigation/nav_survey_rectangle.o
                                                  /home/lionel/paparazziProto1/var/MYAC/ap/subsystems/nav.o
                                                  /home/lionel/paparazziProto1/var/MYAC/ap/firmwares/fixedwing/main_ap.o
nav_survey_west                                   /home/lionel/paparazziProto1/var/MYAC/ap/subsystems/navigation/nav_survey_rectangle.o
                                                  /home/lionel/paparazziProto1/var/MYAC/ap/subsystems/nav.o
                                                  /home/lionel/paparazziProto1/var/MYAC/ap/firmwares/fixedwing/main_ap.o
nav_throttle_setpoint                             /home/lionel/paparazziProto1/var/MYAC/ap/subsystems/nav.o
                                                  /home/lionel/paparazziProto1/var/MYAC/ap/firmwares/fixedwing/main_ap.o
nav_update_waypoints_alt                          /home/lionel/paparazziProto1/var/MYAC/ap/subsystems/nav.o
nav_utm_east0                                     /home/lionel/paparazziProto1/var/MYAC/ap/subsystems/nav.o
                                                  /home/lionel/paparazziProto1/var/MYAC/ap/firmwares/fixedwing/datalink.o
                                                  /home/lionel/paparazziProto1/var/MYAC/ap/./subsystems/ins/ins_alt_float.o
                                                  /home/lionel/paparazziProto1/var/MYAC/ap/firmwares/fixedwing/main_ap.o
nav_utm_north0                                    /home/lionel/paparazziProto1/var/MYAC/ap/subsystems/nav.o
                                                  /home/lionel/paparazziProto1/var/MYAC/ap/firmwares/fixedwing/datalink.o
                                                  /home/lionel/paparazziProto1/var/MYAC/ap/./subsystems/ins/ins_alt_float.o
                                                  /home/lionel/paparazziProto1/var/MYAC/ap/firmwares/fixedwing/main_ap.o
nav_utm_zone0                                     /home/lionel/paparazziProto1/var/MYAC/ap/subsystems/nav.o
                                                  /home/lionel/paparazziProto1/var/MYAC/ap/firmwares/fixedwing/datalink.o
                                                  /home/lionel/paparazziProto1/var/MYAC/ap/./subsystems/ins/ins_alt_float.o
                                                  /home/lionel/paparazziProto1/var/MYAC/ap/firmwares/fixedwing/main_ap.o
nav_without_gps                                   /home/lionel/paparazziProto1/var/MYAC/ap/subsystems/nav.o
                                                  /home/lionel/paparazziProto1/var/MYAC/ap/firmwares/fixedwing/main_ap.o
navigation_task                                   /home/lionel/paparazziProto1/var/MYAC/ap/firmwares/fixedwing/main_ap.o
navigation_tid                                    /home/lionel/paparazziProto1/var/MYAC/ap/firmwares/fixedwing/main_ap.o
nb_waypoint                                       /home/lionel/paparazziProto1/var/MYAC/ap/subsystems/nav.o
                                                  /home/lionel/paparazziProto1/var/MYAC/ap/firmwares/fixedwing/main_ap.o
ned_of_ecef_point_d                               /home/lionel/paparazziProto1/var/MYAC/ap/math/pprz_geodetic_double.o
ned_of_ecef_point_f                               /home/lionel/paparazziProto1/var/MYAC/ap/math/pprz_geodetic_float.o
                                                  /home/lionel/paparazziProto1/var/MYAC/ap/state.o
ned_of_ecef_point_i                               /home/lionel/paparazziProto1/var/MYAC/ap/math/pprz_geodetic_int.o
                                                  /home/lionel/paparazziProto1/var/MYAC/ap/state.o
ned_of_ecef_vect_d                                /home/lionel/paparazziProto1/var/MYAC/ap/math/pprz_geodetic_double.o
ned_of_ecef_vect_f                                /home/lionel/paparazziProto1/var/MYAC/ap/math/pprz_geodetic_float.o
                                                  /home/lionel/paparazziProto1/var/MYAC/ap/state.o
ned_of_ecef_vect_i                                /home/lionel/paparazziProto1/var/MYAC/ap/math/pprz_geodetic_int.o
                                                  /home/lionel/paparazziProto1/var/MYAC/ap/state.o
ned_of_lla_point_f                                /home/lionel/paparazziProto1/var/MYAC/ap/math/pprz_geodetic_float.o
                                                  /home/lionel/paparazziProto1/var/MYAC/ap/state.o
ned_of_lla_point_i                                /home/lionel/paparazziProto1/var/MYAC/ap/math/pprz_geodetic_int.o
                                                  /home/lionel/paparazziProto1/var/MYAC/ap/state.o
ned_of_lla_vect_i                                 /home/lionel/paparazziProto1/var/MYAC/ap/math/pprz_geodetic_int.o
openlog_periodic_2Hz_openlog_status               /home/lionel/paparazziProto1/var/MYAC/ap/firmwares/fixedwing/datalink.o
                                                  /home/lionel/paparazziProto1/var/MYAC/ap/firmwares/fixedwing/main_ap.o
orientationCalcEulers_f                           /home/lionel/paparazziProto1/var/MYAC/ap/math/pprz_orientation_conversion.o
                                                  /home/lionel/paparazziProto1/var/MYAC/ap/modules/digital_cam/dc.o
                                                  /home/lionel/paparazziProto1/var/MYAC/ap/firmwares/fixedwing/stabilization/stabilization_attitude.o
                                                  /home/lionel/paparazziProto1/var/MYAC/ap/firmwares/fixedwing/main_ap.o
orientationCalcEulers_i                           /home/lionel/paparazziProto1/var/MYAC/ap/math/pprz_orientation_conversion.o
orientationCalcQuat_f                             /home/lionel/paparazziProto1/var/MYAC/ap/math/pprz_orientation_conversion.o
orientationCalcQuat_i                             /home/lionel/paparazziProto1/var/MYAC/ap/math/pprz_orientation_conversion.o
orientationCalcRMat_f                             /home/lionel/paparazziProto1/var/MYAC/ap/math/pprz_orientation_conversion.o
orientationCalcRMat_i                             /home/lionel/paparazziProto1/var/MYAC/ap/math/pprz_orientation_conversion.o
oval_status                                       /home/lionel/paparazziProto1/var/MYAC/ap/subsystems/nav.o
periodic_2Hz_openlog                              /home/lionel/paparazziProto1/var/MYAC/ap/modules/openlog/openlog.o
                                                  /home/lionel/paparazziProto1/var/MYAC/ap/firmwares/fixedwing/main_ap.o
periodic_task_fbw                                 /home/lionel/paparazziProto1/var/MYAC/ap/firmwares/fixedwing/main_fbw.o
pers_settings                                     /home/lionel/paparazziProto1/var/MYAC/ap/subsystems/settings.o
persistent_read                                   /home/lionel/paparazziProto1/var/MYAC/ap/arch/lpc21/subsystems/settings_arch.o
persistent_write                                  /home/lionel/paparazziProto1/var/MYAC/ap/arch/lpc21/subsystems/settings_arch.o
pow                                               /opt/paparazzi/arm-multilib/lib/gcc/arm-none-eabi/4.6.2/../../../../arm-none-eabi/lib/thumb/libm.a(lib_a-w_pow.o)
                                                  /home/lionel/paparazziProto1/var/MYAC/ap/subsystems/electrical.o
                                                  /home/lionel/paparazziProto1/var/MYAC/ap/math/pprz_geodetic_double.o
                                                  /home/lionel/paparazziProto1/var/MYAC/ap/math/pprz_geodetic_float.o
power_switch                                      /home/lionel/paparazziProto1/var/MYAC/ap/firmwares/fixedwing/main_ap.o
powf                                              /opt/paparazzi/arm-multilib/lib/gcc/arm-none-eabi/4.6.2/../../../../arm-none-eabi/lib/thumb/libm.a(lib_a-wf_pow.o)
                                                  /home/lionel/paparazziProto1/var/MYAC/ap/math/pprz_geodetic_float.o
ppm_arch_init                                     /home/lionel/paparazziProto1/var/MYAC/ap/arch/lpc21/subsystems/radio_control/ppm_arch.o
                                                  /home/lionel/paparazziProto1/var/MYAC/ap/subsystems/radio_control/ppm.o
ppm_cur_pulse                                     /home/lionel/paparazziProto1/var/MYAC/ap/arch/lpc21/subsystems/radio_control/ppm_arch.o
                                                  /home/lionel/paparazziProto1/var/MYAC/ap/arch/lpc21/mcu_periph/sys_time_arch.o
ppm_data_valid                                    /home/lionel/paparazziProto1/var/MYAC/ap/arch/lpc21/subsystems/radio_control/ppm_arch.o
                                                  /home/lionel/paparazziProto1/var/MYAC/ap/arch/lpc21/mcu_periph/sys_time_arch.o
ppm_frame_available                               /home/lionel/paparazziProto1/var/MYAC/ap/arch/lpc21/subsystems/radio_control/ppm_arch.o
                                                  /home/lionel/paparazziProto1/var/MYAC/ap/subsystems/radio_control/ppm.o
                                                  /home/lionel/paparazziProto1/var/MYAC/ap/firmwares/fixedwing/main_fbw.o
                                                  /home/lionel/paparazziProto1/var/MYAC/ap/arch/lpc21/mcu_periph/sys_time_arch.o
ppm_last_pulse_time                               /home/lionel/paparazziProto1/var/MYAC/ap/arch/lpc21/subsystems/radio_control/ppm_arch.o
                                                  /home/lionel/paparazziProto1/var/MYAC/ap/arch/lpc21/mcu_periph/sys_time_arch.o
ppm_pulses                                        /home/lionel/paparazziProto1/var/MYAC/ap/subsystems/radio_control/ppm.o
                                                  /home/lionel/paparazziProto1/var/MYAC/ap/firmwares/fixedwing/main_fbw.o
                                                  /home/lionel/paparazziProto1/var/MYAC/ap/arch/lpc21/mcu_periph/sys_time_arch.o
pprz_mode                                         /home/lionel/paparazziProto1/var/MYAC/ap/firmwares/fixedwing/main_ap.o
                                                  /home/lionel/paparazziProto1/var/MYAC/ap/subsystems/nav.o
                                                  /home/lionel/paparazziProto1/var/MYAC/ap/firmwares/fixedwing/datalink.o
pprz_trig_int                                     /home/lionel/paparazziProto1/var/MYAC/ap/math/pprz_trig_int.o
                                                  /home/lionel/paparazziProto1/var/MYAC/ap/subsystems/imu.o
                                                  /home/lionel/paparazziProto1/var/MYAC/ap/math/pprz_orientation_conversion.o
radio_control                                     /home/lionel/paparazziProto1/var/MYAC/ap/subsystems/radio_control.o
                                                  /home/lionel/paparazziProto1/var/MYAC/ap/firmwares/fixedwing/main_fbw.o
radio_control_impl_init                           /home/lionel/paparazziProto1/var/MYAC/ap/subsystems/radio_control/ppm.o
                                                  /home/lionel/paparazziProto1/var/MYAC/ap/firmwares/fixedwing/main_fbw.o
rc_pitch                                          /home/lionel/paparazziProto1/var/MYAC/ap/subsystems/nav.o
reporting_task                                    /home/lionel/paparazziProto1/var/MYAC/ap/firmwares/fixedwing/main_ap.o
reset                                             /home/lionel/paparazziProto1/var/MYAC/ap/crt0.o
                                                  /home/lionel/paparazziProto1/var/MYAC/ap/arch/lpc21/mcu_arch.o
restoreFIQ                                        /home/lionel/paparazziProto1/var/MYAC/ap/arch/lpc21/armVIC.o
restoreIRQ                                        /home/lionel/paparazziProto1/var/MYAC/ap/arch/lpc21/armVIC.o
                                                  /home/lionel/paparazziProto1/var/MYAC/ap/arch/lpc21/mcu_periph/uart_arch.o
rint                                              /opt/paparazzi/arm-multilib/lib/gcc/arm-none-eabi/4.6.2/../../../../arm-none-eabi/lib/thumb/libm.a(lib_a-s_rint.o)
                                                  /opt/paparazzi/arm-multilib/lib/gcc/arm-none-eabi/4.6.2/../../../../arm-none-eabi/lib/thumb/libm.a(lib_a-wf_pow.o)
                                                  /opt/paparazzi/arm-multilib/lib/gcc/arm-none-eabi/4.6.2/../../../../arm-none-eabi/lib/thumb/libm.a(lib_a-w_pow.o)
                                                  /home/lionel/paparazziProto1/var/MYAC/ap/math/pprz_geodetic_int.o
scalbn                                            /opt/paparazzi/arm-multilib/lib/gcc/arm-none-eabi/4.6.2/../../../../arm-none-eabi/lib/thumb/libm.a(lib_a-s_scalbn.o)
                                                  /opt/paparazzi/arm-multilib/lib/gcc/arm-none-eabi/4.6.2/../../../../arm-none-eabi/lib/thumb/libm.a(lib_a-k_rem_pio2.o)
                                                  /opt/paparazzi/arm-multilib/lib/gcc/arm-none-eabi/4.6.2/../../../../arm-none-eabi/lib/thumb/libm.a(lib_a-e_pow.o)
scalbnf                                           /opt/paparazzi/arm-multilib/lib/gcc/arm-none-eabi/4.6.2/../../../../arm-none-eabi/lib/thumb/libm.a(lib_a-sf_scalbn.o)
                                                  /opt/paparazzi/arm-multilib/lib/gcc/arm-none-eabi/4.6.2/../../../../arm-none-eabi/lib/thumb/libm.a(lib_a-kf_rem_pio2.o)
                                                  /opt/paparazzi/arm-multilib/lib/gcc/arm-none-eabi/4.6.2/../../../../arm-none-eabi/lib/thumb/libm.a(lib_a-ef_pow.o)
sensors_task                                      /home/lionel/paparazziProto1/var/MYAC/ap/firmwares/fixedwing/main_ap.o
sensors_tid                                       /home/lionel/paparazziProto1/var/MYAC/ap/firmwares/fixedwing/main_ap.o
servos_4015_idx                                   /home/lionel/paparazziProto1/var/MYAC/ap/arch/lpc21/servos_4015_MAT_hw.o
                                                  /home/lionel/paparazziProto1/var/MYAC/ap/arch/lpc21/mcu_periph/sys_time_arch.o
servos_delay                                      /home/lionel/paparazziProto1/var/MYAC/ap/arch/lpc21/servos_4015_MAT_hw.o
                                                  /home/lionel/paparazziProto1/var/MYAC/ap/arch/lpc21/mcu_periph/sys_time_arch.o
servos_values                                     /home/lionel/paparazziProto1/var/MYAC/ap/arch/lpc21/servos_4015_MAT_hw.o
                                                  /home/lionel/paparazziProto1/var/MYAC/ap/firmwares/fixedwing/main_fbw.o
                                                  /home/lionel/paparazziProto1/var/MYAC/ap/arch/lpc21/mcu_periph/sys_time_arch.o
settings_init                                     /home/lionel/paparazziProto1/var/MYAC/ap/subsystems/settings.o
                                                  /home/lionel/paparazziProto1/var/MYAC/ap/firmwares/fixedwing/main_ap.o
settings_store                                    /home/lionel/paparazziProto1/var/MYAC/ap/subsystems/settings.o
settings_store_now                                /home/lionel/paparazziProto1/var/MYAC/ap/subsystems/settings.o
sin                                               /opt/paparazzi/arm-multilib/lib/gcc/arm-none-eabi/4.6.2/../../../../arm-none-eabi/lib/thumb/libm.a(lib_a-s_sin.o)
                                                  /home/lionel/paparazziProto1/var/MYAC/ap/subsystems/nav.o
                                                  /home/lionel/paparazziProto1/var/MYAC/ap/math/pprz_geodetic_double.o
                                                  /home/lionel/paparazziProto1/var/MYAC/ap/math/pprz_geodetic_float.o
sinf                                              /opt/paparazzi/arm-multilib/lib/gcc/arm-none-eabi/4.6.2/../../../../arm-none-eabi/lib/thumb/libm.a(lib_a-sf_sin.o)
                                                  /home/lionel/paparazziProto1/var/MYAC/ap/subsystems/ahrs/ahrs_infrared.o
                                                  /home/lionel/paparazziProto1/var/MYAC/ap/math/pprz_orientation_conversion.o
                                                  /home/lionel/paparazziProto1/var/MYAC/ap/math/pprz_geodetic_double.o
                                                  /home/lionel/paparazziProto1/var/MYAC/ap/math/pprz_geodetic_float.o
                                                  /home/lionel/paparazziProto1/var/MYAC/ap/math/pprz_geodetic_int.o
sinh                                              /opt/paparazzi/arm-multilib/lib/gcc/arm-none-eabi/4.6.2/../../../../arm-none-eabi/lib/thumb/libm.a(lib_a-w_sinh.o)
                                                  /home/lionel/paparazziProto1/var/MYAC/ap/math/pprz_geodetic_double.o
                                                  /home/lionel/paparazziProto1/var/MYAC/ap/math/pprz_geodetic_float.o
sqrt                                              /opt/paparazzi/arm-multilib/lib/gcc/arm-none-eabi/4.6.2/../../../../arm-none-eabi/lib/thumb/libm.a(lib_a-w_sqrt.o)
                                                  /home/lionel/paparazziProto1/var/MYAC/ap/subsystems/navigation/nav_line.o
                                                  /home/lionel/paparazziProto1/var/MYAC/ap/subsystems/nav.o
                                                  /home/lionel/paparazziProto1/var/MYAC/ap/math/pprz_geodetic_double.o
sqrtf                                             /opt/paparazzi/arm-multilib/lib/gcc/arm-none-eabi/4.6.2/../../../../arm-none-eabi/lib/thumb/libm.a(lib_a-wf_sqrt.o)
                                                  /home/lionel/paparazziProto1/var/MYAC/ap/state.o
                                                  /home/lionel/paparazziProto1/var/MYAC/ap/math/pprz_orientation_conversion.o
                                                  /home/lionel/paparazziProto1/var/MYAC/ap/math/pprz_geodetic_double.o
                                                  /home/lionel/paparazziProto1/var/MYAC/ap/math/pprz_geodetic_float.o
stage_time                                        /home/lionel/paparazziProto1/var/MYAC/ap/subsystems/navigation/common_flight_plan.o
                                                  /home/lionel/paparazziProto1/var/MYAC/ap/subsystems/nav.o
                                                  /home/lionel/paparazziProto1/var/MYAC/ap/firmwares/fixedwing/main_ap.o
start                                             /home/lionel/paparazziProto1/var/MYAC/ap/crt0.o
state                                             /home/lionel/paparazziProto1/var/MYAC/ap/modules/digital_cam/dc.o
                                                  /home/lionel/paparazziProto1/var/MYAC/ap/subsystems/navigation/nav_survey_rectangle.o
                                                  /home/lionel/paparazziProto1/var/MYAC/ap/subsystems/nav.o
                                                  /home/lionel/paparazziProto1/var/MYAC/ap/subsystems/ahrs/ahrs_infrared.o
                                                  /home/lionel/paparazziProto1/var/MYAC/ap/firmwares/fixedwing/guidance/guidance_v.o
                                                  /home/lionel/paparazziProto1/var/MYAC/ap/firmwares/fixedwing/stabilization/stabilization_attitude.o
                                                  /home/lionel/paparazziProto1/var/MYAC/ap/firmwares/fixedwing/datalink.o
                                                  /home/lionel/paparazziProto1/var/MYAC/ap/./subsystems/ins/ins_alt_float.o
                                                  /home/lionel/paparazziProto1/var/MYAC/ap/state.o
                                                  /home/lionel/paparazziProto1/var/MYAC/ap/firmwares/fixedwing/main_ap.o
stateCalcAccelEcef_f                              /home/lionel/paparazziProto1/var/MYAC/ap/state.o
stateCalcAccelEcef_i                              /home/lionel/paparazziProto1/var/MYAC/ap/state.o
stateCalcAccelNed_f                               /home/lionel/paparazziProto1/var/MYAC/ap/state.o
stateCalcAccelNed_i                               /home/lionel/paparazziProto1/var/MYAC/ap/state.o
stateCalcAirspeed_f                               /home/lionel/paparazziProto1/var/MYAC/ap/state.o
stateCalcAirspeed_i                               /home/lionel/paparazziProto1/var/MYAC/ap/state.o
stateCalcBodyRates_f                              /home/lionel/paparazziProto1/var/MYAC/ap/state.o
                                                  /home/lionel/paparazziProto1/var/MYAC/ap/firmwares/fixedwing/stabilization/stabilization_attitude.o
stateCalcBodyRates_i                              /home/lionel/paparazziProto1/var/MYAC/ap/state.o
stateCalcHorizontalSpeedDir_f                     /home/lionel/paparazziProto1/var/MYAC/ap/state.o
                                                  /home/lionel/paparazziProto1/var/MYAC/ap/subsystems/navigation/nav_survey_rectangle.o
                                                  /home/lionel/paparazziProto1/var/MYAC/ap/subsystems/nav.o
                                                  /home/lionel/paparazziProto1/var/MYAC/ap/firmwares/fixedwing/stabilization/stabilization_attitude.o
stateCalcHorizontalSpeedDir_i                     /home/lionel/paparazziProto1/var/MYAC/ap/state.o
stateCalcHorizontalSpeedNorm_f                    /home/lionel/paparazziProto1/var/MYAC/ap/state.o
                                                  /home/lionel/paparazziProto1/var/MYAC/ap/subsystems/nav.o
                                                  /home/lionel/paparazziProto1/var/MYAC/ap/firmwares/fixedwing/stabilization/stabilization_attitude.o
                                                  /home/lionel/paparazziProto1/var/MYAC/ap/firmwares/fixedwing/main_ap.o
stateCalcHorizontalSpeedNorm_i                    /home/lionel/paparazziProto1/var/MYAC/ap/state.o
stateCalcHorizontalWindspeed_f                    /home/lionel/paparazziProto1/var/MYAC/ap/state.o
                                                  /home/lionel/paparazziProto1/var/MYAC/ap/subsystems/ahrs/ahrs_infrared.o
stateCalcHorizontalWindspeed_i                    /home/lionel/paparazziProto1/var/MYAC/ap/state.o
stateCalcPositionEcef_f                           /home/lionel/paparazziProto1/var/MYAC/ap/state.o
stateCalcPositionEcef_i                           /home/lionel/paparazziProto1/var/MYAC/ap/state.o
stateCalcPositionEnu_f                            /home/lionel/paparazziProto1/var/MYAC/ap/state.o
                                                  /home/lionel/paparazziProto1/var/MYAC/ap/modules/digital_cam/dc.o
                                                  /home/lionel/paparazziProto1/var/MYAC/ap/subsystems/navigation/nav_survey_rectangle.o
                                                  /home/lionel/paparazziProto1/var/MYAC/ap/subsystems/nav.o
                                                  /home/lionel/paparazziProto1/var/MYAC/ap/firmwares/fixedwing/datalink.o
                                                  /home/lionel/paparazziProto1/var/MYAC/ap/firmwares/fixedwing/main_ap.o
stateCalcPositionEnu_i                            /home/lionel/paparazziProto1/var/MYAC/ap/state.o
stateCalcPositionLla_f                            /home/lionel/paparazziProto1/var/MYAC/ap/state.o
stateCalcPositionLla_i                            /home/lionel/paparazziProto1/var/MYAC/ap/state.o
stateCalcPositionNed_f                            /home/lionel/paparazziProto1/var/MYAC/ap/state.o
stateCalcPositionNed_i                            /home/lionel/paparazziProto1/var/MYAC/ap/state.o
stateCalcPositionUtm_f                            /home/lionel/paparazziProto1/var/MYAC/ap/state.o
                                                  /home/lionel/paparazziProto1/var/MYAC/ap/subsystems/nav.o
                                                  /home/lionel/paparazziProto1/var/MYAC/ap/firmwares/fixedwing/guidance/guidance_v.o
                                                  /home/lionel/paparazziProto1/var/MYAC/ap/firmwares/fixedwing/main_ap.o
stateCalcSpeedEcef_f                              /home/lionel/paparazziProto1/var/MYAC/ap/state.o
stateCalcSpeedEcef_i                              /home/lionel/paparazziProto1/var/MYAC/ap/state.o
stateCalcSpeedEnu_f                               /home/lionel/paparazziProto1/var/MYAC/ap/state.o
                                                  /home/lionel/paparazziProto1/var/MYAC/ap/firmwares/fixedwing/guidance/guidance_v.o
                                                  /home/lionel/paparazziProto1/var/MYAC/ap/firmwares/fixedwing/main_ap.o
stateCalcSpeedEnu_i                               /home/lionel/paparazziProto1/var/MYAC/ap/state.o
stateCalcSpeedNed_f                               /home/lionel/paparazziProto1/var/MYAC/ap/state.o
stateCalcSpeedNed_i                               /home/lionel/paparazziProto1/var/MYAC/ap/state.o
stateInit                                         /home/lionel/paparazziProto1/var/MYAC/ap/state.o
                                                  /home/lionel/paparazziProto1/var/MYAC/ap/firmwares/fixedwing/main_ap.o
sys_time                                          /home/lionel/paparazziProto1/var/MYAC/ap/firmwares/fixedwing/main_ap.o
                                                  /home/lionel/paparazziProto1/var/MYAC/ap/firmwares/fixedwing/main_fbw.o
                                                  /home/lionel/paparazziProto1/var/MYAC/ap/arch/lpc21/mcu_periph/sys_time_arch.o
                                                  /home/lionel/paparazziProto1/var/MYAC/ap/mcu_periph/sys_time.o
sys_time_arch_init                                /home/lionel/paparazziProto1/var/MYAC/ap/arch/lpc21/mcu_periph/sys_time_arch.o
                                                  /home/lionel/paparazziProto1/var/MYAC/ap/mcu_periph/sys_time.o
sys_time_cancel_timer                             /home/lionel/paparazziProto1/var/MYAC/ap/mcu_periph/sys_time.o
sys_time_init                                     /home/lionel/paparazziProto1/var/MYAC/ap/mcu_periph/sys_time.o
                                                  /home/lionel/paparazziProto1/var/MYAC/ap/mcu.o
sys_time_register_timer                           /home/lionel/paparazziProto1/var/MYAC/ap/mcu_periph/sys_time.o
                                                  /home/lionel/paparazziProto1/var/MYAC/ap/firmwares/fixedwing/main_ap.o
                                                  /home/lionel/paparazziProto1/var/MYAC/ap/firmwares/fixedwing/main_fbw.o
sys_time_update_timer                             /home/lionel/paparazziProto1/var/MYAC/ap/mcu_periph/sys_time.o
tan                                               /opt/paparazzi/arm-multilib/lib/gcc/arm-none-eabi/4.6.2/../../../../arm-none-eabi/lib/thumb/libm.a(lib_a-s_tan.o)
                                                  /home/lionel/paparazziProto1/var/MYAC/ap/math/pprz_geodetic_double.o
                                                  /home/lionel/paparazziProto1/var/MYAC/ap/math/pprz_geodetic_float.o
telemetry_mode_Ap                                 /home/lionel/paparazziProto1/var/MYAC/ap/firmwares/fixedwing/ap_downlink.o
                                                  /home/lionel/paparazziProto1/var/MYAC/ap/firmwares/fixedwing/datalink.o
                                                  /home/lionel/paparazziProto1/var/MYAC/ap/firmwares/fixedwing/main_ap.o
telemetry_mode_Fbw                                /home/lionel/paparazziProto1/var/MYAC/ap/firmwares/fixedwing/fbw_downlink.o
                                                  /home/lionel/paparazziProto1/var/MYAC/ap/firmwares/fixedwing/datalink.o
                                                  /home/lionel/paparazziProto1/var/MYAC/ap/firmwares/fixedwing/main_ap.o
                                                  /home/lionel/paparazziProto1/var/MYAC/ap/firmwares/fixedwing/main_fbw.o
telemetry_tid                                     /home/lionel/paparazziProto1/var/MYAC/ap/firmwares/fixedwing/main_ap.o
the_acs                                           /home/lionel/paparazziProto1/var/MYAC/ap/subsystems/navigation/traffic_info.o
                                                  /home/lionel/paparazziProto1/var/MYAC/ap/firmwares/fixedwing/datalink.o
the_acs_id                                        /home/lionel/paparazziProto1/var/MYAC/ap/subsystems/navigation/traffic_info.o
                                                  /home/lionel/paparazziProto1/var/MYAC/ap/firmwares/fixedwing/datalink.o
time_since_last_ap                                /home/lionel/paparazziProto1/var/MYAC/ap/firmwares/fixedwing/main_fbw.o
                                                  /home/lionel/paparazziProto1/var/MYAC/ap/./inter_mcu.o
timestamp                                         /home/lionel/paparazziProto1/var/MYAC/ap/modules/openlog/openlog.o
too_far_from_home                                 /home/lionel/paparazziProto1/var/MYAC/ap/subsystems/nav.o
                                                  /home/lionel/paparazziProto1/var/MYAC/ap/firmwares/fixedwing/main_ap.o
traffic_info_init                                 /home/lionel/paparazziProto1/var/MYAC/ap/subsystems/navigation/traffic_info.o
                                                  /home/lionel/paparazziProto1/var/MYAC/ap/firmwares/fixedwing/main_ap.o
uart0                                             /home/lionel/paparazziProto1/var/MYAC/ap/modules/digital_cam/dc.o
                                                  /home/lionel/paparazziProto1/var/MYAC/ap/modules/openlog/openlog.o
                                                  /home/lionel/paparazziProto1/var/MYAC/ap/firmwares/fixedwing/datalink.o
                                                  /home/lionel/paparazziProto1/var/MYAC/ap/subsystems/datalink/xbee.o
                                                  /home/lionel/paparazziProto1/var/MYAC/ap/arch/lpc21/mcu_periph/uart_arch.o
                                                  /home/lionel/paparazziProto1/var/MYAC/ap/mcu_periph/uart.o
                                                  /home/lionel/paparazziProto1/var/MYAC/ap/firmwares/fixedwing/main_ap.o
                                                  /home/lionel/paparazziProto1/var/MYAC/ap/firmwares/fixedwing/main_fbw.o
uart0_ISR                                         /home/lionel/paparazziProto1/var/MYAC/ap/arch/lpc21/mcu_periph/uart_arch.o
uart0_init                                        /home/lionel/paparazziProto1/var/MYAC/ap/arch/lpc21/mcu_periph/uart_arch.o
                                                  /home/lionel/paparazziProto1/var/MYAC/ap/mcu.o
uart1                                             /home/lionel/paparazziProto1/var/MYAC/ap/subsystems/gps/gps_ubx.o
                                                  /home/lionel/paparazziProto1/var/MYAC/ap/arch/lpc21/mcu_periph/uart_arch.o
                                                  /home/lionel/paparazziProto1/var/MYAC/ap/mcu_periph/uart.o
                                                  /home/lionel/paparazziProto1/var/MYAC/ap/firmwares/fixedwing/main_ap.o
uart1_ISR                                         /home/lionel/paparazziProto1/var/MYAC/ap/arch/lpc21/mcu_periph/uart_arch.o
uart1_init                                        /home/lionel/paparazziProto1/var/MYAC/ap/arch/lpc21/mcu_periph/uart_arch.o
                                                  /home/lionel/paparazziProto1/var/MYAC/ap/mcu.o
uart_check_free_space                             /home/lionel/paparazziProto1/var/MYAC/ap/mcu_periph/uart.o
                                                  /home/lionel/paparazziProto1/var/MYAC/ap/modules/digital_cam/dc.o
                                                  /home/lionel/paparazziProto1/var/MYAC/ap/modules/openlog/openlog.o
                                                  /home/lionel/paparazziProto1/var/MYAC/ap/firmwares/fixedwing/datalink.o
                                                  /home/lionel/paparazziProto1/var/MYAC/ap/firmwares/fixedwing/main_ap.o
                                                  /home/lionel/paparazziProto1/var/MYAC/ap/firmwares/fixedwing/main_fbw.o
uart_periph_init                                  /home/lionel/paparazziProto1/var/MYAC/ap/mcu_periph/uart.o
                                                  /home/lionel/paparazziProto1/var/MYAC/ap/arch/lpc21/mcu_periph/uart_arch.o
uart_periph_set_baudrate                          /home/lionel/paparazziProto1/var/MYAC/ap/arch/lpc21/mcu_periph/uart_arch.o
uart_transmit                                     /home/lionel/paparazziProto1/var/MYAC/ap/arch/lpc21/mcu_periph/uart_arch.o
                                                  /home/lionel/paparazziProto1/var/MYAC/ap/modules/digital_cam/dc.o
                                                  /home/lionel/paparazziProto1/var/MYAC/ap/modules/openlog/openlog.o
                                                  /home/lionel/paparazziProto1/var/MYAC/ap/subsystems/gps/gps_ubx.o
                                                  /home/lionel/paparazziProto1/var/MYAC/ap/firmwares/fixedwing/datalink.o
                                                  /home/lionel/paparazziProto1/var/MYAC/ap/subsystems/datalink/xbee.o
                                                  /home/lionel/paparazziProto1/var/MYAC/ap/firmwares/fixedwing/main_ap.o
                                                  /home/lionel/paparazziProto1/var/MYAC/ap/firmwares/fixedwing/main_fbw.o
ubxsend_cfg_rst                                   /home/lionel/paparazziProto1/var/MYAC/ap/subsystems/gps/gps_ubx.o
utm_of_lla_f                                      /home/lionel/paparazziProto1/var/MYAC/ap/math/pprz_geodetic_float.o
                                                  /home/lionel/paparazziProto1/var/MYAC/ap/firmwares/fixedwing/datalink.o
                                                  /home/lionel/paparazziProto1/var/MYAC/ap/state.o
v_ctl_altitude_error                              /home/lionel/paparazziProto1/var/MYAC/ap/firmwares/fixedwing/guidance/guidance_v.o
                                                  /home/lionel/paparazziProto1/var/MYAC/ap/firmwares/fixedwing/stabilization/stabilization_attitude.o
v_ctl_altitude_loop                               /home/lionel/paparazziProto1/var/MYAC/ap/firmwares/fixedwing/guidance/guidance_v.o
                                                  /home/lionel/paparazziProto1/var/MYAC/ap/firmwares/fixedwing/main_ap.o
v_ctl_altitude_max_climb                          /home/lionel/paparazziProto1/var/MYAC/ap/firmwares/fixedwing/guidance/guidance_v.o
v_ctl_altitude_pgain                              /home/lionel/paparazziProto1/var/MYAC/ap/firmwares/fixedwing/guidance/guidance_v.o
v_ctl_altitude_pre_climb                          /home/lionel/paparazziProto1/var/MYAC/ap/subsystems/navigation/nav_line.o
                                                  /home/lionel/paparazziProto1/var/MYAC/ap/subsystems/navigation/nav_survey_rectangle.o
                                                  /home/lionel/paparazziProto1/var/MYAC/ap/subsystems/nav.o
                                                  /home/lionel/paparazziProto1/var/MYAC/ap/firmwares/fixedwing/guidance/guidance_v.o
v_ctl_altitude_pre_climb_correction               /home/lionel/paparazziProto1/var/MYAC/ap/firmwares/fixedwing/guidance/guidance_v.o
v_ctl_altitude_setpoint                           /home/lionel/paparazziProto1/var/MYAC/ap/subsystems/nav.o
                                                  /home/lionel/paparazziProto1/var/MYAC/ap/firmwares/fixedwing/guidance/guidance_v.o
                                                  /home/lionel/paparazziProto1/var/MYAC/ap/firmwares/fixedwing/main_ap.o
v_ctl_auto_pitch_igain                            /home/lionel/paparazziProto1/var/MYAC/ap/firmwares/fixedwing/guidance/guidance_v.o
v_ctl_auto_pitch_pgain                            /home/lionel/paparazziProto1/var/MYAC/ap/firmwares/fixedwing/guidance/guidance_v.o
v_ctl_auto_pitch_sum_err                          /home/lionel/paparazziProto1/var/MYAC/ap/firmwares/fixedwing/guidance/guidance_v.o
v_ctl_auto_throttle_climb_throttle_increment      /home/lionel/paparazziProto1/var/MYAC/ap/firmwares/fixedwing/guidance/guidance_v.o
v_ctl_auto_throttle_cruise_throttle               /home/lionel/paparazziProto1/var/MYAC/ap/firmwares/fixedwing/guidance/guidance_v.o
                                                  /home/lionel/paparazziProto1/var/MYAC/ap/firmwares/fixedwing/stabilization/stabilization_attitude.o
v_ctl_auto_throttle_dash_trim                     /home/lionel/paparazziProto1/var/MYAC/ap/firmwares/fixedwing/stabilization/stabilization_attitude.o
v_ctl_auto_throttle_dgain                         /home/lionel/paparazziProto1/var/MYAC/ap/firmwares/fixedwing/guidance/guidance_v.o
v_ctl_auto_throttle_igain                         /home/lionel/paparazziProto1/var/MYAC/ap/firmwares/fixedwing/guidance/guidance_v.o
v_ctl_auto_throttle_loiter_trim                   /home/lionel/paparazziProto1/var/MYAC/ap/firmwares/fixedwing/stabilization/stabilization_attitude.o
v_ctl_auto_throttle_max_cruise_throttle           /home/lionel/paparazziProto1/var/MYAC/ap/firmwares/fixedwing/guidance/guidance_v.o
v_ctl_auto_throttle_min_cruise_throttle           /home/lionel/paparazziProto1/var/MYAC/ap/firmwares/fixedwing/guidance/guidance_v.o
v_ctl_auto_throttle_nominal_cruise_throttle       /home/lionel/paparazziProto1/var/MYAC/ap/firmwares/fixedwing/guidance/guidance_v.o
                                                  /home/lionel/paparazziProto1/var/MYAC/ap/firmwares/fixedwing/stabilization/stabilization_attitude.o
v_ctl_auto_throttle_pgain                         /home/lionel/paparazziProto1/var/MYAC/ap/firmwares/fixedwing/guidance/guidance_v.o
v_ctl_auto_throttle_pitch_of_vz_dgain             /home/lionel/paparazziProto1/var/MYAC/ap/firmwares/fixedwing/guidance/guidance_v.o
v_ctl_auto_throttle_pitch_of_vz_pgain             /home/lionel/paparazziProto1/var/MYAC/ap/firmwares/fixedwing/guidance/guidance_v.o
v_ctl_auto_throttle_submode                       /home/lionel/paparazziProto1/var/MYAC/ap/subsystems/nav.o
                                                  /home/lionel/paparazziProto1/var/MYAC/ap/firmwares/fixedwing/guidance/guidance_v.o
                                                  /home/lionel/paparazziProto1/var/MYAC/ap/firmwares/fixedwing/main_ap.o
v_ctl_auto_throttle_sum_err                       /home/lionel/paparazziProto1/var/MYAC/ap/firmwares/fixedwing/guidance/guidance_v.o
                                                  /home/lionel/paparazziProto1/var/MYAC/ap/firmwares/fixedwing/main_ap.o
v_ctl_climb_loop                                  /home/lionel/paparazziProto1/var/MYAC/ap/firmwares/fixedwing/guidance/guidance_v.o
                                                  /home/lionel/paparazziProto1/var/MYAC/ap/firmwares/fixedwing/main_ap.o
v_ctl_climb_mode                                  /home/lionel/paparazziProto1/var/MYAC/ap/subsystems/navigation/nav_line.o
                                                  /home/lionel/paparazziProto1/var/MYAC/ap/subsystems/navigation/nav_survey_rectangle.o
                                                  /home/lionel/paparazziProto1/var/MYAC/ap/subsystems/nav.o
                                                  /home/lionel/paparazziProto1/var/MYAC/ap/firmwares/fixedwing/guidance/guidance_v.o
v_ctl_climb_setpoint                              /home/lionel/paparazziProto1/var/MYAC/ap/firmwares/fixedwing/guidance/guidance_v.o
                                                  /home/lionel/paparazziProto1/var/MYAC/ap/firmwares/fixedwing/main_ap.o
v_ctl_init                                        /home/lionel/paparazziProto1/var/MYAC/ap/firmwares/fixedwing/guidance/guidance_v.o
                                                  /home/lionel/paparazziProto1/var/MYAC/ap/firmwares/fixedwing/main_ap.o
v_ctl_mode                                        /home/lionel/paparazziProto1/var/MYAC/ap/subsystems/navigation/nav_line.o
                                                  /home/lionel/paparazziProto1/var/MYAC/ap/subsystems/navigation/nav_survey_rectangle.o
                                                  /home/lionel/paparazziProto1/var/MYAC/ap/subsystems/nav.o
                                                  /home/lionel/paparazziProto1/var/MYAC/ap/firmwares/fixedwing/guidance/guidance_v.o
                                                  /home/lionel/paparazziProto1/var/MYAC/ap/firmwares/fixedwing/main_ap.o
v_ctl_pitch_setpoint                              /home/lionel/paparazziProto1/var/MYAC/ap/firmwares/fixedwing/guidance/guidance_v.o
                                                  /home/lionel/paparazziProto1/var/MYAC/ap/firmwares/fixedwing/main_ap.o
v_ctl_throttle_setpoint                           /home/lionel/paparazziProto1/var/MYAC/ap/firmwares/fixedwing/guidance/guidance_v.o
                                                  /home/lionel/paparazziProto1/var/MYAC/ap/firmwares/fixedwing/stabilization/stabilization_attitude.o
                                                  /home/lionel/paparazziProto1/var/MYAC/ap/firmwares/fixedwing/main_ap.o
v_ctl_throttle_slew                               /home/lionel/paparazziProto1/var/MYAC/ap/firmwares/fixedwing/guidance/guidance_v.o
                                                  /home/lionel/paparazziProto1/var/MYAC/ap/firmwares/fixedwing/main_ap.o
v_ctl_throttle_slewed                             /home/lionel/paparazziProto1/var/MYAC/ap/firmwares/fixedwing/guidance/guidance_v.o
                                                  /home/lionel/paparazziProto1/var/MYAC/ap/firmwares/fixedwing/main_ap.o
vsupply                                           /home/lionel/paparazziProto1/var/MYAC/ap/firmwares/fixedwing/main_ap.o
waypoints                                         /home/lionel/paparazziProto1/var/MYAC/ap/subsystems/nav.o
                                                  /home/lionel/paparazziProto1/var/MYAC/ap/modules/digital_cam/dc.o
                                                  /home/lionel/paparazziProto1/var/MYAC/ap/subsystems/navigation/nav_line.o
                                                  /home/lionel/paparazziProto1/var/MYAC/ap/subsystems/navigation/nav_survey_rectangle.o
                                                  /home/lionel/paparazziProto1/var/MYAC/ap/firmwares/fixedwing/datalink.o
                                                  /home/lionel/paparazziProto1/var/MYAC/ap/firmwares/fixedwing/main_ap.o
xbee_cs                                           /home/lionel/paparazziProto1/var/MYAC/ap/modules/digital_cam/dc.o
                                                  /home/lionel/paparazziProto1/var/MYAC/ap/modules/openlog/openlog.o
                                                  /home/lionel/paparazziProto1/var/MYAC/ap/firmwares/fixedwing/datalink.o
                                                  /home/lionel/paparazziProto1/var/MYAC/ap/subsystems/datalink/xbee.o
                                                  /home/lionel/paparazziProto1/var/MYAC/ap/firmwares/fixedwing/main_ap.o
                                                  /home/lionel/paparazziProto1/var/MYAC/ap/firmwares/fixedwing/main_fbw.o
xbee_delay_time                                   /home/lionel/paparazziProto1/var/MYAC/ap/subsystems/datalink/xbee.o
xbee_init                                         /home/lionel/paparazziProto1/var/MYAC/ap/subsystems/datalink/xbee.o
                                                  /home/lionel/paparazziProto1/var/MYAC/ap/firmwares/fixedwing/main_ap.o
xbee_rssi                                         /home/lionel/paparazziProto1/var/MYAC/ap/subsystems/datalink/xbee.o
                                                  /home/lionel/paparazziProto1/var/MYAC/ap/firmwares/fixedwing/main_ap.o
xbee_tp                                           /home/lionel/paparazziProto1/var/MYAC/ap/subsystems/datalink/xbee.o
                                                  /home/lionel/paparazziProto1/var/MYAC/ap/firmwares/fixedwing/main_ap.o
