   1              		.cpu arm7tdmi
   2              		.fpu softvfp
   3              		.eabi_attribute 20, 1
   4              		.eabi_attribute 21, 1
   5              		.eabi_attribute 23, 3
   6              		.eabi_attribute 24, 1
   7              		.eabi_attribute 25, 1
   8              		.eabi_attribute 26, 1
   9              		.eabi_attribute 30, 4
  10              		.eabi_attribute 18, 4
  11              		.file	"electrical.c"
  12              		.section	.text.electrical_init,"ax",%progbits
  13              		.align	2
  14              		.global	electrical_init
  16              	electrical_init:
  17              		@ Function supports interworking.
  18              		@ args = 0, pretend = 0, frame = 0
  19              		@ frame_needed = 0, uses_anonymous_args = 0
  20 0000 10402DE9 		stmfd	sp!, {r4, lr}
  21 0004 2C309FE5 		ldr	r3, .L2
  22 0008 2C409FE5 		ldr	r4, .L2+4
  23 000c 0020A0E3 		mov	r2, #0
  24 0010 0020C3E5 		strb	r2, [r3, #0]
  25 0014 042083E5 		str	r2, [r3, #4]
  26 0018 0E00A0E3 		mov	r0, #14
  27 001c 0410A0E1 		mov	r1, r4
  28 0020 2020A0E3 		mov	r2, #32
  29 0024 FEFFFFEB 		bl	adc_buf_channel
  30 0028 10309FE5 		ldr	r3, .L2+8
  31 002c 483084E5 		str	r3, [r4, #72]	@ float
  32 0030 1040BDE8 		ldmfd	sp!, {r4, lr}
  33 0034 1EFF2FE1 		bx	lr
  34              	.L3:
  35              		.align	2
  36              	.L2:
  37 0038 00000000 		.word	electrical
  38 003c 00000000 		.word	.LANCHOR0
  39 0040 9A99993F 		.word	1067030938
  41              		.global	__aeabi_uidiv
  42              		.global	__aeabi_ui2d
  43              		.global	__aeabi_dmul
  44              		.global	__aeabi_d2uiz
  45              		.global	__aeabi_i2f
  46              		.global	__aeabi_fdiv
  47              		.global	__aeabi_f2d
  48              		.global	__aeabi_fmul
  49              		.global	__aeabi_dsub
  50              		.global	__aeabi_ddiv
  51              		.global	__aeabi_d2iz
  52              		.section	.text.electrical_periodic,"ax",%progbits
  53              		.align	2
  54              		.global	electrical_periodic
  56              	electrical_periodic:
  57              		@ Function supports interworking.
  58              		@ args = 0, pretend = 0, frame = 0
  59              		@ frame_needed = 0, uses_anonymous_args = 0
  60 0000 704F2DE9 		stmfd	sp!, {r4, r5, r6, r8, r9, sl, fp, lr}
  61 0004 0C419FE5 		ldr	r4, .L5
  62 0008 4510D4E5 		ldrb	r1, [r4, #69]	@ zero_extendqisi2
  63 000c 000094E5 		ldr	r0, [r4, #0]
  64 0010 FEFFFFEB 		bl	__aeabi_uidiv
  65 0014 0A30A0E3 		mov	r3, #10
  66 0018 930000E0 		mul	r0, r3, r0
  67 001c FEFFFFEB 		bl	__aeabi_ui2d
  68 0020 F4209FE5 		ldr	r2, .L5+4
  69 0024 F4309FE5 		ldr	r3, .L5+8
  70 0028 FEFFFFEB 		bl	__aeabi_dmul
  71 002c FEFFFFEB 		bl	__aeabi_d2uiz
  72 0030 EC609FE5 		ldr	r6, .L5+12
  73 0034 EC309FE5 		ldr	r3, .L5+16
  74 0038 0000C6E5 		strb	r0, [r6, #0]
  75 003c F000D3E1 		ldrsh	r0, [r3, #0]
  76 0040 FEFFFFEB 		bl	__aeabi_i2f
  77 0044 E0109FE5 		ldr	r1, .L5+20
  78 0048 FEFFFFEB 		bl	__aeabi_fdiv
  79 004c 0050A0E1 		mov	r5, r0
  80 0050 480094E5 		ldr	r0, [r4, #72]	@ float
  81 0054 FEFFFFEB 		bl	__aeabi_f2d
  82 0058 0020A0E1 		mov	r2, r0
  83 005c 0130A0E1 		mov	r3, r1
  84 0060 0000A0E3 		mov	r0, #0
  85 0064 C4109FE5 		ldr	r1, .L5+24
  86 0068 FEFFFFEB 		bl	pow
  87 006c 00A0A0E1 		mov	sl, r0
  88 0070 01B0A0E1 		mov	fp, r1
  89 0074 0500A0E1 		mov	r0, r5
  90 0078 B4109FE5 		ldr	r1, .L5+28
  91 007c FEFFFFEB 		bl	__aeabi_fmul
  92 0080 FEFFFFEB 		bl	__aeabi_f2d
  93 0084 0080A0E1 		mov	r8, r0
  94 0088 480094E5 		ldr	r0, [r4, #72]	@ float
  95 008c 0190A0E1 		mov	r9, r1
  96 0090 FEFFFFEB 		bl	__aeabi_f2d
  97 0094 0020A0E1 		mov	r2, r0
  98 0098 0130A0E1 		mov	r3, r1
  99 009c 0800A0E1 		mov	r0, r8
 100 00a0 0910A0E1 		mov	r1, r9
 101 00a4 FEFFFFEB 		bl	pow
 102 00a8 0020A0E1 		mov	r2, r0
 103 00ac 0130A0E1 		mov	r3, r1
 104 00b0 0A00A0E1 		mov	r0, sl
 105 00b4 0B10A0E1 		mov	r1, fp
 106 00b8 FEFFFFEB 		bl	__aeabi_dsub
 107 00bc 0080A0E1 		mov	r8, r0
 108 00c0 480094E5 		ldr	r0, [r4, #72]	@ float
 109 00c4 0190A0E1 		mov	r9, r1
 110 00c8 FEFFFFEB 		bl	__aeabi_f2d
 111 00cc 0020A0E1 		mov	r2, r0
 112 00d0 0130A0E1 		mov	r3, r1
 113 00d4 0000A0E3 		mov	r0, #0
 114 00d8 58109FE5 		ldr	r1, .L5+32
 115 00dc FEFFFFEB 		bl	__aeabi_ddiv
 116 00e0 0020A0E1 		mov	r2, r0
 117 00e4 0130A0E1 		mov	r3, r1
 118 00e8 0800A0E1 		mov	r0, r8
 119 00ec 0910A0E1 		mov	r1, r9
 120 00f0 FEFFFFEB 		bl	pow
 121 00f4 0020A0E1 		mov	r2, r0
 122 00f8 0130A0E1 		mov	r3, r1
 123 00fc 0000A0E3 		mov	r0, #0
 124 0100 28109FE5 		ldr	r1, .L5+24
 125 0104 FEFFFFEB 		bl	__aeabi_dsub
 126 0108 FEFFFFEB 		bl	__aeabi_d2iz
 127 010c 040086E5 		str	r0, [r6, #4]
 128 0110 704FBDE8 		ldmfd	sp!, {r4, r5, r6, r8, r9, sl, fp, lr}
 129 0114 1EFF2FE1 		bx	lr
 130              	.L6:
 131              		.align	2
 132              	.L5:
 133 0118 00000000 		.word	.LANCHOR0
 134 011c CDCCCCCC 		.word	-858993459
 135 0120 CC4C923F 		.word	1066552524
 136 0124 00000000 		.word	electrical
 137 0128 00000000 		.word	commands
 138 012c 00001646 		.word	1175846912
 139 0130 00409F40 		.word	1084178432
 140 0134 0000FA44 		.word	1157234688
 141 0138 0000F03F 		.word	1072693248
 143              		.comm	electrical,8,4
 144              		.section	.bss.electrical_priv,"aw",%nobits
 145              		.align	2
 146              		.set	.LANCHOR0,. + 0
 149              	electrical_priv:
 150 0000 00000000 		.space	76
 150      00000000 
 150      00000000 
 150      00000000 
 150      00000000 
 151              		.ident	"GCC: (Linaro GCC 4.6-2011.09-1) 4.6.2 20110908 (prerelease)"
DEFINED SYMBOLS
                            *ABS*:00000000 electrical.c
     /tmp/ccRB1rp1.s:13     .text.electrical_init:00000000 $a
     /tmp/ccRB1rp1.s:16     .text.electrical_init:00000000 electrical_init
     /tmp/ccRB1rp1.s:37     .text.electrical_init:00000038 $d
                            *COM*:00000008 electrical
     /tmp/ccRB1rp1.s:53     .text.electrical_periodic:00000000 $a
     /tmp/ccRB1rp1.s:56     .text.electrical_periodic:00000000 electrical_periodic
     /tmp/ccRB1rp1.s:133    .text.electrical_periodic:00000118 $d
     /tmp/ccRB1rp1.s:145    .bss.electrical_priv:00000000 $d
     /tmp/ccRB1rp1.s:149    .bss.electrical_priv:00000000 electrical_priv

UNDEFINED SYMBOLS
adc_buf_channel
__aeabi_uidiv
__aeabi_ui2d
__aeabi_dmul
__aeabi_d2uiz
__aeabi_i2f
__aeabi_fdiv
__aeabi_f2d
__aeabi_fmul
__aeabi_dsub
__aeabi_ddiv
__aeabi_d2iz
pow
commands
