   1              		.cpu arm7tdmi
   2              		.fpu softvfp
   3              		.eabi_attribute 20, 1
   4              		.eabi_attribute 21, 1
   5              		.eabi_attribute 23, 3
   6              		.eabi_attribute 24, 1
   7              		.eabi_attribute 25, 1
   8              		.eabi_attribute 26, 1
   9              		.eabi_attribute 30, 4
  10              		.eabi_attribute 18, 4
  11              		.file	"guidance_v.c"
  12              		.section	.text.v_ctl_init,"ax",%progbits
  13              		.align	2
  14              		.global	v_ctl_init
  16              	v_ctl_init:
  17              		@ Function supports interworking.
  18              		@ args = 0, pretend = 0, frame = 0
  19              		@ frame_needed = 0, uses_anonymous_args = 0
  20              		@ link register save eliminated.
  21 0000 DC309FE5 		ldr	r3, .L2
  22 0004 0020A0E3 		mov	r2, #0
  23 0008 D8109FE5 		ldr	r1, .L2+4
  24 000c 0020C3E5 		strb	r2, [r3, #0]
  25 0010 0030A0E3 		mov	r3, #0
  26 0014 003081E5 		str	r3, [r1, #0]	@ float
  27 0018 CC109FE5 		ldr	r1, .L2+8
  28 001c CC009FE5 		ldr	r0, .L2+12
  29 0020 003081E5 		str	r3, [r1, #0]	@ float
  30 0024 C8109FE5 		ldr	r1, .L2+16
  31 0028 000081E5 		str	r0, [r1, #0]	@ float
  32 002c C4109FE5 		ldr	r1, .L2+20
  33 0030 003081E5 		str	r3, [r1, #0]	@ float
  34 0034 C0109FE5 		ldr	r1, .L2+24
  35 0038 FE05A0E3 		mov	r0, #1065353216
  36 003c 000081E5 		str	r0, [r1, #0]	@ float
  37 0040 B8109FE5 		ldr	r1, .L2+28
  38 0044 0101A0E3 		mov	r0, #1073741824
  39 0048 000081E5 		str	r0, [r1, #0]	@ float
  40 004c B0109FE5 		ldr	r1, .L2+32
  41 0050 003081E5 		str	r3, [r1, #0]	@ float
  42 0054 AC109FE5 		ldr	r1, .L2+36
  43 0058 0020C1E5 		strb	r2, [r1, #0]
  44 005c A8109FE5 		ldr	r1, .L2+40
  45 0060 A8009FE5 		ldr	r0, .L2+44
  46 0064 0020C1E5 		strb	r2, [r1, #0]
  47 0068 A4109FE5 		ldr	r1, .L2+48
  48 006c 001080E5 		str	r1, [r0, #0]	@ float
  49 0070 A0009FE5 		ldr	r0, .L2+52
  50 0074 FAC5A0E3 		mov	ip, #1048576000
  51 0078 00C080E5 		str	ip, [r0, #0]	@ float
  52 007c 98009FE5 		ldr	r0, .L2+56
  53 0080 98C09FE5 		ldr	ip, .L2+60
  54 0084 00C080E5 		str	ip, [r0, #0]	@ float
  55 0088 94009FE5 		ldr	r0, .L2+64
  56 008c 001080E5 		str	r1, [r0, #0]	@ float
  57 0090 90009FE5 		ldr	r0, .L2+68
  58 0094 90109FE5 		ldr	r1, .L2+72
  59 0098 000081E5 		str	r0, [r1, #0]	@ float
  60 009c 8C009FE5 		ldr	r0, .L2+76
  61 00a0 8C109FE5 		ldr	r1, .L2+80
  62 00a4 000081E5 		str	r0, [r1, #0]	@ float
  63 00a8 88009FE5 		ldr	r0, .L2+84
  64 00ac 88109FE5 		ldr	r1, .L2+88
  65 00b0 000081E5 		str	r0, [r1, #0]	@ float
  66 00b4 84109FE5 		ldr	r1, .L2+92
  67 00b8 003081E5 		str	r3, [r1, #0]	@ float
  68 00bc 80109FE5 		ldr	r1, .L2+96
  69 00c0 80009FE5 		ldr	r0, .L2+100
  70 00c4 003081E5 		str	r3, [r1, #0]	@ float
  71 00c8 7C109FE5 		ldr	r1, .L2+104
  72 00cc 000081E5 		str	r0, [r1, #0]	@ float
  73 00d0 78109FE5 		ldr	r1, .L2+108
  74 00d4 003081E5 		str	r3, [r1, #0]	@ float
  75 00d8 74309FE5 		ldr	r3, .L2+112
  76 00dc B020C3E1 		strh	r2, [r3, #0]	@ movhi
  77 00e0 1EFF2FE1 		bx	lr
  78              	.L3:
  79              		.align	2
  80              	.L2:
  81 00e4 00000000 		.word	v_ctl_mode
  82 00e8 00000000 		.word	v_ctl_altitude_setpoint
  83 00ec 00000000 		.word	v_ctl_altitude_pre_climb
  84 00f0 8FC2F53C 		.word	1022739087
  85 00f4 00000000 		.word	v_ctl_altitude_pgain
  86 00f8 00000000 		.word	v_ctl_altitude_error
  87 00fc 00000000 		.word	v_ctl_altitude_pre_climb_correction
  88 0100 00000000 		.word	v_ctl_altitude_max_climb
  89 0104 00000000 		.word	v_ctl_climb_setpoint
  90 0108 00000000 		.word	v_ctl_climb_mode
  91 010c 00000000 		.word	v_ctl_auto_throttle_submode
  92 0110 00000000 		.word	v_ctl_auto_throttle_nominal_cruise_throttle
  93 0114 0AD7A33E 		.word	1050924810
  94 0118 00000000 		.word	v_ctl_auto_throttle_min_cruise_throttle
  95 011c 00000000 		.word	v_ctl_auto_throttle_max_cruise_throttle
  96 0120 6666263F 		.word	1059481190
  97 0124 00000000 		.word	v_ctl_auto_throttle_cruise_throttle
  98 0128 9A99193E 		.word	1041865114
  99 012c 00000000 		.word	v_ctl_auto_throttle_climb_throttle_increment
 100 0130 0AD7233C 		.word	1008981770
 101 0134 00000000 		.word	v_ctl_auto_throttle_pgain
 102 0138 CDCCCC3D 		.word	1036831949
 103 013c 00000000 		.word	v_ctl_auto_throttle_igain
 104 0140 00000000 		.word	v_ctl_auto_throttle_dgain
 105 0144 00000000 		.word	v_ctl_auto_throttle_sum_err
 106 0148 CDCC4C3D 		.word	1028443341
 107 014c 00000000 		.word	v_ctl_auto_throttle_pitch_of_vz_pgain
 108 0150 00000000 		.word	v_ctl_auto_throttle_pitch_of_vz_dgain
 109 0154 00000000 		.word	v_ctl_throttle_setpoint
 111              		.global	__aeabi_fsub
 112              		.global	__aeabi_fmul
 113              		.global	__aeabi_fadd
 114              		.global	__aeabi_fcmpgt
 115              		.global	__aeabi_fcmplt
 116              		.section	.text.v_ctl_altitude_loop,"ax",%progbits
 117              		.align	2
 118              		.global	v_ctl_altitude_loop
 120              	v_ctl_altitude_loop:
 121              		@ Function supports interworking.
 122              		@ args = 0, pretend = 0, frame = 0
 123              		@ frame_needed = 0, uses_anonymous_args = 0
 124 0000 70402DE9 		stmfd	sp!, {r4, r5, r6, lr}
 125 0004 F0309FE5 		ldr	r3, .L24
 126 0008 F0409FE5 		ldr	r4, .L24+4
 127 000c 005093E5 		ldr	r5, [r3, #0]	@ float
 128 0010 B030D4E1 		ldrh	r3, [r4, #0]
 129 0014 020C13E3 		tst	r3, #512
 130 0018 FEFFFF0B 		bleq	stateCalcPositionUtm_f
 131              	.L5:
 132 001c 801094E5 		ldr	r1, [r4, #128]	@ float
 133 0020 0500A0E1 		mov	r0, r5
 134 0024 FEFFFFEB 		bl	__aeabi_fsub
 135 0028 D4309FE5 		ldr	r3, .L24+8
 136 002c 000083E5 		str	r0, [r3, #0]	@ float
 137 0030 D0309FE5 		ldr	r3, .L24+12
 138 0034 001093E5 		ldr	r1, [r3, #0]	@ float
 139 0038 FEFFFFEB 		bl	__aeabi_fmul
 140 003c C8309FE5 		ldr	r3, .L24+16
 141 0040 0040A0E1 		mov	r4, r0
 142 0044 000093E5 		ldr	r0, [r3, #0]	@ float
 143 0048 C0309FE5 		ldr	r3, .L24+20
 144 004c 001093E5 		ldr	r1, [r3, #0]	@ float
 145 0050 FEFFFFEB 		bl	__aeabi_fmul
 146 0054 0010A0E1 		mov	r1, r0
 147 0058 0400A0E1 		mov	r0, r4
 148 005c FEFFFFEB 		bl	__aeabi_fadd
 149 0060 AC309FE5 		ldr	r3, .L24+24
 150 0064 AC409FE5 		ldr	r4, .L24+28
 151 0068 005093E5 		ldr	r5, [r3, #0]	@ float
 152 006c 000084E5 		str	r0, [r4, #0]	@ float
 153 0070 0510A0E1 		mov	r1, r5
 154 0074 0060A0E1 		mov	r6, r0
 155 0078 FEFFFFEB 		bl	__aeabi_fcmpgt
 156 007c 000050E3 		cmp	r0, #0
 157 0080 0500001A 		bne	.L22
 158              	.L19:
 159 0084 025185E2 		add	r5, r5, #-2147483648
 160 0088 0600A0E1 		mov	r0, r6
 161 008c 0510A0E1 		mov	r1, r5
 162 0090 FEFFFFEB 		bl	__aeabi_fcmplt
 163 0094 000050E3 		cmp	r0, #0
 164 0098 0000000A 		beq	.L8
 165              	.L22:
 166 009c 005084E5 		str	r5, [r4, #0]	@ float
 167              	.L8:
 168 00a0 74309FE5 		ldr	r3, .L24+32
 169 00a4 0060D3E5 		ldrb	r6, [r3, #0]	@ zero_extendqisi2
 170 00a8 000056E3 		cmp	r6, #0
 171 00ac 1000001A 		bne	.L4
 172 00b0 4C309FE5 		ldr	r3, .L24+8
 173 00b4 005093E5 		ldr	r5, [r3, #0]
 174 00b8 0251C5E3 		bic	r5, r5, #-2147483648
 175 00bc 0500A0E1 		mov	r0, r5
 176 00c0 58109FE5 		ldr	r1, .L24+36
 177 00c4 FEFFFFEB 		bl	__aeabi_fcmplt
 178 00c8 54409FE5 		ldr	r4, .L24+40
 179 00cc 000050E3 		cmp	r0, #0
 180 00d0 0060C415 		strneb	r6, [r4, #0]
 181 00d4 0600001A 		bne	.L4
 182 00d8 0500A0E1 		mov	r0, r5
 183 00dc 44109FE5 		ldr	r1, .L24+44
 184 00e0 FEFFFFEB 		bl	__aeabi_fcmpgt
 185 00e4 000050E3 		cmp	r0, #0
 186 00e8 0130A013 		movne	r3, #1
 187 00ec 0230A003 		moveq	r3, #2
 188 00f0 0030C4E5 		strb	r3, [r4, #0]
 189              	.L4:
 190 00f4 7040BDE8 		ldmfd	sp!, {r4, r5, r6, lr}
 191 00f8 1EFF2FE1 		bx	lr
 192              	.L25:
 193              		.align	2
 194              	.L24:
 195 00fc 00000000 		.word	v_ctl_altitude_setpoint
 196 0100 00000000 		.word	state
 197 0104 00000000 		.word	v_ctl_altitude_error
 198 0108 00000000 		.word	v_ctl_altitude_pgain
 199 010c 00000000 		.word	v_ctl_altitude_pre_climb
 200 0110 00000000 		.word	v_ctl_altitude_pre_climb_correction
 201 0114 00000000 		.word	v_ctl_altitude_max_climb
 202 0118 00000000 		.word	v_ctl_climb_setpoint
 203 011c 00000000 		.word	v_ctl_climb_mode
 204 0120 00002041 		.word	1092616192
 205 0124 00000000 		.word	v_ctl_auto_throttle_submode
 206 0128 0000A041 		.word	1101004800
 208              		.global	__aeabi_f2d
 209              		.global	__aeabi_dsub
 210              		.global	__aeabi_ddiv
 211              		.global	__aeabi_d2f
 212              		.global	__aeabi_dmul
 213              		.global	__aeabi_dadd
 214              		.global	__aeabi_f2iz
 215              		.section	.text.v_ctl_climb_loop,"ax",%progbits
 216              		.align	2
 217              		.global	v_ctl_climb_loop
 219              	v_ctl_climb_loop:
 220              		@ Function supports interworking.
 221              		@ args = 0, pretend = 0, frame = 0
 222              		@ frame_needed = 0, uses_anonymous_args = 0
 223 0000 F84F2DE9 		stmfd	sp!, {r3, r4, r5, r6, r7, r8, r9, sl, fp, lr}
 224 0004 68439FE5 		ldr	r4, .L63
 225 0008 1431D4E5 		ldrb	r3, [r4, #276]	@ zero_extendqisi2
 226 000c A333B0E1 		movs	r3, r3, lsr #7
 227 0010 FEFFFF0B 		bleq	stateCalcSpeedEnu_f
 228              	.L27:
 229 0014 5C339FE5 		ldr	r3, .L63+4
 230 0018 008093E5 		ldr	r8, [r3, #0]	@ float
 231 001c 640194E5 		ldr	r0, [r4, #356]	@ float
 232 0020 0810A0E1 		mov	r1, r8
 233 0024 FEFFFFEB 		bl	__aeabi_fsub
 234 0028 4C439FE5 		ldr	r4, .L63+8
 235 002c 001094E5 		ldr	r1, [r4, #0]	@ float
 236 0030 0060A0E1 		mov	r6, r0
 237 0034 FEFFFFEB 		bl	__aeabi_fsub
 238 0038 40339FE5 		ldr	r3, .L63+12
 239 003c 00A0A0E1 		mov	sl, r0
 240 0040 001093E5 		ldr	r1, [r3, #0]	@ float
 241 0044 006084E5 		str	r6, [r4, #0]	@ float
 242 0048 0800A0E1 		mov	r0, r8
 243 004c FEFFFFEB 		bl	__aeabi_fmul
 244 0050 2C339FE5 		ldr	r3, .L63+16
 245 0054 001093E5 		ldr	r1, [r3, #0]	@ float
 246 0058 FEFFFFEB 		bl	__aeabi_fadd
 247 005c 24539FE5 		ldr	r5, .L63+20
 248 0060 24339FE5 		ldr	r3, .L63+24
 249 0064 007095E5 		ldr	r7, [r5, #0]	@ float
 250 0068 001093E5 		ldr	r1, [r3, #0]	@ float
 251 006c 0040A0E1 		mov	r4, r0
 252 0070 0700A0E1 		mov	r0, r7
 253 0074 FEFFFFEB 		bl	__aeabi_fmul
 254 0078 0010A0E1 		mov	r1, r0
 255 007c 0600A0E1 		mov	r0, r6
 256 0080 FEFFFFEB 		bl	__aeabi_fadd
 257 0084 04339FE5 		ldr	r3, .L63+28
 258 0088 0090A0E1 		mov	r9, r0
 259 008c 001093E5 		ldr	r1, [r3, #0]	@ float
 260 0090 0A00A0E1 		mov	r0, sl
 261 0094 FEFFFFEB 		bl	__aeabi_fmul
 262 0098 0010A0E1 		mov	r1, r0
 263 009c 0900A0E1 		mov	r0, r9
 264 00a0 FEFFFFEB 		bl	__aeabi_fadd
 265 00a4 E8329FE5 		ldr	r3, .L63+32
 266 00a8 001093E5 		ldr	r1, [r3, #0]	@ float
 267 00ac FEFFFFEB 		bl	__aeabi_fmul
 268 00b0 0010A0E1 		mov	r1, r0
 269 00b4 0400A0E1 		mov	r0, r4
 270 00b8 FEFFFFEB 		bl	__aeabi_fsub
 271 00bc D4329FE5 		ldr	r3, .L63+36
 272 00c0 0040A0E1 		mov	r4, r0
 273 00c4 001093E5 		ldr	r1, [r3, #0]	@ float
 274 00c8 0A00A0E1 		mov	r0, sl
 275 00cc FEFFFFEB 		bl	__aeabi_fmul
 276 00d0 0010A0E1 		mov	r1, r0
 277 00d4 0800A0E1 		mov	r0, r8
 278 00d8 FEFFFFEB 		bl	__aeabi_fadd
 279 00dc B8329FE5 		ldr	r3, .L63+40
 280 00e0 001093E5 		ldr	r1, [r3, #0]	@ float
 281 00e4 FEFFFFEB 		bl	__aeabi_fmul
 282 00e8 B0329FE5 		ldr	r3, .L63+44
 283 00ec 0030D3E5 		ldrb	r3, [r3, #0]	@ zero_extendqisi2
 284 00f0 010053E3 		cmp	r3, #1
 285 00f4 00B0A0E1 		mov	fp, r0
 286 00f8 0200000A 		beq	.L29
 287 00fc 020053E3 		cmp	r3, #2
 288 0100 6D00001A 		bne	.L53
 289 0104 0B0000EA 		b	.L62
 290              	.L29:
 291 0108 0800A0E1 		mov	r0, r8
 292 010c 0010A0E3 		mov	r1, #0
 293 0110 FEFFFFEB 		bl	__aeabi_fcmpgt
 294 0114 000050E3 		cmp	r0, #0
 295 0118 84329FE5 		ldr	r3, .L63+48
 296 011c 84229F15 		ldrne	r2, .L63+52
 297 0120 84229F05 		ldreq	r2, .L63+56
 298 0124 00208315 		strne	r2, [r3, #0]	@ float
 299 0128 FE45A013 		movne	r4, #1065353216
 300 012c 00208305 		streq	r2, [r3, #0]	@ float
 301 0130 78429F05 		ldreq	r4, .L63+60
 302 0134 770000EA 		b	.L33
 303              	.L62:
 304 0138 74329FE5 		ldr	r3, .L63+64
 305 013c 008093E5 		ldr	r8, [r3, #0]	@ float
 306 0140 0201C8E3 		bic	r0, r8, #-2147483648
 307 0144 FEFFFFEB 		bl	__aeabi_f2d
 308 0148 0020A0E3 		mov	r2, #0
 309 014c 64329FE5 		ldr	r3, .L63+68
 310 0150 FEFFFFEB 		bl	__aeabi_dsub
 311 0154 0020A0E3 		mov	r2, #0
 312 0158 58329FE5 		ldr	r3, .L63+68
 313 015c FEFFFFEB 		bl	__aeabi_ddiv
 314 0160 FEFFFFEB 		bl	__aeabi_d2f
 315 0164 00A0A0E1 		mov	sl, r0
 316 0168 0A10A0E1 		mov	r1, sl
 317 016c FE05A0E3 		mov	r0, #1065353216
 318 0170 FEFFFFEB 		bl	__aeabi_fsub
 319 0174 0410A0E1 		mov	r1, r4
 320 0178 0090A0E1 		mov	r9, r0
 321 017c FEFFFFEB 		bl	__aeabi_fmul
 322 0180 0B10A0E1 		mov	r1, fp
 323 0184 0040A0E1 		mov	r4, r0
 324 0188 0900A0E1 		mov	r0, r9
 325 018c FEFFFFEB 		bl	__aeabi_fmul
 326 0190 0610A0E1 		mov	r1, r6
 327 0194 00B0A0E1 		mov	fp, r0
 328 0198 0900A0E1 		mov	r0, r9
 329 019c FEFFFFEB 		bl	__aeabi_fmul
 330 01a0 0010A0E1 		mov	r1, r0
 331 01a4 0700A0E1 		mov	r0, r7
 332 01a8 FEFFFFEB 		bl	__aeabi_fadd
 333 01ac 08629FE5 		ldr	r6, .L63+72
 334 01b0 000085E5 		str	r0, [r5, #0]	@ float
 335 01b4 0610A0E1 		mov	r1, r6
 336 01b8 0070A0E1 		mov	r7, r0
 337 01bc FEFFFFEB 		bl	__aeabi_fcmpgt
 338 01c0 000050E3 		cmp	r0, #0
 339 01c4 0500001A 		bne	.L58
 340              	.L55:
 341 01c8 F0619FE5 		ldr	r6, .L63+76
 342 01cc 0700A0E1 		mov	r0, r7
 343 01d0 0610A0E1 		mov	r1, r6
 344 01d4 FEFFFFEB 		bl	__aeabi_fcmplt
 345 01d8 000050E3 		cmp	r0, #0
 346 01dc 0000000A 		beq	.L36
 347              	.L58:
 348 01e0 006085E5 		str	r6, [r5, #0]	@ float
 349              	.L36:
 350 01e4 0800A0E1 		mov	r0, r8
 351 01e8 0010A0E3 		mov	r1, #0
 352 01ec FEFFFFEB 		bl	__aeabi_fcmpgt
 353 01f0 000050E3 		cmp	r0, #0
 354 01f4 0C00000A 		beq	.L56
 355 01f8 0400A0E1 		mov	r0, r4
 356 01fc 0A10A0E1 		mov	r1, sl
 357 0200 FEFFFFEB 		bl	__aeabi_fadd
 358 0204 0040A0E1 		mov	r4, r0
 359 0208 0B00A0E1 		mov	r0, fp
 360 020c FEFFFFEB 		bl	__aeabi_f2d
 361 0210 0060A0E1 		mov	r6, r0
 362 0214 0A00A0E1 		mov	r0, sl
 363 0218 0170A0E1 		mov	r7, r1
 364 021c FEFFFFEB 		bl	__aeabi_f2d
 365 0220 9C219FE5 		ldr	r2, .L63+80
 366 0224 9C319FE5 		ldr	r3, .L63+84
 367 0228 1B0000EA 		b	.L61
 368              	.L56:
 369 022c 0A00A0E1 		mov	r0, sl
 370 0230 FEFFFFEB 		bl	__aeabi_f2d
 371 0234 0080A0E1 		mov	r8, r0
 372 0238 0400A0E1 		mov	r0, r4
 373 023c 0190A0E1 		mov	r9, r1
 374 0240 FEFFFFEB 		bl	__aeabi_f2d
 375 0244 80219FE5 		ldr	r2, .L63+88
 376 0248 0040A0E1 		mov	r4, r0
 377 024c 0150A0E1 		mov	r5, r1
 378 0250 78319FE5 		ldr	r3, .L63+92
 379 0254 0800A0E1 		mov	r0, r8
 380 0258 0910A0E1 		mov	r1, r9
 381 025c FEFFFFEB 		bl	__aeabi_dmul
 382 0260 0020A0E1 		mov	r2, r0
 383 0264 0130A0E1 		mov	r3, r1
 384 0268 0400A0E1 		mov	r0, r4
 385 026c 0510A0E1 		mov	r1, r5
 386 0270 FEFFFFEB 		bl	__aeabi_dadd
 387 0274 FEFFFFEB 		bl	__aeabi_d2f
 388 0278 0040A0E1 		mov	r4, r0
 389 027c 0B00A0E1 		mov	r0, fp
 390 0280 FEFFFFEB 		bl	__aeabi_f2d
 391 0284 48319FE5 		ldr	r3, .L63+96
 392 0288 0060A0E1 		mov	r6, r0
 393 028c 0170A0E1 		mov	r7, r1
 394 0290 0800A0E1 		mov	r0, r8
 395 0294 0910A0E1 		mov	r1, r9
 396 0298 0020A0E3 		mov	r2, #0
 397              	.L61:
 398 029c FEFFFFEB 		bl	__aeabi_dmul
 399 02a0 0020A0E1 		mov	r2, r0
 400 02a4 0130A0E1 		mov	r3, r1
 401 02a8 0600A0E1 		mov	r0, r6
 402 02ac 0710A0E1 		mov	r1, r7
 403 02b0 FEFFFFEB 		bl	__aeabi_dadd
 404 02b4 FEFFFFEB 		bl	__aeabi_d2f
 405 02b8 140000EA 		b	.L60
 406              	.L53:
 407 02bc 0610A0E1 		mov	r1, r6
 408 02c0 0700A0E1 		mov	r0, r7
 409 02c4 FEFFFFEB 		bl	__aeabi_fadd
 410 02c8 EC609FE5 		ldr	r6, .L63+72
 411 02cc 000085E5 		str	r0, [r5, #0]	@ float
 412 02d0 0610A0E1 		mov	r1, r6
 413 02d4 0070A0E1 		mov	r7, r0
 414 02d8 FEFFFFEB 		bl	__aeabi_fcmpgt
 415 02dc 000050E3 		cmp	r0, #0
 416 02e0 0500001A 		bne	.L59
 417              	.L57:
 418 02e4 D4609FE5 		ldr	r6, .L63+76
 419 02e8 0700A0E1 		mov	r0, r7
 420 02ec 0610A0E1 		mov	r1, r6
 421 02f0 FEFFFFEB 		bl	__aeabi_fcmplt
 422 02f4 000050E3 		cmp	r0, #0
 423 02f8 0000000A 		beq	.L42
 424              	.L59:
 425 02fc 006085E5 		str	r6, [r5, #0]	@ float
 426              	.L42:
 427 0300 D0309FE5 		ldr	r3, .L63+100
 428 0304 0B00A0E1 		mov	r0, fp
 429 0308 001093E5 		ldr	r1, [r3, #0]	@ float
 430 030c FEFFFFEB 		bl	__aeabi_fadd
 431              	.L60:
 432 0310 8C309FE5 		ldr	r3, .L63+48
 433 0314 000083E5 		str	r0, [r3, #0]	@ float
 434              	.L33:
 435 0318 0400A0E1 		mov	r0, r4
 436 031c B8109FE5 		ldr	r1, .L63+104
 437 0320 FEFFFFEB 		bl	__aeabi_fmul
 438 0324 0010A0E3 		mov	r1, #0
 439 0328 0040A0E1 		mov	r4, r0
 440 032c FEFFFFEB 		bl	__aeabi_fcmplt
 441 0330 000050E3 		cmp	r0, #0
 442 0334 0000A013 		movne	r0, #0
 443 0338 0900001A 		bne	.L44
 444 033c 0400A0E1 		mov	r0, r4
 445 0340 94109FE5 		ldr	r1, .L63+104
 446 0344 FEFFFFEB 		bl	__aeabi_fcmpgt
 447 0348 000050E3 		cmp	r0, #0
 448 034c 960DA013 		movne	r0, #9600
 449 0350 0300001A 		bne	.L44
 450 0354 0400A0E1 		mov	r0, r4
 451 0358 FEFFFFEB 		bl	__aeabi_f2iz
 452 035c 0008A0E1 		mov	r0, r0, asl #16
 453 0360 2008A0E1 		mov	r0, r0, lsr #16
 454              	.L44:
 455 0364 74309FE5 		ldr	r3, .L63+108
 456 0368 B000C3E1 		strh	r0, [r3, #0]	@ movhi
 457 036c F84FBDE8 		ldmfd	sp!, {r3, r4, r5, r6, r7, r8, r9, sl, fp, lr}
 458 0370 1EFF2FE1 		bx	lr
 459              	.L64:
 460              		.align	2
 461              	.L63:
 462 0374 00000000 		.word	state
 463 0378 00000000 		.word	v_ctl_climb_setpoint
 464 037c 00000000 		.word	.LANCHOR0
 465 0380 00000000 		.word	v_ctl_auto_throttle_climb_throttle_increment
 466 0384 00000000 		.word	v_ctl_auto_throttle_cruise_throttle
 467 0388 00000000 		.word	v_ctl_auto_throttle_sum_err
 468 038c 00000000 		.word	v_ctl_auto_throttle_igain
 469 0390 00000000 		.word	v_ctl_auto_throttle_dgain
 470 0394 00000000 		.word	v_ctl_auto_throttle_pgain
 471 0398 00000000 		.word	v_ctl_auto_throttle_pitch_of_vz_dgain
 472 039c 00000000 		.word	v_ctl_auto_throttle_pitch_of_vz_pgain
 473 03a0 00000000 		.word	v_ctl_auto_throttle_submode
 474 03a4 00000000 		.word	v_ctl_pitch_setpoint
 475 03a8 9A99993E 		.word	1050253722
 476 03ac 000080BE 		.word	-1098907648
 477 03b0 CDCCCC3D 		.word	1036831949
 478 03b4 00000000 		.word	v_ctl_altitude_error
 479 03b8 00002440 		.word	1076101120
 480 03bc 00001643 		.word	1125515264
 481 03c0 000016C3 		.word	-1021968384
 482 03c4 33333333 		.word	858993459
 483 03c8 3333D33F 		.word	1070805811
 484 03cc 9A999999 		.word	-1717986918
 485 03d0 9999B93F 		.word	1069128089
 486 03d4 0000D0BF 		.word	-1076887552
 487 03d8 00000000 		.word	nav_pitch
 488 03dc 00001646 		.word	1175846912
 489 03e0 00000000 		.word	v_ctl_throttle_setpoint
 491              		.global	__aeabi_i2d
 492              		.global	__aeabi_dcmpgt
 493              		.global	__aeabi_dcmplt
 494              		.section	.text.v_ctl_throttle_slew,"ax",%progbits
 495              		.align	2
 496              		.global	v_ctl_throttle_slew
 498              	v_ctl_throttle_slew:
 499              		@ Function supports interworking.
 500              		@ args = 0, pretend = 0, frame = 0
 501              		@ frame_needed = 0, uses_anonymous_args = 0
 502 0000 70432DE9 		stmfd	sp!, {r4, r5, r6, r8, r9, lr}
 503 0004 6C309FE5 		ldr	r3, .L69
 504 0008 6C509FE5 		ldr	r5, .L69+4
 505 000c B000D3E1 		ldrh	r0, [r3, #0]
 506 0010 B060D5E1 		ldrh	r6, [r5, #0]
 507 0014 000066E0 		rsb	r0, r6, r0
 508 0018 0008A0E1 		mov	r0, r0, asl #16
 509 001c 2048A0E1 		mov	r4, r0, lsr #16
 510 0020 4008A0E1 		mov	r0, r0, asr #16
 511 0024 FEFFFFEB 		bl	__aeabi_i2d
 512 0028 0020A0E3 		mov	r2, #0
 513 002c 4C309FE5 		ldr	r3, .L69+8
 514 0030 0080A0E1 		mov	r8, r0
 515 0034 0190A0E1 		mov	r9, r1
 516 0038 FEFFFFEB 		bl	__aeabi_dcmpgt
 517 003c 000050E3 		cmp	r0, #0
 518 0040 5040A013 		movne	r4, #80
 519 0044 0700001A 		bne	.L66
 520 0048 34309FE5 		ldr	r3, .L69+12
 521 004c 0800A0E1 		mov	r0, r8
 522 0050 0910A0E1 		mov	r1, r9
 523 0054 0020A0E3 		mov	r2, #0
 524 0058 FEFFFFEB 		bl	__aeabi_dcmplt
 525 005c 24309FE5 		ldr	r3, .L69+16
 526 0060 000050E3 		cmp	r0, #0
 527 0064 0340A011 		movne	r4, r3
 528              	.L66:
 529 0068 044086E0 		add	r4, r6, r4
 530 006c B040C5E1 		strh	r4, [r5, #0]	@ movhi
 531 0070 7043BDE8 		ldmfd	sp!, {r4, r5, r6, r8, r9, lr}
 532 0074 1EFF2FE1 		bx	lr
 533              	.L70:
 534              		.align	2
 535              	.L69:
 536 0078 00000000 		.word	v_ctl_throttle_setpoint
 537 007c 00000000 		.word	v_ctl_throttle_slewed
 538 0080 00005440 		.word	1079246848
 539 0084 000054C0 		.word	-1068236800
 540 0088 B0FF0000 		.word	65456
 542              		.comm	v_ctl_pitch_setpoint,4,4
 543              		.comm	v_ctl_throttle_slewed,2,2
 544              		.comm	v_ctl_throttle_setpoint,2,2
 545              		.comm	v_ctl_auto_pitch_sum_err,4,4
 546              		.comm	v_ctl_auto_pitch_igain,4,4
 547              		.comm	v_ctl_auto_pitch_pgain,4,4
 548              		.comm	v_ctl_auto_throttle_pitch_of_vz_dgain,4,4
 549              		.comm	v_ctl_auto_throttle_pitch_of_vz_pgain,4,4
 550              		.comm	v_ctl_auto_throttle_sum_err,4,4
 551              		.comm	v_ctl_auto_throttle_dgain,4,4
 552              		.comm	v_ctl_auto_throttle_igain,4,4
 553              		.comm	v_ctl_auto_throttle_pgain,4,4
 554              		.comm	v_ctl_auto_throttle_climb_throttle_increment,4,4
 555              		.comm	v_ctl_auto_throttle_max_cruise_throttle,4,4
 556              		.comm	v_ctl_auto_throttle_min_cruise_throttle,4,4
 557              		.comm	v_ctl_auto_throttle_nominal_cruise_throttle,4,4
 558              		.comm	v_ctl_auto_throttle_cruise_throttle,4,4
 559              		.comm	v_ctl_auto_throttle_submode,1,1
 560              		.comm	v_ctl_climb_mode,1,1
 561              		.comm	v_ctl_climb_setpoint,4,4
 562              		.comm	v_ctl_altitude_max_climb,4,4
 563              		.comm	v_ctl_altitude_pre_climb_correction,4,4
 564              		.comm	v_ctl_altitude_error,4,4
 565              		.comm	v_ctl_altitude_pgain,4,4
 566              		.comm	v_ctl_altitude_pre_climb,4,4
 567              		.comm	v_ctl_altitude_setpoint,4,4
 568              		.comm	v_ctl_mode,1,1
 569              		.section	.bss.last_err.3805,"aw",%nobits
 570              		.align	2
 571              		.set	.LANCHOR0,. + 0
 574              	last_err.3805:
 575 0000 00000000 		.space	4
 576              		.ident	"GCC: (Linaro GCC 4.6-2011.09-1) 4.6.2 20110908 (prerelease)"