   1              		.cpu arm7tdmi
   2              		.fpu softvfp
   3              		.eabi_attribute 20, 1
   4              		.eabi_attribute 21, 1
   5              		.eabi_attribute 23, 3
   6              		.eabi_attribute 24, 1
   7              		.eabi_attribute 25, 1
   8              		.eabi_attribute 26, 1
   9              		.eabi_attribute 30, 4
  10              		.eabi_attribute 18, 4
  11              		.file	"main_ap.c"
  12              		.section	.text.stateGetPositionEnu_f,"ax",%progbits
  13              		.align	2
  15              	stateGetPositionEnu_f:
  16              		@ Function supports interworking.
  17              		@ args = 0, pretend = 0, frame = 0
  18              		@ frame_needed = 0, uses_anonymous_args = 0
  19 0000 08402DE9 		stmfd	sp!, {r3, lr}
  20 0004 14309FE5 		ldr	r3, .L3
  21 0008 B030D3E1 		ldrh	r3, [r3, #0]
  22 000c 800013E3 		tst	r3, #128
  23 0010 FEFFFF0B 		bleq	stateCalcPositionEnu_f
  24              	.L2:
  25 0014 08009FE5 		ldr	r0, .L3+4
  26 0018 0840BDE8 		ldmfd	sp!, {r3, lr}
  27 001c 1EFF2FE1 		bx	lr
  28              	.L4:
  29              		.align	2
  30              	.L3:
  31 0020 00000000 		.word	state
  32 0024 08010000 		.word	state+264
  34              		.section	.text.stateGetNedToBodyEulers_f,"ax",%progbits
  35              		.align	2
  37              	stateGetNedToBodyEulers_f:
  38              		@ Function supports interworking.
  39              		@ args = 0, pretend = 0, frame = 0
  40              		@ frame_needed = 0, uses_anonymous_args = 0
  41 0000 08402DE9 		stmfd	sp!, {r3, lr}
  42 0004 18009FE5 		ldr	r0, .L7
  43 0008 A431D0E5 		ldrb	r3, [r0, #420]	@ zero_extendqisi2
  44 000c 100013E3 		tst	r3, #16
  45 0010 690F8002 		addeq	r0, r0, #420
  46 0014 FEFFFF0B 		bleq	orientationCalcEulers_f
  47              	.L6:
  48 0018 08009FE5 		ldr	r0, .L7+4
  49 001c 0840BDE8 		ldmfd	sp!, {r3, lr}
  50 0020 1EFF2FE1 		bx	lr
  51              	.L8:
  52              		.align	2
  53              	.L7:
  54 0024 00000000 		.word	state
  55 0028 F8010000 		.word	state+504
  57              		.section	.text.stateGetPositionUtm_f,"ax",%progbits
  58              		.align	2
  60              	stateGetPositionUtm_f:
  61              		@ Function supports interworking.
  62              		@ args = 0, pretend = 0, frame = 0
  63              		@ frame_needed = 0, uses_anonymous_args = 0
  64 0000 08402DE9 		stmfd	sp!, {r3, lr}
  65 0004 14309FE5 		ldr	r3, .L11
  66 0008 B030D3E1 		ldrh	r3, [r3, #0]
  67 000c 020C13E3 		tst	r3, #512
  68 0010 FEFFFF0B 		bleq	stateCalcPositionUtm_f
  69              	.L10:
  70 0014 08009FE5 		ldr	r0, .L11+4
  71 0018 0840BDE8 		ldmfd	sp!, {r3, lr}
  72 001c 1EFF2FE1 		bx	lr
  73              	.L12:
  74              		.align	2
  75              	.L11:
  76 0020 00000000 		.word	state
  77 0024 78000000 		.word	state+120
  79              		.section	.text.stateGetSpeedEnu_f,"ax",%progbits
  80              		.align	2
  82              	stateGetSpeedEnu_f:
  83              		@ Function supports interworking.
  84              		@ args = 0, pretend = 0, frame = 0
  85              		@ frame_needed = 0, uses_anonymous_args = 0
  86 0000 08402DE9 		stmfd	sp!, {r3, lr}
  87 0004 14309FE5 		ldr	r3, .L15
  88 0008 1431D3E5 		ldrb	r3, [r3, #276]	@ zero_extendqisi2
  89 000c A333B0E1 		movs	r3, r3, lsr #7
  90 0010 FEFFFF0B 		bleq	stateCalcSpeedEnu_f
  91              	.L14:
  92 0014 08009FE5 		ldr	r0, .L15+4
  93 0018 0840BDE8 		ldmfd	sp!, {r3, lr}
  94 001c 1EFF2FE1 		bx	lr
  95              	.L16:
  96              		.align	2
  97              	.L15:
  98 0020 00000000 		.word	state
  99 0024 5C010000 		.word	state+348
 101              		.section	.text.init_ap,"ax",%progbits
 102              		.align	2
 103              		.global	init_ap
 105              	init_ap:
 106              		@ Function supports interworking.
 107              		@ args = 0, pretend = 0, frame = 0
 108              		@ frame_needed = 0, uses_anonymous_args = 0
 109 0000 38402DE9 		stmfd	sp!, {r3, r4, r5, lr}
 110 0004 FEFFFFEB 		bl	gps_init
 111 0008 FEFFFFEB 		bl	imu_init
 112 000c FEFFFFEB 		bl	ahrs_init
 113 0010 FEFFFFEB 		bl	ins_init
 114 0014 FEFFFFEB 		bl	stateInit
 115 0018 FEFFFFEB 		bl	h_ctl_init
 116 001c FEFFFFEB 		bl	v_ctl_init
 117 0020 FEFFFFEB 		bl	nav_init
 118 0024 FEFFFFEB 		bl	init_openlog
 119 0028 B8309FE5 		ldr	r3, .L18
 120 002c 0250A0E3 		mov	r5, #2
 121 0030 0050C3E5 		strb	r5, [r3, #0]
 122 0034 FEFFFFEB 		bl	infrared_adc_init
 123 0038 AC309FE5 		ldr	r3, .L18+4
 124 003c 0040A0E3 		mov	r4, #0
 125 0040 0040C3E5 		strb	r4, [r3, #0]
 126 0044 A4309FE5 		ldr	r3, .L18+8
 127 0048 0050C3E5 		strb	r5, [r3, #0]
 128 004c A0509FE5 		ldr	r5, .L18+12
 129 0050 FEFFFFEB 		bl	settings_init
 130 0054 0410A0E1 		mov	r1, r4
 131 0058 0500A0E1 		mov	r0, r5
 132 005c FEFFFFEB 		bl	sys_time_register_timer
 133 0060 90309FE5 		ldr	r3, .L18+16
 134 0064 0410A0E1 		mov	r1, r4
 135 0068 0000C3E5 		strb	r0, [r3, #0]
 136 006c FA05A0E3 		mov	r0, #1048576000
 137 0070 FEFFFFEB 		bl	sys_time_register_timer
 138 0074 80309FE5 		ldr	r3, .L18+20
 139 0078 0410A0E1 		mov	r1, r4
 140 007c 0000C3E5 		strb	r0, [r3, #0]
 141 0080 0500A0E1 		mov	r0, r5
 142 0084 FEFFFFEB 		bl	sys_time_register_timer
 143 0088 70309FE5 		ldr	r3, .L18+24
 144 008c 0410A0E1 		mov	r1, r4
 145 0090 0000C3E5 		strb	r0, [r3, #0]
 146 0094 0500A0E1 		mov	r0, r5
 147 0098 FEFFFFEB 		bl	sys_time_register_timer
 148 009c 60309FE5 		ldr	r3, .L18+28
 149 00a0 0410A0E1 		mov	r1, r4
 150 00a4 0000C3E5 		strb	r0, [r3, #0]
 151 00a8 0500A0E1 		mov	r0, r5
 152 00ac FEFFFFEB 		bl	sys_time_register_timer
 153 00b0 50309FE5 		ldr	r3, .L18+32
 154 00b4 0410A0E1 		mov	r1, r4
 155 00b8 0000C3E5 		strb	r0, [r3, #0]
 156 00bc FE05A0E3 		mov	r0, #1065353216
 157 00c0 FEFFFFEB 		bl	sys_time_register_timer
 158 00c4 40309FE5 		ldr	r3, .L18+36
 159 00c8 0000C3E5 		strb	r0, [r3, #0]
 160 00cc FEFFFFEB 		bl	enableIRQ
 161 00d0 FEFFFFEB 		bl	xbee_init
 162 00d4 34309FE5 		ldr	r3, .L18+40
 163 00d8 0040C3E5 		strb	r4, [r3, #0]
 164 00dc FEFFFFEB 		bl	traffic_info_init
 165 00e0 3840BDE8 		ldmfd	sp!, {r3, r4, r5, lr}
 166 00e4 1EFF2FE1 		bx	lr
 167              	.L19:
 168              		.align	2
 169              	.L18:
 170 00e8 00000000 		.word	openlog_periodic_2Hz_openlog_status
 171 00ec 00000000 		.word	dc_timer
 172 00f0 00000000 		.word	digital_cam_servo_servo_cam_ctrl_periodic_status
 173 00f4 8988883C 		.word	1015580809
 174 00f8 00000000 		.word	sensors_tid
 175 00fc 00000000 		.word	navigation_tid
 176 0100 00000000 		.word	attitude_tid
 177 0104 00000000 		.word	modules_tid
 178 0108 00000000 		.word	telemetry_tid
 179 010c 00000000 		.word	monitor_tid
 180 0110 00000000 		.word	power_switch
 182              		.global	__aeabi_i2d
 183              		.global	__aeabi_dmul
 184              		.global	__aeabi_ddiv
 185              		.global	__aeabi_d2iz
 186              		.global	__aeabi_i2f
 187              		.global	__aeabi_fadd
 188              		.global	__aeabi_f2d
 189              		.global	__aeabi_d2uiz
 190              		.global	__aeabi_idiv
 191              		.global	__aeabi_f2iz
 192              		.global	__aeabi_fmul
 193              		.global	__aeabi_ui2f
 194              		.global	__aeabi_fdiv
 195              		.section	.text.reporting_task,"ax",%progbits
 196              		.align	2
 197              		.global	reporting_task
 199              	reporting_task:
 200              		@ Function supports interworking.
 201              		@ args = 0, pretend = 0, frame = 32
 202              		@ frame_needed = 0, uses_anonymous_args = 0
 203 0000 F0412DE9 		stmfd	sp!, {r4, r5, r6, r7, r8, lr}
 204 0004 483D9FE5 		ldr	r3, .L282
 205 0008 0030D3E5 		ldrb	r3, [r3, #0]	@ zero_extendqisi2
 206 000c 000053E3 		cmp	r3, #0
 207 0010 20D04DE2 		sub	sp, sp, #32
 208 0014 5100000A 		beq	.L21
 209 0018 280E9FE5 		ldr	r0, .L282+244
 210 001c 0D10A0E3 		mov	r1, #13
 211 0020 FEFFFFEB 		bl	uart_check_free_space
 212 0024 000050E3 		cmp	r0, #0
 213 0028 4500000A 		beq	.L22
 214 002c 083E9FE5 		ldr	r3, .L282+232
 215 0030 B020D3E1 		ldrh	r2, [r3, #0]
 216 0034 0D2082E2 		add	r2, r2, #13
 217 0038 B020C3E1 		strh	r2, [r3, #0]	@ movhi
 218 003c FC3D9FE5 		ldr	r3, .L282+236
 219 0040 B020D3E1 		ldrh	r2, [r3, #0]
 220 0044 012082E2 		add	r2, r2, #1
 221 0048 B020C3E1 		strh	r2, [r3, #0]	@ movhi
 222 004c F40D9FE5 		ldr	r0, .L282+244
 223 0050 7E10A0E3 		mov	r1, #126
 224 0054 E84D9FE5 		ldr	r4, .L282+240
 225 0058 FEFFFFEB 		bl	uart_transmit
 226 005c E40D9FE5 		ldr	r0, .L282+244
 227 0060 0010A0E3 		mov	r1, #0
 228 0064 0150A0E3 		mov	r5, #1
 229 0068 FEFFFFEB 		bl	uart_transmit
 230 006c D40D9FE5 		ldr	r0, .L282+244
 231 0070 0910A0E3 		mov	r1, #9
 232 0074 FEFFFFEB 		bl	uart_transmit
 233 0078 0050C4E5 		strb	r5, [r4, #0]
 234 007c 0510A0E1 		mov	r1, r5
 235 0080 C00D9FE5 		ldr	r0, .L282+244
 236 0084 FEFFFFEB 		bl	uart_transmit
 237 0088 B80D9FE5 		ldr	r0, .L282+244
 238 008c 0010A0E3 		mov	r1, #0
 239 0090 FEFFFFEB 		bl	uart_transmit
 240 0094 0030D4E5 		ldrb	r3, [r4, #0]	@ zero_extendqisi2
 241 0098 053083E0 		add	r3, r3, r5
 242 009c 0030C4E5 		strb	r3, [r4, #0]
 243 00a0 0510A0E1 		mov	r1, r5
 244 00a4 9C0D9FE5 		ldr	r0, .L282+244
 245 00a8 FEFFFFEB 		bl	uart_transmit
 246 00ac 940D9FE5 		ldr	r0, .L282+244
 247 00b0 0010A0E3 		mov	r1, #0
 248 00b4 FEFFFFEB 		bl	uart_transmit
 249 00b8 880D9FE5 		ldr	r0, .L282+244
 250 00bc 0010A0E3 		mov	r1, #0
 251 00c0 FEFFFFEB 		bl	uart_transmit
 252 00c4 0030D4E5 		ldrb	r3, [r4, #0]	@ zero_extendqisi2
 253 00c8 023083E2 		add	r3, r3, #2
 254 00cc 0030C4E5 		strb	r3, [r4, #0]
 255 00d0 700D9FE5 		ldr	r0, .L282+244
 256 00d4 0210A0E3 		mov	r1, #2
 257 00d8 FEFFFFEB 		bl	uart_transmit
 258 00dc 0030D4E5 		ldrb	r3, [r4, #0]	@ zero_extendqisi2
 259 00e0 0510A0E1 		mov	r1, r5
 260 00e4 053083E0 		add	r3, r3, r5
 261 00e8 685C9FE5 		ldr	r5, .L282+4
 262 00ec 0030C4E5 		strb	r3, [r4, #0]
 263 00f0 500D9FE5 		ldr	r0, .L282+244
 264 00f4 FEFFFFEB 		bl	uart_transmit
 265 00f8 0010D5E5 		ldrb	r1, [r5, #0]	@ zero_extendqisi2
 266 00fc 0030D4E5 		ldrb	r3, [r4, #0]	@ zero_extendqisi2
 267 0100 033081E0 		add	r3, r1, r3
 268 0104 0030C4E5 		strb	r3, [r4, #0]
 269 0108 380D9FE5 		ldr	r0, .L282+244
 270 010c FEFFFFEB 		bl	uart_transmit
 271 0110 0110D5E5 		ldrb	r1, [r5, #1]	@ zero_extendqisi2
 272 0114 0030D4E5 		ldrb	r3, [r4, #0]	@ zero_extendqisi2
 273 0118 033081E0 		add	r3, r1, r3
 274 011c 0030C4E5 		strb	r3, [r4, #0]
 275 0120 200D9FE5 		ldr	r0, .L282+244
 276 0124 FEFFFFEB 		bl	uart_transmit
 277 0128 0010D4E5 		ldrb	r1, [r4, #0]	@ zero_extendqisi2
 278 012c 0110E0E1 		mvn	r1, r1
 279 0130 FF1001E2 		and	r1, r1, #255
 280 0134 0010C4E5 		strb	r1, [r4, #0]
 281 0138 080D9FE5 		ldr	r0, .L282+244
 282 013c FEFFFFEB 		bl	uart_transmit
 283 0140 030000EA 		b	.L23
 284              	.L22:
 285 0144 C43C9FE5 		ldr	r3, .L282+188
 286 0148 0020D3E5 		ldrb	r2, [r3, #0]	@ zero_extendqisi2
 287 014c 012082E2 		add	r2, r2, #1
 288 0150 0020C3E5 		strb	r2, [r3, #0]
 289              	.L23:
 290 0154 0020A0E3 		mov	r2, #0
 291 0158 F43B9FE5 		ldr	r3, .L282
 292 015c 322400EA 		b	.L276
 293              	.L21:
 294 0160 F43B9FE5 		ldr	r3, .L282+8
 295 0164 0020D3E5 		ldrb	r2, [r3, #0]	@ zero_extendqisi2
 296 0168 000052E3 		cmp	r2, #0
 297 016c D00D001A 		bne	.L25
 298 0170 E83B9FE5 		ldr	r3, .L282+12
 299 0174 0010D3E5 		ldrb	r1, [r3, #0]	@ zero_extendqisi2
 300 0178 011081E2 		add	r1, r1, #1
 301 017c FF1001E2 		and	r1, r1, #255
 302 0180 0E0051E3 		cmp	r1, #14
 303 0184 0010C3E5 		strb	r1, [r3, #0]
 304 0188 0020C385 		strhib	r2, [r3, #0]
 305 018c D03B9FE5 		ldr	r3, .L282+16
 306 0190 0020D3E5 		ldrb	r2, [r3, #0]	@ zero_extendqisi2
 307 0194 012082E2 		add	r2, r2, #1
 308 0198 FF2002E2 		and	r2, r2, #255
 309 019c 1D0052E3 		cmp	r2, #29
 310 01a0 0020C3E5 		strb	r2, [r3, #0]
 311 01a4 0020A083 		movhi	r2, #0
 312 01a8 0020C385 		strhib	r2, [r3, #0]
 313 01ac 043C9FE5 		ldr	r3, .L282+100
 314 01b0 0020D3E5 		ldrb	r2, [r3, #0]	@ zero_extendqisi2
 315 01b4 012082E2 		add	r2, r2, #1
 316 01b8 FF2002E2 		and	r2, r2, #255
 317 01bc 3B0052E3 		cmp	r2, #59
 318 01c0 0020C3E5 		strb	r2, [r3, #0]
 319 01c4 0020A083 		movhi	r2, #0
 320 01c8 0020C385 		strhib	r2, [r3, #0]
 321 01cc 083C9FE5 		ldr	r3, .L282+136
 322 01d0 0020D3E5 		ldrb	r2, [r3, #0]	@ zero_extendqisi2
 323 01d4 012082E2 		add	r2, r2, #1
 324 01d8 FF2002E2 		and	r2, r2, #255
 325 01dc 3E0052E3 		cmp	r2, #62
 326 01e0 0020C3E5 		strb	r2, [r3, #0]
 327 01e4 0020A083 		movhi	r2, #0
 328 01e8 0020C385 		strhib	r2, [r3, #0]
 329 01ec 203C9FE5 		ldr	r3, .L282+192
 330 01f0 0020D3E5 		ldrb	r2, [r3, #0]	@ zero_extendqisi2
 331 01f4 012082E2 		add	r2, r2, #1
 332 01f8 FF2002E2 		and	r2, r2, #255
 333 01fc 410052E3 		cmp	r2, #65
 334 0200 0020C3E5 		strb	r2, [r3, #0]
 335 0204 0020A083 		movhi	r2, #0
 336 0208 0020C385 		strhib	r2, [r3, #0]
 337 020c 543B9FE5 		ldr	r3, .L282+20
 338 0210 0020D3E5 		ldrb	r2, [r3, #0]	@ zero_extendqisi2
 339 0214 012082E2 		add	r2, r2, #1
 340 0218 FF2002E2 		and	r2, r2, #255
 341 021c 470052E3 		cmp	r2, #71
 342 0220 0020C3E5 		strb	r2, [r3, #0]
 343 0224 0020A083 		movhi	r2, #0
 344 0228 0020C385 		strhib	r2, [r3, #0]
 345 022c 383B9FE5 		ldr	r3, .L282+24
 346 0230 0020D3E5 		ldrb	r2, [r3, #0]	@ zero_extendqisi2
 347 0234 012082E2 		add	r2, r2, #1
 348 0238 FF2002E2 		and	r2, r2, #255
 349 023c 590052E3 		cmp	r2, #89
 350 0240 0020C3E5 		strb	r2, [r3, #0]
 351 0244 0020A083 		movhi	r2, #0
 352 0248 0020C385 		strhib	r2, [r3, #0]
 353 024c 1C3B9FE5 		ldr	r3, .L282+28
 354 0250 0020D3E5 		ldrb	r2, [r3, #0]	@ zero_extendqisi2
 355 0254 012082E2 		add	r2, r2, #1
 356 0258 FF2002E2 		and	r2, r2, #255
 357 025c 770052E3 		cmp	r2, #119
 358 0260 0020C3E5 		strb	r2, [r3, #0]
 359 0264 0020A083 		movhi	r2, #0
 360 0268 0020C385 		strhib	r2, [r3, #0]
 361 026c 003B9FE5 		ldr	r3, .L282+32
 362 0270 0020D3E5 		ldrb	r2, [r3, #0]	@ zero_extendqisi2
 363 0274 012082E2 		add	r2, r2, #1
 364 0278 FF2002E2 		and	r2, r2, #255
 365 027c 7D0052E3 		cmp	r2, #125
 366 0280 0020C3E5 		strb	r2, [r3, #0]
 367 0284 0020A083 		movhi	r2, #0
 368 0288 0020C385 		strhib	r2, [r3, #0]
 369 028c E43A9FE5 		ldr	r3, .L282+36
 370 0290 0020D3E5 		ldrb	r2, [r3, #0]	@ zero_extendqisi2
 371 0294 012082E2 		add	r2, r2, #1
 372 0298 FF2002E2 		and	r2, r2, #255
 373 029c 950052E3 		cmp	r2, #149
 374 02a0 0020C3E5 		strb	r2, [r3, #0]
 375 02a4 0020A083 		movhi	r2, #0
 376 02a8 0020C385 		strhib	r2, [r3, #0]
 377 02ac C83A9FE5 		ldr	r3, .L282+40
 378 02b0 B020D3E1 		ldrh	r2, [r3, #0]
 379 02b4 012082E2 		add	r2, r2, #1
 380 02b8 0228A0E1 		mov	r2, r2, asl #16
 381 02bc 2228A0E1 		mov	r2, r2, lsr #16
 382 02c0 4B0F52E3 		cmp	r2, #300
 383 02c4 B020C3E1 		strh	r2, [r3, #0]	@ movhi
 384 02c8 0020A023 		movcs	r2, #0
 385 02cc B020C321 		strcsh	r2, [r3, #0]	@ movhi
 386 02d0 A83A9FE5 		ldr	r3, .L282+44
 387 02d4 B020D3E1 		ldrh	r2, [r3, #0]
 388 02d8 012082E2 		add	r2, r2, #1
 389 02dc 0228A0E1 		mov	r2, r2, asl #16
 390 02e0 9C1A9FE5 		ldr	r1, .L282+48
 391 02e4 2228A0E1 		mov	r2, r2, lsr #16
 392 02e8 010052E1 		cmp	r2, r1
 393 02ec B020C3E1 		strh	r2, [r3, #0]	@ movhi
 394 02f0 0020A083 		movhi	r2, #0
 395 02f4 B020C381 		strhih	r2, [r3, #0]	@ movhi
 396 02f8 883A9FE5 		ldr	r3, .L282+52
 397 02fc B020D3E1 		ldrh	r2, [r3, #0]
 398 0300 012082E2 		add	r2, r2, #1
 399 0304 0228A0E1 		mov	r2, r2, asl #16
 400 0308 2228A0E1 		mov	r2, r2, lsr #16
 401 030c 870F52E3 		cmp	r2, #540
 402 0310 B020C3E1 		strh	r2, [r3, #0]	@ movhi
 403 0314 0020A023 		movcs	r2, #0
 404 0318 B020C321 		strcsh	r2, [r3, #0]	@ movhi
 405 031c 3C3A9FE5 		ldr	r3, .L282+12
 406 0320 0050D3E5 		ldrb	r5, [r3, #0]	@ zero_extendqisi2
 407 0324 000055E3 		cmp	r5, #0
 408 0328 9001001A 		bne	.L39
 409 032c 584A9FE5 		ldr	r4, .L282+56
 410 0330 403094E5 		ldr	r3, [r4, #64]
 411 0334 480094E5 		ldr	r0, [r4, #72]
 412 0338 003063E2 		rsb	r3, r3, #0
 413 033c BC31CDE1 		strh	r3, [sp, #28]	@ movhi
 414 0340 FEFFFFEB 		bl	__aeabi_i2d
 415 0344 442A9FE5 		ldr	r2, .L282+60
 416 0348 443A9FE5 		ldr	r3, .L282+64
 417 034c FEFFFFEB 		bl	__aeabi_dmul
 418 0350 0020A0E3 		mov	r2, #0
 419 0354 3C3A9FE5 		ldr	r3, .L282+68
 420 0358 FEFFFFEB 		bl	__aeabi_ddiv
 421 035c FEFFFFEB 		bl	__aeabi_d2iz
 422 0360 2610A0E3 		mov	r1, #38
 423 0364 BE01CDE1 		strh	r0, [sp, #30]	@ movhi
 424 0368 D80A9FE5 		ldr	r0, .L282+244
 425 036c FEFFFFEB 		bl	uart_check_free_space
 426 0370 000050E3 		cmp	r0, #0
 427 0374 DB00000A 		beq	.L40
 428 0378 BC3A9FE5 		ldr	r3, .L282+232
 429 037c B020D3E1 		ldrh	r2, [r3, #0]
 430 0380 262082E2 		add	r2, r2, #38
 431 0384 B020C3E1 		strh	r2, [r3, #0]	@ movhi
 432 0388 B03A9FE5 		ldr	r3, .L282+236
 433 038c B020D3E1 		ldrh	r2, [r3, #0]
 434 0390 012082E2 		add	r2, r2, #1
 435 0394 B020C3E1 		strh	r2, [r3, #0]	@ movhi
 436 0398 A80A9FE5 		ldr	r0, .L282+244
 437 039c 7E10A0E3 		mov	r1, #126
 438 03a0 9C6A9FE5 		ldr	r6, .L282+240
 439 03a4 FEFFFFEB 		bl	uart_transmit
 440 03a8 0510A0E1 		mov	r1, r5
 441 03ac 940A9FE5 		ldr	r0, .L282+244
 442 03b0 FEFFFFEB 		bl	uart_transmit
 443 03b4 0170A0E3 		mov	r7, #1
 444 03b8 880A9FE5 		ldr	r0, .L282+244
 445 03bc 2210A0E3 		mov	r1, #34
 446 03c0 FEFFFFEB 		bl	uart_transmit
 447 03c4 0710A0E1 		mov	r1, r7
 448 03c8 0070C6E5 		strb	r7, [r6, #0]
 449 03cc 740A9FE5 		ldr	r0, .L282+244
 450 03d0 FEFFFFEB 		bl	uart_transmit
 451 03d4 0510A0E1 		mov	r1, r5
 452 03d8 680A9FE5 		ldr	r0, .L282+244
 453 03dc FEFFFFEB 		bl	uart_transmit
 454 03e0 0030D6E5 		ldrb	r3, [r6, #0]	@ zero_extendqisi2
 455 03e4 073083E0 		add	r3, r3, r7
 456 03e8 0030C6E5 		strb	r3, [r6, #0]
 457 03ec 0710A0E1 		mov	r1, r7
 458 03f0 500A9FE5 		ldr	r0, .L282+244
 459 03f4 FEFFFFEB 		bl	uart_transmit
 460 03f8 0510A0E1 		mov	r1, r5
 461 03fc 440A9FE5 		ldr	r0, .L282+244
 462 0400 FEFFFFEB 		bl	uart_transmit
 463 0404 0510A0E1 		mov	r1, r5
 464 0408 380A9FE5 		ldr	r0, .L282+244
 465 040c FEFFFFEB 		bl	uart_transmit
 466 0410 0030D6E5 		ldrb	r3, [r6, #0]	@ zero_extendqisi2
 467 0414 023083E2 		add	r3, r3, #2
 468 0418 0030C6E5 		strb	r3, [r6, #0]
 469 041c 240A9FE5 		ldr	r0, .L282+244
 470 0420 0210A0E3 		mov	r1, #2
 471 0424 FEFFFFEB 		bl	uart_transmit
 472 0428 0030D6E5 		ldrb	r3, [r6, #0]	@ zero_extendqisi2
 473 042c 083083E2 		add	r3, r3, #8
 474 0430 0030C6E5 		strb	r3, [r6, #0]
 475 0434 0C0A9FE5 		ldr	r0, .L282+244
 476 0438 0810A0E3 		mov	r1, #8
 477 043c FEFFFFEB 		bl	uart_transmit
 478 0440 5B10D4E5 		ldrb	r1, [r4, #91]	@ zero_extendqisi2
 479 0444 0030D6E5 		ldrb	r3, [r6, #0]	@ zero_extendqisi2
 480 0448 033081E0 		add	r3, r1, r3
 481 044c 0030C6E5 		strb	r3, [r6, #0]
 482 0450 F0099FE5 		ldr	r0, .L282+244
 483 0454 FEFFFFEB 		bl	uart_transmit
 484 0458 1C10D4E5 		ldrb	r1, [r4, #28]	@ zero_extendqisi2
 485 045c 0030D6E5 		ldrb	r3, [r6, #0]	@ zero_extendqisi2
 486 0460 033081E0 		add	r3, r1, r3
 487 0464 0030C6E5 		strb	r3, [r6, #0]
 488 0468 D8099FE5 		ldr	r0, .L282+244
 489 046c FEFFFFEB 		bl	uart_transmit
 490 0470 1D10D4E5 		ldrb	r1, [r4, #29]	@ zero_extendqisi2
 491 0474 0030D6E5 		ldrb	r3, [r6, #0]	@ zero_extendqisi2
 492 0478 033081E0 		add	r3, r1, r3
 493 047c 0030C6E5 		strb	r3, [r6, #0]
 494 0480 C0099FE5 		ldr	r0, .L282+244
 495 0484 FEFFFFEB 		bl	uart_transmit
 496 0488 1E10D4E5 		ldrb	r1, [r4, #30]	@ zero_extendqisi2
 497 048c 0030D6E5 		ldrb	r3, [r6, #0]	@ zero_extendqisi2
 498 0490 033081E0 		add	r3, r1, r3
 499 0494 0030C6E5 		strb	r3, [r6, #0]
 500 0498 A8099FE5 		ldr	r0, .L282+244
 501 049c FEFFFFEB 		bl	uart_transmit
 502 04a0 1F10D4E5 		ldrb	r1, [r4, #31]	@ zero_extendqisi2
 503 04a4 0030D6E5 		ldrb	r3, [r6, #0]	@ zero_extendqisi2
 504 04a8 033081E0 		add	r3, r1, r3
 505 04ac 0030C6E5 		strb	r3, [r6, #0]
 506 04b0 90099FE5 		ldr	r0, .L282+244
 507 04b4 FEFFFFEB 		bl	uart_transmit
 508 04b8 1810D4E5 		ldrb	r1, [r4, #24]	@ zero_extendqisi2
 509 04bc 0030D6E5 		ldrb	r3, [r6, #0]	@ zero_extendqisi2
 510 04c0 033081E0 		add	r3, r1, r3
 511 04c4 0030C6E5 		strb	r3, [r6, #0]
 512 04c8 78099FE5 		ldr	r0, .L282+244
 513 04cc FEFFFFEB 		bl	uart_transmit
 514 04d0 1910D4E5 		ldrb	r1, [r4, #25]	@ zero_extendqisi2
 515 04d4 0030D6E5 		ldrb	r3, [r6, #0]	@ zero_extendqisi2
 516 04d8 033081E0 		add	r3, r1, r3
 517 04dc 0030C6E5 		strb	r3, [r6, #0]
 518 04e0 60099FE5 		ldr	r0, .L282+244
 519 04e4 FEFFFFEB 		bl	uart_transmit
 520 04e8 1A10D4E5 		ldrb	r1, [r4, #26]	@ zero_extendqisi2
 521 04ec 0030D6E5 		ldrb	r3, [r6, #0]	@ zero_extendqisi2
 522 04f0 033081E0 		add	r3, r1, r3
 523 04f4 0030C6E5 		strb	r3, [r6, #0]
 524 04f8 48099FE5 		ldr	r0, .L282+244
 525 04fc FEFFFFEB 		bl	uart_transmit
 526 0500 1B10D4E5 		ldrb	r1, [r4, #27]	@ zero_extendqisi2
 527 0504 0030D6E5 		ldrb	r3, [r6, #0]	@ zero_extendqisi2
 528 0508 033081E0 		add	r3, r1, r3
 529 050c 0030C6E5 		strb	r3, [r6, #0]
 530 0510 30099FE5 		ldr	r0, .L282+244
 531 0514 FEFFFFEB 		bl	uart_transmit
 532 0518 1E10DDE5 		ldrb	r1, [sp, #30]	@ zero_extendqisi2
 533 051c 0030D6E5 		ldrb	r3, [r6, #0]	@ zero_extendqisi2
 534 0520 033081E0 		add	r3, r1, r3
 535 0524 0030C6E5 		strb	r3, [r6, #0]
 536 0528 18099FE5 		ldr	r0, .L282+244
 537 052c FEFFFFEB 		bl	uart_transmit
 538 0530 1F10DDE5 		ldrb	r1, [sp, #31]	@ zero_extendqisi2
 539 0534 0030D6E5 		ldrb	r3, [r6, #0]	@ zero_extendqisi2
 540 0538 033081E0 		add	r3, r1, r3
 541 053c 0030C6E5 		strb	r3, [r6, #0]
 542 0540 00099FE5 		ldr	r0, .L282+244
 543 0544 FEFFFFEB 		bl	uart_transmit
 544 0548 2810D4E5 		ldrb	r1, [r4, #40]	@ zero_extendqisi2
 545 054c 0030D6E5 		ldrb	r3, [r6, #0]	@ zero_extendqisi2
 546 0550 033081E0 		add	r3, r1, r3
 547 0554 0030C6E5 		strb	r3, [r6, #0]
 548 0558 E8089FE5 		ldr	r0, .L282+244
 549 055c FEFFFFEB 		bl	uart_transmit
 550 0560 2910D4E5 		ldrb	r1, [r4, #41]	@ zero_extendqisi2
 551 0564 0030D6E5 		ldrb	r3, [r6, #0]	@ zero_extendqisi2
 552 0568 033081E0 		add	r3, r1, r3
 553 056c 0030C6E5 		strb	r3, [r6, #0]
 554 0570 D0089FE5 		ldr	r0, .L282+244
 555 0574 FEFFFFEB 		bl	uart_transmit
 556 0578 2A10D4E5 		ldrb	r1, [r4, #42]	@ zero_extendqisi2
 557 057c 0030D6E5 		ldrb	r3, [r6, #0]	@ zero_extendqisi2
 558 0580 033081E0 		add	r3, r1, r3
 559 0584 0030C6E5 		strb	r3, [r6, #0]
 560 0588 B8089FE5 		ldr	r0, .L282+244
 561 058c FEFFFFEB 		bl	uart_transmit
 562 0590 2B10D4E5 		ldrb	r1, [r4, #43]	@ zero_extendqisi2
 563 0594 0030D6E5 		ldrb	r3, [r6, #0]	@ zero_extendqisi2
 564 0598 033081E0 		add	r3, r1, r3
 565 059c 0030C6E5 		strb	r3, [r6, #0]
 566 05a0 A0089FE5 		ldr	r0, .L282+244
 567 05a4 FEFFFFEB 		bl	uart_transmit
 568 05a8 4410D4E5 		ldrb	r1, [r4, #68]	@ zero_extendqisi2
 569 05ac 0030D6E5 		ldrb	r3, [r6, #0]	@ zero_extendqisi2
 570 05b0 033081E0 		add	r3, r1, r3
 571 05b4 0030C6E5 		strb	r3, [r6, #0]
 572 05b8 88089FE5 		ldr	r0, .L282+244
 573 05bc FEFFFFEB 		bl	uart_transmit
 574 05c0 4510D4E5 		ldrb	r1, [r4, #69]	@ zero_extendqisi2
 575 05c4 0030D6E5 		ldrb	r3, [r6, #0]	@ zero_extendqisi2
 576 05c8 033081E0 		add	r3, r1, r3
 577 05cc 0030C6E5 		strb	r3, [r6, #0]
 578 05d0 70089FE5 		ldr	r0, .L282+244
 579 05d4 FEFFFFEB 		bl	uart_transmit
 580 05d8 1C10DDE5 		ldrb	r1, [sp, #28]	@ zero_extendqisi2
 581 05dc 0030D6E5 		ldrb	r3, [r6, #0]	@ zero_extendqisi2
 582 05e0 033081E0 		add	r3, r1, r3
 583 05e4 0030C6E5 		strb	r3, [r6, #0]
 584 05e8 58089FE5 		ldr	r0, .L282+244
 585 05ec FEFFFFEB 		bl	uart_transmit
 586 05f0 1D10DDE5 		ldrb	r1, [sp, #29]	@ zero_extendqisi2
 587 05f4 0030D6E5 		ldrb	r3, [r6, #0]	@ zero_extendqisi2
 588 05f8 033081E0 		add	r3, r1, r3
 589 05fc 0030C6E5 		strb	r3, [r6, #0]
 590 0600 40089FE5 		ldr	r0, .L282+244
 591 0604 FEFFFFEB 		bl	uart_transmit
 592 0608 5C10D4E5 		ldrb	r1, [r4, #92]	@ zero_extendqisi2
 593 060c 0030D6E5 		ldrb	r3, [r6, #0]	@ zero_extendqisi2
 594 0610 033081E0 		add	r3, r1, r3
 595 0614 0030C6E5 		strb	r3, [r6, #0]
 596 0618 28089FE5 		ldr	r0, .L282+244
 597 061c FEFFFFEB 		bl	uart_transmit
 598 0620 5D10D4E5 		ldrb	r1, [r4, #93]	@ zero_extendqisi2
 599 0624 0030D6E5 		ldrb	r3, [r6, #0]	@ zero_extendqisi2
 600 0628 033081E0 		add	r3, r1, r3
 601 062c 0030C6E5 		strb	r3, [r6, #0]
 602 0630 10089FE5 		ldr	r0, .L282+244
 603 0634 FEFFFFEB 		bl	uart_transmit
 604 0638 6010D4E5 		ldrb	r1, [r4, #96]	@ zero_extendqisi2
 605 063c 0030D6E5 		ldrb	r3, [r6, #0]	@ zero_extendqisi2
 606 0640 033081E0 		add	r3, r1, r3
 607 0644 0030C6E5 		strb	r3, [r6, #0]
 608 0648 F8079FE5 		ldr	r0, .L282+244
 609 064c FEFFFFEB 		bl	uart_transmit
 610 0650 6110D4E5 		ldrb	r1, [r4, #97]	@ zero_extendqisi2
 611 0654 0030D6E5 		ldrb	r3, [r6, #0]	@ zero_extendqisi2
 612 0658 033081E0 		add	r3, r1, r3
 613 065c 0030C6E5 		strb	r3, [r6, #0]
 614 0660 E0079FE5 		ldr	r0, .L282+244
 615 0664 FEFFFFEB 		bl	uart_transmit
 616 0668 6210D4E5 		ldrb	r1, [r4, #98]	@ zero_extendqisi2
 617 066c 0030D6E5 		ldrb	r3, [r6, #0]	@ zero_extendqisi2
 618 0670 033081E0 		add	r3, r1, r3
 619 0674 0030C6E5 		strb	r3, [r6, #0]
 620 0678 C8079FE5 		ldr	r0, .L282+244
 621 067c FEFFFFEB 		bl	uart_transmit
 622 0680 6310D4E5 		ldrb	r1, [r4, #99]	@ zero_extendqisi2
 623 0684 0030D6E5 		ldrb	r3, [r6, #0]	@ zero_extendqisi2
 624 0688 033081E0 		add	r3, r1, r3
 625 068c 0030C6E5 		strb	r3, [r6, #0]
 626 0690 B0079FE5 		ldr	r0, .L282+244
 627 0694 FEFFFFEB 		bl	uart_transmit
 628 0698 2410D4E5 		ldrb	r1, [r4, #36]	@ zero_extendqisi2
 629 069c 0030D6E5 		ldrb	r3, [r6, #0]	@ zero_extendqisi2
 630 06a0 033081E0 		add	r3, r1, r3
 631 06a4 0030C6E5 		strb	r3, [r6, #0]
 632 06a8 98079FE5 		ldr	r0, .L282+244
 633 06ac FEFFFFEB 		bl	uart_transmit
 634 06b0 E4369FE5 		ldr	r3, .L282+72
 635 06b4 0010D3E5 		ldrb	r1, [r3, #0]	@ zero_extendqisi2
 636 06b8 0030D6E5 		ldrb	r3, [r6, #0]	@ zero_extendqisi2
 637 06bc 033081E0 		add	r3, r1, r3
 638 06c0 0030C6E5 		strb	r3, [r6, #0]
 639 06c4 7C079FE5 		ldr	r0, .L282+244
 640 06c8 FEFFFFEB 		bl	uart_transmit
 641 06cc 0010D6E5 		ldrb	r1, [r6, #0]	@ zero_extendqisi2
 642 06d0 0110E0E1 		mvn	r1, r1
 643 06d4 FF1001E2 		and	r1, r1, #255
 644 06d8 0010C6E5 		strb	r1, [r6, #0]
 645 06dc 64079FE5 		ldr	r0, .L282+244
 646 06e0 FEFFFFEB 		bl	uart_transmit
 647 06e4 030000EA 		b	.L41
 648              	.L40:
 649 06e8 20379FE5 		ldr	r3, .L282+188
 650 06ec 0020D3E5 		ldrb	r2, [r3, #0]	@ zero_extendqisi2
 651 06f0 012082E2 		add	r2, r2, #1
 652 06f4 0020C3E5 		strb	r2, [r3, #0]
 653              	.L41:
 654 06f8 8C269FE5 		ldr	r2, .L282+56
 655 06fc 5B30D2E5 		ldrb	r3, [r2, #91]	@ zero_extendqisi2
 656 0700 030053E3 		cmp	r3, #3
 657 0704 90369FE5 		ldr	r3, .L282+72
 658 0708 0400000A 		beq	.L42
 659 070c 6410D2E5 		ldrb	r1, [r2, #100]	@ zero_extendqisi2
 660 0710 0000D3E5 		ldrb	r0, [r3, #0]	@ zero_extendqisi2
 661 0714 010050E1 		cmp	r0, r1
 662 0718 0010A023 		movcs	r1, #0
 663 071c 0010C325 		strcsb	r1, [r3, #0]
 664              	.L42:
 665 0720 0030D3E5 		ldrb	r3, [r3, #0]	@ zero_extendqisi2
 666 0724 6420D2E5 		ldrb	r2, [r2, #100]	@ zero_extendqisi2
 667 0728 820053E1 		cmp	r3, r2, asl #1
 668 072c 68369FA5 		ldrge	r3, .L282+72
 669 0730 0010A0A3 		movge	r1, #0
 670 0734 0010C3A5 		strgeb	r1, [r3, #0]
 671 0738 5C569FE5 		ldr	r5, .L282+72
 672 073c 0030D5E5 		ldrb	r3, [r5, #0]	@ zero_extendqisi2
 673 0740 020053E1 		cmp	r3, r2
 674 0744 8500002A 		bcs	.L44
 675 0748 3C669FE5 		ldr	r6, .L282+56
 676 074c 833186E0 		add	r3, r6, r3, asl #3
 677 0750 6930D3E5 		ldrb	r3, [r3, #105]	@ zero_extendqisi2
 678 0754 000053E3 		cmp	r3, #0
 679 0758 8000000A 		beq	.L44
 680 075c E4069FE5 		ldr	r0, .L282+244
 681 0760 1310A0E3 		mov	r1, #19
 682 0764 FEFFFFEB 		bl	uart_check_free_space
 683 0768 000050E3 		cmp	r0, #0
 684 076c 7700000A 		beq	.L45
 685 0770 C4369FE5 		ldr	r3, .L282+232
 686 0774 B020D3E1 		ldrh	r2, [r3, #0]
 687 0778 132082E2 		add	r2, r2, #19
 688 077c B020C3E1 		strh	r2, [r3, #0]	@ movhi
 689 0780 B8369FE5 		ldr	r3, .L282+236
 690 0784 B020D3E1 		ldrh	r2, [r3, #0]
 691 0788 012082E2 		add	r2, r2, #1
 692 078c B020C3E1 		strh	r2, [r3, #0]	@ movhi
 693 0790 B0069FE5 		ldr	r0, .L282+244
 694 0794 7E10A0E3 		mov	r1, #126
 695 0798 A4469FE5 		ldr	r4, .L282+240
 696 079c FEFFFFEB 		bl	uart_transmit
 697 07a0 A0069FE5 		ldr	r0, .L282+244
 698 07a4 0010A0E3 		mov	r1, #0
 699 07a8 FEFFFFEB 		bl	uart_transmit
 700 07ac 0170A0E3 		mov	r7, #1
 701 07b0 90069FE5 		ldr	r0, .L282+244
 702 07b4 0F10A0E3 		mov	r1, #15
 703 07b8 FEFFFFEB 		bl	uart_transmit
 704 07bc 0710A0E1 		mov	r1, r7
 705 07c0 0070C4E5 		strb	r7, [r4, #0]
 706 07c4 7C069FE5 		ldr	r0, .L282+244
 707 07c8 FEFFFFEB 		bl	uart_transmit
 708 07cc 74069FE5 		ldr	r0, .L282+244
 709 07d0 0010A0E3 		mov	r1, #0
 710 07d4 FEFFFFEB 		bl	uart_transmit
 711 07d8 0030D4E5 		ldrb	r3, [r4, #0]	@ zero_extendqisi2
 712 07dc 073083E0 		add	r3, r3, r7
 713 07e0 0030C4E5 		strb	r3, [r4, #0]
 714 07e4 0710A0E1 		mov	r1, r7
 715 07e8 58069FE5 		ldr	r0, .L282+244
 716 07ec FEFFFFEB 		bl	uart_transmit
 717 07f0 50069FE5 		ldr	r0, .L282+244
 718 07f4 0010A0E3 		mov	r1, #0
 719 07f8 FEFFFFEB 		bl	uart_transmit
 720 07fc 44069FE5 		ldr	r0, .L282+244
 721 0800 0010A0E3 		mov	r1, #0
 722 0804 FEFFFFEB 		bl	uart_transmit
 723 0808 0030D4E5 		ldrb	r3, [r4, #0]	@ zero_extendqisi2
 724 080c 023083E2 		add	r3, r3, #2
 725 0810 0030C4E5 		strb	r3, [r4, #0]
 726 0814 2C069FE5 		ldr	r0, .L282+244
 727 0818 0210A0E3 		mov	r1, #2
 728 081c FEFFFFEB 		bl	uart_transmit
 729 0820 0030D4E5 		ldrb	r3, [r4, #0]	@ zero_extendqisi2
 730 0824 193083E2 		add	r3, r3, #25
 731 0828 0030C4E5 		strb	r3, [r4, #0]
 732 082c 14069FE5 		ldr	r0, .L282+244
 733 0830 1910A0E3 		mov	r1, #25
 734 0834 FEFFFFEB 		bl	uart_transmit
 735 0838 0010D5E5 		ldrb	r1, [r5, #0]	@ zero_extendqisi2
 736 083c 0030D4E5 		ldrb	r3, [r4, #0]	@ zero_extendqisi2
 737 0840 033081E0 		add	r3, r1, r3
 738 0844 0030C4E5 		strb	r3, [r4, #0]
 739 0848 F8059FE5 		ldr	r0, .L282+244
 740 084c FEFFFFEB 		bl	uart_transmit
 741 0850 0030D5E5 		ldrb	r3, [r5, #0]	@ zero_extendqisi2
 742 0854 833186E0 		add	r3, r6, r3, asl #3
 743 0858 6610D3E5 		ldrb	r1, [r3, #102]	@ zero_extendqisi2
 744 085c 0030D4E5 		ldrb	r3, [r4, #0]	@ zero_extendqisi2
 745 0860 033081E0 		add	r3, r1, r3
 746 0864 0030C4E5 		strb	r3, [r4, #0]
 747 0868 D8059FE5 		ldr	r0, .L282+244
 748 086c FEFFFFEB 		bl	uart_transmit
 749 0870 0030D5E5 		ldrb	r3, [r5, #0]	@ zero_extendqisi2
 750 0874 833186E0 		add	r3, r6, r3, asl #3
 751 0878 6710D3E5 		ldrb	r1, [r3, #103]	@ zero_extendqisi2
 752 087c 0030D4E5 		ldrb	r3, [r4, #0]	@ zero_extendqisi2
 753 0880 033081E0 		add	r3, r1, r3
 754 0884 0030C4E5 		strb	r3, [r4, #0]
 755 0888 B8059FE5 		ldr	r0, .L282+244
 756 088c FEFFFFEB 		bl	uart_transmit
 757 0890 0030D5E5 		ldrb	r3, [r5, #0]	@ zero_extendqisi2
 758 0894 833186E0 		add	r3, r6, r3, asl #3
 759 0898 6810D3E5 		ldrb	r1, [r3, #104]	@ zero_extendqisi2
 760 089c 0030D4E5 		ldrb	r3, [r4, #0]	@ zero_extendqisi2
 761 08a0 033081E0 		add	r3, r1, r3
 762 08a4 0030C4E5 		strb	r3, [r4, #0]
 763 08a8 98059FE5 		ldr	r0, .L282+244
 764 08ac FEFFFFEB 		bl	uart_transmit
 765 08b0 0030D5E5 		ldrb	r3, [r5, #0]	@ zero_extendqisi2
 766 08b4 833186E0 		add	r3, r6, r3, asl #3
 767 08b8 6910D3E5 		ldrb	r1, [r3, #105]	@ zero_extendqisi2
 768 08bc 0030D4E5 		ldrb	r3, [r4, #0]	@ zero_extendqisi2
 769 08c0 033081E0 		add	r3, r1, r3
 770 08c4 0030C4E5 		strb	r3, [r4, #0]
 771 08c8 78059FE5 		ldr	r0, .L282+244
 772 08cc FEFFFFEB 		bl	uart_transmit
 773 08d0 0030D5E5 		ldrb	r3, [r5, #0]	@ zero_extendqisi2
 774 08d4 833186E0 		add	r3, r6, r3, asl #3
 775 08d8 6A10D3E5 		ldrb	r1, [r3, #106]	@ zero_extendqisi2
 776 08dc 0030D4E5 		ldrb	r3, [r4, #0]	@ zero_extendqisi2
 777 08e0 033081E0 		add	r3, r1, r3
 778 08e4 0030C4E5 		strb	r3, [r4, #0]
 779 08e8 58059FE5 		ldr	r0, .L282+244
 780 08ec FEFFFFEB 		bl	uart_transmit
 781 08f0 0030D5E5 		ldrb	r3, [r5, #0]	@ zero_extendqisi2
 782 08f4 0C6086E2 		add	r6, r6, #12
 783 08f8 0C3083E2 		add	r3, r3, #12
 784 08fc 8311D6E7 		ldrb	r1, [r6, r3, asl #3]	@ zero_extendqisi2
 785 0900 0030D4E5 		ldrb	r3, [r4, #0]	@ zero_extendqisi2
 786 0904 033081E0 		add	r3, r1, r3
 787 0908 0030C4E5 		strb	r3, [r4, #0]
 788 090c 34059FE5 		ldr	r0, .L282+244
 789 0910 FEFFFFEB 		bl	uart_transmit
 790 0914 0030D5E5 		ldrb	r3, [r5, #0]	@ zero_extendqisi2
 791 0918 836186E0 		add	r6, r6, r3, asl #3
 792 091c 6110D6E5 		ldrb	r1, [r6, #97]	@ zero_extendqisi2
 793 0920 0030D4E5 		ldrb	r3, [r4, #0]	@ zero_extendqisi2
 794 0924 033081E0 		add	r3, r1, r3
 795 0928 0030C4E5 		strb	r3, [r4, #0]
 796 092c 14059FE5 		ldr	r0, .L282+244
 797 0930 FEFFFFEB 		bl	uart_transmit
 798 0934 0010D4E5 		ldrb	r1, [r4, #0]	@ zero_extendqisi2
 799 0938 0110E0E1 		mvn	r1, r1
 800 093c FF1001E2 		and	r1, r1, #255
 801 0940 0010C4E5 		strb	r1, [r4, #0]
 802 0944 FC049FE5 		ldr	r0, .L282+244
 803 0948 FEFFFFEB 		bl	uart_transmit
 804 094c 030000EA 		b	.L44
 805              	.L45:
 806 0950 B8349FE5 		ldr	r3, .L282+188
 807 0954 0020D3E5 		ldrb	r2, [r3, #0]	@ zero_extendqisi2
 808 0958 012082E2 		add	r2, r2, #1
 809 095c 0020C3E5 		strb	r2, [r3, #0]
 810              	.L44:
 811 0960 34349FE5 		ldr	r3, .L282+72
 812 0964 0020D3E5 		ldrb	r2, [r3, #0]	@ zero_extendqisi2
 813 0968 012082E2 		add	r2, r2, #1
 814 096c 0020C3E5 		strb	r2, [r3, #0]
 815              	.L39:
 816 0970 EC339FE5 		ldr	r3, .L282+16
 817 0974 0060D3E5 		ldrb	r6, [r3, #0]	@ zero_extendqisi2
 818 0978 060056E3 		cmp	r6, #6
 819 097c 7C00001A 		bne	.L46
 820 0980 FEFFFFEB 		bl	stateGetNedToBodyEulers_f
 821 0984 1710A0E3 		mov	r1, #23
 822 0988 0050A0E1 		mov	r5, r0
 823 098c B4049FE5 		ldr	r0, .L282+244
 824 0990 FEFFFFEB 		bl	uart_check_free_space
 825 0994 000050E3 		cmp	r0, #0
 826 0998 D901000A 		beq	.L52
 827 099c 98349FE5 		ldr	r3, .L282+232
 828 09a0 B020D3E1 		ldrh	r2, [r3, #0]
 829 09a4 172082E2 		add	r2, r2, #23
 830 09a8 B020C3E1 		strh	r2, [r3, #0]	@ movhi
 831 09ac 8C349FE5 		ldr	r3, .L282+236
 832 09b0 B020D3E1 		ldrh	r2, [r3, #0]
 833 09b4 012082E2 		add	r2, r2, #1
 834 09b8 B020C3E1 		strh	r2, [r3, #0]	@ movhi
 835 09bc 84049FE5 		ldr	r0, .L282+244
 836 09c0 7E10A0E3 		mov	r1, #126
 837 09c4 78449FE5 		ldr	r4, .L282+240
 838 09c8 FEFFFFEB 		bl	uart_transmit
 839 09cc 74049FE5 		ldr	r0, .L282+244
 840 09d0 0010A0E3 		mov	r1, #0
 841 09d4 FEFFFFEB 		bl	uart_transmit
 842 09d8 0170A0E3 		mov	r7, #1
 843 09dc 64049FE5 		ldr	r0, .L282+244
 844 09e0 1310A0E3 		mov	r1, #19
 845 09e4 FEFFFFEB 		bl	uart_transmit
 846 09e8 58049FE5 		ldr	r0, .L282+244
 847 09ec 0710A0E1 		mov	r1, r7
 848 09f0 0070C4E5 		strb	r7, [r4, #0]
 849 09f4 FEFFFFEB 		bl	uart_transmit
 850 09f8 48049FE5 		ldr	r0, .L282+244
 851 09fc 0010A0E3 		mov	r1, #0
 852 0a00 FEFFFFEB 		bl	uart_transmit
 853 0a04 0030D4E5 		ldrb	r3, [r4, #0]	@ zero_extendqisi2
 854 0a08 073083E0 		add	r3, r3, r7
 855 0a0c 0030C4E5 		strb	r3, [r4, #0]
 856 0a10 30049FE5 		ldr	r0, .L282+244
 857 0a14 0710A0E1 		mov	r1, r7
 858 0a18 FEFFFFEB 		bl	uart_transmit
 859 0a1c 24049FE5 		ldr	r0, .L282+244
 860 0a20 0010A0E3 		mov	r1, #0
 861 0a24 FEFFFFEB 		bl	uart_transmit
 862 0a28 18049FE5 		ldr	r0, .L282+244
 863 0a2c 0010A0E3 		mov	r1, #0
 864 0a30 FEFFFFEB 		bl	uart_transmit
 865 0a34 0030D4E5 		ldrb	r3, [r4, #0]	@ zero_extendqisi2
 866 0a38 023083E2 		add	r3, r3, #2
 867 0a3c 0030C4E5 		strb	r3, [r4, #0]
 868 0a40 00049FE5 		ldr	r0, .L282+244
 869 0a44 0210A0E3 		mov	r1, #2
 870 0a48 FEFFFFEB 		bl	uart_transmit
 871 0a4c 0030D4E5 		ldrb	r3, [r4, #0]	@ zero_extendqisi2
 872 0a50 063083E2 		add	r3, r3, #6
 873 0a54 0030C4E5 		strb	r3, [r4, #0]
 874 0a58 E8039FE5 		ldr	r0, .L282+244
 875 0a5c 0610A0E1 		mov	r1, r6
 876 0a60 FEFFFFEB 		bl	uart_transmit
 877 0a64 0010D5E5 		ldrb	r1, [r5, #0]	@ zero_extendqisi2
 878 0a68 0030D4E5 		ldrb	r3, [r4, #0]	@ zero_extendqisi2
 879 0a6c 033081E0 		add	r3, r1, r3
 880 0a70 0030C4E5 		strb	r3, [r4, #0]
 881 0a74 CC039FE5 		ldr	r0, .L282+244
 882 0a78 FEFFFFEB 		bl	uart_transmit
 883 0a7c 0110D5E5 		ldrb	r1, [r5, #1]	@ zero_extendqisi2
 884 0a80 0030D4E5 		ldrb	r3, [r4, #0]	@ zero_extendqisi2
 885 0a84 033081E0 		add	r3, r1, r3
 886 0a88 0030C4E5 		strb	r3, [r4, #0]
 887 0a8c B4039FE5 		ldr	r0, .L282+244
 888 0a90 FEFFFFEB 		bl	uart_transmit
 889 0a94 0210D5E5 		ldrb	r1, [r5, #2]	@ zero_extendqisi2
 890 0a98 0030D4E5 		ldrb	r3, [r4, #0]	@ zero_extendqisi2
 891 0a9c 033081E0 		add	r3, r1, r3
 892 0aa0 0030C4E5 		strb	r3, [r4, #0]
 893 0aa4 9C039FE5 		ldr	r0, .L282+244
 894 0aa8 FEFFFFEB 		bl	uart_transmit
 895 0aac 0310D5E5 		ldrb	r1, [r5, #3]	@ zero_extendqisi2
 896 0ab0 0030D4E5 		ldrb	r3, [r4, #0]	@ zero_extendqisi2
 897 0ab4 033081E0 		add	r3, r1, r3
 898 0ab8 0030C4E5 		strb	r3, [r4, #0]
 899 0abc 84039FE5 		ldr	r0, .L282+244
 900 0ac0 FEFFFFEB 		bl	uart_transmit
 901 0ac4 0810D5E5 		ldrb	r1, [r5, #8]	@ zero_extendqisi2
 902 0ac8 0030D4E5 		ldrb	r3, [r4, #0]	@ zero_extendqisi2
 903 0acc 033081E0 		add	r3, r1, r3
 904 0ad0 0030C4E5 		strb	r3, [r4, #0]
 905 0ad4 6C039FE5 		ldr	r0, .L282+244
 906 0ad8 FEFFFFEB 		bl	uart_transmit
 907 0adc 0910D5E5 		ldrb	r1, [r5, #9]	@ zero_extendqisi2
 908 0ae0 0030D4E5 		ldrb	r3, [r4, #0]	@ zero_extendqisi2
 909 0ae4 033081E0 		add	r3, r1, r3
 910 0ae8 0030C4E5 		strb	r3, [r4, #0]
 911 0aec 54039FE5 		ldr	r0, .L282+244
 912 0af0 FEFFFFEB 		bl	uart_transmit
 913 0af4 0A10D5E5 		ldrb	r1, [r5, #10]	@ zero_extendqisi2
 914 0af8 0030D4E5 		ldrb	r3, [r4, #0]	@ zero_extendqisi2
 915 0afc 033081E0 		add	r3, r1, r3
 916 0b00 0030C4E5 		strb	r3, [r4, #0]
 917 0b04 3C039FE5 		ldr	r0, .L282+244
 918 0b08 FEFFFFEB 		bl	uart_transmit
 919 0b0c 0B10D5E5 		ldrb	r1, [r5, #11]	@ zero_extendqisi2
 920 0b10 0030D4E5 		ldrb	r3, [r4, #0]	@ zero_extendqisi2
 921 0b14 033081E0 		add	r3, r1, r3
 922 0b18 0030C4E5 		strb	r3, [r4, #0]
 923 0b1c 24039FE5 		ldr	r0, .L282+244
 924 0b20 FEFFFFEB 		bl	uart_transmit
 925 0b24 0410D5E5 		ldrb	r1, [r5, #4]	@ zero_extendqisi2
 926 0b28 0030D4E5 		ldrb	r3, [r4, #0]	@ zero_extendqisi2
 927 0b2c 033081E0 		add	r3, r1, r3
 928 0b30 0030C4E5 		strb	r3, [r4, #0]
 929 0b34 0C039FE5 		ldr	r0, .L282+244
 930 0b38 FEFFFFEB 		bl	uart_transmit
 931 0b3c 0510D5E5 		ldrb	r1, [r5, #5]	@ zero_extendqisi2
 932 0b40 0030D4E5 		ldrb	r3, [r4, #0]	@ zero_extendqisi2
 933 0b44 033081E0 		add	r3, r1, r3
 934 0b48 0030C4E5 		strb	r3, [r4, #0]
 935 0b4c F4029FE5 		ldr	r0, .L282+244
 936 0b50 FEFFFFEB 		bl	uart_transmit
 937 0b54 0610D5E5 		ldrb	r1, [r5, #6]	@ zero_extendqisi2
 938 0b58 0030D4E5 		ldrb	r3, [r4, #0]	@ zero_extendqisi2
 939 0b5c 033081E0 		add	r3, r1, r3
 940 0b60 0030C4E5 		strb	r3, [r4, #0]
 941 0b64 DC029FE5 		ldr	r0, .L282+244
 942 0b68 FEFFFFEB 		bl	uart_transmit
 943 0b6c 0710D5E5 		ldrb	r1, [r5, #7]	@ zero_extendqisi2
 944 0b70 6B0000EA 		b	.L258
 945              	.L46:
 946 0b74 0C0056E3 		cmp	r6, #12
 947 0b78 B300001A 		bne	.L49
 948 0b7c C4029FE5 		ldr	r0, .L282+244
 949 0b80 1310A0E3 		mov	r1, #19
 950 0b84 FEFFFFEB 		bl	uart_check_free_space
 951 0b88 000050E3 		cmp	r0, #0
 952 0b8c 5C01000A 		beq	.L52
 953 0b90 A4329FE5 		ldr	r3, .L282+232
 954 0b94 B020D3E1 		ldrh	r2, [r3, #0]
 955 0b98 132082E2 		add	r2, r2, #19
 956 0b9c B020C3E1 		strh	r2, [r3, #0]	@ movhi
 957 0ba0 98329FE5 		ldr	r3, .L282+236
 958 0ba4 B020D3E1 		ldrh	r2, [r3, #0]
 959 0ba8 012082E2 		add	r2, r2, #1
 960 0bac B020C3E1 		strh	r2, [r3, #0]	@ movhi
 961 0bb0 90029FE5 		ldr	r0, .L282+244
 962 0bb4 7E10A0E3 		mov	r1, #126
 963 0bb8 84429FE5 		ldr	r4, .L282+240
 964 0bbc FEFFFFEB 		bl	uart_transmit
 965 0bc0 80029FE5 		ldr	r0, .L282+244
 966 0bc4 0010A0E3 		mov	r1, #0
 967 0bc8 FEFFFFEB 		bl	uart_transmit
 968 0bcc 0150A0E3 		mov	r5, #1
 969 0bd0 70029FE5 		ldr	r0, .L282+244
 970 0bd4 0F10A0E3 		mov	r1, #15
 971 0bd8 FEFFFFEB 		bl	uart_transmit
 972 0bdc 64029FE5 		ldr	r0, .L282+244
 973 0be0 0510A0E1 		mov	r1, r5
 974 0be4 0050C4E5 		strb	r5, [r4, #0]
 975 0be8 FEFFFFEB 		bl	uart_transmit
 976 0bec 54029FE5 		ldr	r0, .L282+244
 977 0bf0 0010A0E3 		mov	r1, #0
 978 0bf4 FEFFFFEB 		bl	uart_transmit
 979 0bf8 0030D4E5 		ldrb	r3, [r4, #0]	@ zero_extendqisi2
 980 0bfc 053083E0 		add	r3, r3, r5
 981 0c00 0030C4E5 		strb	r3, [r4, #0]
 982 0c04 3C029FE5 		ldr	r0, .L282+244
 983 0c08 0510A0E1 		mov	r1, r5
 984 0c0c FEFFFFEB 		bl	uart_transmit
 985 0c10 30029FE5 		ldr	r0, .L282+244
 986 0c14 0010A0E3 		mov	r1, #0
 987 0c18 FEFFFFEB 		bl	uart_transmit
 988 0c1c 24029FE5 		ldr	r0, .L282+244
 989 0c20 0010A0E3 		mov	r1, #0
 990 0c24 FEFFFFEB 		bl	uart_transmit
 991 0c28 0030D4E5 		ldrb	r3, [r4, #0]	@ zero_extendqisi2
 992 0c2c 023083E2 		add	r3, r3, #2
 993 0c30 0030C4E5 		strb	r3, [r4, #0]
 994 0c34 0C029FE5 		ldr	r0, .L282+244
 995 0c38 0210A0E3 		mov	r1, #2
 996 0c3c FEFFFFEB 		bl	uart_transmit
 997 0c40 0030D4E5 		ldrb	r3, [r4, #0]	@ zero_extendqisi2
 998 0c44 2A3083E2 		add	r3, r3, #42
 999 0c48 0030C4E5 		strb	r3, [r4, #0]
 1000 0c4c 2A10A0E3 		mov	r1, #42
 1001 0c50 F0019FE5 		ldr	r0, .L282+244
 1002 0c54 FEFFFFEB 		bl	uart_transmit
 1003 0c58 FEFFFFEB 		bl	stateGetPositionUtm_f
 1004 0c5c 0030D4E5 		ldrb	r3, [r4, #0]	@ zero_extendqisi2
 1005 0c60 0810D0E5 		ldrb	r1, [r0, #8]	@ zero_extendqisi2
 1006 0c64 033081E0 		add	r3, r1, r3
 1007 0c68 0030C4E5 		strb	r3, [r4, #0]
 1008 0c6c D4019FE5 		ldr	r0, .L282+244
 1009 0c70 FEFFFFEB 		bl	uart_transmit
 1010 0c74 FEFFFFEB 		bl	stateGetPositionUtm_f
 1011 0c78 0030D4E5 		ldrb	r3, [r4, #0]	@ zero_extendqisi2
 1012 0c7c 0910D0E5 		ldrb	r1, [r0, #9]	@ zero_extendqisi2
 1013 0c80 033081E0 		add	r3, r1, r3
 1014 0c84 0030C4E5 		strb	r3, [r4, #0]
 1015 0c88 B8019FE5 		ldr	r0, .L282+244
 1016 0c8c FEFFFFEB 		bl	uart_transmit
 1017 0c90 FEFFFFEB 		bl	stateGetPositionUtm_f
 1018 0c94 0030D4E5 		ldrb	r3, [r4, #0]	@ zero_extendqisi2
 1019 0c98 0A10D0E5 		ldrb	r1, [r0, #10]	@ zero_extendqisi2
 1020 0c9c 033081E0 		add	r3, r1, r3
 1021 0ca0 0030C4E5 		strb	r3, [r4, #0]
 1022 0ca4 9C019FE5 		ldr	r0, .L282+244
 1023 0ca8 FEFFFFEB 		bl	uart_transmit
 1024 0cac FEFFFFEB 		bl	stateGetPositionUtm_f
 1025 0cb0 0030D4E5 		ldrb	r3, [r4, #0]	@ zero_extendqisi2
 1026 0cb4 0B10D0E5 		ldrb	r1, [r0, #11]	@ zero_extendqisi2
 1027 0cb8 033081E0 		add	r3, r1, r3
 1028 0cbc 0030C4E5 		strb	r3, [r4, #0]
 1029 0cc0 80019FE5 		ldr	r0, .L282+244
 1030 0cc4 FEFFFFEB 		bl	uart_transmit
 1031 0cc8 FEFFFFEB 		bl	stateGetSpeedEnu_f
 1032 0ccc 0030D4E5 		ldrb	r3, [r4, #0]	@ zero_extendqisi2
 1033 0cd0 0810D0E5 		ldrb	r1, [r0, #8]	@ zero_extendqisi2
 1034 0cd4 033081E0 		add	r3, r1, r3
 1035 0cd8 0030C4E5 		strb	r3, [r4, #0]
 1036 0cdc 64019FE5 		ldr	r0, .L282+244
 1037 0ce0 FEFFFFEB 		bl	uart_transmit
 1038 0ce4 FEFFFFEB 		bl	stateGetSpeedEnu_f
 1039 0ce8 0030D4E5 		ldrb	r3, [r4, #0]	@ zero_extendqisi2
 1040 0cec 0910D0E5 		ldrb	r1, [r0, #9]	@ zero_extendqisi2
 1041 0cf0 033081E0 		add	r3, r1, r3
 1042 0cf4 0030C4E5 		strb	r3, [r4, #0]
 1043 0cf8 48019FE5 		ldr	r0, .L282+244
 1044 0cfc FEFFFFEB 		bl	uart_transmit
 1045 0d00 FEFFFFEB 		bl	stateGetSpeedEnu_f
 1046 0d04 0030D4E5 		ldrb	r3, [r4, #0]	@ zero_extendqisi2
 1047 0d08 0A10D0E5 		ldrb	r1, [r0, #10]	@ zero_extendqisi2
 1048 0d0c 033081E0 		add	r3, r1, r3
 1049 0d10 0030C4E5 		strb	r3, [r4, #0]
 1050 0d14 2C019FE5 		ldr	r0, .L282+244
 1051 0d18 FEFFFFEB 		bl	uart_transmit
 1052 0d1c FEFFFFEB 		bl	stateGetSpeedEnu_f
 1053 0d20 0B10D0E5 		ldrb	r1, [r0, #11]	@ zero_extendqisi2
 1054              	.L258:
 1055 0d24 0030D4E5 		ldrb	r3, [r4, #0]	@ zero_extendqisi2
 1056 0d28 033081E0 		add	r3, r1, r3
 1057 0d2c 0030C4E5 		strb	r3, [r4, #0]
 1058 0d30 10019FE5 		ldr	r0, .L282+244
 1059 0d34 FEFFFFEB 		bl	uart_transmit
 1060 0d38 0010D4E5 		ldrb	r1, [r4, #0]	@ zero_extendqisi2
 1061 0d3c 0110E0E1 		mvn	r1, r1
 1062 0d40 FF1001E2 		and	r1, r1, #255
 1063 0d44 0010C4E5 		strb	r1, [r4, #0]
 1064 0d48 F8009FE5 		ldr	r0, .L282+244
 1065 0d4c FEFFFFEB 		bl	uart_transmit
 1066 0d50 EF0000EA 		b	.L48
 1067              	.L283:
 1068              		.align	2
 1069              	.L282:
 1070 0d54 00000000 		.word	.LANCHOR0
 1071 0d58 00000000 		.word	.LANCHOR1
 1072 0d5c 00000000 		.word	telemetry_mode_Ap
 1073 0d60 00000000 		.word	.LANCHOR2
 1074 0d64 00000000 		.word	.LANCHOR3
 1075 0d68 00000000 		.word	.LANCHOR7
 1076 0d6c 00000000 		.word	.LANCHOR8
 1077 0d70 00000000 		.word	.LANCHOR9
 1078 0d74 00000000 		.word	.LANCHOR10
 1079 0d78 00000000 		.word	.LANCHOR11
 1080 0d7c 00000000 		.word	.LANCHOR12
 1081 0d80 00000000 		.word	.LANCHOR13
 1082 0d84 31010000 		.word	305
 1083 0d88 00000000 		.word	.LANCHOR14
 1084 0d8c 00000000 		.word	gps
 1085 0d90 F8C1631A 		.word	442745336
 1086 0d94 DCA54C40 		.word	1078765020
 1087 0d98 80842E41 		.word	1093567616
 1088 0d9c 00000000 		.word	.LANCHOR15
 1089 0da0 00000000 		.word	nb_waypoint
 1090 0da4 00000000 		.word	nav_utm_east0
 1091 0da8 00000000 		.word	waypoints
 1092 0dac 00000000 		.word	nav_utm_north0
 1093 0db0 00000000 		.word	.LANCHOR16
 1094 0db4 00000000 		.word	nav_utm_zone0
 1095 0db8 00000000 		.word	.LANCHOR4
 1096 0dbc 00000000 		.word	nav_circle_radians
 1097 0dc0 182D4454 		.word	1413754136
 1098 0dc4 FB211940 		.word	1075388923
 1099 0dc8 00000000 		.word	nav_block
 1100 0dcc 00000000 		.word	nav_stage
 1101 0dd0 00000000 		.word	dist2_to_wp
 1102 0dd4 00000000 		.word	dist2_to_home
 1103 0dd8 00000000 		.word	nav_oval_count
 1104 0ddc 00000000 		.word	.LANCHOR5
 1105 0de0 00000000 		.word	nav_in_circle
 1106 0de4 00000000 		.word	nav_circle_x
 1107 0de8 00000000 		.word	nav_circle_y
 1108 0dec 00000000 		.word	nav_circle_radius
 1109 0df0 00005041 		.word	1095761920
 1110 0df4 00000000 		.word	h_ctl_roll_setpoint
 1111 0df8 00000000 		.word	h_ctl_pitch_loop_setpoint
 1112 0dfc 00000000 		.word	h_ctl_course_setpoint
 1113 0e00 00000000 		.word	desired_x
 1114 0e04 00000000 		.word	desired_y
 1115 0e08 00000000 		.word	v_ctl_altitude_setpoint
 1116 0e0c 00000000 		.word	v_ctl_climb_setpoint
 1117 0e10 00000000 		.word	downlink_nb_ovrn
 1118 0e14 00000000 		.word	.LANCHOR6
 1119 0e18 00000000 		.word	.LANCHOR17
 1120 0e1c 00000000 		.word	energy
 1121 0e20 00000000 		.word	v_ctl_throttle_slewed
 1122 0e24 00000000 		.word	vsupply
 1123 0e28 00000000 		.word	.LANCHOR18
 1124 0e2c 00000000 		.word	.LANCHOR19
 1125 0e30 00000000 		.word	block_time
 1126 0e34 00000000 		.word	stage_time
 1127 0e38 00000000 		.word	imu
 1128 0e3c 00000000 		.word	downlink_nb_bytes
 1129 0e40 00000000 		.word	downlink_nb_msgs
 1130 0e44 00000000 		.word	xbee_cs
 1131 0e48 00000000 		.word	uart0
 1132              	.L49:
 1133 0e4c 120056E3 		cmp	r6, #18
 1134 0e50 AF00001A 		bne	.L48
 1135 0e54 AC301FE5 		ldr	r3, .L282+92
 1136 0e58 C0101FE5 		ldr	r1, .L282+76
 1137 0e5c 0020D3E5 		ldrb	r2, [r3, #0]	@ zero_extendqisi2
 1138 0e60 0010D1E5 		ldrb	r1, [r1, #0]	@ zero_extendqisi2
 1139 0e64 012082E2 		add	r2, r2, #1
 1140 0e68 FF2002E2 		and	r2, r2, #255
 1141 0e6c 020051E1 		cmp	r1, r2
 1142 0e70 0020C3E5 		strb	r2, [r3, #0]
 1143 0e74 0020A093 		movls	r2, #0
 1144 0e78 0020C395 		strlsb	r2, [r3, #0]
 1145 0e7c 0040D3E5 		ldrb	r4, [r3, #0]	@ zero_extendqisi2
 1146 0e80 E4301FE5 		ldr	r3, .L282+80
 1147 0e84 0C60A0E3 		mov	r6, #12
 1148 0e88 000093E5 		ldr	r0, [r3, #0]
 1149 0e8c FEFFFFEB 		bl	__aeabi_i2f
 1150 0e90 960403E0 		mul	r3, r6, r4
 1151 0e94 F4501FE5 		ldr	r5, .L282+84
 1152 0e98 031095E7 		ldr	r1, [r5, r3]	@ float
 1153 0e9c 034085E0 		add	r4, r5, r3
 1154 0ea0 FEFFFFEB 		bl	__aeabi_fadd
 1155 0ea4 00311FE5 		ldr	r3, .L282+88
 1156 0ea8 10008DE5 		str	r0, [sp, #16]	@ float
 1157 0eac 000093E5 		ldr	r0, [r3, #0]
 1158 0eb0 FEFFFFEB 		bl	__aeabi_i2f
 1159 0eb4 041094E5 		ldr	r1, [r4, #4]	@ float
 1160 0eb8 FEFFFFEB 		bl	__aeabi_fadd
 1161 0ebc 1910A0E3 		mov	r1, #25
 1162 0ec0 14008DE5 		str	r0, [sp, #20]	@ float
 1163 0ec4 84001FE5 		ldr	r0, .L282+244
 1164 0ec8 FEFFFFEB 		bl	uart_check_free_space
 1165 0ecc 000050E3 		cmp	r0, #0
 1166 0ed0 28711FE5 		ldr	r7, .L282+92
 1167 0ed4 8A00000A 		beq	.L52
 1168 0ed8 A4301FE5 		ldr	r3, .L282+232
 1169 0edc B020D3E1 		ldrh	r2, [r3, #0]
 1170 0ee0 192082E2 		add	r2, r2, #25
 1171 0ee4 B020C3E1 		strh	r2, [r3, #0]	@ movhi
 1172 0ee8 B0301FE5 		ldr	r3, .L282+236
 1173 0eec B020D3E1 		ldrh	r2, [r3, #0]
 1174 0ef0 012082E2 		add	r2, r2, #1
 1175 0ef4 B020C3E1 		strh	r2, [r3, #0]	@ movhi
 1176 0ef8 B8001FE5 		ldr	r0, .L282+244
 1177 0efc 7E10A0E3 		mov	r1, #126
 1178 0f00 C4401FE5 		ldr	r4, .L282+240
 1179 0f04 FEFFFFEB 		bl	uart_transmit
 1180 0f08 C8001FE5 		ldr	r0, .L282+244
 1181 0f0c 0010A0E3 		mov	r1, #0
 1182 0f10 FEFFFFEB 		bl	uart_transmit
 1183 0f14 0180A0E3 		mov	r8, #1
 1184 0f18 D8001FE5 		ldr	r0, .L282+244
 1185 0f1c 1510A0E3 		mov	r1, #21
 1186 0f20 FEFFFFEB 		bl	uart_transmit
 1187 0f24 E4001FE5 		ldr	r0, .L282+244
 1188 0f28 0810A0E1 		mov	r1, r8
 1189 0f2c 0080C4E5 		strb	r8, [r4, #0]
 1190 0f30 FEFFFFEB 		bl	uart_transmit
 1191 0f34 F4001FE5 		ldr	r0, .L282+244
 1192 0f38 0010A0E3 		mov	r1, #0
 1193 0f3c FEFFFFEB 		bl	uart_transmit
 1194 0f40 0030D4E5 		ldrb	r3, [r4, #0]	@ zero_extendqisi2
 1195 0f44 083083E0 		add	r3, r3, r8
 1196 0f48 0030C4E5 		strb	r3, [r4, #0]
 1197 0f4c 0C011FE5 		ldr	r0, .L282+244
 1198 0f50 0810A0E1 		mov	r1, r8
 1199 0f54 FEFFFFEB 		bl	uart_transmit
 1200 0f58 18011FE5 		ldr	r0, .L282+244
 1201 0f5c 0010A0E3 		mov	r1, #0
 1202 0f60 FEFFFFEB 		bl	uart_transmit
 1203 0f64 24011FE5 		ldr	r0, .L282+244
 1204 0f68 0010A0E3 		mov	r1, #0
 1205 0f6c FEFFFFEB 		bl	uart_transmit
 1206 0f70 0030D4E5 		ldrb	r3, [r4, #0]	@ zero_extendqisi2
 1207 0f74 023083E2 		add	r3, r3, #2
 1208 0f78 0030C4E5 		strb	r3, [r4, #0]
 1209 0f7c 3C011FE5 		ldr	r0, .L282+244
 1210 0f80 0210A0E3 		mov	r1, #2
 1211 0f84 FEFFFFEB 		bl	uart_transmit
 1212 0f88 0030D4E5 		ldrb	r3, [r4, #0]	@ zero_extendqisi2
 1213 0f8c 233083E2 		add	r3, r3, #35
 1214 0f90 0030C4E5 		strb	r3, [r4, #0]
 1215 0f94 54011FE5 		ldr	r0, .L282+244
 1216 0f98 2310A0E3 		mov	r1, #35
 1217 0f9c FEFFFFEB 		bl	uart_transmit
 1218 0fa0 0010D7E5 		ldrb	r1, [r7, #0]	@ zero_extendqisi2
 1219 0fa4 0030D4E5 		ldrb	r3, [r4, #0]	@ zero_extendqisi2
 1220 0fa8 033081E0 		add	r3, r1, r3
 1221 0fac 0030C4E5 		strb	r3, [r4, #0]
 1222 0fb0 70011FE5 		ldr	r0, .L282+244
 1223 0fb4 FEFFFFEB 		bl	uart_transmit
 1224 0fb8 1010DDE5 		ldrb	r1, [sp, #16]	@ zero_extendqisi2
 1225 0fbc 0030D4E5 		ldrb	r3, [r4, #0]	@ zero_extendqisi2
 1226 0fc0 033081E0 		add	r3, r1, r3
 1227 0fc4 0030C4E5 		strb	r3, [r4, #0]
 1228 0fc8 88011FE5 		ldr	r0, .L282+244
 1229 0fcc FEFFFFEB 		bl	uart_transmit
 1230 0fd0 1110DDE5 		ldrb	r1, [sp, #17]	@ zero_extendqisi2
 1231 0fd4 0030D4E5 		ldrb	r3, [r4, #0]	@ zero_extendqisi2
 1232 0fd8 033081E0 		add	r3, r1, r3
 1233 0fdc 0030C4E5 		strb	r3, [r4, #0]
 1234 0fe0 A0011FE5 		ldr	r0, .L282+244
 1235 0fe4 FEFFFFEB 		bl	uart_transmit
 1236 0fe8 1210DDE5 		ldrb	r1, [sp, #18]	@ zero_extendqisi2
 1237 0fec 0030D4E5 		ldrb	r3, [r4, #0]	@ zero_extendqisi2
 1238 0ff0 033081E0 		add	r3, r1, r3
 1239 0ff4 0030C4E5 		strb	r3, [r4, #0]
 1240 0ff8 B8011FE5 		ldr	r0, .L282+244
 1241 0ffc FEFFFFEB 		bl	uart_transmit
 1242 1000 1310DDE5 		ldrb	r1, [sp, #19]	@ zero_extendqisi2
 1243 1004 0030D4E5 		ldrb	r3, [r4, #0]	@ zero_extendqisi2
 1244 1008 033081E0 		add	r3, r1, r3
 1245 100c 0030C4E5 		strb	r3, [r4, #0]
 1246 1010 D0011FE5 		ldr	r0, .L282+244
 1247 1014 FEFFFFEB 		bl	uart_transmit
 1248 1018 1410DDE5 		ldrb	r1, [sp, #20]	@ zero_extendqisi2
 1249 101c 0030D4E5 		ldrb	r3, [r4, #0]	@ zero_extendqisi2
 1250 1020 033081E0 		add	r3, r1, r3
 1251 1024 0030C4E5 		strb	r3, [r4, #0]
 1252 1028 E8011FE5 		ldr	r0, .L282+244
 1253 102c FEFFFFEB 		bl	uart_transmit
 1254 1030 1510DDE5 		ldrb	r1, [sp, #21]	@ zero_extendqisi2
 1255 1034 0030D4E5 		ldrb	r3, [r4, #0]	@ zero_extendqisi2
 1256 1038 033081E0 		add	r3, r1, r3
 1257 103c 0030C4E5 		strb	r3, [r4, #0]
 1258 1040 00021FE5 		ldr	r0, .L282+244
 1259 1044 FEFFFFEB 		bl	uart_transmit
 1260 1048 1610DDE5 		ldrb	r1, [sp, #22]	@ zero_extendqisi2
 1261 104c 0030D4E5 		ldrb	r3, [r4, #0]	@ zero_extendqisi2
 1262 1050 033081E0 		add	r3, r1, r3
 1263 1054 0030C4E5 		strb	r3, [r4, #0]
 1264 1058 18021FE5 		ldr	r0, .L282+244
 1265 105c FEFFFFEB 		bl	uart_transmit
 1266 1060 1710DDE5 		ldrb	r1, [sp, #23]	@ zero_extendqisi2
 1267 1064 0030D4E5 		ldrb	r3, [r4, #0]	@ zero_extendqisi2
 1268 1068 033081E0 		add	r3, r1, r3
 1269 106c 0030C4E5 		strb	r3, [r4, #0]
 1270 1070 30021FE5 		ldr	r0, .L282+244
 1271 1074 FEFFFFEB 		bl	uart_transmit
 1272 1078 0030D7E5 		ldrb	r3, [r7, #0]	@ zero_extendqisi2
 1273 107c 965323E0 		mla	r3, r6, r3, r5
 1274 1080 0810D3E5 		ldrb	r1, [r3, #8]	@ zero_extendqisi2
 1275 1084 0030D4E5 		ldrb	r3, [r4, #0]	@ zero_extendqisi2
 1276 1088 033081E0 		add	r3, r1, r3
 1277 108c 0030C4E5 		strb	r3, [r4, #0]
 1278 1090 50021FE5 		ldr	r0, .L282+244
 1279 1094 FEFFFFEB 		bl	uart_transmit
 1280 1098 0030D7E5 		ldrb	r3, [r7, #0]	@ zero_extendqisi2
 1281 109c 965323E0 		mla	r3, r6, r3, r5
 1282 10a0 0910D3E5 		ldrb	r1, [r3, #9]	@ zero_extendqisi2
 1283 10a4 0030D4E5 		ldrb	r3, [r4, #0]	@ zero_extendqisi2
 1284 10a8 033081E0 		add	r3, r1, r3
 1285 10ac 0030C4E5 		strb	r3, [r4, #0]
 1286 10b0 70021FE5 		ldr	r0, .L282+244
 1287 10b4 FEFFFFEB 		bl	uart_transmit
 1288 10b8 0030D7E5 		ldrb	r3, [r7, #0]	@ zero_extendqisi2
 1289 10bc 965323E0 		mla	r3, r6, r3, r5
 1290 10c0 0A10D3E5 		ldrb	r1, [r3, #10]	@ zero_extendqisi2
 1291 10c4 0030D4E5 		ldrb	r3, [r4, #0]	@ zero_extendqisi2
 1292 10c8 033081E0 		add	r3, r1, r3
 1293 10cc 0030C4E5 		strb	r3, [r4, #0]
 1294 10d0 90021FE5 		ldr	r0, .L282+244
 1295 10d4 FEFFFFEB 		bl	uart_transmit
 1296 10d8 0030D7E5 		ldrb	r3, [r7, #0]	@ zero_extendqisi2
 1297 10dc 965325E0 		mla	r5, r6, r3, r5
 1298 10e0 0030D4E5 		ldrb	r3, [r4, #0]	@ zero_extendqisi2
 1299 10e4 0B10D5E5 		ldrb	r1, [r5, #11]	@ zero_extendqisi2
 1300 10e8 033081E0 		add	r3, r1, r3
 1301 10ec 0030C4E5 		strb	r3, [r4, #0]
 1302 10f0 B0021FE5 		ldr	r0, .L282+244
 1303 10f4 FEFFFFEB 		bl	uart_transmit
 1304 10f8 4C331FE5 		ldr	r3, .L282+96
 1305 10fc 0010D3E5 		ldrb	r1, [r3, #0]	@ zero_extendqisi2
 1306 1100 07FFFFEA 		b	.L258
 1307              	.L52:
 1308 1104 FC321FE5 		ldr	r3, .L282+188
 1309 1108 0020D3E5 		ldrb	r2, [r3, #0]	@ zero_extendqisi2
 1310 110c 012082E2 		add	r2, r2, #1
 1311 1110 0020C3E5 		strb	r2, [r3, #0]
 1312              	.L48:
 1313 1114 64331FE5 		ldr	r3, .L282+100
 1314 1118 0030D3E5 		ldrb	r3, [r3, #0]	@ zero_extendqisi2
 1315 111c 180053E3 		cmp	r3, #24
 1316 1120 CB00000A 		beq	.L53
 1317 1124 1E0053E3 		cmp	r3, #30
 1318 1128 C900001A 		bne	.L53
 1319 112c 78331FE5 		ldr	r3, .L282+104
 1320 1130 005093E5 		ldr	r5, [r3, #0]	@ float
 1321 1134 FEFFFFEB 		bl	stateGetPositionEnu_f
 1322 1138 1F10A0E3 		mov	r1, #31
 1323 113c 0040A0E1 		mov	r4, r0
 1324 1140 00031FE5 		ldr	r0, .L282+244
 1325 1144 FEFFFFEB 		bl	uart_check_free_space
 1326 1148 000050E3 		cmp	r0, #0
 1327 114c BC00000A 		beq	.L54
 1328 1150 0201C5E3 		bic	r0, r5, #-2147483648
 1329 1154 FEFFFFEB 		bl	__aeabi_f2d
 1330 1158 A0231FE5 		ldr	r2, .L282+108
 1331 115c A0331FE5 		ldr	r3, .L282+112
 1332 1160 FEFFFFEB 		bl	__aeabi_ddiv
 1333 1164 FEFFFFEB 		bl	__aeabi_d2uiz
 1334 1168 34331FE5 		ldr	r3, .L282+232
 1335 116c B020D3E1 		ldrh	r2, [r3, #0]
 1336 1170 1F2082E2 		add	r2, r2, #31
 1337 1174 B020C3E1 		strh	r2, [r3, #0]	@ movhi
 1338 1178 40331FE5 		ldr	r3, .L282+236
 1339 117c B020D3E1 		ldrh	r2, [r3, #0]
 1340 1180 012082E2 		add	r2, r2, #1
 1341 1184 B020C3E1 		strh	r2, [r3, #0]	@ movhi
 1342 1188 FF7000E2 		and	r7, r0, #255
 1343 118c 7E10A0E3 		mov	r1, #126
 1344 1190 50031FE5 		ldr	r0, .L282+244
 1345 1194 58531FE5 		ldr	r5, .L282+240
 1346 1198 FEFFFFEB 		bl	uart_transmit
 1347 119c 5C031FE5 		ldr	r0, .L282+244
 1348 11a0 0010A0E3 		mov	r1, #0
 1349 11a4 FEFFFFEB 		bl	uart_transmit
 1350 11a8 0160A0E3 		mov	r6, #1
 1351 11ac 6C031FE5 		ldr	r0, .L282+244
 1352 11b0 1B10A0E3 		mov	r1, #27
 1353 11b4 FEFFFFEB 		bl	uart_transmit
 1354 11b8 0610A0E1 		mov	r1, r6
 1355 11bc 0060C5E5 		strb	r6, [r5, #0]
 1356 11c0 80031FE5 		ldr	r0, .L282+244
 1357 11c4 FEFFFFEB 		bl	uart_transmit
 1358 11c8 88031FE5 		ldr	r0, .L282+244
 1359 11cc 0010A0E3 		mov	r1, #0
 1360 11d0 FEFFFFEB 		bl	uart_transmit
 1361 11d4 0030D5E5 		ldrb	r3, [r5, #0]	@ zero_extendqisi2
 1362 11d8 063083E0 		add	r3, r3, r6
 1363 11dc 0030C5E5 		strb	r3, [r5, #0]
 1364 11e0 0610A0E1 		mov	r1, r6
 1365 11e4 A4031FE5 		ldr	r0, .L282+244
 1366 11e8 FEFFFFEB 		bl	uart_transmit
 1367 11ec AC031FE5 		ldr	r0, .L282+244
 1368 11f0 0010A0E3 		mov	r1, #0
 1369 11f4 FEFFFFEB 		bl	uart_transmit
 1370 11f8 B8031FE5 		ldr	r0, .L282+244
 1371 11fc 0010A0E3 		mov	r1, #0
 1372 1200 FEFFFFEB 		bl	uart_transmit
 1373 1204 0030D5E5 		ldrb	r3, [r5, #0]	@ zero_extendqisi2
 1374 1208 023083E2 		add	r3, r3, #2
 1375 120c 0030C5E5 		strb	r3, [r5, #0]
 1376 1210 D0031FE5 		ldr	r0, .L282+244
 1377 1214 0210A0E3 		mov	r1, #2
 1378 1218 FEFFFFEB 		bl	uart_transmit
 1379 121c 0030D5E5 		ldrb	r3, [r5, #0]	@ zero_extendqisi2
 1380 1220 0A3083E2 		add	r3, r3, #10
 1381 1224 0030C5E5 		strb	r3, [r5, #0]
 1382 1228 E8031FE5 		ldr	r0, .L282+244
 1383 122c 0A10A0E3 		mov	r1, #10
 1384 1230 FEFFFFEB 		bl	uart_transmit
 1385 1234 74341FE5 		ldr	r3, .L282+116
 1386 1238 0010D3E5 		ldrb	r1, [r3, #0]	@ zero_extendqisi2
 1387 123c 0030D5E5 		ldrb	r3, [r5, #0]	@ zero_extendqisi2
 1388 1240 033081E0 		add	r3, r1, r3
 1389 1244 0030C5E5 		strb	r3, [r5, #0]
 1390 1248 08041FE5 		ldr	r0, .L282+244
 1391 124c FEFFFFEB 		bl	uart_transmit
 1392 1250 8C341FE5 		ldr	r3, .L282+120
 1393 1254 0010D3E5 		ldrb	r1, [r3, #0]	@ zero_extendqisi2
 1394 1258 0030D5E5 		ldrb	r3, [r5, #0]	@ zero_extendqisi2
 1395 125c 033081E0 		add	r3, r1, r3
 1396 1260 0030C5E5 		strb	r3, [r5, #0]
 1397 1264 24041FE5 		ldr	r0, .L282+244
 1398 1268 FEFFFFEB 		bl	uart_transmit
 1399 126c 0010D4E5 		ldrb	r1, [r4, #0]	@ zero_extendqisi2
 1400 1270 0030D5E5 		ldrb	r3, [r5, #0]	@ zero_extendqisi2
 1401 1274 033081E0 		add	r3, r1, r3
 1402 1278 0030C5E5 		strb	r3, [r5, #0]
 1403 127c 3C041FE5 		ldr	r0, .L282+244
 1404 1280 FEFFFFEB 		bl	uart_transmit
 1405 1284 0110D4E5 		ldrb	r1, [r4, #1]	@ zero_extendqisi2
 1406 1288 0030D5E5 		ldrb	r3, [r5, #0]	@ zero_extendqisi2
 1407 128c 033081E0 		add	r3, r1, r3
 1408 1290 0030C5E5 		strb	r3, [r5, #0]
 1409 1294 54041FE5 		ldr	r0, .L282+244
 1410 1298 FEFFFFEB 		bl	uart_transmit
 1411 129c 0210D4E5 		ldrb	r1, [r4, #2]	@ zero_extendqisi2
 1412 12a0 0030D5E5 		ldrb	r3, [r5, #0]	@ zero_extendqisi2
 1413 12a4 033081E0 		add	r3, r1, r3
 1414 12a8 0030C5E5 		strb	r3, [r5, #0]
 1415 12ac 6C041FE5 		ldr	r0, .L282+244
 1416 12b0 FEFFFFEB 		bl	uart_transmit
 1417 12b4 0310D4E5 		ldrb	r1, [r4, #3]	@ zero_extendqisi2
 1418 12b8 0030D5E5 		ldrb	r3, [r5, #0]	@ zero_extendqisi2
 1419 12bc 033081E0 		add	r3, r1, r3
 1420 12c0 0030C5E5 		strb	r3, [r5, #0]
 1421 12c4 84041FE5 		ldr	r0, .L282+244
 1422 12c8 FEFFFFEB 		bl	uart_transmit
 1423 12cc 0410D4E5 		ldrb	r1, [r4, #4]	@ zero_extendqisi2
 1424 12d0 0030D5E5 		ldrb	r3, [r5, #0]	@ zero_extendqisi2
 1425 12d4 033081E0 		add	r3, r1, r3
 1426 12d8 0030C5E5 		strb	r3, [r5, #0]
 1427 12dc 9C041FE5 		ldr	r0, .L282+244
 1428 12e0 FEFFFFEB 		bl	uart_transmit
 1429 12e4 0510D4E5 		ldrb	r1, [r4, #5]	@ zero_extendqisi2
 1430 12e8 0030D5E5 		ldrb	r3, [r5, #0]	@ zero_extendqisi2
 1431 12ec 033081E0 		add	r3, r1, r3
 1432 12f0 0030C5E5 		strb	r3, [r5, #0]
 1433 12f4 B4041FE5 		ldr	r0, .L282+244
 1434 12f8 FEFFFFEB 		bl	uart_transmit
 1435 12fc 0610D4E5 		ldrb	r1, [r4, #6]	@ zero_extendqisi2
 1436 1300 0030D5E5 		ldrb	r3, [r5, #0]	@ zero_extendqisi2
 1437 1304 033081E0 		add	r3, r1, r3
 1438 1308 0030C5E5 		strb	r3, [r5, #0]
 1439 130c CC041FE5 		ldr	r0, .L282+244
 1440 1310 FEFFFFEB 		bl	uart_transmit
 1441 1314 0710D4E5 		ldrb	r1, [r4, #7]	@ zero_extendqisi2
 1442 1318 0030D5E5 		ldrb	r3, [r5, #0]	@ zero_extendqisi2
 1443 131c 54451FE5 		ldr	r4, .L282+124
 1444 1320 033081E0 		add	r3, r1, r3
 1445 1324 0030C5E5 		strb	r3, [r5, #0]
 1446 1328 E8041FE5 		ldr	r0, .L282+244
 1447 132c FEFFFFEB 		bl	uart_transmit
 1448 1330 0010D4E5 		ldrb	r1, [r4, #0]	@ zero_extendqisi2
 1449 1334 0030D5E5 		ldrb	r3, [r5, #0]	@ zero_extendqisi2
 1450 1338 033081E0 		add	r3, r1, r3
 1451 133c 0030C5E5 		strb	r3, [r5, #0]
 1452 1340 00051FE5 		ldr	r0, .L282+244
 1453 1344 FEFFFFEB 		bl	uart_transmit
 1454 1348 0110D4E5 		ldrb	r1, [r4, #1]	@ zero_extendqisi2
 1455 134c 0030D5E5 		ldrb	r3, [r5, #0]	@ zero_extendqisi2
 1456 1350 033081E0 		add	r3, r1, r3
 1457 1354 0030C5E5 		strb	r3, [r5, #0]
 1458 1358 18051FE5 		ldr	r0, .L282+244
 1459 135c FEFFFFEB 		bl	uart_transmit
 1460 1360 0210D4E5 		ldrb	r1, [r4, #2]	@ zero_extendqisi2
 1461 1364 0030D5E5 		ldrb	r3, [r5, #0]	@ zero_extendqisi2
 1462 1368 033081E0 		add	r3, r1, r3
 1463 136c 0030C5E5 		strb	r3, [r5, #0]
 1464 1370 30051FE5 		ldr	r0, .L282+244
 1465 1374 FEFFFFEB 		bl	uart_transmit
 1466 1378 0310D4E5 		ldrb	r1, [r4, #3]	@ zero_extendqisi2
 1467 137c 0030D5E5 		ldrb	r3, [r5, #0]	@ zero_extendqisi2
 1468 1380 B4451FE5 		ldr	r4, .L282+128
 1469 1384 033081E0 		add	r3, r1, r3
 1470 1388 0030C5E5 		strb	r3, [r5, #0]
 1471 138c 4C051FE5 		ldr	r0, .L282+244
 1472 1390 FEFFFFEB 		bl	uart_transmit
 1473 1394 0010D4E5 		ldrb	r1, [r4, #0]	@ zero_extendqisi2
 1474 1398 0030D5E5 		ldrb	r3, [r5, #0]	@ zero_extendqisi2
 1475 139c 033081E0 		add	r3, r1, r3
 1476 13a0 0030C5E5 		strb	r3, [r5, #0]
 1477 13a4 64051FE5 		ldr	r0, .L282+244
 1478 13a8 FEFFFFEB 		bl	uart_transmit
 1479 13ac 0110D4E5 		ldrb	r1, [r4, #1]	@ zero_extendqisi2
 1480 13b0 0030D5E5 		ldrb	r3, [r5, #0]	@ zero_extendqisi2
 1481 13b4 033081E0 		add	r3, r1, r3
 1482 13b8 0030C5E5 		strb	r3, [r5, #0]
 1483 13bc 7C051FE5 		ldr	r0, .L282+244
 1484 13c0 FEFFFFEB 		bl	uart_transmit
 1485 13c4 0210D4E5 		ldrb	r1, [r4, #2]	@ zero_extendqisi2
 1486 13c8 0030D5E5 		ldrb	r3, [r5, #0]	@ zero_extendqisi2
 1487 13cc 033081E0 		add	r3, r1, r3
 1488 13d0 0030C5E5 		strb	r3, [r5, #0]
 1489 13d4 94051FE5 		ldr	r0, .L282+244
 1490 13d8 FEFFFFEB 		bl	uart_transmit
 1491 13dc 0310D4E5 		ldrb	r1, [r4, #3]	@ zero_extendqisi2
 1492 13e0 0030D5E5 		ldrb	r3, [r5, #0]	@ zero_extendqisi2
 1493 13e4 033081E0 		add	r3, r1, r3
 1494 13e8 0030C5E5 		strb	r3, [r5, #0]
 1495 13ec AC051FE5 		ldr	r0, .L282+244
 1496 13f0 FEFFFFEB 		bl	uart_transmit
 1497 13f4 0030D5E5 		ldrb	r3, [r5, #0]	@ zero_extendqisi2
 1498 13f8 033087E0 		add	r3, r7, r3
 1499 13fc 0030C5E5 		strb	r3, [r5, #0]
 1500 1400 0710A0E1 		mov	r1, r7
 1501 1404 C4051FE5 		ldr	r0, .L282+244
 1502 1408 FEFFFFEB 		bl	uart_transmit
 1503 140c 3C361FE5 		ldr	r3, .L282+132
 1504 1410 0010D3E5 		ldrb	r1, [r3, #0]	@ zero_extendqisi2
 1505 1414 0030D5E5 		ldrb	r3, [r5, #0]	@ zero_extendqisi2
 1506 1418 033081E0 		add	r3, r1, r3
 1507 141c 0030C5E5 		strb	r3, [r5, #0]
 1508 1420 E0051FE5 		ldr	r0, .L282+244
 1509 1424 FEFFFFEB 		bl	uart_transmit
 1510 1428 0010D5E5 		ldrb	r1, [r5, #0]	@ zero_extendqisi2
 1511 142c 0110E0E1 		mvn	r1, r1
 1512 1430 FF1001E2 		and	r1, r1, #255
 1513 1434 0010C5E5 		strb	r1, [r5, #0]
 1514 1438 F8051FE5 		ldr	r0, .L282+244
 1515 143c FEFFFFEB 		bl	uart_transmit
 1516 1440 030000EA 		b	.L53
 1517              	.L54:
 1518 1444 3C361FE5 		ldr	r3, .L282+188
 1519 1448 0020D3E5 		ldrb	r2, [r3, #0]	@ zero_extendqisi2
 1520 144c 012082E2 		add	r2, r2, #1
 1521 1450 0020C3E5 		strb	r2, [r3, #0]
 1522              	.L53:
 1523 1454 80361FE5 		ldr	r3, .L282+136
 1524 1458 0030D3E5 		ldrb	r3, [r3, #0]	@ zero_extendqisi2
 1525 145c 300053E3 		cmp	r3, #48
 1526 1460 8100001A 		bne	.L55
 1527 1464 8C361FE5 		ldr	r3, .L282+140
 1528 1468 0030D3E5 		ldrb	r3, [r3, #0]	@ zero_extendqisi2
 1529 146c 000053E3 		cmp	r3, #0
 1530 1470 8A01000A 		beq	.L56
 1531 1474 34061FE5 		ldr	r0, .L282+244
 1532 1478 1710A0E3 		mov	r1, #23
 1533 147c FEFFFFEB 		bl	uart_check_free_space
 1534 1480 000050E3 		cmp	r0, #0
 1535 1484 8101000A 		beq	.L58
 1536 1488 54361FE5 		ldr	r3, .L282+232
 1537 148c B020D3E1 		ldrh	r2, [r3, #0]
 1538 1490 172082E2 		add	r2, r2, #23
 1539 1494 B020C3E1 		strh	r2, [r3, #0]	@ movhi
 1540 1498 60361FE5 		ldr	r3, .L282+236
 1541 149c B020D3E1 		ldrh	r2, [r3, #0]
 1542 14a0 012082E2 		add	r2, r2, #1
 1543 14a4 B020C3E1 		strh	r2, [r3, #0]	@ movhi
 1544 14a8 68061FE5 		ldr	r0, .L282+244
 1545 14ac 7E10A0E3 		mov	r1, #126
 1546 14b0 74461FE5 		ldr	r4, .L282+240
 1547 14b4 FEFFFFEB 		bl	uart_transmit
 1548 14b8 78061FE5 		ldr	r0, .L282+244
 1549 14bc 0010A0E3 		mov	r1, #0
 1550 14c0 0150A0E3 		mov	r5, #1
 1551 14c4 FEFFFFEB 		bl	uart_transmit
 1552 14c8 88061FE5 		ldr	r0, .L282+244
 1553 14cc 1310A0E3 		mov	r1, #19
 1554 14d0 FEFFFFEB 		bl	uart_transmit
 1555 14d4 0510A0E1 		mov	r1, r5
 1556 14d8 0050C4E5 		strb	r5, [r4, #0]
 1557 14dc 9C061FE5 		ldr	r0, .L282+244
 1558 14e0 FEFFFFEB 		bl	uart_transmit
 1559 14e4 A4061FE5 		ldr	r0, .L282+244
 1560 14e8 0010A0E3 		mov	r1, #0
 1561 14ec FEFFFFEB 		bl	uart_transmit
 1562 14f0 0030D4E5 		ldrb	r3, [r4, #0]	@ zero_extendqisi2
 1563 14f4 053083E0 		add	r3, r3, r5
 1564 14f8 0030C4E5 		strb	r3, [r4, #0]
 1565 14fc 0510A0E1 		mov	r1, r5
 1566 1500 C0061FE5 		ldr	r0, .L282+244
 1567 1504 FEFFFFEB 		bl	uart_transmit
 1568 1508 C8061FE5 		ldr	r0, .L282+244
 1569 150c 0010A0E3 		mov	r1, #0
 1570 1510 FEFFFFEB 		bl	uart_transmit
 1571 1514 D4061FE5 		ldr	r0, .L282+244
 1572 1518 0010A0E3 		mov	r1, #0
 1573 151c FEFFFFEB 		bl	uart_transmit
 1574 1520 0030D4E5 		ldrb	r3, [r4, #0]	@ zero_extendqisi2
 1575 1524 023083E2 		add	r3, r3, #2
 1576 1528 0030C4E5 		strb	r3, [r4, #0]
 1577 152c EC061FE5 		ldr	r0, .L282+244
 1578 1530 0210A0E3 		mov	r1, #2
 1579 1534 FEFFFFEB 		bl	uart_transmit
 1580 1538 0030D4E5 		ldrb	r3, [r4, #0]	@ zero_extendqisi2
 1581 153c 60571FE5 		ldr	r5, .L282+144
 1582 1540 153083E2 		add	r3, r3, #21
 1583 1544 0030C4E5 		strb	r3, [r4, #0]
 1584 1548 08071FE5 		ldr	r0, .L282+244
 1585 154c 1510A0E3 		mov	r1, #21
 1586 1550 FEFFFFEB 		bl	uart_transmit
 1587 1554 0010D5E5 		ldrb	r1, [r5, #0]	@ zero_extendqisi2
 1588 1558 0030D4E5 		ldrb	r3, [r4, #0]	@ zero_extendqisi2
 1589 155c 033081E0 		add	r3, r1, r3
 1590 1560 0030C4E5 		strb	r3, [r4, #0]
 1591 1564 24071FE5 		ldr	r0, .L282+244
 1592 1568 FEFFFFEB 		bl	uart_transmit
 1593 156c 0110D5E5 		ldrb	r1, [r5, #1]	@ zero_extendqisi2
 1594 1570 0030D4E5 		ldrb	r3, [r4, #0]	@ zero_extendqisi2
 1595 1574 033081E0 		add	r3, r1, r3
 1596 1578 0030C4E5 		strb	r3, [r4, #0]
 1597 157c 3C071FE5 		ldr	r0, .L282+244
 1598 1580 FEFFFFEB 		bl	uart_transmit
 1599 1584 0210D5E5 		ldrb	r1, [r5, #2]	@ zero_extendqisi2
 1600 1588 0030D4E5 		ldrb	r3, [r4, #0]	@ zero_extendqisi2
 1601 158c 033081E0 		add	r3, r1, r3
 1602 1590 0030C4E5 		strb	r3, [r4, #0]
 1603 1594 54071FE5 		ldr	r0, .L282+244
 1604 1598 FEFFFFEB 		bl	uart_transmit
 1605 159c 0310D5E5 		ldrb	r1, [r5, #3]	@ zero_extendqisi2
 1606 15a0 0030D4E5 		ldrb	r3, [r4, #0]	@ zero_extendqisi2
 1607 15a4 C4571FE5 		ldr	r5, .L282+148
 1608 15a8 033081E0 		add	r3, r1, r3
 1609 15ac 0030C4E5 		strb	r3, [r4, #0]
 1610 15b0 70071FE5 		ldr	r0, .L282+244
 1611 15b4 FEFFFFEB 		bl	uart_transmit
 1612 15b8 0010D5E5 		ldrb	r1, [r5, #0]	@ zero_extendqisi2
 1613 15bc 0030D4E5 		ldrb	r3, [r4, #0]	@ zero_extendqisi2
 1614 15c0 033081E0 		add	r3, r1, r3
 1615 15c4 0030C4E5 		strb	r3, [r4, #0]
 1616 15c8 88071FE5 		ldr	r0, .L282+244
 1617 15cc FEFFFFEB 		bl	uart_transmit
 1618 15d0 0110D5E5 		ldrb	r1, [r5, #1]	@ zero_extendqisi2
 1619 15d4 0030D4E5 		ldrb	r3, [r4, #0]	@ zero_extendqisi2
 1620 15d8 033081E0 		add	r3, r1, r3
 1621 15dc 0030C4E5 		strb	r3, [r4, #0]
 1622 15e0 A0071FE5 		ldr	r0, .L282+244
 1623 15e4 FEFFFFEB 		bl	uart_transmit
 1624 15e8 0210D5E5 		ldrb	r1, [r5, #2]	@ zero_extendqisi2
 1625 15ec 0030D4E5 		ldrb	r3, [r4, #0]	@ zero_extendqisi2
 1626 15f0 033081E0 		add	r3, r1, r3
 1627 15f4 0030C4E5 		strb	r3, [r4, #0]
 1628 15f8 B8071FE5 		ldr	r0, .L282+244
 1629 15fc FEFFFFEB 		bl	uart_transmit
 1630 1600 0310D5E5 		ldrb	r1, [r5, #3]	@ zero_extendqisi2
 1631 1604 0030D4E5 		ldrb	r3, [r4, #0]	@ zero_extendqisi2
 1632 1608 24581FE5 		ldr	r5, .L282+152
 1633 160c 033081E0 		add	r3, r1, r3
 1634 1610 0030C4E5 		strb	r3, [r4, #0]
 1635 1614 D4071FE5 		ldr	r0, .L282+244
 1636 1618 FEFFFFEB 		bl	uart_transmit
 1637 161c 0010D5E5 		ldrb	r1, [r5, #0]	@ zero_extendqisi2
 1638 1620 0030D4E5 		ldrb	r3, [r4, #0]	@ zero_extendqisi2
 1639 1624 033081E0 		add	r3, r1, r3
 1640 1628 0030C4E5 		strb	r3, [r4, #0]
 1641 162c EC071FE5 		ldr	r0, .L282+244
 1642 1630 FEFFFFEB 		bl	uart_transmit
 1643 1634 0110D5E5 		ldrb	r1, [r5, #1]	@ zero_extendqisi2
 1644 1638 0030D4E5 		ldrb	r3, [r4, #0]	@ zero_extendqisi2
 1645 163c 033081E0 		add	r3, r1, r3
 1646 1640 0030C4E5 		strb	r3, [r4, #0]
 1647 1644 04081FE5 		ldr	r0, .L282+244
 1648 1648 FEFFFFEB 		bl	uart_transmit
 1649 164c 0210D5E5 		ldrb	r1, [r5, #2]	@ zero_extendqisi2
 1650 1650 0030D4E5 		ldrb	r3, [r4, #0]	@ zero_extendqisi2
 1651 1654 033081E0 		add	r3, r1, r3
 1652 1658 0030C4E5 		strb	r3, [r4, #0]
 1653 165c 1C081FE5 		ldr	r0, .L282+244
 1654 1660 FEFFFFEB 		bl	uart_transmit
 1655 1664 0310D5E5 		ldrb	r1, [r5, #3]	@ zero_extendqisi2
 1656 1668 FC0000EA 		b	.L259
 1657              	.L55:
 1658 166c 360053E3 		cmp	r3, #54
 1659 1670 0A01001A 		bne	.L56
 1660 1674 8C381FE5 		ldr	r3, .L282+156
 1661 1678 38081FE5 		ldr	r0, .L282+244
 1662 167c 2B10A0E3 		mov	r1, #43
 1663 1680 14308DE5 		str	r3, [sp, #20]	@ float
 1664 1684 FEFFFFEB 		bl	uart_check_free_space
 1665 1688 000050E3 		cmp	r0, #0
 1666 168c FF00000A 		beq	.L58
 1667 1690 5C381FE5 		ldr	r3, .L282+232
 1668 1694 B020D3E1 		ldrh	r2, [r3, #0]
 1669 1698 2B2082E2 		add	r2, r2, #43
 1670 169c B020C3E1 		strh	r2, [r3, #0]	@ movhi
 1671 16a0 68381FE5 		ldr	r3, .L282+236
 1672 16a4 B020D3E1 		ldrh	r2, [r3, #0]
 1673 16a8 012082E2 		add	r2, r2, #1
 1674 16ac B020C3E1 		strh	r2, [r3, #0]	@ movhi
 1675 16b0 70081FE5 		ldr	r0, .L282+244
 1676 16b4 7E10A0E3 		mov	r1, #126
 1677 16b8 7C481FE5 		ldr	r4, .L282+240
 1678 16bc FEFFFFEB 		bl	uart_transmit
 1679 16c0 80081FE5 		ldr	r0, .L282+244
 1680 16c4 0010A0E3 		mov	r1, #0
 1681 16c8 FEFFFFEB 		bl	uart_transmit
 1682 16cc 0150A0E3 		mov	r5, #1
 1683 16d0 90081FE5 		ldr	r0, .L282+244
 1684 16d4 2710A0E3 		mov	r1, #39
 1685 16d8 FEFFFFEB 		bl	uart_transmit
 1686 16dc 0510A0E1 		mov	r1, r5
 1687 16e0 0050C4E5 		strb	r5, [r4, #0]
 1688 16e4 A4081FE5 		ldr	r0, .L282+244
 1689 16e8 FEFFFFEB 		bl	uart_transmit
 1690 16ec AC081FE5 		ldr	r0, .L282+244
 1691 16f0 0010A0E3 		mov	r1, #0
 1692 16f4 FEFFFFEB 		bl	uart_transmit
 1693 16f8 0030D4E5 		ldrb	r3, [r4, #0]	@ zero_extendqisi2
 1694 16fc 053083E0 		add	r3, r3, r5
 1695 1700 0030C4E5 		strb	r3, [r4, #0]
 1696 1704 0510A0E1 		mov	r1, r5
 1697 1708 C8081FE5 		ldr	r0, .L282+244
 1698 170c FEFFFFEB 		bl	uart_transmit
 1699 1710 D0081FE5 		ldr	r0, .L282+244
 1700 1714 0010A0E3 		mov	r1, #0
 1701 1718 FEFFFFEB 		bl	uart_transmit
 1702 171c DC081FE5 		ldr	r0, .L282+244
 1703 1720 0010A0E3 		mov	r1, #0
 1704 1724 FEFFFFEB 		bl	uart_transmit
 1705 1728 0030D4E5 		ldrb	r3, [r4, #0]	@ zero_extendqisi2
 1706 172c 023083E2 		add	r3, r3, #2
 1707 1730 0030C4E5 		strb	r3, [r4, #0]
 1708 1734 F4081FE5 		ldr	r0, .L282+244
 1709 1738 0210A0E3 		mov	r1, #2
 1710 173c FEFFFFEB 		bl	uart_transmit
 1711 1740 0030D4E5 		ldrb	r3, [r4, #0]	@ zero_extendqisi2
 1712 1744 58591FE5 		ldr	r5, .L282+160
 1713 1748 103083E2 		add	r3, r3, #16
 1714 174c 0030C4E5 		strb	r3, [r4, #0]
 1715 1750 10091FE5 		ldr	r0, .L282+244
 1716 1754 1010A0E3 		mov	r1, #16
 1717 1758 FEFFFFEB 		bl	uart_transmit
 1718 175c 0010D5E5 		ldrb	r1, [r5, #0]	@ zero_extendqisi2
 1719 1760 0030D4E5 		ldrb	r3, [r4, #0]	@ zero_extendqisi2
 1720 1764 033081E0 		add	r3, r1, r3
 1721 1768 0030C4E5 		strb	r3, [r4, #0]
 1722 176c 2C091FE5 		ldr	r0, .L282+244
 1723 1770 FEFFFFEB 		bl	uart_transmit
 1724 1774 0110D5E5 		ldrb	r1, [r5, #1]	@ zero_extendqisi2
 1725 1778 0030D4E5 		ldrb	r3, [r4, #0]	@ zero_extendqisi2
 1726 177c 033081E0 		add	r3, r1, r3
 1727 1780 0030C4E5 		strb	r3, [r4, #0]
 1728 1784 44091FE5 		ldr	r0, .L282+244
 1729 1788 FEFFFFEB 		bl	uart_transmit
 1730 178c 0210D5E5 		ldrb	r1, [r5, #2]	@ zero_extendqisi2
 1731 1790 0030D4E5 		ldrb	r3, [r4, #0]	@ zero_extendqisi2
 1732 1794 033081E0 		add	r3, r1, r3
 1733 1798 0030C4E5 		strb	r3, [r4, #0]
 1734 179c 5C091FE5 		ldr	r0, .L282+244
 1735 17a0 FEFFFFEB 		bl	uart_transmit
 1736 17a4 0310D5E5 		ldrb	r1, [r5, #3]	@ zero_extendqisi2
 1737 17a8 0030D4E5 		ldrb	r3, [r4, #0]	@ zero_extendqisi2
 1738 17ac BC591FE5 		ldr	r5, .L282+164
 1739 17b0 033081E0 		add	r3, r1, r3
 1740 17b4 0030C4E5 		strb	r3, [r4, #0]
 1741 17b8 78091FE5 		ldr	r0, .L282+244
 1742 17bc FEFFFFEB 		bl	uart_transmit
 1743 17c0 0010D5E5 		ldrb	r1, [r5, #0]	@ zero_extendqisi2
 1744 17c4 0030D4E5 		ldrb	r3, [r4, #0]	@ zero_extendqisi2
 1745 17c8 033081E0 		add	r3, r1, r3
 1746 17cc 0030C4E5 		strb	r3, [r4, #0]
 1747 17d0 90091FE5 		ldr	r0, .L282+244
 1748 17d4 FEFFFFEB 		bl	uart_transmit
 1749 17d8 0110D5E5 		ldrb	r1, [r5, #1]	@ zero_extendqisi2
 1750 17dc 0030D4E5 		ldrb	r3, [r4, #0]	@ zero_extendqisi2
 1751 17e0 033081E0 		add	r3, r1, r3
 1752 17e4 0030C4E5 		strb	r3, [r4, #0]
 1753 17e8 A8091FE5 		ldr	r0, .L282+244
 1754 17ec FEFFFFEB 		bl	uart_transmit
 1755 17f0 0210D5E5 		ldrb	r1, [r5, #2]	@ zero_extendqisi2
 1756 17f4 0030D4E5 		ldrb	r3, [r4, #0]	@ zero_extendqisi2
 1757 17f8 033081E0 		add	r3, r1, r3
 1758 17fc 0030C4E5 		strb	r3, [r4, #0]
 1759 1800 C0091FE5 		ldr	r0, .L282+244
 1760 1804 FEFFFFEB 		bl	uart_transmit
 1761 1808 0310D5E5 		ldrb	r1, [r5, #3]	@ zero_extendqisi2
 1762 180c 0030D4E5 		ldrb	r3, [r4, #0]	@ zero_extendqisi2
 1763 1810 1C5A1FE5 		ldr	r5, .L282+168
 1764 1814 033081E0 		add	r3, r1, r3
 1765 1818 0030C4E5 		strb	r3, [r4, #0]
 1766 181c DC091FE5 		ldr	r0, .L282+244
 1767 1820 FEFFFFEB 		bl	uart_transmit
 1768 1824 0010D5E5 		ldrb	r1, [r5, #0]	@ zero_extendqisi2
 1769 1828 0030D4E5 		ldrb	r3, [r4, #0]	@ zero_extendqisi2
 1770 182c 033081E0 		add	r3, r1, r3
 1771 1830 0030C4E5 		strb	r3, [r4, #0]
 1772 1834 F4091FE5 		ldr	r0, .L282+244
 1773 1838 FEFFFFEB 		bl	uart_transmit
 1774 183c 0110D5E5 		ldrb	r1, [r5, #1]	@ zero_extendqisi2
 1775 1840 0030D4E5 		ldrb	r3, [r4, #0]	@ zero_extendqisi2
 1776 1844 033081E0 		add	r3, r1, r3
 1777 1848 0030C4E5 		strb	r3, [r4, #0]
 1778 184c 0C0A1FE5 		ldr	r0, .L282+244
 1779 1850 FEFFFFEB 		bl	uart_transmit
 1780 1854 0210D5E5 		ldrb	r1, [r5, #2]	@ zero_extendqisi2
 1781 1858 0030D4E5 		ldrb	r3, [r4, #0]	@ zero_extendqisi2
 1782 185c 033081E0 		add	r3, r1, r3
 1783 1860 0030C4E5 		strb	r3, [r4, #0]
 1784 1864 240A1FE5 		ldr	r0, .L282+244
 1785 1868 FEFFFFEB 		bl	uart_transmit
 1786 186c 0310D5E5 		ldrb	r1, [r5, #3]	@ zero_extendqisi2
 1787 1870 0030D4E5 		ldrb	r3, [r4, #0]	@ zero_extendqisi2
 1788 1874 7C5A1FE5 		ldr	r5, .L282+172
 1789 1878 033081E0 		add	r3, r1, r3
 1790 187c 0030C4E5 		strb	r3, [r4, #0]
 1791 1880 400A1FE5 		ldr	r0, .L282+244
 1792 1884 FEFFFFEB 		bl	uart_transmit
 1793 1888 0010D5E5 		ldrb	r1, [r5, #0]	@ zero_extendqisi2
 1794 188c 0030D4E5 		ldrb	r3, [r4, #0]	@ zero_extendqisi2
 1795 1890 033081E0 		add	r3, r1, r3
 1796 1894 0030C4E5 		strb	r3, [r4, #0]
 1797 1898 580A1FE5 		ldr	r0, .L282+244
 1798 189c FEFFFFEB 		bl	uart_transmit
 1799 18a0 0110D5E5 		ldrb	r1, [r5, #1]	@ zero_extendqisi2
 1800 18a4 0030D4E5 		ldrb	r3, [r4, #0]	@ zero_extendqisi2
 1801 18a8 033081E0 		add	r3, r1, r3
 1802 18ac 0030C4E5 		strb	r3, [r4, #0]
 1803 18b0 700A1FE5 		ldr	r0, .L282+244
 1804 18b4 FEFFFFEB 		bl	uart_transmit
 1805 18b8 0210D5E5 		ldrb	r1, [r5, #2]	@ zero_extendqisi2
 1806 18bc 0030D4E5 		ldrb	r3, [r4, #0]	@ zero_extendqisi2
 1807 18c0 033081E0 		add	r3, r1, r3
 1808 18c4 0030C4E5 		strb	r3, [r4, #0]
 1809 18c8 880A1FE5 		ldr	r0, .L282+244
 1810 18cc FEFFFFEB 		bl	uart_transmit
 1811 18d0 0310D5E5 		ldrb	r1, [r5, #3]	@ zero_extendqisi2
 1812 18d4 0030D4E5 		ldrb	r3, [r4, #0]	@ zero_extendqisi2
 1813 18d8 DC5A1FE5 		ldr	r5, .L282+176
 1814 18dc 033081E0 		add	r3, r1, r3
 1815 18e0 0030C4E5 		strb	r3, [r4, #0]
 1816 18e4 A40A1FE5 		ldr	r0, .L282+244
 1817 18e8 FEFFFFEB 		bl	uart_transmit
 1818 18ec 0010D5E5 		ldrb	r1, [r5, #0]	@ zero_extendqisi2
 1819 18f0 0030D4E5 		ldrb	r3, [r4, #0]	@ zero_extendqisi2
 1820 18f4 033081E0 		add	r3, r1, r3
 1821 18f8 0030C4E5 		strb	r3, [r4, #0]
 1822 18fc BC0A1FE5 		ldr	r0, .L282+244
 1823 1900 FEFFFFEB 		bl	uart_transmit
 1824 1904 0110D5E5 		ldrb	r1, [r5, #1]	@ zero_extendqisi2
 1825 1908 0030D4E5 		ldrb	r3, [r4, #0]	@ zero_extendqisi2
 1826 190c 033081E0 		add	r3, r1, r3
 1827 1910 0030C4E5 		strb	r3, [r4, #0]
 1828 1914 D40A1FE5 		ldr	r0, .L282+244
 1829 1918 FEFFFFEB 		bl	uart_transmit
 1830 191c 0210D5E5 		ldrb	r1, [r5, #2]	@ zero_extendqisi2
 1831 1920 0030D4E5 		ldrb	r3, [r4, #0]	@ zero_extendqisi2
 1832 1924 033081E0 		add	r3, r1, r3
 1833 1928 0030C4E5 		strb	r3, [r4, #0]
 1834 192c EC0A1FE5 		ldr	r0, .L282+244
 1835 1930 FEFFFFEB 		bl	uart_transmit
 1836 1934 0310D5E5 		ldrb	r1, [r5, #3]	@ zero_extendqisi2
 1837 1938 0030D4E5 		ldrb	r3, [r4, #0]	@ zero_extendqisi2
 1838 193c 3C5B1FE5 		ldr	r5, .L282+180
 1839 1940 033081E0 		add	r3, r1, r3
 1840 1944 0030C4E5 		strb	r3, [r4, #0]
 1841 1948 080B1FE5 		ldr	r0, .L282+244
 1842 194c FEFFFFEB 		bl	uart_transmit
 1843 1950 0010D5E5 		ldrb	r1, [r5, #0]	@ zero_extendqisi2
 1844 1954 0030D4E5 		ldrb	r3, [r4, #0]	@ zero_extendqisi2
 1845 1958 033081E0 		add	r3, r1, r3
 1846 195c 0030C4E5 		strb	r3, [r4, #0]
 1847 1960 200B1FE5 		ldr	r0, .L282+244
 1848 1964 FEFFFFEB 		bl	uart_transmit
 1849 1968 0110D5E5 		ldrb	r1, [r5, #1]	@ zero_extendqisi2
 1850 196c 0030D4E5 		ldrb	r3, [r4, #0]	@ zero_extendqisi2
 1851 1970 033081E0 		add	r3, r1, r3
 1852 1974 0030C4E5 		strb	r3, [r4, #0]
 1853 1978 380B1FE5 		ldr	r0, .L282+244
 1854 197c FEFFFFEB 		bl	uart_transmit
 1855 1980 0210D5E5 		ldrb	r1, [r5, #2]	@ zero_extendqisi2
 1856 1984 0030D4E5 		ldrb	r3, [r4, #0]	@ zero_extendqisi2
 1857 1988 033081E0 		add	r3, r1, r3
 1858 198c 0030C4E5 		strb	r3, [r4, #0]
 1859 1990 500B1FE5 		ldr	r0, .L282+244
 1860 1994 FEFFFFEB 		bl	uart_transmit
 1861 1998 0310D5E5 		ldrb	r1, [r5, #3]	@ zero_extendqisi2
 1862 199c 0030D4E5 		ldrb	r3, [r4, #0]	@ zero_extendqisi2
 1863 19a0 9C5B1FE5 		ldr	r5, .L282+184
 1864 19a4 033081E0 		add	r3, r1, r3
 1865 19a8 0030C4E5 		strb	r3, [r4, #0]
 1866 19ac 6C0B1FE5 		ldr	r0, .L282+244
 1867 19b0 FEFFFFEB 		bl	uart_transmit
 1868 19b4 0010D5E5 		ldrb	r1, [r5, #0]	@ zero_extendqisi2
 1869 19b8 0030D4E5 		ldrb	r3, [r4, #0]	@ zero_extendqisi2
 1870 19bc 033081E0 		add	r3, r1, r3
 1871 19c0 0030C4E5 		strb	r3, [r4, #0]
 1872 19c4 840B1FE5 		ldr	r0, .L282+244
 1873 19c8 FEFFFFEB 		bl	uart_transmit
 1874 19cc 0110D5E5 		ldrb	r1, [r5, #1]	@ zero_extendqisi2
 1875 19d0 0030D4E5 		ldrb	r3, [r4, #0]	@ zero_extendqisi2
 1876 19d4 033081E0 		add	r3, r1, r3
 1877 19d8 0030C4E5 		strb	r3, [r4, #0]
 1878 19dc 9C0B1FE5 		ldr	r0, .L282+244
 1879 19e0 FEFFFFEB 		bl	uart_transmit
 1880 19e4 0210D5E5 		ldrb	r1, [r5, #2]	@ zero_extendqisi2
 1881 19e8 0030D4E5 		ldrb	r3, [r4, #0]	@ zero_extendqisi2
 1882 19ec 033081E0 		add	r3, r1, r3
 1883 19f0 0030C4E5 		strb	r3, [r4, #0]
 1884 19f4 B40B1FE5 		ldr	r0, .L282+244
 1885 19f8 FEFFFFEB 		bl	uart_transmit
 1886 19fc 0310D5E5 		ldrb	r1, [r5, #3]	@ zero_extendqisi2
 1887 1a00 0030D4E5 		ldrb	r3, [r4, #0]	@ zero_extendqisi2
 1888 1a04 033081E0 		add	r3, r1, r3
 1889 1a08 0030C4E5 		strb	r3, [r4, #0]
 1890 1a0c CC0B1FE5 		ldr	r0, .L282+244
 1891 1a10 FEFFFFEB 		bl	uart_transmit
 1892 1a14 1410DDE5 		ldrb	r1, [sp, #20]	@ zero_extendqisi2
 1893 1a18 0030D4E5 		ldrb	r3, [r4, #0]	@ zero_extendqisi2
 1894 1a1c 033081E0 		add	r3, r1, r3
 1895 1a20 0030C4E5 		strb	r3, [r4, #0]
 1896 1a24 E40B1FE5 		ldr	r0, .L282+244
 1897 1a28 FEFFFFEB 		bl	uart_transmit
 1898 1a2c 1510DDE5 		ldrb	r1, [sp, #21]	@ zero_extendqisi2
 1899 1a30 0030D4E5 		ldrb	r3, [r4, #0]	@ zero_extendqisi2
 1900 1a34 033081E0 		add	r3, r1, r3
 1901 1a38 0030C4E5 		strb	r3, [r4, #0]
 1902 1a3c FC0B1FE5 		ldr	r0, .L282+244
 1903 1a40 FEFFFFEB 		bl	uart_transmit
 1904 1a44 1610DDE5 		ldrb	r1, [sp, #22]	@ zero_extendqisi2
 1905 1a48 0030D4E5 		ldrb	r3, [r4, #0]	@ zero_extendqisi2
 1906 1a4c 033081E0 		add	r3, r1, r3
 1907 1a50 0030C4E5 		strb	r3, [r4, #0]
 1908 1a54 140C1FE5 		ldr	r0, .L282+244
 1909 1a58 FEFFFFEB 		bl	uart_transmit
 1910 1a5c 1710DDE5 		ldrb	r1, [sp, #23]	@ zero_extendqisi2
 1911              	.L259:
 1912 1a60 0030D4E5 		ldrb	r3, [r4, #0]	@ zero_extendqisi2
 1913 1a64 033081E0 		add	r3, r1, r3
 1914 1a68 0030C4E5 		strb	r3, [r4, #0]
 1915 1a6c 2C0C1FE5 		ldr	r0, .L282+244
 1916 1a70 FEFFFFEB 		bl	uart_transmit
 1917 1a74 0010D4E5 		ldrb	r1, [r4, #0]	@ zero_extendqisi2
 1918 1a78 0110E0E1 		mvn	r1, r1
 1919 1a7c FF1001E2 		and	r1, r1, #255
 1920 1a80 0010C4E5 		strb	r1, [r4, #0]
 1921 1a84 440C1FE5 		ldr	r0, .L282+244
 1922 1a88 FEFFFFEB 		bl	uart_transmit
 1923 1a8c 030000EA 		b	.L56
 1924              	.L58:
 1925 1a90 883C1FE5 		ldr	r3, .L282+188
 1926 1a94 0020D3E5 		ldrb	r2, [r3, #0]	@ zero_extendqisi2
 1927 1a98 012082E2 		add	r2, r2, #1
 1928 1a9c 0020C3E5 		strb	r2, [r3, #0]
 1929              	.L56:
 1930 1aa0 943C1FE5 		ldr	r3, .L282+192
 1931 1aa4 0050D3E5 		ldrb	r5, [r3, #0]	@ zero_extendqisi2
 1932 1aa8 3C0055E3 		cmp	r5, #60
 1933 1aac 9500001A 		bne	.L59
 1934 1ab0 A03C1FE5 		ldr	r3, .L282+196
 1935 1ab4 0A10A0E3 		mov	r1, #10
 1936 1ab8 000093E5 		ldr	r0, [r3, #0]
 1937 1abc FEFFFFEB 		bl	__aeabi_idiv
 1938 1ac0 AC3C1FE5 		ldr	r3, .L282+200
 1939 1ac4 BE01CDE1 		strh	r0, [sp, #30]	@ movhi
 1940 1ac8 000093E5 		ldr	r0, [r3, #0]	@ float
 1941 1acc FEFFFFEB 		bl	__aeabi_f2iz
 1942 1ad0 1910A0E3 		mov	r1, #25
 1943 1ad4 BC01CDE1 		strh	r0, [sp, #28]	@ movhi
 1944 1ad8 980C1FE5 		ldr	r0, .L282+244
 1945 1adc FEFFFFEB 		bl	uart_check_free_space
 1946 1ae0 000050E3 		cmp	r0, #0
 1947 1ae4 1F01000A 		beq	.L62
 1948 1ae8 B43C1FE5 		ldr	r3, .L282+232
 1949 1aec B020D3E1 		ldrh	r2, [r3, #0]
 1950 1af0 192082E2 		add	r2, r2, #25
 1951 1af4 B020C3E1 		strh	r2, [r3, #0]	@ movhi
 1952 1af8 C03C1FE5 		ldr	r3, .L282+236
 1953 1afc B020D3E1 		ldrh	r2, [r3, #0]
 1954 1b00 012082E2 		add	r2, r2, #1
 1955 1b04 B020C3E1 		strh	r2, [r3, #0]	@ movhi
 1956 1b08 C80C1FE5 		ldr	r0, .L282+244
 1957 1b0c 7E10A0E3 		mov	r1, #126
 1958 1b10 D44C1FE5 		ldr	r4, .L282+240
 1959 1b14 FEFFFFEB 		bl	uart_transmit
 1960 1b18 D80C1FE5 		ldr	r0, .L282+244
 1961 1b1c 0010A0E3 		mov	r1, #0
 1962 1b20 0150A0E3 		mov	r5, #1
 1963 1b24 FEFFFFEB 		bl	uart_transmit
 1964 1b28 E80C1FE5 		ldr	r0, .L282+244
 1965 1b2c 1510A0E3 		mov	r1, #21
 1966 1b30 FEFFFFEB 		bl	uart_transmit
 1967 1b34 0510A0E1 		mov	r1, r5
 1968 1b38 0050C4E5 		strb	r5, [r4, #0]
 1969 1b3c FC0C1FE5 		ldr	r0, .L282+244
 1970 1b40 FEFFFFEB 		bl	uart_transmit
 1971 1b44 040D1FE5 		ldr	r0, .L282+244
 1972 1b48 0010A0E3 		mov	r1, #0
 1973 1b4c FEFFFFEB 		bl	uart_transmit
 1974 1b50 0030D4E5 		ldrb	r3, [r4, #0]	@ zero_extendqisi2
 1975 1b54 053083E0 		add	r3, r3, r5
 1976 1b58 0030C4E5 		strb	r3, [r4, #0]
 1977 1b5c 0510A0E1 		mov	r1, r5
 1978 1b60 200D1FE5 		ldr	r0, .L282+244
 1979 1b64 FEFFFFEB 		bl	uart_transmit
 1980 1b68 280D1FE5 		ldr	r0, .L282+244
 1981 1b6c 0010A0E3 		mov	r1, #0
 1982 1b70 FEFFFFEB 		bl	uart_transmit
 1983 1b74 340D1FE5 		ldr	r0, .L282+244
 1984 1b78 0010A0E3 		mov	r1, #0
 1985 1b7c FEFFFFEB 		bl	uart_transmit
 1986 1b80 0030D4E5 		ldrb	r3, [r4, #0]	@ zero_extendqisi2
 1987 1b84 023083E2 		add	r3, r3, #2
 1988 1b88 0030C4E5 		strb	r3, [r4, #0]
 1989 1b8c 4C0D1FE5 		ldr	r0, .L282+244
 1990 1b90 0210A0E3 		mov	r1, #2
 1991 1b94 FEFFFFEB 		bl	uart_transmit
 1992 1b98 0030D4E5 		ldrb	r3, [r4, #0]	@ zero_extendqisi2
 1993 1b9c 845D1FE5 		ldr	r5, .L282+204
 1994 1ba0 0C3083E2 		add	r3, r3, #12
 1995 1ba4 0030C4E5 		strb	r3, [r4, #0]
 1996 1ba8 680D1FE5 		ldr	r0, .L282+244
 1997 1bac 0C10A0E3 		mov	r1, #12
 1998 1bb0 FEFFFFEB 		bl	uart_transmit
 1999 1bb4 0010D5E5 		ldrb	r1, [r5, #0]	@ zero_extendqisi2
 2000 1bb8 0030D4E5 		ldrb	r3, [r4, #0]	@ zero_extendqisi2
 2001 1bbc 033081E0 		add	r3, r1, r3
 2002 1bc0 0030C4E5 		strb	r3, [r4, #0]
 2003 1bc4 840D1FE5 		ldr	r0, .L282+244
 2004 1bc8 FEFFFFEB 		bl	uart_transmit
 2005 1bcc 0110D5E5 		ldrb	r1, [r5, #1]	@ zero_extendqisi2
 2006 1bd0 0030D4E5 		ldrb	r3, [r4, #0]	@ zero_extendqisi2
 2007 1bd4 033081E0 		add	r3, r1, r3
 2008 1bd8 0030C4E5 		strb	r3, [r4, #0]
 2009 1bdc 9C0D1FE5 		ldr	r0, .L282+244
 2010 1be0 FEFFFFEB 		bl	uart_transmit
 2011 1be4 C83D1FE5 		ldr	r3, .L282+208
 2012 1be8 0010D3E5 		ldrb	r1, [r3, #0]	@ zero_extendqisi2
 2013 1bec 0030D4E5 		ldrb	r3, [r4, #0]	@ zero_extendqisi2
 2014 1bf0 033081E0 		add	r3, r1, r3
 2015 1bf4 0030C4E5 		strb	r3, [r4, #0]
 2016 1bf8 B80D1FE5 		ldr	r0, .L282+244
 2017 1bfc FEFFFFEB 		bl	uart_transmit
 2018 1c00 1E10DDE5 		ldrb	r1, [sp, #30]	@ zero_extendqisi2
 2019 1c04 0030D4E5 		ldrb	r3, [r4, #0]	@ zero_extendqisi2
 2020 1c08 033081E0 		add	r3, r1, r3
 2021 1c0c 0030C4E5 		strb	r3, [r4, #0]
 2022 1c10 D00D1FE5 		ldr	r0, .L282+244
 2023 1c14 FEFFFFEB 		bl	uart_transmit
 2024 1c18 1F10DDE5 		ldrb	r1, [sp, #31]	@ zero_extendqisi2
 2025 1c1c 0030D4E5 		ldrb	r3, [r4, #0]	@ zero_extendqisi2
 2026 1c20 005E1FE5 		ldr	r5, .L282+212
 2027 1c24 033081E0 		add	r3, r1, r3
 2028 1c28 0030C4E5 		strb	r3, [r4, #0]
 2029 1c2c EC0D1FE5 		ldr	r0, .L282+244
 2030 1c30 FEFFFFEB 		bl	uart_transmit
 2031 1c34 0010D5E5 		ldrb	r1, [r5, #0]	@ zero_extendqisi2
 2032 1c38 0030D4E5 		ldrb	r3, [r4, #0]	@ zero_extendqisi2
 2033 1c3c 033081E0 		add	r3, r1, r3
 2034 1c40 0030C4E5 		strb	r3, [r4, #0]
 2035 1c44 040E1FE5 		ldr	r0, .L282+244
 2036 1c48 FEFFFFEB 		bl	uart_transmit
 2037 1c4c 0110D5E5 		ldrb	r1, [r5, #1]	@ zero_extendqisi2
 2038 1c50 0030D4E5 		ldrb	r3, [r4, #0]	@ zero_extendqisi2
 2039 1c54 033081E0 		add	r3, r1, r3
 2040 1c58 0030C4E5 		strb	r3, [r4, #0]
 2041 1c5c 1C0E1FE5 		ldr	r0, .L282+244
 2042 1c60 FEFFFFEB 		bl	uart_transmit
 2043 1c64 403E1FE5 		ldr	r3, .L282+216
 2044 1c68 0010D3E5 		ldrb	r1, [r3, #0]	@ zero_extendqisi2
 2045 1c6c 0030D4E5 		ldrb	r3, [r4, #0]	@ zero_extendqisi2
 2046 1c70 485E1FE5 		ldr	r5, .L282+220
 2047 1c74 033081E0 		add	r3, r1, r3
 2048 1c78 0030C4E5 		strb	r3, [r4, #0]
 2049 1c7c 3C0E1FE5 		ldr	r0, .L282+244
 2050 1c80 FEFFFFEB 		bl	uart_transmit
 2051 1c84 0010D5E5 		ldrb	r1, [r5, #0]	@ zero_extendqisi2
 2052 1c88 0030D4E5 		ldrb	r3, [r4, #0]	@ zero_extendqisi2
 2053 1c8c 033081E0 		add	r3, r1, r3
 2054 1c90 0030C4E5 		strb	r3, [r4, #0]
 2055 1c94 540E1FE5 		ldr	r0, .L282+244
 2056 1c98 FEFFFFEB 		bl	uart_transmit
 2057 1c9c 0110D5E5 		ldrb	r1, [r5, #1]	@ zero_extendqisi2
 2058 1ca0 0030D4E5 		ldrb	r3, [r4, #0]	@ zero_extendqisi2
 2059 1ca4 785E1FE5 		ldr	r5, .L282+224
 2060 1ca8 033081E0 		add	r3, r1, r3
 2061 1cac 0030C4E5 		strb	r3, [r4, #0]
 2062 1cb0 700E1FE5 		ldr	r0, .L282+244
 2063 1cb4 FEFFFFEB 		bl	uart_transmit
 2064 1cb8 0010D5E5 		ldrb	r1, [r5, #0]	@ zero_extendqisi2
 2065 1cbc 0030D4E5 		ldrb	r3, [r4, #0]	@ zero_extendqisi2
 2066 1cc0 033081E0 		add	r3, r1, r3
 2067 1cc4 0030C4E5 		strb	r3, [r4, #0]
 2068 1cc8 880E1FE5 		ldr	r0, .L282+244
 2069 1ccc FEFFFFEB 		bl	uart_transmit
 2070 1cd0 0110D5E5 		ldrb	r1, [r5, #1]	@ zero_extendqisi2
 2071 1cd4 0030D4E5 		ldrb	r3, [r4, #0]	@ zero_extendqisi2
 2072 1cd8 033081E0 		add	r3, r1, r3
 2073 1cdc 0030C4E5 		strb	r3, [r4, #0]
 2074 1ce0 A00E1FE5 		ldr	r0, .L282+244
 2075 1ce4 FEFFFFEB 		bl	uart_transmit
 2076 1ce8 1C10DDE5 		ldrb	r1, [sp, #28]	@ zero_extendqisi2
 2077 1cec 0030D4E5 		ldrb	r3, [r4, #0]	@ zero_extendqisi2
 2078 1cf0 033081E0 		add	r3, r1, r3
 2079 1cf4 0030C4E5 		strb	r3, [r4, #0]
 2080 1cf8 B80E1FE5 		ldr	r0, .L282+244
 2081 1cfc FEFFFFEB 		bl	uart_transmit
 2082 1d00 1D10DDE5 		ldrb	r1, [sp, #29]	@ zero_extendqisi2
 2083 1d04 8B0000EA 		b	.L260
 2084              	.L59:
 2085 1d08 000055E3 		cmp	r5, #0
 2086 1d0c 9900001A 		bne	.L61
 2087 1d10 E04E1FE5 		ldr	r4, .L282+228
 2088 1d14 000094E5 		ldr	r0, [r4, #0]
 2089 1d18 FEFFFFEB 		bl	__aeabi_i2f
 2090 1d1c E615A0E3 		mov	r1, #964689920
 2091 1d20 FEFFFFEB 		bl	__aeabi_fmul
 2092 1d24 04008DE5 		str	r0, [sp, #4]	@ float
 2093 1d28 040094E5 		ldr	r0, [r4, #4]
 2094 1d2c FEFFFFEB 		bl	__aeabi_i2f
 2095 1d30 E615A0E3 		mov	r1, #964689920
 2096 1d34 FEFFFFEB 		bl	__aeabi_fmul
 2097 1d38 08008DE5 		str	r0, [sp, #8]	@ float
 2098 1d3c 080094E5 		ldr	r0, [r4, #8]
 2099 1d40 FEFFFFEB 		bl	__aeabi_i2f
 2100 1d44 E615A0E3 		mov	r1, #964689920
 2101 1d48 FEFFFFEB 		bl	__aeabi_fmul
 2102 1d4c 1710A0E3 		mov	r1, #23
 2103 1d50 0C008DE5 		str	r0, [sp, #12]	@ float
 2104 1d54 140F1FE5 		ldr	r0, .L282+244
 2105 1d58 FEFFFFEB 		bl	uart_check_free_space
 2106 1d5c 000050E3 		cmp	r0, #0
 2107 1d60 8000000A 		beq	.L62
 2108 1d64 303F1FE5 		ldr	r3, .L282+232
 2109 1d68 B020D3E1 		ldrh	r2, [r3, #0]
 2110 1d6c 172082E2 		add	r2, r2, #23
 2111 1d70 B020C3E1 		strh	r2, [r3, #0]	@ movhi
 2112 1d74 3C3F1FE5 		ldr	r3, .L282+236
 2113 1d78 B020D3E1 		ldrh	r2, [r3, #0]
 2114 1d7c 012082E2 		add	r2, r2, #1
 2115 1d80 B020C3E1 		strh	r2, [r3, #0]	@ movhi
 2116 1d84 440F1FE5 		ldr	r0, .L282+244
 2117 1d88 7E10A0E3 		mov	r1, #126
 2118 1d8c 504F1FE5 		ldr	r4, .L282+240
 2119 1d90 FEFFFFEB 		bl	uart_transmit
 2120 1d94 540F1FE5 		ldr	r0, .L282+244
 2121 1d98 0510A0E1 		mov	r1, r5
 2122 1d9c FEFFFFEB 		bl	uart_transmit
 2123 1da0 0160A0E3 		mov	r6, #1
 2124 1da4 640F1FE5 		ldr	r0, .L282+244
 2125 1da8 1310A0E3 		mov	r1, #19
 2126 1dac FEFFFFEB 		bl	uart_transmit
 2127 1db0 700F1FE5 		ldr	r0, .L282+244
 2128 1db4 0610A0E1 		mov	r1, r6
 2129 1db8 0060C4E5 		strb	r6, [r4, #0]
 2130 1dbc FEFFFFEB 		bl	uart_transmit
 2131 1dc0 800F1FE5 		ldr	r0, .L282+244
 2132 1dc4 0510A0E1 		mov	r1, r5
 2133 1dc8 FEFFFFEB 		bl	uart_transmit
 2134 1dcc 0030D4E5 		ldrb	r3, [r4, #0]	@ zero_extendqisi2
 2135 1dd0 063083E0 		add	r3, r3, r6
 2136 1dd4 0030C4E5 		strb	r3, [r4, #0]
 2137 1dd8 980F1FE5 		ldr	r0, .L282+244
 2138 1ddc 0610A0E1 		mov	r1, r6
 2139 1de0 FEFFFFEB 		bl	uart_transmit
 2140 1de4 A40F1FE5 		ldr	r0, .L282+244
 2141 1de8 0510A0E1 		mov	r1, r5
 2142 1dec FEFFFFEB 		bl	uart_transmit
 2143 1df0 B00F1FE5 		ldr	r0, .L282+244
 2144 1df4 0510A0E1 		mov	r1, r5
 2145 1df8 FEFFFFEB 		bl	uart_transmit
 2146 1dfc 0030D4E5 		ldrb	r3, [r4, #0]	@ zero_extendqisi2
 2147 1e00 023083E2 		add	r3, r3, #2
 2148 1e04 0030C4E5 		strb	r3, [r4, #0]
 2149 1e08 C80F1FE5 		ldr	r0, .L282+244
 2150 1e0c 0210A0E3 		mov	r1, #2
 2151 1e10 FEFFFFEB 		bl	uart_transmit
 2152 1e14 0030D4E5 		ldrb	r3, [r4, #0]	@ zero_extendqisi2
 2153 1e18 383043E2 		sub	r3, r3, #56
 2154 1e1c 0030C4E5 		strb	r3, [r4, #0]
 2155 1e20 E00F1FE5 		ldr	r0, .L282+244
 2156 1e24 C810A0E3 		mov	r1, #200
 2157 1e28 FEFFFFEB 		bl	uart_transmit
 2158 1e2c 0410DDE5 		ldrb	r1, [sp, #4]	@ zero_extendqisi2
 2159 1e30 0030D4E5 		ldrb	r3, [r4, #0]	@ zero_extendqisi2
 2160 1e34 033081E0 		add	r3, r1, r3
 2161 1e38 0030C4E5 		strb	r3, [r4, #0]
 2162 1e3c FC0F1FE5 		ldr	r0, .L282+244
 2163 1e40 FEFFFFEB 		bl	uart_transmit
 2164 1e44 0510DDE5 		ldrb	r1, [sp, #5]	@ zero_extendqisi2
 2165 1e48 0030D4E5 		ldrb	r3, [r4, #0]	@ zero_extendqisi2
 2166 1e4c 033081E0 		add	r3, r1, r3
 2167 1e50 0030C4E5 		strb	r3, [r4, #0]
 2168 1e54 700F9FE5 		ldr	r0, .L284+304
 2169 1e58 FEFFFFEB 		bl	uart_transmit
 2170 1e5c 0610DDE5 		ldrb	r1, [sp, #6]	@ zero_extendqisi2
 2171 1e60 0030D4E5 		ldrb	r3, [r4, #0]	@ zero_extendqisi2
 2172 1e64 033081E0 		add	r3, r1, r3
 2173 1e68 0030C4E5 		strb	r3, [r4, #0]
 2174 1e6c 580F9FE5 		ldr	r0, .L284+304
 2175 1e70 FEFFFFEB 		bl	uart_transmit
 2176 1e74 0710DDE5 		ldrb	r1, [sp, #7]	@ zero_extendqisi2
 2177 1e78 0030D4E5 		ldrb	r3, [r4, #0]	@ zero_extendqisi2
 2178 1e7c 033081E0 		add	r3, r1, r3
 2179 1e80 0030C4E5 		strb	r3, [r4, #0]
 2180 1e84 400F9FE5 		ldr	r0, .L284+304
 2181 1e88 FEFFFFEB 		bl	uart_transmit
 2182 1e8c 0810DDE5 		ldrb	r1, [sp, #8]	@ zero_extendqisi2
 2183 1e90 0030D4E5 		ldrb	r3, [r4, #0]	@ zero_extendqisi2
 2184 1e94 033081E0 		add	r3, r1, r3
 2185 1e98 0030C4E5 		strb	r3, [r4, #0]
 2186 1e9c 280F9FE5 		ldr	r0, .L284+304
 2187 1ea0 FEFFFFEB 		bl	uart_transmit
 2188 1ea4 0910DDE5 		ldrb	r1, [sp, #9]	@ zero_extendqisi2
 2189 1ea8 0030D4E5 		ldrb	r3, [r4, #0]	@ zero_extendqisi2
 2190 1eac 033081E0 		add	r3, r1, r3
 2191 1eb0 0030C4E5 		strb	r3, [r4, #0]
 2192 1eb4 100F9FE5 		ldr	r0, .L284+304
 2193 1eb8 FEFFFFEB 		bl	uart_transmit
 2194 1ebc 0A10DDE5 		ldrb	r1, [sp, #10]	@ zero_extendqisi2
 2195 1ec0 0030D4E5 		ldrb	r3, [r4, #0]	@ zero_extendqisi2
 2196 1ec4 033081E0 		add	r3, r1, r3
 2197 1ec8 0030C4E5 		strb	r3, [r4, #0]
 2198 1ecc F80E9FE5 		ldr	r0, .L284+304
 2199 1ed0 FEFFFFEB 		bl	uart_transmit
 2200 1ed4 0B10DDE5 		ldrb	r1, [sp, #11]	@ zero_extendqisi2
 2201 1ed8 0030D4E5 		ldrb	r3, [r4, #0]	@ zero_extendqisi2
 2202 1edc 033081E0 		add	r3, r1, r3
 2203 1ee0 0030C4E5 		strb	r3, [r4, #0]
 2204 1ee4 E00E9FE5 		ldr	r0, .L284+304
 2205 1ee8 FEFFFFEB 		bl	uart_transmit
 2206 1eec 0C10DDE5 		ldrb	r1, [sp, #12]	@ zero_extendqisi2
 2207 1ef0 0030D4E5 		ldrb	r3, [r4, #0]	@ zero_extendqisi2
 2208 1ef4 033081E0 		add	r3, r1, r3
 2209 1ef8 0030C4E5 		strb	r3, [r4, #0]
 2210 1efc C80E9FE5 		ldr	r0, .L284+304
 2211 1f00 FEFFFFEB 		bl	uart_transmit
 2212 1f04 0D10DDE5 		ldrb	r1, [sp, #13]	@ zero_extendqisi2
 2213 1f08 0030D4E5 		ldrb	r3, [r4, #0]	@ zero_extendqisi2
 2214 1f0c 033081E0 		add	r3, r1, r3
 2215 1f10 0030C4E5 		strb	r3, [r4, #0]
 2216 1f14 B00E9FE5 		ldr	r0, .L284+304
 2217 1f18 FEFFFFEB 		bl	uart_transmit
 2218 1f1c 0E10DDE5 		ldrb	r1, [sp, #14]	@ zero_extendqisi2
 2219 1f20 0030D4E5 		ldrb	r3, [r4, #0]	@ zero_extendqisi2
 2220 1f24 033081E0 		add	r3, r1, r3
 2221 1f28 0030C4E5 		strb	r3, [r4, #0]
 2222 1f2c 980E9FE5 		ldr	r0, .L284+304
 2223 1f30 FEFFFFEB 		bl	uart_transmit
 2224 1f34 0F10DDE5 		ldrb	r1, [sp, #15]	@ zero_extendqisi2
 2225              	.L260:
 2226 1f38 0030D4E5 		ldrb	r3, [r4, #0]	@ zero_extendqisi2
 2227 1f3c 033081E0 		add	r3, r1, r3
 2228 1f40 0030C4E5 		strb	r3, [r4, #0]
 2229 1f44 800E9FE5 		ldr	r0, .L284+304
 2230 1f48 FEFFFFEB 		bl	uart_transmit
 2231 1f4c 0010D4E5 		ldrb	r1, [r4, #0]	@ zero_extendqisi2
 2232 1f50 0110E0E1 		mvn	r1, r1
 2233 1f54 FF1001E2 		and	r1, r1, #255
 2234 1f58 0010C4E5 		strb	r1, [r4, #0]
 2235 1f5c 680E9FE5 		ldr	r0, .L284+304
 2236 1f60 FEFFFFEB 		bl	uart_transmit
 2237 1f64 030000EA 		b	.L61
 2238              	.L62:
 2239 1f68 F03D9FE5 		ldr	r3, .L284+196
 2240 1f6c 0020D3E5 		ldrb	r2, [r3, #0]	@ zero_extendqisi2
 2241 1f70 012082E2 		add	r2, r2, #1
 2242 1f74 0020C3E5 		strb	r2, [r3, #0]
 2243              	.L61:
 2244 1f78 1C3D9FE5 		ldr	r3, .L284
 2245 1f7c 0030D3E5 		ldrb	r3, [r3, #0]	@ zero_extendqisi2
 2246 1f80 060053E3 		cmp	r3, #6
 2247 1f84 9A00001A 		bne	.L63
 2248 1f88 103D9FE5 		ldr	r3, .L284+4
 2249 1f8c 0030D3E5 		ldrb	r3, [r3, #0]	@ zero_extendqisi2
 2250 1f90 000053E3 		cmp	r3, #0
 2251 1f94 1701000A 		beq	.L64
 2252 1f98 2C0E9FE5 		ldr	r0, .L284+304
 2253 1f9c 1B10A0E3 		mov	r1, #27
 2254 1fa0 FEFFFFEB 		bl	uart_check_free_space
 2255 1fa4 000050E3 		cmp	r0, #0
 2256 1fa8 0E01000A 		beq	.L66
 2257 1fac 0C3E9FE5 		ldr	r3, .L284+292
 2258 1fb0 B020D3E1 		ldrh	r2, [r3, #0]
 2259 1fb4 1B2082E2 		add	r2, r2, #27
 2260 1fb8 B020C3E1 		strh	r2, [r3, #0]	@ movhi
 2261 1fbc 003E9FE5 		ldr	r3, .L284+296
 2262 1fc0 B020D3E1 		ldrh	r2, [r3, #0]
 2263 1fc4 012082E2 		add	r2, r2, #1
 2264 1fc8 B020C3E1 		strh	r2, [r3, #0]	@ movhi
 2265 1fcc F80D9FE5 		ldr	r0, .L284+304
 2266 1fd0 7E10A0E3 		mov	r1, #126
 2267 1fd4 EC4D9FE5 		ldr	r4, .L284+300
 2268 1fd8 FEFFFFEB 		bl	uart_transmit
 2269 1fdc E80D9FE5 		ldr	r0, .L284+304
 2270 1fe0 0010A0E3 		mov	r1, #0
 2271 1fe4 0150A0E3 		mov	r5, #1
 2272 1fe8 FEFFFFEB 		bl	uart_transmit
 2273 1fec D80D9FE5 		ldr	r0, .L284+304
 2274 1ff0 1710A0E3 		mov	r1, #23
 2275 1ff4 FEFFFFEB 		bl	uart_transmit
 2276 1ff8 0510A0E1 		mov	r1, r5
 2277 1ffc 0050C4E5 		strb	r5, [r4, #0]
 2278 2000 C40D9FE5 		ldr	r0, .L284+304
 2279 2004 FEFFFFEB 		bl	uart_transmit
 2280 2008 BC0D9FE5 		ldr	r0, .L284+304
 2281 200c 0010A0E3 		mov	r1, #0
 2282 2010 FEFFFFEB 		bl	uart_transmit
 2283 2014 0030D4E5 		ldrb	r3, [r4, #0]	@ zero_extendqisi2
 2284 2018 053083E0 		add	r3, r3, r5
 2285 201c 0030C4E5 		strb	r3, [r4, #0]
 2286 2020 0510A0E1 		mov	r1, r5
 2287 2024 A00D9FE5 		ldr	r0, .L284+304
 2288 2028 FEFFFFEB 		bl	uart_transmit
 2289 202c 980D9FE5 		ldr	r0, .L284+304
 2290 2030 0010A0E3 		mov	r1, #0
 2291 2034 FEFFFFEB 		bl	uart_transmit
 2292 2038 8C0D9FE5 		ldr	r0, .L284+304
 2293 203c 0010A0E3 		mov	r1, #0
 2294 2040 FEFFFFEB 		bl	uart_transmit
 2295 2044 0030D4E5 		ldrb	r3, [r4, #0]	@ zero_extendqisi2
 2296 2048 023083E2 		add	r3, r3, #2
 2297 204c 0030C4E5 		strb	r3, [r4, #0]
 2298 2050 740D9FE5 		ldr	r0, .L284+304
 2299 2054 0210A0E3 		mov	r1, #2
 2300 2058 FEFFFFEB 		bl	uart_transmit
 2301 205c 0030D4E5 		ldrb	r3, [r4, #0]	@ zero_extendqisi2
 2302 2060 3C5C9FE5 		ldr	r5, .L284+8
 2303 2064 163083E2 		add	r3, r3, #22
 2304 2068 0030C4E5 		strb	r3, [r4, #0]
 2305 206c 580D9FE5 		ldr	r0, .L284+304
 2306 2070 1610A0E3 		mov	r1, #22
 2307 2074 FEFFFFEB 		bl	uart_transmit
 2308 2078 0010D5E5 		ldrb	r1, [r5, #0]	@ zero_extendqisi2
 2309 207c 0030D4E5 		ldrb	r3, [r4, #0]	@ zero_extendqisi2
 2310 2080 033081E0 		add	r3, r1, r3
 2311 2084 0030C4E5 		strb	r3, [r4, #0]
 2312 2088 3C0D9FE5 		ldr	r0, .L284+304
 2313 208c FEFFFFEB 		bl	uart_transmit
 2314 2090 0110D5E5 		ldrb	r1, [r5, #1]	@ zero_extendqisi2
 2315 2094 0030D4E5 		ldrb	r3, [r4, #0]	@ zero_extendqisi2
 2316 2098 033081E0 		add	r3, r1, r3
 2317 209c 0030C4E5 		strb	r3, [r4, #0]
 2318 20a0 240D9FE5 		ldr	r0, .L284+304
 2319 20a4 FEFFFFEB 		bl	uart_transmit
 2320 20a8 0210D5E5 		ldrb	r1, [r5, #2]	@ zero_extendqisi2
 2321 20ac 0030D4E5 		ldrb	r3, [r4, #0]	@ zero_extendqisi2
 2322 20b0 033081E0 		add	r3, r1, r3
 2323 20b4 0030C4E5 		strb	r3, [r4, #0]
 2324 20b8 0C0D9FE5 		ldr	r0, .L284+304
 2325 20bc FEFFFFEB 		bl	uart_transmit
 2326 20c0 0310D5E5 		ldrb	r1, [r5, #3]	@ zero_extendqisi2
 2327 20c4 0030D4E5 		ldrb	r3, [r4, #0]	@ zero_extendqisi2
 2328 20c8 D85B9FE5 		ldr	r5, .L284+12
 2329 20cc 033081E0 		add	r3, r1, r3
 2330 20d0 0030C4E5 		strb	r3, [r4, #0]
 2331 20d4 F00C9FE5 		ldr	r0, .L284+304
 2332 20d8 FEFFFFEB 		bl	uart_transmit
 2333 20dc 0010D5E5 		ldrb	r1, [r5, #0]	@ zero_extendqisi2
 2334 20e0 0030D4E5 		ldrb	r3, [r4, #0]	@ zero_extendqisi2
 2335 20e4 033081E0 		add	r3, r1, r3
 2336 20e8 0030C4E5 		strb	r3, [r4, #0]
 2337 20ec D80C9FE5 		ldr	r0, .L284+304
 2338 20f0 FEFFFFEB 		bl	uart_transmit
 2339 20f4 0110D5E5 		ldrb	r1, [r5, #1]	@ zero_extendqisi2
 2340 20f8 0030D4E5 		ldrb	r3, [r4, #0]	@ zero_extendqisi2
 2341 20fc 033081E0 		add	r3, r1, r3
 2342 2100 0030C4E5 		strb	r3, [r4, #0]
 2343 2104 C00C9FE5 		ldr	r0, .L284+304
 2344 2108 FEFFFFEB 		bl	uart_transmit
 2345 210c 0210D5E5 		ldrb	r1, [r5, #2]	@ zero_extendqisi2
 2346 2110 0030D4E5 		ldrb	r3, [r4, #0]	@ zero_extendqisi2
 2347 2114 033081E0 		add	r3, r1, r3
 2348 2118 0030C4E5 		strb	r3, [r4, #0]
 2349 211c A80C9FE5 		ldr	r0, .L284+304
 2350 2120 FEFFFFEB 		bl	uart_transmit
 2351 2124 0310D5E5 		ldrb	r1, [r5, #3]	@ zero_extendqisi2
 2352 2128 0030D4E5 		ldrb	r3, [r4, #0]	@ zero_extendqisi2
 2353 212c 785B9FE5 		ldr	r5, .L284+16
 2354 2130 033081E0 		add	r3, r1, r3
 2355 2134 0030C4E5 		strb	r3, [r4, #0]
 2356 2138 8C0C9FE5 		ldr	r0, .L284+304
 2357 213c FEFFFFEB 		bl	uart_transmit
 2358 2140 0010D5E5 		ldrb	r1, [r5, #0]	@ zero_extendqisi2
 2359 2144 0030D4E5 		ldrb	r3, [r4, #0]	@ zero_extendqisi2
 2360 2148 033081E0 		add	r3, r1, r3
 2361 214c 0030C4E5 		strb	r3, [r4, #0]
 2362 2150 740C9FE5 		ldr	r0, .L284+304
 2363 2154 FEFFFFEB 		bl	uart_transmit
 2364 2158 0110D5E5 		ldrb	r1, [r5, #1]	@ zero_extendqisi2
 2365 215c 0030D4E5 		ldrb	r3, [r4, #0]	@ zero_extendqisi2
 2366 2160 033081E0 		add	r3, r1, r3
 2367 2164 0030C4E5 		strb	r3, [r4, #0]
 2368 2168 5C0C9FE5 		ldr	r0, .L284+304
 2369 216c FEFFFFEB 		bl	uart_transmit
 2370 2170 0210D5E5 		ldrb	r1, [r5, #2]	@ zero_extendqisi2
 2371 2174 0030D4E5 		ldrb	r3, [r4, #0]	@ zero_extendqisi2
 2372 2178 033081E0 		add	r3, r1, r3
 2373 217c 0030C4E5 		strb	r3, [r4, #0]
 2374 2180 440C9FE5 		ldr	r0, .L284+304
 2375 2184 FEFFFFEB 		bl	uart_transmit
 2376 2188 0310D5E5 		ldrb	r1, [r5, #3]	@ zero_extendqisi2
 2377 218c 0030D4E5 		ldrb	r3, [r4, #0]	@ zero_extendqisi2
 2378 2190 185B9FE5 		ldr	r5, .L284+20
 2379 2194 033081E0 		add	r3, r1, r3
 2380 2198 0030C4E5 		strb	r3, [r4, #0]
 2381 219c 280C9FE5 		ldr	r0, .L284+304
 2382 21a0 FEFFFFEB 		bl	uart_transmit
 2383 21a4 0010D5E5 		ldrb	r1, [r5, #0]	@ zero_extendqisi2
 2384 21a8 0030D4E5 		ldrb	r3, [r4, #0]	@ zero_extendqisi2
 2385 21ac 033081E0 		add	r3, r1, r3
 2386 21b0 0030C4E5 		strb	r3, [r4, #0]
 2387 21b4 100C9FE5 		ldr	r0, .L284+304
 2388 21b8 FEFFFFEB 		bl	uart_transmit
 2389 21bc 0110D5E5 		ldrb	r1, [r5, #1]	@ zero_extendqisi2
 2390 21c0 0030D4E5 		ldrb	r3, [r4, #0]	@ zero_extendqisi2
 2391 21c4 033081E0 		add	r3, r1, r3
 2392 21c8 0030C4E5 		strb	r3, [r4, #0]
 2393 21cc F80B9FE5 		ldr	r0, .L284+304
 2394 21d0 FEFFFFEB 		bl	uart_transmit
 2395 21d4 0210D5E5 		ldrb	r1, [r5, #2]	@ zero_extendqisi2
 2396 21d8 0030D4E5 		ldrb	r3, [r4, #0]	@ zero_extendqisi2
 2397 21dc 033081E0 		add	r3, r1, r3
 2398 21e0 0030C4E5 		strb	r3, [r4, #0]
 2399 21e4 E00B9FE5 		ldr	r0, .L284+304
 2400 21e8 FEFFFFEB 		bl	uart_transmit
 2401 21ec 0310D5E5 		ldrb	r1, [r5, #3]	@ zero_extendqisi2
 2402 21f0 700000EA 		b	.L261
 2403              	.L63:
 2404 21f4 0C0053E3 		cmp	r3, #12
 2405 21f8 7E00001A 		bne	.L64
 2406 21fc C80B9FE5 		ldr	r0, .L284+304
 2407 2200 1510A0E3 		mov	r1, #21
 2408 2204 FEFFFFEB 		bl	uart_check_free_space
 2409 2208 000050E3 		cmp	r0, #0
 2410 220c 7500000A 		beq	.L66
 2411 2210 A83B9FE5 		ldr	r3, .L284+292
 2412 2214 B020D3E1 		ldrh	r2, [r3, #0]
 2413 2218 152082E2 		add	r2, r2, #21
 2414 221c B020C3E1 		strh	r2, [r3, #0]	@ movhi
 2415 2220 9C3B9FE5 		ldr	r3, .L284+296
 2416 2224 B020D3E1 		ldrh	r2, [r3, #0]
 2417 2228 012082E2 		add	r2, r2, #1
 2418 222c B020C3E1 		strh	r2, [r3, #0]	@ movhi
 2419 2230 940B9FE5 		ldr	r0, .L284+304
 2420 2234 7E10A0E3 		mov	r1, #126
 2421 2238 884B9FE5 		ldr	r4, .L284+300
 2422 223c FEFFFFEB 		bl	uart_transmit
 2423 2240 840B9FE5 		ldr	r0, .L284+304
 2424 2244 0010A0E3 		mov	r1, #0
 2425 2248 0150A0E3 		mov	r5, #1
 2426 224c FEFFFFEB 		bl	uart_transmit
 2427 2250 740B9FE5 		ldr	r0, .L284+304
 2428 2254 1110A0E3 		mov	r1, #17
 2429 2258 FEFFFFEB 		bl	uart_transmit
 2430 225c 0510A0E1 		mov	r1, r5
 2431 2260 0050C4E5 		strb	r5, [r4, #0]
 2432 2264 600B9FE5 		ldr	r0, .L284+304
 2433 2268 FEFFFFEB 		bl	uart_transmit
 2434 226c 580B9FE5 		ldr	r0, .L284+304
 2435 2270 0010A0E3 		mov	r1, #0
 2436 2274 FEFFFFEB 		bl	uart_transmit
 2437 2278 0030D4E5 		ldrb	r3, [r4, #0]	@ zero_extendqisi2
 2438 227c 053083E0 		add	r3, r3, r5
 2439 2280 0030C4E5 		strb	r3, [r4, #0]
 2440 2284 0510A0E1 		mov	r1, r5
 2441 2288 3C0B9FE5 		ldr	r0, .L284+304
 2442 228c FEFFFFEB 		bl	uart_transmit
 2443 2290 340B9FE5 		ldr	r0, .L284+304
 2444 2294 0010A0E3 		mov	r1, #0
 2445 2298 FEFFFFEB 		bl	uart_transmit
 2446 229c 280B9FE5 		ldr	r0, .L284+304
 2447 22a0 0010A0E3 		mov	r1, #0
 2448 22a4 FEFFFFEB 		bl	uart_transmit
 2449 22a8 0030D4E5 		ldrb	r3, [r4, #0]	@ zero_extendqisi2
 2450 22ac 023083E2 		add	r3, r3, #2
 2451 22b0 0030C4E5 		strb	r3, [r4, #0]
 2452 22b4 100B9FE5 		ldr	r0, .L284+304
 2453 22b8 0210A0E3 		mov	r1, #2
 2454 22bc FEFFFFEB 		bl	uart_transmit
 2455 22c0 0030D4E5 		ldrb	r3, [r4, #0]	@ zero_extendqisi2
 2456 22c4 705A9FE5 		ldr	r5, .L284+160
 2457 22c8 073083E2 		add	r3, r3, #7
 2458 22cc 0030C4E5 		strb	r3, [r4, #0]
 2459 22d0 F40A9FE5 		ldr	r0, .L284+304
 2460 22d4 0710A0E3 		mov	r1, #7
 2461 22d8 FEFFFFEB 		bl	uart_transmit
 2462 22dc 0010D5E5 		ldrb	r1, [r5, #0]	@ zero_extendqisi2
 2463 22e0 0030D4E5 		ldrb	r3, [r4, #0]	@ zero_extendqisi2
 2464 22e4 033081E0 		add	r3, r1, r3
 2465 22e8 0030C4E5 		strb	r3, [r4, #0]
 2466 22ec D80A9FE5 		ldr	r0, .L284+304
 2467 22f0 FEFFFFEB 		bl	uart_transmit
 2468 22f4 0110D5E5 		ldrb	r1, [r5, #1]	@ zero_extendqisi2
 2469 22f8 0030D4E5 		ldrb	r3, [r4, #0]	@ zero_extendqisi2
 2470 22fc 033081E0 		add	r3, r1, r3
 2471 2300 0030C4E5 		strb	r3, [r4, #0]
 2472 2304 C00A9FE5 		ldr	r0, .L284+304
 2473 2308 FEFFFFEB 		bl	uart_transmit
 2474 230c 0210D5E5 		ldrb	r1, [r5, #2]	@ zero_extendqisi2
 2475 2310 0030D4E5 		ldrb	r3, [r4, #0]	@ zero_extendqisi2
 2476 2314 033081E0 		add	r3, r1, r3
 2477 2318 0030C4E5 		strb	r3, [r4, #0]
 2478 231c A80A9FE5 		ldr	r0, .L284+304
 2479 2320 FEFFFFEB 		bl	uart_transmit
 2480 2324 0310D5E5 		ldrb	r1, [r5, #3]	@ zero_extendqisi2
 2481 2328 0030D4E5 		ldrb	r3, [r4, #0]	@ zero_extendqisi2
 2482 232c 033081E0 		add	r3, r1, r3
 2483 2330 0030C4E5 		strb	r3, [r4, #0]
 2484 2334 900A9FE5 		ldr	r0, .L284+304
 2485 2338 FEFFFFEB 		bl	uart_transmit
 2486 233c 1610D5E5 		ldrb	r1, [r5, #22]	@ zero_extendqisi2
 2487 2340 0030D4E5 		ldrb	r3, [r4, #0]	@ zero_extendqisi2
 2488 2344 033081E0 		add	r3, r1, r3
 2489 2348 0030C4E5 		strb	r3, [r4, #0]
 2490 234c 780A9FE5 		ldr	r0, .L284+304
 2491 2350 FEFFFFEB 		bl	uart_transmit
 2492 2354 1710D5E5 		ldrb	r1, [r5, #23]	@ zero_extendqisi2
 2493 2358 0030D4E5 		ldrb	r3, [r4, #0]	@ zero_extendqisi2
 2494 235c 033081E0 		add	r3, r1, r3
 2495 2360 0030C4E5 		strb	r3, [r4, #0]
 2496 2364 600A9FE5 		ldr	r0, .L284+304
 2497 2368 FEFFFFEB 		bl	uart_transmit
 2498 236c 1410D5E5 		ldrb	r1, [r5, #20]	@ zero_extendqisi2
 2499 2370 0030D4E5 		ldrb	r3, [r4, #0]	@ zero_extendqisi2
 2500 2374 033081E0 		add	r3, r1, r3
 2501 2378 0030C4E5 		strb	r3, [r4, #0]
 2502 237c 480A9FE5 		ldr	r0, .L284+304
 2503 2380 FEFFFFEB 		bl	uart_transmit
 2504 2384 1510D5E5 		ldrb	r1, [r5, #21]	@ zero_extendqisi2
 2505 2388 0030D4E5 		ldrb	r3, [r4, #0]	@ zero_extendqisi2
 2506 238c 033081E0 		add	r3, r1, r3
 2507 2390 0030C4E5 		strb	r3, [r4, #0]
 2508 2394 300A9FE5 		ldr	r0, .L284+304
 2509 2398 FEFFFFEB 		bl	uart_transmit
 2510 239c 1810D5E5 		ldrb	r1, [r5, #24]	@ zero_extendqisi2
 2511 23a0 0030D4E5 		ldrb	r3, [r4, #0]	@ zero_extendqisi2
 2512 23a4 033081E0 		add	r3, r1, r3
 2513 23a8 0030C4E5 		strb	r3, [r4, #0]
 2514 23ac 180A9FE5 		ldr	r0, .L284+304
 2515 23b0 FEFFFFEB 		bl	uart_transmit
 2516 23b4 1910D5E5 		ldrb	r1, [r5, #25]	@ zero_extendqisi2
 2517              	.L261:
 2518 23b8 0030D4E5 		ldrb	r3, [r4, #0]	@ zero_extendqisi2
 2519 23bc 033081E0 		add	r3, r1, r3
 2520 23c0 0030C4E5 		strb	r3, [r4, #0]
 2521 23c4 000A9FE5 		ldr	r0, .L284+304
 2522 23c8 FEFFFFEB 		bl	uart_transmit
 2523 23cc 0010D4E5 		ldrb	r1, [r4, #0]	@ zero_extendqisi2
 2524 23d0 0110E0E1 		mvn	r1, r1
 2525 23d4 FF1001E2 		and	r1, r1, #255
 2526 23d8 0010C4E5 		strb	r1, [r4, #0]
 2527 23dc E8099FE5 		ldr	r0, .L284+304
 2528 23e0 FEFFFFEB 		bl	uart_transmit
 2529 23e4 030000EA 		b	.L64
 2530              	.L66:
 2531 23e8 70399FE5 		ldr	r3, .L284+196
 2532 23ec 0020D3E5 		ldrb	r2, [r3, #0]	@ zero_extendqisi2
 2533 23f0 012082E2 		add	r2, r2, #1
 2534 23f4 0020C3E5 		strb	r2, [r3, #0]
 2535              	.L64:
 2536 23f8 B4389FE5 		ldr	r3, .L284+24
 2537 23fc 0030D3E5 		ldrb	r3, [r3, #0]	@ zero_extendqisi2
 2538 2400 120053E3 		cmp	r3, #18
 2539 2404 9C00001A 		bne	.L67
 2540 2408 A8389FE5 		ldr	r3, .L284+28
 2541 240c 0020D3E5 		ldrb	r2, [r3, #0]	@ zero_extendqisi2
 2542 2410 0C0052E3 		cmp	r2, #12
 2543 2414 0020A083 		movhi	r2, #0
 2544 2418 0020C385 		strhib	r2, [r3, #0]
 2545 241c 0030D3E5 		ldrb	r3, [r3, #0]	@ zero_extendqisi2
 2546 2420 0C0053E3 		cmp	r3, #12
 2547 2424 03F19F97 		ldrls	pc, [pc, r3, asl #2]
 2548 2428 2C0000EA 		b	.L69
 2549              	.L83:
 2550 242c 60240000 		.word	.L70
 2551 2430 68240000 		.word	.L71
 2552 2434 7C240000 		.word	.L72
 2553 2438 84240000 		.word	.L73
 2554 243c 8C240000 		.word	.L74
 2555 2440 94240000 		.word	.L75
 2556 2444 A0240000 		.word	.L76
 2557 2448 AC240000 		.word	.L77
 2558 244c B4240000 		.word	.L78
 2559 2450 BC240000 		.word	.L79
 2560 2454 C4240000 		.word	.L80
 2561 2458 D0240000 		.word	.L81
 2562 245c D8240000 		.word	.L82
 2563              	.L70:
 2564 2460 FC389FE5 		ldr	r3, .L284+200
 2565 2464 000000EA 		b	.L262
 2566              	.L71:
 2567 2468 4C389FE5 		ldr	r3, .L284+32
 2568              	.L262:
 2569 246c 0000D3E5 		ldrb	r0, [r3, #0]	@ zero_extendqisi2
 2570              	.L263:
 2571 2470 FEFFFFEB 		bl	__aeabi_ui2f
 2572 2474 14008DE5 		str	r0, [sp, #20]	@ float
 2573 2478 1A0000EA 		b	.L84
 2574              	.L72:
 2575 247c 3C389FE5 		ldr	r3, .L284+36
 2576 2480 070000EA 		b	.L277
 2577              	.L73:
 2578 2484 38389FE5 		ldr	r3, .L284+40
 2579 2488 050000EA 		b	.L277
 2580              	.L74:
 2581 248c 34389FE5 		ldr	r3, .L284+44
 2582 2490 030000EA 		b	.L277
 2583              	.L75:
 2584 2494 30389FE5 		ldr	r3, .L284+48
 2585 2498 B000D3E1 		ldrh	r0, [r3, #0]
 2586 249c F3FFFFEA 		b	.L263
 2587              	.L76:
 2588 24a0 28389FE5 		ldr	r3, .L284+52
 2589              	.L277:
 2590 24a4 003093E5 		ldr	r3, [r3, #0]	@ float
 2591 24a8 0D0000EA 		b	.L264
 2592              	.L77:
 2593 24ac 74389FE5 		ldr	r3, .L284+140
 2594 24b0 EDFFFFEA 		b	.L262
 2595              	.L78:
 2596 24b4 18389FE5 		ldr	r3, .L284+56
 2597 24b8 EBFFFFEA 		b	.L262
 2598              	.L79:
 2599 24bc 14389FE5 		ldr	r3, .L284+60
 2600 24c0 E9FFFFEA 		b	.L262
 2601              	.L80:
 2602 24c4 E4389FE5 		ldr	r3, .L284+276
 2603 24c8 B00FD3E1 		ldrh	r0, [r3, #240]
 2604 24cc E7FFFFEA 		b	.L263
 2605              	.L81:
 2606 24d0 04389FE5 		ldr	r3, .L284+64
 2607 24d4 E4FFFFEA 		b	.L262
 2608              	.L82:
 2609 24d8 00389FE5 		ldr	r3, .L284+68
 2610 24dc E2FFFFEA 		b	.L262
 2611              	.L69:
 2612 24e0 0030A0E3 		mov	r3, #0
 2613              	.L264:
 2614 24e4 14308DE5 		str	r3, [sp, #20]	@ float
 2615              	.L84:
 2616 24e8 DC089FE5 		ldr	r0, .L284+304
 2617 24ec 1010A0E3 		mov	r1, #16
 2618 24f0 FEFFFFEB 		bl	uart_check_free_space
 2619 24f4 000050E3 		cmp	r0, #0
 2620 24f8 5700000A 		beq	.L85
 2621 24fc BC389FE5 		ldr	r3, .L284+292
 2622 2500 B020D3E1 		ldrh	r2, [r3, #0]
 2623 2504 102082E2 		add	r2, r2, #16
 2624 2508 B020C3E1 		strh	r2, [r3, #0]	@ movhi
 2625 250c B0389FE5 		ldr	r3, .L284+296
 2626 2510 B020D3E1 		ldrh	r2, [r3, #0]
 2627 2514 012082E2 		add	r2, r2, #1
 2628 2518 B020C3E1 		strh	r2, [r3, #0]	@ movhi
 2629 251c A8089FE5 		ldr	r0, .L284+304
 2630 2520 7E10A0E3 		mov	r1, #126
 2631 2524 9C489FE5 		ldr	r4, .L284+300
 2632 2528 FEFFFFEB 		bl	uart_transmit
 2633 252c 98089FE5 		ldr	r0, .L284+304
 2634 2530 0010A0E3 		mov	r1, #0
 2635 2534 FEFFFFEB 		bl	uart_transmit
 2636 2538 0150A0E3 		mov	r5, #1
 2637 253c 88089FE5 		ldr	r0, .L284+304
 2638 2540 0C10A0E3 		mov	r1, #12
 2639 2544 FEFFFFEB 		bl	uart_transmit
 2640 2548 0510A0E1 		mov	r1, r5
 2641 254c 0050C4E5 		strb	r5, [r4, #0]
 2642 2550 74089FE5 		ldr	r0, .L284+304
 2643 2554 FEFFFFEB 		bl	uart_transmit
 2644 2558 6C089FE5 		ldr	r0, .L284+304
 2645 255c 0010A0E3 		mov	r1, #0
 2646 2560 FEFFFFEB 		bl	uart_transmit
 2647 2564 0030D4E5 		ldrb	r3, [r4, #0]	@ zero_extendqisi2
 2648 2568 053083E0 		add	r3, r3, r5
 2649 256c 0030C4E5 		strb	r3, [r4, #0]
 2650 2570 0510A0E1 		mov	r1, r5
 2651 2574 50089FE5 		ldr	r0, .L284+304
 2652 2578 FEFFFFEB 		bl	uart_transmit
 2653 257c 48089FE5 		ldr	r0, .L284+304
 2654 2580 0010A0E3 		mov	r1, #0
 2655 2584 FEFFFFEB 		bl	uart_transmit
 2656 2588 3C089FE5 		ldr	r0, .L284+304
 2657 258c 0010A0E3 		mov	r1, #0
 2658 2590 FEFFFFEB 		bl	uart_transmit
 2659 2594 0030D4E5 		ldrb	r3, [r4, #0]	@ zero_extendqisi2
 2660 2598 023083E2 		add	r3, r3, #2
 2661 259c 0030C4E5 		strb	r3, [r4, #0]
 2662 25a0 24089FE5 		ldr	r0, .L284+304
 2663 25a4 0210A0E3 		mov	r1, #2
 2664 25a8 FEFFFFEB 		bl	uart_transmit
 2665 25ac 0030D4E5 		ldrb	r3, [r4, #0]	@ zero_extendqisi2
 2666 25b0 1F3083E2 		add	r3, r3, #31
 2667 25b4 0030C4E5 		strb	r3, [r4, #0]
 2668 25b8 0C089FE5 		ldr	r0, .L284+304
 2669 25bc 1F10A0E3 		mov	r1, #31
 2670 25c0 FEFFFFEB 		bl	uart_transmit
 2671 25c4 EC369FE5 		ldr	r3, .L284+28
 2672 25c8 0010D3E5 		ldrb	r1, [r3, #0]	@ zero_extendqisi2
 2673 25cc 0030D4E5 		ldrb	r3, [r4, #0]	@ zero_extendqisi2
 2674 25d0 033081E0 		add	r3, r1, r3
 2675 25d4 0030C4E5 		strb	r3, [r4, #0]
 2676 25d8 EC079FE5 		ldr	r0, .L284+304
 2677 25dc FEFFFFEB 		bl	uart_transmit
 2678 25e0 1410DDE5 		ldrb	r1, [sp, #20]	@ zero_extendqisi2
 2679 25e4 0030D4E5 		ldrb	r3, [r4, #0]	@ zero_extendqisi2
 2680 25e8 033081E0 		add	r3, r1, r3
 2681 25ec 0030C4E5 		strb	r3, [r4, #0]
 2682 25f0 D4079FE5 		ldr	r0, .L284+304
 2683 25f4 FEFFFFEB 		bl	uart_transmit
 2684 25f8 1510DDE5 		ldrb	r1, [sp, #21]	@ zero_extendqisi2
 2685 25fc 0030D4E5 		ldrb	r3, [r4, #0]	@ zero_extendqisi2
 2686 2600 033081E0 		add	r3, r1, r3
 2687 2604 0030C4E5 		strb	r3, [r4, #0]
 2688 2608 BC079FE5 		ldr	r0, .L284+304
 2689 260c FEFFFFEB 		bl	uart_transmit
 2690 2610 1610DDE5 		ldrb	r1, [sp, #22]	@ zero_extendqisi2
 2691 2614 0030D4E5 		ldrb	r3, [r4, #0]	@ zero_extendqisi2
 2692 2618 033081E0 		add	r3, r1, r3
 2693 261c 0030C4E5 		strb	r3, [r4, #0]
 2694 2620 A4079FE5 		ldr	r0, .L284+304
 2695 2624 FEFFFFEB 		bl	uart_transmit
 2696 2628 1710DDE5 		ldrb	r1, [sp, #23]	@ zero_extendqisi2
 2697 262c 0030D4E5 		ldrb	r3, [r4, #0]	@ zero_extendqisi2
 2698 2630 033081E0 		add	r3, r1, r3
 2699 2634 0030C4E5 		strb	r3, [r4, #0]
 2700 2638 8C079FE5 		ldr	r0, .L284+304
 2701 263c FEFFFFEB 		bl	uart_transmit
 2702 2640 0010D4E5 		ldrb	r1, [r4, #0]	@ zero_extendqisi2
 2703 2644 0110E0E1 		mvn	r1, r1
 2704 2648 FF1001E2 		and	r1, r1, #255
 2705 264c 0010C4E5 		strb	r1, [r4, #0]
 2706 2650 74079FE5 		ldr	r0, .L284+304
 2707 2654 FEFFFFEB 		bl	uart_transmit
 2708 2658 030000EA 		b	.L86
 2709              	.L85:
 2710 265c FC369FE5 		ldr	r3, .L284+196
 2711 2660 0020D3E5 		ldrb	r2, [r3, #0]	@ zero_extendqisi2
 2712 2664 012082E2 		add	r2, r2, #1
 2713 2668 0020C3E5 		strb	r2, [r3, #0]
 2714              	.L86:
 2715 266c 44369FE5 		ldr	r3, .L284+28
 2716 2670 0020D3E5 		ldrb	r2, [r3, #0]	@ zero_extendqisi2
 2717 2674 012082E2 		add	r2, r2, #1
 2718 2678 0020C3E5 		strb	r2, [r3, #0]
 2719              	.L67:
 2720 267c 60369FE5 		ldr	r3, .L284+72
 2721 2680 0030D3E5 		ldrb	r3, [r3, #0]	@ zero_extendqisi2
 2722 2684 180053E3 		cmp	r3, #24
 2723 2688 8400001A 		bne	.L87
 2724 268c 38079FE5 		ldr	r0, .L284+304
 2725 2690 1610A0E3 		mov	r1, #22
 2726 2694 FEFFFFEB 		bl	uart_check_free_space
 2727 2698 000050E3 		cmp	r0, #0
 2728 269c 7B00000A 		beq	.L88
 2729 26a0 18379FE5 		ldr	r3, .L284+292
 2730 26a4 B020D3E1 		ldrh	r2, [r3, #0]
 2731 26a8 162082E2 		add	r2, r2, #22
 2732 26ac B020C3E1 		strh	r2, [r3, #0]	@ movhi
 2733 26b0 0C379FE5 		ldr	r3, .L284+296
 2734 26b4 B020D3E1 		ldrh	r2, [r3, #0]
 2735 26b8 012082E2 		add	r2, r2, #1
 2736 26bc B020C3E1 		strh	r2, [r3, #0]	@ movhi
 2737 26c0 04079FE5 		ldr	r0, .L284+304
 2738 26c4 7E10A0E3 		mov	r1, #126
 2739 26c8 F8469FE5 		ldr	r4, .L284+300
 2740 26cc FEFFFFEB 		bl	uart_transmit
 2741 26d0 F4069FE5 		ldr	r0, .L284+304
 2742 26d4 0010A0E3 		mov	r1, #0
 2743 26d8 FEFFFFEB 		bl	uart_transmit
 2744 26dc 0150A0E3 		mov	r5, #1
 2745 26e0 E4069FE5 		ldr	r0, .L284+304
 2746 26e4 1210A0E3 		mov	r1, #18
 2747 26e8 FEFFFFEB 		bl	uart_transmit
 2748 26ec 0050C4E5 		strb	r5, [r4, #0]
 2749 26f0 0510A0E1 		mov	r1, r5
 2750 26f4 D0069FE5 		ldr	r0, .L284+304
 2751 26f8 FEFFFFEB 		bl	uart_transmit
 2752 26fc C8069FE5 		ldr	r0, .L284+304
 2753 2700 0010A0E3 		mov	r1, #0
 2754 2704 FEFFFFEB 		bl	uart_transmit
 2755 2708 0030D4E5 		ldrb	r3, [r4, #0]	@ zero_extendqisi2
 2756 270c 053083E0 		add	r3, r3, r5
 2757 2710 0030C4E5 		strb	r3, [r4, #0]
 2758 2714 0510A0E1 		mov	r1, r5
 2759 2718 AC069FE5 		ldr	r0, .L284+304
 2760 271c FEFFFFEB 		bl	uart_transmit
 2761 2720 A4069FE5 		ldr	r0, .L284+304
 2762 2724 0010A0E3 		mov	r1, #0
 2763 2728 FEFFFFEB 		bl	uart_transmit
 2764 272c 98069FE5 		ldr	r0, .L284+304
 2765 2730 0010A0E3 		mov	r1, #0
 2766 2734 FEFFFFEB 		bl	uart_transmit
 2767 2738 0030D4E5 		ldrb	r3, [r4, #0]	@ zero_extendqisi2
 2768 273c 023083E2 		add	r3, r3, #2
 2769 2740 0030C4E5 		strb	r3, [r4, #0]
 2770 2744 80069FE5 		ldr	r0, .L284+304
 2771 2748 0210A0E3 		mov	r1, #2
 2772 274c FEFFFFEB 		bl	uart_transmit
 2773 2750 0030D4E5 		ldrb	r3, [r4, #0]	@ zero_extendqisi2
 2774 2754 54569FE5 		ldr	r5, .L284+276
 2775 2758 113083E2 		add	r3, r3, #17
 2776 275c 0030C4E5 		strb	r3, [r4, #0]
 2777 2760 64069FE5 		ldr	r0, .L284+304
 2778 2764 1110A0E3 		mov	r1, #17
 2779 2768 FEFFFFEB 		bl	uart_transmit
 2780 276c 4C10D5E5 		ldrb	r1, [r5, #76]	@ zero_extendqisi2
 2781 2770 0030D4E5 		ldrb	r3, [r4, #0]	@ zero_extendqisi2
 2782 2774 033081E0 		add	r3, r1, r3
 2783 2778 0030C4E5 		strb	r3, [r4, #0]
 2784 277c 48069FE5 		ldr	r0, .L284+304
 2785 2780 FEFFFFEB 		bl	uart_transmit
 2786 2784 4D10D5E5 		ldrb	r1, [r5, #77]	@ zero_extendqisi2
 2787 2788 0030D4E5 		ldrb	r3, [r4, #0]	@ zero_extendqisi2
 2788 278c 033081E0 		add	r3, r1, r3
 2789 2790 0030C4E5 		strb	r3, [r4, #0]
 2790 2794 30069FE5 		ldr	r0, .L284+304
 2791 2798 FEFFFFEB 		bl	uart_transmit
 2792 279c 4E10D5E5 		ldrb	r1, [r5, #78]	@ zero_extendqisi2
 2793 27a0 0030D4E5 		ldrb	r3, [r4, #0]	@ zero_extendqisi2
 2794 27a4 033081E0 		add	r3, r1, r3
 2795 27a8 0030C4E5 		strb	r3, [r4, #0]
 2796 27ac 18069FE5 		ldr	r0, .L284+304
 2797 27b0 FEFFFFEB 		bl	uart_transmit
 2798 27b4 4F10D5E5 		ldrb	r1, [r5, #79]	@ zero_extendqisi2
 2799 27b8 0030D4E5 		ldrb	r3, [r4, #0]	@ zero_extendqisi2
 2800 27bc 033081E0 		add	r3, r1, r3
 2801 27c0 0030C4E5 		strb	r3, [r4, #0]
 2802 27c4 00069FE5 		ldr	r0, .L284+304
 2803 27c8 FEFFFFEB 		bl	uart_transmit
 2804 27cc 5010D5E5 		ldrb	r1, [r5, #80]	@ zero_extendqisi2
 2805 27d0 0030D4E5 		ldrb	r3, [r4, #0]	@ zero_extendqisi2
 2806 27d4 033081E0 		add	r3, r1, r3
 2807 27d8 0030C4E5 		strb	r3, [r4, #0]
 2808 27dc E8059FE5 		ldr	r0, .L284+304
 2809 27e0 FEFFFFEB 		bl	uart_transmit
 2810 27e4 5110D5E5 		ldrb	r1, [r5, #81]	@ zero_extendqisi2
 2811 27e8 0030D4E5 		ldrb	r3, [r4, #0]	@ zero_extendqisi2
 2812 27ec 033081E0 		add	r3, r1, r3
 2813 27f0 0030C4E5 		strb	r3, [r4, #0]
 2814 27f4 D0059FE5 		ldr	r0, .L284+304
 2815 27f8 FEFFFFEB 		bl	uart_transmit
 2816 27fc 5210D5E5 		ldrb	r1, [r5, #82]	@ zero_extendqisi2
 2817 2800 0030D4E5 		ldrb	r3, [r4, #0]	@ zero_extendqisi2
 2818 2804 033081E0 		add	r3, r1, r3
 2819 2808 0030C4E5 		strb	r3, [r4, #0]
 2820 280c B8059FE5 		ldr	r0, .L284+304
 2821 2810 FEFFFFEB 		bl	uart_transmit
 2822 2814 5310D5E5 		ldrb	r1, [r5, #83]	@ zero_extendqisi2
 2823 2818 0030D4E5 		ldrb	r3, [r4, #0]	@ zero_extendqisi2
 2824 281c 033081E0 		add	r3, r1, r3
 2825 2820 0030C4E5 		strb	r3, [r4, #0]
 2826 2824 A0059FE5 		ldr	r0, .L284+304
 2827 2828 FEFFFFEB 		bl	uart_transmit
 2828 282c 5810D5E5 		ldrb	r1, [r5, #88]	@ zero_extendqisi2
 2829 2830 0030D4E5 		ldrb	r3, [r4, #0]	@ zero_extendqisi2
 2830 2834 033081E0 		add	r3, r1, r3
 2831 2838 0030C4E5 		strb	r3, [r4, #0]
 2832 283c 88059FE5 		ldr	r0, .L284+304
 2833 2840 FEFFFFEB 		bl	uart_transmit
 2834 2844 5910D5E5 		ldrb	r1, [r5, #89]	@ zero_extendqisi2
 2835 2848 0030D4E5 		ldrb	r3, [r4, #0]	@ zero_extendqisi2
 2836 284c 033081E0 		add	r3, r1, r3
 2837 2850 0030C4E5 		strb	r3, [r4, #0]
 2838 2854 70059FE5 		ldr	r0, .L284+304
 2839 2858 FEFFFFEB 		bl	uart_transmit
 2840 285c 5A10D5E5 		ldrb	r1, [r5, #90]	@ zero_extendqisi2
 2841 2860 0030D4E5 		ldrb	r3, [r4, #0]	@ zero_extendqisi2
 2842 2864 033081E0 		add	r3, r1, r3
 2843 2868 0030C4E5 		strb	r3, [r4, #0]
 2844 286c 58059FE5 		ldr	r0, .L284+304
 2845 2870 FEFFFFEB 		bl	uart_transmit
 2846 2874 0010D4E5 		ldrb	r1, [r4, #0]	@ zero_extendqisi2
 2847 2878 0110E0E1 		mvn	r1, r1
 2848 287c FF1001E2 		and	r1, r1, #255
 2849 2880 0010C4E5 		strb	r1, [r4, #0]
 2850 2884 40059FE5 		ldr	r0, .L284+304
 2851 2888 FEFFFFEB 		bl	uart_transmit
 2852 288c 030000EA 		b	.L87
 2853              	.L88:
 2854 2890 C8349FE5 		ldr	r3, .L284+196
 2855 2894 0020D3E5 		ldrb	r2, [r3, #0]	@ zero_extendqisi2
 2856 2898 012082E2 		add	r2, r2, #1
 2857 289c 0020C3E5 		strb	r2, [r3, #0]
 2858              	.L87:
 2859 28a0 40349FE5 		ldr	r3, .L284+76
 2860 28a4 0030D3E5 		ldrb	r3, [r3, #0]	@ zero_extendqisi2
 2861 28a8 1E0053E3 		cmp	r3, #30
 2862 28ac 5200001A 		bne	.L89
 2863 28b0 14059FE5 		ldr	r0, .L284+304
 2864 28b4 1010A0E3 		mov	r1, #16
 2865 28b8 FEFFFFEB 		bl	uart_check_free_space
 2866 28bc 000050E3 		cmp	r0, #0
 2867 28c0 4201000A 		beq	.L92
 2868 28c4 F4349FE5 		ldr	r3, .L284+292
 2869 28c8 B020D3E1 		ldrh	r2, [r3, #0]
 2870 28cc 102082E2 		add	r2, r2, #16
 2871 28d0 B020C3E1 		strh	r2, [r3, #0]	@ movhi
 2872 28d4 E8349FE5 		ldr	r3, .L284+296
 2873 28d8 B020D3E1 		ldrh	r2, [r3, #0]
 2874 28dc 012082E2 		add	r2, r2, #1
 2875 28e0 B020C3E1 		strh	r2, [r3, #0]	@ movhi
 2876 28e4 E0049FE5 		ldr	r0, .L284+304
 2877 28e8 7E10A0E3 		mov	r1, #126
 2878 28ec D4449FE5 		ldr	r4, .L284+300
 2879 28f0 FEFFFFEB 		bl	uart_transmit
 2880 28f4 D0049FE5 		ldr	r0, .L284+304
 2881 28f8 0010A0E3 		mov	r1, #0
 2882 28fc 0150A0E3 		mov	r5, #1
 2883 2900 FEFFFFEB 		bl	uart_transmit
 2884 2904 C0049FE5 		ldr	r0, .L284+304
 2885 2908 0C10A0E3 		mov	r1, #12
 2886 290c FEFFFFEB 		bl	uart_transmit
 2887 2910 0510A0E1 		mov	r1, r5
 2888 2914 0050C4E5 		strb	r5, [r4, #0]
 2889 2918 AC049FE5 		ldr	r0, .L284+304
 2890 291c FEFFFFEB 		bl	uart_transmit
 2891 2920 A4049FE5 		ldr	r0, .L284+304
 2892 2924 0010A0E3 		mov	r1, #0
 2893 2928 FEFFFFEB 		bl	uart_transmit
 2894 292c 0030D4E5 		ldrb	r3, [r4, #0]	@ zero_extendqisi2
 2895 2930 053083E0 		add	r3, r3, r5
 2896 2934 0030C4E5 		strb	r3, [r4, #0]
 2897 2938 0510A0E1 		mov	r1, r5
 2898 293c 88049FE5 		ldr	r0, .L284+304
 2899 2940 FEFFFFEB 		bl	uart_transmit
 2900 2944 80049FE5 		ldr	r0, .L284+304
 2901 2948 0010A0E3 		mov	r1, #0
 2902 294c FEFFFFEB 		bl	uart_transmit
 2903 2950 74049FE5 		ldr	r0, .L284+304
 2904 2954 0010A0E3 		mov	r1, #0
 2905 2958 FEFFFFEB 		bl	uart_transmit
 2906 295c 0030D4E5 		ldrb	r3, [r4, #0]	@ zero_extendqisi2
 2907 2960 023083E2 		add	r3, r3, #2
 2908 2964 0030C4E5 		strb	r3, [r4, #0]
 2909 2968 5C049FE5 		ldr	r0, .L284+304
 2910 296c 0210A0E3 		mov	r1, #2
 2911 2970 FEFFFFEB 		bl	uart_transmit
 2912 2974 0030D4E5 		ldrb	r3, [r4, #0]	@ zero_extendqisi2
 2913 2978 6C539FE5 		ldr	r5, .L284+80
 2914 297c 0E3083E2 		add	r3, r3, #14
 2915 2980 0030C4E5 		strb	r3, [r4, #0]
 2916 2984 40049FE5 		ldr	r0, .L284+304
 2917 2988 0E10A0E3 		mov	r1, #14
 2918 298c FEFFFFEB 		bl	uart_transmit
 2919 2990 0010D5E5 		ldrb	r1, [r5, #0]	@ zero_extendqisi2
 2920 2994 0030D4E5 		ldrb	r3, [r4, #0]	@ zero_extendqisi2
 2921 2998 033081E0 		add	r3, r1, r3
 2922 299c 0030C4E5 		strb	r3, [r4, #0]
 2923 29a0 24049FE5 		ldr	r0, .L284+304
 2924 29a4 FEFFFFEB 		bl	uart_transmit
 2925 29a8 0110D5E5 		ldrb	r1, [r5, #1]	@ zero_extendqisi2
 2926 29ac 0030D4E5 		ldrb	r3, [r4, #0]	@ zero_extendqisi2
 2927 29b0 033081E0 		add	r3, r1, r3
 2928 29b4 0030C4E5 		strb	r3, [r4, #0]
 2929 29b8 0C049FE5 		ldr	r0, .L284+304
 2930 29bc FEFFFFEB 		bl	uart_transmit
 2931 29c0 0210D5E5 		ldrb	r1, [r5, #2]	@ zero_extendqisi2
 2932 29c4 0030D4E5 		ldrb	r3, [r4, #0]	@ zero_extendqisi2
 2933 29c8 033081E0 		add	r3, r1, r3
 2934 29cc 0030C4E5 		strb	r3, [r4, #0]
 2935 29d0 F4039FE5 		ldr	r0, .L284+304
 2936 29d4 FEFFFFEB 		bl	uart_transmit
 2937 29d8 0310D5E5 		ldrb	r1, [r5, #3]	@ zero_extendqisi2
 2938 29dc 0030D4E5 		ldrb	r3, [r4, #0]	@ zero_extendqisi2
 2939 29e0 033081E0 		add	r3, r1, r3
 2940 29e4 0030C4E5 		strb	r3, [r4, #0]
 2941 29e8 DC039FE5 		ldr	r0, .L284+304
 2942 29ec FEFFFFEB 		bl	uart_transmit
 2943 29f0 F8329FE5 		ldr	r3, .L284+84
 2944 29f4 0010D3E5 		ldrb	r1, [r3, #0]	@ zero_extendqisi2
 2945 29f8 9B0000EA 		b	.L265
 2946              	.L89:
 2947 29fc 240053E3 		cmp	r3, #36
 2948 2a00 F600001A 		bne	.L91
 2949 2a04 E8329FE5 		ldr	r3, .L284+88
 2950 2a08 0030D3E5 		ldrb	r3, [r3, #0]	@ zero_extendqisi2
 2951 2a0c 000053E3 		cmp	r3, #0
 2952 2a10 F200000A 		beq	.L91
 2953 2a14 B0039FE5 		ldr	r0, .L284+304
 2954 2a18 1B10A0E3 		mov	r1, #27
 2955 2a1c FEFFFFEB 		bl	uart_check_free_space
 2956 2a20 000050E3 		cmp	r0, #0
 2957 2a24 E900000A 		beq	.L92
 2958 2a28 90339FE5 		ldr	r3, .L284+292
 2959 2a2c B020D3E1 		ldrh	r2, [r3, #0]
 2960 2a30 1B2082E2 		add	r2, r2, #27
 2961 2a34 B020C3E1 		strh	r2, [r3, #0]	@ movhi
 2962 2a38 84339FE5 		ldr	r3, .L284+296
 2963 2a3c B020D3E1 		ldrh	r2, [r3, #0]
 2964 2a40 012082E2 		add	r2, r2, #1
 2965 2a44 B020C3E1 		strh	r2, [r3, #0]	@ movhi
 2966 2a48 7C039FE5 		ldr	r0, .L284+304
 2967 2a4c 7E10A0E3 		mov	r1, #126
 2968 2a50 70439FE5 		ldr	r4, .L284+300
 2969 2a54 FEFFFFEB 		bl	uart_transmit
 2970 2a58 6C039FE5 		ldr	r0, .L284+304
 2971 2a5c 0010A0E3 		mov	r1, #0
 2972 2a60 0150A0E3 		mov	r5, #1
 2973 2a64 FEFFFFEB 		bl	uart_transmit
 2974 2a68 5C039FE5 		ldr	r0, .L284+304
 2975 2a6c 1710A0E3 		mov	r1, #23
 2976 2a70 FEFFFFEB 		bl	uart_transmit
 2977 2a74 0510A0E1 		mov	r1, r5
 2978 2a78 0050C4E5 		strb	r5, [r4, #0]
 2979 2a7c 48039FE5 		ldr	r0, .L284+304
 2980 2a80 FEFFFFEB 		bl	uart_transmit
 2981 2a84 40039FE5 		ldr	r0, .L284+304
 2982 2a88 0010A0E3 		mov	r1, #0
 2983 2a8c FEFFFFEB 		bl	uart_transmit
 2984 2a90 0030D4E5 		ldrb	r3, [r4, #0]	@ zero_extendqisi2
 2985 2a94 053083E0 		add	r3, r3, r5
 2986 2a98 0030C4E5 		strb	r3, [r4, #0]
 2987 2a9c 0510A0E1 		mov	r1, r5
 2988 2aa0 24039FE5 		ldr	r0, .L284+304
 2989 2aa4 FEFFFFEB 		bl	uart_transmit
 2990 2aa8 1C039FE5 		ldr	r0, .L284+304
 2991 2aac 0010A0E3 		mov	r1, #0
 2992 2ab0 FEFFFFEB 		bl	uart_transmit
 2993 2ab4 10039FE5 		ldr	r0, .L284+304
 2994 2ab8 0010A0E3 		mov	r1, #0
 2995 2abc FEFFFFEB 		bl	uart_transmit
 2996 2ac0 0030D4E5 		ldrb	r3, [r4, #0]	@ zero_extendqisi2
 2997 2ac4 023083E2 		add	r3, r3, #2
 2998 2ac8 0030C4E5 		strb	r3, [r4, #0]
 2999 2acc F8029FE5 		ldr	r0, .L284+304
 3000 2ad0 0210A0E3 		mov	r1, #2
 3001 2ad4 FEFFFFEB 		bl	uart_transmit
 3002 2ad8 0030D4E5 		ldrb	r3, [r4, #0]	@ zero_extendqisi2
 3003 2adc 14529FE5 		ldr	r5, .L284+92
 3004 2ae0 1B3083E2 		add	r3, r3, #27
 3005 2ae4 0030C4E5 		strb	r3, [r4, #0]
 3006 2ae8 DC029FE5 		ldr	r0, .L284+304
 3007 2aec 1B10A0E3 		mov	r1, #27
 3008 2af0 FEFFFFEB 		bl	uart_transmit
 3009 2af4 0010D5E5 		ldrb	r1, [r5, #0]	@ zero_extendqisi2
 3010 2af8 0030D4E5 		ldrb	r3, [r4, #0]	@ zero_extendqisi2
 3011 2afc 033081E0 		add	r3, r1, r3
 3012 2b00 0030C4E5 		strb	r3, [r4, #0]
 3013 2b04 C0029FE5 		ldr	r0, .L284+304
 3014 2b08 FEFFFFEB 		bl	uart_transmit
 3015 2b0c 0110D5E5 		ldrb	r1, [r5, #1]	@ zero_extendqisi2
 3016 2b10 0030D4E5 		ldrb	r3, [r4, #0]	@ zero_extendqisi2
 3017 2b14 033081E0 		add	r3, r1, r3
 3018 2b18 0030C4E5 		strb	r3, [r4, #0]
 3019 2b1c A8029FE5 		ldr	r0, .L284+304
 3020 2b20 FEFFFFEB 		bl	uart_transmit
 3021 2b24 0210D5E5 		ldrb	r1, [r5, #2]	@ zero_extendqisi2
 3022 2b28 0030D4E5 		ldrb	r3, [r4, #0]	@ zero_extendqisi2
 3023 2b2c 033081E0 		add	r3, r1, r3
 3024 2b30 0030C4E5 		strb	r3, [r4, #0]
 3025 2b34 90029FE5 		ldr	r0, .L284+304
 3026 2b38 FEFFFFEB 		bl	uart_transmit
 3027 2b3c 0310D5E5 		ldrb	r1, [r5, #3]	@ zero_extendqisi2
 3028 2b40 0030D4E5 		ldrb	r3, [r4, #0]	@ zero_extendqisi2
 3029 2b44 B0519FE5 		ldr	r5, .L284+96
 3030 2b48 033081E0 		add	r3, r1, r3
 3031 2b4c 0030C4E5 		strb	r3, [r4, #0]
 3032 2b50 74029FE5 		ldr	r0, .L284+304
 3033 2b54 FEFFFFEB 		bl	uart_transmit
 3034 2b58 0010D5E5 		ldrb	r1, [r5, #0]	@ zero_extendqisi2
 3035 2b5c 0030D4E5 		ldrb	r3, [r4, #0]	@ zero_extendqisi2
 3036 2b60 033081E0 		add	r3, r1, r3
 3037 2b64 0030C4E5 		strb	r3, [r4, #0]
 3038 2b68 5C029FE5 		ldr	r0, .L284+304
 3039 2b6c FEFFFFEB 		bl	uart_transmit
 3040 2b70 0110D5E5 		ldrb	r1, [r5, #1]	@ zero_extendqisi2
 3041 2b74 0030D4E5 		ldrb	r3, [r4, #0]	@ zero_extendqisi2
 3042 2b78 033081E0 		add	r3, r1, r3
 3043 2b7c 0030C4E5 		strb	r3, [r4, #0]
 3044 2b80 44029FE5 		ldr	r0, .L284+304
 3045 2b84 FEFFFFEB 		bl	uart_transmit
 3046 2b88 0210D5E5 		ldrb	r1, [r5, #2]	@ zero_extendqisi2
 3047 2b8c 0030D4E5 		ldrb	r3, [r4, #0]	@ zero_extendqisi2
 3048 2b90 033081E0 		add	r3, r1, r3
 3049 2b94 0030C4E5 		strb	r3, [r4, #0]
 3050 2b98 2C029FE5 		ldr	r0, .L284+304
 3051 2b9c FEFFFFEB 		bl	uart_transmit
 3052 2ba0 0310D5E5 		ldrb	r1, [r5, #3]	@ zero_extendqisi2
 3053 2ba4 0030D4E5 		ldrb	r3, [r4, #0]	@ zero_extendqisi2
 3054 2ba8 50519FE5 		ldr	r5, .L284+100
 3055 2bac 033081E0 		add	r3, r1, r3
 3056 2bb0 0030C4E5 		strb	r3, [r4, #0]
 3057 2bb4 10029FE5 		ldr	r0, .L284+304
 3058 2bb8 FEFFFFEB 		bl	uart_transmit
 3059 2bbc 0010D5E5 		ldrb	r1, [r5, #0]	@ zero_extendqisi2
 3060 2bc0 0030D4E5 		ldrb	r3, [r4, #0]	@ zero_extendqisi2
 3061 2bc4 033081E0 		add	r3, r1, r3
 3062 2bc8 0030C4E5 		strb	r3, [r4, #0]
 3063 2bcc F8019FE5 		ldr	r0, .L284+304
 3064 2bd0 FEFFFFEB 		bl	uart_transmit
 3065 2bd4 0110D5E5 		ldrb	r1, [r5, #1]	@ zero_extendqisi2
 3066 2bd8 0030D4E5 		ldrb	r3, [r4, #0]	@ zero_extendqisi2
 3067 2bdc 033081E0 		add	r3, r1, r3
 3068 2be0 0030C4E5 		strb	r3, [r4, #0]
 3069 2be4 E0019FE5 		ldr	r0, .L284+304
 3070 2be8 FEFFFFEB 		bl	uart_transmit
 3071 2bec 0210D5E5 		ldrb	r1, [r5, #2]	@ zero_extendqisi2
 3072 2bf0 0030D4E5 		ldrb	r3, [r4, #0]	@ zero_extendqisi2
 3073 2bf4 033081E0 		add	r3, r1, r3
 3074 2bf8 0030C4E5 		strb	r3, [r4, #0]
 3075 2bfc C8019FE5 		ldr	r0, .L284+304
 3076 2c00 FEFFFFEB 		bl	uart_transmit
 3077 2c04 0310D5E5 		ldrb	r1, [r5, #3]	@ zero_extendqisi2
 3078 2c08 0030D4E5 		ldrb	r3, [r4, #0]	@ zero_extendqisi2
 3079 2c0c F0509FE5 		ldr	r5, .L284+104
 3080 2c10 033081E0 		add	r3, r1, r3
 3081 2c14 0030C4E5 		strb	r3, [r4, #0]
 3082 2c18 AC019FE5 		ldr	r0, .L284+304
 3083 2c1c FEFFFFEB 		bl	uart_transmit
 3084 2c20 0010D5E5 		ldrb	r1, [r5, #0]	@ zero_extendqisi2
 3085 2c24 0030D4E5 		ldrb	r3, [r4, #0]	@ zero_extendqisi2
 3086 2c28 033081E0 		add	r3, r1, r3
 3087 2c2c 0030C4E5 		strb	r3, [r4, #0]
 3088 2c30 94019FE5 		ldr	r0, .L284+304
 3089 2c34 FEFFFFEB 		bl	uart_transmit
 3090 2c38 0110D5E5 		ldrb	r1, [r5, #1]	@ zero_extendqisi2
 3091 2c3c 0030D4E5 		ldrb	r3, [r4, #0]	@ zero_extendqisi2
 3092 2c40 033081E0 		add	r3, r1, r3
 3093 2c44 0030C4E5 		strb	r3, [r4, #0]
 3094 2c48 7C019FE5 		ldr	r0, .L284+304
 3095 2c4c FEFFFFEB 		bl	uart_transmit
 3096 2c50 0210D5E5 		ldrb	r1, [r5, #2]	@ zero_extendqisi2
 3097 2c54 0030D4E5 		ldrb	r3, [r4, #0]	@ zero_extendqisi2
 3098 2c58 033081E0 		add	r3, r1, r3
 3099 2c5c 0030C4E5 		strb	r3, [r4, #0]
 3100 2c60 64019FE5 		ldr	r0, .L284+304
 3101 2c64 FEFFFFEB 		bl	uart_transmit
 3102 2c68 0310D5E5 		ldrb	r1, [r5, #3]	@ zero_extendqisi2
 3103              	.L265:
 3104 2c6c 0030D4E5 		ldrb	r3, [r4, #0]	@ zero_extendqisi2
 3105 2c70 033081E0 		add	r3, r1, r3
 3106 2c74 0030C4E5 		strb	r3, [r4, #0]
 3107 2c78 4C019FE5 		ldr	r0, .L284+304
 3108 2c7c FEFFFFEB 		bl	uart_transmit
 3109 2c80 0010D4E5 		ldrb	r1, [r4, #0]	@ zero_extendqisi2
 3110 2c84 0110E0E1 		mvn	r1, r1
 3111 2c88 FF1001E2 		and	r1, r1, #255
 3112 2c8c 0010C4E5 		strb	r1, [r4, #0]
 3113 2c90 34019FE5 		ldr	r0, .L284+304
 3114 2c94 FEFFFFEB 		bl	uart_transmit
 3115 2c98 500000EA 		b	.L91
 3116              	.L285:
 3117              		.align	2
 3118              	.L284:
 3119 2c9c 00000000 		.word	.LANCHOR7
 3120 2ca0 00000000 		.word	nav_in_segment
 3121 2ca4 00000000 		.word	nav_segment_x_1
 3122 2ca8 00000000 		.word	nav_segment_y_1
 3123 2cac 00000000 		.word	nav_segment_x_2
 3124 2cb0 00000000 		.word	nav_segment_y_2
 3125 2cb4 00000000 		.word	.LANCHOR8
 3126 2cb8 00000000 		.word	.LANCHOR20
 3127 2cbc 00000000 		.word	telemetry_mode_Fbw
 3128 2cc0 00000000 		.word	flight_altitude
 3129 2cc4 00000000 		.word	nav_course
 3130 2cc8 00000000 		.word	nav_shift
 3131 2ccc 00000000 		.word	.LANCHOR18
 3132 2cd0 00000000 		.word	nav_radius
 3133 2cd4 00000000 		.word	.LANCHOR22
 3134 2cd8 00000000 		.word	.LANCHOR19
 3135 2cdc 00000000 		.word	openlog_periodic_2Hz_openlog_status
 3136 2ce0 00000000 		.word	digital_cam_servo_servo_cam_ctrl_periodic_status
 3137 2ce4 00000000 		.word	.LANCHOR9
 3138 2ce8 00000000 		.word	.LANCHOR10
 3139 2cec 00000000 		.word	v_ctl_auto_throttle_sum_err
 3140 2cf0 00000000 		.word	v_ctl_auto_throttle_submode
 3141 2cf4 00000000 		.word	nav_survey_active
 3142 2cf8 00000000 		.word	nav_survey_east
 3143 2cfc 00000000 		.word	nav_survey_north
 3144 2d00 00000000 		.word	nav_survey_west
 3145 2d04 00000000 		.word	nav_survey_south
 3146 2d08 00000000 		.word	.LANCHOR11
 3147 2d0c 00000000 		.word	energy
 3148 2d10 00000000 		.word	vsupply
 3149 2d14 00002041 		.word	1092616192
 3150 2d18 00000000 		.word	.LANCHOR17
 3151 2d1c 00007A44 		.word	1148846080
 3152 2d20 00000000 		.word	.LANCHOR12
 3153 2d24 00000000 		.word	.LC0
 3154 2d28 00000000 		.word	.LANCHOR21
 3155 2d2c 00000000 		.word	v_ctl_mode
 3156 2d30 00000000 		.word	.LANCHOR23
 3157 2d34 00000000 		.word	horizontal_mode
 3158 2d38 00000000 		.word	.LANCHOR24
 3159 2d3c 00000000 		.word	infrared
 3160 2d40 00000000 		.word	.LANCHOR13
 3161 2d44 00000000 		.word	.LANCHOR25
 3162 2d48 66666666 		.word	1717986918
 3163 2d4c 66661440 		.word	1075078758
 3164 2d50 00000000 		.word	.LANCHOR14
 3165 2d54 00000000 		.word	nav_utm_east0
 3166 2d58 00000000 		.word	nav_utm_north0
 3167 2d5c 00000000 		.word	nav_utm_zone0
 3168 2d60 00000000 		.word	downlink_nb_ovrn
 3169 2d64 00000000 		.word	telemetry_mode_Ap
 3170 2d68 00000000 		.word	.LANCHOR27
 3171 2d6c 00000000 		.word	.LANCHOR28
 3172 2d70 00000000 		.word	.LANCHOR29
 3173 2d74 00000000 		.word	.LANCHOR30
 3174 2d78 00000000 		.word	.LANCHOR31
 3175 2d7c 00000000 		.word	.LANCHOR32
 3176 2d80 00000000 		.word	.LANCHOR33
 3177 2d84 00000000 		.word	.LANCHOR34
 3178 2d88 00000000 		.word	.LANCHOR35
 3179 2d8c 00000000 		.word	.LANCHOR36
 3180 2d90 00000000 		.word	.LANCHOR37
 3181 2d94 00000000 		.word	.LANCHOR38
 3182 2d98 31010000 		.word	305
 3183 2d9c 00000000 		.word	.LANCHOR39
 3184 2da0 00000000 		.word	.LANCHOR40
 3185 2da4 00000000 		.word	.LANCHOR41
 3186 2da8 5D020000 		.word	605
 3187 2dac 00000000 		.word	.LANCHOR26
 3188 2db0 00000000 		.word	gps
 3189 2db4 F8C1631A 		.word	442745336
 3190 2db8 DCA54C40 		.word	1078765020
 3191 2dbc 80842E41 		.word	1093567616
 3192 2dc0 00000000 		.word	downlink_nb_bytes
 3193 2dc4 00000000 		.word	downlink_nb_msgs
 3194 2dc8 00000000 		.word	xbee_cs
 3195 2dcc 00000000 		.word	uart0
 3196              	.L92:
 3197 2dd0 78301FE5 		ldr	r3, .L284+196
 3198 2dd4 0020D3E5 		ldrb	r2, [r3, #0]	@ zero_extendqisi2
 3199 2dd8 012082E2 		add	r2, r2, #1
 3200 2ddc 0020C3E5 		strb	r2, [r3, #0]
 3201              	.L91:
 3202 2de0 E0301FE5 		ldr	r3, .L284+108
 3203 2de4 0030D3E5 		ldrb	r3, [r3, #0]	@ zero_extendqisi2
 3204 2de8 2A0053E3 		cmp	r3, #42
 3205 2dec AA00001A 		bne	.L93
 3206 2df0 EC301FE5 		ldr	r3, .L284+112
 3207 2df4 000093E5 		ldr	r0, [r3, #0]	@ float
 3208 2df8 FEFFFFEB 		bl	__aeabi_f2iz
 3209 2dfc F4301FE5 		ldr	r3, .L284+116
 3210 2e00 BC01CDE1 		strh	r0, [sp, #28]	@ movhi
 3211 2e04 0000D3E5 		ldrb	r0, [r3, #0]	@ zero_extendqisi2
 3212 2e08 FEFFFFEB 		bl	__aeabi_ui2f
 3213 2e0c 00111FE5 		ldr	r1, .L284+120
 3214 2e10 FEFFFFEB 		bl	__aeabi_fdiv
 3215 2e14 04311FE5 		ldr	r3, .L284+124
 3216 2e18 0040A0E1 		mov	r4, r0
 3217 2e1c 14008DE5 		str	r0, [sp, #20]	@ float
 3218 2e20 000093E5 		ldr	r0, [r3, #0]
 3219 2e24 FEFFFFEB 		bl	__aeabi_i2f
 3220 2e28 14111FE5 		ldr	r1, .L284+128
 3221 2e2c FEFFFFEB 		bl	__aeabi_fdiv
 3222 2e30 0010A0E1 		mov	r1, r0
 3223 2e34 10008DE5 		str	r0, [sp, #16]	@ float
 3224 2e38 0400A0E1 		mov	r0, r4
 3225 2e3c FEFFFFEB 		bl	__aeabi_fmul
 3226 2e40 1910A0E3 		mov	r1, #25
 3227 2e44 18008DE5 		str	r0, [sp, #24]	@ float
 3228 2e48 84001FE5 		ldr	r0, .L284+304
 3229 2e4c FEFFFFEB 		bl	uart_check_free_space
 3230 2e50 000050E3 		cmp	r0, #0
 3231 2e54 8C00000A 		beq	.L94
 3232 2e58 A0301FE5 		ldr	r3, .L284+292
 3233 2e5c B020D3E1 		ldrh	r2, [r3, #0]
 3234 2e60 192082E2 		add	r2, r2, #25
 3235 2e64 B020C3E1 		strh	r2, [r3, #0]	@ movhi
 3236 2e68 AC301FE5 		ldr	r3, .L284+296
 3237 2e6c B020D3E1 		ldrh	r2, [r3, #0]
 3238 2e70 012082E2 		add	r2, r2, #1
 3239 2e74 B020C3E1 		strh	r2, [r3, #0]	@ movhi
 3240 2e78 B4001FE5 		ldr	r0, .L284+304
 3241 2e7c 7E10A0E3 		mov	r1, #126
 3242 2e80 C0401FE5 		ldr	r4, .L284+300
 3243 2e84 FEFFFFEB 		bl	uart_transmit
 3244 2e88 C4001FE5 		ldr	r0, .L284+304
 3245 2e8c 0010A0E3 		mov	r1, #0
 3246 2e90 FEFFFFEB 		bl	uart_transmit
 3247 2e94 0150A0E3 		mov	r5, #1
 3248 2e98 D4001FE5 		ldr	r0, .L284+304
 3249 2e9c 1510A0E3 		mov	r1, #21
 3250 2ea0 FEFFFFEB 		bl	uart_transmit
 3251 2ea4 0510A0E1 		mov	r1, r5
 3252 2ea8 0050C4E5 		strb	r5, [r4, #0]
 3253 2eac E8001FE5 		ldr	r0, .L284+304
 3254 2eb0 FEFFFFEB 		bl	uart_transmit
 3255 2eb4 F0001FE5 		ldr	r0, .L284+304
 3256 2eb8 0010A0E3 		mov	r1, #0
 3257 2ebc FEFFFFEB 		bl	uart_transmit
 3258 2ec0 0030D4E5 		ldrb	r3, [r4, #0]	@ zero_extendqisi2
 3259 2ec4 053083E0 		add	r3, r3, r5
 3260 2ec8 0030C4E5 		strb	r3, [r4, #0]
 3261 2ecc 0510A0E1 		mov	r1, r5
 3262 2ed0 0C011FE5 		ldr	r0, .L284+304
 3263 2ed4 FEFFFFEB 		bl	uart_transmit
 3264 2ed8 14011FE5 		ldr	r0, .L284+304
 3265 2edc 0010A0E3 		mov	r1, #0
 3266 2ee0 FEFFFFEB 		bl	uart_transmit
 3267 2ee4 20011FE5 		ldr	r0, .L284+304
 3268 2ee8 0010A0E3 		mov	r1, #0
 3269 2eec FEFFFFEB 		bl	uart_transmit
 3270 2ef0 0030D4E5 		ldrb	r3, [r4, #0]	@ zero_extendqisi2
 3271 2ef4 023083E2 		add	r3, r3, #2
 3272 2ef8 0030C4E5 		strb	r3, [r4, #0]
 3273 2efc 38011FE5 		ldr	r0, .L284+304
 3274 2f00 0210A0E3 		mov	r1, #2
 3275 2f04 FEFFFFEB 		bl	uart_transmit
 3276 2f08 0030D4E5 		ldrb	r3, [r4, #0]	@ zero_extendqisi2
 3277 2f0c 253083E2 		add	r3, r3, #37
 3278 2f10 0030C4E5 		strb	r3, [r4, #0]
 3279 2f14 50011FE5 		ldr	r0, .L284+304
 3280 2f18 2510A0E3 		mov	r1, #37
 3281 2f1c FEFFFFEB 		bl	uart_transmit
 3282 2f20 1410DDE5 		ldrb	r1, [sp, #20]	@ zero_extendqisi2
 3283 2f24 0030D4E5 		ldrb	r3, [r4, #0]	@ zero_extendqisi2
 3284 2f28 033081E0 		add	r3, r1, r3
 3285 2f2c 0030C4E5 		strb	r3, [r4, #0]
 3286 2f30 6C011FE5 		ldr	r0, .L284+304
 3287 2f34 FEFFFFEB 		bl	uart_transmit
 3288 2f38 1510DDE5 		ldrb	r1, [sp, #21]	@ zero_extendqisi2
 3289 2f3c 0030D4E5 		ldrb	r3, [r4, #0]	@ zero_extendqisi2
 3290 2f40 033081E0 		add	r3, r1, r3
 3291 2f44 0030C4E5 		strb	r3, [r4, #0]
 3292 2f48 84011FE5 		ldr	r0, .L284+304
 3293 2f4c FEFFFFEB 		bl	uart_transmit
 3294 2f50 1610DDE5 		ldrb	r1, [sp, #22]	@ zero_extendqisi2
 3295 2f54 0030D4E5 		ldrb	r3, [r4, #0]	@ zero_extendqisi2
 3296 2f58 033081E0 		add	r3, r1, r3
 3297 2f5c 0030C4E5 		strb	r3, [r4, #0]
 3298 2f60 9C011FE5 		ldr	r0, .L284+304
 3299 2f64 FEFFFFEB 		bl	uart_transmit
 3300 2f68 1710DDE5 		ldrb	r1, [sp, #23]	@ zero_extendqisi2
 3301 2f6c 0030D4E5 		ldrb	r3, [r4, #0]	@ zero_extendqisi2
 3302 2f70 033081E0 		add	r3, r1, r3
 3303 2f74 0030C4E5 		strb	r3, [r4, #0]
 3304 2f78 B4011FE5 		ldr	r0, .L284+304
 3305 2f7c FEFFFFEB 		bl	uart_transmit
 3306 2f80 1010DDE5 		ldrb	r1, [sp, #16]	@ zero_extendqisi2
 3307 2f84 0030D4E5 		ldrb	r3, [r4, #0]	@ zero_extendqisi2
 3308 2f88 033081E0 		add	r3, r1, r3
 3309 2f8c 0030C4E5 		strb	r3, [r4, #0]
 3310 2f90 CC011FE5 		ldr	r0, .L284+304
 3311 2f94 FEFFFFEB 		bl	uart_transmit
 3312 2f98 1110DDE5 		ldrb	r1, [sp, #17]	@ zero_extendqisi2
 3313 2f9c 0030D4E5 		ldrb	r3, [r4, #0]	@ zero_extendqisi2
 3314 2fa0 033081E0 		add	r3, r1, r3
 3315 2fa4 0030C4E5 		strb	r3, [r4, #0]
 3316 2fa8 E4011FE5 		ldr	r0, .L284+304
 3317 2fac FEFFFFEB 		bl	uart_transmit
 3318 2fb0 1210DDE5 		ldrb	r1, [sp, #18]	@ zero_extendqisi2
 3319 2fb4 0030D4E5 		ldrb	r3, [r4, #0]	@ zero_extendqisi2
 3320 2fb8 033081E0 		add	r3, r1, r3
 3321 2fbc 0030C4E5 		strb	r3, [r4, #0]
 3322 2fc0 FC011FE5 		ldr	r0, .L284+304
 3323 2fc4 FEFFFFEB 		bl	uart_transmit
 3324 2fc8 1310DDE5 		ldrb	r1, [sp, #19]	@ zero_extendqisi2
 3325 2fcc 0030D4E5 		ldrb	r3, [r4, #0]	@ zero_extendqisi2
 3326 2fd0 033081E0 		add	r3, r1, r3
 3327 2fd4 0030C4E5 		strb	r3, [r4, #0]
 3328 2fd8 14021FE5 		ldr	r0, .L284+304
 3329 2fdc FEFFFFEB 		bl	uart_transmit
 3330 2fe0 1C10DDE5 		ldrb	r1, [sp, #28]	@ zero_extendqisi2
 3331 2fe4 0030D4E5 		ldrb	r3, [r4, #0]	@ zero_extendqisi2
 3332 2fe8 033081E0 		add	r3, r1, r3
 3333 2fec 0030C4E5 		strb	r3, [r4, #0]
 3334 2ff0 2C021FE5 		ldr	r0, .L284+304
 3335 2ff4 FEFFFFEB 		bl	uart_transmit
 3336 2ff8 1D10DDE5 		ldrb	r1, [sp, #29]	@ zero_extendqisi2
 3337 2ffc 0030D4E5 		ldrb	r3, [r4, #0]	@ zero_extendqisi2
 3338 3000 033081E0 		add	r3, r1, r3
 3339 3004 0030C4E5 		strb	r3, [r4, #0]
 3340 3008 44021FE5 		ldr	r0, .L284+304
 3341 300c FEFFFFEB 		bl	uart_transmit
 3342 3010 1810DDE5 		ldrb	r1, [sp, #24]	@ zero_extendqisi2
 3343 3014 0030D4E5 		ldrb	r3, [r4, #0]	@ zero_extendqisi2
 3344 3018 033081E0 		add	r3, r1, r3
 3345 301c 0030C4E5 		strb	r3, [r4, #0]
 3346 3020 5C021FE5 		ldr	r0, .L284+304
 3347 3024 FEFFFFEB 		bl	uart_transmit
 3348 3028 1910DDE5 		ldrb	r1, [sp, #25]	@ zero_extendqisi2
 3349 302c 0030D4E5 		ldrb	r3, [r4, #0]	@ zero_extendqisi2
 3350 3030 033081E0 		add	r3, r1, r3
 3351 3034 0030C4E5 		strb	r3, [r4, #0]
 3352 3038 74021FE5 		ldr	r0, .L284+304
 3353 303c FEFFFFEB 		bl	uart_transmit
 3354 3040 1A10DDE5 		ldrb	r1, [sp, #26]	@ zero_extendqisi2
 3355 3044 0030D4E5 		ldrb	r3, [r4, #0]	@ zero_extendqisi2
 3356 3048 033081E0 		add	r3, r1, r3
 3357 304c 0030C4E5 		strb	r3, [r4, #0]
 3358 3050 8C021FE5 		ldr	r0, .L284+304
 3359 3054 FEFFFFEB 		bl	uart_transmit
 3360 3058 1B10DDE5 		ldrb	r1, [sp, #27]	@ zero_extendqisi2
 3361 305c 0030D4E5 		ldrb	r3, [r4, #0]	@ zero_extendqisi2
 3362 3060 033081E0 		add	r3, r1, r3
 3363 3064 0030C4E5 		strb	r3, [r4, #0]
 3364 3068 A4021FE5 		ldr	r0, .L284+304
 3365 306c FEFFFFEB 		bl	uart_transmit
 3366 3070 0010D4E5 		ldrb	r1, [r4, #0]	@ zero_extendqisi2
 3367 3074 0110E0E1 		mvn	r1, r1
 3368 3078 FF1001E2 		and	r1, r1, #255
 3369 307c 0010C4E5 		strb	r1, [r4, #0]
 3370 3080 BC021FE5 		ldr	r0, .L284+304
 3371 3084 FEFFFFEB 		bl	uart_transmit
 3372 3088 030000EA 		b	.L93
 3373              	.L94:
 3374 308c 34331FE5 		ldr	r3, .L284+196
 3375 3090 0020D3E5 		ldrb	r2, [r3, #0]	@ zero_extendqisi2
 3376 3094 012082E2 		add	r2, r2, #1
 3377 3098 0020C3E5 		strb	r2, [r3, #0]
 3378              	.L93:
 3379 309c 84331FE5 		ldr	r3, .L284+132
 3380 30a0 B030D3E1 		ldrh	r3, [r3, #0]
 3381 30a4 300053E3 		cmp	r3, #48
 3382 30a8 4D00001A 		bne	.L95
 3383 30ac E8021FE5 		ldr	r0, .L284+304
 3384 30b0 1C10A0E3 		mov	r1, #28
 3385 30b4 FEFFFFEB 		bl	uart_check_free_space
 3386 30b8 000050E3 		cmp	r0, #0
 3387 30bc 0901000A 		beq	.L102
 3388 30c0 08331FE5 		ldr	r3, .L284+292
 3389 30c4 B020D3E1 		ldrh	r2, [r3, #0]
 3390 30c8 1C2082E2 		add	r2, r2, #28
 3391 30cc B020C3E1 		strh	r2, [r3, #0]	@ movhi
 3392 30d0 14331FE5 		ldr	r3, .L284+296
 3393 30d4 B020D3E1 		ldrh	r2, [r3, #0]
 3394 30d8 012082E2 		add	r2, r2, #1
 3395 30dc B020C3E1 		strh	r2, [r3, #0]	@ movhi
 3396 30e0 1C031FE5 		ldr	r0, .L284+304
 3397 30e4 7E10A0E3 		mov	r1, #126
 3398 30e8 28431FE5 		ldr	r4, .L284+300
 3399 30ec FEFFFFEB 		bl	uart_transmit
 3400 30f0 2C031FE5 		ldr	r0, .L284+304
 3401 30f4 0010A0E3 		mov	r1, #0
 3402 30f8 0150A0E3 		mov	r5, #1
 3403 30fc FEFFFFEB 		bl	uart_transmit
 3404 3100 3C031FE5 		ldr	r0, .L284+304
 3405 3104 1810A0E3 		mov	r1, #24
 3406 3108 FEFFFFEB 		bl	uart_transmit
 3407 310c 0510A0E1 		mov	r1, r5
 3408 3110 0050C4E5 		strb	r5, [r4, #0]
 3409 3114 50031FE5 		ldr	r0, .L284+304
 3410 3118 FEFFFFEB 		bl	uart_transmit
 3411 311c 58031FE5 		ldr	r0, .L284+304
 3412 3120 0010A0E3 		mov	r1, #0
 3413 3124 FEFFFFEB 		bl	uart_transmit
 3414 3128 0030D4E5 		ldrb	r3, [r4, #0]	@ zero_extendqisi2
 3415 312c 053083E0 		add	r3, r3, r5
 3416 3130 0030C4E5 		strb	r3, [r4, #0]
 3417 3134 0510A0E1 		mov	r1, r5
 3418 3138 74031FE5 		ldr	r0, .L284+304
 3419 313c FEFFFFEB 		bl	uart_transmit
 3420 3140 7C031FE5 		ldr	r0, .L284+304
 3421 3144 0010A0E3 		mov	r1, #0
 3422 3148 FEFFFFEB 		bl	uart_transmit
 3423 314c 88031FE5 		ldr	r0, .L284+304
 3424 3150 0010A0E3 		mov	r1, #0
 3425 3154 FEFFFFEB 		bl	uart_transmit
 3426 3158 0030D4E5 		ldrb	r3, [r4, #0]	@ zero_extendqisi2
 3427 315c 023083E2 		add	r3, r3, #2
 3428 3160 0030C4E5 		strb	r3, [r4, #0]
 3429 3164 A0031FE5 		ldr	r0, .L284+304
 3430 3168 0210A0E3 		mov	r1, #2
 3431 316c FEFFFFEB 		bl	uart_transmit
 3432 3170 0030D4E5 		ldrb	r3, [r4, #0]	@ zero_extendqisi2
 3433 3174 023083E2 		add	r3, r3, #2
 3434 3178 0030C4E5 		strb	r3, [r4, #0]
 3435 317c B8031FE5 		ldr	r0, .L284+304
 3436 3180 0210A0E3 		mov	r1, #2
 3437 3184 FEFFFFEB 		bl	uart_transmit
 3438 3188 0030D4E5 		ldrb	r3, [r4, #0]	@ zero_extendqisi2
 3439 318c 103083E2 		add	r3, r3, #16
 3440 3190 0030C4E5 		strb	r3, [r4, #0]
 3441 3194 D0031FE5 		ldr	r0, .L284+304
 3442 3198 1010A0E3 		mov	r1, #16
 3443 319c FEFFFFEB 		bl	uart_transmit
 3444 31a0 84741FE5 		ldr	r7, .L284+136
 3445 31a4 0050A0E3 		mov	r5, #0
 3446              	.L97:
 3447 31a8 0510D7E7 		ldrb	r1, [r7, r5]	@ zero_extendqisi2
 3448 31ac 0030D4E5 		ldrb	r3, [r4, #0]	@ zero_extendqisi2
 3449 31b0 033081E0 		add	r3, r1, r3
 3450 31b4 0030C4E5 		strb	r3, [r4, #0]
 3451 31b8 F4031FE5 		ldr	r0, .L284+304
 3452 31bc 015085E2 		add	r5, r5, #1
 3453 31c0 FEFFFFEB 		bl	uart_transmit
 3454 31c4 100055E3 		cmp	r5, #16
 3455 31c8 08641FE5 		ldr	r6, .L284+300
 3456 31cc F5FFFF1A 		bne	.L97
 3457 31d0 0010D6E5 		ldrb	r1, [r6, #0]	@ zero_extendqisi2
 3458 31d4 0110E0E1 		mvn	r1, r1
 3459 31d8 FF1001E2 		and	r1, r1, #255
 3460 31dc 0010C6E5 		strb	r1, [r6, #0]
 3461 31e0 620000EA 		b	.L266
 3462              	.L95:
 3463 31e4 360053E3 		cmp	r3, #54
 3464 31e8 6300001A 		bne	.L99
 3465 31ec 28041FE5 		ldr	r0, .L284+304
 3466 31f0 1110A0E3 		mov	r1, #17
 3467 31f4 FEFFFFEB 		bl	uart_check_free_space
 3468 31f8 000050E3 		cmp	r0, #0
 3469 31fc B900000A 		beq	.L102
 3470 3200 48341FE5 		ldr	r3, .L284+292
 3471 3204 B020D3E1 		ldrh	r2, [r3, #0]
 3472 3208 112082E2 		add	r2, r2, #17
 3473 320c B020C3E1 		strh	r2, [r3, #0]	@ movhi
 3474 3210 54341FE5 		ldr	r3, .L284+296
 3475 3214 B020D3E1 		ldrh	r2, [r3, #0]
 3476 3218 012082E2 		add	r2, r2, #1
 3477 321c B020C3E1 		strh	r2, [r3, #0]	@ movhi
 3478 3220 5C041FE5 		ldr	r0, .L284+304
 3479 3224 7E10A0E3 		mov	r1, #126
 3480 3228 68441FE5 		ldr	r4, .L284+300
 3481 322c FEFFFFEB 		bl	uart_transmit
 3482 3230 6C041FE5 		ldr	r0, .L284+304
 3483 3234 0010A0E3 		mov	r1, #0
 3484 3238 FEFFFFEB 		bl	uart_transmit
 3485 323c 0150A0E3 		mov	r5, #1
 3486 3240 7C041FE5 		ldr	r0, .L284+304
 3487 3244 0D10A0E3 		mov	r1, #13
 3488 3248 FEFFFFEB 		bl	uart_transmit
 3489 324c 88041FE5 		ldr	r0, .L284+304
 3490 3250 0510A0E1 		mov	r1, r5
 3491 3254 0050C4E5 		strb	r5, [r4, #0]
 3492 3258 FEFFFFEB 		bl	uart_transmit
 3493 325c 98041FE5 		ldr	r0, .L284+304
 3494 3260 0010A0E3 		mov	r1, #0
 3495 3264 FEFFFFEB 		bl	uart_transmit
 3496 3268 0030D4E5 		ldrb	r3, [r4, #0]	@ zero_extendqisi2
 3497 326c 053083E0 		add	r3, r3, r5
 3498 3270 0030C4E5 		strb	r3, [r4, #0]
 3499 3274 B0041FE5 		ldr	r0, .L284+304
 3500 3278 0510A0E1 		mov	r1, r5
 3501 327c FEFFFFEB 		bl	uart_transmit
 3502 3280 BC041FE5 		ldr	r0, .L284+304
 3503 3284 0010A0E3 		mov	r1, #0
 3504 3288 FEFFFFEB 		bl	uart_transmit
 3505 328c C8041FE5 		ldr	r0, .L284+304
 3506 3290 0010A0E3 		mov	r1, #0
 3507 3294 FEFFFFEB 		bl	uart_transmit
 3508 3298 0030D4E5 		ldrb	r3, [r4, #0]	@ zero_extendqisi2
 3509 329c 023083E2 		add	r3, r3, #2
 3510 32a0 0030C4E5 		strb	r3, [r4, #0]
 3511 32a4 E0041FE5 		ldr	r0, .L284+304
 3512 32a8 0210A0E3 		mov	r1, #2
 3513 32ac FEFFFFEB 		bl	uart_transmit
 3514 32b0 0030D4E5 		ldrb	r3, [r4, #0]	@ zero_extendqisi2
 3515 32b4 0B3083E2 		add	r3, r3, #11
 3516 32b8 0030C4E5 		strb	r3, [r4, #0]
 3517 32bc F8041FE5 		ldr	r0, .L284+304
 3518 32c0 0B10A0E3 		mov	r1, #11
 3519 32c4 FEFFFFEB 		bl	uart_transmit
 3520 32c8 A8351FE5 		ldr	r3, .L284+140
 3521 32cc 0010D3E5 		ldrb	r1, [r3, #0]	@ zero_extendqisi2
 3522 32d0 0030D4E5 		ldrb	r3, [r4, #0]	@ zero_extendqisi2
 3523 32d4 033081E0 		add	r3, r1, r3
 3524 32d8 0030C4E5 		strb	r3, [r4, #0]
 3525 32dc 18051FE5 		ldr	r0, .L284+304
 3526 32e0 FEFFFFEB 		bl	uart_transmit
 3527 32e4 C0351FE5 		ldr	r3, .L284+144
 3528 32e8 0010D3E5 		ldrb	r1, [r3, #0]	@ zero_extendqisi2
 3529 32ec 0030D4E5 		ldrb	r3, [r4, #0]	@ zero_extendqisi2
 3530 32f0 033081E0 		add	r3, r1, r3
 3531 32f4 0030C4E5 		strb	r3, [r4, #0]
 3532 32f8 34051FE5 		ldr	r0, .L284+304
 3533 32fc FEFFFFEB 		bl	uart_transmit
 3534 3300 D8351FE5 		ldr	r3, .L284+148
 3535 3304 0010D3E5 		ldrb	r1, [r3, #0]	@ zero_extendqisi2
 3536 3308 0030D4E5 		ldrb	r3, [r4, #0]	@ zero_extendqisi2
 3537 330c 033081E0 		add	r3, r1, r3
 3538 3310 0030C4E5 		strb	r3, [r4, #0]
 3539 3314 50051FE5 		ldr	r0, .L284+304
 3540 3318 FEFFFFEB 		bl	uart_transmit
 3541 331c F0351FE5 		ldr	r3, .L284+152
 3542 3320 0010D3E5 		ldrb	r1, [r3, #0]	@ zero_extendqisi2
 3543 3324 0030D4E5 		ldrb	r3, [r4, #0]	@ zero_extendqisi2
 3544 3328 033081E0 		add	r3, r1, r3
 3545 332c 0030C4E5 		strb	r3, [r4, #0]
 3546 3330 6C051FE5 		ldr	r0, .L284+304
 3547 3334 FEFFFFEB 		bl	uart_transmit
 3548 3338 0010A0E3 		mov	r1, #0
 3549 333c 78051FE5 		ldr	r0, .L284+304
 3550 3340 FEFFFFEB 		bl	uart_transmit
 3551 3344 14361FE5 		ldr	r3, .L284+156
 3552 3348 0010D3E5 		ldrb	r1, [r3, #0]	@ zero_extendqisi2
 3553              	.L278:
 3554 334c 0030D4E5 		ldrb	r3, [r4, #0]	@ zero_extendqisi2
 3555 3350 033081E0 		add	r3, r1, r3
 3556 3354 0030C4E5 		strb	r3, [r4, #0]
 3557 3358 94051FE5 		ldr	r0, .L284+304
 3558 335c FEFFFFEB 		bl	uart_transmit
 3559 3360 0010D4E5 		ldrb	r1, [r4, #0]	@ zero_extendqisi2
 3560 3364 0110E0E1 		mvn	r1, r1
 3561 3368 FF1001E2 		and	r1, r1, #255
 3562 336c 0010C4E5 		strb	r1, [r4, #0]
 3563              	.L266:
 3564 3370 AC051FE5 		ldr	r0, .L284+304
 3565 3374 FEFFFFEB 		bl	uart_transmit
 3566 3378 5E0000EA 		b	.L98
 3567              	.L99:
 3568 337c 3C0053E3 		cmp	r3, #60
 3569 3380 5C00000A 		beq	.L98
 3570 3384 420053E3 		cmp	r3, #66
 3571 3388 5A00001A 		bne	.L98
 3572 338c 58361FE5 		ldr	r3, .L284+160
 3573 3390 F661D3E1 		ldrsh	r6, [r3, #22]
 3574 3394 F421D3E1 		ldrsh	r2, [r3, #20]
 3575 3398 F831D3E1 		ldrsh	r3, [r3, #24]
 3576 339c 000052E3 		cmp	r2, #0
 3577 33a0 002062B2 		rsblt	r2, r2, #0
 3578 33a4 000056E3 		cmp	r6, #0
 3579 33a8 006066B2 		rsblt	r6, r6, #0
 3580 33ac 000053E3 		cmp	r3, #0
 3581 33b0 003063B2 		rsblt	r3, r3, #0
 3582 33b4 026086E0 		add	r6, r6, r2
 3583 33b8 036086E0 		add	r6, r6, r3
 3584 33bc 0668A0E1 		mov	r6, r6, asl #16
 3585 33c0 2668A0E1 		mov	r6, r6, lsr #16
 3586 33c4 310056E3 		cmp	r6, #49
 3587 33c8 04061FE5 		ldr	r0, .L284+304
 3588 33cc 0E10A0E3 		mov	r1, #14
 3589 33d0 BC61CDE1 		strh	r6, [sp, #28]	@ movhi
 3590 33d4 0760A093 		movls	r6, #7
 3591 33d8 0360A083 		movhi	r6, #3
 3592 33dc FEFFFFEB 		bl	uart_check_free_space
 3593 33e0 000050E3 		cmp	r0, #0
 3594 33e4 3F00000A 		beq	.L102
 3595 33e8 30361FE5 		ldr	r3, .L284+292
 3596 33ec B020D3E1 		ldrh	r2, [r3, #0]
 3597 33f0 0E2082E2 		add	r2, r2, #14
 3598 33f4 B020C3E1 		strh	r2, [r3, #0]	@ movhi
 3599 33f8 3C361FE5 		ldr	r3, .L284+296
 3600 33fc B020D3E1 		ldrh	r2, [r3, #0]
 3601 3400 012082E2 		add	r2, r2, #1
 3602 3404 B020C3E1 		strh	r2, [r3, #0]	@ movhi
 3603 3408 44061FE5 		ldr	r0, .L284+304
 3604 340c 7E10A0E3 		mov	r1, #126
 3605 3410 50461FE5 		ldr	r4, .L284+300
 3606 3414 FEFFFFEB 		bl	uart_transmit
 3607 3418 54061FE5 		ldr	r0, .L284+304
 3608 341c 0010A0E3 		mov	r1, #0
 3609 3420 FEFFFFEB 		bl	uart_transmit
 3610 3424 0150A0E3 		mov	r5, #1
 3611 3428 64061FE5 		ldr	r0, .L284+304
 3612 342c 0A10A0E3 		mov	r1, #10
 3613 3430 FEFFFFEB 		bl	uart_transmit
 3614 3434 70061FE5 		ldr	r0, .L284+304
 3615 3438 0510A0E1 		mov	r1, r5
 3616 343c 0050C4E5 		strb	r5, [r4, #0]
 3617 3440 FEFFFFEB 		bl	uart_transmit
 3618 3444 80061FE5 		ldr	r0, .L284+304
 3619 3448 0010A0E3 		mov	r1, #0
 3620 344c FEFFFFEB 		bl	uart_transmit
 3621 3450 0030D4E5 		ldrb	r3, [r4, #0]	@ zero_extendqisi2
 3622 3454 053083E0 		add	r3, r3, r5
 3623 3458 0030C4E5 		strb	r3, [r4, #0]
 3624 345c 98061FE5 		ldr	r0, .L284+304
 3625 3460 0510A0E1 		mov	r1, r5
 3626 3464 FEFFFFEB 		bl	uart_transmit
 3627 3468 A4061FE5 		ldr	r0, .L284+304
 3628 346c 0010A0E3 		mov	r1, #0
 3629 3470 FEFFFFEB 		bl	uart_transmit
 3630 3474 B0061FE5 		ldr	r0, .L284+304
 3631 3478 0010A0E3 		mov	r1, #0
 3632 347c FEFFFFEB 		bl	uart_transmit
 3633 3480 0030D4E5 		ldrb	r3, [r4, #0]	@ zero_extendqisi2
 3634 3484 023083E2 		add	r3, r3, #2
 3635 3488 0030C4E5 		strb	r3, [r4, #0]
 3636 348c C8061FE5 		ldr	r0, .L284+304
 3637 3490 0210A0E3 		mov	r1, #2
 3638 3494 FEFFFFEB 		bl	uart_transmit
 3639 3498 0030D4E5 		ldrb	r3, [r4, #0]	@ zero_extendqisi2
 3640 349c 183043E2 		sub	r3, r3, #24
 3641 34a0 0030C4E5 		strb	r3, [r4, #0]
 3642 34a4 E0061FE5 		ldr	r0, .L284+304
 3643 34a8 E810A0E3 		mov	r1, #232
 3644 34ac FEFFFFEB 		bl	uart_transmit
 3645 34b0 0030D4E5 		ldrb	r3, [r4, #0]	@ zero_extendqisi2
 3646 34b4 033086E0 		add	r3, r6, r3
 3647 34b8 0030C4E5 		strb	r3, [r4, #0]
 3648 34bc F8061FE5 		ldr	r0, .L284+304
 3649 34c0 0610A0E1 		mov	r1, r6
 3650 34c4 FEFFFFEB 		bl	uart_transmit
 3651 34c8 1C10DDE5 		ldrb	r1, [sp, #28]	@ zero_extendqisi2
 3652 34cc 0030D4E5 		ldrb	r3, [r4, #0]	@ zero_extendqisi2
 3653 34d0 033081E0 		add	r3, r1, r3
 3654 34d4 0030C4E5 		strb	r3, [r4, #0]
 3655 34d8 14071FE5 		ldr	r0, .L284+304
 3656 34dc FEFFFFEB 		bl	uart_transmit
 3657 34e0 1D10DDE5 		ldrb	r1, [sp, #29]	@ zero_extendqisi2
 3658 34e4 98FFFFEA 		b	.L278
 3659              	.L102:
 3660 34e8 90371FE5 		ldr	r3, .L284+196
 3661 34ec 0020D3E5 		ldrb	r2, [r3, #0]	@ zero_extendqisi2
 3662 34f0 012082E2 		add	r2, r2, #1
 3663 34f4 0020C3E5 		strb	r2, [r3, #0]
 3664              	.L98:
 3665 34f8 C0371FE5 		ldr	r3, .L284+164
 3666 34fc B030D3E1 		ldrh	r3, [r3, #0]
 3667 3500 480053E3 		cmp	r3, #72
 3668 3504 6B00001A 		bne	.L103
 3669 3508 CC571FE5 		ldr	r5, .L284+168
 3670 350c 54471FE5 		ldr	r4, .L284+292
 3671 3510 B000D5E1 		ldrh	r0, [r5, #0]
 3672 3514 B060D4E1 		ldrh	r6, [r4, #0]
 3673 3518 060060E0 		rsb	r0, r0, r6
 3674 351c FEFFFFEB 		bl	__aeabi_i2d
 3675 3520 E0271FE5 		ldr	r2, .L284+172
 3676 3524 E0371FE5 		ldr	r3, .L284+176
 3677 3528 FEFFFFEB 		bl	__aeabi_ddiv
 3678 352c FEFFFFEB 		bl	__aeabi_d2uiz
 3679 3530 B060C5E1 		strh	r6, [r5, #0]	@ movhi
 3680 3534 BC01CDE1 		strh	r0, [sp, #28]	@ movhi
 3681 3538 1010A0E3 		mov	r1, #16
 3682 353c 78071FE5 		ldr	r0, .L284+304
 3683 3540 FEFFFFEB 		bl	uart_check_free_space
 3684 3544 000050E3 		cmp	r0, #0
 3685 3548 5600000A 		beq	.L104
 3686 354c B030D4E1 		ldrh	r3, [r4, #0]
 3687 3550 94571FE5 		ldr	r5, .L284+296
 3688 3554 103083E2 		add	r3, r3, #16
 3689 3558 B030C4E1 		strh	r3, [r4, #0]	@ movhi
 3690 355c B030D5E1 		ldrh	r3, [r5, #0]
 3691 3560 013083E2 		add	r3, r3, #1
 3692 3564 B030C5E1 		strh	r3, [r5, #0]	@ movhi
 3693 3568 A4071FE5 		ldr	r0, .L284+304
 3694 356c 7E10A0E3 		mov	r1, #126
 3695 3570 B0471FE5 		ldr	r4, .L284+300
 3696 3574 FEFFFFEB 		bl	uart_transmit
 3697 3578 B4071FE5 		ldr	r0, .L284+304
 3698 357c 0010A0E3 		mov	r1, #0
 3699 3580 FEFFFFEB 		bl	uart_transmit
 3700 3584 0160A0E3 		mov	r6, #1
 3701 3588 C4071FE5 		ldr	r0, .L284+304
 3702 358c 0C10A0E3 		mov	r1, #12
 3703 3590 FEFFFFEB 		bl	uart_transmit
 3704 3594 0610A0E1 		mov	r1, r6
 3705 3598 0060C4E5 		strb	r6, [r4, #0]
 3706 359c D8071FE5 		ldr	r0, .L284+304
 3707 35a0 FEFFFFEB 		bl	uart_transmit
 3708 35a4 E0071FE5 		ldr	r0, .L284+304
 3709 35a8 0010A0E3 		mov	r1, #0
 3710 35ac FEFFFFEB 		bl	uart_transmit
 3711 35b0 0030D4E5 		ldrb	r3, [r4, #0]	@ zero_extendqisi2
 3712 35b4 063083E0 		add	r3, r3, r6
 3713 35b8 0030C4E5 		strb	r3, [r4, #0]
 3714 35bc 0610A0E1 		mov	r1, r6
 3715 35c0 FC071FE5 		ldr	r0, .L284+304
 3716 35c4 FEFFFFEB 		bl	uart_transmit
 3717 35c8 04081FE5 		ldr	r0, .L284+304
 3718 35cc 0010A0E3 		mov	r1, #0
 3719 35d0 FEFFFFEB 		bl	uart_transmit
 3720 35d4 10081FE5 		ldr	r0, .L284+304
 3721 35d8 0010A0E3 		mov	r1, #0
 3722 35dc FEFFFFEB 		bl	uart_transmit
 3723 35e0 0030D4E5 		ldrb	r3, [r4, #0]	@ zero_extendqisi2
 3724 35e4 023083E2 		add	r3, r3, #2
 3725 35e8 0030C4E5 		strb	r3, [r4, #0]
 3726 35ec 28081FE5 		ldr	r0, .L284+304
 3727 35f0 0210A0E3 		mov	r1, #2
 3728 35f4 FEFFFFEB 		bl	uart_transmit
 3729 35f8 0030D4E5 		ldrb	r3, [r4, #0]	@ zero_extendqisi2
 3730 35fc 1E3083E2 		add	r3, r3, #30
 3731 3600 0030C4E5 		strb	r3, [r4, #0]
 3732 3604 40081FE5 		ldr	r0, .L284+304
 3733 3608 1E10A0E3 		mov	r1, #30
 3734 360c FEFFFFEB 		bl	uart_transmit
 3735 3610 B8381FE5 		ldr	r3, .L284+196
 3736 3614 0010D3E5 		ldrb	r1, [r3, #0]	@ zero_extendqisi2
 3737 3618 0030D4E5 		ldrb	r3, [r4, #0]	@ zero_extendqisi2
 3738 361c 033081E0 		add	r3, r1, r3
 3739 3620 0030C4E5 		strb	r3, [r4, #0]
 3740 3624 60081FE5 		ldr	r0, .L284+304
 3741 3628 FEFFFFEB 		bl	uart_transmit
 3742 362c 1C10DDE5 		ldrb	r1, [sp, #28]	@ zero_extendqisi2
 3743 3630 0030D4E5 		ldrb	r3, [r4, #0]	@ zero_extendqisi2
 3744 3634 033081E0 		add	r3, r1, r3
 3745 3638 0030C4E5 		strb	r3, [r4, #0]
 3746 363c 78081FE5 		ldr	r0, .L284+304
 3747 3640 FEFFFFEB 		bl	uart_transmit
 3748 3644 1D10DDE5 		ldrb	r1, [sp, #29]	@ zero_extendqisi2
 3749 3648 0030D4E5 		ldrb	r3, [r4, #0]	@ zero_extendqisi2
 3750 364c 033081E0 		add	r3, r1, r3
 3751 3650 0030C4E5 		strb	r3, [r4, #0]
 3752 3654 90081FE5 		ldr	r0, .L284+304
 3753 3658 FEFFFFEB 		bl	uart_transmit
 3754 365c 0010D5E5 		ldrb	r1, [r5, #0]	@ zero_extendqisi2
 3755 3660 0030D4E5 		ldrb	r3, [r4, #0]	@ zero_extendqisi2
 3756 3664 033081E0 		add	r3, r1, r3
 3757 3668 0030C4E5 		strb	r3, [r4, #0]
 3758 366c A8081FE5 		ldr	r0, .L284+304
 3759 3670 FEFFFFEB 		bl	uart_transmit
 3760 3674 0110D5E5 		ldrb	r1, [r5, #1]	@ zero_extendqisi2
 3761 3678 0030D4E5 		ldrb	r3, [r4, #0]	@ zero_extendqisi2
 3762 367c 033081E0 		add	r3, r1, r3
 3763 3680 0030C4E5 		strb	r3, [r4, #0]
 3764 3684 C0081FE5 		ldr	r0, .L284+304
 3765 3688 FEFFFFEB 		bl	uart_transmit
 3766 368c 0010D4E5 		ldrb	r1, [r4, #0]	@ zero_extendqisi2
 3767 3690 0110E0E1 		mvn	r1, r1
 3768 3694 FF1001E2 		and	r1, r1, #255
 3769 3698 0010C4E5 		strb	r1, [r4, #0]
 3770 369c D8081FE5 		ldr	r0, .L284+304
 3771 36a0 FEFFFFEB 		bl	uart_transmit
 3772 36a4 030000EA 		b	.L103
 3773              	.L104:
 3774 36a8 50391FE5 		ldr	r3, .L284+196
 3775 36ac 0020D3E5 		ldrb	r2, [r3, #0]	@ zero_extendqisi2
 3776 36b0 012082E2 		add	r2, r2, #1
 3777 36b4 0020C3E5 		strb	r2, [r3, #0]
 3778              	.L103:
 3779 36b8 70391FE5 		ldr	r3, .L284+180
 3780 36bc B030D3E1 		ldrh	r3, [r3, #0]
 3781 36c0 4E0053E3 		cmp	r3, #78
 3782 36c4 7A00001A 		bne	.L25
 3783 36c8 04091FE5 		ldr	r0, .L284+304
 3784 36cc 1410A0E3 		mov	r1, #20
 3785 36d0 FEFFFFEB 		bl	uart_check_free_space
 3786 36d4 000050E3 		cmp	r0, #0
 3787 36d8 7100000A 		beq	.L105
 3788 36dc 24391FE5 		ldr	r3, .L284+292
 3789 36e0 B020D3E1 		ldrh	r2, [r3, #0]
 3790 36e4 142082E2 		add	r2, r2, #20
 3791 36e8 B020C3E1 		strh	r2, [r3, #0]	@ movhi
 3792 36ec 30391FE5 		ldr	r3, .L284+296
 3793 36f0 B020D3E1 		ldrh	r2, [r3, #0]
 3794 36f4 012082E2 		add	r2, r2, #1
 3795 36f8 B020C3E1 		strh	r2, [r3, #0]	@ movhi
 3796 36fc 38091FE5 		ldr	r0, .L284+304
 3797 3700 7E10A0E3 		mov	r1, #126
 3798 3704 44491FE5 		ldr	r4, .L284+300
 3799 3708 FEFFFFEB 		bl	uart_transmit
 3800 370c 48091FE5 		ldr	r0, .L284+304
 3801 3710 0010A0E3 		mov	r1, #0
 3802 3714 FEFFFFEB 		bl	uart_transmit
 3803 3718 0150A0E3 		mov	r5, #1
 3804 371c 58091FE5 		ldr	r0, .L284+304
 3805 3720 1010A0E3 		mov	r1, #16
 3806 3724 FEFFFFEB 		bl	uart_transmit
 3807 3728 0050C4E5 		strb	r5, [r4, #0]
 3808 372c 0510A0E1 		mov	r1, r5
 3809 3730 6C091FE5 		ldr	r0, .L284+304
 3810 3734 FEFFFFEB 		bl	uart_transmit
 3811 3738 74091FE5 		ldr	r0, .L284+304
 3812 373c 0010A0E3 		mov	r1, #0
 3813 3740 FEFFFFEB 		bl	uart_transmit
 3814 3744 0030D4E5 		ldrb	r3, [r4, #0]	@ zero_extendqisi2
 3815 3748 053083E0 		add	r3, r3, r5
 3816 374c 0030C4E5 		strb	r3, [r4, #0]
 3817 3750 0510A0E1 		mov	r1, r5
 3818 3754 90091FE5 		ldr	r0, .L284+304
 3819 3758 FEFFFFEB 		bl	uart_transmit
 3820 375c 98091FE5 		ldr	r0, .L284+304
 3821 3760 0010A0E3 		mov	r1, #0
 3822 3764 FEFFFFEB 		bl	uart_transmit
 3823 3768 A4091FE5 		ldr	r0, .L284+304
 3824 376c 0010A0E3 		mov	r1, #0
 3825 3770 FEFFFFEB 		bl	uart_transmit
 3826 3774 0030D4E5 		ldrb	r3, [r4, #0]	@ zero_extendqisi2
 3827 3778 023083E2 		add	r3, r3, #2
 3828 377c 0030C4E5 		strb	r3, [r4, #0]
 3829 3780 BC091FE5 		ldr	r0, .L284+304
 3830 3784 0210A0E3 		mov	r1, #2
 3831 3788 FEFFFFEB 		bl	uart_transmit
 3832 378c 0030D4E5 		ldrb	r3, [r4, #0]	@ zero_extendqisi2
 3833 3790 445A1FE5 		ldr	r5, .L284+184
 3834 3794 093083E2 		add	r3, r3, #9
 3835 3798 0030C4E5 		strb	r3, [r4, #0]
 3836 379c D8091FE5 		ldr	r0, .L284+304
 3837 37a0 0910A0E3 		mov	r1, #9
 3838 37a4 FEFFFFEB 		bl	uart_transmit
 3839 37a8 0010D5E5 		ldrb	r1, [r5, #0]	@ zero_extendqisi2
 3840 37ac 0030D4E5 		ldrb	r3, [r4, #0]	@ zero_extendqisi2
 3841 37b0 033081E0 		add	r3, r1, r3
 3842 37b4 0030C4E5 		strb	r3, [r4, #0]
 3843 37b8 F4091FE5 		ldr	r0, .L284+304
 3844 37bc FEFFFFEB 		bl	uart_transmit
 3845 37c0 0110D5E5 		ldrb	r1, [r5, #1]	@ zero_extendqisi2
 3846 37c4 0030D4E5 		ldrb	r3, [r4, #0]	@ zero_extendqisi2
 3847 37c8 033081E0 		add	r3, r1, r3
 3848 37cc 0030C4E5 		strb	r3, [r4, #0]
 3849 37d0 0C0A1FE5 		ldr	r0, .L284+304
 3850 37d4 FEFFFFEB 		bl	uart_transmit
 3851 37d8 0210D5E5 		ldrb	r1, [r5, #2]	@ zero_extendqisi2
 3852 37dc 0030D4E5 		ldrb	r3, [r4, #0]	@ zero_extendqisi2
 3853 37e0 033081E0 		add	r3, r1, r3
 3854 37e4 0030C4E5 		strb	r3, [r4, #0]
 3855 37e8 240A1FE5 		ldr	r0, .L284+304
 3856 37ec FEFFFFEB 		bl	uart_transmit
 3857 37f0 0310D5E5 		ldrb	r1, [r5, #3]	@ zero_extendqisi2
 3858 37f4 0030D4E5 		ldrb	r3, [r4, #0]	@ zero_extendqisi2
 3859 37f8 A85A1FE5 		ldr	r5, .L284+188
 3860 37fc 033081E0 		add	r3, r1, r3
 3861 3800 0030C4E5 		strb	r3, [r4, #0]
 3862 3804 400A1FE5 		ldr	r0, .L284+304
 3863 3808 FEFFFFEB 		bl	uart_transmit
 3864 380c 0010D5E5 		ldrb	r1, [r5, #0]	@ zero_extendqisi2
 3865 3810 0030D4E5 		ldrb	r3, [r4, #0]	@ zero_extendqisi2
 3866 3814 033081E0 		add	r3, r1, r3
 3867 3818 0030C4E5 		strb	r3, [r4, #0]
 3868 381c 580A1FE5 		ldr	r0, .L284+304
 3869 3820 FEFFFFEB 		bl	uart_transmit
 3870 3824 0110D5E5 		ldrb	r1, [r5, #1]	@ zero_extendqisi2
 3871 3828 0030D4E5 		ldrb	r3, [r4, #0]	@ zero_extendqisi2
 3872 382c 033081E0 		add	r3, r1, r3
 3873 3830 0030C4E5 		strb	r3, [r4, #0]
 3874 3834 700A1FE5 		ldr	r0, .L284+304
 3875 3838 FEFFFFEB 		bl	uart_transmit
 3876 383c 0210D5E5 		ldrb	r1, [r5, #2]	@ zero_extendqisi2
 3877 3840 0030D4E5 		ldrb	r3, [r4, #0]	@ zero_extendqisi2
 3878 3844 033081E0 		add	r3, r1, r3
 3879 3848 0030C4E5 		strb	r3, [r4, #0]
 3880 384c 880A1FE5 		ldr	r0, .L284+304
 3881 3850 FEFFFFEB 		bl	uart_transmit
 3882 3854 0310D5E5 		ldrb	r1, [r5, #3]	@ zero_extendqisi2
 3883 3858 0030D4E5 		ldrb	r3, [r4, #0]	@ zero_extendqisi2
 3884 385c 033081E0 		add	r3, r1, r3
 3885 3860 0030C4E5 		strb	r3, [r4, #0]
 3886 3864 A00A1FE5 		ldr	r0, .L284+304
 3887 3868 FEFFFFEB 		bl	uart_transmit
 3888 386c 183B1FE5 		ldr	r3, .L284+192
 3889 3870 0010D3E5 		ldrb	r1, [r3, #0]	@ zero_extendqisi2
 3890 3874 0030D4E5 		ldrb	r3, [r4, #0]	@ zero_extendqisi2
 3891 3878 033081E0 		add	r3, r1, r3
 3892 387c 0030C4E5 		strb	r3, [r4, #0]
 3893 3880 BC0A1FE5 		ldr	r0, .L284+304
 3894 3884 FEFFFFEB 		bl	uart_transmit
 3895 3888 0010D4E5 		ldrb	r1, [r4, #0]	@ zero_extendqisi2
 3896 388c 0110E0E1 		mvn	r1, r1
 3897 3890 FF1001E2 		and	r1, r1, #255
 3898 3894 0010C4E5 		strb	r1, [r4, #0]
 3899 3898 D40A1FE5 		ldr	r0, .L284+304
 3900 389c FEFFFFEB 		bl	uart_transmit
 3901 38a0 030000EA 		b	.L25
 3902              	.L105:
 3903 38a4 4C3B1FE5 		ldr	r3, .L284+196
 3904 38a8 0020D3E5 		ldrb	r2, [r3, #0]	@ zero_extendqisi2
 3905 38ac 012082E2 		add	r2, r2, #1
 3906 38b0 0020C3E5 		strb	r2, [r3, #0]
 3907              	.L25:
 3908 38b4 583B1FE5 		ldr	r3, .L284+200
 3909 38b8 0030D3E5 		ldrb	r3, [r3, #0]	@ zero_extendqisi2
 3910 38bc 010053E3 		cmp	r3, #1
 3911 38c0 6E0D001A 		bne	.L106
 3912 38c4 203B1FE5 		ldr	r3, .L284+272
 3913 38c8 0020D3E5 		ldrb	r2, [r3, #0]	@ zero_extendqisi2
 3914 38cc 012082E2 		add	r2, r2, #1
 3915 38d0 FF2002E2 		and	r2, r2, #255
 3916 38d4 3E0052E3 		cmp	r2, #62
 3917 38d8 0020C3E5 		strb	r2, [r3, #0]
 3918 38dc 0020A083 		movhi	r2, #0
 3919 38e0 0020C385 		strhib	r2, [r3, #0]
 3920 38e4 843B1FE5 		ldr	r3, .L284+204
 3921 38e8 0020D3E5 		ldrb	r2, [r3, #0]	@ zero_extendqisi2
 3922 38ec 012082E2 		add	r2, r2, #1
 3923 38f0 FF2002E2 		and	r2, r2, #255
 3924 38f4 410052E3 		cmp	r2, #65
 3925 38f8 0020C3E5 		strb	r2, [r3, #0]
 3926 38fc 0020A083 		movhi	r2, #0
 3927 3900 0020C385 		strhib	r2, [r3, #0]
 3928 3904 A03B1FE5 		ldr	r3, .L284+208
 3929 3908 0020D3E5 		ldrb	r2, [r3, #0]	@ zero_extendqisi2
 3930 390c 012082E2 		add	r2, r2, #1
 3931 3910 FF2002E2 		and	r2, r2, #255
 3932 3914 4D0052E3 		cmp	r2, #77
 3933 3918 0020C3E5 		strb	r2, [r3, #0]
 3934 391c 0020A083 		movhi	r2, #0
 3935 3920 0020C385 		strhib	r2, [r3, #0]
 3936 3924 BC3B1FE5 		ldr	r3, .L284+212
 3937 3928 0020D3E5 		ldrb	r2, [r3, #0]	@ zero_extendqisi2
 3938 392c 012082E2 		add	r2, r2, #1
 3939 3930 FF2002E2 		and	r2, r2, #255
 3940 3934 530052E3 		cmp	r2, #83
 3941 3938 0020C3E5 		strb	r2, [r3, #0]
 3942 393c 0020A083 		movhi	r2, #0
 3943 3940 0020C385 		strhib	r2, [r3, #0]
 3944 3944 D83B1FE5 		ldr	r3, .L284+216
 3945 3948 0020D3E5 		ldrb	r2, [r3, #0]	@ zero_extendqisi2
 3946 394c 012082E2 		add	r2, r2, #1
 3947 3950 FF2002E2 		and	r2, r2, #255
 3948 3954 590052E3 		cmp	r2, #89
 3949 3958 0020C3E5 		strb	r2, [r3, #0]
 3950 395c 0020A083 		movhi	r2, #0
 3951 3960 0020C385 		strhib	r2, [r3, #0]
 3952 3964 F43B1FE5 		ldr	r3, .L284+220
 3953 3968 0020D3E5 		ldrb	r2, [r3, #0]	@ zero_extendqisi2
 3954 396c 012082E2 		add	r2, r2, #1
 3955 3970 FF2002E2 		and	r2, r2, #255
 3956 3974 7D0052E3 		cmp	r2, #125
 3957 3978 0020C3E5 		strb	r2, [r3, #0]
 3958 397c 0020A083 		movhi	r2, #0
 3959 3980 0020C385 		strhib	r2, [r3, #0]
 3960 3984 103C1FE5 		ldr	r3, .L284+224
 3961 3988 0020D3E5 		ldrb	r2, [r3, #0]	@ zero_extendqisi2
 3962 398c 012082E2 		add	r2, r2, #1
 3963 3990 FF2002E2 		and	r2, r2, #255
 3964 3994 B30052E3 		cmp	r2, #179
 3965 3998 0020C3E5 		strb	r2, [r3, #0]
 3966 399c 0020A083 		movhi	r2, #0
 3967 39a0 0020C385 		strhib	r2, [r3, #0]
 3968 39a4 2C3C1FE5 		ldr	r3, .L284+228
 3969 39a8 0020D3E5 		ldrb	r2, [r3, #0]	@ zero_extendqisi2
 3970 39ac 012082E2 		add	r2, r2, #1
 3971 39b0 FF2002E2 		and	r2, r2, #255
 3972 39b4 B60052E3 		cmp	r2, #182
 3973 39b8 0020C3E5 		strb	r2, [r3, #0]
 3974 39bc 0020A083 		movhi	r2, #0
 3975 39c0 0020C385 		strhib	r2, [r3, #0]
 3976 39c4 483C1FE5 		ldr	r3, .L284+232
 3977 39c8 0020D3E5 		ldrb	r2, [r3, #0]	@ zero_extendqisi2
 3978 39cc 012082E2 		add	r2, r2, #1
 3979 39d0 FF2002E2 		and	r2, r2, #255
 3980 39d4 BF0052E3 		cmp	r2, #191
 3981 39d8 0020C3E5 		strb	r2, [r3, #0]
 3982 39dc 0020A083 		movhi	r2, #0
 3983 39e0 0020C385 		strhib	r2, [r3, #0]
 3984 39e4 643C1FE5 		ldr	r3, .L284+236
 3985 39e8 0020D3E5 		ldrb	r2, [r3, #0]	@ zero_extendqisi2
 3986 39ec 012082E2 		add	r2, r2, #1
 3987 39f0 FF2002E2 		and	r2, r2, #255
 3988 39f4 EF0052E3 		cmp	r2, #239
 3989 39f8 0020C3E5 		strb	r2, [r3, #0]
 3990 39fc 0020A083 		movhi	r2, #0
 3991 3a00 0020C385 		strhib	r2, [r3, #0]
 3992 3a04 803C1FE5 		ldr	r3, .L284+240
 3993 3a08 0020D3E5 		ldrb	r2, [r3, #0]	@ zero_extendqisi2
 3994 3a0c 012082E2 		add	r2, r2, #1
 3995 3a10 FF2002E2 		and	r2, r2, #255
 3996 3a14 F20052E3 		cmp	r2, #242
 3997 3a18 0020C3E5 		strb	r2, [r3, #0]
 3998 3a1c 0020A083 		movhi	r2, #0
 3999 3a20 0020C385 		strhib	r2, [r3, #0]
 4000 3a24 9C3C1FE5 		ldr	r3, .L284+244
 4001 3a28 B020D3E1 		ldrh	r2, [r3, #0]
 4002 3a2c 012082E2 		add	r2, r2, #1
 4003 3a30 0228A0E1 		mov	r2, r2, asl #16
 4004 3a34 2228A0E1 		mov	r2, r2, lsr #16
 4005 3a38 4B0F52E3 		cmp	r2, #300
 4006 3a3c B020C3E1 		strh	r2, [r3, #0]	@ movhi
 4007 3a40 0020A023 		movcs	r2, #0
 4008 3a44 B020C321 		strcsh	r2, [r3, #0]	@ movhi
 4009 3a48 BC3C1FE5 		ldr	r3, .L284+248
 4010 3a4c B020D3E1 		ldrh	r2, [r3, #0]
 4011 3a50 012082E2 		add	r2, r2, #1
 4012 3a54 C41C1FE5 		ldr	r1, .L284+252
 4013 3a58 0228A0E1 		mov	r2, r2, asl #16
 4014 3a5c 2228A0E1 		mov	r2, r2, lsr #16
 4015 3a60 010052E1 		cmp	r2, r1
 4016 3a64 B020C3E1 		strh	r2, [r3, #0]	@ movhi
 4017 3a68 0020A083 		movhi	r2, #0
 4018 3a6c B020C381 		strhih	r2, [r3, #0]	@ movhi
 4019 3a70 DC3C1FE5 		ldr	r3, .L284+256
 4020 3a74 B020D3E1 		ldrh	r2, [r3, #0]
 4021 3a78 012082E2 		add	r2, r2, #1
 4022 3a7c 0228A0E1 		mov	r2, r2, asl #16
 4023 3a80 2228A0E1 		mov	r2, r2, lsr #16
 4024 3a84 4E0F52E3 		cmp	r2, #312
 4025 3a88 B020C3E1 		strh	r2, [r3, #0]	@ movhi
 4026 3a8c 0020A023 		movcs	r2, #0
 4027 3a90 B020C321 		strcsh	r2, [r3, #0]	@ movhi
 4028 3a94 FC3C1FE5 		ldr	r3, .L284+260
 4029 3a98 B020D3E1 		ldrh	r2, [r3, #0]
 4030 3a9c 012082E2 		add	r2, r2, #1
 4031 3aa0 0228A0E1 		mov	r2, r2, asl #16
 4032 3aa4 2228A0E1 		mov	r2, r2, lsr #16
 4033 3aa8 870F52E3 		cmp	r2, #540
 4034 3aac B020C3E1 		strh	r2, [r3, #0]	@ movhi
 4035 3ab0 0020A023 		movcs	r2, #0
 4036 3ab4 B020C321 		strcsh	r2, [r3, #0]	@ movhi
 4037 3ab8 1C3D1FE5 		ldr	r3, .L284+264
 4038 3abc B020D3E1 		ldrh	r2, [r3, #0]
 4039 3ac0 012082E2 		add	r2, r2, #1
 4040 3ac4 0228A0E1 		mov	r2, r2, asl #16
 4041 3ac8 281D1FE5 		ldr	r1, .L284+268
 4042 3acc 2228A0E1 		mov	r2, r2, lsr #16
 4043 3ad0 010052E1 		cmp	r2, r1
 4044 3ad4 B020C3E1 		strh	r2, [r3, #0]	@ movhi
 4045 3ad8 0020A083 		movhi	r2, #0
 4046 3adc B020C381 		strhih	r2, [r3, #0]	@ movhi
 4047 3ae0 3C3D1FE5 		ldr	r3, .L284+272
 4048 3ae4 0050D3E5 		ldrb	r5, [r3, #0]	@ zero_extendqisi2
 4049 3ae8 000055E3 		cmp	r5, #0
 4050 3aec 9001001A 		bne	.L123
 4051 3af0 484D1FE5 		ldr	r4, .L284+276
 4052 3af4 403094E5 		ldr	r3, [r4, #64]
 4053 3af8 480094E5 		ldr	r0, [r4, #72]
 4054 3afc 003063E2 		rsb	r3, r3, #0
 4055 3b00 BC31CDE1 		strh	r3, [sp, #28]	@ movhi
 4056 3b04 FEFFFFEB 		bl	__aeabi_i2d
 4057 3b08 5C2D1FE5 		ldr	r2, .L284+280
 4058 3b0c 5C3D1FE5 		ldr	r3, .L284+284
 4059 3b10 FEFFFFEB 		bl	__aeabi_dmul
 4060 3b14 0020A0E3 		mov	r2, #0
 4061 3b18 643D1FE5 		ldr	r3, .L284+288
 4062 3b1c FEFFFFEB 		bl	__aeabi_ddiv
 4063 3b20 FEFFFFEB 		bl	__aeabi_d2iz
 4064 3b24 2610A0E3 		mov	r1, #38
 4065 3b28 BE01CDE1 		strh	r0, [sp, #30]	@ movhi
 4066 3b2c 680D1FE5 		ldr	r0, .L284+304
 4067 3b30 FEFFFFEB 		bl	uart_check_free_space
 4068 3b34 000050E3 		cmp	r0, #0
 4069 3b38 DB00000A 		beq	.L124
 4070 3b3c 843D1FE5 		ldr	r3, .L284+292
 4071 3b40 B020D3E1 		ldrh	r2, [r3, #0]
 4072 3b44 262082E2 		add	r2, r2, #38
 4073 3b48 B020C3E1 		strh	r2, [r3, #0]	@ movhi
 4074 3b4c 903D1FE5 		ldr	r3, .L284+296
 4075 3b50 B020D3E1 		ldrh	r2, [r3, #0]
 4076 3b54 012082E2 		add	r2, r2, #1
 4077 3b58 B020C3E1 		strh	r2, [r3, #0]	@ movhi
 4078 3b5c 980D1FE5 		ldr	r0, .L284+304
 4079 3b60 7E10A0E3 		mov	r1, #126
 4080 3b64 A46D1FE5 		ldr	r6, .L284+300
 4081 3b68 FEFFFFEB 		bl	uart_transmit
 4082 3b6c 0510A0E1 		mov	r1, r5
 4083 3b70 AC0D1FE5 		ldr	r0, .L284+304
 4084 3b74 FEFFFFEB 		bl	uart_transmit
 4085 3b78 0170A0E3 		mov	r7, #1
 4086 3b7c B80D1FE5 		ldr	r0, .L284+304
 4087 3b80 2210A0E3 		mov	r1, #34
 4088 3b84 FEFFFFEB 		bl	uart_transmit
 4089 3b88 0710A0E1 		mov	r1, r7
 4090 3b8c 0070C6E5 		strb	r7, [r6, #0]
 4091 3b90 CC0D1FE5 		ldr	r0, .L284+304
 4092 3b94 FEFFFFEB 		bl	uart_transmit
 4093 3b98 0510A0E1 		mov	r1, r5
 4094 3b9c D80D1FE5 		ldr	r0, .L284+304
 4095 3ba0 FEFFFFEB 		bl	uart_transmit
 4096 3ba4 0030D6E5 		ldrb	r3, [r6, #0]	@ zero_extendqisi2
 4097 3ba8 073083E0 		add	r3, r3, r7
 4098 3bac 0030C6E5 		strb	r3, [r6, #0]
 4099 3bb0 0710A0E1 		mov	r1, r7
 4100 3bb4 F00D1FE5 		ldr	r0, .L284+304
 4101 3bb8 FEFFFFEB 		bl	uart_transmit
 4102 3bbc 0510A0E1 		mov	r1, r5
 4103 3bc0 FC0D1FE5 		ldr	r0, .L284+304
 4104 3bc4 FEFFFFEB 		bl	uart_transmit
 4105 3bc8 0510A0E1 		mov	r1, r5
 4106 3bcc 080E1FE5 		ldr	r0, .L284+304
 4107 3bd0 FEFFFFEB 		bl	uart_transmit
 4108 3bd4 0030D6E5 		ldrb	r3, [r6, #0]	@ zero_extendqisi2
 4109 3bd8 023083E2 		add	r3, r3, #2
 4110 3bdc 0030C6E5 		strb	r3, [r6, #0]
 4111 3be0 1C0E1FE5 		ldr	r0, .L284+304
 4112 3be4 0210A0E3 		mov	r1, #2
 4113 3be8 FEFFFFEB 		bl	uart_transmit
 4114 3bec 0030D6E5 		ldrb	r3, [r6, #0]	@ zero_extendqisi2
 4115 3bf0 083083E2 		add	r3, r3, #8
 4116 3bf4 0030C6E5 		strb	r3, [r6, #0]
 4117 3bf8 340E1FE5 		ldr	r0, .L284+304
 4118 3bfc 0810A0E3 		mov	r1, #8
 4119 3c00 FEFFFFEB 		bl	uart_transmit
 4120 3c04 5B10D4E5 		ldrb	r1, [r4, #91]	@ zero_extendqisi2
 4121 3c08 0030D6E5 		ldrb	r3, [r6, #0]	@ zero_extendqisi2
 4122 3c0c 033081E0 		add	r3, r1, r3
 4123 3c10 0030C6E5 		strb	r3, [r6, #0]
 4124 3c14 500E1FE5 		ldr	r0, .L284+304
 4125 3c18 FEFFFFEB 		bl	uart_transmit
 4126 3c1c 1C10D4E5 		ldrb	r1, [r4, #28]	@ zero_extendqisi2
 4127 3c20 0030D6E5 		ldrb	r3, [r6, #0]	@ zero_extendqisi2
 4128 3c24 033081E0 		add	r3, r1, r3
 4129 3c28 0030C6E5 		strb	r3, [r6, #0]
 4130 3c2c 680E1FE5 		ldr	r0, .L284+304
 4131 3c30 FEFFFFEB 		bl	uart_transmit
 4132 3c34 1D10D4E5 		ldrb	r1, [r4, #29]	@ zero_extendqisi2
 4133 3c38 0030D6E5 		ldrb	r3, [r6, #0]	@ zero_extendqisi2
 4134 3c3c 033081E0 		add	r3, r1, r3
 4135 3c40 0030C6E5 		strb	r3, [r6, #0]
 4136 3c44 800E1FE5 		ldr	r0, .L284+304
 4137 3c48 FEFFFFEB 		bl	uart_transmit
 4138 3c4c 1E10D4E5 		ldrb	r1, [r4, #30]	@ zero_extendqisi2
 4139 3c50 0030D6E5 		ldrb	r3, [r6, #0]	@ zero_extendqisi2
 4140 3c54 033081E0 		add	r3, r1, r3
 4141 3c58 0030C6E5 		strb	r3, [r6, #0]
 4142 3c5c 980E1FE5 		ldr	r0, .L284+304
 4143 3c60 FEFFFFEB 		bl	uart_transmit
 4144 3c64 1F10D4E5 		ldrb	r1, [r4, #31]	@ zero_extendqisi2
 4145 3c68 0030D6E5 		ldrb	r3, [r6, #0]	@ zero_extendqisi2
 4146 3c6c 033081E0 		add	r3, r1, r3
 4147 3c70 0030C6E5 		strb	r3, [r6, #0]
 4148 3c74 B00E1FE5 		ldr	r0, .L284+304
 4149 3c78 FEFFFFEB 		bl	uart_transmit
 4150 3c7c 1810D4E5 		ldrb	r1, [r4, #24]	@ zero_extendqisi2
 4151 3c80 0030D6E5 		ldrb	r3, [r6, #0]	@ zero_extendqisi2
 4152 3c84 033081E0 		add	r3, r1, r3
 4153 3c88 0030C6E5 		strb	r3, [r6, #0]
 4154 3c8c C80E1FE5 		ldr	r0, .L284+304
 4155 3c90 FEFFFFEB 		bl	uart_transmit
 4156 3c94 1910D4E5 		ldrb	r1, [r4, #25]	@ zero_extendqisi2
 4157 3c98 0030D6E5 		ldrb	r3, [r6, #0]	@ zero_extendqisi2
 4158 3c9c 033081E0 		add	r3, r1, r3
 4159 3ca0 0030C6E5 		strb	r3, [r6, #0]
 4160 3ca4 E00E1FE5 		ldr	r0, .L284+304
 4161 3ca8 FEFFFFEB 		bl	uart_transmit
 4162 3cac 1A10D4E5 		ldrb	r1, [r4, #26]	@ zero_extendqisi2
 4163 3cb0 0030D6E5 		ldrb	r3, [r6, #0]	@ zero_extendqisi2
 4164 3cb4 033081E0 		add	r3, r1, r3
 4165 3cb8 0030C6E5 		strb	r3, [r6, #0]
 4166 3cbc F80E1FE5 		ldr	r0, .L284+304
 4167 3cc0 FEFFFFEB 		bl	uart_transmit
 4168 3cc4 1B10D4E5 		ldrb	r1, [r4, #27]	@ zero_extendqisi2
 4169 3cc8 0030D6E5 		ldrb	r3, [r6, #0]	@ zero_extendqisi2
 4170 3ccc 033081E0 		add	r3, r1, r3
 4171 3cd0 0030C6E5 		strb	r3, [r6, #0]
 4172 3cd4 100F1FE5 		ldr	r0, .L284+304
 4173 3cd8 FEFFFFEB 		bl	uart_transmit
 4174 3cdc 1E10DDE5 		ldrb	r1, [sp, #30]	@ zero_extendqisi2
 4175 3ce0 0030D6E5 		ldrb	r3, [r6, #0]	@ zero_extendqisi2
 4176 3ce4 033081E0 		add	r3, r1, r3
 4177 3ce8 0030C6E5 		strb	r3, [r6, #0]
 4178 3cec 280F1FE5 		ldr	r0, .L284+304
 4179 3cf0 FEFFFFEB 		bl	uart_transmit
 4180 3cf4 1F10DDE5 		ldrb	r1, [sp, #31]	@ zero_extendqisi2
 4181 3cf8 0030D6E5 		ldrb	r3, [r6, #0]	@ zero_extendqisi2
 4182 3cfc 033081E0 		add	r3, r1, r3
 4183 3d00 0030C6E5 		strb	r3, [r6, #0]
 4184 3d04 400F1FE5 		ldr	r0, .L284+304
 4185 3d08 FEFFFFEB 		bl	uart_transmit
 4186 3d0c 2810D4E5 		ldrb	r1, [r4, #40]	@ zero_extendqisi2
 4187 3d10 0030D6E5 		ldrb	r3, [r6, #0]	@ zero_extendqisi2
 4188 3d14 033081E0 		add	r3, r1, r3
 4189 3d18 0030C6E5 		strb	r3, [r6, #0]
 4190 3d1c 580F1FE5 		ldr	r0, .L284+304
 4191 3d20 FEFFFFEB 		bl	uart_transmit
 4192 3d24 2910D4E5 		ldrb	r1, [r4, #41]	@ zero_extendqisi2
 4193 3d28 0030D6E5 		ldrb	r3, [r6, #0]	@ zero_extendqisi2
 4194 3d2c 033081E0 		add	r3, r1, r3
 4195 3d30 0030C6E5 		strb	r3, [r6, #0]
 4196 3d34 700F1FE5 		ldr	r0, .L284+304
 4197 3d38 FEFFFFEB 		bl	uart_transmit
 4198 3d3c 2A10D4E5 		ldrb	r1, [r4, #42]	@ zero_extendqisi2
 4199 3d40 0030D6E5 		ldrb	r3, [r6, #0]	@ zero_extendqisi2
 4200 3d44 033081E0 		add	r3, r1, r3
 4201 3d48 0030C6E5 		strb	r3, [r6, #0]
 4202 3d4c 880F1FE5 		ldr	r0, .L284+304
 4203 3d50 FEFFFFEB 		bl	uart_transmit
 4204 3d54 2B10D4E5 		ldrb	r1, [r4, #43]	@ zero_extendqisi2
 4205 3d58 0030D6E5 		ldrb	r3, [r6, #0]	@ zero_extendqisi2
 4206 3d5c 033081E0 		add	r3, r1, r3
 4207 3d60 0030C6E5 		strb	r3, [r6, #0]
 4208 3d64 A00F1FE5 		ldr	r0, .L284+304
 4209 3d68 FEFFFFEB 		bl	uart_transmit
 4210 3d6c 4410D4E5 		ldrb	r1, [r4, #68]	@ zero_extendqisi2
 4211 3d70 0030D6E5 		ldrb	r3, [r6, #0]	@ zero_extendqisi2
 4212 3d74 033081E0 		add	r3, r1, r3
 4213 3d78 0030C6E5 		strb	r3, [r6, #0]
 4214 3d7c B80F1FE5 		ldr	r0, .L284+304
 4215 3d80 FEFFFFEB 		bl	uart_transmit
 4216 3d84 4510D4E5 		ldrb	r1, [r4, #69]	@ zero_extendqisi2
 4217 3d88 0030D6E5 		ldrb	r3, [r6, #0]	@ zero_extendqisi2
 4218 3d8c 033081E0 		add	r3, r1, r3
 4219 3d90 0030C6E5 		strb	r3, [r6, #0]
 4220 3d94 D00F1FE5 		ldr	r0, .L284+304
 4221 3d98 FEFFFFEB 		bl	uart_transmit
 4222 3d9c 1C10DDE5 		ldrb	r1, [sp, #28]	@ zero_extendqisi2
 4223 3da0 0030D6E5 		ldrb	r3, [r6, #0]	@ zero_extendqisi2
 4224 3da4 033081E0 		add	r3, r1, r3
 4225 3da8 0030C6E5 		strb	r3, [r6, #0]
 4226 3dac E80F1FE5 		ldr	r0, .L284+304
 4227 3db0 FEFFFFEB 		bl	uart_transmit
 4228 3db4 1D10DDE5 		ldrb	r1, [sp, #29]	@ zero_extendqisi2
 4229 3db8 0030D6E5 		ldrb	r3, [r6, #0]	@ zero_extendqisi2
 4230 3dbc 033081E0 		add	r3, r1, r3
 4231 3dc0 0030C6E5 		strb	r3, [r6, #0]
 4232 3dc4 780E9FE5 		ldr	r0, .L286+276
 4233 3dc8 FEFFFFEB 		bl	uart_transmit
 4234 3dcc 5C10D4E5 		ldrb	r1, [r4, #92]	@ zero_extendqisi2
 4235 3dd0 0030D6E5 		ldrb	r3, [r6, #0]	@ zero_extendqisi2
 4236 3dd4 033081E0 		add	r3, r1, r3
 4237 3dd8 0030C6E5 		strb	r3, [r6, #0]
 4238 3ddc 600E9FE5 		ldr	r0, .L286+276
 4239 3de0 FEFFFFEB 		bl	uart_transmit
 4240 3de4 5D10D4E5 		ldrb	r1, [r4, #93]	@ zero_extendqisi2
 4241 3de8 0030D6E5 		ldrb	r3, [r6, #0]	@ zero_extendqisi2
 4242 3dec 033081E0 		add	r3, r1, r3
 4243 3df0 0030C6E5 		strb	r3, [r6, #0]
 4244 3df4 480E9FE5 		ldr	r0, .L286+276
 4245 3df8 FEFFFFEB 		bl	uart_transmit
 4246 3dfc 6010D4E5 		ldrb	r1, [r4, #96]	@ zero_extendqisi2
 4247 3e00 0030D6E5 		ldrb	r3, [r6, #0]	@ zero_extendqisi2
 4248 3e04 033081E0 		add	r3, r1, r3
 4249 3e08 0030C6E5 		strb	r3, [r6, #0]
 4250 3e0c 300E9FE5 		ldr	r0, .L286+276
 4251 3e10 FEFFFFEB 		bl	uart_transmit
 4252 3e14 6110D4E5 		ldrb	r1, [r4, #97]	@ zero_extendqisi2
 4253 3e18 0030D6E5 		ldrb	r3, [r6, #0]	@ zero_extendqisi2
 4254 3e1c 033081E0 		add	r3, r1, r3
 4255 3e20 0030C6E5 		strb	r3, [r6, #0]
 4256 3e24 180E9FE5 		ldr	r0, .L286+276
 4257 3e28 FEFFFFEB 		bl	uart_transmit
 4258 3e2c 6210D4E5 		ldrb	r1, [r4, #98]	@ zero_extendqisi2
 4259 3e30 0030D6E5 		ldrb	r3, [r6, #0]	@ zero_extendqisi2
 4260 3e34 033081E0 		add	r3, r1, r3
 4261 3e38 0030C6E5 		strb	r3, [r6, #0]
 4262 3e3c 000E9FE5 		ldr	r0, .L286+276
 4263 3e40 FEFFFFEB 		bl	uart_transmit
 4264 3e44 6310D4E5 		ldrb	r1, [r4, #99]	@ zero_extendqisi2
 4265 3e48 0030D6E5 		ldrb	r3, [r6, #0]	@ zero_extendqisi2
 4266 3e4c 033081E0 		add	r3, r1, r3
 4267 3e50 0030C6E5 		strb	r3, [r6, #0]
 4268 3e54 E80D9FE5 		ldr	r0, .L286+276
 4269 3e58 FEFFFFEB 		bl	uart_transmit
 4270 3e5c 2410D4E5 		ldrb	r1, [r4, #36]	@ zero_extendqisi2
 4271 3e60 0030D6E5 		ldrb	r3, [r6, #0]	@ zero_extendqisi2
 4272 3e64 033081E0 		add	r3, r1, r3
 4273 3e68 0030C6E5 		strb	r3, [r6, #0]
 4274 3e6c D00D9FE5 		ldr	r0, .L286+276
 4275 3e70 FEFFFFEB 		bl	uart_transmit
 4276 3e74 B43C9FE5 		ldr	r3, .L286
 4277 3e78 0010D3E5 		ldrb	r1, [r3, #0]	@ zero_extendqisi2
 4278 3e7c 0030D6E5 		ldrb	r3, [r6, #0]	@ zero_extendqisi2
 4279 3e80 033081E0 		add	r3, r1, r3
 4280 3e84 0030C6E5 		strb	r3, [r6, #0]
 4281 3e88 B40D9FE5 		ldr	r0, .L286+276
 4282 3e8c FEFFFFEB 		bl	uart_transmit
 4283 3e90 0010D6E5 		ldrb	r1, [r6, #0]	@ zero_extendqisi2
 4284 3e94 0110E0E1 		mvn	r1, r1
 4285 3e98 FF1001E2 		and	r1, r1, #255
 4286 3e9c 0010C6E5 		strb	r1, [r6, #0]
 4287 3ea0 9C0D9FE5 		ldr	r0, .L286+276
 4288 3ea4 FEFFFFEB 		bl	uart_transmit
 4289 3ea8 030000EA 		b	.L125
 4290              	.L124:
 4291 3eac 643D9FE5 		ldr	r3, .L286+232
 4292 3eb0 0020D3E5 		ldrb	r2, [r3, #0]	@ zero_extendqisi2
 4293 3eb4 012082E2 		add	r2, r2, #1
 4294 3eb8 0020C3E5 		strb	r2, [r3, #0]
 4295              	.L125:
 4296 3ebc 702C9FE5 		ldr	r2, .L286+4
 4297 3ec0 5B30D2E5 		ldrb	r3, [r2, #91]	@ zero_extendqisi2
 4298 3ec4 030053E3 		cmp	r3, #3
 4299 3ec8 603C9FE5 		ldr	r3, .L286
 4300 3ecc 0400000A 		beq	.L126
 4301 3ed0 6410D2E5 		ldrb	r1, [r2, #100]	@ zero_extendqisi2
 4302 3ed4 0000D3E5 		ldrb	r0, [r3, #0]	@ zero_extendqisi2
 4303 3ed8 010050E1 		cmp	r0, r1
 4304 3edc 0010A023 		movcs	r1, #0
 4305 3ee0 0010C325 		strcsb	r1, [r3, #0]
 4306              	.L126:
 4307 3ee4 0030D3E5 		ldrb	r3, [r3, #0]	@ zero_extendqisi2
 4308 3ee8 6420D2E5 		ldrb	r2, [r2, #100]	@ zero_extendqisi2
 4309 3eec 820053E1 		cmp	r3, r2, asl #1
 4310 3ef0 383C9FA5 		ldrge	r3, .L286
 4311 3ef4 0010A0A3 		movge	r1, #0
 4312 3ef8 0010C3A5 		strgeb	r1, [r3, #0]
 4313 3efc 2C5C9FE5 		ldr	r5, .L286
 4314 3f00 0030D5E5 		ldrb	r3, [r5, #0]	@ zero_extendqisi2
 4315 3f04 020053E1 		cmp	r3, r2
 4316 3f08 8500002A 		bcs	.L128
 4317 3f0c 206C9FE5 		ldr	r6, .L286+4
 4318 3f10 833186E0 		add	r3, r6, r3, asl #3
 4319 3f14 6930D3E5 		ldrb	r3, [r3, #105]	@ zero_extendqisi2
 4320 3f18 000053E3 		cmp	r3, #0
 4321 3f1c 8000000A 		beq	.L128
 4322 3f20 1C0D9FE5 		ldr	r0, .L286+276
 4323 3f24 1310A0E3 		mov	r1, #19
 4324 3f28 FEFFFFEB 		bl	uart_check_free_space
 4325 3f2c 000050E3 		cmp	r0, #0
 4326 3f30 7700000A 		beq	.L129
 4327 3f34 E83C9FE5 		ldr	r3, .L286+244
 4328 3f38 B020D3E1 		ldrh	r2, [r3, #0]
 4329 3f3c 132082E2 		add	r2, r2, #19
 4330 3f40 B020C3E1 		strh	r2, [r3, #0]	@ movhi
 4331 3f44 DC3C9FE5 		ldr	r3, .L286+248
 4332 3f48 B020D3E1 		ldrh	r2, [r3, #0]
 4333 3f4c 012082E2 		add	r2, r2, #1
 4334 3f50 B020C3E1 		strh	r2, [r3, #0]	@ movhi
 4335 3f54 E80C9FE5 		ldr	r0, .L286+276
 4336 3f58 7E10A0E3 		mov	r1, #126
 4337 3f5c C84C9FE5 		ldr	r4, .L286+252
 4338 3f60 FEFFFFEB 		bl	uart_transmit
 4339 3f64 D80C9FE5 		ldr	r0, .L286+276
 4340 3f68 0010A0E3 		mov	r1, #0
 4341 3f6c FEFFFFEB 		bl	uart_transmit
 4342 3f70 0170A0E3 		mov	r7, #1
 4343 3f74 C80C9FE5 		ldr	r0, .L286+276
 4344 3f78 0F10A0E3 		mov	r1, #15
 4345 3f7c FEFFFFEB 		bl	uart_transmit
 4346 3f80 0710A0E1 		mov	r1, r7
 4347 3f84 0070C4E5 		strb	r7, [r4, #0]
 4348 3f88 B40C9FE5 		ldr	r0, .L286+276
 4349 3f8c FEFFFFEB 		bl	uart_transmit
 4350 3f90 AC0C9FE5 		ldr	r0, .L286+276
 4351 3f94 0010A0E3 		mov	r1, #0
 4352 3f98 FEFFFFEB 		bl	uart_transmit
 4353 3f9c 0030D4E5 		ldrb	r3, [r4, #0]	@ zero_extendqisi2
 4354 3fa0 073083E0 		add	r3, r3, r7
 4355 3fa4 0030C4E5 		strb	r3, [r4, #0]
 4356 3fa8 0710A0E1 		mov	r1, r7
 4357 3fac 900C9FE5 		ldr	r0, .L286+276
 4358 3fb0 FEFFFFEB 		bl	uart_transmit
 4359 3fb4 880C9FE5 		ldr	r0, .L286+276
 4360 3fb8 0010A0E3 		mov	r1, #0
 4361 3fbc FEFFFFEB 		bl	uart_transmit
 4362 3fc0 7C0C9FE5 		ldr	r0, .L286+276
 4363 3fc4 0010A0E3 		mov	r1, #0
 4364 3fc8 FEFFFFEB 		bl	uart_transmit
 4365 3fcc 0030D4E5 		ldrb	r3, [r4, #0]	@ zero_extendqisi2
 4366 3fd0 023083E2 		add	r3, r3, #2
 4367 3fd4 0030C4E5 		strb	r3, [r4, #0]
 4368 3fd8 640C9FE5 		ldr	r0, .L286+276
 4369 3fdc 0210A0E3 		mov	r1, #2
 4370 3fe0 FEFFFFEB 		bl	uart_transmit
 4371 3fe4 0030D4E5 		ldrb	r3, [r4, #0]	@ zero_extendqisi2
 4372 3fe8 193083E2 		add	r3, r3, #25
 4373 3fec 0030C4E5 		strb	r3, [r4, #0]
 4374 3ff0 4C0C9FE5 		ldr	r0, .L286+276
 4375 3ff4 1910A0E3 		mov	r1, #25
 4376 3ff8 FEFFFFEB 		bl	uart_transmit
 4377 3ffc 0010D5E5 		ldrb	r1, [r5, #0]	@ zero_extendqisi2
 4378 4000 0030D4E5 		ldrb	r3, [r4, #0]	@ zero_extendqisi2
 4379 4004 033081E0 		add	r3, r1, r3
 4380 4008 0030C4E5 		strb	r3, [r4, #0]
 4381 400c 300C9FE5 		ldr	r0, .L286+276
 4382 4010 FEFFFFEB 		bl	uart_transmit
 4383 4014 0030D5E5 		ldrb	r3, [r5, #0]	@ zero_extendqisi2
 4384 4018 833186E0 		add	r3, r6, r3, asl #3
 4385 401c 6610D3E5 		ldrb	r1, [r3, #102]	@ zero_extendqisi2
 4386 4020 0030D4E5 		ldrb	r3, [r4, #0]	@ zero_extendqisi2
 4387 4024 033081E0 		add	r3, r1, r3
 4388 4028 0030C4E5 		strb	r3, [r4, #0]
 4389 402c 100C9FE5 		ldr	r0, .L286+276
 4390 4030 FEFFFFEB 		bl	uart_transmit
 4391 4034 0030D5E5 		ldrb	r3, [r5, #0]	@ zero_extendqisi2
 4392 4038 833186E0 		add	r3, r6, r3, asl #3
 4393 403c 6710D3E5 		ldrb	r1, [r3, #103]	@ zero_extendqisi2
 4394 4040 0030D4E5 		ldrb	r3, [r4, #0]	@ zero_extendqisi2
 4395 4044 033081E0 		add	r3, r1, r3
 4396 4048 0030C4E5 		strb	r3, [r4, #0]
 4397 404c F00B9FE5 		ldr	r0, .L286+276
 4398 4050 FEFFFFEB 		bl	uart_transmit
 4399 4054 0030D5E5 		ldrb	r3, [r5, #0]	@ zero_extendqisi2
 4400 4058 833186E0 		add	r3, r6, r3, asl #3
 4401 405c 6810D3E5 		ldrb	r1, [r3, #104]	@ zero_extendqisi2
 4402 4060 0030D4E5 		ldrb	r3, [r4, #0]	@ zero_extendqisi2
 4403 4064 033081E0 		add	r3, r1, r3
 4404 4068 0030C4E5 		strb	r3, [r4, #0]
 4405 406c D00B9FE5 		ldr	r0, .L286+276
 4406 4070 FEFFFFEB 		bl	uart_transmit
 4407 4074 0030D5E5 		ldrb	r3, [r5, #0]	@ zero_extendqisi2
 4408 4078 833186E0 		add	r3, r6, r3, asl #3
 4409 407c 6910D3E5 		ldrb	r1, [r3, #105]	@ zero_extendqisi2
 4410 4080 0030D4E5 		ldrb	r3, [r4, #0]	@ zero_extendqisi2
 4411 4084 033081E0 		add	r3, r1, r3
 4412 4088 0030C4E5 		strb	r3, [r4, #0]
 4413 408c B00B9FE5 		ldr	r0, .L286+276
 4414 4090 FEFFFFEB 		bl	uart_transmit
 4415 4094 0030D5E5 		ldrb	r3, [r5, #0]	@ zero_extendqisi2
 4416 4098 833186E0 		add	r3, r6, r3, asl #3
 4417 409c 6A10D3E5 		ldrb	r1, [r3, #106]	@ zero_extendqisi2
 4418 40a0 0030D4E5 		ldrb	r3, [r4, #0]	@ zero_extendqisi2
 4419 40a4 033081E0 		add	r3, r1, r3
 4420 40a8 0030C4E5 		strb	r3, [r4, #0]
 4421 40ac 900B9FE5 		ldr	r0, .L286+276
 4422 40b0 FEFFFFEB 		bl	uart_transmit
 4423 40b4 0030D5E5 		ldrb	r3, [r5, #0]	@ zero_extendqisi2
 4424 40b8 0C6086E2 		add	r6, r6, #12
 4425 40bc 0C3083E2 		add	r3, r3, #12
 4426 40c0 8311D6E7 		ldrb	r1, [r6, r3, asl #3]	@ zero_extendqisi2
 4427 40c4 0030D4E5 		ldrb	r3, [r4, #0]	@ zero_extendqisi2
 4428 40c8 033081E0 		add	r3, r1, r3
 4429 40cc 0030C4E5 		strb	r3, [r4, #0]
 4430 40d0 6C0B9FE5 		ldr	r0, .L286+276
 4431 40d4 FEFFFFEB 		bl	uart_transmit
 4432 40d8 0030D5E5 		ldrb	r3, [r5, #0]	@ zero_extendqisi2
 4433 40dc 836186E0 		add	r6, r6, r3, asl #3
 4434 40e0 6110D6E5 		ldrb	r1, [r6, #97]	@ zero_extendqisi2
 4435 40e4 0030D4E5 		ldrb	r3, [r4, #0]	@ zero_extendqisi2
 4436 40e8 033081E0 		add	r3, r1, r3
 4437 40ec 0030C4E5 		strb	r3, [r4, #0]
 4438 40f0 4C0B9FE5 		ldr	r0, .L286+276
 4439 40f4 FEFFFFEB 		bl	uart_transmit
 4440 40f8 0010D4E5 		ldrb	r1, [r4, #0]	@ zero_extendqisi2
 4441 40fc 0110E0E1 		mvn	r1, r1
 4442 4100 FF1001E2 		and	r1, r1, #255
 4443 4104 0010C4E5 		strb	r1, [r4, #0]
 4444 4108 340B9FE5 		ldr	r0, .L286+276
 4445 410c FEFFFFEB 		bl	uart_transmit
 4446 4110 030000EA 		b	.L128
 4447              	.L129:
 4448 4114 FC3A9FE5 		ldr	r3, .L286+232
 4449 4118 0020D3E5 		ldrb	r2, [r3, #0]	@ zero_extendqisi2
 4450 411c 012082E2 		add	r2, r2, #1
 4451 4120 0020C3E5 		strb	r2, [r3, #0]
 4452              	.L128:
 4453 4124 043A9FE5 		ldr	r3, .L286
 4454 4128 0020D3E5 		ldrb	r2, [r3, #0]	@ zero_extendqisi2
 4455 412c 012082E2 		add	r2, r2, #1
 4456 4130 0020C3E5 		strb	r2, [r3, #0]
 4457              	.L123:
 4458 4134 FC399FE5 		ldr	r3, .L286+8
 4459 4138 0030D3E5 		ldrb	r3, [r3, #0]	@ zero_extendqisi2
 4460 413c 060053E3 		cmp	r3, #6
 4461 4140 A400001A 		bne	.L130
 4462 4144 F0399FE5 		ldr	r3, .L286+12
 4463 4148 0A10A0E3 		mov	r1, #10
 4464 414c 000093E5 		ldr	r0, [r3, #0]
 4465 4150 FEFFFFEB 		bl	__aeabi_idiv
 4466 4154 E4399FE5 		ldr	r3, .L286+16
 4467 4158 BE01CDE1 		strh	r0, [sp, #30]	@ movhi
 4468 415c 000093E5 		ldr	r0, [r3, #0]	@ float
 4469 4160 FEFFFFEB 		bl	__aeabi_f2iz
 4470 4164 1910A0E3 		mov	r1, #25
 4471 4168 BC01CDE1 		strh	r0, [sp, #28]	@ movhi
 4472 416c D00A9FE5 		ldr	r0, .L286+276
 4473 4170 FEFFFFEB 		bl	uart_check_free_space
 4474 4174 000050E3 		cmp	r0, #0
 4475 4178 9200000A 		beq	.L131
 4476 417c A03A9FE5 		ldr	r3, .L286+244
 4477 4180 B020D3E1 		ldrh	r2, [r3, #0]
 4478 4184 192082E2 		add	r2, r2, #25
 4479 4188 B020C3E1 		strh	r2, [r3, #0]	@ movhi
 4480 418c 943A9FE5 		ldr	r3, .L286+248
 4481 4190 B020D3E1 		ldrh	r2, [r3, #0]
 4482 4194 012082E2 		add	r2, r2, #1
 4483 4198 B020C3E1 		strh	r2, [r3, #0]	@ movhi
 4484 419c A00A9FE5 		ldr	r0, .L286+276
 4485 41a0 7E10A0E3 		mov	r1, #126
 4486 41a4 804A9FE5 		ldr	r4, .L286+252
 4487 41a8 FEFFFFEB 		bl	uart_transmit
 4488 41ac 900A9FE5 		ldr	r0, .L286+276
 4489 41b0 0010A0E3 		mov	r1, #0
 4490 41b4 FEFFFFEB 		bl	uart_transmit
 4491 41b8 0150A0E3 		mov	r5, #1
 4492 41bc 800A9FE5 		ldr	r0, .L286+276
 4493 41c0 1510A0E3 		mov	r1, #21
 4494 41c4 FEFFFFEB 		bl	uart_transmit
 4495 41c8 0050C4E5 		strb	r5, [r4, #0]
 4496 41cc 0510A0E1 		mov	r1, r5
 4497 41d0 6C0A9FE5 		ldr	r0, .L286+276
 4498 41d4 FEFFFFEB 		bl	uart_transmit
 4499 41d8 640A9FE5 		ldr	r0, .L286+276
 4500 41dc 0010A0E3 		mov	r1, #0
 4501 41e0 FEFFFFEB 		bl	uart_transmit
 4502 41e4 0030D4E5 		ldrb	r3, [r4, #0]	@ zero_extendqisi2
 4503 41e8 053083E0 		add	r3, r3, r5
 4504 41ec 0030C4E5 		strb	r3, [r4, #0]
 4505 41f0 0510A0E1 		mov	r1, r5
 4506 41f4 480A9FE5 		ldr	r0, .L286+276
 4507 41f8 FEFFFFEB 		bl	uart_transmit
 4508 41fc 400A9FE5 		ldr	r0, .L286+276
 4509 4200 0010A0E3 		mov	r1, #0
 4510 4204 FEFFFFEB 		bl	uart_transmit
 4511 4208 340A9FE5 		ldr	r0, .L286+276
 4512 420c 0010A0E3 		mov	r1, #0
 4513 4210 FEFFFFEB 		bl	uart_transmit
 4514 4214 0030D4E5 		ldrb	r3, [r4, #0]	@ zero_extendqisi2
 4515 4218 023083E2 		add	r3, r3, #2
 4516 421c 0030C4E5 		strb	r3, [r4, #0]
 4517 4220 1C0A9FE5 		ldr	r0, .L286+276
 4518 4224 0210A0E3 		mov	r1, #2
 4519 4228 FEFFFFEB 		bl	uart_transmit
 4520 422c 0030D4E5 		ldrb	r3, [r4, #0]	@ zero_extendqisi2
 4521 4230 0C599FE5 		ldr	r5, .L286+20
 4522 4234 0C3083E2 		add	r3, r3, #12
 4523 4238 0030C4E5 		strb	r3, [r4, #0]
 4524 423c 000A9FE5 		ldr	r0, .L286+276
 4525 4240 0C10A0E3 		mov	r1, #12
 4526 4244 FEFFFFEB 		bl	uart_transmit
 4527 4248 0010D5E5 		ldrb	r1, [r5, #0]	@ zero_extendqisi2
 4528 424c 0030D4E5 		ldrb	r3, [r4, #0]	@ zero_extendqisi2
 4529 4250 033081E0 		add	r3, r1, r3
 4530 4254 0030C4E5 		strb	r3, [r4, #0]
 4531 4258 E4099FE5 		ldr	r0, .L286+276
 4532 425c FEFFFFEB 		bl	uart_transmit
 4533 4260 0110D5E5 		ldrb	r1, [r5, #1]	@ zero_extendqisi2
 4534 4264 0030D4E5 		ldrb	r3, [r4, #0]	@ zero_extendqisi2
 4535 4268 033081E0 		add	r3, r1, r3
 4536 426c 0030C4E5 		strb	r3, [r4, #0]
 4537 4270 CC099FE5 		ldr	r0, .L286+276
 4538 4274 FEFFFFEB 		bl	uart_transmit
 4539 4278 C8389FE5 		ldr	r3, .L286+24
 4540 427c 0010D3E5 		ldrb	r1, [r3, #0]	@ zero_extendqisi2
 4541 4280 0030D4E5 		ldrb	r3, [r4, #0]	@ zero_extendqisi2
 4542 4284 033081E0 		add	r3, r1, r3
 4543 4288 0030C4E5 		strb	r3, [r4, #0]
 4544 428c B0099FE5 		ldr	r0, .L286+276
 4545 4290 FEFFFFEB 		bl	uart_transmit
 4546 4294 1E10DDE5 		ldrb	r1, [sp, #30]	@ zero_extendqisi2
 4547 4298 0030D4E5 		ldrb	r3, [r4, #0]	@ zero_extendqisi2
 4548 429c 033081E0 		add	r3, r1, r3
 4549 42a0 0030C4E5 		strb	r3, [r4, #0]
 4550 42a4 98099FE5 		ldr	r0, .L286+276
 4551 42a8 FEFFFFEB 		bl	uart_transmit
 4552 42ac 1F10DDE5 		ldrb	r1, [sp, #31]	@ zero_extendqisi2
 4553 42b0 0030D4E5 		ldrb	r3, [r4, #0]	@ zero_extendqisi2
 4554 42b4 90589FE5 		ldr	r5, .L286+28
 4555 42b8 033081E0 		add	r3, r1, r3
 4556 42bc 0030C4E5 		strb	r3, [r4, #0]
 4557 42c0 7C099FE5 		ldr	r0, .L286+276
 4558 42c4 FEFFFFEB 		bl	uart_transmit
 4559 42c8 0010D5E5 		ldrb	r1, [r5, #0]	@ zero_extendqisi2
 4560 42cc 0030D4E5 		ldrb	r3, [r4, #0]	@ zero_extendqisi2
 4561 42d0 033081E0 		add	r3, r1, r3
 4562 42d4 0030C4E5 		strb	r3, [r4, #0]
 4563 42d8 64099FE5 		ldr	r0, .L286+276
 4564 42dc FEFFFFEB 		bl	uart_transmit
 4565 42e0 0110D5E5 		ldrb	r1, [r5, #1]	@ zero_extendqisi2
 4566 42e4 0030D4E5 		ldrb	r3, [r4, #0]	@ zero_extendqisi2
 4567 42e8 033081E0 		add	r3, r1, r3
 4568 42ec 0030C4E5 		strb	r3, [r4, #0]
 4569 42f0 4C099FE5 		ldr	r0, .L286+276
 4570 42f4 FEFFFFEB 		bl	uart_transmit
 4571 42f8 50389FE5 		ldr	r3, .L286+32
 4572 42fc 0010D3E5 		ldrb	r1, [r3, #0]	@ zero_extendqisi2
 4573 4300 0030D4E5 		ldrb	r3, [r4, #0]	@ zero_extendqisi2
 4574 4304 48589FE5 		ldr	r5, .L286+36
 4575 4308 033081E0 		add	r3, r1, r3
 4576 430c 0030C4E5 		strb	r3, [r4, #0]
 4577 4310 2C099FE5 		ldr	r0, .L286+276
 4578 4314 FEFFFFEB 		bl	uart_transmit
 4579 4318 0010D5E5 		ldrb	r1, [r5, #0]	@ zero_extendqisi2
 4580 431c 0030D4E5 		ldrb	r3, [r4, #0]	@ zero_extendqisi2
 4581 4320 033081E0 		add	r3, r1, r3
 4582 4324 0030C4E5 		strb	r3, [r4, #0]
 4583 4328 14099FE5 		ldr	r0, .L286+276
 4584 432c FEFFFFEB 		bl	uart_transmit
 4585 4330 0110D5E5 		ldrb	r1, [r5, #1]	@ zero_extendqisi2
 4586 4334 0030D4E5 		ldrb	r3, [r4, #0]	@ zero_extendqisi2
 4587 4338 18589FE5 		ldr	r5, .L286+40
 4588 433c 033081E0 		add	r3, r1, r3
 4589 4340 0030C4E5 		strb	r3, [r4, #0]
 4590 4344 F8089FE5 		ldr	r0, .L286+276
 4591 4348 FEFFFFEB 		bl	uart_transmit
 4592 434c 0010D5E5 		ldrb	r1, [r5, #0]	@ zero_extendqisi2
 4593 4350 0030D4E5 		ldrb	r3, [r4, #0]	@ zero_extendqisi2
 4594 4354 033081E0 		add	r3, r1, r3
 4595 4358 0030C4E5 		strb	r3, [r4, #0]
 4596 435c E0089FE5 		ldr	r0, .L286+276
 4597 4360 FEFFFFEB 		bl	uart_transmit
 4598 4364 0110D5E5 		ldrb	r1, [r5, #1]	@ zero_extendqisi2
 4599 4368 0030D4E5 		ldrb	r3, [r4, #0]	@ zero_extendqisi2
 4600 436c 033081E0 		add	r3, r1, r3
 4601 4370 0030C4E5 		strb	r3, [r4, #0]
 4602 4374 C8089FE5 		ldr	r0, .L286+276
 4603 4378 FEFFFFEB 		bl	uart_transmit
 4604 437c 1C10DDE5 		ldrb	r1, [sp, #28]	@ zero_extendqisi2
 4605 4380 0030D4E5 		ldrb	r3, [r4, #0]	@ zero_extendqisi2
 4606 4384 033081E0 		add	r3, r1, r3
 4607 4388 0030C4E5 		strb	r3, [r4, #0]
 4608 438c B0089FE5 		ldr	r0, .L286+276
 4609 4390 FEFFFFEB 		bl	uart_transmit
 4610 4394 1D10DDE5 		ldrb	r1, [sp, #29]	@ zero_extendqisi2
 4611 4398 0030D4E5 		ldrb	r3, [r4, #0]	@ zero_extendqisi2
 4612 439c 033081E0 		add	r3, r1, r3
 4613 43a0 0030C4E5 		strb	r3, [r4, #0]
 4614 43a4 98089FE5 		ldr	r0, .L286+276
 4615 43a8 FEFFFFEB 		bl	uart_transmit
 4616 43ac 0010D4E5 		ldrb	r1, [r4, #0]	@ zero_extendqisi2
 4617 43b0 0110E0E1 		mvn	r1, r1
 4618 43b4 FF1001E2 		and	r1, r1, #255
 4619 43b8 0010C4E5 		strb	r1, [r4, #0]
 4620 43bc 80089FE5 		ldr	r0, .L286+276
 4621 43c0 FEFFFFEB 		bl	uart_transmit
 4622 43c4 030000EA 		b	.L130
 4623              	.L131:
 4624 43c8 48389FE5 		ldr	r3, .L286+232
 4625 43cc 0020D3E5 		ldrb	r2, [r3, #0]	@ zero_extendqisi2
 4626 43d0 012082E2 		add	r2, r2, #1
 4627 43d4 0020C3E5 		strb	r2, [r3, #0]
 4628              	.L130:
 4629 43d8 7C379FE5 		ldr	r3, .L286+44
 4630 43dc 0030D3E5 		ldrb	r3, [r3, #0]	@ zero_extendqisi2
 4631 43e0 0C0053E3 		cmp	r3, #12
 4632 43e4 7900001A 		bne	.L132
 4633 43e8 54089FE5 		ldr	r0, .L286+276
 4634 43ec 1310A0E3 		mov	r1, #19
 4635 43f0 FEFFFFEB 		bl	uart_check_free_space
 4636 43f4 000050E3 		cmp	r0, #0
 4637 43f8 7000000A 		beq	.L133
 4638 43fc 20389FE5 		ldr	r3, .L286+244
 4639 4400 B020D3E1 		ldrh	r2, [r3, #0]
 4640 4404 132082E2 		add	r2, r2, #19
 4641 4408 B020C3E1 		strh	r2, [r3, #0]	@ movhi
 4642 440c 14389FE5 		ldr	r3, .L286+248
 4643 4410 B020D3E1 		ldrh	r2, [r3, #0]
 4644 4414 012082E2 		add	r2, r2, #1
 4645 4418 B020C3E1 		strh	r2, [r3, #0]	@ movhi
 4646 441c 20089FE5 		ldr	r0, .L286+276
 4647 4420 7E10A0E3 		mov	r1, #126
 4648 4424 00489FE5 		ldr	r4, .L286+252
 4649 4428 FEFFFFEB 		bl	uart_transmit
 4650 442c 10089FE5 		ldr	r0, .L286+276
 4651 4430 0010A0E3 		mov	r1, #0
 4652 4434 FEFFFFEB 		bl	uart_transmit
 4653 4438 0150A0E3 		mov	r5, #1
 4654 443c 00089FE5 		ldr	r0, .L286+276
 4655 4440 0F10A0E3 		mov	r1, #15
 4656 4444 FEFFFFEB 		bl	uart_transmit
 4657 4448 0510A0E1 		mov	r1, r5
 4658 444c 0050C4E5 		strb	r5, [r4, #0]
 4659 4450 EC079FE5 		ldr	r0, .L286+276
 4660 4454 FEFFFFEB 		bl	uart_transmit
 4661 4458 E4079FE5 		ldr	r0, .L286+276
 4662 445c 0010A0E3 		mov	r1, #0
 4663 4460 FEFFFFEB 		bl	uart_transmit
 4664 4464 0030D4E5 		ldrb	r3, [r4, #0]	@ zero_extendqisi2
 4665 4468 053083E0 		add	r3, r3, r5
 4666 446c 0030C4E5 		strb	r3, [r4, #0]
 4667 4470 0510A0E1 		mov	r1, r5
 4668 4474 C8079FE5 		ldr	r0, .L286+276
 4669 4478 FEFFFFEB 		bl	uart_transmit
 4670 447c C0079FE5 		ldr	r0, .L286+276
 4671 4480 0010A0E3 		mov	r1, #0
 4672 4484 FEFFFFEB 		bl	uart_transmit
 4673 4488 B4079FE5 		ldr	r0, .L286+276
 4674 448c 0010A0E3 		mov	r1, #0
 4675 4490 FEFFFFEB 		bl	uart_transmit
 4676 4494 0030D4E5 		ldrb	r3, [r4, #0]	@ zero_extendqisi2
 4677 4498 023083E2 		add	r3, r3, #2
 4678 449c 0030C4E5 		strb	r3, [r4, #0]
 4679 44a0 9C079FE5 		ldr	r0, .L286+276
 4680 44a4 0210A0E3 		mov	r1, #2
 4681 44a8 FEFFFFEB 		bl	uart_transmit
 4682 44ac 0030D4E5 		ldrb	r3, [r4, #0]	@ zero_extendqisi2
 4683 44b0 2A3083E2 		add	r3, r3, #42
 4684 44b4 0030C4E5 		strb	r3, [r4, #0]
 4685 44b8 2A10A0E3 		mov	r1, #42
 4686 44bc 80079FE5 		ldr	r0, .L286+276
 4687 44c0 FEFFFFEB 		bl	uart_transmit
 4688 44c4 FEFFFFEB 		bl	stateGetPositionUtm_f
 4689 44c8 0030D4E5 		ldrb	r3, [r4, #0]	@ zero_extendqisi2
 4690 44cc 0810D0E5 		ldrb	r1, [r0, #8]	@ zero_extendqisi2
 4691 44d0 033081E0 		add	r3, r1, r3
 4692 44d4 0030C4E5 		strb	r3, [r4, #0]
 4693 44d8 64079FE5 		ldr	r0, .L286+276
 4694 44dc FEFFFFEB 		bl	uart_transmit
 4695 44e0 FEFFFFEB 		bl	stateGetPositionUtm_f
 4696 44e4 0030D4E5 		ldrb	r3, [r4, #0]	@ zero_extendqisi2
 4697 44e8 0910D0E5 		ldrb	r1, [r0, #9]	@ zero_extendqisi2
 4698 44ec 033081E0 		add	r3, r1, r3
 4699 44f0 0030C4E5 		strb	r3, [r4, #0]
 4700 44f4 48079FE5 		ldr	r0, .L286+276
 4701 44f8 FEFFFFEB 		bl	uart_transmit
 4702 44fc FEFFFFEB 		bl	stateGetPositionUtm_f
 4703 4500 0030D4E5 		ldrb	r3, [r4, #0]	@ zero_extendqisi2
 4704 4504 0A10D0E5 		ldrb	r1, [r0, #10]	@ zero_extendqisi2
 4705 4508 033081E0 		add	r3, r1, r3
 4706 450c 0030C4E5 		strb	r3, [r4, #0]
 4707 4510 2C079FE5 		ldr	r0, .L286+276
 4708 4514 FEFFFFEB 		bl	uart_transmit
 4709 4518 FEFFFFEB 		bl	stateGetPositionUtm_f
 4710 451c 0030D4E5 		ldrb	r3, [r4, #0]	@ zero_extendqisi2
 4711 4520 0B10D0E5 		ldrb	r1, [r0, #11]	@ zero_extendqisi2
 4712 4524 033081E0 		add	r3, r1, r3
 4713 4528 0030C4E5 		strb	r3, [r4, #0]
 4714 452c 10079FE5 		ldr	r0, .L286+276
 4715 4530 FEFFFFEB 		bl	uart_transmit
 4716 4534 FEFFFFEB 		bl	stateGetSpeedEnu_f
 4717 4538 0030D4E5 		ldrb	r3, [r4, #0]	@ zero_extendqisi2
 4718 453c 0810D0E5 		ldrb	r1, [r0, #8]	@ zero_extendqisi2
 4719 4540 033081E0 		add	r3, r1, r3
 4720 4544 0030C4E5 		strb	r3, [r4, #0]
 4721 4548 F4069FE5 		ldr	r0, .L286+276
 4722 454c FEFFFFEB 		bl	uart_transmit
 4723 4550 FEFFFFEB 		bl	stateGetSpeedEnu_f
 4724 4554 0030D4E5 		ldrb	r3, [r4, #0]	@ zero_extendqisi2
 4725 4558 0910D0E5 		ldrb	r1, [r0, #9]	@ zero_extendqisi2
 4726 455c 033081E0 		add	r3, r1, r3
 4727 4560 0030C4E5 		strb	r3, [r4, #0]
 4728 4564 D8069FE5 		ldr	r0, .L286+276
 4729 4568 FEFFFFEB 		bl	uart_transmit
 4730 456c FEFFFFEB 		bl	stateGetSpeedEnu_f
 4731 4570 0030D4E5 		ldrb	r3, [r4, #0]	@ zero_extendqisi2
 4732 4574 0A10D0E5 		ldrb	r1, [r0, #10]	@ zero_extendqisi2
 4733 4578 033081E0 		add	r3, r1, r3
 4734 457c 0030C4E5 		strb	r3, [r4, #0]
 4735 4580 BC069FE5 		ldr	r0, .L286+276
 4736 4584 FEFFFFEB 		bl	uart_transmit
 4737 4588 FEFFFFEB 		bl	stateGetSpeedEnu_f
 4738 458c 0030D4E5 		ldrb	r3, [r4, #0]	@ zero_extendqisi2
 4739 4590 0B10D0E5 		ldrb	r1, [r0, #11]	@ zero_extendqisi2
 4740 4594 033081E0 		add	r3, r1, r3
 4741 4598 0030C4E5 		strb	r3, [r4, #0]
 4742 459c A0069FE5 		ldr	r0, .L286+276
 4743 45a0 FEFFFFEB 		bl	uart_transmit
 4744 45a4 0010D4E5 		ldrb	r1, [r4, #0]	@ zero_extendqisi2
 4745 45a8 0110E0E1 		mvn	r1, r1
 4746 45ac FF1001E2 		and	r1, r1, #255
 4747 45b0 0010C4E5 		strb	r1, [r4, #0]
 4748 45b4 88069FE5 		ldr	r0, .L286+276
 4749 45b8 FEFFFFEB 		bl	uart_transmit
 4750 45bc 030000EA 		b	.L132
 4751              	.L133:
 4752 45c0 50369FE5 		ldr	r3, .L286+232
 4753 45c4 0020D3E5 		ldrb	r2, [r3, #0]	@ zero_extendqisi2
 4754 45c8 012082E2 		add	r2, r2, #1
 4755 45cc 0020C3E5 		strb	r2, [r3, #0]
 4756              	.L132:
 4757 45d0 88359FE5 		ldr	r3, .L286+48
 4758 45d4 0030D3E5 		ldrb	r3, [r3, #0]	@ zero_extendqisi2
 4759 45d8 120053E3 		cmp	r3, #18
 4760 45dc BA00001A 		bne	.L134
 4761 45e0 7C359FE5 		ldr	r3, .L286+52
 4762 45e4 7C159FE5 		ldr	r1, .L286+56
 4763 45e8 0020D3E5 		ldrb	r2, [r3, #0]	@ zero_extendqisi2
 4764 45ec 0010D1E5 		ldrb	r1, [r1, #0]	@ zero_extendqisi2
 4765 45f0 012082E2 		add	r2, r2, #1
 4766 45f4 FF2002E2 		and	r2, r2, #255
 4767 45f8 020051E1 		cmp	r1, r2
 4768 45fc 0020C3E5 		strb	r2, [r3, #0]
 4769 4600 0020A093 		movls	r2, #0
 4770 4604 0020C395 		strlsb	r2, [r3, #0]
 4771 4608 0040D3E5 		ldrb	r4, [r3, #0]	@ zero_extendqisi2
 4772 460c 58359FE5 		ldr	r3, .L286+60
 4773 4610 0C60A0E3 		mov	r6, #12
 4774 4614 000093E5 		ldr	r0, [r3, #0]
 4775 4618 FEFFFFEB 		bl	__aeabi_i2f
 4776 461c 960403E0 		mul	r3, r6, r4
 4777 4620 48559FE5 		ldr	r5, .L286+64
 4778 4624 031095E7 		ldr	r1, [r5, r3]	@ float
 4779 4628 034085E0 		add	r4, r5, r3
 4780 462c FEFFFFEB 		bl	__aeabi_fadd
 4781 4630 3C359FE5 		ldr	r3, .L286+68
 4782 4634 18008DE5 		str	r0, [sp, #24]	@ float
 4783 4638 000093E5 		ldr	r0, [r3, #0]
 4784 463c FEFFFFEB 		bl	__aeabi_i2f
 4785 4640 041094E5 		ldr	r1, [r4, #4]	@ float
 4786 4644 FEFFFFEB 		bl	__aeabi_fadd
 4787 4648 1910A0E3 		mov	r1, #25
 4788 464c 10008DE5 		str	r0, [sp, #16]	@ float
 4789 4650 EC059FE5 		ldr	r0, .L286+276
 4790 4654 FEFFFFEB 		bl	uart_check_free_space
 4791 4658 000050E3 		cmp	r0, #0
 4792 465c 00759FE5 		ldr	r7, .L286+52
 4793 4660 9500000A 		beq	.L136
 4794 4664 B8359FE5 		ldr	r3, .L286+244
 4795 4668 B020D3E1 		ldrh	r2, [r3, #0]
 4796 466c 192082E2 		add	r2, r2, #25
 4797 4670 B020C3E1 		strh	r2, [r3, #0]	@ movhi
 4798 4674 AC359FE5 		ldr	r3, .L286+248
 4799 4678 B020D3E1 		ldrh	r2, [r3, #0]
 4800 467c 012082E2 		add	r2, r2, #1
 4801 4680 B020C3E1 		strh	r2, [r3, #0]	@ movhi
 4802 4684 B8059FE5 		ldr	r0, .L286+276
 4803 4688 7E10A0E3 		mov	r1, #126
 4804 468c 98459FE5 		ldr	r4, .L286+252
 4805 4690 FEFFFFEB 		bl	uart_transmit
 4806 4694 A8059FE5 		ldr	r0, .L286+276
 4807 4698 0010A0E3 		mov	r1, #0
 4808 469c FEFFFFEB 		bl	uart_transmit
 4809 46a0 0180A0E3 		mov	r8, #1
 4810 46a4 98059FE5 		ldr	r0, .L286+276
 4811 46a8 1510A0E3 		mov	r1, #21
 4812 46ac FEFFFFEB 		bl	uart_transmit
 4813 46b0 0810A0E1 		mov	r1, r8
 4814 46b4 0080C4E5 		strb	r8, [r4, #0]
 4815 46b8 84059FE5 		ldr	r0, .L286+276
 4816 46bc FEFFFFEB 		bl	uart_transmit
 4817 46c0 7C059FE5 		ldr	r0, .L286+276
 4818 46c4 0010A0E3 		mov	r1, #0
 4819 46c8 FEFFFFEB 		bl	uart_transmit
 4820 46cc 0030D4E5 		ldrb	r3, [r4, #0]	@ zero_extendqisi2
 4821 46d0 083083E0 		add	r3, r3, r8
 4822 46d4 0030C4E5 		strb	r3, [r4, #0]
 4823 46d8 0810A0E1 		mov	r1, r8
 4824 46dc 60059FE5 		ldr	r0, .L286+276
 4825 46e0 FEFFFFEB 		bl	uart_transmit
 4826 46e4 58059FE5 		ldr	r0, .L286+276
 4827 46e8 0010A0E3 		mov	r1, #0
 4828 46ec FEFFFFEB 		bl	uart_transmit
 4829 46f0 4C059FE5 		ldr	r0, .L286+276
 4830 46f4 0010A0E3 		mov	r1, #0
 4831 46f8 FEFFFFEB 		bl	uart_transmit
 4832 46fc 0030D4E5 		ldrb	r3, [r4, #0]	@ zero_extendqisi2
 4833 4700 023083E2 		add	r3, r3, #2
 4834 4704 0030C4E5 		strb	r3, [r4, #0]
 4835 4708 34059FE5 		ldr	r0, .L286+276
 4836 470c 0210A0E3 		mov	r1, #2
 4837 4710 FEFFFFEB 		bl	uart_transmit
 4838 4714 0030D4E5 		ldrb	r3, [r4, #0]	@ zero_extendqisi2
 4839 4718 233083E2 		add	r3, r3, #35
 4840 471c 0030C4E5 		strb	r3, [r4, #0]
 4841 4720 1C059FE5 		ldr	r0, .L286+276
 4842 4724 2310A0E3 		mov	r1, #35
 4843 4728 FEFFFFEB 		bl	uart_transmit
 4844 472c 0010D7E5 		ldrb	r1, [r7, #0]	@ zero_extendqisi2
 4845 4730 0030D4E5 		ldrb	r3, [r4, #0]	@ zero_extendqisi2
 4846 4734 033081E0 		add	r3, r1, r3
 4847 4738 0030C4E5 		strb	r3, [r4, #0]
 4848 473c 00059FE5 		ldr	r0, .L286+276
 4849 4740 FEFFFFEB 		bl	uart_transmit
 4850 4744 1810DDE5 		ldrb	r1, [sp, #24]	@ zero_extendqisi2
 4851 4748 0030D4E5 		ldrb	r3, [r4, #0]	@ zero_extendqisi2
 4852 474c 033081E0 		add	r3, r1, r3
 4853 4750 0030C4E5 		strb	r3, [r4, #0]
 4854 4754 E8049FE5 		ldr	r0, .L286+276
 4855 4758 FEFFFFEB 		bl	uart_transmit
 4856 475c 1910DDE5 		ldrb	r1, [sp, #25]	@ zero_extendqisi2
 4857 4760 0030D4E5 		ldrb	r3, [r4, #0]	@ zero_extendqisi2
 4858 4764 033081E0 		add	r3, r1, r3
 4859 4768 0030C4E5 		strb	r3, [r4, #0]
 4860 476c D0049FE5 		ldr	r0, .L286+276
 4861 4770 FEFFFFEB 		bl	uart_transmit
 4862 4774 1A10DDE5 		ldrb	r1, [sp, #26]	@ zero_extendqisi2
 4863 4778 0030D4E5 		ldrb	r3, [r4, #0]	@ zero_extendqisi2
 4864 477c 033081E0 		add	r3, r1, r3
 4865 4780 0030C4E5 		strb	r3, [r4, #0]
 4866 4784 B8049FE5 		ldr	r0, .L286+276
 4867 4788 FEFFFFEB 		bl	uart_transmit
 4868 478c 1B10DDE5 		ldrb	r1, [sp, #27]	@ zero_extendqisi2
 4869 4790 0030D4E5 		ldrb	r3, [r4, #0]	@ zero_extendqisi2
 4870 4794 033081E0 		add	r3, r1, r3
 4871 4798 0030C4E5 		strb	r3, [r4, #0]
 4872 479c A0049FE5 		ldr	r0, .L286+276
 4873 47a0 FEFFFFEB 		bl	uart_transmit
 4874 47a4 1010DDE5 		ldrb	r1, [sp, #16]	@ zero_extendqisi2
 4875 47a8 0030D4E5 		ldrb	r3, [r4, #0]	@ zero_extendqisi2
 4876 47ac 033081E0 		add	r3, r1, r3
 4877 47b0 0030C4E5 		strb	r3, [r4, #0]
 4878 47b4 88049FE5 		ldr	r0, .L286+276
 4879 47b8 FEFFFFEB 		bl	uart_transmit
 4880 47bc 1110DDE5 		ldrb	r1, [sp, #17]	@ zero_extendqisi2
 4881 47c0 0030D4E5 		ldrb	r3, [r4, #0]	@ zero_extendqisi2
 4882 47c4 033081E0 		add	r3, r1, r3
 4883 47c8 0030C4E5 		strb	r3, [r4, #0]
 4884 47cc 70049FE5 		ldr	r0, .L286+276
 4885 47d0 FEFFFFEB 		bl	uart_transmit
 4886 47d4 1210DDE5 		ldrb	r1, [sp, #18]	@ zero_extendqisi2
 4887 47d8 0030D4E5 		ldrb	r3, [r4, #0]	@ zero_extendqisi2
 4888 47dc 033081E0 		add	r3, r1, r3
 4889 47e0 0030C4E5 		strb	r3, [r4, #0]
 4890 47e4 58049FE5 		ldr	r0, .L286+276
 4891 47e8 FEFFFFEB 		bl	uart_transmit
 4892 47ec 1310DDE5 		ldrb	r1, [sp, #19]	@ zero_extendqisi2
 4893 47f0 0030D4E5 		ldrb	r3, [r4, #0]	@ zero_extendqisi2
 4894 47f4 033081E0 		add	r3, r1, r3
 4895 47f8 0030C4E5 		strb	r3, [r4, #0]
 4896 47fc 40049FE5 		ldr	r0, .L286+276
 4897 4800 FEFFFFEB 		bl	uart_transmit
 4898 4804 0030D7E5 		ldrb	r3, [r7, #0]	@ zero_extendqisi2
 4899 4808 965323E0 		mla	r3, r6, r3, r5
 4900 480c 0810D3E5 		ldrb	r1, [r3, #8]	@ zero_extendqisi2
 4901 4810 0030D4E5 		ldrb	r3, [r4, #0]	@ zero_extendqisi2
 4902 4814 033081E0 		add	r3, r1, r3
 4903 4818 0030C4E5 		strb	r3, [r4, #0]
 4904 481c 20049FE5 		ldr	r0, .L286+276
 4905 4820 FEFFFFEB 		bl	uart_transmit
 4906 4824 0030D7E5 		ldrb	r3, [r7, #0]	@ zero_extendqisi2
 4907 4828 965323E0 		mla	r3, r6, r3, r5
 4908 482c 0910D3E5 		ldrb	r1, [r3, #9]	@ zero_extendqisi2
 4909 4830 0030D4E5 		ldrb	r3, [r4, #0]	@ zero_extendqisi2
 4910 4834 033081E0 		add	r3, r1, r3
 4911 4838 0030C4E5 		strb	r3, [r4, #0]
 4912 483c 00049FE5 		ldr	r0, .L286+276
 4913 4840 FEFFFFEB 		bl	uart_transmit
 4914 4844 0030D7E5 		ldrb	r3, [r7, #0]	@ zero_extendqisi2
 4915 4848 965323E0 		mla	r3, r6, r3, r5
 4916 484c 0A10D3E5 		ldrb	r1, [r3, #10]	@ zero_extendqisi2
 4917 4850 0030D4E5 		ldrb	r3, [r4, #0]	@ zero_extendqisi2
 4918 4854 033081E0 		add	r3, r1, r3
 4919 4858 0030C4E5 		strb	r3, [r4, #0]
 4920 485c E0039FE5 		ldr	r0, .L286+276
 4921 4860 FEFFFFEB 		bl	uart_transmit
 4922 4864 0030D7E5 		ldrb	r3, [r7, #0]	@ zero_extendqisi2
 4923 4868 965325E0 		mla	r5, r6, r3, r5
 4924 486c 0030D4E5 		ldrb	r3, [r4, #0]	@ zero_extendqisi2
 4925 4870 0B10D5E5 		ldrb	r1, [r5, #11]	@ zero_extendqisi2
 4926 4874 033081E0 		add	r3, r1, r3
 4927 4878 0030C4E5 		strb	r3, [r4, #0]
 4928 487c C0039FE5 		ldr	r0, .L286+276
 4929 4880 FEFFFFEB 		bl	uart_transmit
 4930 4884 EC329FE5 		ldr	r3, .L286+72
 4931 4888 0010D3E5 		ldrb	r1, [r3, #0]	@ zero_extendqisi2
 4932 488c 0030D4E5 		ldrb	r3, [r4, #0]	@ zero_extendqisi2
 4933 4890 033081E0 		add	r3, r1, r3
 4934 4894 0030C4E5 		strb	r3, [r4, #0]
 4935 4898 A4039FE5 		ldr	r0, .L286+276
 4936 489c FEFFFFEB 		bl	uart_transmit
 4937 48a0 0010D4E5 		ldrb	r1, [r4, #0]	@ zero_extendqisi2
 4938 48a4 0110E0E1 		mvn	r1, r1
 4939 48a8 FF1001E2 		and	r1, r1, #255
 4940 48ac 0010C4E5 		strb	r1, [r4, #0]
 4941 48b0 8C039FE5 		ldr	r0, .L286+276
 4942 48b4 FEFFFFEB 		bl	uart_transmit
 4943 48b8 030000EA 		b	.L134
 4944              	.L136:
 4945 48bc 54339FE5 		ldr	r3, .L286+232
 4946 48c0 0020D3E5 		ldrb	r2, [r3, #0]	@ zero_extendqisi2
 4947 48c4 012082E2 		add	r2, r2, #1
 4948 48c8 0020C3E5 		strb	r2, [r3, #0]
 4949              	.L134:
 4950 48cc A8329FE5 		ldr	r3, .L286+76
 4951 48d0 0030D3E5 		ldrb	r3, [r3, #0]	@ zero_extendqisi2
 4952 48d4 180053E3 		cmp	r3, #24
 4953 48d8 E200001A 		bne	.L137
 4954 48dc C4329FE5 		ldr	r3, .L286+120
 4955 48e0 0020D3E5 		ldrb	r2, [r3, #0]	@ zero_extendqisi2
 4956 48e4 0C0052E3 		cmp	r2, #12
 4957 48e8 0020A083 		movhi	r2, #0
 4958 48ec 0020C385 		strhib	r2, [r3, #0]
 4959 48f0 0030D3E5 		ldrb	r3, [r3, #0]	@ zero_extendqisi2
 4960 48f4 0C0053E3 		cmp	r3, #12
 4961 48f8 03F19F97 		ldrls	pc, [pc, r3, asl #2]
 4962 48fc 2C0000EA 		b	.L139
 4963              	.L153:
 4964 4900 34490000 		.word	.L140
 4965 4904 3C490000 		.word	.L141
 4966 4908 50490000 		.word	.L142
 4967 490c 58490000 		.word	.L143
 4968 4910 60490000 		.word	.L144
 4969 4914 68490000 		.word	.L145
 4970 4918 74490000 		.word	.L146
 4971 491c 80490000 		.word	.L147
 4972 4920 88490000 		.word	.L148
 4973 4924 90490000 		.word	.L149
 4974 4928 98490000 		.word	.L150
 4975 492c A4490000 		.word	.L151
 4976 4930 AC490000 		.word	.L152
 4977              	.L140:
 4978 4934 44329FE5 		ldr	r3, .L286+80
 4979 4938 000000EA 		b	.L267
 4980              	.L141:
 4981 493c 40329FE5 		ldr	r3, .L286+84
 4982              	.L267:
 4983 4940 0000D3E5 		ldrb	r0, [r3, #0]	@ zero_extendqisi2
 4984              	.L268:
 4985 4944 FEFFFFEB 		bl	__aeabi_ui2f
 4986 4948 10008DE5 		str	r0, [sp, #16]	@ float
 4987 494c 1A0000EA 		b	.L154
 4988              	.L142:
 4989 4950 30329FE5 		ldr	r3, .L286+88
 4990 4954 070000EA 		b	.L279
 4991              	.L143:
 4992 4958 2C329FE5 		ldr	r3, .L286+92
 4993 495c 050000EA 		b	.L279
 4994              	.L144:
 4995 4960 28329FE5 		ldr	r3, .L286+96
 4996 4964 030000EA 		b	.L279
 4997              	.L145:
 4998 4968 DC319FE5 		ldr	r3, .L286+28
 4999 496c B000D3E1 		ldrh	r0, [r3, #0]
 5000 4970 F3FFFFEA 		b	.L268
 5001              	.L146:
 5002 4974 18329FE5 		ldr	r3, .L286+100
 5003              	.L279:
 5004 4978 003093E5 		ldr	r3, [r3, #0]	@ float
 5005 497c 0D0000EA 		b	.L269
 5006              	.L147:
 5007 4980 10329FE5 		ldr	r3, .L286+104
 5008 4984 EDFFFFEA 		b	.L267
 5009              	.L148:
 5010 4988 0C329FE5 		ldr	r3, .L286+108
 5011 498c EBFFFFEA 		b	.L267
 5012              	.L149:
 5013 4990 B8319FE5 		ldr	r3, .L286+32
 5014 4994 E9FFFFEA 		b	.L267
 5015              	.L150:
 5016 4998 94319FE5 		ldr	r3, .L286+4
 5017 499c B00FD3E1 		ldrh	r0, [r3, #240]
 5018 49a0 E7FFFFEA 		b	.L268
 5019              	.L151:
 5020 49a4 F4319FE5 		ldr	r3, .L286+112
 5021 49a8 E4FFFFEA 		b	.L267
 5022              	.L152:
 5023 49ac F0319FE5 		ldr	r3, .L286+116
 5024 49b0 E2FFFFEA 		b	.L267
 5025              	.L139:
 5026 49b4 0030A0E3 		mov	r3, #0
 5027              	.L269:
 5028 49b8 10308DE5 		str	r3, [sp, #16]	@ float
 5029              	.L154:
 5030 49bc 80029FE5 		ldr	r0, .L286+276
 5031 49c0 1010A0E3 		mov	r1, #16
 5032 49c4 FEFFFFEB 		bl	uart_check_free_space
 5033 49c8 000050E3 		cmp	r0, #0
 5034 49cc 9D00000A 		beq	.L155
 5035 49d0 4C329FE5 		ldr	r3, .L286+244
 5036 49d4 B020D3E1 		ldrh	r2, [r3, #0]
 5037 49d8 102082E2 		add	r2, r2, #16
 5038 49dc B020C3E1 		strh	r2, [r3, #0]	@ movhi
 5039 49e0 40329FE5 		ldr	r3, .L286+248
 5040 49e4 B020D3E1 		ldrh	r2, [r3, #0]
 5041 49e8 012082E2 		add	r2, r2, #1
 5042 49ec B020C3E1 		strh	r2, [r3, #0]	@ movhi
 5043 49f0 4C029FE5 		ldr	r0, .L286+276
 5044 49f4 7E10A0E3 		mov	r1, #126
 5045 49f8 2C429FE5 		ldr	r4, .L286+252
 5046 49fc FEFFFFEB 		bl	uart_transmit
 5047 4a00 3C029FE5 		ldr	r0, .L286+276
 5048 4a04 0010A0E3 		mov	r1, #0
 5049 4a08 FEFFFFEB 		bl	uart_transmit
 5050 4a0c 0150A0E3 		mov	r5, #1
 5051 4a10 2C029FE5 		ldr	r0, .L286+276
 5052 4a14 0C10A0E3 		mov	r1, #12
 5053 4a18 FEFFFFEB 		bl	uart_transmit
 5054 4a1c 0510A0E1 		mov	r1, r5
 5055 4a20 0050C4E5 		strb	r5, [r4, #0]
 5056 4a24 18029FE5 		ldr	r0, .L286+276
 5057 4a28 FEFFFFEB 		bl	uart_transmit
 5058 4a2c 10029FE5 		ldr	r0, .L286+276
 5059 4a30 0010A0E3 		mov	r1, #0
 5060 4a34 FEFFFFEB 		bl	uart_transmit
 5061 4a38 0030D4E5 		ldrb	r3, [r4, #0]	@ zero_extendqisi2
 5062 4a3c 053083E0 		add	r3, r3, r5
 5063 4a40 0030C4E5 		strb	r3, [r4, #0]
 5064 4a44 0510A0E1 		mov	r1, r5
 5065 4a48 F4019FE5 		ldr	r0, .L286+276
 5066 4a4c FEFFFFEB 		bl	uart_transmit
 5067 4a50 EC019FE5 		ldr	r0, .L286+276
 5068 4a54 0010A0E3 		mov	r1, #0
 5069 4a58 FEFFFFEB 		bl	uart_transmit
 5070 4a5c E0019FE5 		ldr	r0, .L286+276
 5071 4a60 0010A0E3 		mov	r1, #0
 5072 4a64 FEFFFFEB 		bl	uart_transmit
 5073 4a68 0030D4E5 		ldrb	r3, [r4, #0]	@ zero_extendqisi2
 5074 4a6c 023083E2 		add	r3, r3, #2
 5075 4a70 0030C4E5 		strb	r3, [r4, #0]
 5076 4a74 C8019FE5 		ldr	r0, .L286+276
 5077 4a78 0210A0E3 		mov	r1, #2
 5078 4a7c FEFFFFEB 		bl	uart_transmit
 5079 4a80 0030D4E5 		ldrb	r3, [r4, #0]	@ zero_extendqisi2
 5080 4a84 1F3083E2 		add	r3, r3, #31
 5081 4a88 0030C4E5 		strb	r3, [r4, #0]
 5082 4a8c B0019FE5 		ldr	r0, .L286+276
 5083 4a90 1F10A0E3 		mov	r1, #31
 5084 4a94 FEFFFFEB 		bl	uart_transmit
 5085 4a98 08319FE5 		ldr	r3, .L286+120
 5086 4a9c 0010D3E5 		ldrb	r1, [r3, #0]	@ zero_extendqisi2
 5087 4aa0 0030D4E5 		ldrb	r3, [r4, #0]	@ zero_extendqisi2
 5088 4aa4 033081E0 		add	r3, r1, r3
 5089 4aa8 0030C4E5 		strb	r3, [r4, #0]
 5090 4aac 90019FE5 		ldr	r0, .L286+276
 5091 4ab0 FEFFFFEB 		bl	uart_transmit
 5092 4ab4 1010DDE5 		ldrb	r1, [sp, #16]	@ zero_extendqisi2
 5093 4ab8 0030D4E5 		ldrb	r3, [r4, #0]	@ zero_extendqisi2
 5094 4abc 033081E0 		add	r3, r1, r3
 5095 4ac0 0030C4E5 		strb	r3, [r4, #0]
 5096 4ac4 78019FE5 		ldr	r0, .L286+276
 5097 4ac8 FEFFFFEB 		bl	uart_transmit
 5098 4acc 1110DDE5 		ldrb	r1, [sp, #17]	@ zero_extendqisi2
 5099 4ad0 0030D4E5 		ldrb	r3, [r4, #0]	@ zero_extendqisi2
 5100 4ad4 033081E0 		add	r3, r1, r3
 5101 4ad8 0030C4E5 		strb	r3, [r4, #0]
 5102 4adc 60019FE5 		ldr	r0, .L286+276
 5103 4ae0 FEFFFFEB 		bl	uart_transmit
 5104 4ae4 1210DDE5 		ldrb	r1, [sp, #18]	@ zero_extendqisi2
 5105 4ae8 0030D4E5 		ldrb	r3, [r4, #0]	@ zero_extendqisi2
 5106 4aec 033081E0 		add	r3, r1, r3
 5107 4af0 0030C4E5 		strb	r3, [r4, #0]
 5108 4af4 48019FE5 		ldr	r0, .L286+276
 5109 4af8 FEFFFFEB 		bl	uart_transmit
 5110 4afc 1310DDE5 		ldrb	r1, [sp, #19]	@ zero_extendqisi2
 5111 4b00 0030D4E5 		ldrb	r3, [r4, #0]	@ zero_extendqisi2
 5112 4b04 033081E0 		add	r3, r1, r3
 5113 4b08 0030C4E5 		strb	r3, [r4, #0]
 5114 4b0c 30019FE5 		ldr	r0, .L286+276
 5115 4b10 FEFFFFEB 		bl	uart_transmit
 5116 4b14 0010D4E5 		ldrb	r1, [r4, #0]	@ zero_extendqisi2
 5117 4b18 0110E0E1 		mvn	r1, r1
 5118 4b1c FF1001E2 		and	r1, r1, #255
 5119 4b20 0010C4E5 		strb	r1, [r4, #0]
 5120 4b24 18019FE5 		ldr	r0, .L286+276
 5121 4b28 FEFFFFEB 		bl	uart_transmit
 5122 4b2c 490000EA 		b	.L156
 5123              	.L287:
 5124              		.align	2
 5125              	.L286:
 5126 4b30 00000000 		.word	.LANCHOR42
 5127 4b34 00000000 		.word	gps
 5128 4b38 00000000 		.word	.LANCHOR27
 5129 4b3c 00000000 		.word	.LANCHOR17
 5130 4b40 00000000 		.word	energy
 5131 4b44 00000000 		.word	v_ctl_throttle_slewed
 5132 4b48 00000000 		.word	vsupply
 5133 4b4c 00000000 		.word	.LANCHOR18
 5134 4b50 00000000 		.word	.LANCHOR19
 5135 4b54 00000000 		.word	block_time
 5136 4b58 00000000 		.word	stage_time
 5137 4b5c 00000000 		.word	.LANCHOR28
 5138 4b60 00000000 		.word	.LANCHOR29
 5139 4b64 00000000 		.word	.LANCHOR43
 5140 4b68 00000000 		.word	nb_waypoint
 5141 4b6c 00000000 		.word	nav_utm_east0
 5142 4b70 00000000 		.word	waypoints
 5143 4b74 00000000 		.word	nav_utm_north0
 5144 4b78 00000000 		.word	nav_utm_zone0
 5145 4b7c 00000000 		.word	.LANCHOR30
 5146 4b80 00000000 		.word	telemetry_mode_Ap
 5147 4b84 00000000 		.word	telemetry_mode_Fbw
 5148 4b88 00000000 		.word	flight_altitude
 5149 4b8c 00000000 		.word	nav_course
 5150 4b90 00000000 		.word	nav_shift
 5151 4b94 00000000 		.word	nav_radius
 5152 4b98 00000000 		.word	.LANCHOR21
 5153 4b9c 00000000 		.word	.LANCHOR22
 5154 4ba0 00000000 		.word	openlog_periodic_2Hz_openlog_status
 5155 4ba4 00000000 		.word	digital_cam_servo_servo_cam_ctrl_periodic_status
 5156 4ba8 00000000 		.word	.LANCHOR44
 5157 4bac 00000000 		.word	.LANCHOR31
 5158 4bb0 00000000 		.word	nav_survey_active
 5159 4bb4 00000000 		.word	nav_survey_east
 5160 4bb8 00000000 		.word	nav_survey_north
 5161 4bbc 00000000 		.word	nav_survey_west
 5162 4bc0 00000000 		.word	nav_survey_south
 5163 4bc4 00000000 		.word	.LANCHOR32
 5164 4bc8 00000000 		.word	nav_circle_radians
 5165 4bcc 182D4454 		.word	1413754136
 5166 4bd0 FB211940 		.word	1075388923
 5167 4bd4 00000000 		.word	nav_block
 5168 4bd8 00000000 		.word	nav_stage
 5169 4bdc 00000000 		.word	dist2_to_wp
 5170 4be0 00000000 		.word	dist2_to_home
 5171 4be4 00000000 		.word	nav_oval_count
 5172 4be8 00000000 		.word	.LANCHOR33
 5173 4bec 00000000 		.word	nav_in_circle
 5174 4bf0 00000000 		.word	nav_circle_x
 5175 4bf4 00000000 		.word	nav_circle_y
 5176 4bf8 00000000 		.word	nav_circle_radius
 5177 4bfc 00000000 		.word	.LANCHOR34
 5178 4c00 00000000 		.word	nav_in_segment
 5179 4c04 00000000 		.word	nav_segment_x_1
 5180 4c08 00000000 		.word	nav_segment_y_1
 5181 4c0c 00000000 		.word	nav_segment_x_2
 5182 4c10 00000000 		.word	nav_segment_y_2
 5183 4c14 00000000 		.word	.LANCHOR35
 5184 4c18 00000000 		.word	downlink_nb_ovrn
 5185 4c1c 00000000 		.word	.LANCHOR36
 5186 4c20 00005041 		.word	1095761920
 5187 4c24 00000000 		.word	downlink_nb_bytes
 5188 4c28 00000000 		.word	downlink_nb_msgs
 5189 4c2c 00000000 		.word	xbee_cs
 5190 4c30 00000000 		.word	h_ctl_roll_setpoint
 5191 4c34 00000000 		.word	h_ctl_pitch_loop_setpoint
 5192 4c38 00000000 		.word	h_ctl_course_setpoint
 5193 4c3c 00000000 		.word	desired_x
 5194 4c40 00000000 		.word	desired_y
 5195 4c44 00000000 		.word	uart0
 5196              	.L155:
 5197 4c48 38301FE5 		ldr	r3, .L286+232
 5198 4c4c 0020D3E5 		ldrb	r2, [r3, #0]	@ zero_extendqisi2
 5199 4c50 012082E2 		add	r2, r2, #1
 5200 4c54 0020C3E5 		strb	r2, [r3, #0]
 5201              	.L156:
 5202 4c58 B8301FE5 		ldr	r3, .L286+120
 5203 4c5c 0020D3E5 		ldrb	r2, [r3, #0]	@ zero_extendqisi2
 5204 4c60 012082E2 		add	r2, r2, #1
 5205 4c64 0020C3E5 		strb	r2, [r3, #0]
 5206              	.L137:
 5207 4c68 C4301FE5 		ldr	r3, .L286+124
 5208 4c6c 0030D3E5 		ldrb	r3, [r3, #0]	@ zero_extendqisi2
 5209 4c70 1E0053E3 		cmp	r3, #30
 5210 4c74 A900001A 		bne	.L157
 5211 4c78 D0301FE5 		ldr	r3, .L286+128
 5212 4c7c 0030D3E5 		ldrb	r3, [r3, #0]	@ zero_extendqisi2
 5213 4c80 000053E3 		cmp	r3, #0
 5214 4c84 A500000A 		beq	.L157
 5215 4c88 4C001FE5 		ldr	r0, .L286+276
 5216 4c8c 1B10A0E3 		mov	r1, #27
 5217 4c90 FEFFFFEB 		bl	uart_check_free_space
 5218 4c94 000050E3 		cmp	r0, #0
 5219 4c98 9C00000A 		beq	.L158
 5220 4c9c 80301FE5 		ldr	r3, .L286+244
 5221 4ca0 B020D3E1 		ldrh	r2, [r3, #0]
 5222 4ca4 1B2082E2 		add	r2, r2, #27
 5223 4ca8 B020C3E1 		strh	r2, [r3, #0]	@ movhi
 5224 4cac 8C301FE5 		ldr	r3, .L286+248
 5225 4cb0 B020D3E1 		ldrh	r2, [r3, #0]
 5226 4cb4 012082E2 		add	r2, r2, #1
 5227 4cb8 B020C3E1 		strh	r2, [r3, #0]	@ movhi
 5228 4cbc 80001FE5 		ldr	r0, .L286+276
 5229 4cc0 7E10A0E3 		mov	r1, #126
 5230 4cc4 A0401FE5 		ldr	r4, .L286+252
 5231 4cc8 FEFFFFEB 		bl	uart_transmit
 5232 4ccc 90001FE5 		ldr	r0, .L286+276
 5233 4cd0 0010A0E3 		mov	r1, #0
 5234 4cd4 FEFFFFEB 		bl	uart_transmit
 5235 4cd8 0150A0E3 		mov	r5, #1
 5236 4cdc A0001FE5 		ldr	r0, .L286+276
 5237 4ce0 1710A0E3 		mov	r1, #23
 5238 4ce4 FEFFFFEB 		bl	uart_transmit
 5239 4ce8 0050C4E5 		strb	r5, [r4, #0]
 5240 4cec 0510A0E1 		mov	r1, r5
 5241 4cf0 B4001FE5 		ldr	r0, .L286+276
 5242 4cf4 FEFFFFEB 		bl	uart_transmit
 5243 4cf8 BC001FE5 		ldr	r0, .L286+276
 5244 4cfc 0010A0E3 		mov	r1, #0
 5245 4d00 FEFFFFEB 		bl	uart_transmit
 5246 4d04 0030D4E5 		ldrb	r3, [r4, #0]	@ zero_extendqisi2
 5247 4d08 053083E0 		add	r3, r3, r5
 5248 4d0c 0030C4E5 		strb	r3, [r4, #0]
 5249 4d10 0510A0E1 		mov	r1, r5
 5250 4d14 D8001FE5 		ldr	r0, .L286+276
 5251 4d18 FEFFFFEB 		bl	uart_transmit
 5252 4d1c E0001FE5 		ldr	r0, .L286+276
 5253 4d20 0010A0E3 		mov	r1, #0
 5254 4d24 FEFFFFEB 		bl	uart_transmit
 5255 4d28 EC001FE5 		ldr	r0, .L286+276
 5256 4d2c 0010A0E3 		mov	r1, #0
 5257 4d30 FEFFFFEB 		bl	uart_transmit
 5258 4d34 0030D4E5 		ldrb	r3, [r4, #0]	@ zero_extendqisi2
 5259 4d38 023083E2 		add	r3, r3, #2
 5260 4d3c 0030C4E5 		strb	r3, [r4, #0]
 5261 4d40 04011FE5 		ldr	r0, .L286+276
 5262 4d44 0210A0E3 		mov	r1, #2
 5263 4d48 FEFFFFEB 		bl	uart_transmit
 5264 4d4c 0030D4E5 		ldrb	r3, [r4, #0]	@ zero_extendqisi2
 5265 4d50 A4511FE5 		ldr	r5, .L286+132
 5266 4d54 1B3083E2 		add	r3, r3, #27
 5267 4d58 0030C4E5 		strb	r3, [r4, #0]
 5268 4d5c 20011FE5 		ldr	r0, .L286+276
 5269 4d60 1B10A0E3 		mov	r1, #27
 5270 4d64 FEFFFFEB 		bl	uart_transmit
 5271 4d68 0010D5E5 		ldrb	r1, [r5, #0]	@ zero_extendqisi2
 5272 4d6c 0030D4E5 		ldrb	r3, [r4, #0]	@ zero_extendqisi2
 5273 4d70 033081E0 		add	r3, r1, r3
 5274 4d74 0030C4E5 		strb	r3, [r4, #0]
 5275 4d78 3C011FE5 		ldr	r0, .L286+276
 5276 4d7c FEFFFFEB 		bl	uart_transmit
 5277 4d80 0110D5E5 		ldrb	r1, [r5, #1]	@ zero_extendqisi2
 5278 4d84 0030D4E5 		ldrb	r3, [r4, #0]	@ zero_extendqisi2
 5279 4d88 033081E0 		add	r3, r1, r3
 5280 4d8c 0030C4E5 		strb	r3, [r4, #0]
 5281 4d90 54011FE5 		ldr	r0, .L286+276
 5282 4d94 FEFFFFEB 		bl	uart_transmit
 5283 4d98 0210D5E5 		ldrb	r1, [r5, #2]	@ zero_extendqisi2
 5284 4d9c 0030D4E5 		ldrb	r3, [r4, #0]	@ zero_extendqisi2
 5285 4da0 033081E0 		add	r3, r1, r3
 5286 4da4 0030C4E5 		strb	r3, [r4, #0]
 5287 4da8 6C011FE5 		ldr	r0, .L286+276
 5288 4dac FEFFFFEB 		bl	uart_transmit
 5289 4db0 0310D5E5 		ldrb	r1, [r5, #3]	@ zero_extendqisi2
 5290 4db4 0030D4E5 		ldrb	r3, [r4, #0]	@ zero_extendqisi2
 5291 4db8 08521FE5 		ldr	r5, .L286+136
 5292 4dbc 033081E0 		add	r3, r1, r3
 5293 4dc0 0030C4E5 		strb	r3, [r4, #0]
 5294 4dc4 88011FE5 		ldr	r0, .L286+276
 5295 4dc8 FEFFFFEB 		bl	uart_transmit
 5296 4dcc 0010D5E5 		ldrb	r1, [r5, #0]	@ zero_extendqisi2
 5297 4dd0 0030D4E5 		ldrb	r3, [r4, #0]	@ zero_extendqisi2
 5298 4dd4 033081E0 		add	r3, r1, r3
 5299 4dd8 0030C4E5 		strb	r3, [r4, #0]
 5300 4ddc A0011FE5 		ldr	r0, .L286+276
 5301 4de0 FEFFFFEB 		bl	uart_transmit
 5302 4de4 0110D5E5 		ldrb	r1, [r5, #1]	@ zero_extendqisi2
 5303 4de8 0030D4E5 		ldrb	r3, [r4, #0]	@ zero_extendqisi2
 5304 4dec 033081E0 		add	r3, r1, r3
 5305 4df0 0030C4E5 		strb	r3, [r4, #0]
 5306 4df4 B8011FE5 		ldr	r0, .L286+276
 5307 4df8 FEFFFFEB 		bl	uart_transmit
 5308 4dfc 0210D5E5 		ldrb	r1, [r5, #2]	@ zero_extendqisi2
 5309 4e00 0030D4E5 		ldrb	r3, [r4, #0]	@ zero_extendqisi2
 5310 4e04 033081E0 		add	r3, r1, r3
 5311 4e08 0030C4E5 		strb	r3, [r4, #0]
 5312 4e0c D0011FE5 		ldr	r0, .L286+276
 5313 4e10 FEFFFFEB 		bl	uart_transmit
 5314 4e14 0310D5E5 		ldrb	r1, [r5, #3]	@ zero_extendqisi2
 5315 4e18 0030D4E5 		ldrb	r3, [r4, #0]	@ zero_extendqisi2
 5316 4e1c 68521FE5 		ldr	r5, .L286+140
 5317 4e20 033081E0 		add	r3, r1, r3
 5318 4e24 0030C4E5 		strb	r3, [r4, #0]
 5319 4e28 EC011FE5 		ldr	r0, .L286+276
 5320 4e2c FEFFFFEB 		bl	uart_transmit
 5321 4e30 0010D5E5 		ldrb	r1, [r5, #0]	@ zero_extendqisi2
 5322 4e34 0030D4E5 		ldrb	r3, [r4, #0]	@ zero_extendqisi2
 5323 4e38 033081E0 		add	r3, r1, r3
 5324 4e3c 0030C4E5 		strb	r3, [r4, #0]
 5325 4e40 04021FE5 		ldr	r0, .L286+276
 5326 4e44 FEFFFFEB 		bl	uart_transmit
 5327 4e48 0110D5E5 		ldrb	r1, [r5, #1]	@ zero_extendqisi2
 5328 4e4c 0030D4E5 		ldrb	r3, [r4, #0]	@ zero_extendqisi2
 5329 4e50 033081E0 		add	r3, r1, r3
 5330 4e54 0030C4E5 		strb	r3, [r4, #0]
 5331 4e58 1C021FE5 		ldr	r0, .L286+276
 5332 4e5c FEFFFFEB 		bl	uart_transmit
 5333 4e60 0210D5E5 		ldrb	r1, [r5, #2]	@ zero_extendqisi2
 5334 4e64 0030D4E5 		ldrb	r3, [r4, #0]	@ zero_extendqisi2
 5335 4e68 033081E0 		add	r3, r1, r3
 5336 4e6c 0030C4E5 		strb	r3, [r4, #0]
 5337 4e70 34021FE5 		ldr	r0, .L286+276
 5338 4e74 FEFFFFEB 		bl	uart_transmit
 5339 4e78 0310D5E5 		ldrb	r1, [r5, #3]	@ zero_extendqisi2
 5340 4e7c 0030D4E5 		ldrb	r3, [r4, #0]	@ zero_extendqisi2
 5341 4e80 C8521FE5 		ldr	r5, .L286+144
 5342 4e84 033081E0 		add	r3, r1, r3
 5343 4e88 0030C4E5 		strb	r3, [r4, #0]
 5344 4e8c 50021FE5 		ldr	r0, .L286+276
 5345 4e90 FEFFFFEB 		bl	uart_transmit
 5346 4e94 0010D5E5 		ldrb	r1, [r5, #0]	@ zero_extendqisi2
 5347 4e98 0030D4E5 		ldrb	r3, [r4, #0]	@ zero_extendqisi2
 5348 4e9c 033081E0 		add	r3, r1, r3
 5349 4ea0 0030C4E5 		strb	r3, [r4, #0]
 5350 4ea4 68021FE5 		ldr	r0, .L286+276
 5351 4ea8 FEFFFFEB 		bl	uart_transmit
 5352 4eac 0110D5E5 		ldrb	r1, [r5, #1]	@ zero_extendqisi2
 5353 4eb0 0030D4E5 		ldrb	r3, [r4, #0]	@ zero_extendqisi2
 5354 4eb4 033081E0 		add	r3, r1, r3
 5355 4eb8 0030C4E5 		strb	r3, [r4, #0]
 5356 4ebc 80021FE5 		ldr	r0, .L286+276
 5357 4ec0 FEFFFFEB 		bl	uart_transmit
 5358 4ec4 0210D5E5 		ldrb	r1, [r5, #2]	@ zero_extendqisi2
 5359 4ec8 0030D4E5 		ldrb	r3, [r4, #0]	@ zero_extendqisi2
 5360 4ecc 033081E0 		add	r3, r1, r3
 5361 4ed0 0030C4E5 		strb	r3, [r4, #0]
 5362 4ed4 98021FE5 		ldr	r0, .L286+276
 5363 4ed8 FEFFFFEB 		bl	uart_transmit
 5364 4edc 0310D5E5 		ldrb	r1, [r5, #3]	@ zero_extendqisi2
 5365 4ee0 0030D4E5 		ldrb	r3, [r4, #0]	@ zero_extendqisi2
 5366 4ee4 033081E0 		add	r3, r1, r3
 5367 4ee8 0030C4E5 		strb	r3, [r4, #0]
 5368 4eec B0021FE5 		ldr	r0, .L286+276
 5369 4ef0 FEFFFFEB 		bl	uart_transmit
 5370 4ef4 0010D4E5 		ldrb	r1, [r4, #0]	@ zero_extendqisi2
 5371 4ef8 0110E0E1 		mvn	r1, r1
 5372 4efc FF1001E2 		and	r1, r1, #255
 5373 4f00 0010C4E5 		strb	r1, [r4, #0]
 5374 4f04 C8021FE5 		ldr	r0, .L286+276
 5375 4f08 FEFFFFEB 		bl	uart_transmit
 5376 4f0c 030000EA 		b	.L157
 5377              	.L158:
 5378 4f10 00331FE5 		ldr	r3, .L286+232
 5379 4f14 0020D3E5 		ldrb	r2, [r3, #0]	@ zero_extendqisi2
 5380 4f18 012082E2 		add	r2, r2, #1
 5381 4f1c 0020C3E5 		strb	r2, [r3, #0]
 5382              	.L157:
 5383 4f20 64331FE5 		ldr	r3, .L286+148
 5384 4f24 0030D3E5 		ldrb	r3, [r3, #0]	@ zero_extendqisi2
 5385 4f28 240053E3 		cmp	r3, #36
 5386 4f2c C900001A 		bne	.L159
 5387 4f30 70331FE5 		ldr	r3, .L286+152
 5388 4f34 005093E5 		ldr	r5, [r3, #0]	@ float
 5389 4f38 FEFFFFEB 		bl	stateGetPositionEnu_f
 5390 4f3c 1F10A0E3 		mov	r1, #31
 5391 4f40 0040A0E1 		mov	r4, r0
 5392 4f44 08031FE5 		ldr	r0, .L286+276
 5393 4f48 FEFFFFEB 		bl	uart_check_free_space
 5394 4f4c 000050E3 		cmp	r0, #0
 5395 4f50 BC00000A 		beq	.L160
 5396 4f54 0201C5E3 		bic	r0, r5, #-2147483648
 5397 4f58 FEFFFFEB 		bl	__aeabi_f2d
 5398 4f5c 98231FE5 		ldr	r2, .L286+156
 5399 4f60 98331FE5 		ldr	r3, .L286+160
 5400 4f64 FEFFFFEB 		bl	__aeabi_ddiv
 5401 4f68 FEFFFFEB 		bl	__aeabi_d2uiz
 5402 4f6c 50331FE5 		ldr	r3, .L286+244
 5403 4f70 B020D3E1 		ldrh	r2, [r3, #0]
 5404 4f74 1F2082E2 		add	r2, r2, #31
 5405 4f78 B020C3E1 		strh	r2, [r3, #0]	@ movhi
 5406 4f7c 5C331FE5 		ldr	r3, .L286+248
 5407 4f80 B020D3E1 		ldrh	r2, [r3, #0]
 5408 4f84 012082E2 		add	r2, r2, #1
 5409 4f88 B020C3E1 		strh	r2, [r3, #0]	@ movhi
 5410 4f8c FF7000E2 		and	r7, r0, #255
 5411 4f90 7E10A0E3 		mov	r1, #126
 5412 4f94 58031FE5 		ldr	r0, .L286+276
 5413 4f98 74531FE5 		ldr	r5, .L286+252
 5414 4f9c FEFFFFEB 		bl	uart_transmit
 5415 4fa0 64031FE5 		ldr	r0, .L286+276
 5416 4fa4 0010A0E3 		mov	r1, #0
 5417 4fa8 FEFFFFEB 		bl	uart_transmit
 5418 4fac 0160A0E3 		mov	r6, #1
 5419 4fb0 74031FE5 		ldr	r0, .L286+276
 5420 4fb4 1B10A0E3 		mov	r1, #27
 5421 4fb8 FEFFFFEB 		bl	uart_transmit
 5422 4fbc 0610A0E1 		mov	r1, r6
 5423 4fc0 0060C5E5 		strb	r6, [r5, #0]
 5424 4fc4 88031FE5 		ldr	r0, .L286+276
 5425 4fc8 FEFFFFEB 		bl	uart_transmit
 5426 4fcc 90031FE5 		ldr	r0, .L286+276
 5427 4fd0 0010A0E3 		mov	r1, #0
 5428 4fd4 FEFFFFEB 		bl	uart_transmit
 5429 4fd8 0030D5E5 		ldrb	r3, [r5, #0]	@ zero_extendqisi2
 5430 4fdc 063083E0 		add	r3, r3, r6
 5431 4fe0 0030C5E5 		strb	r3, [r5, #0]
 5432 4fe4 0610A0E1 		mov	r1, r6
 5433 4fe8 AC031FE5 		ldr	r0, .L286+276
 5434 4fec FEFFFFEB 		bl	uart_transmit
 5435 4ff0 B4031FE5 		ldr	r0, .L286+276
 5436 4ff4 0010A0E3 		mov	r1, #0
 5437 4ff8 FEFFFFEB 		bl	uart_transmit
 5438 4ffc C0031FE5 		ldr	r0, .L286+276
 5439 5000 0010A0E3 		mov	r1, #0
 5440 5004 FEFFFFEB 		bl	uart_transmit
 5441 5008 0030D5E5 		ldrb	r3, [r5, #0]	@ zero_extendqisi2
 5442 500c 023083E2 		add	r3, r3, #2
 5443 5010 0030C5E5 		strb	r3, [r5, #0]
 5444 5014 D8031FE5 		ldr	r0, .L286+276
 5445 5018 0210A0E3 		mov	r1, #2
 5446 501c FEFFFFEB 		bl	uart_transmit
 5447 5020 0030D5E5 		ldrb	r3, [r5, #0]	@ zero_extendqisi2
 5448 5024 0A3083E2 		add	r3, r3, #10
 5449 5028 0030C5E5 		strb	r3, [r5, #0]
 5450 502c F0031FE5 		ldr	r0, .L286+276
 5451 5030 0A10A0E3 		mov	r1, #10
 5452 5034 FEFFFFEB 		bl	uart_transmit
 5453 5038 6C341FE5 		ldr	r3, .L286+164
 5454 503c 0010D3E5 		ldrb	r1, [r3, #0]	@ zero_extendqisi2
 5455 5040 0030D5E5 		ldrb	r3, [r5, #0]	@ zero_extendqisi2
 5456 5044 033081E0 		add	r3, r1, r3
 5457 5048 0030C5E5 		strb	r3, [r5, #0]
 5458 504c 10041FE5 		ldr	r0, .L286+276
 5459 5050 FEFFFFEB 		bl	uart_transmit
 5460 5054 84341FE5 		ldr	r3, .L286+168
 5461 5058 0010D3E5 		ldrb	r1, [r3, #0]	@ zero_extendqisi2
 5462 505c 0030D5E5 		ldrb	r3, [r5, #0]	@ zero_extendqisi2
 5463 5060 033081E0 		add	r3, r1, r3
 5464 5064 0030C5E5 		strb	r3, [r5, #0]
 5465 5068 2C041FE5 		ldr	r0, .L286+276
 5466 506c FEFFFFEB 		bl	uart_transmit
 5467 5070 0010D4E5 		ldrb	r1, [r4, #0]	@ zero_extendqisi2
 5468 5074 0030D5E5 		ldrb	r3, [r5, #0]	@ zero_extendqisi2
 5469 5078 033081E0 		add	r3, r1, r3
 5470 507c 0030C5E5 		strb	r3, [r5, #0]
 5471 5080 44041FE5 		ldr	r0, .L286+276
 5472 5084 FEFFFFEB 		bl	uart_transmit
 5473 5088 0110D4E5 		ldrb	r1, [r4, #1]	@ zero_extendqisi2
 5474 508c 0030D5E5 		ldrb	r3, [r5, #0]	@ zero_extendqisi2
 5475 5090 033081E0 		add	r3, r1, r3
 5476 5094 0030C5E5 		strb	r3, [r5, #0]
 5477 5098 5C041FE5 		ldr	r0, .L286+276
 5478 509c FEFFFFEB 		bl	uart_transmit
 5479 50a0 0210D4E5 		ldrb	r1, [r4, #2]	@ zero_extendqisi2
 5480 50a4 0030D5E5 		ldrb	r3, [r5, #0]	@ zero_extendqisi2
 5481 50a8 033081E0 		add	r3, r1, r3
 5482 50ac 0030C5E5 		strb	r3, [r5, #0]
 5483 50b0 74041FE5 		ldr	r0, .L286+276
 5484 50b4 FEFFFFEB 		bl	uart_transmit
 5485 50b8 0310D4E5 		ldrb	r1, [r4, #3]	@ zero_extendqisi2
 5486 50bc 0030D5E5 		ldrb	r3, [r5, #0]	@ zero_extendqisi2
 5487 50c0 033081E0 		add	r3, r1, r3
 5488 50c4 0030C5E5 		strb	r3, [r5, #0]
 5489 50c8 8C041FE5 		ldr	r0, .L286+276
 5490 50cc FEFFFFEB 		bl	uart_transmit
 5491 50d0 0410D4E5 		ldrb	r1, [r4, #4]	@ zero_extendqisi2
 5492 50d4 0030D5E5 		ldrb	r3, [r5, #0]	@ zero_extendqisi2
 5493 50d8 033081E0 		add	r3, r1, r3
 5494 50dc 0030C5E5 		strb	r3, [r5, #0]
 5495 50e0 A4041FE5 		ldr	r0, .L286+276
 5496 50e4 FEFFFFEB 		bl	uart_transmit
 5497 50e8 0510D4E5 		ldrb	r1, [r4, #5]	@ zero_extendqisi2
 5498 50ec 0030D5E5 		ldrb	r3, [r5, #0]	@ zero_extendqisi2
 5499 50f0 033081E0 		add	r3, r1, r3
 5500 50f4 0030C5E5 		strb	r3, [r5, #0]
 5501 50f8 BC041FE5 		ldr	r0, .L286+276
 5502 50fc FEFFFFEB 		bl	uart_transmit
 5503 5100 0610D4E5 		ldrb	r1, [r4, #6]	@ zero_extendqisi2
 5504 5104 0030D5E5 		ldrb	r3, [r5, #0]	@ zero_extendqisi2
 5505 5108 033081E0 		add	r3, r1, r3
 5506 510c 0030C5E5 		strb	r3, [r5, #0]
 5507 5110 D4041FE5 		ldr	r0, .L286+276
 5508 5114 FEFFFFEB 		bl	uart_transmit
 5509 5118 0710D4E5 		ldrb	r1, [r4, #7]	@ zero_extendqisi2
 5510 511c 0030D5E5 		ldrb	r3, [r5, #0]	@ zero_extendqisi2
 5511 5120 4C451FE5 		ldr	r4, .L286+172
 5512 5124 033081E0 		add	r3, r1, r3
 5513 5128 0030C5E5 		strb	r3, [r5, #0]
 5514 512c F0041FE5 		ldr	r0, .L286+276
 5515 5130 FEFFFFEB 		bl	uart_transmit
 5516 5134 0010D4E5 		ldrb	r1, [r4, #0]	@ zero_extendqisi2
 5517 5138 0030D5E5 		ldrb	r3, [r5, #0]	@ zero_extendqisi2
 5518 513c 033081E0 		add	r3, r1, r3
 5519 5140 0030C5E5 		strb	r3, [r5, #0]
 5520 5144 08051FE5 		ldr	r0, .L286+276
 5521 5148 FEFFFFEB 		bl	uart_transmit
 5522 514c 0110D4E5 		ldrb	r1, [r4, #1]	@ zero_extendqisi2
 5523 5150 0030D5E5 		ldrb	r3, [r5, #0]	@ zero_extendqisi2
 5524 5154 033081E0 		add	r3, r1, r3
 5525 5158 0030C5E5 		strb	r3, [r5, #0]
 5526 515c 20051FE5 		ldr	r0, .L286+276
 5527 5160 FEFFFFEB 		bl	uart_transmit
 5528 5164 0210D4E5 		ldrb	r1, [r4, #2]	@ zero_extendqisi2
 5529 5168 0030D5E5 		ldrb	r3, [r5, #0]	@ zero_extendqisi2
 5530 516c 033081E0 		add	r3, r1, r3
 5531 5170 0030C5E5 		strb	r3, [r5, #0]
 5532 5174 38051FE5 		ldr	r0, .L286+276
 5533 5178 FEFFFFEB 		bl	uart_transmit
 5534 517c 0310D4E5 		ldrb	r1, [r4, #3]	@ zero_extendqisi2
 5535 5180 0030D5E5 		ldrb	r3, [r5, #0]	@ zero_extendqisi2
 5536 5184 AC451FE5 		ldr	r4, .L286+176
 5537 5188 033081E0 		add	r3, r1, r3
 5538 518c 0030C5E5 		strb	r3, [r5, #0]
 5539 5190 54051FE5 		ldr	r0, .L286+276
 5540 5194 FEFFFFEB 		bl	uart_transmit
 5541 5198 0010D4E5 		ldrb	r1, [r4, #0]	@ zero_extendqisi2
 5542 519c 0030D5E5 		ldrb	r3, [r5, #0]	@ zero_extendqisi2
 5543 51a0 033081E0 		add	r3, r1, r3
 5544 51a4 0030C5E5 		strb	r3, [r5, #0]
 5545 51a8 6C051FE5 		ldr	r0, .L286+276
 5546 51ac FEFFFFEB 		bl	uart_transmit
 5547 51b0 0110D4E5 		ldrb	r1, [r4, #1]	@ zero_extendqisi2
 5548 51b4 0030D5E5 		ldrb	r3, [r5, #0]	@ zero_extendqisi2
 5549 51b8 033081E0 		add	r3, r1, r3
 5550 51bc 0030C5E5 		strb	r3, [r5, #0]
 5551 51c0 84051FE5 		ldr	r0, .L286+276
 5552 51c4 FEFFFFEB 		bl	uart_transmit
 5553 51c8 0210D4E5 		ldrb	r1, [r4, #2]	@ zero_extendqisi2
 5554 51cc 0030D5E5 		ldrb	r3, [r5, #0]	@ zero_extendqisi2
 5555 51d0 033081E0 		add	r3, r1, r3
 5556 51d4 0030C5E5 		strb	r3, [r5, #0]
 5557 51d8 9C051FE5 		ldr	r0, .L286+276
 5558 51dc FEFFFFEB 		bl	uart_transmit
 5559 51e0 0310D4E5 		ldrb	r1, [r4, #3]	@ zero_extendqisi2
 5560 51e4 0030D5E5 		ldrb	r3, [r5, #0]	@ zero_extendqisi2
 5561 51e8 033081E0 		add	r3, r1, r3
 5562 51ec 0030C5E5 		strb	r3, [r5, #0]
 5563 51f0 B4051FE5 		ldr	r0, .L286+276
 5564 51f4 FEFFFFEB 		bl	uart_transmit
 5565 51f8 0030D5E5 		ldrb	r3, [r5, #0]	@ zero_extendqisi2
 5566 51fc 033087E0 		add	r3, r7, r3
 5567 5200 0030C5E5 		strb	r3, [r5, #0]
 5568 5204 0710A0E1 		mov	r1, r7
 5569 5208 CC051FE5 		ldr	r0, .L286+276
 5570 520c FEFFFFEB 		bl	uart_transmit
 5571 5210 34361FE5 		ldr	r3, .L286+180
 5572 5214 0010D3E5 		ldrb	r1, [r3, #0]	@ zero_extendqisi2
 5573 5218 0030D5E5 		ldrb	r3, [r5, #0]	@ zero_extendqisi2
 5574 521c 033081E0 		add	r3, r1, r3
 5575 5220 0030C5E5 		strb	r3, [r5, #0]
 5576 5224 E8051FE5 		ldr	r0, .L286+276
 5577 5228 FEFFFFEB 		bl	uart_transmit
 5578 522c 0010D5E5 		ldrb	r1, [r5, #0]	@ zero_extendqisi2
 5579 5230 0110E0E1 		mvn	r1, r1
 5580 5234 FF1001E2 		and	r1, r1, #255
 5581 5238 0010C5E5 		strb	r1, [r5, #0]
 5582 523c 00061FE5 		ldr	r0, .L286+276
 5583 5240 FEFFFFEB 		bl	uart_transmit
 5584 5244 030000EA 		b	.L159
 5585              	.L160:
 5586 5248 38361FE5 		ldr	r3, .L286+232
 5587 524c 0020D3E5 		ldrb	r2, [r3, #0]	@ zero_extendqisi2
 5588 5250 012082E2 		add	r2, r2, #1
 5589 5254 0020C3E5 		strb	r2, [r3, #0]
 5590              	.L159:
 5591 5258 78361FE5 		ldr	r3, .L286+184
 5592 525c 0030D3E5 		ldrb	r3, [r3, #0]	@ zero_extendqisi2
 5593 5260 2A0053E3 		cmp	r3, #42
 5594 5264 9000001A 		bne	.L161
 5595 5268 84361FE5 		ldr	r3, .L286+188
 5596 526c 0030D3E5 		ldrb	r3, [r3, #0]	@ zero_extendqisi2
 5597 5270 000053E3 		cmp	r3, #0
 5598 5274 8C00000A 		beq	.L161
 5599 5278 3C061FE5 		ldr	r0, .L286+276
 5600 527c 1710A0E3 		mov	r1, #23
 5601 5280 FEFFFFEB 		bl	uart_check_free_space
 5602 5284 000050E3 		cmp	r0, #0
 5603 5288 8300000A 		beq	.L162
 5604 528c 70361FE5 		ldr	r3, .L286+244
 5605 5290 B020D3E1 		ldrh	r2, [r3, #0]
 5606 5294 172082E2 		add	r2, r2, #23
 5607 5298 B020C3E1 		strh	r2, [r3, #0]	@ movhi
 5608 529c 7C361FE5 		ldr	r3, .L286+248
 5609 52a0 B020D3E1 		ldrh	r2, [r3, #0]
 5610 52a4 012082E2 		add	r2, r2, #1
 5611 52a8 B020C3E1 		strh	r2, [r3, #0]	@ movhi
 5612 52ac 70061FE5 		ldr	r0, .L286+276
 5613 52b0 7E10A0E3 		mov	r1, #126
 5614 52b4 90461FE5 		ldr	r4, .L286+252
 5615 52b8 FEFFFFEB 		bl	uart_transmit
 5616 52bc 80061FE5 		ldr	r0, .L286+276
 5617 52c0 0010A0E3 		mov	r1, #0
 5618 52c4 FEFFFFEB 		bl	uart_transmit
 5619 52c8 0150A0E3 		mov	r5, #1
 5620 52cc 90061FE5 		ldr	r0, .L286+276
 5621 52d0 1310A0E3 		mov	r1, #19
 5622 52d4 FEFFFFEB 		bl	uart_transmit
 5623 52d8 0050C4E5 		strb	r5, [r4, #0]
 5624 52dc 0510A0E1 		mov	r1, r5
 5625 52e0 A4061FE5 		ldr	r0, .L286+276
 5626 52e4 FEFFFFEB 		bl	uart_transmit
 5627 52e8 AC061FE5 		ldr	r0, .L286+276
 5628 52ec 0010A0E3 		mov	r1, #0
 5629 52f0 FEFFFFEB 		bl	uart_transmit
 5630 52f4 0030D4E5 		ldrb	r3, [r4, #0]	@ zero_extendqisi2
 5631 52f8 053083E0 		add	r3, r3, r5
 5632 52fc 0030C4E5 		strb	r3, [r4, #0]
 5633 5300 0510A0E1 		mov	r1, r5
 5634 5304 C8061FE5 		ldr	r0, .L286+276
 5635 5308 FEFFFFEB 		bl	uart_transmit
 5636 530c D0061FE5 		ldr	r0, .L286+276
 5637 5310 0010A0E3 		mov	r1, #0
 5638 5314 FEFFFFEB 		bl	uart_transmit
 5639 5318 DC061FE5 		ldr	r0, .L286+276
 5640 531c 0010A0E3 		mov	r1, #0
 5641 5320 FEFFFFEB 		bl	uart_transmit
 5642 5324 0030D4E5 		ldrb	r3, [r4, #0]	@ zero_extendqisi2
 5643 5328 023083E2 		add	r3, r3, #2
 5644 532c 0030C4E5 		strb	r3, [r4, #0]
 5645 5330 F4061FE5 		ldr	r0, .L286+276
 5646 5334 0210A0E3 		mov	r1, #2
 5647 5338 FEFFFFEB 		bl	uart_transmit
 5648 533c 0030D4E5 		ldrb	r3, [r4, #0]	@ zero_extendqisi2
 5649 5340 58571FE5 		ldr	r5, .L286+192
 5650 5344 153083E2 		add	r3, r3, #21
 5651 5348 0030C4E5 		strb	r3, [r4, #0]
 5652 534c 10071FE5 		ldr	r0, .L286+276
 5653 5350 1510A0E3 		mov	r1, #21
 5654 5354 FEFFFFEB 		bl	uart_transmit
 5655 5358 0010D5E5 		ldrb	r1, [r5, #0]	@ zero_extendqisi2
 5656 535c 0030D4E5 		ldrb	r3, [r4, #0]	@ zero_extendqisi2
 5657 5360 033081E0 		add	r3, r1, r3
 5658 5364 0030C4E5 		strb	r3, [r4, #0]
 5659 5368 2C071FE5 		ldr	r0, .L286+276
 5660 536c FEFFFFEB 		bl	uart_transmit
 5661 5370 0110D5E5 		ldrb	r1, [r5, #1]	@ zero_extendqisi2
 5662 5374 0030D4E5 		ldrb	r3, [r4, #0]	@ zero_extendqisi2
 5663 5378 033081E0 		add	r3, r1, r3
 5664 537c 0030C4E5 		strb	r3, [r4, #0]
 5665 5380 44071FE5 		ldr	r0, .L286+276
 5666 5384 FEFFFFEB 		bl	uart_transmit
 5667 5388 0210D5E5 		ldrb	r1, [r5, #2]	@ zero_extendqisi2
 5668 538c 0030D4E5 		ldrb	r3, [r4, #0]	@ zero_extendqisi2
 5669 5390 033081E0 		add	r3, r1, r3
 5670 5394 0030C4E5 		strb	r3, [r4, #0]
 5671 5398 5C071FE5 		ldr	r0, .L286+276
 5672 539c FEFFFFEB 		bl	uart_transmit
 5673 53a0 0310D5E5 		ldrb	r1, [r5, #3]	@ zero_extendqisi2
 5674 53a4 0030D4E5 		ldrb	r3, [r4, #0]	@ zero_extendqisi2
 5675 53a8 BC571FE5 		ldr	r5, .L286+196
 5676 53ac 033081E0 		add	r3, r1, r3
 5677 53b0 0030C4E5 		strb	r3, [r4, #0]
 5678 53b4 78071FE5 		ldr	r0, .L286+276
 5679 53b8 FEFFFFEB 		bl	uart_transmit
 5680 53bc 0010D5E5 		ldrb	r1, [r5, #0]	@ zero_extendqisi2
 5681 53c0 0030D4E5 		ldrb	r3, [r4, #0]	@ zero_extendqisi2
 5682 53c4 033081E0 		add	r3, r1, r3
 5683 53c8 0030C4E5 		strb	r3, [r4, #0]
 5684 53cc 90071FE5 		ldr	r0, .L286+276
 5685 53d0 FEFFFFEB 		bl	uart_transmit
 5686 53d4 0110D5E5 		ldrb	r1, [r5, #1]	@ zero_extendqisi2
 5687 53d8 0030D4E5 		ldrb	r3, [r4, #0]	@ zero_extendqisi2
 5688 53dc 033081E0 		add	r3, r1, r3
 5689 53e0 0030C4E5 		strb	r3, [r4, #0]
 5690 53e4 A8071FE5 		ldr	r0, .L286+276
 5691 53e8 FEFFFFEB 		bl	uart_transmit
 5692 53ec 0210D5E5 		ldrb	r1, [r5, #2]	@ zero_extendqisi2
 5693 53f0 0030D4E5 		ldrb	r3, [r4, #0]	@ zero_extendqisi2
 5694 53f4 033081E0 		add	r3, r1, r3
 5695 53f8 0030C4E5 		strb	r3, [r4, #0]
 5696 53fc C0071FE5 		ldr	r0, .L286+276
 5697 5400 FEFFFFEB 		bl	uart_transmit
 5698 5404 0310D5E5 		ldrb	r1, [r5, #3]	@ zero_extendqisi2
 5699 5408 0030D4E5 		ldrb	r3, [r4, #0]	@ zero_extendqisi2
 5700 540c 1C581FE5 		ldr	r5, .L286+200
 5701 5410 033081E0 		add	r3, r1, r3
 5702 5414 0030C4E5 		strb	r3, [r4, #0]
 5703 5418 DC071FE5 		ldr	r0, .L286+276
 5704 541c FEFFFFEB 		bl	uart_transmit
 5705 5420 0010D5E5 		ldrb	r1, [r5, #0]	@ zero_extendqisi2
 5706 5424 0030D4E5 		ldrb	r3, [r4, #0]	@ zero_extendqisi2
 5707 5428 033081E0 		add	r3, r1, r3
 5708 542c 0030C4E5 		strb	r3, [r4, #0]
 5709 5430 F4071FE5 		ldr	r0, .L286+276
 5710 5434 FEFFFFEB 		bl	uart_transmit
 5711 5438 0110D5E5 		ldrb	r1, [r5, #1]	@ zero_extendqisi2
 5712 543c 0030D4E5 		ldrb	r3, [r4, #0]	@ zero_extendqisi2
 5713 5440 033081E0 		add	r3, r1, r3
 5714 5444 0030C4E5 		strb	r3, [r4, #0]
 5715 5448 0C081FE5 		ldr	r0, .L286+276
 5716 544c FEFFFFEB 		bl	uart_transmit
 5717 5450 0210D5E5 		ldrb	r1, [r5, #2]	@ zero_extendqisi2
 5718 5454 0030D4E5 		ldrb	r3, [r4, #0]	@ zero_extendqisi2
 5719 5458 033081E0 		add	r3, r1, r3
 5720 545c 0030C4E5 		strb	r3, [r4, #0]
 5721 5460 24081FE5 		ldr	r0, .L286+276
 5722 5464 FEFFFFEB 		bl	uart_transmit
 5723 5468 0310D5E5 		ldrb	r1, [r5, #3]	@ zero_extendqisi2
 5724 546c 0030D4E5 		ldrb	r3, [r4, #0]	@ zero_extendqisi2
 5725 5470 033081E0 		add	r3, r1, r3
 5726 5474 0030C4E5 		strb	r3, [r4, #0]
 5727 5478 3C081FE5 		ldr	r0, .L286+276
 5728 547c FEFFFFEB 		bl	uart_transmit
 5729 5480 0010D4E5 		ldrb	r1, [r4, #0]	@ zero_extendqisi2
 5730 5484 0110E0E1 		mvn	r1, r1
 5731 5488 FF1001E2 		and	r1, r1, #255
 5732 548c 0010C4E5 		strb	r1, [r4, #0]
 5733 5490 54081FE5 		ldr	r0, .L286+276
 5734 5494 FEFFFFEB 		bl	uart_transmit
 5735 5498 030000EA 		b	.L161
 5736              	.L162:
 5737 549c 8C381FE5 		ldr	r3, .L286+232
 5738 54a0 0020D3E5 		ldrb	r2, [r3, #0]	@ zero_extendqisi2
 5739 54a4 012082E2 		add	r2, r2, #1
 5740 54a8 0020C3E5 		strb	r2, [r3, #0]
 5741              	.L161:
 5742 54ac B8381FE5 		ldr	r3, .L286+204
 5743 54b0 0030D3E5 		ldrb	r3, [r3, #0]	@ zero_extendqisi2
 5744 54b4 300053E3 		cmp	r3, #48
 5745 54b8 A900001A 		bne	.L163
 5746 54bc C4381FE5 		ldr	r3, .L286+208
 5747 54c0 0030D3E5 		ldrb	r3, [r3, #0]	@ zero_extendqisi2
 5748 54c4 000053E3 		cmp	r3, #0
 5749 54c8 A500000A 		beq	.L163
 5750 54cc 90081FE5 		ldr	r0, .L286+276
 5751 54d0 1B10A0E3 		mov	r1, #27
 5752 54d4 FEFFFFEB 		bl	uart_check_free_space
 5753 54d8 000050E3 		cmp	r0, #0
 5754 54dc 9C00000A 		beq	.L164
 5755 54e0 C4381FE5 		ldr	r3, .L286+244
 5756 54e4 B020D3E1 		ldrh	r2, [r3, #0]
 5757 54e8 1B2082E2 		add	r2, r2, #27
 5758 54ec B020C3E1 		strh	r2, [r3, #0]	@ movhi
 5759 54f0 D0381FE5 		ldr	r3, .L286+248
 5760 54f4 B020D3E1 		ldrh	r2, [r3, #0]
 5761 54f8 012082E2 		add	r2, r2, #1
 5762 54fc B020C3E1 		strh	r2, [r3, #0]	@ movhi
 5763 5500 C4081FE5 		ldr	r0, .L286+276
 5764 5504 7E10A0E3 		mov	r1, #126
 5765 5508 E4481FE5 		ldr	r4, .L286+252
 5766 550c FEFFFFEB 		bl	uart_transmit
 5767 5510 D4081FE5 		ldr	r0, .L286+276
 5768 5514 0010A0E3 		mov	r1, #0
 5769 5518 FEFFFFEB 		bl	uart_transmit
 5770 551c 0150A0E3 		mov	r5, #1
 5771 5520 E4081FE5 		ldr	r0, .L286+276
 5772 5524 1710A0E3 		mov	r1, #23
 5773 5528 FEFFFFEB 		bl	uart_transmit
 5774 552c 0050C4E5 		strb	r5, [r4, #0]
 5775 5530 0510A0E1 		mov	r1, r5
 5776 5534 F8081FE5 		ldr	r0, .L286+276
 5777 5538 FEFFFFEB 		bl	uart_transmit
 5778 553c 00091FE5 		ldr	r0, .L286+276
 5779 5540 0010A0E3 		mov	r1, #0
 5780 5544 FEFFFFEB 		bl	uart_transmit
 5781 5548 0030D4E5 		ldrb	r3, [r4, #0]	@ zero_extendqisi2
 5782 554c 053083E0 		add	r3, r3, r5
 5783 5550 0030C4E5 		strb	r3, [r4, #0]
 5784 5554 0510A0E1 		mov	r1, r5
 5785 5558 1C091FE5 		ldr	r0, .L286+276
 5786 555c FEFFFFEB 		bl	uart_transmit
 5787 5560 24091FE5 		ldr	r0, .L286+276
 5788 5564 0010A0E3 		mov	r1, #0
 5789 5568 FEFFFFEB 		bl	uart_transmit
 5790 556c 30091FE5 		ldr	r0, .L286+276
 5791 5570 0010A0E3 		mov	r1, #0
 5792 5574 FEFFFFEB 		bl	uart_transmit
 5793 5578 0030D4E5 		ldrb	r3, [r4, #0]	@ zero_extendqisi2
 5794 557c 023083E2 		add	r3, r3, #2
 5795 5580 0030C4E5 		strb	r3, [r4, #0]
 5796 5584 48091FE5 		ldr	r0, .L286+276
 5797 5588 0210A0E3 		mov	r1, #2
 5798 558c FEFFFFEB 		bl	uart_transmit
 5799 5590 0030D4E5 		ldrb	r3, [r4, #0]	@ zero_extendqisi2
 5800 5594 98591FE5 		ldr	r5, .L286+212
 5801 5598 163083E2 		add	r3, r3, #22
 5802 559c 0030C4E5 		strb	r3, [r4, #0]
 5803 55a0 64091FE5 		ldr	r0, .L286+276
 5804 55a4 1610A0E3 		mov	r1, #22
 5805 55a8 FEFFFFEB 		bl	uart_transmit
 5806 55ac 0010D5E5 		ldrb	r1, [r5, #0]	@ zero_extendqisi2
 5807 55b0 0030D4E5 		ldrb	r3, [r4, #0]	@ zero_extendqisi2
 5808 55b4 033081E0 		add	r3, r1, r3
 5809 55b8 0030C4E5 		strb	r3, [r4, #0]
 5810 55bc 80091FE5 		ldr	r0, .L286+276
 5811 55c0 FEFFFFEB 		bl	uart_transmit
 5812 55c4 0110D5E5 		ldrb	r1, [r5, #1]	@ zero_extendqisi2
 5813 55c8 0030D4E5 		ldrb	r3, [r4, #0]	@ zero_extendqisi2
 5814 55cc 033081E0 		add	r3, r1, r3
 5815 55d0 0030C4E5 		strb	r3, [r4, #0]
 5816 55d4 98091FE5 		ldr	r0, .L286+276
 5817 55d8 FEFFFFEB 		bl	uart_transmit
 5818 55dc 0210D5E5 		ldrb	r1, [r5, #2]	@ zero_extendqisi2
 5819 55e0 0030D4E5 		ldrb	r3, [r4, #0]	@ zero_extendqisi2
 5820 55e4 033081E0 		add	r3, r1, r3
 5821 55e8 0030C4E5 		strb	r3, [r4, #0]
 5822 55ec B0091FE5 		ldr	r0, .L286+276
 5823 55f0 FEFFFFEB 		bl	uart_transmit
 5824 55f4 0310D5E5 		ldrb	r1, [r5, #3]	@ zero_extendqisi2
 5825 55f8 0030D4E5 		ldrb	r3, [r4, #0]	@ zero_extendqisi2
 5826 55fc FC591FE5 		ldr	r5, .L286+216
 5827 5600 033081E0 		add	r3, r1, r3
 5828 5604 0030C4E5 		strb	r3, [r4, #0]
 5829 5608 CC091FE5 		ldr	r0, .L286+276
 5830 560c FEFFFFEB 		bl	uart_transmit
 5831 5610 0010D5E5 		ldrb	r1, [r5, #0]	@ zero_extendqisi2
 5832 5614 0030D4E5 		ldrb	r3, [r4, #0]	@ zero_extendqisi2
 5833 5618 033081E0 		add	r3, r1, r3
 5834 561c 0030C4E5 		strb	r3, [r4, #0]
 5835 5620 E4091FE5 		ldr	r0, .L286+276
 5836 5624 FEFFFFEB 		bl	uart_transmit
 5837 5628 0110D5E5 		ldrb	r1, [r5, #1]	@ zero_extendqisi2
 5838 562c 0030D4E5 		ldrb	r3, [r4, #0]	@ zero_extendqisi2
 5839 5630 033081E0 		add	r3, r1, r3
 5840 5634 0030C4E5 		strb	r3, [r4, #0]
 5841 5638 FC091FE5 		ldr	r0, .L286+276
 5842 563c FEFFFFEB 		bl	uart_transmit
 5843 5640 0210D5E5 		ldrb	r1, [r5, #2]	@ zero_extendqisi2
 5844 5644 0030D4E5 		ldrb	r3, [r4, #0]	@ zero_extendqisi2
 5845 5648 033081E0 		add	r3, r1, r3
 5846 564c 0030C4E5 		strb	r3, [r4, #0]
 5847 5650 140A1FE5 		ldr	r0, .L286+276
 5848 5654 FEFFFFEB 		bl	uart_transmit
 5849 5658 0310D5E5 		ldrb	r1, [r5, #3]	@ zero_extendqisi2
 5850 565c 0030D4E5 		ldrb	r3, [r4, #0]	@ zero_extendqisi2
 5851 5660 5C5A1FE5 		ldr	r5, .L286+220
 5852 5664 033081E0 		add	r3, r1, r3
 5853 5668 0030C4E5 		strb	r3, [r4, #0]
 5854 566c 300A1FE5 		ldr	r0, .L286+276
 5855 5670 FEFFFFEB 		bl	uart_transmit
 5856 5674 0010D5E5 		ldrb	r1, [r5, #0]	@ zero_extendqisi2
 5857 5678 0030D4E5 		ldrb	r3, [r4, #0]	@ zero_extendqisi2
 5858 567c 033081E0 		add	r3, r1, r3
 5859 5680 0030C4E5 		strb	r3, [r4, #0]
 5860 5684 480A1FE5 		ldr	r0, .L286+276
 5861 5688 FEFFFFEB 		bl	uart_transmit
 5862 568c 0110D5E5 		ldrb	r1, [r5, #1]	@ zero_extendqisi2
 5863 5690 0030D4E5 		ldrb	r3, [r4, #0]	@ zero_extendqisi2
 5864 5694 033081E0 		add	r3, r1, r3
 5865 5698 0030C4E5 		strb	r3, [r4, #0]
 5866 569c 600A1FE5 		ldr	r0, .L286+276
 5867 56a0 FEFFFFEB 		bl	uart_transmit
 5868 56a4 0210D5E5 		ldrb	r1, [r5, #2]	@ zero_extendqisi2
 5869 56a8 0030D4E5 		ldrb	r3, [r4, #0]	@ zero_extendqisi2
 5870 56ac 033081E0 		add	r3, r1, r3
 5871 56b0 0030C4E5 		strb	r3, [r4, #0]
 5872 56b4 780A1FE5 		ldr	r0, .L286+276
 5873 56b8 FEFFFFEB 		bl	uart_transmit
 5874 56bc 0310D5E5 		ldrb	r1, [r5, #3]	@ zero_extendqisi2
 5875 56c0 0030D4E5 		ldrb	r3, [r4, #0]	@ zero_extendqisi2
 5876 56c4 BC5A1FE5 		ldr	r5, .L286+224
 5877 56c8 033081E0 		add	r3, r1, r3
 5878 56cc 0030C4E5 		strb	r3, [r4, #0]
 5879 56d0 940A1FE5 		ldr	r0, .L286+276
 5880 56d4 FEFFFFEB 		bl	uart_transmit
 5881 56d8 0010D5E5 		ldrb	r1, [r5, #0]	@ zero_extendqisi2
 5882 56dc 0030D4E5 		ldrb	r3, [r4, #0]	@ zero_extendqisi2
 5883 56e0 033081E0 		add	r3, r1, r3
 5884 56e4 0030C4E5 		strb	r3, [r4, #0]
 5885 56e8 AC0A1FE5 		ldr	r0, .L286+276
 5886 56ec FEFFFFEB 		bl	uart_transmit
 5887 56f0 0110D5E5 		ldrb	r1, [r5, #1]	@ zero_extendqisi2
 5888 56f4 0030D4E5 		ldrb	r3, [r4, #0]	@ zero_extendqisi2
 5889 56f8 033081E0 		add	r3, r1, r3
 5890 56fc 0030C4E5 		strb	r3, [r4, #0]
 5891 5700 C40A1FE5 		ldr	r0, .L286+276
 5892 5704 FEFFFFEB 		bl	uart_transmit
 5893 5708 0210D5E5 		ldrb	r1, [r5, #2]	@ zero_extendqisi2
 5894 570c 0030D4E5 		ldrb	r3, [r4, #0]	@ zero_extendqisi2
 5895 5710 033081E0 		add	r3, r1, r3
 5896 5714 0030C4E5 		strb	r3, [r4, #0]
 5897 5718 DC0A1FE5 		ldr	r0, .L286+276
 5898 571c FEFFFFEB 		bl	uart_transmit
 5899 5720 0310D5E5 		ldrb	r1, [r5, #3]	@ zero_extendqisi2
 5900 5724 0030D4E5 		ldrb	r3, [r4, #0]	@ zero_extendqisi2
 5901 5728 033081E0 		add	r3, r1, r3
 5902 572c 0030C4E5 		strb	r3, [r4, #0]
 5903 5730 F40A1FE5 		ldr	r0, .L286+276
 5904 5734 FEFFFFEB 		bl	uart_transmit
 5905 5738 0010D4E5 		ldrb	r1, [r4, #0]	@ zero_extendqisi2
 5906 573c 0110E0E1 		mvn	r1, r1
 5907 5740 FF1001E2 		and	r1, r1, #255
 5908 5744 0010C4E5 		strb	r1, [r4, #0]
 5909 5748 0C0B1FE5 		ldr	r0, .L286+276
 5910 574c FEFFFFEB 		bl	uart_transmit
 5911 5750 030000EA 		b	.L163
 5912              	.L164:
 5913 5754 443B1FE5 		ldr	r3, .L286+232
 5914 5758 0020D3E5 		ldrb	r2, [r3, #0]	@ zero_extendqisi2
 5915 575c 012082E2 		add	r2, r2, #1
 5916 5760 0020C3E5 		strb	r2, [r3, #0]
 5917              	.L163:
 5918 5764 583B1FE5 		ldr	r3, .L286+228
 5919 5768 0030D3E5 		ldrb	r3, [r3, #0]	@ zero_extendqisi2
 5920 576c 360053E3 		cmp	r3, #54
 5921 5770 8B00001A 		bne	.L165
 5922 5774 FEFFFFEB 		bl	stateGetNedToBodyEulers_f
 5923 5778 1710A0E3 		mov	r1, #23
 5924 577c 0050A0E1 		mov	r5, r0
 5925 5780 440B1FE5 		ldr	r0, .L286+276
 5926 5784 FEFFFFEB 		bl	uart_check_free_space
 5927 5788 000050E3 		cmp	r0, #0
 5928 578c 8000000A 		beq	.L166
 5929 5790 743B1FE5 		ldr	r3, .L286+244
 5930 5794 B020D3E1 		ldrh	r2, [r3, #0]
 5931 5798 172082E2 		add	r2, r2, #23
 5932 579c B020C3E1 		strh	r2, [r3, #0]	@ movhi
 5933 57a0 803B1FE5 		ldr	r3, .L286+248
 5934 57a4 B020D3E1 		ldrh	r2, [r3, #0]
 5935 57a8 012082E2 		add	r2, r2, #1
 5936 57ac B020C3E1 		strh	r2, [r3, #0]	@ movhi
 5937 57b0 740B1FE5 		ldr	r0, .L286+276
 5938 57b4 7E10A0E3 		mov	r1, #126
 5939 57b8 944B1FE5 		ldr	r4, .L286+252
 5940 57bc FEFFFFEB 		bl	uart_transmit
 5941 57c0 840B1FE5 		ldr	r0, .L286+276
 5942 57c4 0010A0E3 		mov	r1, #0
 5943 57c8 FEFFFFEB 		bl	uart_transmit
 5944 57cc 0160A0E3 		mov	r6, #1
 5945 57d0 940B1FE5 		ldr	r0, .L286+276
 5946 57d4 1310A0E3 		mov	r1, #19
 5947 57d8 FEFFFFEB 		bl	uart_transmit
 5948 57dc 0610A0E1 		mov	r1, r6
 5949 57e0 0060C4E5 		strb	r6, [r4, #0]
 5950 57e4 A80B1FE5 		ldr	r0, .L286+276
 5951 57e8 FEFFFFEB 		bl	uart_transmit
 5952 57ec B00B1FE5 		ldr	r0, .L286+276
 5953 57f0 0010A0E3 		mov	r1, #0
 5954 57f4 FEFFFFEB 		bl	uart_transmit
 5955 57f8 0030D4E5 		ldrb	r3, [r4, #0]	@ zero_extendqisi2
 5956 57fc 063083E0 		add	r3, r3, r6
 5957 5800 0030C4E5 		strb	r3, [r4, #0]
 5958 5804 0610A0E1 		mov	r1, r6
 5959 5808 CC0B1FE5 		ldr	r0, .L286+276
 5960 580c FEFFFFEB 		bl	uart_transmit
 5961 5810 D40B1FE5 		ldr	r0, .L286+276
 5962 5814 0010A0E3 		mov	r1, #0
 5963 5818 FEFFFFEB 		bl	uart_transmit
 5964 581c E00B1FE5 		ldr	r0, .L286+276
 5965 5820 0010A0E3 		mov	r1, #0
 5966 5824 FEFFFFEB 		bl	uart_transmit
 5967 5828 0030D4E5 		ldrb	r3, [r4, #0]	@ zero_extendqisi2
 5968 582c 023083E2 		add	r3, r3, #2
 5969 5830 0030C4E5 		strb	r3, [r4, #0]
 5970 5834 F80B1FE5 		ldr	r0, .L286+276
 5971 5838 0210A0E3 		mov	r1, #2
 5972 583c FEFFFFEB 		bl	uart_transmit
 5973 5840 0030D4E5 		ldrb	r3, [r4, #0]	@ zero_extendqisi2
 5974 5844 063083E2 		add	r3, r3, #6
 5975 5848 0030C4E5 		strb	r3, [r4, #0]
 5976 584c 100C1FE5 		ldr	r0, .L286+276
 5977 5850 0610A0E3 		mov	r1, #6
 5978 5854 FEFFFFEB 		bl	uart_transmit
 5979 5858 0010D5E5 		ldrb	r1, [r5, #0]	@ zero_extendqisi2
 5980 585c 0030D4E5 		ldrb	r3, [r4, #0]	@ zero_extendqisi2
 5981 5860 033081E0 		add	r3, r1, r3
 5982 5864 0030C4E5 		strb	r3, [r4, #0]
 5983 5868 2C0C1FE5 		ldr	r0, .L286+276
 5984 586c FEFFFFEB 		bl	uart_transmit
 5985 5870 0110D5E5 		ldrb	r1, [r5, #1]	@ zero_extendqisi2
 5986 5874 0030D4E5 		ldrb	r3, [r4, #0]	@ zero_extendqisi2
 5987 5878 033081E0 		add	r3, r1, r3
 5988 587c 0030C4E5 		strb	r3, [r4, #0]
 5989 5880 440C1FE5 		ldr	r0, .L286+276
 5990 5884 FEFFFFEB 		bl	uart_transmit
 5991 5888 0210D5E5 		ldrb	r1, [r5, #2]	@ zero_extendqisi2
 5992 588c 0030D4E5 		ldrb	r3, [r4, #0]	@ zero_extendqisi2
 5993 5890 033081E0 		add	r3, r1, r3
 5994 5894 0030C4E5 		strb	r3, [r4, #0]
 5995 5898 5C0C1FE5 		ldr	r0, .L286+276
 5996 589c FEFFFFEB 		bl	uart_transmit
 5997 58a0 0310D5E5 		ldrb	r1, [r5, #3]	@ zero_extendqisi2
 5998 58a4 0030D4E5 		ldrb	r3, [r4, #0]	@ zero_extendqisi2
 5999 58a8 033081E0 		add	r3, r1, r3
 6000 58ac 0030C4E5 		strb	r3, [r4, #0]
 6001 58b0 740C1FE5 		ldr	r0, .L286+276
 6002 58b4 FEFFFFEB 		bl	uart_transmit
 6003 58b8 0810D5E5 		ldrb	r1, [r5, #8]	@ zero_extendqisi2
 6004 58bc 0030D4E5 		ldrb	r3, [r4, #0]	@ zero_extendqisi2
 6005 58c0 033081E0 		add	r3, r1, r3
 6006 58c4 0030C4E5 		strb	r3, [r4, #0]
 6007 58c8 8C0C1FE5 		ldr	r0, .L286+276
 6008 58cc FEFFFFEB 		bl	uart_transmit
 6009 58d0 0910D5E5 		ldrb	r1, [r5, #9]	@ zero_extendqisi2
 6010 58d4 0030D4E5 		ldrb	r3, [r4, #0]	@ zero_extendqisi2
 6011 58d8 033081E0 		add	r3, r1, r3
 6012 58dc 0030C4E5 		strb	r3, [r4, #0]
 6013 58e0 A40C1FE5 		ldr	r0, .L286+276
 6014 58e4 FEFFFFEB 		bl	uart_transmit
 6015 58e8 0A10D5E5 		ldrb	r1, [r5, #10]	@ zero_extendqisi2
 6016 58ec 0030D4E5 		ldrb	r3, [r4, #0]	@ zero_extendqisi2
 6017 58f0 033081E0 		add	r3, r1, r3
 6018 58f4 0030C4E5 		strb	r3, [r4, #0]
 6019 58f8 BC0C1FE5 		ldr	r0, .L286+276
 6020 58fc FEFFFFEB 		bl	uart_transmit
 6021 5900 0B10D5E5 		ldrb	r1, [r5, #11]	@ zero_extendqisi2
 6022 5904 0030D4E5 		ldrb	r3, [r4, #0]	@ zero_extendqisi2
 6023 5908 033081E0 		add	r3, r1, r3
 6024 590c 0030C4E5 		strb	r3, [r4, #0]
 6025 5910 D40C1FE5 		ldr	r0, .L286+276
 6026 5914 FEFFFFEB 		bl	uart_transmit
 6027 5918 0410D5E5 		ldrb	r1, [r5, #4]	@ zero_extendqisi2
 6028 591c 0030D4E5 		ldrb	r3, [r4, #0]	@ zero_extendqisi2
 6029 5920 033081E0 		add	r3, r1, r3
 6030 5924 0030C4E5 		strb	r3, [r4, #0]
 6031 5928 EC0C1FE5 		ldr	r0, .L286+276
 6032 592c FEFFFFEB 		bl	uart_transmit
 6033 5930 0510D5E5 		ldrb	r1, [r5, #5]	@ zero_extendqisi2
 6034 5934 0030D4E5 		ldrb	r3, [r4, #0]	@ zero_extendqisi2
 6035 5938 033081E0 		add	r3, r1, r3
 6036 593c 0030C4E5 		strb	r3, [r4, #0]
 6037 5940 040D1FE5 		ldr	r0, .L286+276
 6038 5944 FEFFFFEB 		bl	uart_transmit
 6039 5948 0610D5E5 		ldrb	r1, [r5, #6]	@ zero_extendqisi2
 6040 594c 0030D4E5 		ldrb	r3, [r4, #0]	@ zero_extendqisi2
 6041 5950 033081E0 		add	r3, r1, r3
 6042 5954 0030C4E5 		strb	r3, [r4, #0]
 6043 5958 1C0D1FE5 		ldr	r0, .L286+276
 6044 595c FEFFFFEB 		bl	uart_transmit
 6045 5960 0710D5E5 		ldrb	r1, [r5, #7]	@ zero_extendqisi2
 6046 5964 0030D4E5 		ldrb	r3, [r4, #0]	@ zero_extendqisi2
 6047 5968 033081E0 		add	r3, r1, r3
 6048 596c 0030C4E5 		strb	r3, [r4, #0]
 6049 5970 340D1FE5 		ldr	r0, .L286+276
 6050 5974 FEFFFFEB 		bl	uart_transmit
 6051 5978 0010D4E5 		ldrb	r1, [r4, #0]	@ zero_extendqisi2
 6052 597c 0110E0E1 		mvn	r1, r1
 6053 5980 FF1001E2 		and	r1, r1, #255
 6054 5984 0010C4E5 		strb	r1, [r4, #0]
 6055 5988 4C0D1FE5 		ldr	r0, .L286+276
 6056 598c FEFFFFEB 		bl	uart_transmit
 6057 5990 030000EA 		b	.L165
 6058              	.L166:
 6059 5994 843D1FE5 		ldr	r3, .L286+232
 6060 5998 0020D3E5 		ldrb	r2, [r3, #0]	@ zero_extendqisi2
 6061 599c 012082E2 		add	r2, r2, #1
 6062 59a0 0020C3E5 		strb	r2, [r3, #0]
 6063              	.L165:
 6064 59a4 903D1FE5 		ldr	r3, .L286+236
 6065 59a8 0030D3E5 		ldrb	r3, [r3, #0]	@ zero_extendqisi2
 6066 59ac 3C0053E3 		cmp	r3, #60
 6067 59b0 0A01001A 		bne	.L167
 6068 59b4 9C3D1FE5 		ldr	r3, .L286+240
 6069 59b8 7C0D1FE5 		ldr	r0, .L286+276
 6070 59bc 2B10A0E3 		mov	r1, #43
 6071 59c0 10308DE5 		str	r3, [sp, #16]	@ float
 6072 59c4 FEFFFFEB 		bl	uart_check_free_space
 6073 59c8 000050E3 		cmp	r0, #0
 6074 59cc FF00000A 		beq	.L168
 6075 59d0 B43D1FE5 		ldr	r3, .L286+244
 6076 59d4 B020D3E1 		ldrh	r2, [r3, #0]
 6077 59d8 2B2082E2 		add	r2, r2, #43
 6078 59dc B020C3E1 		strh	r2, [r3, #0]	@ movhi
 6079 59e0 C03D1FE5 		ldr	r3, .L286+248
 6080 59e4 B020D3E1 		ldrh	r2, [r3, #0]
 6081 59e8 012082E2 		add	r2, r2, #1
 6082 59ec B020C3E1 		strh	r2, [r3, #0]	@ movhi
 6083 59f0 B40D1FE5 		ldr	r0, .L286+276
 6084 59f4 7E10A0E3 		mov	r1, #126
 6085 59f8 D44D1FE5 		ldr	r4, .L286+252
 6086 59fc FEFFFFEB 		bl	uart_transmit
 6087 5a00 C40D1FE5 		ldr	r0, .L286+276
 6088 5a04 0010A0E3 		mov	r1, #0
 6089 5a08 FEFFFFEB 		bl	uart_transmit
 6090 5a0c 0150A0E3 		mov	r5, #1
 6091 5a10 D40D1FE5 		ldr	r0, .L286+276
 6092 5a14 2710A0E3 		mov	r1, #39
 6093 5a18 FEFFFFEB 		bl	uart_transmit
 6094 5a1c 0050C4E5 		strb	r5, [r4, #0]
 6095 5a20 0510A0E1 		mov	r1, r5
 6096 5a24 E80D1FE5 		ldr	r0, .L286+276
 6097 5a28 FEFFFFEB 		bl	uart_transmit
 6098 5a2c F00D1FE5 		ldr	r0, .L286+276
 6099 5a30 0010A0E3 		mov	r1, #0
 6100 5a34 FEFFFFEB 		bl	uart_transmit
 6101 5a38 0030D4E5 		ldrb	r3, [r4, #0]	@ zero_extendqisi2
 6102 5a3c 053083E0 		add	r3, r3, r5
 6103 5a40 0030C4E5 		strb	r3, [r4, #0]
 6104 5a44 0510A0E1 		mov	r1, r5
 6105 5a48 0C0E1FE5 		ldr	r0, .L286+276
 6106 5a4c FEFFFFEB 		bl	uart_transmit
 6107 5a50 140E1FE5 		ldr	r0, .L286+276
 6108 5a54 0010A0E3 		mov	r1, #0
 6109 5a58 FEFFFFEB 		bl	uart_transmit
 6110 5a5c 200E1FE5 		ldr	r0, .L286+276
 6111 5a60 0010A0E3 		mov	r1, #0
 6112 5a64 FEFFFFEB 		bl	uart_transmit
 6113 5a68 0030D4E5 		ldrb	r3, [r4, #0]	@ zero_extendqisi2
 6114 5a6c 023083E2 		add	r3, r3, #2
 6115 5a70 0030C4E5 		strb	r3, [r4, #0]
 6116 5a74 380E1FE5 		ldr	r0, .L286+276
 6117 5a78 0210A0E3 		mov	r1, #2
 6118 5a7c FEFFFFEB 		bl	uart_transmit
 6119 5a80 0030D4E5 		ldrb	r3, [r4, #0]	@ zero_extendqisi2
 6120 5a84 5C5E1FE5 		ldr	r5, .L286+256
 6121 5a88 103083E2 		add	r3, r3, #16
 6122 5a8c 0030C4E5 		strb	r3, [r4, #0]
 6123 5a90 540E1FE5 		ldr	r0, .L286+276
 6124 5a94 1010A0E3 		mov	r1, #16
 6125 5a98 FEFFFFEB 		bl	uart_transmit
 6126 5a9c 0010D5E5 		ldrb	r1, [r5, #0]	@ zero_extendqisi2
 6127 5aa0 0030D4E5 		ldrb	r3, [r4, #0]	@ zero_extendqisi2
 6128 5aa4 033081E0 		add	r3, r1, r3
 6129 5aa8 0030C4E5 		strb	r3, [r4, #0]
 6130 5aac 700E1FE5 		ldr	r0, .L286+276
 6131 5ab0 FEFFFFEB 		bl	uart_transmit
 6132 5ab4 0110D5E5 		ldrb	r1, [r5, #1]	@ zero_extendqisi2
 6133 5ab8 0030D4E5 		ldrb	r3, [r4, #0]	@ zero_extendqisi2
 6134 5abc 033081E0 		add	r3, r1, r3
 6135 5ac0 0030C4E5 		strb	r3, [r4, #0]
 6136 5ac4 880E1FE5 		ldr	r0, .L286+276
 6137 5ac8 FEFFFFEB 		bl	uart_transmit
 6138 5acc 0210D5E5 		ldrb	r1, [r5, #2]	@ zero_extendqisi2
 6139 5ad0 0030D4E5 		ldrb	r3, [r4, #0]	@ zero_extendqisi2
 6140 5ad4 033081E0 		add	r3, r1, r3
 6141 5ad8 0030C4E5 		strb	r3, [r4, #0]
 6142 5adc A00E1FE5 		ldr	r0, .L286+276
 6143 5ae0 FEFFFFEB 		bl	uart_transmit
 6144 5ae4 0310D5E5 		ldrb	r1, [r5, #3]	@ zero_extendqisi2
 6145 5ae8 0030D4E5 		ldrb	r3, [r4, #0]	@ zero_extendqisi2
 6146 5aec C05E1FE5 		ldr	r5, .L286+260
 6147 5af0 033081E0 		add	r3, r1, r3
 6148 5af4 0030C4E5 		strb	r3, [r4, #0]
 6149 5af8 BC0E1FE5 		ldr	r0, .L286+276
 6150 5afc FEFFFFEB 		bl	uart_transmit
 6151 5b00 0010D5E5 		ldrb	r1, [r5, #0]	@ zero_extendqisi2
 6152 5b04 0030D4E5 		ldrb	r3, [r4, #0]	@ zero_extendqisi2
 6153 5b08 033081E0 		add	r3, r1, r3
 6154 5b0c 0030C4E5 		strb	r3, [r4, #0]
 6155 5b10 D40E1FE5 		ldr	r0, .L286+276
 6156 5b14 FEFFFFEB 		bl	uart_transmit
 6157 5b18 0110D5E5 		ldrb	r1, [r5, #1]	@ zero_extendqisi2
 6158 5b1c 0030D4E5 		ldrb	r3, [r4, #0]	@ zero_extendqisi2
 6159 5b20 033081E0 		add	r3, r1, r3
 6160 5b24 0030C4E5 		strb	r3, [r4, #0]
 6161 5b28 EC0E1FE5 		ldr	r0, .L286+276
 6162 5b2c FEFFFFEB 		bl	uart_transmit
 6163 5b30 0210D5E5 		ldrb	r1, [r5, #2]	@ zero_extendqisi2
 6164 5b34 0030D4E5 		ldrb	r3, [r4, #0]	@ zero_extendqisi2
 6165 5b38 033081E0 		add	r3, r1, r3
 6166 5b3c 0030C4E5 		strb	r3, [r4, #0]
 6167 5b40 040F1FE5 		ldr	r0, .L286+276
 6168 5b44 FEFFFFEB 		bl	uart_transmit
 6169 5b48 0310D5E5 		ldrb	r1, [r5, #3]	@ zero_extendqisi2
 6170 5b4c 0030D4E5 		ldrb	r3, [r4, #0]	@ zero_extendqisi2
 6171 5b50 205F1FE5 		ldr	r5, .L286+264
 6172 5b54 033081E0 		add	r3, r1, r3
 6173 5b58 0030C4E5 		strb	r3, [r4, #0]
 6174 5b5c 200F1FE5 		ldr	r0, .L286+276
 6175 5b60 FEFFFFEB 		bl	uart_transmit
 6176 5b64 0010D5E5 		ldrb	r1, [r5, #0]	@ zero_extendqisi2
 6177 5b68 0030D4E5 		ldrb	r3, [r4, #0]	@ zero_extendqisi2
 6178 5b6c 033081E0 		add	r3, r1, r3
 6179 5b70 0030C4E5 		strb	r3, [r4, #0]
 6180 5b74 380F1FE5 		ldr	r0, .L286+276
 6181 5b78 FEFFFFEB 		bl	uart_transmit
 6182 5b7c 0110D5E5 		ldrb	r1, [r5, #1]	@ zero_extendqisi2
 6183 5b80 0030D4E5 		ldrb	r3, [r4, #0]	@ zero_extendqisi2
 6184 5b84 033081E0 		add	r3, r1, r3
 6185 5b88 0030C4E5 		strb	r3, [r4, #0]
 6186 5b8c 500F1FE5 		ldr	r0, .L286+276
 6187 5b90 FEFFFFEB 		bl	uart_transmit
 6188 5b94 0210D5E5 		ldrb	r1, [r5, #2]	@ zero_extendqisi2
 6189 5b98 0030D4E5 		ldrb	r3, [r4, #0]	@ zero_extendqisi2
 6190 5b9c 033081E0 		add	r3, r1, r3
 6191 5ba0 0030C4E5 		strb	r3, [r4, #0]
 6192 5ba4 680F1FE5 		ldr	r0, .L286+276
 6193 5ba8 FEFFFFEB 		bl	uart_transmit
 6194 5bac 0310D5E5 		ldrb	r1, [r5, #3]	@ zero_extendqisi2
 6195 5bb0 0030D4E5 		ldrb	r3, [r4, #0]	@ zero_extendqisi2
 6196 5bb4 805F1FE5 		ldr	r5, .L286+268
 6197 5bb8 033081E0 		add	r3, r1, r3
 6198 5bbc 0030C4E5 		strb	r3, [r4, #0]
 6199 5bc0 840F1FE5 		ldr	r0, .L286+276
 6200 5bc4 FEFFFFEB 		bl	uart_transmit
 6201 5bc8 0010D5E5 		ldrb	r1, [r5, #0]	@ zero_extendqisi2
 6202 5bcc 0030D4E5 		ldrb	r3, [r4, #0]	@ zero_extendqisi2
 6203 5bd0 033081E0 		add	r3, r1, r3
 6204 5bd4 0030C4E5 		strb	r3, [r4, #0]
 6205 5bd8 9C0F1FE5 		ldr	r0, .L286+276
 6206 5bdc FEFFFFEB 		bl	uart_transmit
 6207 5be0 0110D5E5 		ldrb	r1, [r5, #1]	@ zero_extendqisi2
 6208 5be4 0030D4E5 		ldrb	r3, [r4, #0]	@ zero_extendqisi2
 6209 5be8 033081E0 		add	r3, r1, r3
 6210 5bec 0030C4E5 		strb	r3, [r4, #0]
 6211 5bf0 B40F1FE5 		ldr	r0, .L286+276
 6212 5bf4 FEFFFFEB 		bl	uart_transmit
 6213 5bf8 0210D5E5 		ldrb	r1, [r5, #2]	@ zero_extendqisi2
 6214 5bfc 0030D4E5 		ldrb	r3, [r4, #0]	@ zero_extendqisi2
 6215 5c00 033081E0 		add	r3, r1, r3
 6216 5c04 0030C4E5 		strb	r3, [r4, #0]
 6217 5c08 CC0F1FE5 		ldr	r0, .L286+276
 6218 5c0c FEFFFFEB 		bl	uart_transmit
 6219 5c10 0310D5E5 		ldrb	r1, [r5, #3]	@ zero_extendqisi2
 6220 5c14 0030D4E5 		ldrb	r3, [r4, #0]	@ zero_extendqisi2
 6221 5c18 E05F1FE5 		ldr	r5, .L286+272
 6222 5c1c 033081E0 		add	r3, r1, r3
 6223 5c20 0030C4E5 		strb	r3, [r4, #0]
 6224 5c24 E80F1FE5 		ldr	r0, .L286+276
 6225 5c28 FEFFFFEB 		bl	uart_transmit
 6226 5c2c 0010D5E5 		ldrb	r1, [r5, #0]	@ zero_extendqisi2
 6227 5c30 0030D4E5 		ldrb	r3, [r4, #0]	@ zero_extendqisi2
 6228 5c34 033081E0 		add	r3, r1, r3
 6229 5c38 0030C4E5 		strb	r3, [r4, #0]
 6230 5c3c B00F9FE5 		ldr	r0, .L288+212
 6231 5c40 FEFFFFEB 		bl	uart_transmit
 6232 5c44 0110D5E5 		ldrb	r1, [r5, #1]	@ zero_extendqisi2
 6233 5c48 0030D4E5 		ldrb	r3, [r4, #0]	@ zero_extendqisi2
 6234 5c4c 033081E0 		add	r3, r1, r3
 6235 5c50 0030C4E5 		strb	r3, [r4, #0]
 6236 5c54 980F9FE5 		ldr	r0, .L288+212
 6237 5c58 FEFFFFEB 		bl	uart_transmit
 6238 5c5c 0210D5E5 		ldrb	r1, [r5, #2]	@ zero_extendqisi2
 6239 5c60 0030D4E5 		ldrb	r3, [r4, #0]	@ zero_extendqisi2
 6240 5c64 033081E0 		add	r3, r1, r3
 6241 5c68 0030C4E5 		strb	r3, [r4, #0]
 6242 5c6c 800F9FE5 		ldr	r0, .L288+212
 6243 5c70 FEFFFFEB 		bl	uart_transmit
 6244 5c74 0310D5E5 		ldrb	r1, [r5, #3]	@ zero_extendqisi2
 6245 5c78 0030D4E5 		ldrb	r3, [r4, #0]	@ zero_extendqisi2
 6246 5c7c 9C5E9FE5 		ldr	r5, .L288
 6247 5c80 033081E0 		add	r3, r1, r3
 6248 5c84 0030C4E5 		strb	r3, [r4, #0]
 6249 5c88 640F9FE5 		ldr	r0, .L288+212
 6250 5c8c FEFFFFEB 		bl	uart_transmit
 6251 5c90 0010D5E5 		ldrb	r1, [r5, #0]	@ zero_extendqisi2
 6252 5c94 0030D4E5 		ldrb	r3, [r4, #0]	@ zero_extendqisi2
 6253 5c98 033081E0 		add	r3, r1, r3
 6254 5c9c 0030C4E5 		strb	r3, [r4, #0]
 6255 5ca0 4C0F9FE5 		ldr	r0, .L288+212
 6256 5ca4 FEFFFFEB 		bl	uart_transmit
 6257 5ca8 0110D5E5 		ldrb	r1, [r5, #1]	@ zero_extendqisi2
 6258 5cac 0030D4E5 		ldrb	r3, [r4, #0]	@ zero_extendqisi2
 6259 5cb0 033081E0 		add	r3, r1, r3
 6260 5cb4 0030C4E5 		strb	r3, [r4, #0]
 6261 5cb8 340F9FE5 		ldr	r0, .L288+212
 6262 5cbc FEFFFFEB 		bl	uart_transmit
 6263 5cc0 0210D5E5 		ldrb	r1, [r5, #2]	@ zero_extendqisi2
 6264 5cc4 0030D4E5 		ldrb	r3, [r4, #0]	@ zero_extendqisi2
 6265 5cc8 033081E0 		add	r3, r1, r3
 6266 5ccc 0030C4E5 		strb	r3, [r4, #0]
 6267 5cd0 1C0F9FE5 		ldr	r0, .L288+212
 6268 5cd4 FEFFFFEB 		bl	uart_transmit
 6269 5cd8 0310D5E5 		ldrb	r1, [r5, #3]	@ zero_extendqisi2
 6270 5cdc 0030D4E5 		ldrb	r3, [r4, #0]	@ zero_extendqisi2
 6271 5ce0 3C5E9FE5 		ldr	r5, .L288+4
 6272 5ce4 033081E0 		add	r3, r1, r3
 6273 5ce8 0030C4E5 		strb	r3, [r4, #0]
 6274 5cec 000F9FE5 		ldr	r0, .L288+212
 6275 5cf0 FEFFFFEB 		bl	uart_transmit
 6276 5cf4 0010D5E5 		ldrb	r1, [r5, #0]	@ zero_extendqisi2
 6277 5cf8 0030D4E5 		ldrb	r3, [r4, #0]	@ zero_extendqisi2
 6278 5cfc 033081E0 		add	r3, r1, r3
 6279 5d00 0030C4E5 		strb	r3, [r4, #0]
 6280 5d04 E80E9FE5 		ldr	r0, .L288+212
 6281 5d08 FEFFFFEB 		bl	uart_transmit
 6282 5d0c 0110D5E5 		ldrb	r1, [r5, #1]	@ zero_extendqisi2
 6283 5d10 0030D4E5 		ldrb	r3, [r4, #0]	@ zero_extendqisi2
 6284 5d14 033081E0 		add	r3, r1, r3
 6285 5d18 0030C4E5 		strb	r3, [r4, #0]
 6286 5d1c D00E9FE5 		ldr	r0, .L288+212
 6287 5d20 FEFFFFEB 		bl	uart_transmit
 6288 5d24 0210D5E5 		ldrb	r1, [r5, #2]	@ zero_extendqisi2
 6289 5d28 0030D4E5 		ldrb	r3, [r4, #0]	@ zero_extendqisi2
 6290 5d2c 033081E0 		add	r3, r1, r3
 6291 5d30 0030C4E5 		strb	r3, [r4, #0]
 6292 5d34 B80E9FE5 		ldr	r0, .L288+212
 6293 5d38 FEFFFFEB 		bl	uart_transmit
 6294 5d3c 0310D5E5 		ldrb	r1, [r5, #3]	@ zero_extendqisi2
 6295 5d40 0030D4E5 		ldrb	r3, [r4, #0]	@ zero_extendqisi2
 6296 5d44 033081E0 		add	r3, r1, r3
 6297 5d48 0030C4E5 		strb	r3, [r4, #0]
 6298 5d4c A00E9FE5 		ldr	r0, .L288+212
 6299 5d50 FEFFFFEB 		bl	uart_transmit
 6300 5d54 1010DDE5 		ldrb	r1, [sp, #16]	@ zero_extendqisi2
 6301 5d58 0030D4E5 		ldrb	r3, [r4, #0]	@ zero_extendqisi2
 6302 5d5c 033081E0 		add	r3, r1, r3
 6303 5d60 0030C4E5 		strb	r3, [r4, #0]
 6304 5d64 880E9FE5 		ldr	r0, .L288+212
 6305 5d68 FEFFFFEB 		bl	uart_transmit
 6306 5d6c 1110DDE5 		ldrb	r1, [sp, #17]	@ zero_extendqisi2
 6307 5d70 0030D4E5 		ldrb	r3, [r4, #0]	@ zero_extendqisi2
 6308 5d74 033081E0 		add	r3, r1, r3
 6309 5d78 0030C4E5 		strb	r3, [r4, #0]
 6310 5d7c 700E9FE5 		ldr	r0, .L288+212
 6311 5d80 FEFFFFEB 		bl	uart_transmit
 6312 5d84 1210DDE5 		ldrb	r1, [sp, #18]	@ zero_extendqisi2
 6313 5d88 0030D4E5 		ldrb	r3, [r4, #0]	@ zero_extendqisi2
 6314 5d8c 033081E0 		add	r3, r1, r3
 6315 5d90 0030C4E5 		strb	r3, [r4, #0]
 6316 5d94 580E9FE5 		ldr	r0, .L288+212
 6317 5d98 FEFFFFEB 		bl	uart_transmit
 6318 5d9c 1310DDE5 		ldrb	r1, [sp, #19]	@ zero_extendqisi2
 6319 5da0 0030D4E5 		ldrb	r3, [r4, #0]	@ zero_extendqisi2
 6320 5da4 033081E0 		add	r3, r1, r3
 6321 5da8 0030C4E5 		strb	r3, [r4, #0]
 6322 5dac 400E9FE5 		ldr	r0, .L288+212
 6323 5db0 FEFFFFEB 		bl	uart_transmit
 6324 5db4 0010D4E5 		ldrb	r1, [r4, #0]	@ zero_extendqisi2
 6325 5db8 0110E0E1 		mvn	r1, r1
 6326 5dbc FF1001E2 		and	r1, r1, #255
 6327 5dc0 0010C4E5 		strb	r1, [r4, #0]
 6328 5dc4 280E9FE5 		ldr	r0, .L288+212
 6329 5dc8 FEFFFFEB 		bl	uart_transmit
 6330 5dcc 030000EA 		b	.L167
 6331              	.L168:
 6332 5dd0 F03D9FE5 		ldr	r3, .L288+168
 6333 5dd4 0020D3E5 		ldrb	r2, [r3, #0]	@ zero_extendqisi2
 6334 5dd8 012082E2 		add	r2, r2, #1
 6335 5ddc 0020C3E5 		strb	r2, [r3, #0]
 6336              	.L167:
 6337 5de0 403D9FE5 		ldr	r3, .L288+8
 6338 5de4 B030D3E1 		ldrh	r3, [r3, #0]
 6339 5de8 420053E3 		cmp	r3, #66
 6340 5dec 4D00001A 		bne	.L169
 6341 5df0 FC0D9FE5 		ldr	r0, .L288+212
 6342 5df4 1C10A0E3 		mov	r1, #28
 6343 5df8 FEFFFFEB 		bl	uart_check_free_space
 6344 5dfc 000050E3 		cmp	r0, #0
 6345 5e00 7F01000A 		beq	.L178
 6346 5e04 D03D9FE5 		ldr	r3, .L288+188
 6347 5e08 B020D3E1 		ldrh	r2, [r3, #0]
 6348 5e0c 1C2082E2 		add	r2, r2, #28
 6349 5e10 B020C3E1 		strh	r2, [r3, #0]	@ movhi
 6350 5e14 C43D9FE5 		ldr	r3, .L288+192
 6351 5e18 B020D3E1 		ldrh	r2, [r3, #0]
 6352 5e1c 012082E2 		add	r2, r2, #1
 6353 5e20 B020C3E1 		strh	r2, [r3, #0]	@ movhi
 6354 5e24 C80D9FE5 		ldr	r0, .L288+212
 6355 5e28 7E10A0E3 		mov	r1, #126
 6356 5e2c B04D9FE5 		ldr	r4, .L288+196
 6357 5e30 FEFFFFEB 		bl	uart_transmit
 6358 5e34 B80D9FE5 		ldr	r0, .L288+212
 6359 5e38 0010A0E3 		mov	r1, #0
 6360 5e3c 0150A0E3 		mov	r5, #1
 6361 5e40 FEFFFFEB 		bl	uart_transmit
 6362 5e44 A80D9FE5 		ldr	r0, .L288+212
 6363 5e48 1810A0E3 		mov	r1, #24
 6364 5e4c FEFFFFEB 		bl	uart_transmit
 6365 5e50 0510A0E1 		mov	r1, r5
 6366 5e54 0050C4E5 		strb	r5, [r4, #0]
 6367 5e58 940D9FE5 		ldr	r0, .L288+212
 6368 5e5c FEFFFFEB 		bl	uart_transmit
 6369 5e60 8C0D9FE5 		ldr	r0, .L288+212
 6370 5e64 0010A0E3 		mov	r1, #0
 6371 5e68 FEFFFFEB 		bl	uart_transmit
 6372 5e6c 0030D4E5 		ldrb	r3, [r4, #0]	@ zero_extendqisi2
 6373 5e70 053083E0 		add	r3, r3, r5
 6374 5e74 0030C4E5 		strb	r3, [r4, #0]
 6375 5e78 0510A0E1 		mov	r1, r5
 6376 5e7c 700D9FE5 		ldr	r0, .L288+212
 6377 5e80 FEFFFFEB 		bl	uart_transmit
 6378 5e84 680D9FE5 		ldr	r0, .L288+212
 6379 5e88 0010A0E3 		mov	r1, #0
 6380 5e8c FEFFFFEB 		bl	uart_transmit
 6381 5e90 5C0D9FE5 		ldr	r0, .L288+212
 6382 5e94 0010A0E3 		mov	r1, #0
 6383 5e98 FEFFFFEB 		bl	uart_transmit
 6384 5e9c 0030D4E5 		ldrb	r3, [r4, #0]	@ zero_extendqisi2
 6385 5ea0 023083E2 		add	r3, r3, #2
 6386 5ea4 0030C4E5 		strb	r3, [r4, #0]
 6387 5ea8 440D9FE5 		ldr	r0, .L288+212
 6388 5eac 0210A0E3 		mov	r1, #2
 6389 5eb0 FEFFFFEB 		bl	uart_transmit
 6390 5eb4 0030D4E5 		ldrb	r3, [r4, #0]	@ zero_extendqisi2
 6391 5eb8 023083E2 		add	r3, r3, #2
 6392 5ebc 0030C4E5 		strb	r3, [r4, #0]
 6393 5ec0 2C0D9FE5 		ldr	r0, .L288+212
 6394 5ec4 0210A0E3 		mov	r1, #2
 6395 5ec8 FEFFFFEB 		bl	uart_transmit
 6396 5ecc 0030D4E5 		ldrb	r3, [r4, #0]	@ zero_extendqisi2
 6397 5ed0 103083E2 		add	r3, r3, #16
 6398 5ed4 0030C4E5 		strb	r3, [r4, #0]
 6399 5ed8 140D9FE5 		ldr	r0, .L288+212
 6400 5edc 1010A0E3 		mov	r1, #16
 6401 5ee0 FEFFFFEB 		bl	uart_transmit
 6402 5ee4 BC7C9FE5 		ldr	r7, .L288+136
 6403 5ee8 0050A0E3 		mov	r5, #0
 6404              	.L171:
 6405 5eec 0510D7E7 		ldrb	r1, [r7, r5]	@ zero_extendqisi2
 6406 5ef0 0030D4E5 		ldrb	r3, [r4, #0]	@ zero_extendqisi2
 6407 5ef4 033081E0 		add	r3, r1, r3
 6408 5ef8 0030C4E5 		strb	r3, [r4, #0]
 6409 5efc F00C9FE5 		ldr	r0, .L288+212
 6410 5f00 015085E2 		add	r5, r5, #1
 6411 5f04 FEFFFFEB 		bl	uart_transmit
 6412 5f08 100055E3 		cmp	r5, #16
 6413 5f0c D06C9FE5 		ldr	r6, .L288+196
 6414 5f10 F5FFFF1A 		bne	.L171
 6415 5f14 0010D6E5 		ldrb	r1, [r6, #0]	@ zero_extendqisi2
 6416 5f18 0110E0E1 		mvn	r1, r1
 6417 5f1c FF1001E2 		and	r1, r1, #255
 6418 5f20 0010C6E5 		strb	r1, [r6, #0]
 6419 5f24 620000EA 		b	.L270
 6420              	.L169:
 6421 5f28 480053E3 		cmp	r3, #72
 6422 5f2c 6300001A 		bne	.L173
 6423 5f30 BC0C9FE5 		ldr	r0, .L288+212
 6424 5f34 1110A0E3 		mov	r1, #17
 6425 5f38 FEFFFFEB 		bl	uart_check_free_space
 6426 5f3c 000050E3 		cmp	r0, #0
 6427 5f40 2F01000A 		beq	.L178
 6428 5f44 903C9FE5 		ldr	r3, .L288+188
 6429 5f48 B020D3E1 		ldrh	r2, [r3, #0]
 6430 5f4c 112082E2 		add	r2, r2, #17
 6431 5f50 B020C3E1 		strh	r2, [r3, #0]	@ movhi
 6432 5f54 843C9FE5 		ldr	r3, .L288+192
 6433 5f58 B020D3E1 		ldrh	r2, [r3, #0]
 6434 5f5c 012082E2 		add	r2, r2, #1
 6435 5f60 B020C3E1 		strh	r2, [r3, #0]	@ movhi
 6436 5f64 880C9FE5 		ldr	r0, .L288+212
 6437 5f68 7E10A0E3 		mov	r1, #126
 6438 5f6c 704C9FE5 		ldr	r4, .L288+196
 6439 5f70 FEFFFFEB 		bl	uart_transmit
 6440 5f74 780C9FE5 		ldr	r0, .L288+212
 6441 5f78 0010A0E3 		mov	r1, #0
 6442 5f7c FEFFFFEB 		bl	uart_transmit
 6443 5f80 0150A0E3 		mov	r5, #1
 6444 5f84 680C9FE5 		ldr	r0, .L288+212
 6445 5f88 0D10A0E3 		mov	r1, #13
 6446 5f8c FEFFFFEB 		bl	uart_transmit
 6447 5f90 5C0C9FE5 		ldr	r0, .L288+212
 6448 5f94 0510A0E1 		mov	r1, r5
 6449 5f98 0050C4E5 		strb	r5, [r4, #0]
 6450 5f9c FEFFFFEB 		bl	uart_transmit
 6451 5fa0 4C0C9FE5 		ldr	r0, .L288+212
 6452 5fa4 0010A0E3 		mov	r1, #0
 6453 5fa8 FEFFFFEB 		bl	uart_transmit
 6454 5fac 0030D4E5 		ldrb	r3, [r4, #0]	@ zero_extendqisi2
 6455 5fb0 053083E0 		add	r3, r3, r5
 6456 5fb4 0030C4E5 		strb	r3, [r4, #0]
 6457 5fb8 340C9FE5 		ldr	r0, .L288+212
 6458 5fbc 0510A0E1 		mov	r1, r5
 6459 5fc0 FEFFFFEB 		bl	uart_transmit
 6460 5fc4 280C9FE5 		ldr	r0, .L288+212
 6461 5fc8 0010A0E3 		mov	r1, #0
 6462 5fcc FEFFFFEB 		bl	uart_transmit
 6463 5fd0 1C0C9FE5 		ldr	r0, .L288+212
 6464 5fd4 0010A0E3 		mov	r1, #0
 6465 5fd8 FEFFFFEB 		bl	uart_transmit
 6466 5fdc 0030D4E5 		ldrb	r3, [r4, #0]	@ zero_extendqisi2
 6467 5fe0 023083E2 		add	r3, r3, #2
 6468 5fe4 0030C4E5 		strb	r3, [r4, #0]
 6469 5fe8 040C9FE5 		ldr	r0, .L288+212
 6470 5fec 0210A0E3 		mov	r1, #2
 6471 5ff0 FEFFFFEB 		bl	uart_transmit
 6472 5ff4 0030D4E5 		ldrb	r3, [r4, #0]	@ zero_extendqisi2
 6473 5ff8 0B3083E2 		add	r3, r3, #11
 6474 5ffc 0030C4E5 		strb	r3, [r4, #0]
 6475 6000 EC0B9FE5 		ldr	r0, .L288+212
 6476 6004 0B10A0E3 		mov	r1, #11
 6477 6008 FEFFFFEB 		bl	uart_transmit
 6478 600c 183B9FE5 		ldr	r3, .L288+12
 6479 6010 0010D3E5 		ldrb	r1, [r3, #0]	@ zero_extendqisi2
 6480 6014 0030D4E5 		ldrb	r3, [r4, #0]	@ zero_extendqisi2
 6481 6018 033081E0 		add	r3, r1, r3
 6482 601c 0030C4E5 		strb	r3, [r4, #0]
 6483 6020 CC0B9FE5 		ldr	r0, .L288+212
 6484 6024 FEFFFFEB 		bl	uart_transmit
 6485 6028 003B9FE5 		ldr	r3, .L288+16
 6486 602c 0010D3E5 		ldrb	r1, [r3, #0]	@ zero_extendqisi2
 6487 6030 0030D4E5 		ldrb	r3, [r4, #0]	@ zero_extendqisi2
 6488 6034 033081E0 		add	r3, r1, r3
 6489 6038 0030C4E5 		strb	r3, [r4, #0]
 6490 603c B00B9FE5 		ldr	r0, .L288+212
 6491 6040 FEFFFFEB 		bl	uart_transmit
 6492 6044 E83A9FE5 		ldr	r3, .L288+20
 6493 6048 0010D3E5 		ldrb	r1, [r3, #0]	@ zero_extendqisi2
 6494 604c 0030D4E5 		ldrb	r3, [r4, #0]	@ zero_extendqisi2
 6495 6050 033081E0 		add	r3, r1, r3
 6496 6054 0030C4E5 		strb	r3, [r4, #0]
 6497 6058 940B9FE5 		ldr	r0, .L288+212
 6498 605c FEFFFFEB 		bl	uart_transmit
 6499 6060 D03A9FE5 		ldr	r3, .L288+24
 6500 6064 0010D3E5 		ldrb	r1, [r3, #0]	@ zero_extendqisi2
 6501 6068 0030D4E5 		ldrb	r3, [r4, #0]	@ zero_extendqisi2
 6502 606c 033081E0 		add	r3, r1, r3
 6503 6070 0030C4E5 		strb	r3, [r4, #0]
 6504 6074 780B9FE5 		ldr	r0, .L288+212
 6505 6078 FEFFFFEB 		bl	uart_transmit
 6506 607c 0010A0E3 		mov	r1, #0
 6507 6080 6C0B9FE5 		ldr	r0, .L288+212
 6508 6084 FEFFFFEB 		bl	uart_transmit
 6509 6088 AC3A9FE5 		ldr	r3, .L288+28
 6510 608c 0010D3E5 		ldrb	r1, [r3, #0]	@ zero_extendqisi2
 6511              	.L280:
 6512 6090 0030D4E5 		ldrb	r3, [r4, #0]	@ zero_extendqisi2
 6513 6094 033081E0 		add	r3, r1, r3
 6514 6098 0030C4E5 		strb	r3, [r4, #0]
 6515 609c 500B9FE5 		ldr	r0, .L288+212
 6516 60a0 FEFFFFEB 		bl	uart_transmit
 6517 60a4 0010D4E5 		ldrb	r1, [r4, #0]	@ zero_extendqisi2
 6518 60a8 0110E0E1 		mvn	r1, r1
 6519 60ac FF1001E2 		and	r1, r1, #255
 6520 60b0 0010C4E5 		strb	r1, [r4, #0]
 6521              	.L270:
 6522 60b4 380B9FE5 		ldr	r0, .L288+212
 6523 60b8 FEFFFFEB 		bl	uart_transmit
 6524 60bc D40000EA 		b	.L172
 6525              	.L173:
 6526 60c0 4E0053E3 		cmp	r3, #78
 6527 60c4 5600001A 		bne	.L175
 6528 60c8 703A9FE5 		ldr	r3, .L288+32
 6529 60cc F661D3E1 		ldrsh	r6, [r3, #22]
 6530 60d0 F421D3E1 		ldrsh	r2, [r3, #20]
 6531 60d4 F831D3E1 		ldrsh	r3, [r3, #24]
 6532 60d8 000052E3 		cmp	r2, #0
 6533 60dc 002062B2 		rsblt	r2, r2, #0
 6534 60e0 000056E3 		cmp	r6, #0
 6535 60e4 006066B2 		rsblt	r6, r6, #0
 6536 60e8 000053E3 		cmp	r3, #0
 6537 60ec 003063B2 		rsblt	r3, r3, #0
 6538 60f0 026086E0 		add	r6, r6, r2
 6539 60f4 036086E0 		add	r6, r6, r3
 6540 60f8 0668A0E1 		mov	r6, r6, asl #16
 6541 60fc 2668A0E1 		mov	r6, r6, lsr #16
 6542 6100 310056E3 		cmp	r6, #49
 6543 6104 E80A9FE5 		ldr	r0, .L288+212
 6544 6108 0E10A0E3 		mov	r1, #14
 6545 610c BC61CDE1 		strh	r6, [sp, #28]	@ movhi
 6546 6110 0760A093 		movls	r6, #7
 6547 6114 0360A083 		movhi	r6, #3
 6548 6118 FEFFFFEB 		bl	uart_check_free_space
 6549 611c 000050E3 		cmp	r0, #0
 6550 6120 B700000A 		beq	.L178
 6551 6124 B03A9FE5 		ldr	r3, .L288+188
 6552 6128 B020D3E1 		ldrh	r2, [r3, #0]
 6553 612c 0E2082E2 		add	r2, r2, #14
 6554 6130 B020C3E1 		strh	r2, [r3, #0]	@ movhi
 6555 6134 A43A9FE5 		ldr	r3, .L288+192
 6556 6138 B020D3E1 		ldrh	r2, [r3, #0]
 6557 613c 012082E2 		add	r2, r2, #1
 6558 6140 B020C3E1 		strh	r2, [r3, #0]	@ movhi
 6559 6144 A80A9FE5 		ldr	r0, .L288+212
 6560 6148 7E10A0E3 		mov	r1, #126
 6561 614c 904A9FE5 		ldr	r4, .L288+196
 6562 6150 FEFFFFEB 		bl	uart_transmit
 6563 6154 980A9FE5 		ldr	r0, .L288+212
 6564 6158 0010A0E3 		mov	r1, #0
 6565 615c FEFFFFEB 		bl	uart_transmit
 6566 6160 0150A0E3 		mov	r5, #1
 6567 6164 880A9FE5 		ldr	r0, .L288+212
 6568 6168 0A10A0E3 		mov	r1, #10
 6569 616c FEFFFFEB 		bl	uart_transmit
 6570 6170 7C0A9FE5 		ldr	r0, .L288+212
 6571 6174 0510A0E1 		mov	r1, r5
 6572 6178 0050C4E5 		strb	r5, [r4, #0]
 6573 617c FEFFFFEB 		bl	uart_transmit
 6574 6180 6C0A9FE5 		ldr	r0, .L288+212
 6575 6184 0010A0E3 		mov	r1, #0
 6576 6188 FEFFFFEB 		bl	uart_transmit
 6577 618c 0030D4E5 		ldrb	r3, [r4, #0]	@ zero_extendqisi2
 6578 6190 053083E0 		add	r3, r3, r5
 6579 6194 0030C4E5 		strb	r3, [r4, #0]
 6580 6198 540A9FE5 		ldr	r0, .L288+212
 6581 619c 0510A0E1 		mov	r1, r5
 6582 61a0 FEFFFFEB 		bl	uart_transmit
 6583 61a4 480A9FE5 		ldr	r0, .L288+212
 6584 61a8 0010A0E3 		mov	r1, #0
 6585 61ac FEFFFFEB 		bl	uart_transmit
 6586 61b0 3C0A9FE5 		ldr	r0, .L288+212
 6587 61b4 0010A0E3 		mov	r1, #0
 6588 61b8 FEFFFFEB 		bl	uart_transmit
 6589 61bc 0030D4E5 		ldrb	r3, [r4, #0]	@ zero_extendqisi2
 6590 61c0 023083E2 		add	r3, r3, #2
 6591 61c4 0030C4E5 		strb	r3, [r4, #0]
 6592 61c8 240A9FE5 		ldr	r0, .L288+212
 6593 61cc 0210A0E3 		mov	r1, #2
 6594 61d0 FEFFFFEB 		bl	uart_transmit
 6595 61d4 0030D4E5 		ldrb	r3, [r4, #0]	@ zero_extendqisi2
 6596 61d8 183043E2 		sub	r3, r3, #24
 6597 61dc 0030C4E5 		strb	r3, [r4, #0]
 6598 61e0 0C0A9FE5 		ldr	r0, .L288+212
 6599 61e4 E810A0E3 		mov	r1, #232
 6600 61e8 FEFFFFEB 		bl	uart_transmit
 6601 61ec 0030D4E5 		ldrb	r3, [r4, #0]	@ zero_extendqisi2
 6602 61f0 033086E0 		add	r3, r6, r3
 6603 61f4 0030C4E5 		strb	r3, [r4, #0]
 6604 61f8 F4099FE5 		ldr	r0, .L288+212
 6605 61fc 0610A0E1 		mov	r1, r6
 6606 6200 FEFFFFEB 		bl	uart_transmit
 6607 6204 1C10DDE5 		ldrb	r1, [sp, #28]	@ zero_extendqisi2
 6608 6208 0030D4E5 		ldrb	r3, [r4, #0]	@ zero_extendqisi2
 6609 620c 033081E0 		add	r3, r1, r3
 6610 6210 0030C4E5 		strb	r3, [r4, #0]
 6611 6214 D8099FE5 		ldr	r0, .L288+212
 6612 6218 FEFFFFEB 		bl	uart_transmit
 6613 621c 1D10DDE5 		ldrb	r1, [sp, #29]	@ zero_extendqisi2
 6614 6220 9AFFFFEA 		b	.L280
 6615              	.L175:
 6616 6224 540053E3 		cmp	r3, #84
 6617 6228 7900001A 		bne	.L172
 6618 622c C0099FE5 		ldr	r0, .L288+212
 6619 6230 1610A0E3 		mov	r1, #22
 6620 6234 FEFFFFEB 		bl	uart_check_free_space
 6621 6238 000050E3 		cmp	r0, #0
 6622 623c 7000000A 		beq	.L178
 6623 6240 94399FE5 		ldr	r3, .L288+188
 6624 6244 B020D3E1 		ldrh	r2, [r3, #0]
 6625 6248 162082E2 		add	r2, r2, #22
 6626 624c B020C3E1 		strh	r2, [r3, #0]	@ movhi
 6627 6250 88399FE5 		ldr	r3, .L288+192
 6628 6254 B020D3E1 		ldrh	r2, [r3, #0]
 6629 6258 012082E2 		add	r2, r2, #1
 6630 625c B020C3E1 		strh	r2, [r3, #0]	@ movhi
 6631 6260 8C099FE5 		ldr	r0, .L288+212
 6632 6264 7E10A0E3 		mov	r1, #126
 6633 6268 74499FE5 		ldr	r4, .L288+196
 6634 626c FEFFFFEB 		bl	uart_transmit
 6635 6270 7C099FE5 		ldr	r0, .L288+212
 6636 6274 0010A0E3 		mov	r1, #0
 6637 6278 0150A0E3 		mov	r5, #1
 6638 627c FEFFFFEB 		bl	uart_transmit
 6639 6280 6C099FE5 		ldr	r0, .L288+212
 6640 6284 1210A0E3 		mov	r1, #18
 6641 6288 FEFFFFEB 		bl	uart_transmit
 6642 628c 0510A0E1 		mov	r1, r5
 6643 6290 0050C4E5 		strb	r5, [r4, #0]
 6644 6294 58099FE5 		ldr	r0, .L288+212
 6645 6298 FEFFFFEB 		bl	uart_transmit
 6646 629c 50099FE5 		ldr	r0, .L288+212
 6647 62a0 0010A0E3 		mov	r1, #0
 6648 62a4 FEFFFFEB 		bl	uart_transmit
 6649 62a8 0030D4E5 		ldrb	r3, [r4, #0]	@ zero_extendqisi2
 6650 62ac 053083E0 		add	r3, r3, r5
 6651 62b0 0030C4E5 		strb	r3, [r4, #0]
 6652 62b4 0510A0E1 		mov	r1, r5
 6653 62b8 34099FE5 		ldr	r0, .L288+212
 6654 62bc FEFFFFEB 		bl	uart_transmit
 6655 62c0 2C099FE5 		ldr	r0, .L288+212
 6656 62c4 0010A0E3 		mov	r1, #0
 6657 62c8 FEFFFFEB 		bl	uart_transmit
 6658 62cc 20099FE5 		ldr	r0, .L288+212
 6659 62d0 0010A0E3 		mov	r1, #0
 6660 62d4 FEFFFFEB 		bl	uart_transmit
 6661 62d8 0030D4E5 		ldrb	r3, [r4, #0]	@ zero_extendqisi2
 6662 62dc 023083E2 		add	r3, r3, #2
 6663 62e0 0030C4E5 		strb	r3, [r4, #0]
 6664 62e4 08099FE5 		ldr	r0, .L288+212
 6665 62e8 0210A0E3 		mov	r1, #2
 6666 62ec FEFFFFEB 		bl	uart_transmit
 6667 62f0 0030D4E5 		ldrb	r3, [r4, #0]	@ zero_extendqisi2
 6668 62f4 C0589FE5 		ldr	r5, .L288+156
 6669 62f8 113083E2 		add	r3, r3, #17
 6670 62fc 0030C4E5 		strb	r3, [r4, #0]
 6671 6300 EC089FE5 		ldr	r0, .L288+212
 6672 6304 1110A0E3 		mov	r1, #17
 6673 6308 FEFFFFEB 		bl	uart_transmit
 6674 630c 4C10D5E5 		ldrb	r1, [r5, #76]	@ zero_extendqisi2
 6675 6310 0030D4E5 		ldrb	r3, [r4, #0]	@ zero_extendqisi2
 6676 6314 033081E0 		add	r3, r1, r3
 6677 6318 0030C4E5 		strb	r3, [r4, #0]
 6678 631c D0089FE5 		ldr	r0, .L288+212
 6679 6320 FEFFFFEB 		bl	uart_transmit
 6680 6324 4D10D5E5 		ldrb	r1, [r5, #77]	@ zero_extendqisi2
 6681 6328 0030D4E5 		ldrb	r3, [r4, #0]	@ zero_extendqisi2
 6682 632c 033081E0 		add	r3, r1, r3
 6683 6330 0030C4E5 		strb	r3, [r4, #0]
 6684 6334 B8089FE5 		ldr	r0, .L288+212
 6685 6338 FEFFFFEB 		bl	uart_transmit
 6686 633c 4E10D5E5 		ldrb	r1, [r5, #78]	@ zero_extendqisi2
 6687 6340 0030D4E5 		ldrb	r3, [r4, #0]	@ zero_extendqisi2
 6688 6344 033081E0 		add	r3, r1, r3
 6689 6348 0030C4E5 		strb	r3, [r4, #0]
 6690 634c A0089FE5 		ldr	r0, .L288+212
 6691 6350 FEFFFFEB 		bl	uart_transmit
 6692 6354 4F10D5E5 		ldrb	r1, [r5, #79]	@ zero_extendqisi2
 6693 6358 0030D4E5 		ldrb	r3, [r4, #0]	@ zero_extendqisi2
 6694 635c 033081E0 		add	r3, r1, r3
 6695 6360 0030C4E5 		strb	r3, [r4, #0]
 6696 6364 88089FE5 		ldr	r0, .L288+212
 6697 6368 FEFFFFEB 		bl	uart_transmit
 6698 636c 5010D5E5 		ldrb	r1, [r5, #80]	@ zero_extendqisi2
 6699 6370 0030D4E5 		ldrb	r3, [r4, #0]	@ zero_extendqisi2
 6700 6374 033081E0 		add	r3, r1, r3
 6701 6378 0030C4E5 		strb	r3, [r4, #0]
 6702 637c 70089FE5 		ldr	r0, .L288+212
 6703 6380 FEFFFFEB 		bl	uart_transmit
 6704 6384 5110D5E5 		ldrb	r1, [r5, #81]	@ zero_extendqisi2
 6705 6388 0030D4E5 		ldrb	r3, [r4, #0]	@ zero_extendqisi2
 6706 638c 033081E0 		add	r3, r1, r3
 6707 6390 0030C4E5 		strb	r3, [r4, #0]
 6708 6394 58089FE5 		ldr	r0, .L288+212
 6709 6398 FEFFFFEB 		bl	uart_transmit
 6710 639c 5210D5E5 		ldrb	r1, [r5, #82]	@ zero_extendqisi2
 6711 63a0 0030D4E5 		ldrb	r3, [r4, #0]	@ zero_extendqisi2
 6712 63a4 033081E0 		add	r3, r1, r3
 6713 63a8 0030C4E5 		strb	r3, [r4, #0]
 6714 63ac 40089FE5 		ldr	r0, .L288+212
 6715 63b0 FEFFFFEB 		bl	uart_transmit
 6716 63b4 5310D5E5 		ldrb	r1, [r5, #83]	@ zero_extendqisi2
 6717 63b8 0030D4E5 		ldrb	r3, [r4, #0]	@ zero_extendqisi2
 6718 63bc 033081E0 		add	r3, r1, r3
 6719 63c0 0030C4E5 		strb	r3, [r4, #0]
 6720 63c4 28089FE5 		ldr	r0, .L288+212
 6721 63c8 FEFFFFEB 		bl	uart_transmit
 6722 63cc 5810D5E5 		ldrb	r1, [r5, #88]	@ zero_extendqisi2
 6723 63d0 0030D4E5 		ldrb	r3, [r4, #0]	@ zero_extendqisi2
 6724 63d4 033081E0 		add	r3, r1, r3
 6725 63d8 0030C4E5 		strb	r3, [r4, #0]
 6726 63dc 10089FE5 		ldr	r0, .L288+212
 6727 63e0 FEFFFFEB 		bl	uart_transmit
 6728 63e4 5910D5E5 		ldrb	r1, [r5, #89]	@ zero_extendqisi2
 6729 63e8 0030D4E5 		ldrb	r3, [r4, #0]	@ zero_extendqisi2
 6730 63ec 033081E0 		add	r3, r1, r3
 6731 63f0 0030C4E5 		strb	r3, [r4, #0]
 6732 63f4 F8079FE5 		ldr	r0, .L288+212
 6733 63f8 FEFFFFEB 		bl	uart_transmit
 6734 63fc 5A10D5E5 		ldrb	r1, [r5, #90]	@ zero_extendqisi2
 6735 6400 22FFFFEA 		b	.L280
 6736              	.L178:
 6737 6404 BC379FE5 		ldr	r3, .L288+168
 6738 6408 0020D3E5 		ldrb	r2, [r3, #0]	@ zero_extendqisi2
 6739 640c 012082E2 		add	r2, r2, #1
 6740 6410 0020C3E5 		strb	r2, [r3, #0]
 6741              	.L172:
 6742 6414 28379FE5 		ldr	r3, .L288+36
 6743 6418 B030D3E1 		ldrh	r3, [r3, #0]
 6744 641c 5A0053E3 		cmp	r3, #90
 6745 6420 5200001A 		bne	.L179
 6746 6424 C8079FE5 		ldr	r0, .L288+212
 6747 6428 1010A0E3 		mov	r1, #16
 6748 642c FEFFFFEB 		bl	uart_check_free_space
 6749 6430 000050E3 		cmp	r0, #0
 6750 6434 B700000A 		beq	.L182
 6751 6438 9C379FE5 		ldr	r3, .L288+188
 6752 643c B020D3E1 		ldrh	r2, [r3, #0]
 6753 6440 102082E2 		add	r2, r2, #16
 6754 6444 B020C3E1 		strh	r2, [r3, #0]	@ movhi
 6755 6448 90379FE5 		ldr	r3, .L288+192
 6756 644c B020D3E1 		ldrh	r2, [r3, #0]
 6757 6450 012082E2 		add	r2, r2, #1
 6758 6454 B020C3E1 		strh	r2, [r3, #0]	@ movhi
 6759 6458 94079FE5 		ldr	r0, .L288+212
 6760 645c 7E10A0E3 		mov	r1, #126
 6761 6460 7C479FE5 		ldr	r4, .L288+196
 6762 6464 FEFFFFEB 		bl	uart_transmit
 6763 6468 84079FE5 		ldr	r0, .L288+212
 6764 646c 0010A0E3 		mov	r1, #0
 6765 6470 0150A0E3 		mov	r5, #1
 6766 6474 FEFFFFEB 		bl	uart_transmit
 6767 6478 74079FE5 		ldr	r0, .L288+212
 6768 647c 0C10A0E3 		mov	r1, #12
 6769 6480 FEFFFFEB 		bl	uart_transmit
 6770 6484 0510A0E1 		mov	r1, r5
 6771 6488 0050C4E5 		strb	r5, [r4, #0]
 6772 648c 60079FE5 		ldr	r0, .L288+212
 6773 6490 FEFFFFEB 		bl	uart_transmit
 6774 6494 58079FE5 		ldr	r0, .L288+212
 6775 6498 0010A0E3 		mov	r1, #0
 6776 649c FEFFFFEB 		bl	uart_transmit
 6777 64a0 0030D4E5 		ldrb	r3, [r4, #0]	@ zero_extendqisi2
 6778 64a4 053083E0 		add	r3, r3, r5
 6779 64a8 0030C4E5 		strb	r3, [r4, #0]
 6780 64ac 0510A0E1 		mov	r1, r5
 6781 64b0 3C079FE5 		ldr	r0, .L288+212
 6782 64b4 FEFFFFEB 		bl	uart_transmit
 6783 64b8 34079FE5 		ldr	r0, .L288+212
 6784 64bc 0010A0E3 		mov	r1, #0
 6785 64c0 FEFFFFEB 		bl	uart_transmit
 6786 64c4 28079FE5 		ldr	r0, .L288+212
 6787 64c8 0010A0E3 		mov	r1, #0
 6788 64cc FEFFFFEB 		bl	uart_transmit
 6789 64d0 0030D4E5 		ldrb	r3, [r4, #0]	@ zero_extendqisi2
 6790 64d4 023083E2 		add	r3, r3, #2
 6791 64d8 0030C4E5 		strb	r3, [r4, #0]
 6792 64dc 10079FE5 		ldr	r0, .L288+212
 6793 64e0 0210A0E3 		mov	r1, #2
 6794 64e4 FEFFFFEB 		bl	uart_transmit
 6795 64e8 0030D4E5 		ldrb	r3, [r4, #0]	@ zero_extendqisi2
 6796 64ec 54569FE5 		ldr	r5, .L288+40
 6797 64f0 0E3083E2 		add	r3, r3, #14
 6798 64f4 0030C4E5 		strb	r3, [r4, #0]
 6799 64f8 F4069FE5 		ldr	r0, .L288+212
 6800 64fc 0E10A0E3 		mov	r1, #14
 6801 6500 FEFFFFEB 		bl	uart_transmit
 6802 6504 0010D5E5 		ldrb	r1, [r5, #0]	@ zero_extendqisi2
 6803 6508 0030D4E5 		ldrb	r3, [r4, #0]	@ zero_extendqisi2
 6804 650c 033081E0 		add	r3, r1, r3
 6805 6510 0030C4E5 		strb	r3, [r4, #0]
 6806 6514 D8069FE5 		ldr	r0, .L288+212
 6807 6518 FEFFFFEB 		bl	uart_transmit
 6808 651c 0110D5E5 		ldrb	r1, [r5, #1]	@ zero_extendqisi2
 6809 6520 0030D4E5 		ldrb	r3, [r4, #0]	@ zero_extendqisi2
 6810 6524 033081E0 		add	r3, r1, r3
 6811 6528 0030C4E5 		strb	r3, [r4, #0]
 6812 652c C0069FE5 		ldr	r0, .L288+212
 6813 6530 FEFFFFEB 		bl	uart_transmit
 6814 6534 0210D5E5 		ldrb	r1, [r5, #2]	@ zero_extendqisi2
 6815 6538 0030D4E5 		ldrb	r3, [r4, #0]	@ zero_extendqisi2
 6816 653c 033081E0 		add	r3, r1, r3
 6817 6540 0030C4E5 		strb	r3, [r4, #0]
 6818 6544 A8069FE5 		ldr	r0, .L288+212
 6819 6548 FEFFFFEB 		bl	uart_transmit
 6820 654c 0310D5E5 		ldrb	r1, [r5, #3]	@ zero_extendqisi2
 6821 6550 0030D4E5 		ldrb	r3, [r4, #0]	@ zero_extendqisi2
 6822 6554 033081E0 		add	r3, r1, r3
 6823 6558 0030C4E5 		strb	r3, [r4, #0]
 6824 655c 90069FE5 		ldr	r0, .L288+212
 6825 6560 FEFFFFEB 		bl	uart_transmit
 6826 6564 E0359FE5 		ldr	r3, .L288+44
 6827 6568 0010D3E5 		ldrb	r1, [r3, #0]	@ zero_extendqisi2
 6828 656c 5D0000EA 		b	.L271
 6829              	.L179:
 6830 6570 600053E3 		cmp	r3, #96
 6831 6574 6B00001A 		bne	.L181
 6832 6578 D0559FE5 		ldr	r5, .L288+48
 6833 657c 58469FE5 		ldr	r4, .L288+188
 6834 6580 B000D5E1 		ldrh	r0, [r5, #0]
 6835 6584 B060D4E1 		ldrh	r6, [r4, #0]
 6836 6588 060060E0 		rsb	r0, r0, r6
 6837 658c FEFFFFEB 		bl	__aeabi_i2d
 6838 6590 BC259FE5 		ldr	r2, .L288+52
 6839 6594 BC359FE5 		ldr	r3, .L288+56
 6840 6598 FEFFFFEB 		bl	__aeabi_ddiv
 6841 659c FEFFFFEB 		bl	__aeabi_d2uiz
 6842 65a0 B060C5E1 		strh	r6, [r5, #0]	@ movhi
 6843 65a4 BC01CDE1 		strh	r0, [sp, #28]	@ movhi
 6844 65a8 1010A0E3 		mov	r1, #16
 6845 65ac 40069FE5 		ldr	r0, .L288+212
 6846 65b0 FEFFFFEB 		bl	uart_check_free_space
 6847 65b4 000050E3 		cmp	r0, #0
 6848 65b8 5600000A 		beq	.L182
 6849 65bc B030D4E1 		ldrh	r3, [r4, #0]
 6850 65c0 18569FE5 		ldr	r5, .L288+192
 6851 65c4 103083E2 		add	r3, r3, #16
 6852 65c8 B030C4E1 		strh	r3, [r4, #0]	@ movhi
 6853 65cc B030D5E1 		ldrh	r3, [r5, #0]
 6854 65d0 013083E2 		add	r3, r3, #1
 6855 65d4 B030C5E1 		strh	r3, [r5, #0]	@ movhi
 6856 65d8 14069FE5 		ldr	r0, .L288+212
 6857 65dc 7E10A0E3 		mov	r1, #126
 6858 65e0 FC459FE5 		ldr	r4, .L288+196
 6859 65e4 FEFFFFEB 		bl	uart_transmit
 6860 65e8 04069FE5 		ldr	r0, .L288+212
 6861 65ec 0010A0E3 		mov	r1, #0
 6862 65f0 FEFFFFEB 		bl	uart_transmit
 6863 65f4 0160A0E3 		mov	r6, #1
 6864 65f8 F4059FE5 		ldr	r0, .L288+212
 6865 65fc 0C10A0E3 		mov	r1, #12
 6866 6600 FEFFFFEB 		bl	uart_transmit
 6867 6604 E8059FE5 		ldr	r0, .L288+212
 6868 6608 0610A0E1 		mov	r1, r6
 6869 660c 0060C4E5 		strb	r6, [r4, #0]
 6870 6610 FEFFFFEB 		bl	uart_transmit
 6871 6614 D8059FE5 		ldr	r0, .L288+212
 6872 6618 0010A0E3 		mov	r1, #0
 6873 661c FEFFFFEB 		bl	uart_transmit
 6874 6620 0030D4E5 		ldrb	r3, [r4, #0]	@ zero_extendqisi2
 6875 6624 063083E0 		add	r3, r3, r6
 6876 6628 0030C4E5 		strb	r3, [r4, #0]
 6877 662c C0059FE5 		ldr	r0, .L288+212
 6878 6630 0610A0E1 		mov	r1, r6
 6879 6634 FEFFFFEB 		bl	uart_transmit
 6880 6638 B4059FE5 		ldr	r0, .L288+212
 6881 663c 0010A0E3 		mov	r1, #0
 6882 6640 FEFFFFEB 		bl	uart_transmit
 6883 6644 A8059FE5 		ldr	r0, .L288+212
 6884 6648 0010A0E3 		mov	r1, #0
 6885 664c FEFFFFEB 		bl	uart_transmit
 6886 6650 0030D4E5 		ldrb	r3, [r4, #0]	@ zero_extendqisi2
 6887 6654 023083E2 		add	r3, r3, #2
 6888 6658 0030C4E5 		strb	r3, [r4, #0]
 6889 665c 90059FE5 		ldr	r0, .L288+212
 6890 6660 0210A0E3 		mov	r1, #2
 6891 6664 FEFFFFEB 		bl	uart_transmit
 6892 6668 0030D4E5 		ldrb	r3, [r4, #0]	@ zero_extendqisi2
 6893 666c 1E3083E2 		add	r3, r3, #30
 6894 6670 0030C4E5 		strb	r3, [r4, #0]
 6895 6674 78059FE5 		ldr	r0, .L288+212
 6896 6678 1E10A0E3 		mov	r1, #30
 6897 667c FEFFFFEB 		bl	uart_transmit
 6898 6680 40359FE5 		ldr	r3, .L288+168
 6899 6684 0010D3E5 		ldrb	r1, [r3, #0]	@ zero_extendqisi2
 6900 6688 0030D4E5 		ldrb	r3, [r4, #0]	@ zero_extendqisi2
 6901 668c 033081E0 		add	r3, r1, r3
 6902 6690 0030C4E5 		strb	r3, [r4, #0]
 6903 6694 58059FE5 		ldr	r0, .L288+212
 6904 6698 FEFFFFEB 		bl	uart_transmit
 6905 669c 1C10DDE5 		ldrb	r1, [sp, #28]	@ zero_extendqisi2
 6906 66a0 0030D4E5 		ldrb	r3, [r4, #0]	@ zero_extendqisi2
 6907 66a4 033081E0 		add	r3, r1, r3
 6908 66a8 0030C4E5 		strb	r3, [r4, #0]
 6909 66ac 40059FE5 		ldr	r0, .L288+212
 6910 66b0 FEFFFFEB 		bl	uart_transmit
 6911 66b4 1D10DDE5 		ldrb	r1, [sp, #29]	@ zero_extendqisi2
 6912 66b8 0030D4E5 		ldrb	r3, [r4, #0]	@ zero_extendqisi2
 6913 66bc 033081E0 		add	r3, r1, r3
 6914 66c0 0030C4E5 		strb	r3, [r4, #0]
 6915 66c4 28059FE5 		ldr	r0, .L288+212
 6916 66c8 FEFFFFEB 		bl	uart_transmit
 6917 66cc 0010D5E5 		ldrb	r1, [r5, #0]	@ zero_extendqisi2
 6918 66d0 0030D4E5 		ldrb	r3, [r4, #0]	@ zero_extendqisi2
 6919 66d4 033081E0 		add	r3, r1, r3
 6920 66d8 0030C4E5 		strb	r3, [r4, #0]
 6921 66dc 10059FE5 		ldr	r0, .L288+212
 6922 66e0 FEFFFFEB 		bl	uart_transmit
 6923 66e4 0110D5E5 		ldrb	r1, [r5, #1]	@ zero_extendqisi2
 6924              	.L271:
 6925 66e8 0030D4E5 		ldrb	r3, [r4, #0]	@ zero_extendqisi2
 6926 66ec 033081E0 		add	r3, r1, r3
 6927 66f0 0030C4E5 		strb	r3, [r4, #0]
 6928 66f4 F8049FE5 		ldr	r0, .L288+212
 6929 66f8 FEFFFFEB 		bl	uart_transmit
 6930 66fc 0010D4E5 		ldrb	r1, [r4, #0]	@ zero_extendqisi2
 6931 6700 0110E0E1 		mvn	r1, r1
 6932 6704 FF1001E2 		and	r1, r1, #255
 6933 6708 0010C4E5 		strb	r1, [r4, #0]
 6934 670c E0049FE5 		ldr	r0, .L288+212
 6935 6710 FEFFFFEB 		bl	uart_transmit
 6936 6714 030000EA 		b	.L181
 6937              	.L182:
 6938 6718 A8349FE5 		ldr	r3, .L288+168
 6939 671c 0020D3E5 		ldrb	r2, [r3, #0]	@ zero_extendqisi2
 6940 6720 012082E2 		add	r2, r2, #1
 6941 6724 0020C3E5 		strb	r2, [r3, #0]
 6942              	.L181:
 6943 6728 2C349FE5 		ldr	r3, .L288+60
 6944 672c B030D3E1 		ldrh	r3, [r3, #0]
 6945 6730 660053E3 		cmp	r3, #102
 6946 6734 7E00001A 		bne	.L183
 6947 6738 B4049FE5 		ldr	r0, .L288+212
 6948 673c 1510A0E3 		mov	r1, #21
 6949 6740 FEFFFFEB 		bl	uart_check_free_space
 6950 6744 000050E3 		cmp	r0, #0
 6951 6748 7500000A 		beq	.L184
 6952 674c 88349FE5 		ldr	r3, .L288+188
 6953 6750 B020D3E1 		ldrh	r2, [r3, #0]
 6954 6754 152082E2 		add	r2, r2, #21
 6955 6758 B020C3E1 		strh	r2, [r3, #0]	@ movhi
 6956 675c 7C349FE5 		ldr	r3, .L288+192
 6957 6760 B020D3E1 		ldrh	r2, [r3, #0]
 6958 6764 012082E2 		add	r2, r2, #1
 6959 6768 B020C3E1 		strh	r2, [r3, #0]	@ movhi
 6960 676c 80049FE5 		ldr	r0, .L288+212
 6961 6770 7E10A0E3 		mov	r1, #126
 6962 6774 68449FE5 		ldr	r4, .L288+196
 6963 6778 FEFFFFEB 		bl	uart_transmit
 6964 677c 70049FE5 		ldr	r0, .L288+212
 6965 6780 0010A0E3 		mov	r1, #0
 6966 6784 FEFFFFEB 		bl	uart_transmit
 6967 6788 0150A0E3 		mov	r5, #1
 6968 678c 60049FE5 		ldr	r0, .L288+212
 6969 6790 1110A0E3 		mov	r1, #17
 6970 6794 FEFFFFEB 		bl	uart_transmit
 6971 6798 0050C4E5 		strb	r5, [r4, #0]
 6972 679c 0510A0E1 		mov	r1, r5
 6973 67a0 4C049FE5 		ldr	r0, .L288+212
 6974 67a4 FEFFFFEB 		bl	uart_transmit
 6975 67a8 44049FE5 		ldr	r0, .L288+212
 6976 67ac 0010A0E3 		mov	r1, #0
 6977 67b0 FEFFFFEB 		bl	uart_transmit
 6978 67b4 0030D4E5 		ldrb	r3, [r4, #0]	@ zero_extendqisi2
 6979 67b8 053083E0 		add	r3, r3, r5
 6980 67bc 0030C4E5 		strb	r3, [r4, #0]
 6981 67c0 0510A0E1 		mov	r1, r5
 6982 67c4 28049FE5 		ldr	r0, .L288+212
 6983 67c8 FEFFFFEB 		bl	uart_transmit
 6984 67cc 20049FE5 		ldr	r0, .L288+212
 6985 67d0 0010A0E3 		mov	r1, #0
 6986 67d4 FEFFFFEB 		bl	uart_transmit
 6987 67d8 14049FE5 		ldr	r0, .L288+212
 6988 67dc 0010A0E3 		mov	r1, #0
 6989 67e0 FEFFFFEB 		bl	uart_transmit
 6990 67e4 0030D4E5 		ldrb	r3, [r4, #0]	@ zero_extendqisi2
 6991 67e8 023083E2 		add	r3, r3, #2
 6992 67ec 0030C4E5 		strb	r3, [r4, #0]
 6993 67f0 FC039FE5 		ldr	r0, .L288+212
 6994 67f4 0210A0E3 		mov	r1, #2
 6995 67f8 FEFFFFEB 		bl	uart_transmit
 6996 67fc 0030D4E5 		ldrb	r3, [r4, #0]	@ zero_extendqisi2
 6997 6800 38539FE5 		ldr	r5, .L288+32
 6998 6804 073083E2 		add	r3, r3, #7
 6999 6808 0030C4E5 		strb	r3, [r4, #0]
 7000 680c E0039FE5 		ldr	r0, .L288+212
 7001 6810 0710A0E3 		mov	r1, #7
 7002 6814 FEFFFFEB 		bl	uart_transmit
 7003 6818 0010D5E5 		ldrb	r1, [r5, #0]	@ zero_extendqisi2
 7004 681c 0030D4E5 		ldrb	r3, [r4, #0]	@ zero_extendqisi2
 7005 6820 033081E0 		add	r3, r1, r3
 7006 6824 0030C4E5 		strb	r3, [r4, #0]
 7007 6828 C4039FE5 		ldr	r0, .L288+212
 7008 682c FEFFFFEB 		bl	uart_transmit
 7009 6830 0110D5E5 		ldrb	r1, [r5, #1]	@ zero_extendqisi2
 7010 6834 0030D4E5 		ldrb	r3, [r4, #0]	@ zero_extendqisi2
 7011 6838 033081E0 		add	r3, r1, r3
 7012 683c 0030C4E5 		strb	r3, [r4, #0]
 7013 6840 AC039FE5 		ldr	r0, .L288+212
 7014 6844 FEFFFFEB 		bl	uart_transmit
 7015 6848 0210D5E5 		ldrb	r1, [r5, #2]	@ zero_extendqisi2
 7016 684c 0030D4E5 		ldrb	r3, [r4, #0]	@ zero_extendqisi2
 7017 6850 033081E0 		add	r3, r1, r3
 7018 6854 0030C4E5 		strb	r3, [r4, #0]
 7019 6858 94039FE5 		ldr	r0, .L288+212
 7020 685c FEFFFFEB 		bl	uart_transmit
 7021 6860 0310D5E5 		ldrb	r1, [r5, #3]	@ zero_extendqisi2
 7022 6864 0030D4E5 		ldrb	r3, [r4, #0]	@ zero_extendqisi2
 7023 6868 033081E0 		add	r3, r1, r3
 7024 686c 0030C4E5 		strb	r3, [r4, #0]
 7025 6870 7C039FE5 		ldr	r0, .L288+212
 7026 6874 FEFFFFEB 		bl	uart_transmit
 7027 6878 1610D5E5 		ldrb	r1, [r5, #22]	@ zero_extendqisi2
 7028 687c 0030D4E5 		ldrb	r3, [r4, #0]	@ zero_extendqisi2
 7029 6880 033081E0 		add	r3, r1, r3
 7030 6884 0030C4E5 		strb	r3, [r4, #0]
 7031 6888 64039FE5 		ldr	r0, .L288+212
 7032 688c FEFFFFEB 		bl	uart_transmit
 7033 6890 1710D5E5 		ldrb	r1, [r5, #23]	@ zero_extendqisi2
 7034 6894 0030D4E5 		ldrb	r3, [r4, #0]	@ zero_extendqisi2
 7035 6898 033081E0 		add	r3, r1, r3
 7036 689c 0030C4E5 		strb	r3, [r4, #0]
 7037 68a0 4C039FE5 		ldr	r0, .L288+212
 7038 68a4 FEFFFFEB 		bl	uart_transmit
 7039 68a8 1410D5E5 		ldrb	r1, [r5, #20]	@ zero_extendqisi2
 7040 68ac 0030D4E5 		ldrb	r3, [r4, #0]	@ zero_extendqisi2
 7041 68b0 033081E0 		add	r3, r1, r3
 7042 68b4 0030C4E5 		strb	r3, [r4, #0]
 7043 68b8 34039FE5 		ldr	r0, .L288+212
 7044 68bc FEFFFFEB 		bl	uart_transmit
 7045 68c0 1510D5E5 		ldrb	r1, [r5, #21]	@ zero_extendqisi2
 7046 68c4 0030D4E5 		ldrb	r3, [r4, #0]	@ zero_extendqisi2
 7047 68c8 033081E0 		add	r3, r1, r3
 7048 68cc 0030C4E5 		strb	r3, [r4, #0]
 7049 68d0 1C039FE5 		ldr	r0, .L288+212
 7050 68d4 FEFFFFEB 		bl	uart_transmit
 7051 68d8 1810D5E5 		ldrb	r1, [r5, #24]	@ zero_extendqisi2
 7052 68dc 0030D4E5 		ldrb	r3, [r4, #0]	@ zero_extendqisi2
 7053 68e0 033081E0 		add	r3, r1, r3
 7054 68e4 0030C4E5 		strb	r3, [r4, #0]
 7055 68e8 04039FE5 		ldr	r0, .L288+212
 7056 68ec FEFFFFEB 		bl	uart_transmit
 7057 68f0 1910D5E5 		ldrb	r1, [r5, #25]	@ zero_extendqisi2
 7058 68f4 0030D4E5 		ldrb	r3, [r4, #0]	@ zero_extendqisi2
 7059 68f8 033081E0 		add	r3, r1, r3
 7060 68fc 0030C4E5 		strb	r3, [r4, #0]
 7061 6900 EC029FE5 		ldr	r0, .L288+212
 7062 6904 FEFFFFEB 		bl	uart_transmit
 7063 6908 0010D4E5 		ldrb	r1, [r4, #0]	@ zero_extendqisi2
 7064 690c 0110E0E1 		mvn	r1, r1
 7065 6910 FF1001E2 		and	r1, r1, #255
 7066 6914 0010C4E5 		strb	r1, [r4, #0]
 7067 6918 D4029FE5 		ldr	r0, .L288+212
 7068 691c FEFFFFEB 		bl	uart_transmit
 7069 6920 030000EA 		b	.L183
 7070              	.L184:
 7071 6924 9C329FE5 		ldr	r3, .L288+168
 7072 6928 0020D3E5 		ldrb	r2, [r3, #0]	@ zero_extendqisi2
 7073 692c 012082E2 		add	r2, r2, #1
 7074 6930 0020C3E5 		strb	r2, [r3, #0]
 7075              	.L183:
 7076 6934 24329FE5 		ldr	r3, .L288+64
 7077 6938 B030D3E1 		ldrh	r3, [r3, #0]
 7078 693c 6C0053E3 		cmp	r3, #108
 7079 6940 B000001A 		bne	.L185
 7080 6944 A8029FE5 		ldr	r0, .L288+212
 7081 6948 1410A0E3 		mov	r1, #20
 7082 694c FEFFFFEB 		bl	uart_check_free_space
 7083 6950 000050E3 		cmp	r0, #0
 7084 6954 A700000A 		beq	.L186
 7085 6958 7C329FE5 		ldr	r3, .L288+188
 7086 695c B020D3E1 		ldrh	r2, [r3, #0]
 7087 6960 142082E2 		add	r2, r2, #20
 7088 6964 B020C3E1 		strh	r2, [r3, #0]	@ movhi
 7089 6968 70329FE5 		ldr	r3, .L288+192
 7090 696c B020D3E1 		ldrh	r2, [r3, #0]
 7091 6970 012082E2 		add	r2, r2, #1
 7092 6974 B020C3E1 		strh	r2, [r3, #0]	@ movhi
 7093 6978 74029FE5 		ldr	r0, .L288+212
 7094 697c 7E10A0E3 		mov	r1, #126
 7095 6980 5C429FE5 		ldr	r4, .L288+196
 7096 6984 FEFFFFEB 		bl	uart_transmit
 7097 6988 64029FE5 		ldr	r0, .L288+212
 7098 698c 0010A0E3 		mov	r1, #0
 7099 6990 FEFFFFEB 		bl	uart_transmit
 7100 6994 0150A0E3 		mov	r5, #1
 7101 6998 54029FE5 		ldr	r0, .L288+212
 7102 699c 1010A0E3 		mov	r1, #16
 7103 69a0 FEFFFFEB 		bl	uart_transmit
 7104 69a4 0050C4E5 		strb	r5, [r4, #0]
 7105 69a8 0510A0E1 		mov	r1, r5
 7106 69ac 40029FE5 		ldr	r0, .L288+212
 7107 69b0 FEFFFFEB 		bl	uart_transmit
 7108 69b4 38029FE5 		ldr	r0, .L288+212
 7109 69b8 0010A0E3 		mov	r1, #0
 7110 69bc FEFFFFEB 		bl	uart_transmit
 7111 69c0 0030D4E5 		ldrb	r3, [r4, #0]	@ zero_extendqisi2
 7112 69c4 053083E0 		add	r3, r3, r5
 7113 69c8 0030C4E5 		strb	r3, [r4, #0]
 7114 69cc 0510A0E1 		mov	r1, r5
 7115 69d0 1C029FE5 		ldr	r0, .L288+212
 7116 69d4 FEFFFFEB 		bl	uart_transmit
 7117 69d8 14029FE5 		ldr	r0, .L288+212
 7118 69dc 0010A0E3 		mov	r1, #0
 7119 69e0 FEFFFFEB 		bl	uart_transmit
 7120 69e4 08029FE5 		ldr	r0, .L288+212
 7121 69e8 0010A0E3 		mov	r1, #0
 7122 69ec FEFFFFEB 		bl	uart_transmit
 7123 69f0 0030D4E5 		ldrb	r3, [r4, #0]	@ zero_extendqisi2
 7124 69f4 023083E2 		add	r3, r3, #2
 7125 69f8 0030C4E5 		strb	r3, [r4, #0]
 7126 69fc F0019FE5 		ldr	r0, .L288+212
 7127 6a00 0210A0E3 		mov	r1, #2
 7128 6a04 FEFFFFEB 		bl	uart_transmit
 7129 6a08 0030D4E5 		ldrb	r3, [r4, #0]	@ zero_extendqisi2
 7130 6a0c 50519FE5 		ldr	r5, .L288+68
 7131 6a10 093083E2 		add	r3, r3, #9
 7132 6a14 0030C4E5 		strb	r3, [r4, #0]
 7133 6a18 D4019FE5 		ldr	r0, .L288+212
 7134 6a1c 0910A0E3 		mov	r1, #9
 7135 6a20 FEFFFFEB 		bl	uart_transmit
 7136 6a24 0010D5E5 		ldrb	r1, [r5, #0]	@ zero_extendqisi2
 7137 6a28 0030D4E5 		ldrb	r3, [r4, #0]	@ zero_extendqisi2
 7138 6a2c 033081E0 		add	r3, r1, r3
 7139 6a30 0030C4E5 		strb	r3, [r4, #0]
 7140 6a34 B8019FE5 		ldr	r0, .L288+212
 7141 6a38 FEFFFFEB 		bl	uart_transmit
 7142 6a3c 0110D5E5 		ldrb	r1, [r5, #1]	@ zero_extendqisi2
 7143 6a40 0030D4E5 		ldrb	r3, [r4, #0]	@ zero_extendqisi2
 7144 6a44 033081E0 		add	r3, r1, r3
 7145 6a48 0030C4E5 		strb	r3, [r4, #0]
 7146 6a4c A0019FE5 		ldr	r0, .L288+212
 7147 6a50 FEFFFFEB 		bl	uart_transmit
 7148 6a54 0210D5E5 		ldrb	r1, [r5, #2]	@ zero_extendqisi2
 7149 6a58 0030D4E5 		ldrb	r3, [r4, #0]	@ zero_extendqisi2
 7150 6a5c 033081E0 		add	r3, r1, r3
 7151 6a60 0030C4E5 		strb	r3, [r4, #0]
 7152 6a64 88019FE5 		ldr	r0, .L288+212
 7153 6a68 FEFFFFEB 		bl	uart_transmit
 7154 6a6c 0310D5E5 		ldrb	r1, [r5, #3]	@ zero_extendqisi2
 7155 6a70 0030D4E5 		ldrb	r3, [r4, #0]	@ zero_extendqisi2
 7156 6a74 EC509FE5 		ldr	r5, .L288+72
 7157 6a78 033081E0 		add	r3, r1, r3
 7158 6a7c 0030C4E5 		strb	r3, [r4, #0]
 7159 6a80 6C019FE5 		ldr	r0, .L288+212
 7160 6a84 FEFFFFEB 		bl	uart_transmit
 7161 6a88 0010D5E5 		ldrb	r1, [r5, #0]	@ zero_extendqisi2
 7162 6a8c 0030D4E5 		ldrb	r3, [r4, #0]	@ zero_extendqisi2
 7163 6a90 033081E0 		add	r3, r1, r3
 7164 6a94 0030C4E5 		strb	r3, [r4, #0]
 7165 6a98 54019FE5 		ldr	r0, .L288+212
 7166 6a9c FEFFFFEB 		bl	uart_transmit
 7167 6aa0 0110D5E5 		ldrb	r1, [r5, #1]	@ zero_extendqisi2
 7168 6aa4 0030D4E5 		ldrb	r3, [r4, #0]	@ zero_extendqisi2
 7169 6aa8 033081E0 		add	r3, r1, r3
 7170 6aac 0030C4E5 		strb	r3, [r4, #0]
 7171 6ab0 3C019FE5 		ldr	r0, .L288+212
 7172 6ab4 FEFFFFEB 		bl	uart_transmit
 7173 6ab8 0210D5E5 		ldrb	r1, [r5, #2]	@ zero_extendqisi2
 7174 6abc 0030D4E5 		ldrb	r3, [r4, #0]	@ zero_extendqisi2
 7175 6ac0 033081E0 		add	r3, r1, r3
 7176 6ac4 0030C4E5 		strb	r3, [r4, #0]
 7177 6ac8 24019FE5 		ldr	r0, .L288+212
 7178 6acc FEFFFFEB 		bl	uart_transmit
 7179 6ad0 0310D5E5 		ldrb	r1, [r5, #3]	@ zero_extendqisi2
 7180 6ad4 0030D4E5 		ldrb	r3, [r4, #0]	@ zero_extendqisi2
 7181 6ad8 033081E0 		add	r3, r1, r3
 7182 6adc 0030C4E5 		strb	r3, [r4, #0]
 7183 6ae0 0C019FE5 		ldr	r0, .L288+212
 7184 6ae4 FEFFFFEB 		bl	uart_transmit
 7185 6ae8 7C309FE5 		ldr	r3, .L288+76
 7186 6aec 0010D3E5 		ldrb	r1, [r3, #0]	@ zero_extendqisi2
 7187 6af0 0030D4E5 		ldrb	r3, [r4, #0]	@ zero_extendqisi2
 7188 6af4 033081E0 		add	r3, r1, r3
 7189 6af8 0030C4E5 		strb	r3, [r4, #0]
 7190 6afc F0009FE5 		ldr	r0, .L288+212
 7191 6b00 FEFFFFEB 		bl	uart_transmit
 7192 6b04 0010D4E5 		ldrb	r1, [r4, #0]	@ zero_extendqisi2
 7193 6b08 0110E0E1 		mvn	r1, r1
 7194 6b0c FF1001E2 		and	r1, r1, #255
 7195 6b10 0010C4E5 		strb	r1, [r4, #0]
 7196 6b14 D8009FE5 		ldr	r0, .L288+212
 7197 6b18 FEFFFFEB 		bl	uart_transmit
 7198 6b1c 390000EA 		b	.L185
 7199              	.L289:
 7200              		.align	2
 7201              	.L288:
 7202 6b20 00000000 		.word	v_ctl_altitude_setpoint
 7203 6b24 00000000 		.word	v_ctl_climb_setpoint
 7204 6b28 00000000 		.word	.LANCHOR37
 7205 6b2c 00000000 		.word	.LANCHOR21
 7206 6b30 00000000 		.word	v_ctl_mode
 7207 6b34 00000000 		.word	.LANCHOR23
 7208 6b38 00000000 		.word	horizontal_mode
 7209 6b3c 00000000 		.word	.LANCHOR24
 7210 6b40 00000000 		.word	infrared
 7211 6b44 00000000 		.word	.LANCHOR38
 7212 6b48 00000000 		.word	v_ctl_auto_throttle_sum_err
 7213 6b4c 00000000 		.word	v_ctl_auto_throttle_submode
 7214 6b50 00000000 		.word	.LANCHOR45
 7215 6b54 66666666 		.word	1717986918
 7216 6b58 66661440 		.word	1075078758
 7217 6b5c 00000000 		.word	.LANCHOR39
 7218 6b60 00000000 		.word	.LANCHOR40
 7219 6b64 00000000 		.word	nav_utm_east0
 7220 6b68 00000000 		.word	nav_utm_north0
 7221 6b6c 00000000 		.word	nav_utm_zone0
 7222 6b70 00000000 		.word	.LANCHOR41
 7223 6b74 00000000 		.word	imu
 7224 6b78 00000000 		.word	telemetry_mode_Ap
 7225 6b7c 31010000 		.word	305
 7226 6b80 3D010000 		.word	317
 7227 6b84 00000000 		.word	.LANCHOR50
 7228 6b88 49010000 		.word	329
 7229 6b8c 00000000 		.word	.LANCHOR51
 7230 6b90 55010000 		.word	341
 7231 6b94 00000000 		.word	.LANCHOR52
 7232 6b98 00000000 		.word	.LANCHOR53
 7233 6b9c 5D020000 		.word	605
 7234 6ba0 00000000 		.word	.LANCHOR54
 7235 6ba4 00000000 		.word	.LANCHOR46
 7236 6ba8 00000000 		.word	.LC0
 7237 6bac 00000000 		.word	.LANCHOR47
 7238 6bb0 F8C1631A 		.word	442745336
 7239 6bb4 DCA54C40 		.word	1078765020
 7240 6bb8 80842E41 		.word	1093567616
 7241 6bbc 00000000 		.word	gps
 7242 6bc0 00000000 		.word	.LANCHOR55
 7243 6bc4 00000000 		.word	.LANCHOR48
 7244 6bc8 00000000 		.word	downlink_nb_ovrn
 7245 6bcc 00000000 		.word	.LANCHOR49
 7246 6bd0 00000000 		.word	nav_circle_radians
 7247 6bd4 182D4454 		.word	1413754136
 7248 6bd8 FB211940 		.word	1075388923
 7249 6bdc 00000000 		.word	downlink_nb_bytes
 7250 6be0 00000000 		.word	downlink_nb_msgs
 7251 6be4 00000000 		.word	xbee_cs
 7252 6be8 00000000 		.word	nav_block
 7253 6bec 00000000 		.word	nav_stage
 7254 6bf0 00000000 		.word	dist2_to_wp
 7255 6bf4 00000000 		.word	uart0
 7256              	.L186:
 7257 6bf8 38301FE5 		ldr	r3, .L288+168
 7258 6bfc 0020D3E5 		ldrb	r2, [r3, #0]	@ zero_extendqisi2
 7259 6c00 012082E2 		add	r2, r2, #1
 7260 6c04 0020C3E5 		strb	r2, [r3, #0]
 7261              	.L185:
 7262 6c08 A0301FE5 		ldr	r3, .L288+80
 7263 6c0c B030D3E1 		ldrh	r3, [r3, #0]
 7264 6c10 720053E3 		cmp	r3, #114
 7265 6c14 9900001A 		bne	.L106
 7266 6c18 AC401FE5 		ldr	r4, .L288+84
 7267 6c1c 000094E5 		ldr	r0, [r4, #0]
 7268 6c20 FEFFFFEB 		bl	__aeabi_i2f
 7269 6c24 E615A0E3 		mov	r1, #964689920
 7270 6c28 FEFFFFEB 		bl	__aeabi_fmul
 7271 6c2c 04008DE5 		str	r0, [sp, #4]	@ float
 7272 6c30 040094E5 		ldr	r0, [r4, #4]
 7273 6c34 FEFFFFEB 		bl	__aeabi_i2f
 7274 6c38 E615A0E3 		mov	r1, #964689920
 7275 6c3c FEFFFFEB 		bl	__aeabi_fmul
 7276 6c40 08008DE5 		str	r0, [sp, #8]	@ float
 7277 6c44 080094E5 		ldr	r0, [r4, #8]
 7278 6c48 FEFFFFEB 		bl	__aeabi_i2f
 7279 6c4c E615A0E3 		mov	r1, #964689920
 7280 6c50 FEFFFFEB 		bl	__aeabi_fmul
 7281 6c54 1710A0E3 		mov	r1, #23
 7282 6c58 0C008DE5 		str	r0, [sp, #12]	@ float
 7283 6c5c 70001FE5 		ldr	r0, .L288+212
 7284 6c60 FEFFFFEB 		bl	uart_check_free_space
 7285 6c64 000050E3 		cmp	r0, #0
 7286 6c68 8000000A 		beq	.L187
 7287 6c6c 98301FE5 		ldr	r3, .L288+188
 7288 6c70 B020D3E1 		ldrh	r2, [r3, #0]
 7289 6c74 172082E2 		add	r2, r2, #23
 7290 6c78 B020C3E1 		strh	r2, [r3, #0]	@ movhi
 7291 6c7c A4301FE5 		ldr	r3, .L288+192
 7292 6c80 B020D3E1 		ldrh	r2, [r3, #0]
 7293 6c84 012082E2 		add	r2, r2, #1
 7294 6c88 B020C3E1 		strh	r2, [r3, #0]	@ movhi
 7295 6c8c A0001FE5 		ldr	r0, .L288+212
 7296 6c90 7E10A0E3 		mov	r1, #126
 7297 6c94 B8401FE5 		ldr	r4, .L288+196
 7298 6c98 FEFFFFEB 		bl	uart_transmit
 7299 6c9c B0001FE5 		ldr	r0, .L288+212
 7300 6ca0 0010A0E3 		mov	r1, #0
 7301 6ca4 FEFFFFEB 		bl	uart_transmit
 7302 6ca8 0150A0E3 		mov	r5, #1
 7303 6cac C0001FE5 		ldr	r0, .L288+212
 7304 6cb0 1310A0E3 		mov	r1, #19
 7305 6cb4 FEFFFFEB 		bl	uart_transmit
 7306 6cb8 0510A0E1 		mov	r1, r5
 7307 6cbc 0050C4E5 		strb	r5, [r4, #0]
 7308 6cc0 D4001FE5 		ldr	r0, .L288+212
 7309 6cc4 FEFFFFEB 		bl	uart_transmit
 7310 6cc8 DC001FE5 		ldr	r0, .L288+212
 7311 6ccc 0010A0E3 		mov	r1, #0
 7312 6cd0 FEFFFFEB 		bl	uart_transmit
 7313 6cd4 0030D4E5 		ldrb	r3, [r4, #0]	@ zero_extendqisi2
 7314 6cd8 053083E0 		add	r3, r3, r5
 7315 6cdc 0030C4E5 		strb	r3, [r4, #0]
 7316 6ce0 0510A0E1 		mov	r1, r5
 7317 6ce4 F8001FE5 		ldr	r0, .L288+212
 7318 6ce8 FEFFFFEB 		bl	uart_transmit
 7319 6cec 00011FE5 		ldr	r0, .L288+212
 7320 6cf0 0010A0E3 		mov	r1, #0
 7321 6cf4 FEFFFFEB 		bl	uart_transmit
 7322 6cf8 0C011FE5 		ldr	r0, .L288+212
 7323 6cfc 0010A0E3 		mov	r1, #0
 7324 6d00 FEFFFFEB 		bl	uart_transmit
 7325 6d04 0030D4E5 		ldrb	r3, [r4, #0]	@ zero_extendqisi2
 7326 6d08 023083E2 		add	r3, r3, #2
 7327 6d0c 0030C4E5 		strb	r3, [r4, #0]
 7328 6d10 24011FE5 		ldr	r0, .L288+212
 7329 6d14 0210A0E3 		mov	r1, #2
 7330 6d18 FEFFFFEB 		bl	uart_transmit
 7331 6d1c 0030D4E5 		ldrb	r3, [r4, #0]	@ zero_extendqisi2
 7332 6d20 383043E2 		sub	r3, r3, #56
 7333 6d24 0030C4E5 		strb	r3, [r4, #0]
 7334 6d28 3C011FE5 		ldr	r0, .L288+212
 7335 6d2c C810A0E3 		mov	r1, #200
 7336 6d30 FEFFFFEB 		bl	uart_transmit
 7337 6d34 0410DDE5 		ldrb	r1, [sp, #4]	@ zero_extendqisi2
 7338 6d38 0030D4E5 		ldrb	r3, [r4, #0]	@ zero_extendqisi2
 7339 6d3c 033081E0 		add	r3, r1, r3
 7340 6d40 0030C4E5 		strb	r3, [r4, #0]
 7341 6d44 58011FE5 		ldr	r0, .L288+212
 7342 6d48 FEFFFFEB 		bl	uart_transmit
 7343 6d4c 0510DDE5 		ldrb	r1, [sp, #5]	@ zero_extendqisi2
 7344 6d50 0030D4E5 		ldrb	r3, [r4, #0]	@ zero_extendqisi2
 7345 6d54 033081E0 		add	r3, r1, r3
 7346 6d58 0030C4E5 		strb	r3, [r4, #0]
 7347 6d5c 70011FE5 		ldr	r0, .L288+212
 7348 6d60 FEFFFFEB 		bl	uart_transmit
 7349 6d64 0610DDE5 		ldrb	r1, [sp, #6]	@ zero_extendqisi2
 7350 6d68 0030D4E5 		ldrb	r3, [r4, #0]	@ zero_extendqisi2
 7351 6d6c 033081E0 		add	r3, r1, r3
 7352 6d70 0030C4E5 		strb	r3, [r4, #0]
 7353 6d74 88011FE5 		ldr	r0, .L288+212
 7354 6d78 FEFFFFEB 		bl	uart_transmit
 7355 6d7c 0710DDE5 		ldrb	r1, [sp, #7]	@ zero_extendqisi2
 7356 6d80 0030D4E5 		ldrb	r3, [r4, #0]	@ zero_extendqisi2
 7357 6d84 033081E0 		add	r3, r1, r3
 7358 6d88 0030C4E5 		strb	r3, [r4, #0]
 7359 6d8c A0011FE5 		ldr	r0, .L288+212
 7360 6d90 FEFFFFEB 		bl	uart_transmit
 7361 6d94 0810DDE5 		ldrb	r1, [sp, #8]	@ zero_extendqisi2
 7362 6d98 0030D4E5 		ldrb	r3, [r4, #0]	@ zero_extendqisi2
 7363 6d9c 033081E0 		add	r3, r1, r3
 7364 6da0 0030C4E5 		strb	r3, [r4, #0]
 7365 6da4 B8011FE5 		ldr	r0, .L288+212
 7366 6da8 FEFFFFEB 		bl	uart_transmit
 7367 6dac 0910DDE5 		ldrb	r1, [sp, #9]	@ zero_extendqisi2
 7368 6db0 0030D4E5 		ldrb	r3, [r4, #0]	@ zero_extendqisi2
 7369 6db4 033081E0 		add	r3, r1, r3
 7370 6db8 0030C4E5 		strb	r3, [r4, #0]
 7371 6dbc D0011FE5 		ldr	r0, .L288+212
 7372 6dc0 FEFFFFEB 		bl	uart_transmit
 7373 6dc4 0A10DDE5 		ldrb	r1, [sp, #10]	@ zero_extendqisi2
 7374 6dc8 0030D4E5 		ldrb	r3, [r4, #0]	@ zero_extendqisi2
 7375 6dcc 033081E0 		add	r3, r1, r3
 7376 6dd0 0030C4E5 		strb	r3, [r4, #0]
 7377 6dd4 E8011FE5 		ldr	r0, .L288+212
 7378 6dd8 FEFFFFEB 		bl	uart_transmit
 7379 6ddc 0B10DDE5 		ldrb	r1, [sp, #11]	@ zero_extendqisi2
 7380 6de0 0030D4E5 		ldrb	r3, [r4, #0]	@ zero_extendqisi2
 7381 6de4 033081E0 		add	r3, r1, r3
 7382 6de8 0030C4E5 		strb	r3, [r4, #0]
 7383 6dec 00021FE5 		ldr	r0, .L288+212
 7384 6df0 FEFFFFEB 		bl	uart_transmit
 7385 6df4 0C10DDE5 		ldrb	r1, [sp, #12]	@ zero_extendqisi2
 7386 6df8 0030D4E5 		ldrb	r3, [r4, #0]	@ zero_extendqisi2
 7387 6dfc 033081E0 		add	r3, r1, r3
 7388 6e00 0030C4E5 		strb	r3, [r4, #0]
 7389 6e04 18021FE5 		ldr	r0, .L288+212
 7390 6e08 FEFFFFEB 		bl	uart_transmit
 7391 6e0c 0D10DDE5 		ldrb	r1, [sp, #13]	@ zero_extendqisi2
 7392 6e10 0030D4E5 		ldrb	r3, [r4, #0]	@ zero_extendqisi2
 7393 6e14 033081E0 		add	r3, r1, r3
 7394 6e18 0030C4E5 		strb	r3, [r4, #0]
 7395 6e1c 30021FE5 		ldr	r0, .L288+212
 7396 6e20 FEFFFFEB 		bl	uart_transmit
 7397 6e24 0E10DDE5 		ldrb	r1, [sp, #14]	@ zero_extendqisi2
 7398 6e28 0030D4E5 		ldrb	r3, [r4, #0]	@ zero_extendqisi2
 7399 6e2c 033081E0 		add	r3, r1, r3
 7400 6e30 0030C4E5 		strb	r3, [r4, #0]
 7401 6e34 48021FE5 		ldr	r0, .L288+212
 7402 6e38 FEFFFFEB 		bl	uart_transmit
 7403 6e3c 0F10DDE5 		ldrb	r1, [sp, #15]	@ zero_extendqisi2
 7404 6e40 0030D4E5 		ldrb	r3, [r4, #0]	@ zero_extendqisi2
 7405 6e44 033081E0 		add	r3, r1, r3
 7406 6e48 0030C4E5 		strb	r3, [r4, #0]
 7407 6e4c 60021FE5 		ldr	r0, .L288+212
 7408 6e50 FEFFFFEB 		bl	uart_transmit
 7409 6e54 0010D4E5 		ldrb	r1, [r4, #0]	@ zero_extendqisi2
 7410 6e58 0110E0E1 		mvn	r1, r1
 7411 6e5c FF1001E2 		and	r1, r1, #255
 7412 6e60 0010C4E5 		strb	r1, [r4, #0]
 7413 6e64 78021FE5 		ldr	r0, .L288+212
 7414 6e68 FEFFFFEB 		bl	uart_transmit
 7415 6e6c 030000EA 		b	.L106
 7416              	.L187:
 7417 6e70 B0321FE5 		ldr	r3, .L288+168
 7418 6e74 0020D3E5 		ldrb	r2, [r3, #0]	@ zero_extendqisi2
 7419 6e78 012082E2 		add	r2, r2, #1
 7420 6e7c 0020C3E5 		strb	r2, [r3, #0]
 7421              	.L106:
 7422 6e80 10331FE5 		ldr	r3, .L288+88
 7423 6e84 0030D3E5 		ldrb	r3, [r3, #0]	@ zero_extendqisi2
 7424 6e88 020053E3 		cmp	r3, #2
 7425 6e8c 8B06001A 		bne	.L188
 7426 6e90 F4321FE5 		ldr	r3, .L288+132
 7427 6e94 B020D3E1 		ldrh	r2, [r3, #0]
 7428 6e98 012082E2 		add	r2, r2, #1
 7429 6e9c 0228A0E1 		mov	r2, r2, asl #16
 7430 6ea0 2228A0E1 		mov	r2, r2, lsr #16
 7431 6ea4 4B0F52E3 		cmp	r2, #300
 7432 6ea8 B020C3E1 		strh	r2, [r3, #0]	@ movhi
 7433 6eac 0020A023 		movcs	r2, #0
 7434 6eb0 B020C321 		strcsh	r2, [r3, #0]	@ movhi
 7435 6eb4 10331FE5 		ldr	r3, .L288+140
 7436 6eb8 B020D3E1 		ldrh	r2, [r3, #0]
 7437 6ebc 012082E2 		add	r2, r2, #1
 7438 6ec0 4C131FE5 		ldr	r1, .L288+92
 7439 6ec4 0228A0E1 		mov	r2, r2, asl #16
 7440 6ec8 2228A0E1 		mov	r2, r2, lsr #16
 7441 6ecc 010052E1 		cmp	r2, r1
 7442 6ed0 B020C3E1 		strh	r2, [r3, #0]	@ movhi
 7443 6ed4 0020A083 		movhi	r2, #0
 7444 6ed8 B020C381 		strhih	r2, [r3, #0]	@ movhi
 7445 6edc 20331FE5 		ldr	r3, .L288+164
 7446 6ee0 B020D3E1 		ldrh	r2, [r3, #0]
 7447 6ee4 012082E2 		add	r2, r2, #1
 7448 6ee8 70131FE5 		ldr	r1, .L288+96
 7449 6eec 0228A0E1 		mov	r2, r2, asl #16
 7450 6ef0 2228A0E1 		mov	r2, r2, lsr #16
 7451 6ef4 010052E1 		cmp	r2, r1
 7452 6ef8 B020C3E1 		strh	r2, [r3, #0]	@ movhi
 7453 6efc 0020A083 		movhi	r2, #0
 7454 6f00 B020C381 		strhih	r2, [r3, #0]	@ movhi
 7455 6f04 40331FE5 		ldr	r3, .L288+172
 7456 6f08 B020D3E1 		ldrh	r2, [r3, #0]
 7457 6f0c 012082E2 		add	r2, r2, #1
 7458 6f10 0228A0E1 		mov	r2, r2, asl #16
 7459 6f14 2228A0E1 		mov	r2, r2, lsr #16
 7460 6f18 510F52E3 		cmp	r2, #324
 7461 6f1c B020C3E1 		strh	r2, [r3, #0]	@ movhi
 7462 6f20 0020A023 		movcs	r2, #0
 7463 6f24 B020C321 		strcsh	r2, [r3, #0]	@ movhi
 7464 6f28 AC331FE5 		ldr	r3, .L288+100
 7465 6f2c B020D3E1 		ldrh	r2, [r3, #0]
 7466 6f30 012082E2 		add	r2, r2, #1
 7467 6f34 B4131FE5 		ldr	r1, .L288+104
 7468 6f38 0228A0E1 		mov	r2, r2, asl #16
 7469 6f3c 2228A0E1 		mov	r2, r2, lsr #16
 7470 6f40 010052E1 		cmp	r2, r1
 7471 6f44 B020C3E1 		strh	r2, [r3, #0]	@ movhi
 7472 6f48 0020A083 		movhi	r2, #0
 7473 6f4c B020C381 		strhih	r2, [r3, #0]	@ movhi
 7474 6f50 CC331FE5 		ldr	r3, .L288+108
 7475 6f54 B020D3E1 		ldrh	r2, [r3, #0]
 7476 6f58 012082E2 		add	r2, r2, #1
 7477 6f5c D4131FE5 		ldr	r1, .L288+112
 7478 6f60 0228A0E1 		mov	r2, r2, asl #16
 7479 6f64 2228A0E1 		mov	r2, r2, lsr #16
 7480 6f68 010052E1 		cmp	r2, r1
 7481 6f6c B020C3E1 		strh	r2, [r3, #0]	@ movhi
 7482 6f70 0020A083 		movhi	r2, #0
 7483 6f74 B020C381 		strhih	r2, [r3, #0]	@ movhi
 7484 6f78 EC331FE5 		ldr	r3, .L288+116
 7485 6f7c B020D3E1 		ldrh	r2, [r3, #0]
 7486 6f80 012082E2 		add	r2, r2, #1
 7487 6f84 0228A0E1 		mov	r2, r2, asl #16
 7488 6f88 2228A0E1 		mov	r2, r2, lsr #16
 7489 6f8c 690F52E3 		cmp	r2, #420
 7490 6f90 B020C3E1 		strh	r2, [r3, #0]	@ movhi
 7491 6f94 0020A023 		movcs	r2, #0
 7492 6f98 B020C321 		strcsh	r2, [r3, #0]	@ movhi
 7493 6f9c 0C341FE5 		ldr	r3, .L288+120
 7494 6fa0 B020D3E1 		ldrh	r2, [r3, #0]
 7495 6fa4 012082E2 		add	r2, r2, #1
 7496 6fa8 0228A0E1 		mov	r2, r2, asl #16
 7497 6fac 18141FE5 		ldr	r1, .L288+124
 7498 6fb0 2228A0E1 		mov	r2, r2, lsr #16
 7499 6fb4 010052E1 		cmp	r2, r1
 7500 6fb8 B020C3E1 		strh	r2, [r3, #0]	@ movhi
 7501 6fbc 0020A083 		movhi	r2, #0
 7502 6fc0 B020C381 		strhih	r2, [r3, #0]	@ movhi
 7503 6fc4 2C341FE5 		ldr	r3, .L288+128
 7504 6fc8 B020D3E1 		ldrh	r2, [r3, #0]
 7505 6fcc 012082E2 		add	r2, r2, #1
 7506 6fd0 0228A0E1 		mov	r2, r2, asl #16
 7507 6fd4 2228A0E1 		mov	r2, r2, lsr #16
 7508 6fd8 990F52E3 		cmp	r2, #612
 7509 6fdc B020C3E1 		strh	r2, [r3, #0]	@ movhi
 7510 6fe0 0020A023 		movcs	r2, #0
 7511 6fe4 B020C321 		strcsh	r2, [r3, #0]	@ movhi
 7512 6fe8 4C341FE5 		ldr	r3, .L288+132
 7513 6fec B050D3E1 		ldrh	r5, [r3, #0]
 7514 6ff0 000055E3 		cmp	r5, #0
 7515 6ff4 5200001A 		bne	.L198
 7516 6ff8 0C041FE5 		ldr	r0, .L288+212
 7517 6ffc 1C10A0E3 		mov	r1, #28
 7518 7000 FEFFFFEB 		bl	uart_check_free_space
 7519 7004 000050E3 		cmp	r0, #0
 7520 7008 4900000A 		beq	.L199
 7521 700c 38341FE5 		ldr	r3, .L288+188
 7522 7010 B020D3E1 		ldrh	r2, [r3, #0]
 7523 7014 1C2082E2 		add	r2, r2, #28
 7524 7018 B020C3E1 		strh	r2, [r3, #0]	@ movhi
 7525 701c 44341FE5 		ldr	r3, .L288+192
 7526 7020 B020D3E1 		ldrh	r2, [r3, #0]
 7527 7024 012082E2 		add	r2, r2, #1
 7528 7028 B020C3E1 		strh	r2, [r3, #0]	@ movhi
 7529 702c 40041FE5 		ldr	r0, .L288+212
 7530 7030 7E10A0E3 		mov	r1, #126
 7531 7034 58441FE5 		ldr	r4, .L288+196
 7532 7038 FEFFFFEB 		bl	uart_transmit
 7533 703c 50041FE5 		ldr	r0, .L288+212
 7534 7040 0510A0E1 		mov	r1, r5
 7535 7044 FEFFFFEB 		bl	uart_transmit
 7536 7048 0160A0E3 		mov	r6, #1
 7537 704c 60041FE5 		ldr	r0, .L288+212
 7538 7050 1810A0E3 		mov	r1, #24
 7539 7054 FEFFFFEB 		bl	uart_transmit
 7540 7058 6C041FE5 		ldr	r0, .L288+212
 7541 705c 0610A0E1 		mov	r1, r6
 7542 7060 0060C4E5 		strb	r6, [r4, #0]
 7543 7064 FEFFFFEB 		bl	uart_transmit
 7544 7068 7C041FE5 		ldr	r0, .L288+212
 7545 706c 0510A0E1 		mov	r1, r5
 7546 7070 FEFFFFEB 		bl	uart_transmit
 7547 7074 0030D4E5 		ldrb	r3, [r4, #0]	@ zero_extendqisi2
 7548 7078 063083E0 		add	r3, r3, r6
 7549 707c 0030C4E5 		strb	r3, [r4, #0]
 7550 7080 94041FE5 		ldr	r0, .L288+212
 7551 7084 0610A0E1 		mov	r1, r6
 7552 7088 FEFFFFEB 		bl	uart_transmit
 7553 708c A0041FE5 		ldr	r0, .L288+212
 7554 7090 0510A0E1 		mov	r1, r5
 7555 7094 FEFFFFEB 		bl	uart_transmit
 7556 7098 AC041FE5 		ldr	r0, .L288+212
 7557 709c 0510A0E1 		mov	r1, r5
 7558 70a0 FEFFFFEB 		bl	uart_transmit
 7559 70a4 0030D4E5 		ldrb	r3, [r4, #0]	@ zero_extendqisi2
 7560 70a8 023083E2 		add	r3, r3, #2
 7561 70ac 0030C4E5 		strb	r3, [r4, #0]
 7562 70b0 C4041FE5 		ldr	r0, .L288+212
 7563 70b4 0210A0E3 		mov	r1, #2
 7564 70b8 FEFFFFEB 		bl	uart_transmit
 7565 70bc 0030D4E5 		ldrb	r3, [r4, #0]	@ zero_extendqisi2
 7566 70c0 023083E2 		add	r3, r3, #2
 7567 70c4 0030C4E5 		strb	r3, [r4, #0]
 7568 70c8 DC041FE5 		ldr	r0, .L288+212
 7569 70cc 0210A0E3 		mov	r1, #2
 7570 70d0 FEFFFFEB 		bl	uart_transmit
 7571 70d4 0030D4E5 		ldrb	r3, [r4, #0]	@ zero_extendqisi2
 7572 70d8 103083E2 		add	r3, r3, #16
 7573 70dc 0030C4E5 		strb	r3, [r4, #0]
 7574 70e0 F4041FE5 		ldr	r0, .L288+212
 7575 70e4 1010A0E3 		mov	r1, #16
 7576 70e8 FEFFFFEB 		bl	uart_transmit
 7577 70ec 4C751FE5 		ldr	r7, .L288+136
 7578              	.L200:
 7579 70f0 0510D7E7 		ldrb	r1, [r7, r5]	@ zero_extendqisi2
 7580 70f4 0030D4E5 		ldrb	r3, [r4, #0]	@ zero_extendqisi2
 7581 70f8 033081E0 		add	r3, r1, r3
 7582 70fc 0030C4E5 		strb	r3, [r4, #0]
 7583 7100 14051FE5 		ldr	r0, .L288+212
 7584 7104 015085E2 		add	r5, r5, #1
 7585 7108 FEFFFFEB 		bl	uart_transmit
 7586 710c 100055E3 		cmp	r5, #16
 7587 7110 34651FE5 		ldr	r6, .L288+196
 7588 7114 F5FFFF1A 		bne	.L200
 7589 7118 0010D6E5 		ldrb	r1, [r6, #0]	@ zero_extendqisi2
 7590 711c 0110E0E1 		mvn	r1, r1
 7591 7120 FF1001E2 		and	r1, r1, #255
 7592 7124 0010C6E5 		strb	r1, [r6, #0]
 7593 7128 3C051FE5 		ldr	r0, .L288+212
 7594 712c FEFFFFEB 		bl	uart_transmit
 7595 7130 030000EA 		b	.L198
 7596              	.L199:
 7597 7134 74351FE5 		ldr	r3, .L288+168
 7598 7138 0020D3E5 		ldrb	r2, [r3, #0]	@ zero_extendqisi2
 7599 713c 012082E2 		add	r2, r2, #1
 7600 7140 0020C3E5 		strb	r2, [r3, #0]
 7601              	.L198:
 7602 7144 A0351FE5 		ldr	r3, .L288+140
 7603 7148 B030D3E1 		ldrh	r3, [r3, #0]
 7604 714c 060053E3 		cmp	r3, #6
 7605 7150 9001001A 		bne	.L201
 7606 7154 A0451FE5 		ldr	r4, .L288+156
 7607 7158 403094E5 		ldr	r3, [r4, #64]
 7608 715c 480094E5 		ldr	r0, [r4, #72]
 7609 7160 003063E2 		rsb	r3, r3, #0
 7610 7164 BC31CDE1 		strh	r3, [sp, #28]	@ movhi
 7611 7168 FEFFFFEB 		bl	__aeabi_i2d
 7612 716c C4251FE5 		ldr	r2, .L288+144
 7613 7170 C4351FE5 		ldr	r3, .L288+148
 7614 7174 FEFFFFEB 		bl	__aeabi_dmul
 7615 7178 0020A0E3 		mov	r2, #0
 7616 717c CC351FE5 		ldr	r3, .L288+152
 7617 7180 FEFFFFEB 		bl	__aeabi_ddiv
 7618 7184 FEFFFFEB 		bl	__aeabi_d2iz
 7619 7188 2610A0E3 		mov	r1, #38
 7620 718c BE01CDE1 		strh	r0, [sp, #30]	@ movhi
 7621 7190 A4051FE5 		ldr	r0, .L288+212
 7622 7194 FEFFFFEB 		bl	uart_check_free_space
 7623 7198 000050E3 		cmp	r0, #0
 7624 719c DB00000A 		beq	.L202
 7625 71a0 CC351FE5 		ldr	r3, .L288+188
 7626 71a4 B020D3E1 		ldrh	r2, [r3, #0]
 7627 71a8 262082E2 		add	r2, r2, #38
 7628 71ac B020C3E1 		strh	r2, [r3, #0]	@ movhi
 7629 71b0 D8351FE5 		ldr	r3, .L288+192
 7630 71b4 B020D3E1 		ldrh	r2, [r3, #0]
 7631 71b8 012082E2 		add	r2, r2, #1
 7632 71bc B020C3E1 		strh	r2, [r3, #0]	@ movhi
 7633 71c0 D4051FE5 		ldr	r0, .L288+212
 7634 71c4 7E10A0E3 		mov	r1, #126
 7635 71c8 EC551FE5 		ldr	r5, .L288+196
 7636 71cc FEFFFFEB 		bl	uart_transmit
 7637 71d0 E4051FE5 		ldr	r0, .L288+212
 7638 71d4 0010A0E3 		mov	r1, #0
 7639 71d8 FEFFFFEB 		bl	uart_transmit
 7640 71dc 0160A0E3 		mov	r6, #1
 7641 71e0 F4051FE5 		ldr	r0, .L288+212
 7642 71e4 2210A0E3 		mov	r1, #34
 7643 71e8 FEFFFFEB 		bl	uart_transmit
 7644 71ec 0610A0E1 		mov	r1, r6
 7645 71f0 0060C5E5 		strb	r6, [r5, #0]
 7646 71f4 08061FE5 		ldr	r0, .L288+212
 7647 71f8 FEFFFFEB 		bl	uart_transmit
 7648 71fc 10061FE5 		ldr	r0, .L288+212
 7649 7200 0010A0E3 		mov	r1, #0
 7650 7204 FEFFFFEB 		bl	uart_transmit
 7651 7208 0030D5E5 		ldrb	r3, [r5, #0]	@ zero_extendqisi2
 7652 720c 063083E0 		add	r3, r3, r6
 7653 7210 0030C5E5 		strb	r3, [r5, #0]
 7654 7214 0610A0E1 		mov	r1, r6
 7655 7218 2C061FE5 		ldr	r0, .L288+212
 7656 721c FEFFFFEB 		bl	uart_transmit
 7657 7220 34061FE5 		ldr	r0, .L288+212
 7658 7224 0010A0E3 		mov	r1, #0
 7659 7228 FEFFFFEB 		bl	uart_transmit
 7660 722c 40061FE5 		ldr	r0, .L288+212
 7661 7230 0010A0E3 		mov	r1, #0
 7662 7234 FEFFFFEB 		bl	uart_transmit
 7663 7238 0030D5E5 		ldrb	r3, [r5, #0]	@ zero_extendqisi2
 7664 723c 023083E2 		add	r3, r3, #2
 7665 7240 0030C5E5 		strb	r3, [r5, #0]
 7666 7244 58061FE5 		ldr	r0, .L288+212
 7667 7248 0210A0E3 		mov	r1, #2
 7668 724c FEFFFFEB 		bl	uart_transmit
 7669 7250 0030D5E5 		ldrb	r3, [r5, #0]	@ zero_extendqisi2
 7670 7254 083083E2 		add	r3, r3, #8
 7671 7258 0030C5E5 		strb	r3, [r5, #0]
 7672 725c 70061FE5 		ldr	r0, .L288+212
 7673 7260 0810A0E3 		mov	r1, #8
 7674 7264 FEFFFFEB 		bl	uart_transmit
 7675 7268 5B10D4E5 		ldrb	r1, [r4, #91]	@ zero_extendqisi2
 7676 726c 0030D5E5 		ldrb	r3, [r5, #0]	@ zero_extendqisi2
 7677 7270 033081E0 		add	r3, r1, r3
 7678 7274 0030C5E5 		strb	r3, [r5, #0]
 7679 7278 8C061FE5 		ldr	r0, .L288+212
 7680 727c FEFFFFEB 		bl	uart_transmit
 7681 7280 1C10D4E5 		ldrb	r1, [r4, #28]	@ zero_extendqisi2
 7682 7284 0030D5E5 		ldrb	r3, [r5, #0]	@ zero_extendqisi2
 7683 7288 033081E0 		add	r3, r1, r3
 7684 728c 0030C5E5 		strb	r3, [r5, #0]
 7685 7290 A4061FE5 		ldr	r0, .L288+212
 7686 7294 FEFFFFEB 		bl	uart_transmit
 7687 7298 1D10D4E5 		ldrb	r1, [r4, #29]	@ zero_extendqisi2
 7688 729c 0030D5E5 		ldrb	r3, [r5, #0]	@ zero_extendqisi2
 7689 72a0 033081E0 		add	r3, r1, r3
 7690 72a4 0030C5E5 		strb	r3, [r5, #0]
 7691 72a8 BC061FE5 		ldr	r0, .L288+212
 7692 72ac FEFFFFEB 		bl	uart_transmit
 7693 72b0 1E10D4E5 		ldrb	r1, [r4, #30]	@ zero_extendqisi2
 7694 72b4 0030D5E5 		ldrb	r3, [r5, #0]	@ zero_extendqisi2
 7695 72b8 033081E0 		add	r3, r1, r3
 7696 72bc 0030C5E5 		strb	r3, [r5, #0]
 7697 72c0 D4061FE5 		ldr	r0, .L288+212
 7698 72c4 FEFFFFEB 		bl	uart_transmit
 7699 72c8 1F10D4E5 		ldrb	r1, [r4, #31]	@ zero_extendqisi2
 7700 72cc 0030D5E5 		ldrb	r3, [r5, #0]	@ zero_extendqisi2
 7701 72d0 033081E0 		add	r3, r1, r3
 7702 72d4 0030C5E5 		strb	r3, [r5, #0]
 7703 72d8 EC061FE5 		ldr	r0, .L288+212
 7704 72dc FEFFFFEB 		bl	uart_transmit
 7705 72e0 1810D4E5 		ldrb	r1, [r4, #24]	@ zero_extendqisi2
 7706 72e4 0030D5E5 		ldrb	r3, [r5, #0]	@ zero_extendqisi2
 7707 72e8 033081E0 		add	r3, r1, r3
 7708 72ec 0030C5E5 		strb	r3, [r5, #0]
 7709 72f0 04071FE5 		ldr	r0, .L288+212
 7710 72f4 FEFFFFEB 		bl	uart_transmit
 7711 72f8 1910D4E5 		ldrb	r1, [r4, #25]	@ zero_extendqisi2
 7712 72fc 0030D5E5 		ldrb	r3, [r5, #0]	@ zero_extendqisi2
 7713 7300 033081E0 		add	r3, r1, r3
 7714 7304 0030C5E5 		strb	r3, [r5, #0]
 7715 7308 1C071FE5 		ldr	r0, .L288+212
 7716 730c FEFFFFEB 		bl	uart_transmit
 7717 7310 1A10D4E5 		ldrb	r1, [r4, #26]	@ zero_extendqisi2
 7718 7314 0030D5E5 		ldrb	r3, [r5, #0]	@ zero_extendqisi2
 7719 7318 033081E0 		add	r3, r1, r3
 7720 731c 0030C5E5 		strb	r3, [r5, #0]
 7721 7320 34071FE5 		ldr	r0, .L288+212
 7722 7324 FEFFFFEB 		bl	uart_transmit
 7723 7328 1B10D4E5 		ldrb	r1, [r4, #27]	@ zero_extendqisi2
 7724 732c 0030D5E5 		ldrb	r3, [r5, #0]	@ zero_extendqisi2
 7725 7330 033081E0 		add	r3, r1, r3
 7726 7334 0030C5E5 		strb	r3, [r5, #0]
 7727 7338 4C071FE5 		ldr	r0, .L288+212
 7728 733c FEFFFFEB 		bl	uart_transmit
 7729 7340 1E10DDE5 		ldrb	r1, [sp, #30]	@ zero_extendqisi2
 7730 7344 0030D5E5 		ldrb	r3, [r5, #0]	@ zero_extendqisi2
 7731 7348 033081E0 		add	r3, r1, r3
 7732 734c 0030C5E5 		strb	r3, [r5, #0]
 7733 7350 64071FE5 		ldr	r0, .L288+212
 7734 7354 FEFFFFEB 		bl	uart_transmit
 7735 7358 1F10DDE5 		ldrb	r1, [sp, #31]	@ zero_extendqisi2
 7736 735c 0030D5E5 		ldrb	r3, [r5, #0]	@ zero_extendqisi2
 7737 7360 033081E0 		add	r3, r1, r3
 7738 7364 0030C5E5 		strb	r3, [r5, #0]
 7739 7368 7C071FE5 		ldr	r0, .L288+212
 7740 736c FEFFFFEB 		bl	uart_transmit
 7741 7370 2810D4E5 		ldrb	r1, [r4, #40]	@ zero_extendqisi2
 7742 7374 0030D5E5 		ldrb	r3, [r5, #0]	@ zero_extendqisi2
 7743 7378 033081E0 		add	r3, r1, r3
 7744 737c 0030C5E5 		strb	r3, [r5, #0]
 7745 7380 94071FE5 		ldr	r0, .L288+212
 7746 7384 FEFFFFEB 		bl	uart_transmit
 7747 7388 2910D4E5 		ldrb	r1, [r4, #41]	@ zero_extendqisi2
 7748 738c 0030D5E5 		ldrb	r3, [r5, #0]	@ zero_extendqisi2
 7749 7390 033081E0 		add	r3, r1, r3
 7750 7394 0030C5E5 		strb	r3, [r5, #0]
 7751 7398 AC071FE5 		ldr	r0, .L288+212
 7752 739c FEFFFFEB 		bl	uart_transmit
 7753 73a0 2A10D4E5 		ldrb	r1, [r4, #42]	@ zero_extendqisi2
 7754 73a4 0030D5E5 		ldrb	r3, [r5, #0]	@ zero_extendqisi2
 7755 73a8 033081E0 		add	r3, r1, r3
 7756 73ac 0030C5E5 		strb	r3, [r5, #0]
 7757 73b0 C4071FE5 		ldr	r0, .L288+212
 7758 73b4 FEFFFFEB 		bl	uart_transmit
 7759 73b8 2B10D4E5 		ldrb	r1, [r4, #43]	@ zero_extendqisi2
 7760 73bc 0030D5E5 		ldrb	r3, [r5, #0]	@ zero_extendqisi2
 7761 73c0 033081E0 		add	r3, r1, r3
 7762 73c4 0030C5E5 		strb	r3, [r5, #0]
 7763 73c8 DC071FE5 		ldr	r0, .L288+212
 7764 73cc FEFFFFEB 		bl	uart_transmit
 7765 73d0 4410D4E5 		ldrb	r1, [r4, #68]	@ zero_extendqisi2
 7766 73d4 0030D5E5 		ldrb	r3, [r5, #0]	@ zero_extendqisi2
 7767 73d8 033081E0 		add	r3, r1, r3
 7768 73dc 0030C5E5 		strb	r3, [r5, #0]
 7769 73e0 F4071FE5 		ldr	r0, .L288+212
 7770 73e4 FEFFFFEB 		bl	uart_transmit
 7771 73e8 4510D4E5 		ldrb	r1, [r4, #69]	@ zero_extendqisi2
 7772 73ec 0030D5E5 		ldrb	r3, [r5, #0]	@ zero_extendqisi2
 7773 73f0 033081E0 		add	r3, r1, r3
 7774 73f4 0030C5E5 		strb	r3, [r5, #0]
 7775 73f8 0C081FE5 		ldr	r0, .L288+212
 7776 73fc FEFFFFEB 		bl	uart_transmit
 7777 7400 1C10DDE5 		ldrb	r1, [sp, #28]	@ zero_extendqisi2
 7778 7404 0030D5E5 		ldrb	r3, [r5, #0]	@ zero_extendqisi2
 7779 7408 033081E0 		add	r3, r1, r3
 7780 740c 0030C5E5 		strb	r3, [r5, #0]
 7781 7410 24081FE5 		ldr	r0, .L288+212
 7782 7414 FEFFFFEB 		bl	uart_transmit
 7783 7418 1D10DDE5 		ldrb	r1, [sp, #29]	@ zero_extendqisi2
 7784 741c 0030D5E5 		ldrb	r3, [r5, #0]	@ zero_extendqisi2
 7785 7420 033081E0 		add	r3, r1, r3
 7786 7424 0030C5E5 		strb	r3, [r5, #0]
 7787 7428 3C081FE5 		ldr	r0, .L288+212
 7788 742c FEFFFFEB 		bl	uart_transmit
 7789 7430 5C10D4E5 		ldrb	r1, [r4, #92]	@ zero_extendqisi2
 7790 7434 0030D5E5 		ldrb	r3, [r5, #0]	@ zero_extendqisi2
 7791 7438 033081E0 		add	r3, r1, r3
 7792 743c 0030C5E5 		strb	r3, [r5, #0]
 7793 7440 54081FE5 		ldr	r0, .L288+212
 7794 7444 FEFFFFEB 		bl	uart_transmit
 7795 7448 5D10D4E5 		ldrb	r1, [r4, #93]	@ zero_extendqisi2
 7796 744c 0030D5E5 		ldrb	r3, [r5, #0]	@ zero_extendqisi2
 7797 7450 033081E0 		add	r3, r1, r3
 7798 7454 0030C5E5 		strb	r3, [r5, #0]
 7799 7458 6C081FE5 		ldr	r0, .L288+212
 7800 745c FEFFFFEB 		bl	uart_transmit
 7801 7460 6010D4E5 		ldrb	r1, [r4, #96]	@ zero_extendqisi2
 7802 7464 0030D5E5 		ldrb	r3, [r5, #0]	@ zero_extendqisi2
 7803 7468 033081E0 		add	r3, r1, r3
 7804 746c 0030C5E5 		strb	r3, [r5, #0]
 7805 7470 84081FE5 		ldr	r0, .L288+212
 7806 7474 FEFFFFEB 		bl	uart_transmit
 7807 7478 6110D4E5 		ldrb	r1, [r4, #97]	@ zero_extendqisi2
 7808 747c 0030D5E5 		ldrb	r3, [r5, #0]	@ zero_extendqisi2
 7809 7480 033081E0 		add	r3, r1, r3
 7810 7484 0030C5E5 		strb	r3, [r5, #0]
 7811 7488 9C081FE5 		ldr	r0, .L288+212
 7812 748c FEFFFFEB 		bl	uart_transmit
 7813 7490 6210D4E5 		ldrb	r1, [r4, #98]	@ zero_extendqisi2
 7814 7494 0030D5E5 		ldrb	r3, [r5, #0]	@ zero_extendqisi2
 7815 7498 033081E0 		add	r3, r1, r3
 7816 749c 0030C5E5 		strb	r3, [r5, #0]
 7817 74a0 B4081FE5 		ldr	r0, .L288+212
 7818 74a4 FEFFFFEB 		bl	uart_transmit
 7819 74a8 6310D4E5 		ldrb	r1, [r4, #99]	@ zero_extendqisi2
 7820 74ac 0030D5E5 		ldrb	r3, [r5, #0]	@ zero_extendqisi2
 7821 74b0 033081E0 		add	r3, r1, r3
 7822 74b4 0030C5E5 		strb	r3, [r5, #0]
 7823 74b8 CC081FE5 		ldr	r0, .L288+212
 7824 74bc FEFFFFEB 		bl	uart_transmit
 7825 74c0 2410D4E5 		ldrb	r1, [r4, #36]	@ zero_extendqisi2
 7826 74c4 0030D5E5 		ldrb	r3, [r5, #0]	@ zero_extendqisi2
 7827 74c8 033081E0 		add	r3, r1, r3
 7828 74cc 0030C5E5 		strb	r3, [r5, #0]
 7829 74d0 E4081FE5 		ldr	r0, .L288+212
 7830 74d4 FEFFFFEB 		bl	uart_transmit
 7831 74d8 20391FE5 		ldr	r3, .L288+160
 7832 74dc 0010D3E5 		ldrb	r1, [r3, #0]	@ zero_extendqisi2
 7833 74e0 0030D5E5 		ldrb	r3, [r5, #0]	@ zero_extendqisi2
 7834 74e4 033081E0 		add	r3, r1, r3
 7835 74e8 0030C5E5 		strb	r3, [r5, #0]
 7836 74ec 00091FE5 		ldr	r0, .L288+212
 7837 74f0 FEFFFFEB 		bl	uart_transmit
 7838 74f4 0010D5E5 		ldrb	r1, [r5, #0]	@ zero_extendqisi2
 7839 74f8 0110E0E1 		mvn	r1, r1
 7840 74fc FF1001E2 		and	r1, r1, #255
 7841 7500 0010C5E5 		strb	r1, [r5, #0]
 7842 7504 18091FE5 		ldr	r0, .L288+212
 7843 7508 FEFFFFEB 		bl	uart_transmit
 7844 750c 030000EA 		b	.L203
 7845              	.L202:
 7846 7510 50391FE5 		ldr	r3, .L288+168
 7847 7514 0020D3E5 		ldrb	r2, [r3, #0]	@ zero_extendqisi2
 7848 7518 012082E2 		add	r2, r2, #1
 7849 751c 0020C3E5 		strb	r2, [r3, #0]
 7850              	.L203:
 7851 7520 6C291FE5 		ldr	r2, .L288+156
 7852 7524 5B30D2E5 		ldrb	r3, [r2, #91]	@ zero_extendqisi2
 7853 7528 030053E3 		cmp	r3, #3
 7854 752c 74391FE5 		ldr	r3, .L288+160
 7855 7530 0400000A 		beq	.L204
 7856 7534 6410D2E5 		ldrb	r1, [r2, #100]	@ zero_extendqisi2
 7857 7538 0000D3E5 		ldrb	r0, [r3, #0]	@ zero_extendqisi2
 7858 753c 010050E1 		cmp	r0, r1
 7859 7540 0010A023 		movcs	r1, #0
 7860 7544 0010C325 		strcsb	r1, [r3, #0]
 7861              	.L204:
 7862 7548 0030D3E5 		ldrb	r3, [r3, #0]	@ zero_extendqisi2
 7863 754c 6420D2E5 		ldrb	r2, [r2, #100]	@ zero_extendqisi2
 7864 7550 820053E1 		cmp	r3, r2, asl #1
 7865 7554 9C391FA5 		ldrge	r3, .L288+160
 7866 7558 0010A0A3 		movge	r1, #0
 7867 755c 0010C3A5 		strgeb	r1, [r3, #0]
 7868 7560 A8591FE5 		ldr	r5, .L288+160
 7869 7564 0030D5E5 		ldrb	r3, [r5, #0]	@ zero_extendqisi2
 7870 7568 020053E1 		cmp	r3, r2
 7871 756c 8500002A 		bcs	.L206
 7872 7570 BC691FE5 		ldr	r6, .L288+156
 7873 7574 833186E0 		add	r3, r6, r3, asl #3
 7874 7578 6930D3E5 		ldrb	r3, [r3, #105]	@ zero_extendqisi2
 7875 757c 000053E3 		cmp	r3, #0
 7876 7580 8000000A 		beq	.L206
 7877 7584 98091FE5 		ldr	r0, .L288+212
 7878 7588 1310A0E3 		mov	r1, #19
 7879 758c FEFFFFEB 		bl	uart_check_free_space
 7880 7590 000050E3 		cmp	r0, #0
 7881 7594 7700000A 		beq	.L207
 7882 7598 C4391FE5 		ldr	r3, .L288+188
 7883 759c B020D3E1 		ldrh	r2, [r3, #0]
 7884 75a0 132082E2 		add	r2, r2, #19
 7885 75a4 B020C3E1 		strh	r2, [r3, #0]	@ movhi
 7886 75a8 D0391FE5 		ldr	r3, .L288+192
 7887 75ac B020D3E1 		ldrh	r2, [r3, #0]
 7888 75b0 012082E2 		add	r2, r2, #1
 7889 75b4 B020C3E1 		strh	r2, [r3, #0]	@ movhi
 7890 75b8 CC091FE5 		ldr	r0, .L288+212
 7891 75bc 7E10A0E3 		mov	r1, #126
 7892 75c0 E4491FE5 		ldr	r4, .L288+196
 7893 75c4 FEFFFFEB 		bl	uart_transmit
 7894 75c8 DC091FE5 		ldr	r0, .L288+212
 7895 75cc 0010A0E3 		mov	r1, #0
 7896 75d0 FEFFFFEB 		bl	uart_transmit
 7897 75d4 0170A0E3 		mov	r7, #1
 7898 75d8 EC091FE5 		ldr	r0, .L288+212
 7899 75dc 0F10A0E3 		mov	r1, #15
 7900 75e0 FEFFFFEB 		bl	uart_transmit
 7901 75e4 0710A0E1 		mov	r1, r7
 7902 75e8 0070C4E5 		strb	r7, [r4, #0]
 7903 75ec 000A1FE5 		ldr	r0, .L288+212
 7904 75f0 FEFFFFEB 		bl	uart_transmit
 7905 75f4 080A1FE5 		ldr	r0, .L288+212
 7906 75f8 0010A0E3 		mov	r1, #0
 7907 75fc FEFFFFEB 		bl	uart_transmit
 7908 7600 0030D4E5 		ldrb	r3, [r4, #0]	@ zero_extendqisi2
 7909 7604 073083E0 		add	r3, r3, r7
 7910 7608 0030C4E5 		strb	r3, [r4, #0]
 7911 760c 0710A0E1 		mov	r1, r7
 7912 7610 240A1FE5 		ldr	r0, .L288+212
 7913 7614 FEFFFFEB 		bl	uart_transmit
 7914 7618 2C0A1FE5 		ldr	r0, .L288+212
 7915 761c 0010A0E3 		mov	r1, #0
 7916 7620 FEFFFFEB 		bl	uart_transmit
 7917 7624 380A1FE5 		ldr	r0, .L288+212
 7918 7628 0010A0E3 		mov	r1, #0
 7919 762c FEFFFFEB 		bl	uart_transmit
 7920 7630 0030D4E5 		ldrb	r3, [r4, #0]	@ zero_extendqisi2
 7921 7634 023083E2 		add	r3, r3, #2
 7922 7638 0030C4E5 		strb	r3, [r4, #0]
 7923 763c 500A1FE5 		ldr	r0, .L288+212
 7924 7640 0210A0E3 		mov	r1, #2
 7925 7644 FEFFFFEB 		bl	uart_transmit
 7926 7648 0030D4E5 		ldrb	r3, [r4, #0]	@ zero_extendqisi2
 7927 764c 193083E2 		add	r3, r3, #25
 7928 7650 0030C4E5 		strb	r3, [r4, #0]
 7929 7654 680A1FE5 		ldr	r0, .L288+212
 7930 7658 1910A0E3 		mov	r1, #25
 7931 765c FEFFFFEB 		bl	uart_transmit
 7932 7660 0010D5E5 		ldrb	r1, [r5, #0]	@ zero_extendqisi2
 7933 7664 0030D4E5 		ldrb	r3, [r4, #0]	@ zero_extendqisi2
 7934 7668 033081E0 		add	r3, r1, r3
 7935 766c 0030C4E5 		strb	r3, [r4, #0]
 7936 7670 840A1FE5 		ldr	r0, .L288+212
 7937 7674 FEFFFFEB 		bl	uart_transmit
 7938 7678 0030D5E5 		ldrb	r3, [r5, #0]	@ zero_extendqisi2
 7939 767c 833186E0 		add	r3, r6, r3, asl #3
 7940 7680 6610D3E5 		ldrb	r1, [r3, #102]	@ zero_extendqisi2
 7941 7684 0030D4E5 		ldrb	r3, [r4, #0]	@ zero_extendqisi2
 7942 7688 033081E0 		add	r3, r1, r3
 7943 768c 0030C4E5 		strb	r3, [r4, #0]
 7944 7690 A40A1FE5 		ldr	r0, .L288+212
 7945 7694 FEFFFFEB 		bl	uart_transmit
 7946 7698 0030D5E5 		ldrb	r3, [r5, #0]	@ zero_extendqisi2
 7947 769c 833186E0 		add	r3, r6, r3, asl #3
 7948 76a0 6710D3E5 		ldrb	r1, [r3, #103]	@ zero_extendqisi2
 7949 76a4 0030D4E5 		ldrb	r3, [r4, #0]	@ zero_extendqisi2
 7950 76a8 033081E0 		add	r3, r1, r3
 7951 76ac 0030C4E5 		strb	r3, [r4, #0]
 7952 76b0 C40A1FE5 		ldr	r0, .L288+212
 7953 76b4 FEFFFFEB 		bl	uart_transmit
 7954 76b8 0030D5E5 		ldrb	r3, [r5, #0]	@ zero_extendqisi2
 7955 76bc 833186E0 		add	r3, r6, r3, asl #3
 7956 76c0 6810D3E5 		ldrb	r1, [r3, #104]	@ zero_extendqisi2
 7957 76c4 0030D4E5 		ldrb	r3, [r4, #0]	@ zero_extendqisi2
 7958 76c8 033081E0 		add	r3, r1, r3
 7959 76cc 0030C4E5 		strb	r3, [r4, #0]
 7960 76d0 E40A1FE5 		ldr	r0, .L288+212
 7961 76d4 FEFFFFEB 		bl	uart_transmit
 7962 76d8 0030D5E5 		ldrb	r3, [r5, #0]	@ zero_extendqisi2
 7963 76dc 833186E0 		add	r3, r6, r3, asl #3
 7964 76e0 6910D3E5 		ldrb	r1, [r3, #105]	@ zero_extendqisi2
 7965 76e4 0030D4E5 		ldrb	r3, [r4, #0]	@ zero_extendqisi2
 7966 76e8 033081E0 		add	r3, r1, r3
 7967 76ec 0030C4E5 		strb	r3, [r4, #0]
 7968 76f0 040B1FE5 		ldr	r0, .L288+212
 7969 76f4 FEFFFFEB 		bl	uart_transmit
 7970 76f8 0030D5E5 		ldrb	r3, [r5, #0]	@ zero_extendqisi2
 7971 76fc 833186E0 		add	r3, r6, r3, asl #3
 7972 7700 6A10D3E5 		ldrb	r1, [r3, #106]	@ zero_extendqisi2
 7973 7704 0030D4E5 		ldrb	r3, [r4, #0]	@ zero_extendqisi2
 7974 7708 033081E0 		add	r3, r1, r3
 7975 770c 0030C4E5 		strb	r3, [r4, #0]
 7976 7710 240B1FE5 		ldr	r0, .L288+212
 7977 7714 FEFFFFEB 		bl	uart_transmit
 7978 7718 0030D5E5 		ldrb	r3, [r5, #0]	@ zero_extendqisi2
 7979 771c 0C6086E2 		add	r6, r6, #12
 7980 7720 0C3083E2 		add	r3, r3, #12
 7981 7724 8311D6E7 		ldrb	r1, [r6, r3, asl #3]	@ zero_extendqisi2
 7982 7728 0030D4E5 		ldrb	r3, [r4, #0]	@ zero_extendqisi2
 7983 772c 033081E0 		add	r3, r1, r3
 7984 7730 0030C4E5 		strb	r3, [r4, #0]
 7985 7734 480B1FE5 		ldr	r0, .L288+212
 7986 7738 FEFFFFEB 		bl	uart_transmit
 7987 773c 0030D5E5 		ldrb	r3, [r5, #0]	@ zero_extendqisi2
 7988 7740 836186E0 		add	r6, r6, r3, asl #3
 7989 7744 6110D6E5 		ldrb	r1, [r6, #97]	@ zero_extendqisi2
 7990 7748 0030D4E5 		ldrb	r3, [r4, #0]	@ zero_extendqisi2
 7991 774c 033081E0 		add	r3, r1, r3
 7992 7750 0030C4E5 		strb	r3, [r4, #0]
 7993 7754 680B1FE5 		ldr	r0, .L288+212
 7994 7758 FEFFFFEB 		bl	uart_transmit
 7995 775c 0010D4E5 		ldrb	r1, [r4, #0]	@ zero_extendqisi2
 7996 7760 0110E0E1 		mvn	r1, r1
 7997 7764 FF1001E2 		and	r1, r1, #255
 7998 7768 0010C4E5 		strb	r1, [r4, #0]
 7999 776c 800B1FE5 		ldr	r0, .L288+212
 8000 7770 FEFFFFEB 		bl	uart_transmit
 8001 7774 030000EA 		b	.L206
 8002              	.L207:
 8003 7778 B83B1FE5 		ldr	r3, .L288+168
 8004 777c 0020D3E5 		ldrb	r2, [r3, #0]	@ zero_extendqisi2
 8005 7780 012082E2 		add	r2, r2, #1
 8006 7784 0020C3E5 		strb	r2, [r3, #0]
 8007              	.L206:
 8008 7788 D03B1FE5 		ldr	r3, .L288+160
 8009 778c 0020D3E5 		ldrb	r2, [r3, #0]	@ zero_extendqisi2
 8010 7790 012082E2 		add	r2, r2, #1
 8011 7794 0020C3E5 		strb	r2, [r3, #0]
 8012              	.L201:
 8013 7798 DC3B1FE5 		ldr	r3, .L288+164
 8014 779c B030D3E1 		ldrh	r3, [r3, #0]
 8015 77a0 0C0053E3 		cmp	r3, #12
 8016 77a4 7900001A 		bne	.L208
 8017 77a8 BC0B1FE5 		ldr	r0, .L288+212
 8018 77ac 1310A0E3 		mov	r1, #19
 8019 77b0 FEFFFFEB 		bl	uart_check_free_space
 8020 77b4 000050E3 		cmp	r0, #0
 8021 77b8 7000000A 		beq	.L209
 8022 77bc E83B1FE5 		ldr	r3, .L288+188
 8023 77c0 B020D3E1 		ldrh	r2, [r3, #0]
 8024 77c4 132082E2 		add	r2, r2, #19
 8025 77c8 B020C3E1 		strh	r2, [r3, #0]	@ movhi
 8026 77cc F43B1FE5 		ldr	r3, .L288+192
 8027 77d0 B020D3E1 		ldrh	r2, [r3, #0]
 8028 77d4 012082E2 		add	r2, r2, #1
 8029 77d8 B020C3E1 		strh	r2, [r3, #0]	@ movhi
 8030 77dc F00B1FE5 		ldr	r0, .L288+212
 8031 77e0 7E10A0E3 		mov	r1, #126
 8032 77e4 084C1FE5 		ldr	r4, .L288+196
 8033 77e8 FEFFFFEB 		bl	uart_transmit
 8034 77ec 000C1FE5 		ldr	r0, .L288+212
 8035 77f0 0010A0E3 		mov	r1, #0
 8036 77f4 FEFFFFEB 		bl	uart_transmit
 8037 77f8 0150A0E3 		mov	r5, #1
 8038 77fc 100C1FE5 		ldr	r0, .L288+212
 8039 7800 0F10A0E3 		mov	r1, #15
 8040 7804 FEFFFFEB 		bl	uart_transmit
 8041 7808 0510A0E1 		mov	r1, r5
 8042 780c 0050C4E5 		strb	r5, [r4, #0]
 8043 7810 240C1FE5 		ldr	r0, .L288+212
 8044 7814 FEFFFFEB 		bl	uart_transmit
 8045 7818 2C0C1FE5 		ldr	r0, .L288+212
 8046 781c 0010A0E3 		mov	r1, #0
 8047 7820 FEFFFFEB 		bl	uart_transmit
 8048 7824 0030D4E5 		ldrb	r3, [r4, #0]	@ zero_extendqisi2
 8049 7828 053083E0 		add	r3, r3, r5
 8050 782c 0030C4E5 		strb	r3, [r4, #0]
 8051 7830 0510A0E1 		mov	r1, r5
 8052 7834 480C1FE5 		ldr	r0, .L288+212
 8053 7838 FEFFFFEB 		bl	uart_transmit
 8054 783c 500C1FE5 		ldr	r0, .L288+212
 8055 7840 0010A0E3 		mov	r1, #0
 8056 7844 FEFFFFEB 		bl	uart_transmit
 8057 7848 5C0C1FE5 		ldr	r0, .L288+212
 8058 784c 0010A0E3 		mov	r1, #0
 8059 7850 FEFFFFEB 		bl	uart_transmit
 8060 7854 0030D4E5 		ldrb	r3, [r4, #0]	@ zero_extendqisi2
 8061 7858 023083E2 		add	r3, r3, #2
 8062 785c 0030C4E5 		strb	r3, [r4, #0]
 8063 7860 740C1FE5 		ldr	r0, .L288+212
 8064 7864 0210A0E3 		mov	r1, #2
 8065 7868 FEFFFFEB 		bl	uart_transmit
 8066 786c 0030D4E5 		ldrb	r3, [r4, #0]	@ zero_extendqisi2
 8067 7870 2A3083E2 		add	r3, r3, #42
 8068 7874 0030C4E5 		strb	r3, [r4, #0]
 8069 7878 2A10A0E3 		mov	r1, #42
 8070 787c 900C1FE5 		ldr	r0, .L288+212
 8071 7880 FEFFFFEB 		bl	uart_transmit
 8072 7884 FEFFFFEB 		bl	stateGetPositionUtm_f
 8073 7888 0030D4E5 		ldrb	r3, [r4, #0]	@ zero_extendqisi2
 8074 788c 0810D0E5 		ldrb	r1, [r0, #8]	@ zero_extendqisi2
 8075 7890 033081E0 		add	r3, r1, r3
 8076 7894 0030C4E5 		strb	r3, [r4, #0]
 8077 7898 AC0C1FE5 		ldr	r0, .L288+212
 8078 789c FEFFFFEB 		bl	uart_transmit
 8079 78a0 FEFFFFEB 		bl	stateGetPositionUtm_f
 8080 78a4 0030D4E5 		ldrb	r3, [r4, #0]	@ zero_extendqisi2
 8081 78a8 0910D0E5 		ldrb	r1, [r0, #9]	@ zero_extendqisi2
 8082 78ac 033081E0 		add	r3, r1, r3
 8083 78b0 0030C4E5 		strb	r3, [r4, #0]
 8084 78b4 C80C1FE5 		ldr	r0, .L288+212
 8085 78b8 FEFFFFEB 		bl	uart_transmit
 8086 78bc FEFFFFEB 		bl	stateGetPositionUtm_f
 8087 78c0 0030D4E5 		ldrb	r3, [r4, #0]	@ zero_extendqisi2
 8088 78c4 0A10D0E5 		ldrb	r1, [r0, #10]	@ zero_extendqisi2
 8089 78c8 033081E0 		add	r3, r1, r3
 8090 78cc 0030C4E5 		strb	r3, [r4, #0]
 8091 78d0 E40C1FE5 		ldr	r0, .L288+212
 8092 78d4 FEFFFFEB 		bl	uart_transmit
 8093 78d8 FEFFFFEB 		bl	stateGetPositionUtm_f
 8094 78dc 0030D4E5 		ldrb	r3, [r4, #0]	@ zero_extendqisi2
 8095 78e0 0B10D0E5 		ldrb	r1, [r0, #11]	@ zero_extendqisi2
 8096 78e4 033081E0 		add	r3, r1, r3
 8097 78e8 0030C4E5 		strb	r3, [r4, #0]
 8098 78ec 000D1FE5 		ldr	r0, .L288+212
 8099 78f0 FEFFFFEB 		bl	uart_transmit
 8100 78f4 FEFFFFEB 		bl	stateGetSpeedEnu_f
 8101 78f8 0030D4E5 		ldrb	r3, [r4, #0]	@ zero_extendqisi2
 8102 78fc 0810D0E5 		ldrb	r1, [r0, #8]	@ zero_extendqisi2
 8103 7900 033081E0 		add	r3, r1, r3
 8104 7904 0030C4E5 		strb	r3, [r4, #0]
 8105 7908 1C0D1FE5 		ldr	r0, .L288+212
 8106 790c FEFFFFEB 		bl	uart_transmit
 8107 7910 FEFFFFEB 		bl	stateGetSpeedEnu_f
 8108 7914 0030D4E5 		ldrb	r3, [r4, #0]	@ zero_extendqisi2
 8109 7918 0910D0E5 		ldrb	r1, [r0, #9]	@ zero_extendqisi2
 8110 791c 033081E0 		add	r3, r1, r3
 8111 7920 0030C4E5 		strb	r3, [r4, #0]
 8112 7924 380D1FE5 		ldr	r0, .L288+212
 8113 7928 FEFFFFEB 		bl	uart_transmit
 8114 792c FEFFFFEB 		bl	stateGetSpeedEnu_f
 8115 7930 0030D4E5 		ldrb	r3, [r4, #0]	@ zero_extendqisi2
 8116 7934 0A10D0E5 		ldrb	r1, [r0, #10]	@ zero_extendqisi2
 8117 7938 033081E0 		add	r3, r1, r3
 8118 793c 0030C4E5 		strb	r3, [r4, #0]
 8119 7940 540D1FE5 		ldr	r0, .L288+212
 8120 7944 FEFFFFEB 		bl	uart_transmit
 8121 7948 FEFFFFEB 		bl	stateGetSpeedEnu_f
 8122 794c 0030D4E5 		ldrb	r3, [r4, #0]	@ zero_extendqisi2
 8123 7950 0B10D0E5 		ldrb	r1, [r0, #11]	@ zero_extendqisi2
 8124 7954 033081E0 		add	r3, r1, r3
 8125 7958 0030C4E5 		strb	r3, [r4, #0]
 8126 795c 700D1FE5 		ldr	r0, .L288+212
 8127 7960 FEFFFFEB 		bl	uart_transmit
 8128 7964 0010D4E5 		ldrb	r1, [r4, #0]	@ zero_extendqisi2
 8129 7968 0110E0E1 		mvn	r1, r1
 8130 796c FF1001E2 		and	r1, r1, #255
 8131 7970 0010C4E5 		strb	r1, [r4, #0]
 8132 7974 880D1FE5 		ldr	r0, .L288+212
 8133 7978 FEFFFFEB 		bl	uart_transmit
 8134 797c 030000EA 		b	.L208
 8135              	.L209:
 8136 7980 C03D1FE5 		ldr	r3, .L288+168
 8137 7984 0020D3E5 		ldrb	r2, [r3, #0]	@ zero_extendqisi2
 8138 7988 012082E2 		add	r2, r2, #1
 8139 798c 0020C3E5 		strb	r2, [r3, #0]
 8140              	.L208:
 8141 7990 CC3D1FE5 		ldr	r3, .L288+172
 8142 7994 B030D3E1 		ldrh	r3, [r3, #0]
 8143 7998 120053E3 		cmp	r3, #18
 8144 799c C900001A 		bne	.L210
 8145 79a0 D83D1FE5 		ldr	r3, .L288+176
 8146 79a4 005093E5 		ldr	r5, [r3, #0]	@ float
 8147 79a8 FEFFFFEB 		bl	stateGetPositionEnu_f
 8148 79ac 1F10A0E3 		mov	r1, #31
 8149 79b0 0040A0E1 		mov	r4, r0
 8150 79b4 C80D1FE5 		ldr	r0, .L288+212
 8151 79b8 FEFFFFEB 		bl	uart_check_free_space
 8152 79bc 000050E3 		cmp	r0, #0
 8153 79c0 BC00000A 		beq	.L211
 8154 79c4 0201C5E3 		bic	r0, r5, #-2147483648
 8155 79c8 FEFFFFEB 		bl	__aeabi_f2d
 8156 79cc 002E1FE5 		ldr	r2, .L288+180
 8157 79d0 003E1FE5 		ldr	r3, .L288+184
 8158 79d4 FEFFFFEB 		bl	__aeabi_ddiv
 8159 79d8 FEFFFFEB 		bl	__aeabi_d2uiz
 8160 79dc 083E1FE5 		ldr	r3, .L288+188
 8161 79e0 B020D3E1 		ldrh	r2, [r3, #0]
 8162 79e4 1F2082E2 		add	r2, r2, #31
 8163 79e8 B020C3E1 		strh	r2, [r3, #0]	@ movhi
 8164 79ec 143E1FE5 		ldr	r3, .L288+192
 8165 79f0 B020D3E1 		ldrh	r2, [r3, #0]
 8166 79f4 012082E2 		add	r2, r2, #1
 8167 79f8 B020C3E1 		strh	r2, [r3, #0]	@ movhi
 8168 79fc FF7000E2 		and	r7, r0, #255
 8169 7a00 7E10A0E3 		mov	r1, #126
 8170 7a04 180E1FE5 		ldr	r0, .L288+212
 8171 7a08 2C5E1FE5 		ldr	r5, .L288+196
 8172 7a0c FEFFFFEB 		bl	uart_transmit
 8173 7a10 240E1FE5 		ldr	r0, .L288+212
 8174 7a14 0010A0E3 		mov	r1, #0
 8175 7a18 FEFFFFEB 		bl	uart_transmit
 8176 7a1c 0160A0E3 		mov	r6, #1
 8177 7a20 340E1FE5 		ldr	r0, .L288+212
 8178 7a24 1B10A0E3 		mov	r1, #27
 8179 7a28 FEFFFFEB 		bl	uart_transmit
 8180 7a2c 0610A0E1 		mov	r1, r6
 8181 7a30 0060C5E5 		strb	r6, [r5, #0]
 8182 7a34 480E1FE5 		ldr	r0, .L288+212
 8183 7a38 FEFFFFEB 		bl	uart_transmit
 8184 7a3c 500E1FE5 		ldr	r0, .L288+212
 8185 7a40 0010A0E3 		mov	r1, #0
 8186 7a44 FEFFFFEB 		bl	uart_transmit
 8187 7a48 0030D5E5 		ldrb	r3, [r5, #0]	@ zero_extendqisi2
 8188 7a4c 063083E0 		add	r3, r3, r6
 8189 7a50 0030C5E5 		strb	r3, [r5, #0]
 8190 7a54 0610A0E1 		mov	r1, r6
 8191 7a58 6C0E1FE5 		ldr	r0, .L288+212
 8192 7a5c FEFFFFEB 		bl	uart_transmit
 8193 7a60 740E1FE5 		ldr	r0, .L288+212
 8194 7a64 0010A0E3 		mov	r1, #0
 8195 7a68 FEFFFFEB 		bl	uart_transmit
 8196 7a6c 800E1FE5 		ldr	r0, .L288+212
 8197 7a70 0010A0E3 		mov	r1, #0
 8198 7a74 FEFFFFEB 		bl	uart_transmit
 8199 7a78 0030D5E5 		ldrb	r3, [r5, #0]	@ zero_extendqisi2
 8200 7a7c 023083E2 		add	r3, r3, #2
 8201 7a80 0030C5E5 		strb	r3, [r5, #0]
 8202 7a84 980E1FE5 		ldr	r0, .L288+212
 8203 7a88 0210A0E3 		mov	r1, #2
 8204 7a8c FEFFFFEB 		bl	uart_transmit
 8205 7a90 0030D5E5 		ldrb	r3, [r5, #0]	@ zero_extendqisi2
 8206 7a94 0A3083E2 		add	r3, r3, #10
 8207 7a98 0030C5E5 		strb	r3, [r5, #0]
 8208 7a9c B00E1FE5 		ldr	r0, .L288+212
 8209 7aa0 0A10A0E3 		mov	r1, #10
 8210 7aa4 FEFFFFEB 		bl	uart_transmit
 8211 7aa8 C83E1FE5 		ldr	r3, .L288+200
 8212 7aac 0010D3E5 		ldrb	r1, [r3, #0]	@ zero_extendqisi2
 8213 7ab0 0030D5E5 		ldrb	r3, [r5, #0]	@ zero_extendqisi2
 8214 7ab4 033081E0 		add	r3, r1, r3
 8215 7ab8 0030C5E5 		strb	r3, [r5, #0]
 8216 7abc D00E1FE5 		ldr	r0, .L288+212
 8217 7ac0 FEFFFFEB 		bl	uart_transmit
 8218 7ac4 E03E1FE5 		ldr	r3, .L288+204
 8219 7ac8 0010D3E5 		ldrb	r1, [r3, #0]	@ zero_extendqisi2
 8220 7acc 0030D5E5 		ldrb	r3, [r5, #0]	@ zero_extendqisi2
 8221 7ad0 033081E0 		add	r3, r1, r3
 8222 7ad4 0030C5E5 		strb	r3, [r5, #0]
 8223 7ad8 EC0E1FE5 		ldr	r0, .L288+212
 8224 7adc FEFFFFEB 		bl	uart_transmit
 8225 7ae0 0010D4E5 		ldrb	r1, [r4, #0]	@ zero_extendqisi2
 8226 7ae4 0030D5E5 		ldrb	r3, [r5, #0]	@ zero_extendqisi2
 8227 7ae8 033081E0 		add	r3, r1, r3
 8228 7aec 0030C5E5 		strb	r3, [r5, #0]
 8229 7af0 040F1FE5 		ldr	r0, .L288+212
 8230 7af4 FEFFFFEB 		bl	uart_transmit
 8231 7af8 0110D4E5 		ldrb	r1, [r4, #1]	@ zero_extendqisi2
 8232 7afc 0030D5E5 		ldrb	r3, [r5, #0]	@ zero_extendqisi2
 8233 7b00 033081E0 		add	r3, r1, r3
 8234 7b04 0030C5E5 		strb	r3, [r5, #0]
 8235 7b08 1C0F1FE5 		ldr	r0, .L288+212
 8236 7b0c FEFFFFEB 		bl	uart_transmit
 8237 7b10 0210D4E5 		ldrb	r1, [r4, #2]	@ zero_extendqisi2
 8238 7b14 0030D5E5 		ldrb	r3, [r5, #0]	@ zero_extendqisi2
 8239 7b18 033081E0 		add	r3, r1, r3
 8240 7b1c 0030C5E5 		strb	r3, [r5, #0]
 8241 7b20 340F1FE5 		ldr	r0, .L288+212
 8242 7b24 FEFFFFEB 		bl	uart_transmit
 8243 7b28 0310D4E5 		ldrb	r1, [r4, #3]	@ zero_extendqisi2
 8244 7b2c 0030D5E5 		ldrb	r3, [r5, #0]	@ zero_extendqisi2
 8245 7b30 033081E0 		add	r3, r1, r3
 8246 7b34 0030C5E5 		strb	r3, [r5, #0]
 8247 7b38 4C0F1FE5 		ldr	r0, .L288+212
 8248 7b3c FEFFFFEB 		bl	uart_transmit
 8249 7b40 0410D4E5 		ldrb	r1, [r4, #4]	@ zero_extendqisi2
 8250 7b44 0030D5E5 		ldrb	r3, [r5, #0]	@ zero_extendqisi2
 8251 7b48 033081E0 		add	r3, r1, r3
 8252 7b4c 0030C5E5 		strb	r3, [r5, #0]
 8253 7b50 640F1FE5 		ldr	r0, .L288+212
 8254 7b54 FEFFFFEB 		bl	uart_transmit
 8255 7b58 0510D4E5 		ldrb	r1, [r4, #5]	@ zero_extendqisi2
 8256 7b5c 0030D5E5 		ldrb	r3, [r5, #0]	@ zero_extendqisi2
 8257 7b60 033081E0 		add	r3, r1, r3
 8258 7b64 0030C5E5 		strb	r3, [r5, #0]
 8259 7b68 7C0F1FE5 		ldr	r0, .L288+212
 8260 7b6c FEFFFFEB 		bl	uart_transmit
 8261 7b70 0610D4E5 		ldrb	r1, [r4, #6]	@ zero_extendqisi2
 8262 7b74 0030D5E5 		ldrb	r3, [r5, #0]	@ zero_extendqisi2
 8263 7b78 033081E0 		add	r3, r1, r3
 8264 7b7c 0030C5E5 		strb	r3, [r5, #0]
 8265 7b80 940F1FE5 		ldr	r0, .L288+212
 8266 7b84 FEFFFFEB 		bl	uart_transmit
 8267 7b88 0710D4E5 		ldrb	r1, [r4, #7]	@ zero_extendqisi2
 8268 7b8c 0030D5E5 		ldrb	r3, [r5, #0]	@ zero_extendqisi2
 8269 7b90 A84F1FE5 		ldr	r4, .L288+208
 8270 7b94 033081E0 		add	r3, r1, r3
 8271 7b98 0030C5E5 		strb	r3, [r5, #0]
 8272 7b9c B00F1FE5 		ldr	r0, .L288+212
 8273 7ba0 FEFFFFEB 		bl	uart_transmit
 8274 7ba4 0010D4E5 		ldrb	r1, [r4, #0]	@ zero_extendqisi2
 8275 7ba8 0030D5E5 		ldrb	r3, [r5, #0]	@ zero_extendqisi2
 8276 7bac 033081E0 		add	r3, r1, r3
 8277 7bb0 0030C5E5 		strb	r3, [r5, #0]
 8278 7bb4 C80F1FE5 		ldr	r0, .L288+212
 8279 7bb8 FEFFFFEB 		bl	uart_transmit
 8280 7bbc 0110D4E5 		ldrb	r1, [r4, #1]	@ zero_extendqisi2
 8281 7bc0 0030D5E5 		ldrb	r3, [r5, #0]	@ zero_extendqisi2
 8282 7bc4 033081E0 		add	r3, r1, r3
 8283 7bc8 0030C5E5 		strb	r3, [r5, #0]
 8284 7bcc E00F1FE5 		ldr	r0, .L288+212
 8285 7bd0 FEFFFFEB 		bl	uart_transmit
 8286 7bd4 0210D4E5 		ldrb	r1, [r4, #2]	@ zero_extendqisi2
 8287 7bd8 0030D5E5 		ldrb	r3, [r5, #0]	@ zero_extendqisi2
 8288 7bdc 033081E0 		add	r3, r1, r3
 8289 7be0 0030C5E5 		strb	r3, [r5, #0]
 8290 7be4 F80F1FE5 		ldr	r0, .L288+212
 8291 7be8 FEFFFFEB 		bl	uart_transmit
 8292 7bec 0310D4E5 		ldrb	r1, [r4, #3]	@ zero_extendqisi2
 8293 7bf0 0030D5E5 		ldrb	r3, [r5, #0]	@ zero_extendqisi2
 8294 7bf4 F44F9FE5 		ldr	r4, .L290
 8295 7bf8 033081E0 		add	r3, r1, r3
 8296 7bfc 0030C5E5 		strb	r3, [r5, #0]
 8297 7c00 EC0F9FE5 		ldr	r0, .L290+4
 8298 7c04 FEFFFFEB 		bl	uart_transmit
 8299 7c08 0010D4E5 		ldrb	r1, [r4, #0]	@ zero_extendqisi2
 8300 7c0c 0030D5E5 		ldrb	r3, [r5, #0]	@ zero_extendqisi2
 8301 7c10 033081E0 		add	r3, r1, r3
 8302 7c14 0030C5E5 		strb	r3, [r5, #0]
 8303 7c18 D40F9FE5 		ldr	r0, .L290+4
 8304 7c1c FEFFFFEB 		bl	uart_transmit
 8305 7c20 0110D4E5 		ldrb	r1, [r4, #1]	@ zero_extendqisi2
 8306 7c24 0030D5E5 		ldrb	r3, [r5, #0]	@ zero_extendqisi2
 8307 7c28 033081E0 		add	r3, r1, r3
 8308 7c2c 0030C5E5 		strb	r3, [r5, #0]
 8309 7c30 BC0F9FE5 		ldr	r0, .L290+4
 8310 7c34 FEFFFFEB 		bl	uart_transmit
 8311 7c38 0210D4E5 		ldrb	r1, [r4, #2]	@ zero_extendqisi2
 8312 7c3c 0030D5E5 		ldrb	r3, [r5, #0]	@ zero_extendqisi2
 8313 7c40 033081E0 		add	r3, r1, r3
 8314 7c44 0030C5E5 		strb	r3, [r5, #0]
 8315 7c48 A40F9FE5 		ldr	r0, .L290+4
 8316 7c4c FEFFFFEB 		bl	uart_transmit
 8317 7c50 0310D4E5 		ldrb	r1, [r4, #3]	@ zero_extendqisi2
 8318 7c54 0030D5E5 		ldrb	r3, [r5, #0]	@ zero_extendqisi2
 8319 7c58 033081E0 		add	r3, r1, r3
 8320 7c5c 0030C5E5 		strb	r3, [r5, #0]
 8321 7c60 8C0F9FE5 		ldr	r0, .L290+4
 8322 7c64 FEFFFFEB 		bl	uart_transmit
 8323 7c68 0030D5E5 		ldrb	r3, [r5, #0]	@ zero_extendqisi2
 8324 7c6c 033087E0 		add	r3, r7, r3
 8325 7c70 0030C5E5 		strb	r3, [r5, #0]
 8326 7c74 0710A0E1 		mov	r1, r7
 8327 7c78 740F9FE5 		ldr	r0, .L290+4
 8328 7c7c FEFFFFEB 		bl	uart_transmit
 8329 7c80 703F9FE5 		ldr	r3, .L290+8
 8330 7c84 0010D3E5 		ldrb	r1, [r3, #0]	@ zero_extendqisi2
 8331 7c88 0030D5E5 		ldrb	r3, [r5, #0]	@ zero_extendqisi2
 8332 7c8c 033081E0 		add	r3, r1, r3
 8333 7c90 0030C5E5 		strb	r3, [r5, #0]
 8334 7c94 580F9FE5 		ldr	r0, .L290+4
 8335 7c98 FEFFFFEB 		bl	uart_transmit
 8336 7c9c 0010D5E5 		ldrb	r1, [r5, #0]	@ zero_extendqisi2
 8337 7ca0 0110E0E1 		mvn	r1, r1
 8338 7ca4 FF1001E2 		and	r1, r1, #255
 8339 7ca8 0010C5E5 		strb	r1, [r5, #0]
 8340 7cac 400F9FE5 		ldr	r0, .L290+4
 8341 7cb0 FEFFFFEB 		bl	uart_transmit
 8342 7cb4 030000EA 		b	.L210
 8343              	.L211:
 8344 7cb8 3C3F9FE5 		ldr	r3, .L290+12
 8345 7cbc 0020D3E5 		ldrb	r2, [r3, #0]	@ zero_extendqisi2
 8346 7cc0 012082E2 		add	r2, r2, #1
 8347 7cc4 0020C3E5 		strb	r2, [r3, #0]
 8348              	.L210:
 8349 7cc8 303F9FE5 		ldr	r3, .L290+16
 8350 7ccc B030D3E1 		ldrh	r3, [r3, #0]
 8351 7cd0 180053E3 		cmp	r3, #24
 8352 7cd4 6700001A 		bne	.L212
 8353 7cd8 140F9FE5 		ldr	r0, .L290+4
 8354 7cdc 1110A0E3 		mov	r1, #17
 8355 7ce0 FEFFFFEB 		bl	uart_check_free_space
 8356 7ce4 000050E3 		cmp	r0, #0
 8357 7ce8 5E00000A 		beq	.L213
 8358 7cec C03F9FE5 		ldr	r3, .L290+196
 8359 7cf0 B020D3E1 		ldrh	r2, [r3, #0]
 8360 7cf4 112082E2 		add	r2, r2, #17
 8361 7cf8 B020C3E1 		strh	r2, [r3, #0]	@ movhi
 8362 7cfc B43F9FE5 		ldr	r3, .L290+200
 8363 7d00 B020D3E1 		ldrh	r2, [r3, #0]
 8364 7d04 012082E2 		add	r2, r2, #1
 8365 7d08 B020C3E1 		strh	r2, [r3, #0]	@ movhi
 8366 7d0c E00E9FE5 		ldr	r0, .L290+4
 8367 7d10 7E10A0E3 		mov	r1, #126
 8368 7d14 A44F9FE5 		ldr	r4, .L290+208
 8369 7d18 FEFFFFEB 		bl	uart_transmit
 8370 7d1c D00E9FE5 		ldr	r0, .L290+4
 8371 7d20 0010A0E3 		mov	r1, #0
 8372 7d24 FEFFFFEB 		bl	uart_transmit
 8373 7d28 0150A0E3 		mov	r5, #1
 8374 7d2c C00E9FE5 		ldr	r0, .L290+4
 8375 7d30 0D10A0E3 		mov	r1, #13
 8376 7d34 FEFFFFEB 		bl	uart_transmit
 8377 7d38 0510A0E1 		mov	r1, r5
 8378 7d3c 0050C4E5 		strb	r5, [r4, #0]
 8379 7d40 AC0E9FE5 		ldr	r0, .L290+4
 8380 7d44 FEFFFFEB 		bl	uart_transmit
 8381 7d48 A40E9FE5 		ldr	r0, .L290+4
 8382 7d4c 0010A0E3 		mov	r1, #0
 8383 7d50 FEFFFFEB 		bl	uart_transmit
 8384 7d54 0030D4E5 		ldrb	r3, [r4, #0]	@ zero_extendqisi2
 8385 7d58 053083E0 		add	r3, r3, r5
 8386 7d5c 0030C4E5 		strb	r3, [r4, #0]
 8387 7d60 0510A0E1 		mov	r1, r5
 8388 7d64 880E9FE5 		ldr	r0, .L290+4
 8389 7d68 FEFFFFEB 		bl	uart_transmit
 8390 7d6c 800E9FE5 		ldr	r0, .L290+4
 8391 7d70 0010A0E3 		mov	r1, #0
 8392 7d74 FEFFFFEB 		bl	uart_transmit
 8393 7d78 740E9FE5 		ldr	r0, .L290+4
 8394 7d7c 0010A0E3 		mov	r1, #0
 8395 7d80 FEFFFFEB 		bl	uart_transmit
 8396 7d84 0030D4E5 		ldrb	r3, [r4, #0]	@ zero_extendqisi2
 8397 7d88 023083E2 		add	r3, r3, #2
 8398 7d8c 0030C4E5 		strb	r3, [r4, #0]
 8399 7d90 5C0E9FE5 		ldr	r0, .L290+4
 8400 7d94 0210A0E3 		mov	r1, #2
 8401 7d98 FEFFFFEB 		bl	uart_transmit
 8402 7d9c 0030D4E5 		ldrb	r3, [r4, #0]	@ zero_extendqisi2
 8403 7da0 0B3083E2 		add	r3, r3, #11
 8404 7da4 0030C4E5 		strb	r3, [r4, #0]
 8405 7da8 440E9FE5 		ldr	r0, .L290+4
 8406 7dac 0B10A0E3 		mov	r1, #11
 8407 7db0 FEFFFFEB 		bl	uart_transmit
 8408 7db4 D43E9FE5 		ldr	r3, .L290+160
 8409 7db8 0010D3E5 		ldrb	r1, [r3, #0]	@ zero_extendqisi2
 8410 7dbc 0030D4E5 		ldrb	r3, [r4, #0]	@ zero_extendqisi2
 8411 7dc0 033081E0 		add	r3, r1, r3
 8412 7dc4 0030C4E5 		strb	r3, [r4, #0]
 8413 7dc8 240E9FE5 		ldr	r0, .L290+4
 8414 7dcc FEFFFFEB 		bl	uart_transmit
 8415 7dd0 2C3E9FE5 		ldr	r3, .L290+20
 8416 7dd4 0010D3E5 		ldrb	r1, [r3, #0]	@ zero_extendqisi2
 8417 7dd8 0030D4E5 		ldrb	r3, [r4, #0]	@ zero_extendqisi2
 8418 7ddc 033081E0 		add	r3, r1, r3
 8419 7de0 0030C4E5 		strb	r3, [r4, #0]
 8420 7de4 080E9FE5 		ldr	r0, .L290+4
 8421 7de8 FEFFFFEB 		bl	uart_transmit
 8422 7dec 143E9FE5 		ldr	r3, .L290+24
 8423 7df0 0010D3E5 		ldrb	r1, [r3, #0]	@ zero_extendqisi2
 8424 7df4 0030D4E5 		ldrb	r3, [r4, #0]	@ zero_extendqisi2
 8425 7df8 033081E0 		add	r3, r1, r3
 8426 7dfc 0030C4E5 		strb	r3, [r4, #0]
 8427 7e00 EC0D9FE5 		ldr	r0, .L290+4
 8428 7e04 FEFFFFEB 		bl	uart_transmit
 8429 7e08 FC3D9FE5 		ldr	r3, .L290+28
 8430 7e0c 0010D3E5 		ldrb	r1, [r3, #0]	@ zero_extendqisi2
 8431 7e10 0030D4E5 		ldrb	r3, [r4, #0]	@ zero_extendqisi2
 8432 7e14 033081E0 		add	r3, r1, r3
 8433 7e18 0030C4E5 		strb	r3, [r4, #0]
 8434 7e1c D00D9FE5 		ldr	r0, .L290+4
 8435 7e20 FEFFFFEB 		bl	uart_transmit
 8436 7e24 C80D9FE5 		ldr	r0, .L290+4
 8437 7e28 0010A0E3 		mov	r1, #0
 8438 7e2c FEFFFFEB 		bl	uart_transmit
 8439 7e30 D83D9FE5 		ldr	r3, .L290+32
 8440 7e34 0010D3E5 		ldrb	r1, [r3, #0]	@ zero_extendqisi2
 8441 7e38 0030D4E5 		ldrb	r3, [r4, #0]	@ zero_extendqisi2
 8442 7e3c 033081E0 		add	r3, r1, r3
 8443 7e40 0030C4E5 		strb	r3, [r4, #0]
 8444 7e44 A80D9FE5 		ldr	r0, .L290+4
 8445 7e48 FEFFFFEB 		bl	uart_transmit
 8446 7e4c 0010D4E5 		ldrb	r1, [r4, #0]	@ zero_extendqisi2
 8447 7e50 0110E0E1 		mvn	r1, r1
 8448 7e54 FF1001E2 		and	r1, r1, #255
 8449 7e58 0010C4E5 		strb	r1, [r4, #0]
 8450 7e5c 900D9FE5 		ldr	r0, .L290+4
 8451 7e60 FEFFFFEB 		bl	uart_transmit
 8452 7e64 030000EA 		b	.L212
 8453              	.L213:
 8454 7e68 8C3D9FE5 		ldr	r3, .L290+12
 8455 7e6c 0020D3E5 		ldrb	r2, [r3, #0]	@ zero_extendqisi2
 8456 7e70 012082E2 		add	r2, r2, #1
 8457 7e74 0020C3E5 		strb	r2, [r3, #0]
 8458              	.L212:
 8459 7e78 943D9FE5 		ldr	r3, .L290+36
 8460 7e7c B050D3E1 		ldrh	r5, [r3, #0]
 8461 7e80 1E0055E3 		cmp	r5, #30
 8462 7e84 6B00001A 		bne	.L214
 8463 7e88 886D9FE5 		ldr	r6, .L290+40
 8464 7e8c 204E9FE5 		ldr	r4, .L290+196
 8465 7e90 B000D6E1 		ldrh	r0, [r6, #0]
 8466 7e94 B070D4E1 		ldrh	r7, [r4, #0]
 8467 7e98 070060E0 		rsb	r0, r0, r7
 8468 7e9c FEFFFFEB 		bl	__aeabi_i2d
 8469 7ea0 742D9FE5 		ldr	r2, .L290+44
 8470 7ea4 743D9FE5 		ldr	r3, .L290+48
 8471 7ea8 FEFFFFEB 		bl	__aeabi_ddiv
 8472 7eac FEFFFFEB 		bl	__aeabi_d2uiz
 8473 7eb0 B070C6E1 		strh	r7, [r6, #0]	@ movhi
 8474 7eb4 BE01CDE1 		strh	r0, [sp, #30]	@ movhi
 8475 7eb8 1010A0E3 		mov	r1, #16
 8476 7ebc 300D9FE5 		ldr	r0, .L290+4
 8477 7ec0 FEFFFFEB 		bl	uart_check_free_space
 8478 7ec4 000050E3 		cmp	r0, #0
 8479 7ec8 5600000A 		beq	.L215
 8480 7ecc B030D4E1 		ldrh	r3, [r4, #0]
 8481 7ed0 E06D9FE5 		ldr	r6, .L290+200
 8482 7ed4 103083E2 		add	r3, r3, #16
 8483 7ed8 B030C4E1 		strh	r3, [r4, #0]	@ movhi
 8484 7edc B030D6E1 		ldrh	r3, [r6, #0]
 8485 7ee0 013083E2 		add	r3, r3, #1
 8486 7ee4 B030C6E1 		strh	r3, [r6, #0]	@ movhi
 8487 7ee8 040D9FE5 		ldr	r0, .L290+4
 8488 7eec 7E10A0E3 		mov	r1, #126
 8489 7ef0 C84D9FE5 		ldr	r4, .L290+208
 8490 7ef4 FEFFFFEB 		bl	uart_transmit
 8491 7ef8 F40C9FE5 		ldr	r0, .L290+4
 8492 7efc 0010A0E3 		mov	r1, #0
 8493 7f00 FEFFFFEB 		bl	uart_transmit
 8494 7f04 0170A0E3 		mov	r7, #1
 8495 7f08 E40C9FE5 		ldr	r0, .L290+4
 8496 7f0c 0C10A0E3 		mov	r1, #12
 8497 7f10 FEFFFFEB 		bl	uart_transmit
 8498 7f14 0710A0E1 		mov	r1, r7
 8499 7f18 0070C4E5 		strb	r7, [r4, #0]
 8500 7f1c D00C9FE5 		ldr	r0, .L290+4
 8501 7f20 FEFFFFEB 		bl	uart_transmit
 8502 7f24 C80C9FE5 		ldr	r0, .L290+4
 8503 7f28 0010A0E3 		mov	r1, #0
 8504 7f2c FEFFFFEB 		bl	uart_transmit
 8505 7f30 0030D4E5 		ldrb	r3, [r4, #0]	@ zero_extendqisi2
 8506 7f34 073083E0 		add	r3, r3, r7
 8507 7f38 0030C4E5 		strb	r3, [r4, #0]
 8508 7f3c 0710A0E1 		mov	r1, r7
 8509 7f40 AC0C9FE5 		ldr	r0, .L290+4
 8510 7f44 FEFFFFEB 		bl	uart_transmit
 8511 7f48 A40C9FE5 		ldr	r0, .L290+4
 8512 7f4c 0010A0E3 		mov	r1, #0
 8513 7f50 FEFFFFEB 		bl	uart_transmit
 8514 7f54 980C9FE5 		ldr	r0, .L290+4
 8515 7f58 0010A0E3 		mov	r1, #0
 8516 7f5c FEFFFFEB 		bl	uart_transmit
 8517 7f60 0030D4E5 		ldrb	r3, [r4, #0]	@ zero_extendqisi2
 8518 7f64 023083E2 		add	r3, r3, #2
 8519 7f68 0030C4E5 		strb	r3, [r4, #0]
 8520 7f6c 800C9FE5 		ldr	r0, .L290+4
 8521 7f70 0210A0E3 		mov	r1, #2
 8522 7f74 FEFFFFEB 		bl	uart_transmit
 8523 7f78 0030D4E5 		ldrb	r3, [r4, #0]	@ zero_extendqisi2
 8524 7f7c 1E3083E2 		add	r3, r3, #30
 8525 7f80 0030C4E5 		strb	r3, [r4, #0]
 8526 7f84 0510A0E1 		mov	r1, r5
 8527 7f88 640C9FE5 		ldr	r0, .L290+4
 8528 7f8c FEFFFFEB 		bl	uart_transmit
 8529 7f90 643C9FE5 		ldr	r3, .L290+12
 8530 7f94 0010D3E5 		ldrb	r1, [r3, #0]	@ zero_extendqisi2
 8531 7f98 0030D4E5 		ldrb	r3, [r4, #0]	@ zero_extendqisi2
 8532 7f9c 033081E0 		add	r3, r1, r3
 8533 7fa0 0030C4E5 		strb	r3, [r4, #0]
 8534 7fa4 480C9FE5 		ldr	r0, .L290+4
 8535 7fa8 FEFFFFEB 		bl	uart_transmit
 8536 7fac 1E10DDE5 		ldrb	r1, [sp, #30]	@ zero_extendqisi2
 8537 7fb0 0030D4E5 		ldrb	r3, [r4, #0]	@ zero_extendqisi2
 8538 7fb4 033081E0 		add	r3, r1, r3
 8539 7fb8 0030C4E5 		strb	r3, [r4, #0]
 8540 7fbc 300C9FE5 		ldr	r0, .L290+4
 8541 7fc0 FEFFFFEB 		bl	uart_transmit
 8542 7fc4 1F10DDE5 		ldrb	r1, [sp, #31]	@ zero_extendqisi2
 8543 7fc8 0030D4E5 		ldrb	r3, [r4, #0]	@ zero_extendqisi2
 8544 7fcc 033081E0 		add	r3, r1, r3
 8545 7fd0 0030C4E5 		strb	r3, [r4, #0]
 8546 7fd4 180C9FE5 		ldr	r0, .L290+4
 8547 7fd8 FEFFFFEB 		bl	uart_transmit
 8548 7fdc 0010D6E5 		ldrb	r1, [r6, #0]	@ zero_extendqisi2
 8549 7fe0 0030D4E5 		ldrb	r3, [r4, #0]	@ zero_extendqisi2
 8550 7fe4 033081E0 		add	r3, r1, r3
 8551 7fe8 0030C4E5 		strb	r3, [r4, #0]
 8552 7fec 000C9FE5 		ldr	r0, .L290+4
 8553 7ff0 FEFFFFEB 		bl	uart_transmit
 8554 7ff4 0110D6E5 		ldrb	r1, [r6, #1]	@ zero_extendqisi2
 8555 7ff8 0030D4E5 		ldrb	r3, [r4, #0]	@ zero_extendqisi2
 8556 7ffc 033081E0 		add	r3, r1, r3
 8557 8000 0030C4E5 		strb	r3, [r4, #0]
 8558 8004 E80B9FE5 		ldr	r0, .L290+4
 8559 8008 FEFFFFEB 		bl	uart_transmit
 8560 800c 0010D4E5 		ldrb	r1, [r4, #0]	@ zero_extendqisi2
 8561 8010 0110E0E1 		mvn	r1, r1
 8562 8014 FF1001E2 		and	r1, r1, #255
 8563 8018 0010C4E5 		strb	r1, [r4, #0]
 8564 801c D00B9FE5 		ldr	r0, .L290+4
 8565 8020 FEFFFFEB 		bl	uart_transmit
 8566 8024 030000EA 		b	.L214
 8567              	.L215:
 8568 8028 CC3B9FE5 		ldr	r3, .L290+12
 8569 802c 0020D3E5 		ldrb	r2, [r3, #0]	@ zero_extendqisi2
 8570 8030 012082E2 		add	r2, r2, #1
 8571 8034 0020C3E5 		strb	r2, [r3, #0]
 8572              	.L214:
 8573 8038 E43B9FE5 		ldr	r3, .L290+52
 8574 803c B030D3E1 		ldrh	r3, [r3, #0]
 8575 8040 240053E3 		cmp	r3, #36
 8576 8044 6500001A 		bne	.L216
 8577 8048 5C3C9FE5 		ldr	r3, .L290+188
 8578 804c F661D3E1 		ldrsh	r6, [r3, #22]
 8579 8050 F421D3E1 		ldrsh	r2, [r3, #20]
 8580 8054 F831D3E1 		ldrsh	r3, [r3, #24]
 8581 8058 000052E3 		cmp	r2, #0
 8582 805c 002062B2 		rsblt	r2, r2, #0
 8583 8060 000056E3 		cmp	r6, #0
 8584 8064 006066B2 		rsblt	r6, r6, #0
 8585 8068 000053E3 		cmp	r3, #0
 8586 806c 003063B2 		rsblt	r3, r3, #0
 8587 8070 026086E0 		add	r6, r6, r2
 8588 8074 036086E0 		add	r6, r6, r3
 8589 8078 0668A0E1 		mov	r6, r6, asl #16
 8590 807c 2668A0E1 		mov	r6, r6, lsr #16
 8591 8080 310056E3 		cmp	r6, #49
 8592 8084 680B9FE5 		ldr	r0, .L290+4
 8593 8088 0E10A0E3 		mov	r1, #14
 8594 808c BE61CDE1 		strh	r6, [sp, #30]	@ movhi
 8595 8090 0760A093 		movls	r6, #7
 8596 8094 0360A083 		movhi	r6, #3
 8597 8098 FEFFFFEB 		bl	uart_check_free_space
 8598 809c 000050E3 		cmp	r0, #0
 8599 80a0 4A00000A 		beq	.L218
 8600 80a4 083C9FE5 		ldr	r3, .L290+196
 8601 80a8 B020D3E1 		ldrh	r2, [r3, #0]
 8602 80ac 0E2082E2 		add	r2, r2, #14
 8603 80b0 B020C3E1 		strh	r2, [r3, #0]	@ movhi
 8604 80b4 FC3B9FE5 		ldr	r3, .L290+200
 8605 80b8 B020D3E1 		ldrh	r2, [r3, #0]
 8606 80bc 012082E2 		add	r2, r2, #1
 8607 80c0 B020C3E1 		strh	r2, [r3, #0]	@ movhi
 8608 80c4 280B9FE5 		ldr	r0, .L290+4
 8609 80c8 7E10A0E3 		mov	r1, #126
 8610 80cc EC4B9FE5 		ldr	r4, .L290+208
 8611 80d0 FEFFFFEB 		bl	uart_transmit
 8612 80d4 180B9FE5 		ldr	r0, .L290+4
 8613 80d8 0010A0E3 		mov	r1, #0
 8614 80dc FEFFFFEB 		bl	uart_transmit
 8615 80e0 0150A0E3 		mov	r5, #1
 8616 80e4 080B9FE5 		ldr	r0, .L290+4
 8617 80e8 0A10A0E3 		mov	r1, #10
 8618 80ec FEFFFFEB 		bl	uart_transmit
 8619 80f0 0510A0E1 		mov	r1, r5
 8620 80f4 0050C4E5 		strb	r5, [r4, #0]
 8621 80f8 F40A9FE5 		ldr	r0, .L290+4
 8622 80fc FEFFFFEB 		bl	uart_transmit
 8623 8100 EC0A9FE5 		ldr	r0, .L290+4
 8624 8104 0010A0E3 		mov	r1, #0
 8625 8108 FEFFFFEB 		bl	uart_transmit
 8626 810c 0030D4E5 		ldrb	r3, [r4, #0]	@ zero_extendqisi2
 8627 8110 053083E0 		add	r3, r3, r5
 8628 8114 0030C4E5 		strb	r3, [r4, #0]
 8629 8118 0510A0E1 		mov	r1, r5
 8630 811c D00A9FE5 		ldr	r0, .L290+4
 8631 8120 FEFFFFEB 		bl	uart_transmit
 8632 8124 C80A9FE5 		ldr	r0, .L290+4
 8633 8128 0010A0E3 		mov	r1, #0
 8634 812c FEFFFFEB 		bl	uart_transmit
 8635 8130 BC0A9FE5 		ldr	r0, .L290+4
 8636 8134 0010A0E3 		mov	r1, #0
 8637 8138 FEFFFFEB 		bl	uart_transmit
 8638 813c 0030D4E5 		ldrb	r3, [r4, #0]	@ zero_extendqisi2
 8639 8140 023083E2 		add	r3, r3, #2
 8640 8144 0030C4E5 		strb	r3, [r4, #0]
 8641 8148 A40A9FE5 		ldr	r0, .L290+4
 8642 814c 0210A0E3 		mov	r1, #2
 8643 8150 FEFFFFEB 		bl	uart_transmit
 8644 8154 0030D4E5 		ldrb	r3, [r4, #0]	@ zero_extendqisi2
 8645 8158 183043E2 		sub	r3, r3, #24
 8646 815c 0030C4E5 		strb	r3, [r4, #0]
 8647 8160 8C0A9FE5 		ldr	r0, .L290+4
 8648 8164 E810A0E3 		mov	r1, #232
 8649 8168 FEFFFFEB 		bl	uart_transmit
 8650 816c 0030D4E5 		ldrb	r3, [r4, #0]	@ zero_extendqisi2
 8651 8170 033086E0 		add	r3, r6, r3
 8652 8174 0030C4E5 		strb	r3, [r4, #0]
 8653 8178 0610A0E1 		mov	r1, r6
 8654 817c 700A9FE5 		ldr	r0, .L290+4
 8655 8180 FEFFFFEB 		bl	uart_transmit
 8656 8184 1E10DDE5 		ldrb	r1, [sp, #30]	@ zero_extendqisi2
 8657 8188 0030D4E5 		ldrb	r3, [r4, #0]	@ zero_extendqisi2
 8658 818c 033081E0 		add	r3, r1, r3
 8659 8190 0030C4E5 		strb	r3, [r4, #0]
 8660 8194 580A9FE5 		ldr	r0, .L290+4
 8661 8198 FEFFFFEB 		bl	uart_transmit
 8662 819c 1F10DDE5 		ldrb	r1, [sp, #31]	@ zero_extendqisi2
 8663 81a0 0030D4E5 		ldrb	r3, [r4, #0]	@ zero_extendqisi2
 8664 81a4 033081E0 		add	r3, r1, r3
 8665 81a8 0030C4E5 		strb	r3, [r4, #0]
 8666 81ac 400A9FE5 		ldr	r0, .L290+4
 8667 81b0 FEFFFFEB 		bl	uart_transmit
 8668 81b4 0010D4E5 		ldrb	r1, [r4, #0]	@ zero_extendqisi2
 8669 81b8 0110E0E1 		mvn	r1, r1
 8670 81bc FF1001E2 		and	r1, r1, #255
 8671 81c0 0010C4E5 		strb	r1, [r4, #0]
 8672 81c4 280A9FE5 		ldr	r0, .L290+4
 8673 81c8 FEFFFFEB 		bl	uart_transmit
 8674 81cc 030000EA 		b	.L216
 8675              	.L218:
 8676 81d0 243A9FE5 		ldr	r3, .L290+12
 8677 81d4 0020D3E5 		ldrb	r2, [r3, #0]	@ zero_extendqisi2
 8678 81d8 012082E2 		add	r2, r2, #1
 8679 81dc 0020C3E5 		strb	r2, [r3, #0]
 8680              	.L216:
 8681 81e0 403A9FE5 		ldr	r3, .L290+56
 8682 81e4 B030D3E1 		ldrh	r3, [r3, #0]
 8683 81e8 2A0053E3 		cmp	r3, #42
 8684 81ec A400001A 		bne	.L219
 8685 81f0 343A9FE5 		ldr	r3, .L290+60
 8686 81f4 0A10A0E3 		mov	r1, #10
 8687 81f8 000093E5 		ldr	r0, [r3, #0]
 8688 81fc FEFFFFEB 		bl	__aeabi_idiv
 8689 8200 283A9FE5 		ldr	r3, .L290+64
 8690 8204 BE01CDE1 		strh	r0, [sp, #30]	@ movhi
 8691 8208 000093E5 		ldr	r0, [r3, #0]	@ float
 8692 820c FEFFFFEB 		bl	__aeabi_f2iz
 8693 8210 1910A0E3 		mov	r1, #25
 8694 8214 BC01CDE1 		strh	r0, [sp, #28]	@ movhi
 8695 8218 D4099FE5 		ldr	r0, .L290+4
 8696 821c FEFFFFEB 		bl	uart_check_free_space
 8697 8220 000050E3 		cmp	r0, #0
 8698 8224 9200000A 		beq	.L220
 8699 8228 843A9FE5 		ldr	r3, .L290+196
 8700 822c B020D3E1 		ldrh	r2, [r3, #0]
 8701 8230 192082E2 		add	r2, r2, #25
 8702 8234 B020C3E1 		strh	r2, [r3, #0]	@ movhi
 8703 8238 783A9FE5 		ldr	r3, .L290+200
 8704 823c B020D3E1 		ldrh	r2, [r3, #0]
 8705 8240 012082E2 		add	r2, r2, #1
 8706 8244 B020C3E1 		strh	r2, [r3, #0]	@ movhi
 8707 8248 A4099FE5 		ldr	r0, .L290+4
 8708 824c 7E10A0E3 		mov	r1, #126
 8709 8250 684A9FE5 		ldr	r4, .L290+208
 8710 8254 FEFFFFEB 		bl	uart_transmit
 8711 8258 94099FE5 		ldr	r0, .L290+4
 8712 825c 0010A0E3 		mov	r1, #0
 8713 8260 FEFFFFEB 		bl	uart_transmit
 8714 8264 0150A0E3 		mov	r5, #1
 8715 8268 84099FE5 		ldr	r0, .L290+4
 8716 826c 1510A0E3 		mov	r1, #21
 8717 8270 FEFFFFEB 		bl	uart_transmit
 8718 8274 0050C4E5 		strb	r5, [r4, #0]
 8719 8278 0510A0E1 		mov	r1, r5
 8720 827c 70099FE5 		ldr	r0, .L290+4
 8721 8280 FEFFFFEB 		bl	uart_transmit
 8722 8284 68099FE5 		ldr	r0, .L290+4
 8723 8288 0010A0E3 		mov	r1, #0
 8724 828c FEFFFFEB 		bl	uart_transmit
 8725 8290 0030D4E5 		ldrb	r3, [r4, #0]	@ zero_extendqisi2
 8726 8294 053083E0 		add	r3, r3, r5
 8727 8298 0030C4E5 		strb	r3, [r4, #0]
 8728 829c 0510A0E1 		mov	r1, r5
 8729 82a0 4C099FE5 		ldr	r0, .L290+4
 8730 82a4 FEFFFFEB 		bl	uart_transmit
 8731 82a8 44099FE5 		ldr	r0, .L290+4
 8732 82ac 0010A0E3 		mov	r1, #0
 8733 82b0 FEFFFFEB 		bl	uart_transmit
 8734 82b4 38099FE5 		ldr	r0, .L290+4
 8735 82b8 0010A0E3 		mov	r1, #0
 8736 82bc FEFFFFEB 		bl	uart_transmit
 8737 82c0 0030D4E5 		ldrb	r3, [r4, #0]	@ zero_extendqisi2
 8738 82c4 023083E2 		add	r3, r3, #2
 8739 82c8 0030C4E5 		strb	r3, [r4, #0]
 8740 82cc 20099FE5 		ldr	r0, .L290+4
 8741 82d0 0210A0E3 		mov	r1, #2
 8742 82d4 FEFFFFEB 		bl	uart_transmit
 8743 82d8 0030D4E5 		ldrb	r3, [r4, #0]	@ zero_extendqisi2
 8744 82dc 50599FE5 		ldr	r5, .L290+68
 8745 82e0 0C3083E2 		add	r3, r3, #12
 8746 82e4 0030C4E5 		strb	r3, [r4, #0]
 8747 82e8 04099FE5 		ldr	r0, .L290+4
 8748 82ec 0C10A0E3 		mov	r1, #12
 8749 82f0 FEFFFFEB 		bl	uart_transmit
 8750 82f4 0010D5E5 		ldrb	r1, [r5, #0]	@ zero_extendqisi2
 8751 82f8 0030D4E5 		ldrb	r3, [r4, #0]	@ zero_extendqisi2
 8752 82fc 033081E0 		add	r3, r1, r3
 8753 8300 0030C4E5 		strb	r3, [r4, #0]
 8754 8304 E8089FE5 		ldr	r0, .L290+4
 8755 8308 FEFFFFEB 		bl	uart_transmit
 8756 830c 0110D5E5 		ldrb	r1, [r5, #1]	@ zero_extendqisi2
 8757 8310 0030D4E5 		ldrb	r3, [r4, #0]	@ zero_extendqisi2
 8758 8314 033081E0 		add	r3, r1, r3
 8759 8318 0030C4E5 		strb	r3, [r4, #0]
 8760 831c D0089FE5 		ldr	r0, .L290+4
 8761 8320 FEFFFFEB 		bl	uart_transmit
 8762 8324 0C399FE5 		ldr	r3, .L290+72
 8763 8328 0010D3E5 		ldrb	r1, [r3, #0]	@ zero_extendqisi2
 8764 832c 0030D4E5 		ldrb	r3, [r4, #0]	@ zero_extendqisi2
 8765 8330 033081E0 		add	r3, r1, r3
 8766 8334 0030C4E5 		strb	r3, [r4, #0]
 8767 8338 B4089FE5 		ldr	r0, .L290+4
 8768 833c FEFFFFEB 		bl	uart_transmit
 8769 8340 1E10DDE5 		ldrb	r1, [sp, #30]	@ zero_extendqisi2
 8770 8344 0030D4E5 		ldrb	r3, [r4, #0]	@ zero_extendqisi2
 8771 8348 033081E0 		add	r3, r1, r3
 8772 834c 0030C4E5 		strb	r3, [r4, #0]
 8773 8350 9C089FE5 		ldr	r0, .L290+4
 8774 8354 FEFFFFEB 		bl	uart_transmit
 8775 8358 1F10DDE5 		ldrb	r1, [sp, #31]	@ zero_extendqisi2
 8776 835c 0030D4E5 		ldrb	r3, [r4, #0]	@ zero_extendqisi2
 8777 8360 20599FE5 		ldr	r5, .L290+152
 8778 8364 033081E0 		add	r3, r1, r3
 8779 8368 0030C4E5 		strb	r3, [r4, #0]
 8780 836c 80089FE5 		ldr	r0, .L290+4
 8781 8370 FEFFFFEB 		bl	uart_transmit
 8782 8374 0010D5E5 		ldrb	r1, [r5, #0]	@ zero_extendqisi2
 8783 8378 0030D4E5 		ldrb	r3, [r4, #0]	@ zero_extendqisi2
 8784 837c 033081E0 		add	r3, r1, r3
 8785 8380 0030C4E5 		strb	r3, [r4, #0]
 8786 8384 68089FE5 		ldr	r0, .L290+4
 8787 8388 FEFFFFEB 		bl	uart_transmit
 8788 838c 0110D5E5 		ldrb	r1, [r5, #1]	@ zero_extendqisi2
 8789 8390 0030D4E5 		ldrb	r3, [r4, #0]	@ zero_extendqisi2
 8790 8394 033081E0 		add	r3, r1, r3
 8791 8398 0030C4E5 		strb	r3, [r4, #0]
 8792 839c 50089FE5 		ldr	r0, .L290+4
 8793 83a0 FEFFFFEB 		bl	uart_transmit
 8794 83a4 EC389FE5 		ldr	r3, .L290+168
 8795 83a8 0010D3E5 		ldrb	r1, [r3, #0]	@ zero_extendqisi2
 8796 83ac 0030D4E5 		ldrb	r3, [r4, #0]	@ zero_extendqisi2
 8797 83b0 84589FE5 		ldr	r5, .L290+76
 8798 83b4 033081E0 		add	r3, r1, r3
 8799 83b8 0030C4E5 		strb	r3, [r4, #0]
 8800 83bc 30089FE5 		ldr	r0, .L290+4
 8801 83c0 FEFFFFEB 		bl	uart_transmit
 8802 83c4 0010D5E5 		ldrb	r1, [r5, #0]	@ zero_extendqisi2
 8803 83c8 0030D4E5 		ldrb	r3, [r4, #0]	@ zero_extendqisi2
 8804 83cc 033081E0 		add	r3, r1, r3
 8805 83d0 0030C4E5 		strb	r3, [r4, #0]
 8806 83d4 18089FE5 		ldr	r0, .L290+4
 8807 83d8 FEFFFFEB 		bl	uart_transmit
 8808 83dc 0110D5E5 		ldrb	r1, [r5, #1]	@ zero_extendqisi2
 8809 83e0 0030D4E5 		ldrb	r3, [r4, #0]	@ zero_extendqisi2
 8810 83e4 54589FE5 		ldr	r5, .L290+80
 8811 83e8 033081E0 		add	r3, r1, r3
 8812 83ec 0030C4E5 		strb	r3, [r4, #0]
 8813 83f0 FC079FE5 		ldr	r0, .L290+4
 8814 83f4 FEFFFFEB 		bl	uart_transmit
 8815 83f8 0010D5E5 		ldrb	r1, [r5, #0]	@ zero_extendqisi2
 8816 83fc 0030D4E5 		ldrb	r3, [r4, #0]	@ zero_extendqisi2
 8817 8400 033081E0 		add	r3, r1, r3
 8818 8404 0030C4E5 		strb	r3, [r4, #0]
 8819 8408 E4079FE5 		ldr	r0, .L290+4
 8820 840c FEFFFFEB 		bl	uart_transmit
 8821 8410 0110D5E5 		ldrb	r1, [r5, #1]	@ zero_extendqisi2
 8822 8414 0030D4E5 		ldrb	r3, [r4, #0]	@ zero_extendqisi2
 8823 8418 033081E0 		add	r3, r1, r3
 8824 841c 0030C4E5 		strb	r3, [r4, #0]
 8825 8420 CC079FE5 		ldr	r0, .L290+4
 8826 8424 FEFFFFEB 		bl	uart_transmit
 8827 8428 1C10DDE5 		ldrb	r1, [sp, #28]	@ zero_extendqisi2
 8828 842c 0030D4E5 		ldrb	r3, [r4, #0]	@ zero_extendqisi2
 8829 8430 033081E0 		add	r3, r1, r3
 8830 8434 0030C4E5 		strb	r3, [r4, #0]
 8831 8438 B4079FE5 		ldr	r0, .L290+4
 8832 843c FEFFFFEB 		bl	uart_transmit
 8833 8440 1D10DDE5 		ldrb	r1, [sp, #29]	@ zero_extendqisi2
 8834 8444 0030D4E5 		ldrb	r3, [r4, #0]	@ zero_extendqisi2
 8835 8448 033081E0 		add	r3, r1, r3
 8836 844c 0030C4E5 		strb	r3, [r4, #0]
 8837 8450 9C079FE5 		ldr	r0, .L290+4
 8838 8454 FEFFFFEB 		bl	uart_transmit
 8839 8458 0010D4E5 		ldrb	r1, [r4, #0]	@ zero_extendqisi2
 8840 845c 0110E0E1 		mvn	r1, r1
 8841 8460 FF1001E2 		and	r1, r1, #255
 8842 8464 0010C4E5 		strb	r1, [r4, #0]
 8843 8468 84079FE5 		ldr	r0, .L290+4
 8844 846c FEFFFFEB 		bl	uart_transmit
 8845 8470 030000EA 		b	.L219
 8846              	.L220:
 8847 8474 80379FE5 		ldr	r3, .L290+12
 8848 8478 0020D3E5 		ldrb	r2, [r3, #0]	@ zero_extendqisi2
 8849 847c 012082E2 		add	r2, r2, #1
 8850 8480 0020C3E5 		strb	r2, [r3, #0]
 8851              	.L219:
 8852 8484 B8379FE5 		ldr	r3, .L290+84
 8853 8488 B030D3E1 		ldrh	r3, [r3, #0]
 8854 848c 300053E3 		cmp	r3, #48
 8855 8490 0A01001A 		bne	.L188
 8856 8494 AC379FE5 		ldr	r3, .L290+88
 8857 8498 54079FE5 		ldr	r0, .L290+4
 8858 849c 2B10A0E3 		mov	r1, #43
 8859 84a0 10308DE5 		str	r3, [sp, #16]	@ float
 8860 84a4 FEFFFFEB 		bl	uart_check_free_space
 8861 84a8 000050E3 		cmp	r0, #0
 8862 84ac FF00000A 		beq	.L221
 8863 84b0 FC379FE5 		ldr	r3, .L290+196
 8864 84b4 B020D3E1 		ldrh	r2, [r3, #0]
 8865 84b8 2B2082E2 		add	r2, r2, #43
 8866 84bc B020C3E1 		strh	r2, [r3, #0]	@ movhi
 8867 84c0 F0379FE5 		ldr	r3, .L290+200
 8868 84c4 B020D3E1 		ldrh	r2, [r3, #0]
 8869 84c8 012082E2 		add	r2, r2, #1
 8870 84cc B020C3E1 		strh	r2, [r3, #0]	@ movhi
 8871 84d0 1C079FE5 		ldr	r0, .L290+4
 8872 84d4 7E10A0E3 		mov	r1, #126
 8873 84d8 E0479FE5 		ldr	r4, .L290+208
 8874 84dc FEFFFFEB 		bl	uart_transmit
 8875 84e0 0C079FE5 		ldr	r0, .L290+4
 8876 84e4 0010A0E3 		mov	r1, #0
 8877 84e8 FEFFFFEB 		bl	uart_transmit
 8878 84ec 0150A0E3 		mov	r5, #1
 8879 84f0 FC069FE5 		ldr	r0, .L290+4
 8880 84f4 2710A0E3 		mov	r1, #39
 8881 84f8 FEFFFFEB 		bl	uart_transmit
 8882 84fc 0050C4E5 		strb	r5, [r4, #0]
 8883 8500 0510A0E1 		mov	r1, r5
 8884 8504 E8069FE5 		ldr	r0, .L290+4
 8885 8508 FEFFFFEB 		bl	uart_transmit
 8886 850c E0069FE5 		ldr	r0, .L290+4
 8887 8510 0010A0E3 		mov	r1, #0
 8888 8514 FEFFFFEB 		bl	uart_transmit
 8889 8518 0030D4E5 		ldrb	r3, [r4, #0]	@ zero_extendqisi2
 8890 851c 053083E0 		add	r3, r3, r5
 8891 8520 0030C4E5 		strb	r3, [r4, #0]
 8892 8524 0510A0E1 		mov	r1, r5
 8893 8528 C4069FE5 		ldr	r0, .L290+4
 8894 852c FEFFFFEB 		bl	uart_transmit
 8895 8530 BC069FE5 		ldr	r0, .L290+4
 8896 8534 0010A0E3 		mov	r1, #0
 8897 8538 FEFFFFEB 		bl	uart_transmit
 8898 853c B0069FE5 		ldr	r0, .L290+4
 8899 8540 0010A0E3 		mov	r1, #0
 8900 8544 FEFFFFEB 		bl	uart_transmit
 8901 8548 0030D4E5 		ldrb	r3, [r4, #0]	@ zero_extendqisi2
 8902 854c 023083E2 		add	r3, r3, #2
 8903 8550 0030C4E5 		strb	r3, [r4, #0]
 8904 8554 98069FE5 		ldr	r0, .L290+4
 8905 8558 0210A0E3 		mov	r1, #2
 8906 855c FEFFFFEB 		bl	uart_transmit
 8907 8560 0030D4E5 		ldrb	r3, [r4, #0]	@ zero_extendqisi2
 8908 8564 E0569FE5 		ldr	r5, .L290+92
 8909 8568 103083E2 		add	r3, r3, #16
 8910 856c 0030C4E5 		strb	r3, [r4, #0]
 8911 8570 7C069FE5 		ldr	r0, .L290+4
 8912 8574 1010A0E3 		mov	r1, #16
 8913 8578 FEFFFFEB 		bl	uart_transmit
 8914 857c 0010D5E5 		ldrb	r1, [r5, #0]	@ zero_extendqisi2
 8915 8580 0030D4E5 		ldrb	r3, [r4, #0]	@ zero_extendqisi2
 8916 8584 033081E0 		add	r3, r1, r3
 8917 8588 0030C4E5 		strb	r3, [r4, #0]
 8918 858c 60069FE5 		ldr	r0, .L290+4
 8919 8590 FEFFFFEB 		bl	uart_transmit
 8920 8594 0110D5E5 		ldrb	r1, [r5, #1]	@ zero_extendqisi2
 8921 8598 0030D4E5 		ldrb	r3, [r4, #0]	@ zero_extendqisi2
 8922 859c 033081E0 		add	r3, r1, r3
 8923 85a0 0030C4E5 		strb	r3, [r4, #0]
 8924 85a4 48069FE5 		ldr	r0, .L290+4
 8925 85a8 FEFFFFEB 		bl	uart_transmit
 8926 85ac 0210D5E5 		ldrb	r1, [r5, #2]	@ zero_extendqisi2
 8927 85b0 0030D4E5 		ldrb	r3, [r4, #0]	@ zero_extendqisi2
 8928 85b4 033081E0 		add	r3, r1, r3
 8929 85b8 0030C4E5 		strb	r3, [r4, #0]
 8930 85bc 30069FE5 		ldr	r0, .L290+4
 8931 85c0 FEFFFFEB 		bl	uart_transmit
 8932 85c4 0310D5E5 		ldrb	r1, [r5, #3]	@ zero_extendqisi2
 8933 85c8 0030D4E5 		ldrb	r3, [r4, #0]	@ zero_extendqisi2
 8934 85cc 7C569FE5 		ldr	r5, .L290+96
 8935 85d0 033081E0 		add	r3, r1, r3
 8936 85d4 0030C4E5 		strb	r3, [r4, #0]
 8937 85d8 14069FE5 		ldr	r0, .L290+4
 8938 85dc FEFFFFEB 		bl	uart_transmit
 8939 85e0 0010D5E5 		ldrb	r1, [r5, #0]	@ zero_extendqisi2
 8940 85e4 0030D4E5 		ldrb	r3, [r4, #0]	@ zero_extendqisi2
 8941 85e8 033081E0 		add	r3, r1, r3
 8942 85ec 0030C4E5 		strb	r3, [r4, #0]
 8943 85f0 FC059FE5 		ldr	r0, .L290+4
 8944 85f4 FEFFFFEB 		bl	uart_transmit
 8945 85f8 0110D5E5 		ldrb	r1, [r5, #1]	@ zero_extendqisi2
 8946 85fc 0030D4E5 		ldrb	r3, [r4, #0]	@ zero_extendqisi2
 8947 8600 033081E0 		add	r3, r1, r3
 8948 8604 0030C4E5 		strb	r3, [r4, #0]
 8949 8608 E4059FE5 		ldr	r0, .L290+4
 8950 860c FEFFFFEB 		bl	uart_transmit
 8951 8610 0210D5E5 		ldrb	r1, [r5, #2]	@ zero_extendqisi2
 8952 8614 0030D4E5 		ldrb	r3, [r4, #0]	@ zero_extendqisi2
 8953 8618 033081E0 		add	r3, r1, r3
 8954 861c 0030C4E5 		strb	r3, [r4, #0]
 8955 8620 CC059FE5 		ldr	r0, .L290+4
 8956 8624 FEFFFFEB 		bl	uart_transmit
 8957 8628 0310D5E5 		ldrb	r1, [r5, #3]	@ zero_extendqisi2
 8958 862c 0030D4E5 		ldrb	r3, [r4, #0]	@ zero_extendqisi2
 8959 8630 1C569FE5 		ldr	r5, .L290+100
 8960 8634 033081E0 		add	r3, r1, r3
 8961 8638 0030C4E5 		strb	r3, [r4, #0]
 8962 863c B0059FE5 		ldr	r0, .L290+4
 8963 8640 FEFFFFEB 		bl	uart_transmit
 8964 8644 0010D5E5 		ldrb	r1, [r5, #0]	@ zero_extendqisi2
 8965 8648 0030D4E5 		ldrb	r3, [r4, #0]	@ zero_extendqisi2
 8966 864c 033081E0 		add	r3, r1, r3
 8967 8650 0030C4E5 		strb	r3, [r4, #0]
 8968 8654 98059FE5 		ldr	r0, .L290+4
 8969 8658 FEFFFFEB 		bl	uart_transmit
 8970 865c 0110D5E5 		ldrb	r1, [r5, #1]	@ zero_extendqisi2
 8971 8660 0030D4E5 		ldrb	r3, [r4, #0]	@ zero_extendqisi2
 8972 8664 033081E0 		add	r3, r1, r3
 8973 8668 0030C4E5 		strb	r3, [r4, #0]
 8974 866c 80059FE5 		ldr	r0, .L290+4
 8975 8670 FEFFFFEB 		bl	uart_transmit
 8976 8674 0210D5E5 		ldrb	r1, [r5, #2]	@ zero_extendqisi2
 8977 8678 0030D4E5 		ldrb	r3, [r4, #0]	@ zero_extendqisi2
 8978 867c 033081E0 		add	r3, r1, r3
 8979 8680 0030C4E5 		strb	r3, [r4, #0]
 8980 8684 68059FE5 		ldr	r0, .L290+4
 8981 8688 FEFFFFEB 		bl	uart_transmit
 8982 868c 0310D5E5 		ldrb	r1, [r5, #3]	@ zero_extendqisi2
 8983 8690 0030D4E5 		ldrb	r3, [r4, #0]	@ zero_extendqisi2
 8984 8694 BC559FE5 		ldr	r5, .L290+104
 8985 8698 033081E0 		add	r3, r1, r3
 8986 869c 0030C4E5 		strb	r3, [r4, #0]
 8987 86a0 4C059FE5 		ldr	r0, .L290+4
 8988 86a4 FEFFFFEB 		bl	uart_transmit
 8989 86a8 0010D5E5 		ldrb	r1, [r5, #0]	@ zero_extendqisi2
 8990 86ac 0030D4E5 		ldrb	r3, [r4, #0]	@ zero_extendqisi2
 8991 86b0 033081E0 		add	r3, r1, r3
 8992 86b4 0030C4E5 		strb	r3, [r4, #0]
 8993 86b8 34059FE5 		ldr	r0, .L290+4
 8994 86bc FEFFFFEB 		bl	uart_transmit
 8995 86c0 0110D5E5 		ldrb	r1, [r5, #1]	@ zero_extendqisi2
 8996 86c4 0030D4E5 		ldrb	r3, [r4, #0]	@ zero_extendqisi2
 8997 86c8 033081E0 		add	r3, r1, r3
 8998 86cc 0030C4E5 		strb	r3, [r4, #0]
 8999 86d0 1C059FE5 		ldr	r0, .L290+4
 9000 86d4 FEFFFFEB 		bl	uart_transmit
 9001 86d8 0210D5E5 		ldrb	r1, [r5, #2]	@ zero_extendqisi2
 9002 86dc 0030D4E5 		ldrb	r3, [r4, #0]	@ zero_extendqisi2
 9003 86e0 033081E0 		add	r3, r1, r3
 9004 86e4 0030C4E5 		strb	r3, [r4, #0]
 9005 86e8 04059FE5 		ldr	r0, .L290+4
 9006 86ec FEFFFFEB 		bl	uart_transmit
 9007 86f0 0310D5E5 		ldrb	r1, [r5, #3]	@ zero_extendqisi2
 9008 86f4 0030D4E5 		ldrb	r3, [r4, #0]	@ zero_extendqisi2
 9009 86f8 5C559FE5 		ldr	r5, .L290+108
 9010 86fc 033081E0 		add	r3, r1, r3
 9011 8700 0030C4E5 		strb	r3, [r4, #0]
 9012 8704 E8049FE5 		ldr	r0, .L290+4
 9013 8708 FEFFFFEB 		bl	uart_transmit
 9014 870c 0010D5E5 		ldrb	r1, [r5, #0]	@ zero_extendqisi2
 9015 8710 0030D4E5 		ldrb	r3, [r4, #0]	@ zero_extendqisi2
 9016 8714 033081E0 		add	r3, r1, r3
 9017 8718 0030C4E5 		strb	r3, [r4, #0]
 9018 871c D0049FE5 		ldr	r0, .L290+4
 9019 8720 FEFFFFEB 		bl	uart_transmit
 9020 8724 0110D5E5 		ldrb	r1, [r5, #1]	@ zero_extendqisi2
 9021 8728 0030D4E5 		ldrb	r3, [r4, #0]	@ zero_extendqisi2
 9022 872c 033081E0 		add	r3, r1, r3
 9023 8730 0030C4E5 		strb	r3, [r4, #0]
 9024 8734 B8049FE5 		ldr	r0, .L290+4
 9025 8738 FEFFFFEB 		bl	uart_transmit
 9026 873c 0210D5E5 		ldrb	r1, [r5, #2]	@ zero_extendqisi2
 9027 8740 0030D4E5 		ldrb	r3, [r4, #0]	@ zero_extendqisi2
 9028 8744 033081E0 		add	r3, r1, r3
 9029 8748 0030C4E5 		strb	r3, [r4, #0]
 9030 874c A0049FE5 		ldr	r0, .L290+4
 9031 8750 FEFFFFEB 		bl	uart_transmit
 9032 8754 0310D5E5 		ldrb	r1, [r5, #3]	@ zero_extendqisi2
 9033 8758 0030D4E5 		ldrb	r3, [r4, #0]	@ zero_extendqisi2
 9034 875c FC549FE5 		ldr	r5, .L290+112
 9035 8760 033081E0 		add	r3, r1, r3
 9036 8764 0030C4E5 		strb	r3, [r4, #0]
 9037 8768 84049FE5 		ldr	r0, .L290+4
 9038 876c FEFFFFEB 		bl	uart_transmit
 9039 8770 0010D5E5 		ldrb	r1, [r5, #0]	@ zero_extendqisi2
 9040 8774 0030D4E5 		ldrb	r3, [r4, #0]	@ zero_extendqisi2
 9041 8778 033081E0 		add	r3, r1, r3
 9042 877c 0030C4E5 		strb	r3, [r4, #0]
 9043 8780 6C049FE5 		ldr	r0, .L290+4
 9044 8784 FEFFFFEB 		bl	uart_transmit
 9045 8788 0110D5E5 		ldrb	r1, [r5, #1]	@ zero_extendqisi2
 9046 878c 0030D4E5 		ldrb	r3, [r4, #0]	@ zero_extendqisi2
 9047 8790 033081E0 		add	r3, r1, r3
 9048 8794 0030C4E5 		strb	r3, [r4, #0]
 9049 8798 54049FE5 		ldr	r0, .L290+4
 9050 879c FEFFFFEB 		bl	uart_transmit
 9051 87a0 0210D5E5 		ldrb	r1, [r5, #2]	@ zero_extendqisi2
 9052 87a4 0030D4E5 		ldrb	r3, [r4, #0]	@ zero_extendqisi2
 9053 87a8 033081E0 		add	r3, r1, r3
 9054 87ac 0030C4E5 		strb	r3, [r4, #0]
 9055 87b0 3C049FE5 		ldr	r0, .L290+4
 9056 87b4 FEFFFFEB 		bl	uart_transmit
 9057 87b8 0310D5E5 		ldrb	r1, [r5, #3]	@ zero_extendqisi2
 9058 87bc 0030D4E5 		ldrb	r3, [r4, #0]	@ zero_extendqisi2
 9059 87c0 9C549FE5 		ldr	r5, .L290+116
 9060 87c4 033081E0 		add	r3, r1, r3
 9061 87c8 0030C4E5 		strb	r3, [r4, #0]
 9062 87cc 20049FE5 		ldr	r0, .L290+4
 9063 87d0 FEFFFFEB 		bl	uart_transmit
 9064 87d4 0010D5E5 		ldrb	r1, [r5, #0]	@ zero_extendqisi2
 9065 87d8 0030D4E5 		ldrb	r3, [r4, #0]	@ zero_extendqisi2
 9066 87dc 033081E0 		add	r3, r1, r3
 9067 87e0 0030C4E5 		strb	r3, [r4, #0]
 9068 87e4 08049FE5 		ldr	r0, .L290+4
 9069 87e8 FEFFFFEB 		bl	uart_transmit
 9070 87ec 0110D5E5 		ldrb	r1, [r5, #1]	@ zero_extendqisi2
 9071 87f0 0030D4E5 		ldrb	r3, [r4, #0]	@ zero_extendqisi2
 9072 87f4 033081E0 		add	r3, r1, r3
 9073 87f8 0030C4E5 		strb	r3, [r4, #0]
 9074 87fc F0039FE5 		ldr	r0, .L290+4
 9075 8800 FEFFFFEB 		bl	uart_transmit
 9076 8804 0210D5E5 		ldrb	r1, [r5, #2]	@ zero_extendqisi2
 9077 8808 0030D4E5 		ldrb	r3, [r4, #0]	@ zero_extendqisi2
 9078 880c 033081E0 		add	r3, r1, r3
 9079 8810 0030C4E5 		strb	r3, [r4, #0]
 9080 8814 D8039FE5 		ldr	r0, .L290+4
 9081 8818 FEFFFFEB 		bl	uart_transmit
 9082 881c 0310D5E5 		ldrb	r1, [r5, #3]	@ zero_extendqisi2
 9083 8820 0030D4E5 		ldrb	r3, [r4, #0]	@ zero_extendqisi2
 9084 8824 033081E0 		add	r3, r1, r3
 9085 8828 0030C4E5 		strb	r3, [r4, #0]
 9086 882c C0039FE5 		ldr	r0, .L290+4
 9087 8830 FEFFFFEB 		bl	uart_transmit
 9088 8834 1010DDE5 		ldrb	r1, [sp, #16]	@ zero_extendqisi2
 9089 8838 0030D4E5 		ldrb	r3, [r4, #0]	@ zero_extendqisi2
 9090 883c 033081E0 		add	r3, r1, r3
 9091 8840 0030C4E5 		strb	r3, [r4, #0]
 9092 8844 A8039FE5 		ldr	r0, .L290+4
 9093 8848 FEFFFFEB 		bl	uart_transmit
 9094 884c 1110DDE5 		ldrb	r1, [sp, #17]	@ zero_extendqisi2
 9095 8850 0030D4E5 		ldrb	r3, [r4, #0]	@ zero_extendqisi2
 9096 8854 033081E0 		add	r3, r1, r3
 9097 8858 0030C4E5 		strb	r3, [r4, #0]
 9098 885c 90039FE5 		ldr	r0, .L290+4
 9099 8860 FEFFFFEB 		bl	uart_transmit
 9100 8864 1210DDE5 		ldrb	r1, [sp, #18]	@ zero_extendqisi2
 9101 8868 0030D4E5 		ldrb	r3, [r4, #0]	@ zero_extendqisi2
 9102 886c 033081E0 		add	r3, r1, r3
 9103 8870 0030C4E5 		strb	r3, [r4, #0]
 9104 8874 78039FE5 		ldr	r0, .L290+4
 9105 8878 FEFFFFEB 		bl	uart_transmit
 9106 887c 1310DDE5 		ldrb	r1, [sp, #19]	@ zero_extendqisi2
 9107 8880 0030D4E5 		ldrb	r3, [r4, #0]	@ zero_extendqisi2
 9108 8884 033081E0 		add	r3, r1, r3
 9109 8888 0030C4E5 		strb	r3, [r4, #0]
 9110 888c 60039FE5 		ldr	r0, .L290+4
 9111 8890 FEFFFFEB 		bl	uart_transmit
 9112 8894 0010D4E5 		ldrb	r1, [r4, #0]	@ zero_extendqisi2
 9113 8898 0110E0E1 		mvn	r1, r1
 9114 889c FF1001E2 		and	r1, r1, #255
 9115 88a0 0010C4E5 		strb	r1, [r4, #0]
 9116 88a4 48039FE5 		ldr	r0, .L290+4
 9117 88a8 FEFFFFEB 		bl	uart_transmit
 9118 88ac 030000EA 		b	.L188
 9119              	.L221:
 9120 88b0 44339FE5 		ldr	r3, .L290+12
 9121 88b4 0020D3E5 		ldrb	r2, [r3, #0]	@ zero_extendqisi2
 9122 88b8 012082E2 		add	r2, r2, #1
 9123 88bc 0020C3E5 		strb	r2, [r3, #0]
 9124              	.L188:
 9125 88c0 A0339FE5 		ldr	r3, .L290+120
 9126 88c4 0030D3E5 		ldrb	r3, [r3, #0]	@ zero_extendqisi2
 9127 88c8 030053E3 		cmp	r3, #3
 9128 88cc 5702001A 		bne	.L20
 9129 88d0 94339FE5 		ldr	r3, .L290+124
 9130 88d4 0020D3E5 		ldrb	r2, [r3, #0]	@ zero_extendqisi2
 9131 88d8 012082E2 		add	r2, r2, #1
 9132 88dc FF2002E2 		and	r2, r2, #255
 9133 88e0 050052E3 		cmp	r2, #5
 9134 88e4 0020C3E5 		strb	r2, [r3, #0]
 9135 88e8 0020A083 		movhi	r2, #0
 9136 88ec 0020C385 		strhib	r2, [r3, #0]
 9137 88f0 78339FE5 		ldr	r3, .L290+128
 9138 88f4 0020D3E5 		ldrb	r2, [r3, #0]	@ zero_extendqisi2
 9139 88f8 012082E2 		add	r2, r2, #1
 9140 88fc FF2002E2 		and	r2, r2, #255
 9141 8900 1D0052E3 		cmp	r2, #29
 9142 8904 0020C3E5 		strb	r2, [r3, #0]
 9143 8908 0020A083 		movhi	r2, #0
 9144 890c 0020C385 		strhib	r2, [r3, #0]
 9145 8910 98339FE5 		ldr	r3, .L290+192
 9146 8914 0020D3E5 		ldrb	r2, [r3, #0]	@ zero_extendqisi2
 9147 8918 012082E2 		add	r2, r2, #1
 9148 891c FF2002E2 		and	r2, r2, #255
 9149 8920 7D0052E3 		cmp	r2, #125
 9150 8924 0020C3E5 		strb	r2, [r3, #0]
 9151 8928 0020A083 		movhi	r2, #0
 9152 892c 0020C385 		strhib	r2, [r3, #0]
 9153 8930 34339FE5 		ldr	r3, .L290+124
 9154 8934 0050D3E5 		ldrb	r5, [r3, #0]	@ zero_extendqisi2
 9155 8938 000055E3 		cmp	r5, #0
 9156 893c 8A00001A 		bne	.L225
 9157 8940 AC029FE5 		ldr	r0, .L290+4
 9158 8944 1710A0E3 		mov	r1, #23
 9159 8948 FEFFFFEB 		bl	uart_check_free_space
 9160 894c 000050E3 		cmp	r0, #0
 9161 8950 8100000A 		beq	.L226
 9162 8954 58339FE5 		ldr	r3, .L290+196
 9163 8958 B020D3E1 		ldrh	r2, [r3, #0]
 9164 895c 172082E2 		add	r2, r2, #23
 9165 8960 B020C3E1 		strh	r2, [r3, #0]	@ movhi
 9166 8964 4C339FE5 		ldr	r3, .L290+200
 9167 8968 B020D3E1 		ldrh	r2, [r3, #0]
 9168 896c 012082E2 		add	r2, r2, #1
 9169 8970 B020C3E1 		strh	r2, [r3, #0]	@ movhi
 9170 8974 78029FE5 		ldr	r0, .L290+4
 9171 8978 7E10A0E3 		mov	r1, #126
 9172 897c 3C439FE5 		ldr	r4, .L290+208
 9173 8980 FEFFFFEB 		bl	uart_transmit
 9174 8984 0510A0E1 		mov	r1, r5
 9175 8988 64029FE5 		ldr	r0, .L290+4
 9176 898c FEFFFFEB 		bl	uart_transmit
 9177 8990 0160A0E3 		mov	r6, #1
 9178 8994 58029FE5 		ldr	r0, .L290+4
 9179 8998 1310A0E3 		mov	r1, #19
 9180 899c FEFFFFEB 		bl	uart_transmit
 9181 89a0 0610A0E1 		mov	r1, r6
 9182 89a4 0060C4E5 		strb	r6, [r4, #0]
 9183 89a8 44029FE5 		ldr	r0, .L290+4
 9184 89ac FEFFFFEB 		bl	uart_transmit
 9185 89b0 0510A0E1 		mov	r1, r5
 9186 89b4 38029FE5 		ldr	r0, .L290+4
 9187 89b8 FEFFFFEB 		bl	uart_transmit
 9188 89bc 0030D4E5 		ldrb	r3, [r4, #0]	@ zero_extendqisi2
 9189 89c0 063083E0 		add	r3, r3, r6
 9190 89c4 0030C4E5 		strb	r3, [r4, #0]
 9191 89c8 0610A0E1 		mov	r1, r6
 9192 89cc 20029FE5 		ldr	r0, .L290+4
 9193 89d0 FEFFFFEB 		bl	uart_transmit
 9194 89d4 0510A0E1 		mov	r1, r5
 9195 89d8 14029FE5 		ldr	r0, .L290+4
 9196 89dc FEFFFFEB 		bl	uart_transmit
 9197 89e0 0510A0E1 		mov	r1, r5
 9198 89e4 08029FE5 		ldr	r0, .L290+4
 9199 89e8 FEFFFFEB 		bl	uart_transmit
 9200 89ec 0030D4E5 		ldrb	r3, [r4, #0]	@ zero_extendqisi2
 9201 89f0 023083E2 		add	r3, r3, #2
 9202 89f4 0030C4E5 		strb	r3, [r4, #0]
 9203 89f8 F4019FE5 		ldr	r0, .L290+4
 9204 89fc 0210A0E3 		mov	r1, #2
 9205 8a00 FEFFFFEB 		bl	uart_transmit
 9206 8a04 0030D4E5 		ldrb	r3, [r4, #0]	@ zero_extendqisi2
 9207 8a08 64529FE5 		ldr	r5, .L290+132
 9208 8a0c 353043E2 		sub	r3, r3, #53
 9209 8a10 0030C4E5 		strb	r3, [r4, #0]
 9210 8a14 D8019FE5 		ldr	r0, .L290+4
 9211 8a18 CB10A0E3 		mov	r1, #203
 9212 8a1c FEFFFFEB 		bl	uart_transmit
 9213 8a20 6010D5E5 		ldrb	r1, [r5, #96]	@ zero_extendqisi2
 9214 8a24 0030D4E5 		ldrb	r3, [r4, #0]	@ zero_extendqisi2
 9215 8a28 033081E0 		add	r3, r1, r3
 9216 8a2c 0030C4E5 		strb	r3, [r4, #0]
 9217 8a30 BC019FE5 		ldr	r0, .L290+4
 9218 8a34 FEFFFFEB 		bl	uart_transmit
 9219 8a38 6110D5E5 		ldrb	r1, [r5, #97]	@ zero_extendqisi2
 9220 8a3c 0030D4E5 		ldrb	r3, [r4, #0]	@ zero_extendqisi2
 9221 8a40 033081E0 		add	r3, r1, r3
 9222 8a44 0030C4E5 		strb	r3, [r4, #0]
 9223 8a48 A4019FE5 		ldr	r0, .L290+4
 9224 8a4c FEFFFFEB 		bl	uart_transmit
 9225 8a50 6210D5E5 		ldrb	r1, [r5, #98]	@ zero_extendqisi2
 9226 8a54 0030D4E5 		ldrb	r3, [r4, #0]	@ zero_extendqisi2
 9227 8a58 033081E0 		add	r3, r1, r3
 9228 8a5c 0030C4E5 		strb	r3, [r4, #0]
 9229 8a60 8C019FE5 		ldr	r0, .L290+4
 9230 8a64 FEFFFFEB 		bl	uart_transmit
 9231 8a68 6310D5E5 		ldrb	r1, [r5, #99]	@ zero_extendqisi2
 9232 8a6c 0030D4E5 		ldrb	r3, [r4, #0]	@ zero_extendqisi2
 9233 8a70 033081E0 		add	r3, r1, r3
 9234 8a74 0030C4E5 		strb	r3, [r4, #0]
 9235 8a78 74019FE5 		ldr	r0, .L290+4
 9236 8a7c FEFFFFEB 		bl	uart_transmit
 9237 8a80 6410D5E5 		ldrb	r1, [r5, #100]	@ zero_extendqisi2
 9238 8a84 0030D4E5 		ldrb	r3, [r4, #0]	@ zero_extendqisi2
 9239 8a88 033081E0 		add	r3, r1, r3
 9240 8a8c 0030C4E5 		strb	r3, [r4, #0]
 9241 8a90 5C019FE5 		ldr	r0, .L290+4
 9242 8a94 FEFFFFEB 		bl	uart_transmit
 9243 8a98 6510D5E5 		ldrb	r1, [r5, #101]	@ zero_extendqisi2
 9244 8a9c 0030D4E5 		ldrb	r3, [r4, #0]	@ zero_extendqisi2
 9245 8aa0 033081E0 		add	r3, r1, r3
 9246 8aa4 0030C4E5 		strb	r3, [r4, #0]
 9247 8aa8 44019FE5 		ldr	r0, .L290+4
 9248 8aac FEFFFFEB 		bl	uart_transmit
 9249 8ab0 6610D5E5 		ldrb	r1, [r5, #102]	@ zero_extendqisi2
 9250 8ab4 0030D4E5 		ldrb	r3, [r4, #0]	@ zero_extendqisi2
 9251 8ab8 033081E0 		add	r3, r1, r3
 9252 8abc 0030C4E5 		strb	r3, [r4, #0]
 9253 8ac0 2C019FE5 		ldr	r0, .L290+4
 9254 8ac4 FEFFFFEB 		bl	uart_transmit
 9255 8ac8 6710D5E5 		ldrb	r1, [r5, #103]	@ zero_extendqisi2
 9256 8acc 0030D4E5 		ldrb	r3, [r4, #0]	@ zero_extendqisi2
 9257 8ad0 033081E0 		add	r3, r1, r3
 9258 8ad4 0030C4E5 		strb	r3, [r4, #0]
 9259 8ad8 14019FE5 		ldr	r0, .L290+4
 9260 8adc FEFFFFEB 		bl	uart_transmit
 9261 8ae0 6810D5E5 		ldrb	r1, [r5, #104]	@ zero_extendqisi2
 9262 8ae4 0030D4E5 		ldrb	r3, [r4, #0]	@ zero_extendqisi2
 9263 8ae8 033081E0 		add	r3, r1, r3
 9264 8aec 0030C4E5 		strb	r3, [r4, #0]
 9265 8af0 FC009FE5 		ldr	r0, .L290+4
 9266 8af4 FEFFFFEB 		bl	uart_transmit
 9267 8af8 6910D5E5 		ldrb	r1, [r5, #105]	@ zero_extendqisi2
 9268 8afc 0030D4E5 		ldrb	r3, [r4, #0]	@ zero_extendqisi2
 9269 8b00 033081E0 		add	r3, r1, r3
 9270 8b04 0030C4E5 		strb	r3, [r4, #0]
 9271 8b08 E4009FE5 		ldr	r0, .L290+4
 9272 8b0c FEFFFFEB 		bl	uart_transmit
 9273 8b10 6A10D5E5 		ldrb	r1, [r5, #106]	@ zero_extendqisi2
 9274 8b14 0030D4E5 		ldrb	r3, [r4, #0]	@ zero_extendqisi2
 9275 8b18 033081E0 		add	r3, r1, r3
 9276 8b1c 0030C4E5 		strb	r3, [r4, #0]
 9277 8b20 CC009FE5 		ldr	r0, .L290+4
 9278 8b24 FEFFFFEB 		bl	uart_transmit
 9279 8b28 6B10D5E5 		ldrb	r1, [r5, #107]	@ zero_extendqisi2
 9280 8b2c 0030D4E5 		ldrb	r3, [r4, #0]	@ zero_extendqisi2
 9281 8b30 033081E0 		add	r3, r1, r3
 9282 8b34 0030C4E5 		strb	r3, [r4, #0]
 9283 8b38 B4009FE5 		ldr	r0, .L290+4
 9284 8b3c FEFFFFEB 		bl	uart_transmit
 9285 8b40 0010D4E5 		ldrb	r1, [r4, #0]	@ zero_extendqisi2
 9286 8b44 0110E0E1 		mvn	r1, r1
 9287 8b48 FF1001E2 		and	r1, r1, #255
 9288 8b4c 0010C4E5 		strb	r1, [r4, #0]
 9289 8b50 9C009FE5 		ldr	r0, .L290+4
 9290 8b54 FEFFFFEB 		bl	uart_transmit
 9291 8b58 030000EA 		b	.L225
 9292              	.L226:
 9293 8b5c 98309FE5 		ldr	r3, .L290+12
 9294 8b60 0020D3E5 		ldrb	r2, [r3, #0]	@ zero_extendqisi2
 9295 8b64 012082E2 		add	r2, r2, #1
 9296 8b68 0020C3E5 		strb	r2, [r3, #0]
 9297              	.L225:
 9298 8b6c FC309FE5 		ldr	r3, .L290+128
 9299 8b70 0030D3E5 		ldrb	r3, [r3, #0]	@ zero_extendqisi2
 9300 8b74 060053E3 		cmp	r3, #6
 9301 8b78 D100001A 		bne	.L227
 9302 8b7c 24319FE5 		ldr	r3, .L290+184
 9303 8b80 0020D3E5 		ldrb	r2, [r3, #0]	@ zero_extendqisi2
 9304 8b84 0C0052E3 		cmp	r2, #12
 9305 8b88 0020A083 		movhi	r2, #0
 9306 8b8c 0020C385 		strhib	r2, [r3, #0]
 9307 8b90 0030D3E5 		ldrb	r3, [r3, #0]	@ zero_extendqisi2
 9308 8b94 0C0053E3 		cmp	r3, #12
 9309 8b98 03F19F97 		ldrls	pc, [pc, r3, asl #2]
 9310 8b9c 630000EA 		b	.L229
 9311              	.L243:
 9312 8ba0 D48B0000 		.word	.L230
 9313 8ba4 DC8B0000 		.word	.L231
 9314 8ba8 CC8C0000 		.word	.L232
 9315 8bac D48C0000 		.word	.L233
 9316 8bb0 DC8C0000 		.word	.L234
 9317 8bb4 E48C0000 		.word	.L235
 9318 8bb8 F08C0000 		.word	.L236
 9319 8bbc FC8C0000 		.word	.L237
 9320 8bc0 048D0000 		.word	.L238
 9321 8bc4 0C8D0000 		.word	.L239
 9322 8bc8 148D0000 		.word	.L240
 9323 8bcc 208D0000 		.word	.L241
 9324 8bd0 288D0000 		.word	.L242
 9325              	.L230:
 9326 8bd4 8C309FE5 		ldr	r3, .L290+120
 9327 8bd8 000000EA 		b	.L272
 9328              	.L231:
 9329 8bdc 94309FE5 		ldr	r3, .L290+136
 9330              	.L272:
 9331 8be0 0000D3E5 		ldrb	r0, [r3, #0]	@ zero_extendqisi2
 9332              	.L273:
 9333 8be4 FEFFFFEB 		bl	__aeabi_ui2f
 9334 8be8 10008DE5 		str	r0, [sp, #16]	@ float
 9335 8bec 510000EA 		b	.L244
 9336              	.L291:
 9337              		.align	2
 9338              	.L290:
 9339 8bf0 00000000 		.word	dist2_to_home
 9340 8bf4 00000000 		.word	uart0
 9341 8bf8 00000000 		.word	nav_oval_count
 9342 8bfc 00000000 		.word	downlink_nb_ovrn
 9343 8c00 00000000 		.word	.LANCHOR50
 9344 8c04 00000000 		.word	v_ctl_mode
 9345 8c08 00000000 		.word	.LANCHOR23
 9346 8c0c 00000000 		.word	horizontal_mode
 9347 8c10 00000000 		.word	.LANCHOR24
 9348 8c14 00000000 		.word	.LANCHOR51
 9349 8c18 00000000 		.word	.LANCHOR56
 9350 8c1c 66666666 		.word	1717986918
 9351 8c20 66661440 		.word	1075078758
 9352 8c24 00000000 		.word	.LANCHOR52
 9353 8c28 00000000 		.word	.LANCHOR53
 9354 8c2c 00000000 		.word	.LANCHOR17
 9355 8c30 00000000 		.word	energy
 9356 8c34 00000000 		.word	v_ctl_throttle_slewed
 9357 8c38 00000000 		.word	vsupply
 9358 8c3c 00000000 		.word	block_time
 9359 8c40 00000000 		.word	stage_time
 9360 8c44 00000000 		.word	.LANCHOR54
 9361 8c48 00005041 		.word	1095761920
 9362 8c4c 00000000 		.word	h_ctl_roll_setpoint
 9363 8c50 00000000 		.word	h_ctl_pitch_loop_setpoint
 9364 8c54 00000000 		.word	h_ctl_course_setpoint
 9365 8c58 00000000 		.word	desired_x
 9366 8c5c 00000000 		.word	desired_y
 9367 8c60 00000000 		.word	v_ctl_altitude_setpoint
 9368 8c64 00000000 		.word	v_ctl_climb_setpoint
 9369 8c68 00000000 		.word	telemetry_mode_Ap
 9370 8c6c 00000000 		.word	.LANCHOR57
 9371 8c70 00000000 		.word	.LANCHOR58
 9372 8c74 00000000 		.word	imu
 9373 8c78 00000000 		.word	telemetry_mode_Fbw
 9374 8c7c 00000000 		.word	flight_altitude
 9375 8c80 00000000 		.word	nav_course
 9376 8c84 00000000 		.word	nav_shift
 9377 8c88 00000000 		.word	.LANCHOR18
 9378 8c8c 00000000 		.word	nav_radius
 9379 8c90 00000000 		.word	.LANCHOR21
 9380 8c94 00000000 		.word	.LANCHOR22
 9381 8c98 00000000 		.word	.LANCHOR19
 9382 8c9c 00000000 		.word	gps
 9383 8ca0 00000000 		.word	openlog_periodic_2Hz_openlog_status
 9384 8ca4 00000000 		.word	digital_cam_servo_servo_cam_ctrl_periodic_status
 9385 8ca8 00000000 		.word	.LANCHOR60
 9386 8cac 00000000 		.word	infrared
 9387 8cb0 00000000 		.word	.LANCHOR59
 9388 8cb4 00000000 		.word	downlink_nb_bytes
 9389 8cb8 00000000 		.word	downlink_nb_msgs
 9390 8cbc 00000000 		.word	.LC0
 9391 8cc0 00000000 		.word	xbee_cs
 9392 8cc4 00000000 		.word	uart0
 9393 8cc8 00000000 		.word	downlink_nb_ovrn
 9394              	.L232:
 9395 8ccc 58301FE5 		ldr	r3, .L290+140
 9396 8cd0 070000EA 		b	.L281
 9397              	.L233:
 9398 8cd4 5C301FE5 		ldr	r3, .L290+144
 9399 8cd8 050000EA 		b	.L281
 9400              	.L234:
 9401 8cdc 60301FE5 		ldr	r3, .L290+148
 9402 8ce0 030000EA 		b	.L281
 9403              	.L235:
 9404 8ce4 64301FE5 		ldr	r3, .L290+152
 9405 8ce8 B000D3E1 		ldrh	r0, [r3, #0]
 9406 8cec BCFFFFEA 		b	.L273
 9407              	.L236:
 9408 8cf0 6C301FE5 		ldr	r3, .L290+156
 9409              	.L281:
 9410 8cf4 003093E5 		ldr	r3, [r3, #0]	@ float
 9411 8cf8 0D0000EA 		b	.L274
 9412              	.L237:
 9413 8cfc 74301FE5 		ldr	r3, .L290+160
 9414 8d00 B6FFFFEA 		b	.L272
 9415              	.L238:
 9416 8d04 78301FE5 		ldr	r3, .L290+164
 9417 8d08 B4FFFFEA 		b	.L272
 9418              	.L239:
 9419 8d0c 7C301FE5 		ldr	r3, .L290+168
 9420 8d10 B2FFFFEA 		b	.L272
 9421              	.L240:
 9422 8d14 80301FE5 		ldr	r3, .L290+172
 9423 8d18 B00FD3E1 		ldrh	r0, [r3, #240]
 9424 8d1c B0FFFFEA 		b	.L273
 9425              	.L241:
 9426 8d20 88301FE5 		ldr	r3, .L290+176
 9427 8d24 ADFFFFEA 		b	.L272
 9428              	.L242:
 9429 8d28 8C301FE5 		ldr	r3, .L290+180
 9430 8d2c ABFFFFEA 		b	.L272
 9431              	.L229:
 9432 8d30 0030A0E3 		mov	r3, #0
 9433              	.L274:
 9434 8d34 10308DE5 		str	r3, [sp, #16]	@ float
 9435              	.L244:
 9436 8d38 7C001FE5 		ldr	r0, .L290+212
 9437 8d3c 1010A0E3 		mov	r1, #16
 9438 8d40 FEFFFFEB 		bl	uart_check_free_space
 9439 8d44 000050E3 		cmp	r0, #0
 9440 8d48 5700000A 		beq	.L245
 9441 8d4c A0301FE5 		ldr	r3, .L290+196
 9442 8d50 B020D3E1 		ldrh	r2, [r3, #0]
 9443 8d54 102082E2 		add	r2, r2, #16
 9444 8d58 B020C3E1 		strh	r2, [r3, #0]	@ movhi
 9445 8d5c AC301FE5 		ldr	r3, .L290+200
 9446 8d60 B020D3E1 		ldrh	r2, [r3, #0]
 9447 8d64 012082E2 		add	r2, r2, #1
 9448 8d68 B020C3E1 		strh	r2, [r3, #0]	@ movhi
 9449 8d6c B0001FE5 		ldr	r0, .L290+212
 9450 8d70 7E10A0E3 		mov	r1, #126
 9451 8d74 BC401FE5 		ldr	r4, .L290+208
 9452 8d78 FEFFFFEB 		bl	uart_transmit
 9453 8d7c C0001FE5 		ldr	r0, .L290+212
 9454 8d80 0010A0E3 		mov	r1, #0
 9455 8d84 FEFFFFEB 		bl	uart_transmit
 9456 8d88 0150A0E3 		mov	r5, #1
 9457 8d8c D0001FE5 		ldr	r0, .L290+212
 9458 8d90 0C10A0E3 		mov	r1, #12
 9459 8d94 FEFFFFEB 		bl	uart_transmit
 9460 8d98 0510A0E1 		mov	r1, r5
 9461 8d9c 0050C4E5 		strb	r5, [r4, #0]
 9462 8da0 E4001FE5 		ldr	r0, .L290+212
 9463 8da4 FEFFFFEB 		bl	uart_transmit
 9464 8da8 EC001FE5 		ldr	r0, .L290+212
 9465 8dac 0010A0E3 		mov	r1, #0
 9466 8db0 FEFFFFEB 		bl	uart_transmit
 9467 8db4 0030D4E5 		ldrb	r3, [r4, #0]	@ zero_extendqisi2
 9468 8db8 053083E0 		add	r3, r3, r5
 9469 8dbc 0030C4E5 		strb	r3, [r4, #0]
 9470 8dc0 0510A0E1 		mov	r1, r5
 9471 8dc4 08011FE5 		ldr	r0, .L290+212
 9472 8dc8 FEFFFFEB 		bl	uart_transmit
 9473 8dcc 10011FE5 		ldr	r0, .L290+212
 9474 8dd0 0010A0E3 		mov	r1, #0
 9475 8dd4 FEFFFFEB 		bl	uart_transmit
 9476 8dd8 1C011FE5 		ldr	r0, .L290+212
 9477 8ddc 0010A0E3 		mov	r1, #0
 9478 8de0 FEFFFFEB 		bl	uart_transmit
 9479 8de4 0030D4E5 		ldrb	r3, [r4, #0]	@ zero_extendqisi2
 9480 8de8 023083E2 		add	r3, r3, #2
 9481 8dec 0030C4E5 		strb	r3, [r4, #0]
 9482 8df0 34011FE5 		ldr	r0, .L290+212
 9483 8df4 0210A0E3 		mov	r1, #2
 9484 8df8 FEFFFFEB 		bl	uart_transmit
 9485 8dfc 0030D4E5 		ldrb	r3, [r4, #0]	@ zero_extendqisi2
 9486 8e00 1F3083E2 		add	r3, r3, #31
 9487 8e04 0030C4E5 		strb	r3, [r4, #0]
 9488 8e08 4C011FE5 		ldr	r0, .L290+212
 9489 8e0c 1F10A0E3 		mov	r1, #31
 9490 8e10 FEFFFFEB 		bl	uart_transmit
 9491 8e14 74311FE5 		ldr	r3, .L290+184
 9492 8e18 0010D3E5 		ldrb	r1, [r3, #0]	@ zero_extendqisi2
 9493 8e1c 0030D4E5 		ldrb	r3, [r4, #0]	@ zero_extendqisi2
 9494 8e20 033081E0 		add	r3, r1, r3
 9495 8e24 0030C4E5 		strb	r3, [r4, #0]
 9496 8e28 6C011FE5 		ldr	r0, .L290+212
 9497 8e2c FEFFFFEB 		bl	uart_transmit
 9498 8e30 1010DDE5 		ldrb	r1, [sp, #16]	@ zero_extendqisi2
 9499 8e34 0030D4E5 		ldrb	r3, [r4, #0]	@ zero_extendqisi2
 9500 8e38 033081E0 		add	r3, r1, r3
 9501 8e3c 0030C4E5 		strb	r3, [r4, #0]
 9502 8e40 84011FE5 		ldr	r0, .L290+212
 9503 8e44 FEFFFFEB 		bl	uart_transmit
 9504 8e48 1110DDE5 		ldrb	r1, [sp, #17]	@ zero_extendqisi2
 9505 8e4c 0030D4E5 		ldrb	r3, [r4, #0]	@ zero_extendqisi2
 9506 8e50 033081E0 		add	r3, r1, r3
 9507 8e54 0030C4E5 		strb	r3, [r4, #0]
 9508 8e58 9C011FE5 		ldr	r0, .L290+212
 9509 8e5c FEFFFFEB 		bl	uart_transmit
 9510 8e60 1210DDE5 		ldrb	r1, [sp, #18]	@ zero_extendqisi2
 9511 8e64 0030D4E5 		ldrb	r3, [r4, #0]	@ zero_extendqisi2
 9512 8e68 033081E0 		add	r3, r1, r3
 9513 8e6c 0030C4E5 		strb	r3, [r4, #0]
 9514 8e70 B4011FE5 		ldr	r0, .L290+212
 9515 8e74 FEFFFFEB 		bl	uart_transmit
 9516 8e78 1310DDE5 		ldrb	r1, [sp, #19]	@ zero_extendqisi2
 9517 8e7c 0030D4E5 		ldrb	r3, [r4, #0]	@ zero_extendqisi2
 9518 8e80 033081E0 		add	r3, r1, r3
 9519 8e84 0030C4E5 		strb	r3, [r4, #0]
 9520 8e88 CC011FE5 		ldr	r0, .L290+212
 9521 8e8c FEFFFFEB 		bl	uart_transmit
 9522 8e90 0010D4E5 		ldrb	r1, [r4, #0]	@ zero_extendqisi2
 9523 8e94 0110E0E1 		mvn	r1, r1
 9524 8e98 FF1001E2 		and	r1, r1, #255
 9525 8e9c 0010C4E5 		strb	r1, [r4, #0]
 9526 8ea0 E4011FE5 		ldr	r0, .L290+212
 9527 8ea4 FEFFFFEB 		bl	uart_transmit
 9528 8ea8 030000EA 		b	.L246
 9529              	.L245:
 9530 8eac EC311FE5 		ldr	r3, .L290+216
 9531 8eb0 0020D3E5 		ldrb	r2, [r3, #0]	@ zero_extendqisi2
 9532 8eb4 012082E2 		add	r2, r2, #1
 9533 8eb8 0020C3E5 		strb	r2, [r3, #0]
 9534              	.L246:
 9535 8ebc 1C321FE5 		ldr	r3, .L290+184
 9536 8ec0 7F0000EA 		b	.L275
 9537              	.L227:
 9538 8ec4 0C0053E3 		cmp	r3, #12
 9539 8ec8 8000000A 		beq	.L247
 9540 8ecc 120053E3 		cmp	r3, #18
 9541 8ed0 7E00001A 		bne	.L247
 9542 8ed4 18021FE5 		ldr	r0, .L290+212
 9543 8ed8 1510A0E3 		mov	r1, #21
 9544 8edc FEFFFFEB 		bl	uart_check_free_space
 9545 8ee0 000050E3 		cmp	r0, #0
 9546 8ee4 24321F05 		ldreq	r3, .L290+216
 9547 8ee8 7500000A 		beq	.L275
 9548 8eec 40321FE5 		ldr	r3, .L290+196
 9549 8ef0 B020D3E1 		ldrh	r2, [r3, #0]
 9550 8ef4 152082E2 		add	r2, r2, #21
 9551 8ef8 B020C3E1 		strh	r2, [r3, #0]	@ movhi
 9552 8efc 4C321FE5 		ldr	r3, .L290+200
 9553 8f00 B020D3E1 		ldrh	r2, [r3, #0]
 9554 8f04 012082E2 		add	r2, r2, #1
 9555 8f08 B020C3E1 		strh	r2, [r3, #0]	@ movhi
 9556 8f0c 50021FE5 		ldr	r0, .L290+212
 9557 8f10 7E10A0E3 		mov	r1, #126
 9558 8f14 5C421FE5 		ldr	r4, .L290+208
 9559 8f18 FEFFFFEB 		bl	uart_transmit
 9560 8f1c 60021FE5 		ldr	r0, .L290+212
 9561 8f20 0010A0E3 		mov	r1, #0
 9562 8f24 FEFFFFEB 		bl	uart_transmit
 9563 8f28 0150A0E3 		mov	r5, #1
 9564 8f2c 70021FE5 		ldr	r0, .L290+212
 9565 8f30 1110A0E3 		mov	r1, #17
 9566 8f34 FEFFFFEB 		bl	uart_transmit
 9567 8f38 0050C4E5 		strb	r5, [r4, #0]
 9568 8f3c 0510A0E1 		mov	r1, r5
 9569 8f40 84021FE5 		ldr	r0, .L290+212
 9570 8f44 FEFFFFEB 		bl	uart_transmit
 9571 8f48 8C021FE5 		ldr	r0, .L290+212
 9572 8f4c 0010A0E3 		mov	r1, #0
 9573 8f50 FEFFFFEB 		bl	uart_transmit
 9574 8f54 0030D4E5 		ldrb	r3, [r4, #0]	@ zero_extendqisi2
 9575 8f58 053083E0 		add	r3, r3, r5
 9576 8f5c 0030C4E5 		strb	r3, [r4, #0]
 9577 8f60 0510A0E1 		mov	r1, r5
 9578 8f64 A8021FE5 		ldr	r0, .L290+212
 9579 8f68 FEFFFFEB 		bl	uart_transmit
 9580 8f6c B0021FE5 		ldr	r0, .L290+212
 9581 8f70 0010A0E3 		mov	r1, #0
 9582 8f74 FEFFFFEB 		bl	uart_transmit
 9583 8f78 BC021FE5 		ldr	r0, .L290+212
 9584 8f7c 0010A0E3 		mov	r1, #0
 9585 8f80 FEFFFFEB 		bl	uart_transmit
 9586 8f84 0030D4E5 		ldrb	r3, [r4, #0]	@ zero_extendqisi2
 9587 8f88 023083E2 		add	r3, r3, #2
 9588 8f8c 0030C4E5 		strb	r3, [r4, #0]
 9589 8f90 D4021FE5 		ldr	r0, .L290+212
 9590 8f94 0210A0E3 		mov	r1, #2
 9591 8f98 FEFFFFEB 		bl	uart_transmit
 9592 8f9c 0030D4E5 		ldrb	r3, [r4, #0]	@ zero_extendqisi2
 9593 8fa0 FC521FE5 		ldr	r5, .L290+188
 9594 8fa4 073083E2 		add	r3, r3, #7
 9595 8fa8 0030C4E5 		strb	r3, [r4, #0]
 9596 8fac F0021FE5 		ldr	r0, .L290+212
 9597 8fb0 0710A0E3 		mov	r1, #7
 9598 8fb4 FEFFFFEB 		bl	uart_transmit
 9599 8fb8 0010D5E5 		ldrb	r1, [r5, #0]	@ zero_extendqisi2
 9600 8fbc 0030D4E5 		ldrb	r3, [r4, #0]	@ zero_extendqisi2
 9601 8fc0 033081E0 		add	r3, r1, r3
 9602 8fc4 0030C4E5 		strb	r3, [r4, #0]
 9603 8fc8 0C031FE5 		ldr	r0, .L290+212
 9604 8fcc FEFFFFEB 		bl	uart_transmit
 9605 8fd0 0110D5E5 		ldrb	r1, [r5, #1]	@ zero_extendqisi2
 9606 8fd4 0030D4E5 		ldrb	r3, [r4, #0]	@ zero_extendqisi2
 9607 8fd8 033081E0 		add	r3, r1, r3
 9608 8fdc 0030C4E5 		strb	r3, [r4, #0]
 9609 8fe0 24031FE5 		ldr	r0, .L290+212
 9610 8fe4 FEFFFFEB 		bl	uart_transmit
 9611 8fe8 0210D5E5 		ldrb	r1, [r5, #2]	@ zero_extendqisi2
 9612 8fec 0030D4E5 		ldrb	r3, [r4, #0]	@ zero_extendqisi2
 9613 8ff0 033081E0 		add	r3, r1, r3
 9614 8ff4 0030C4E5 		strb	r3, [r4, #0]
 9615 8ff8 3C031FE5 		ldr	r0, .L290+212
 9616 8ffc FEFFFFEB 		bl	uart_transmit
 9617 9000 0310D5E5 		ldrb	r1, [r5, #3]	@ zero_extendqisi2
 9618 9004 0030D4E5 		ldrb	r3, [r4, #0]	@ zero_extendqisi2
 9619 9008 033081E0 		add	r3, r1, r3
 9620 900c 0030C4E5 		strb	r3, [r4, #0]
 9621 9010 54031FE5 		ldr	r0, .L290+212
 9622 9014 FEFFFFEB 		bl	uart_transmit
 9623 9018 1610D5E5 		ldrb	r1, [r5, #22]	@ zero_extendqisi2
 9624 901c 0030D4E5 		ldrb	r3, [r4, #0]	@ zero_extendqisi2
 9625 9020 033081E0 		add	r3, r1, r3
 9626 9024 0030C4E5 		strb	r3, [r4, #0]
 9627 9028 6C031FE5 		ldr	r0, .L290+212
 9628 902c FEFFFFEB 		bl	uart_transmit
 9629 9030 1710D5E5 		ldrb	r1, [r5, #23]	@ zero_extendqisi2
 9630 9034 0030D4E5 		ldrb	r3, [r4, #0]	@ zero_extendqisi2
 9631 9038 033081E0 		add	r3, r1, r3
 9632 903c 0030C4E5 		strb	r3, [r4, #0]
 9633 9040 84031FE5 		ldr	r0, .L290+212
 9634 9044 FEFFFFEB 		bl	uart_transmit
 9635 9048 1410D5E5 		ldrb	r1, [r5, #20]	@ zero_extendqisi2
 9636 904c 0030D4E5 		ldrb	r3, [r4, #0]	@ zero_extendqisi2
 9637 9050 033081E0 		add	r3, r1, r3
 9638 9054 0030C4E5 		strb	r3, [r4, #0]
 9639 9058 9C031FE5 		ldr	r0, .L290+212
 9640 905c FEFFFFEB 		bl	uart_transmit
 9641 9060 1510D5E5 		ldrb	r1, [r5, #21]	@ zero_extendqisi2
 9642 9064 0030D4E5 		ldrb	r3, [r4, #0]	@ zero_extendqisi2
 9643 9068 033081E0 		add	r3, r1, r3
 9644 906c 0030C4E5 		strb	r3, [r4, #0]
 9645 9070 B4031FE5 		ldr	r0, .L290+212
 9646 9074 FEFFFFEB 		bl	uart_transmit
 9647 9078 1810D5E5 		ldrb	r1, [r5, #24]	@ zero_extendqisi2
 9648 907c 0030D4E5 		ldrb	r3, [r4, #0]	@ zero_extendqisi2
 9649 9080 033081E0 		add	r3, r1, r3
 9650 9084 0030C4E5 		strb	r3, [r4, #0]
 9651 9088 CC031FE5 		ldr	r0, .L290+212
 9652 908c FEFFFFEB 		bl	uart_transmit
 9653 9090 1910D5E5 		ldrb	r1, [r5, #25]	@ zero_extendqisi2
 9654 9094 0030D4E5 		ldrb	r3, [r4, #0]	@ zero_extendqisi2
 9655 9098 033081E0 		add	r3, r1, r3
 9656 909c 0030C4E5 		strb	r3, [r4, #0]
 9657 90a0 E4031FE5 		ldr	r0, .L290+212
 9658 90a4 FEFFFFEB 		bl	uart_transmit
 9659 90a8 0010D4E5 		ldrb	r1, [r4, #0]	@ zero_extendqisi2
 9660 90ac 0110E0E1 		mvn	r1, r1
 9661 90b0 FF1001E2 		and	r1, r1, #255
 9662 90b4 0010C4E5 		strb	r1, [r4, #0]
 9663 90b8 FC031FE5 		ldr	r0, .L290+212
 9664 90bc FEFFFFEB 		bl	uart_transmit
 9665 90c0 020000EA 		b	.L247
 9666              	.L275:
 9667 90c4 0020D3E5 		ldrb	r2, [r3, #0]	@ zero_extendqisi2
 9668 90c8 012082E2 		add	r2, r2, #1
 9669 90cc 0020C3E5 		strb	r2, [r3, #0]
 9670              	.L247:
 9671 90d0 28341FE5 		ldr	r3, .L290+192
 9672 90d4 0040D3E5 		ldrb	r4, [r3, #0]	@ zero_extendqisi2
 9673 90d8 180054E3 		cmp	r4, #24
 9674 90dc 5300001A 		bne	.L20
 9675 90e0 24041FE5 		ldr	r0, .L290+212
 9676 90e4 1C10A0E3 		mov	r1, #28
 9677 90e8 FEFFFFEB 		bl	uart_check_free_space
 9678 90ec 000050E3 		cmp	r0, #0
 9679 90f0 4A00000A 		beq	.L249
 9680 90f4 48341FE5 		ldr	r3, .L290+196
 9681 90f8 B020D3E1 		ldrh	r2, [r3, #0]
 9682 90fc 1C2082E2 		add	r2, r2, #28
 9683 9100 B020C3E1 		strh	r2, [r3, #0]	@ movhi
 9684 9104 54341FE5 		ldr	r3, .L290+200
 9685 9108 B020D3E1 		ldrh	r2, [r3, #0]
 9686 910c 012082E2 		add	r2, r2, #1
 9687 9110 B020C3E1 		strh	r2, [r3, #0]	@ movhi
 9688 9114 58041FE5 		ldr	r0, .L290+212
 9689 9118 7E10A0E3 		mov	r1, #126
 9690 911c FEFFFFEB 		bl	uart_transmit
 9691 9120 64041FE5 		ldr	r0, .L290+212
 9692 9124 0010A0E3 		mov	r1, #0
 9693 9128 FEFFFFEB 		bl	uart_transmit
 9694 912c 0410A0E1 		mov	r1, r4
 9695 9130 78441FE5 		ldr	r4, .L290+208
 9696 9134 0150A0E3 		mov	r5, #1
 9697 9138 7C041FE5 		ldr	r0, .L290+212
 9698 913c FEFFFFEB 		bl	uart_transmit
 9699 9140 0510A0E1 		mov	r1, r5
 9700 9144 0050C4E5 		strb	r5, [r4, #0]
 9701 9148 8C041FE5 		ldr	r0, .L290+212
 9702 914c FEFFFFEB 		bl	uart_transmit
 9703 9150 94041FE5 		ldr	r0, .L290+212
 9704 9154 0010A0E3 		mov	r1, #0
 9705 9158 FEFFFFEB 		bl	uart_transmit
 9706 915c 0030D4E5 		ldrb	r3, [r4, #0]	@ zero_extendqisi2
 9707 9160 053083E0 		add	r3, r3, r5
 9708 9164 0030C4E5 		strb	r3, [r4, #0]
 9709 9168 0510A0E1 		mov	r1, r5
 9710 916c B0041FE5 		ldr	r0, .L290+212
 9711 9170 FEFFFFEB 		bl	uart_transmit
 9712 9174 B8041FE5 		ldr	r0, .L290+212
 9713 9178 0010A0E3 		mov	r1, #0
 9714 917c FEFFFFEB 		bl	uart_transmit
 9715 9180 C4041FE5 		ldr	r0, .L290+212
 9716 9184 0010A0E3 		mov	r1, #0
 9717 9188 FEFFFFEB 		bl	uart_transmit
 9718 918c 0030D4E5 		ldrb	r3, [r4, #0]	@ zero_extendqisi2
 9719 9190 023083E2 		add	r3, r3, #2
 9720 9194 0030C4E5 		strb	r3, [r4, #0]
 9721 9198 DC041FE5 		ldr	r0, .L290+212
 9722 919c 0210A0E3 		mov	r1, #2
 9723 91a0 FEFFFFEB 		bl	uart_transmit
 9724 91a4 0030D4E5 		ldrb	r3, [r4, #0]	@ zero_extendqisi2
 9725 91a8 023083E2 		add	r3, r3, #2
 9726 91ac 0030C4E5 		strb	r3, [r4, #0]
 9727 91b0 F4041FE5 		ldr	r0, .L290+212
 9728 91b4 0210A0E3 		mov	r1, #2
 9729 91b8 FEFFFFEB 		bl	uart_transmit
 9730 91bc 0030D4E5 		ldrb	r3, [r4, #0]	@ zero_extendqisi2
 9731 91c0 103083E2 		add	r3, r3, #16
 9732 91c4 0030C4E5 		strb	r3, [r4, #0]
 9733 91c8 0C051FE5 		ldr	r0, .L290+212
 9734 91cc 1010A0E3 		mov	r1, #16
 9735 91d0 FEFFFFEB 		bl	uart_transmit
 9736 91d4 20751FE5 		ldr	r7, .L290+204
 9737 91d8 0050A0E3 		mov	r5, #0
 9738              	.L250:
 9739 91dc 0510D7E7 		ldrb	r1, [r7, r5]	@ zero_extendqisi2
 9740 91e0 0030D4E5 		ldrb	r3, [r4, #0]	@ zero_extendqisi2
 9741 91e4 033081E0 		add	r3, r1, r3
 9742 91e8 0030C4E5 		strb	r3, [r4, #0]
 9743 91ec 30051FE5 		ldr	r0, .L290+212
 9744 91f0 015085E2 		add	r5, r5, #1
 9745 91f4 FEFFFFEB 		bl	uart_transmit
 9746 91f8 100055E3 		cmp	r5, #16
 9747 91fc 44651FE5 		ldr	r6, .L290+208
 9748 9200 F5FFFF1A 		bne	.L250
 9749 9204 0010D6E5 		ldrb	r1, [r6, #0]	@ zero_extendqisi2
 9750 9208 0110E0E1 		mvn	r1, r1
 9751 920c FF1001E2 		and	r1, r1, #255
 9752 9210 0010C6E5 		strb	r1, [r6, #0]
 9753 9214 58051FE5 		ldr	r0, .L290+212
 9754 9218 FEFFFFEB 		bl	uart_transmit
 9755 921c 030000EA 		b	.L20
 9756              	.L249:
 9757 9220 60351FE5 		ldr	r3, .L290+216
 9758 9224 0020D3E5 		ldrb	r2, [r3, #0]	@ zero_extendqisi2
 9759 9228 012082E2 		add	r2, r2, #1
 9760              	.L276:
 9761 922c 0020C3E5 		strb	r2, [r3, #0]
 9762              	.L20:
 9763 9230 20D08DE2 		add	sp, sp, #32
 9764 9234 F041BDE8 		ldmfd	sp!, {r4, r5, r6, r7, r8, lr}
 9765 9238 1EFF2FE1 		bx	lr
 9767              		.section	.text.navigation_task,"ax",%progbits
 9768              		.align	2
 9769              		.global	navigation_task
 9771              	navigation_task:
 9772              		@ Function supports interworking.
 9773              		@ args = 0, pretend = 0, frame = 0
 9774              		@ frame_needed = 0, uses_anonymous_args = 0
 9775 0000 F8402DE9 		stmfd	sp!, {r3, r4, r5, r6, r7, lr}
 9776 0004 74379FE5 		ldr	r3, .L306
 9777 0008 0030D3E5 		ldrb	r3, [r3, #0]	@ zero_extendqisi2
 9778 000c 000053E3 		cmp	r3, #0
 9779 0010 E900000A 		beq	.L293
 9780 0014 68379FE5 		ldr	r3, .L306+4
 9781 0018 002093E5 		ldr	r2, [r3, #0]
 9782 001c 64379FE5 		ldr	r3, .L306+8
 9783 0020 EC3093E5 		ldr	r3, [r3, #236]
 9784 0024 023063E0 		rsb	r3, r3, r2
 9785 0028 020053E3 		cmp	r3, #2
 9786 002c 58679FE5 		ldr	r6, .L306+12
 9787 0030 7100009A 		bls	.L294
 9788 0034 0030D6E5 		ldrb	r3, [r6, #0]	@ zero_extendqisi2
 9789 0038 022043E2 		sub	r2, r3, #2
 9790 003c 010052E3 		cmp	r2, #1
 9791 0040 DD00008A 		bhi	.L293
 9792 0044 44279FE5 		ldr	r2, .L306+16
 9793 0048 0030C2E5 		strb	r3, [r2, #0]
 9794 004c 0430A0E3 		mov	r3, #4
 9795 0050 0030C6E5 		strb	r3, [r6, #0]
 9796 0054 38079FE5 		ldr	r0, .L306+20
 9797 0058 1110A0E3 		mov	r1, #17
 9798 005c FEFFFFEB 		bl	uart_check_free_space
 9799 0060 000050E3 		cmp	r0, #0
 9800 0064 5D00000A 		beq	.L295
 9801 0068 28379FE5 		ldr	r3, .L306+24
 9802 006c B020D3E1 		ldrh	r2, [r3, #0]
 9803 0070 112082E2 		add	r2, r2, #17
 9804 0074 B020C3E1 		strh	r2, [r3, #0]	@ movhi
 9805 0078 1C379FE5 		ldr	r3, .L306+28
 9806 007c B020D3E1 		ldrh	r2, [r3, #0]
 9807 0080 012082E2 		add	r2, r2, #1
 9808 0084 B020C3E1 		strh	r2, [r3, #0]	@ movhi
 9809 0088 04079FE5 		ldr	r0, .L306+20
 9810 008c 7E10A0E3 		mov	r1, #126
 9811 0090 08479FE5 		ldr	r4, .L306+32
 9812 0094 FEFFFFEB 		bl	uart_transmit
 9813 0098 F4069FE5 		ldr	r0, .L306+20
 9814 009c 0010A0E3 		mov	r1, #0
 9815 00a0 FEFFFFEB 		bl	uart_transmit
 9816 00a4 0150A0E3 		mov	r5, #1
 9817 00a8 E4069FE5 		ldr	r0, .L306+20
 9818 00ac 0D10A0E3 		mov	r1, #13
 9819 00b0 FEFFFFEB 		bl	uart_transmit
 9820 00b4 0510A0E1 		mov	r1, r5
 9821 00b8 0050C4E5 		strb	r5, [r4, #0]
 9822 00bc D0069FE5 		ldr	r0, .L306+20
 9823 00c0 FEFFFFEB 		bl	uart_transmit
 9824 00c4 C8069FE5 		ldr	r0, .L306+20
 9825 00c8 0010A0E3 		mov	r1, #0
 9826 00cc FEFFFFEB 		bl	uart_transmit
 9827 00d0 0030D4E5 		ldrb	r3, [r4, #0]	@ zero_extendqisi2
 9828 00d4 053083E0 		add	r3, r3, r5
 9829 00d8 0030C4E5 		strb	r3, [r4, #0]
 9830 00dc 0510A0E1 		mov	r1, r5
 9831 00e0 AC069FE5 		ldr	r0, .L306+20
 9832 00e4 FEFFFFEB 		bl	uart_transmit
 9833 00e8 A4069FE5 		ldr	r0, .L306+20
 9834 00ec 0010A0E3 		mov	r1, #0
 9835 00f0 FEFFFFEB 		bl	uart_transmit
 9836 00f4 98069FE5 		ldr	r0, .L306+20
 9837 00f8 0010A0E3 		mov	r1, #0
 9838 00fc FEFFFFEB 		bl	uart_transmit
 9839 0100 0030D4E5 		ldrb	r3, [r4, #0]	@ zero_extendqisi2
 9840 0104 023083E2 		add	r3, r3, #2
 9841 0108 0030C4E5 		strb	r3, [r4, #0]
 9842 010c 80069FE5 		ldr	r0, .L306+20
 9843 0110 0210A0E3 		mov	r1, #2
 9844 0114 FEFFFFEB 		bl	uart_transmit
 9845 0118 0030D4E5 		ldrb	r3, [r4, #0]	@ zero_extendqisi2
 9846 011c 0B3083E2 		add	r3, r3, #11
 9847 0120 0030C4E5 		strb	r3, [r4, #0]
 9848 0124 68069FE5 		ldr	r0, .L306+20
 9849 0128 0B10A0E3 		mov	r1, #11
 9850 012c FEFFFFEB 		bl	uart_transmit
 9851 0130 0010D6E5 		ldrb	r1, [r6, #0]	@ zero_extendqisi2
 9852 0134 0030D4E5 		ldrb	r3, [r4, #0]	@ zero_extendqisi2
 9853 0138 033081E0 		add	r3, r1, r3
 9854 013c 0030C4E5 		strb	r3, [r4, #0]
 9855 0140 4C069FE5 		ldr	r0, .L306+20
 9856 0144 FEFFFFEB 		bl	uart_transmit
 9857 0148 54369FE5 		ldr	r3, .L306+36
 9858 014c 0010D3E5 		ldrb	r1, [r3, #0]	@ zero_extendqisi2
 9859 0150 0030D4E5 		ldrb	r3, [r4, #0]	@ zero_extendqisi2
 9860 0154 033081E0 		add	r3, r1, r3
 9861 0158 0030C4E5 		strb	r3, [r4, #0]
 9862 015c 30069FE5 		ldr	r0, .L306+20
 9863 0160 FEFFFFEB 		bl	uart_transmit
 9864 0164 3C369FE5 		ldr	r3, .L306+40
 9865 0168 0010D3E5 		ldrb	r1, [r3, #0]	@ zero_extendqisi2
 9866 016c 0030D4E5 		ldrb	r3, [r4, #0]	@ zero_extendqisi2
 9867 0170 033081E0 		add	r3, r1, r3
 9868 0174 0030C4E5 		strb	r3, [r4, #0]
 9869 0178 14069FE5 		ldr	r0, .L306+20
 9870 017c FEFFFFEB 		bl	uart_transmit
 9871 0180 24369FE5 		ldr	r3, .L306+44
 9872 0184 0010D3E5 		ldrb	r1, [r3, #0]	@ zero_extendqisi2
 9873 0188 0030D4E5 		ldrb	r3, [r4, #0]	@ zero_extendqisi2
 9874 018c 033081E0 		add	r3, r1, r3
 9875 0190 0030C4E5 		strb	r3, [r4, #0]
 9876 0194 F8059FE5 		ldr	r0, .L306+20
 9877 0198 FEFFFFEB 		bl	uart_transmit
 9878 019c F0059FE5 		ldr	r0, .L306+20
 9879 01a0 0010A0E3 		mov	r1, #0
 9880 01a4 FEFFFFEB 		bl	uart_transmit
 9881 01a8 00369FE5 		ldr	r3, .L306+48
 9882 01ac 0010D3E5 		ldrb	r1, [r3, #0]	@ zero_extendqisi2
 9883 01b0 0030D4E5 		ldrb	r3, [r4, #0]	@ zero_extendqisi2
 9884 01b4 033081E0 		add	r3, r1, r3
 9885 01b8 0030C4E5 		strb	r3, [r4, #0]
 9886 01bc D0059FE5 		ldr	r0, .L306+20
 9887 01c0 FEFFFFEB 		bl	uart_transmit
 9888 01c4 0010D4E5 		ldrb	r1, [r4, #0]	@ zero_extendqisi2
 9889 01c8 0110E0E1 		mvn	r1, r1
 9890 01cc FF1001E2 		and	r1, r1, #255
 9891 01d0 0010C4E5 		strb	r1, [r4, #0]
 9892 01d4 B8059FE5 		ldr	r0, .L306+20
 9893 01d8 FEFFFFEB 		bl	uart_transmit
 9894 01dc 030000EA 		b	.L296
 9895              	.L295:
 9896 01e0 CC359FE5 		ldr	r3, .L306+52
 9897 01e4 0020D3E5 		ldrb	r2, [r3, #0]	@ zero_extendqisi2
 9898 01e8 012082E2 		add	r2, r2, #1
 9899 01ec 0020C3E5 		strb	r2, [r3, #0]
 9900              	.L296:
 9901 01f0 0120A0E3 		mov	r2, #1
 9902 01f4 BC359FE5 		ldr	r3, .L306+56
 9903 01f8 6E0000EA 		b	.L305
 9904              	.L294:
 9905 01fc B4359FE5 		ldr	r3, .L306+56
 9906 0200 0020D3E5 		ldrb	r2, [r3, #0]	@ zero_extendqisi2
 9907 0204 000052E3 		cmp	r2, #0
 9908 0208 6B00000A 		beq	.L293
 9909 020c 7C259FE5 		ldr	r2, .L306+16
 9910 0210 0020D2E5 		ldrb	r2, [r2, #0]	@ zero_extendqisi2
 9911 0214 0050A0E3 		mov	r5, #0
 9912 0218 0020C6E5 		strb	r2, [r6, #0]
 9913 021c 0050C3E5 		strb	r5, [r3, #0]
 9914 0220 6C059FE5 		ldr	r0, .L306+20
 9915 0224 1110A0E3 		mov	r1, #17
 9916 0228 FEFFFFEB 		bl	uart_check_free_space
 9917 022c 050050E1 		cmp	r0, r5
 9918 0230 5D00000A 		beq	.L297
 9919 0234 5C359FE5 		ldr	r3, .L306+24
 9920 0238 B020D3E1 		ldrh	r2, [r3, #0]
 9921 023c 112082E2 		add	r2, r2, #17
 9922 0240 B020C3E1 		strh	r2, [r3, #0]	@ movhi
 9923 0244 50359FE5 		ldr	r3, .L306+28
 9924 0248 B020D3E1 		ldrh	r2, [r3, #0]
 9925 024c 012082E2 		add	r2, r2, #1
 9926 0250 B020C3E1 		strh	r2, [r3, #0]	@ movhi
 9927 0254 38059FE5 		ldr	r0, .L306+20
 9928 0258 7E10A0E3 		mov	r1, #126
 9929 025c 3C459FE5 		ldr	r4, .L306+32
 9930 0260 FEFFFFEB 		bl	uart_transmit
 9931 0264 0510A0E1 		mov	r1, r5
 9932 0268 24059FE5 		ldr	r0, .L306+20
 9933 026c FEFFFFEB 		bl	uart_transmit
 9934 0270 0170A0E3 		mov	r7, #1
 9935 0274 18059FE5 		ldr	r0, .L306+20
 9936 0278 0D10A0E3 		mov	r1, #13
 9937 027c FEFFFFEB 		bl	uart_transmit
 9938 0280 0710A0E1 		mov	r1, r7
 9939 0284 0070C4E5 		strb	r7, [r4, #0]
 9940 0288 04059FE5 		ldr	r0, .L306+20
 9941 028c FEFFFFEB 		bl	uart_transmit
 9942 0290 0510A0E1 		mov	r1, r5
 9943 0294 F8049FE5 		ldr	r0, .L306+20
 9944 0298 FEFFFFEB 		bl	uart_transmit
 9945 029c 0030D4E5 		ldrb	r3, [r4, #0]	@ zero_extendqisi2
 9946 02a0 073083E0 		add	r3, r3, r7
 9947 02a4 0030C4E5 		strb	r3, [r4, #0]
 9948 02a8 0710A0E1 		mov	r1, r7
 9949 02ac E0049FE5 		ldr	r0, .L306+20
 9950 02b0 FEFFFFEB 		bl	uart_transmit
 9951 02b4 0510A0E1 		mov	r1, r5
 9952 02b8 D4049FE5 		ldr	r0, .L306+20
 9953 02bc FEFFFFEB 		bl	uart_transmit
 9954 02c0 0510A0E1 		mov	r1, r5
 9955 02c4 C8049FE5 		ldr	r0, .L306+20
 9956 02c8 FEFFFFEB 		bl	uart_transmit
 9957 02cc 0030D4E5 		ldrb	r3, [r4, #0]	@ zero_extendqisi2
 9958 02d0 023083E2 		add	r3, r3, #2
 9959 02d4 0030C4E5 		strb	r3, [r4, #0]
 9960 02d8 B4049FE5 		ldr	r0, .L306+20
 9961 02dc 0210A0E3 		mov	r1, #2
 9962 02e0 FEFFFFEB 		bl	uart_transmit
 9963 02e4 0030D4E5 		ldrb	r3, [r4, #0]	@ zero_extendqisi2
 9964 02e8 0B3083E2 		add	r3, r3, #11
 9965 02ec 0030C4E5 		strb	r3, [r4, #0]
 9966 02f0 9C049FE5 		ldr	r0, .L306+20
 9967 02f4 0B10A0E3 		mov	r1, #11
 9968 02f8 FEFFFFEB 		bl	uart_transmit
 9969 02fc 0010D6E5 		ldrb	r1, [r6, #0]	@ zero_extendqisi2
 9970 0300 0030D4E5 		ldrb	r3, [r4, #0]	@ zero_extendqisi2
 9971 0304 033081E0 		add	r3, r1, r3
 9972 0308 0030C4E5 		strb	r3, [r4, #0]
 9973 030c 80049FE5 		ldr	r0, .L306+20
 9974 0310 FEFFFFEB 		bl	uart_transmit
 9975 0314 88349FE5 		ldr	r3, .L306+36
 9976 0318 0010D3E5 		ldrb	r1, [r3, #0]	@ zero_extendqisi2
 9977 031c 0030D4E5 		ldrb	r3, [r4, #0]	@ zero_extendqisi2
 9978 0320 033081E0 		add	r3, r1, r3
 9979 0324 0030C4E5 		strb	r3, [r4, #0]
 9980 0328 64049FE5 		ldr	r0, .L306+20
 9981 032c FEFFFFEB 		bl	uart_transmit
 9982 0330 70349FE5 		ldr	r3, .L306+40
 9983 0334 0010D3E5 		ldrb	r1, [r3, #0]	@ zero_extendqisi2
 9984 0338 0030D4E5 		ldrb	r3, [r4, #0]	@ zero_extendqisi2
 9985 033c 033081E0 		add	r3, r1, r3
 9986 0340 0030C4E5 		strb	r3, [r4, #0]
 9987 0344 48049FE5 		ldr	r0, .L306+20
 9988 0348 FEFFFFEB 		bl	uart_transmit
 9989 034c 58349FE5 		ldr	r3, .L306+44
 9990 0350 0010D3E5 		ldrb	r1, [r3, #0]	@ zero_extendqisi2
 9991 0354 0030D4E5 		ldrb	r3, [r4, #0]	@ zero_extendqisi2
 9992 0358 033081E0 		add	r3, r1, r3
 9993 035c 0030C4E5 		strb	r3, [r4, #0]
 9994 0360 2C049FE5 		ldr	r0, .L306+20
 9995 0364 FEFFFFEB 		bl	uart_transmit
 9996 0368 0510A0E1 		mov	r1, r5
 9997 036c 20049FE5 		ldr	r0, .L306+20
 9998 0370 FEFFFFEB 		bl	uart_transmit
 9999 0374 34349FE5 		ldr	r3, .L306+48
 10000 0378 0010D3E5 		ldrb	r1, [r3, #0]	@ zero_extendqisi2
 10001 037c 0030D4E5 		ldrb	r3, [r4, #0]	@ zero_extendqisi2
 10002 0380 033081E0 		add	r3, r1, r3
 10003 0384 0030C4E5 		strb	r3, [r4, #0]
 10004 0388 04049FE5 		ldr	r0, .L306+20
 10005 038c FEFFFFEB 		bl	uart_transmit
 10006 0390 0010D4E5 		ldrb	r1, [r4, #0]	@ zero_extendqisi2
 10007 0394 0110E0E1 		mvn	r1, r1
 10008 0398 FF1001E2 		and	r1, r1, #255
 10009 039c 0010C4E5 		strb	r1, [r4, #0]
 10010 03a0 EC039FE5 		ldr	r0, .L306+20
 10011 03a4 FEFFFFEB 		bl	uart_transmit
 10012 03a8 030000EA 		b	.L293
 10013              	.L297:
 10014 03ac 00349FE5 		ldr	r3, .L306+52
 10015 03b0 0020D3E5 		ldrb	r2, [r3, #0]	@ zero_extendqisi2
 10016 03b4 012082E2 		add	r2, r2, #1
 10017              	.L305:
 10018 03b8 0020C3E5 		strb	r2, [r3, #0]
 10019              	.L293:
 10020 03bc FEFFFFEB 		bl	common_nav_periodic_task_4Hz
 10021 03c0 C4339FE5 		ldr	r3, .L306+12
 10022 03c4 0030D3E5 		ldrb	r3, [r3, #0]	@ zero_extendqisi2
 10023 03c8 030053E3 		cmp	r3, #3
 10024 03cc 0100001A 		bne	.L298
 10025 03d0 FEFFFFEB 		bl	nav_home
 10026 03d4 040000EA 		b	.L299
 10027              	.L298:
 10028 03d8 040053E3 		cmp	r3, #4
 10029 03dc 0100001A 		bne	.L300
 10030 03e0 FEFFFFEB 		bl	nav_without_gps
 10031 03e4 000000EA 		b	.L299
 10032              	.L300:
 10033 03e8 FEFFFFEB 		bl	nav_periodic_task
 10034              	.L299:
 10035 03ec C8339FE5 		ldr	r3, .L306+60
 10036 03f0 005093E5 		ldr	r5, [r3, #0]	@ float
 10037 03f4 FEFFFFEB 		bl	stateGetPositionEnu_f
 10038 03f8 1F10A0E3 		mov	r1, #31
 10039 03fc 0040A0E1 		mov	r4, r0
 10040 0400 8C039FE5 		ldr	r0, .L306+20
 10041 0404 FEFFFFEB 		bl	uart_check_free_space
 10042 0408 000050E3 		cmp	r0, #0
 10043 040c BC00000A 		beq	.L301
 10044 0410 0201C5E3 		bic	r0, r5, #-2147483648
 10045 0414 FEFFFFEB 		bl	__aeabi_f2d
 10046 0418 A0239FE5 		ldr	r2, .L306+64
 10047 041c A0339FE5 		ldr	r3, .L306+68
 10048 0420 FEFFFFEB 		bl	__aeabi_ddiv
 10049 0424 FEFFFFEB 		bl	__aeabi_d2uiz
 10050 0428 68339FE5 		ldr	r3, .L306+24
 10051 042c B020D3E1 		ldrh	r2, [r3, #0]
 10052 0430 1F2082E2 		add	r2, r2, #31
 10053 0434 B020C3E1 		strh	r2, [r3, #0]	@ movhi
 10054 0438 5C339FE5 		ldr	r3, .L306+28
 10055 043c B020D3E1 		ldrh	r2, [r3, #0]
 10056 0440 012082E2 		add	r2, r2, #1
 10057 0444 B020C3E1 		strh	r2, [r3, #0]	@ movhi
 10058 0448 FF7000E2 		and	r7, r0, #255
 10059 044c 7E10A0E3 		mov	r1, #126
 10060 0450 3C039FE5 		ldr	r0, .L306+20
 10061 0454 44539FE5 		ldr	r5, .L306+32
 10062 0458 FEFFFFEB 		bl	uart_transmit
 10063 045c 30039FE5 		ldr	r0, .L306+20
 10064 0460 0010A0E3 		mov	r1, #0
 10065 0464 FEFFFFEB 		bl	uart_transmit
 10066 0468 0160A0E3 		mov	r6, #1
 10067 046c 20039FE5 		ldr	r0, .L306+20
 10068 0470 1B10A0E3 		mov	r1, #27
 10069 0474 FEFFFFEB 		bl	uart_transmit
 10070 0478 0610A0E1 		mov	r1, r6
 10071 047c 0060C5E5 		strb	r6, [r5, #0]
 10072 0480 0C039FE5 		ldr	r0, .L306+20
 10073 0484 FEFFFFEB 		bl	uart_transmit
 10074 0488 04039FE5 		ldr	r0, .L306+20
 10075 048c 0010A0E3 		mov	r1, #0
 10076 0490 FEFFFFEB 		bl	uart_transmit
 10077 0494 0030D5E5 		ldrb	r3, [r5, #0]	@ zero_extendqisi2
 10078 0498 063083E0 		add	r3, r3, r6
 10079 049c 0030C5E5 		strb	r3, [r5, #0]
 10080 04a0 0610A0E1 		mov	r1, r6
 10081 04a4 E8029FE5 		ldr	r0, .L306+20
 10082 04a8 FEFFFFEB 		bl	uart_transmit
 10083 04ac E0029FE5 		ldr	r0, .L306+20
 10084 04b0 0010A0E3 		mov	r1, #0
 10085 04b4 FEFFFFEB 		bl	uart_transmit
 10086 04b8 D4029FE5 		ldr	r0, .L306+20
 10087 04bc 0010A0E3 		mov	r1, #0
 10088 04c0 FEFFFFEB 		bl	uart_transmit
 10089 04c4 0030D5E5 		ldrb	r3, [r5, #0]	@ zero_extendqisi2
 10090 04c8 023083E2 		add	r3, r3, #2
 10091 04cc 0030C5E5 		strb	r3, [r5, #0]
 10092 04d0 BC029FE5 		ldr	r0, .L306+20
 10093 04d4 0210A0E3 		mov	r1, #2
 10094 04d8 FEFFFFEB 		bl	uart_transmit
 10095 04dc 0030D5E5 		ldrb	r3, [r5, #0]	@ zero_extendqisi2
 10096 04e0 0A3083E2 		add	r3, r3, #10
 10097 04e4 0030C5E5 		strb	r3, [r5, #0]
 10098 04e8 A4029FE5 		ldr	r0, .L306+20
 10099 04ec 0A10A0E3 		mov	r1, #10
 10100 04f0 FEFFFFEB 		bl	uart_transmit
 10101 04f4 CC329FE5 		ldr	r3, .L306+72
 10102 04f8 0010D3E5 		ldrb	r1, [r3, #0]	@ zero_extendqisi2
 10103 04fc 0030D5E5 		ldrb	r3, [r5, #0]	@ zero_extendqisi2
 10104 0500 033081E0 		add	r3, r1, r3
 10105 0504 0030C5E5 		strb	r3, [r5, #0]
 10106 0508 84029FE5 		ldr	r0, .L306+20
 10107 050c FEFFFFEB 		bl	uart_transmit
 10108 0510 B4329FE5 		ldr	r3, .L306+76
 10109 0514 0010D3E5 		ldrb	r1, [r3, #0]	@ zero_extendqisi2
 10110 0518 0030D5E5 		ldrb	r3, [r5, #0]	@ zero_extendqisi2
 10111 051c 033081E0 		add	r3, r1, r3
 10112 0520 0030C5E5 		strb	r3, [r5, #0]
 10113 0524 68029FE5 		ldr	r0, .L306+20
 10114 0528 FEFFFFEB 		bl	uart_transmit
 10115 052c 0010D4E5 		ldrb	r1, [r4, #0]	@ zero_extendqisi2
 10116 0530 0030D5E5 		ldrb	r3, [r5, #0]	@ zero_extendqisi2
 10117 0534 033081E0 		add	r3, r1, r3
 10118 0538 0030C5E5 		strb	r3, [r5, #0]
 10119 053c 50029FE5 		ldr	r0, .L306+20
 10120 0540 FEFFFFEB 		bl	uart_transmit
 10121 0544 0110D4E5 		ldrb	r1, [r4, #1]	@ zero_extendqisi2
 10122 0548 0030D5E5 		ldrb	r3, [r5, #0]	@ zero_extendqisi2
 10123 054c 033081E0 		add	r3, r1, r3
 10124 0550 0030C5E5 		strb	r3, [r5, #0]
 10125 0554 38029FE5 		ldr	r0, .L306+20
 10126 0558 FEFFFFEB 		bl	uart_transmit
 10127 055c 0210D4E5 		ldrb	r1, [r4, #2]	@ zero_extendqisi2
 10128 0560 0030D5E5 		ldrb	r3, [r5, #0]	@ zero_extendqisi2
 10129 0564 033081E0 		add	r3, r1, r3
 10130 0568 0030C5E5 		strb	r3, [r5, #0]
 10131 056c 20029FE5 		ldr	r0, .L306+20
 10132 0570 FEFFFFEB 		bl	uart_transmit
 10133 0574 0310D4E5 		ldrb	r1, [r4, #3]	@ zero_extendqisi2
 10134 0578 0030D5E5 		ldrb	r3, [r5, #0]	@ zero_extendqisi2
 10135 057c 033081E0 		add	r3, r1, r3
 10136 0580 0030C5E5 		strb	r3, [r5, #0]
 10137 0584 08029FE5 		ldr	r0, .L306+20
 10138 0588 FEFFFFEB 		bl	uart_transmit
 10139 058c 0410D4E5 		ldrb	r1, [r4, #4]	@ zero_extendqisi2
 10140 0590 0030D5E5 		ldrb	r3, [r5, #0]	@ zero_extendqisi2
 10141 0594 033081E0 		add	r3, r1, r3
 10142 0598 0030C5E5 		strb	r3, [r5, #0]
 10143 059c F0019FE5 		ldr	r0, .L306+20
 10144 05a0 FEFFFFEB 		bl	uart_transmit
 10145 05a4 0510D4E5 		ldrb	r1, [r4, #5]	@ zero_extendqisi2
 10146 05a8 0030D5E5 		ldrb	r3, [r5, #0]	@ zero_extendqisi2
 10147 05ac 033081E0 		add	r3, r1, r3
 10148 05b0 0030C5E5 		strb	r3, [r5, #0]
 10149 05b4 D8019FE5 		ldr	r0, .L306+20
 10150 05b8 FEFFFFEB 		bl	uart_transmit
 10151 05bc 0610D4E5 		ldrb	r1, [r4, #6]	@ zero_extendqisi2
 10152 05c0 0030D5E5 		ldrb	r3, [r5, #0]	@ zero_extendqisi2
 10153 05c4 033081E0 		add	r3, r1, r3
 10154 05c8 0030C5E5 		strb	r3, [r5, #0]
 10155 05cc C0019FE5 		ldr	r0, .L306+20
 10156 05d0 FEFFFFEB 		bl	uart_transmit
 10157 05d4 0710D4E5 		ldrb	r1, [r4, #7]	@ zero_extendqisi2
 10158 05d8 0030D5E5 		ldrb	r3, [r5, #0]	@ zero_extendqisi2
 10159 05dc EC419FE5 		ldr	r4, .L306+80
 10160 05e0 033081E0 		add	r3, r1, r3
 10161 05e4 0030C5E5 		strb	r3, [r5, #0]
 10162 05e8 A4019FE5 		ldr	r0, .L306+20
 10163 05ec FEFFFFEB 		bl	uart_transmit
 10164 05f0 0010D4E5 		ldrb	r1, [r4, #0]	@ zero_extendqisi2
 10165 05f4 0030D5E5 		ldrb	r3, [r5, #0]	@ zero_extendqisi2
 10166 05f8 033081E0 		add	r3, r1, r3
 10167 05fc 0030C5E5 		strb	r3, [r5, #0]
 10168 0600 8C019FE5 		ldr	r0, .L306+20
 10169 0604 FEFFFFEB 		bl	uart_transmit
 10170 0608 0110D4E5 		ldrb	r1, [r4, #1]	@ zero_extendqisi2
 10171 060c 0030D5E5 		ldrb	r3, [r5, #0]	@ zero_extendqisi2
 10172 0610 033081E0 		add	r3, r1, r3
 10173 0614 0030C5E5 		strb	r3, [r5, #0]
 10174 0618 74019FE5 		ldr	r0, .L306+20
 10175 061c FEFFFFEB 		bl	uart_transmit
 10176 0620 0210D4E5 		ldrb	r1, [r4, #2]	@ zero_extendqisi2
 10177 0624 0030D5E5 		ldrb	r3, [r5, #0]	@ zero_extendqisi2
 10178 0628 033081E0 		add	r3, r1, r3
 10179 062c 0030C5E5 		strb	r3, [r5, #0]
 10180 0630 5C019FE5 		ldr	r0, .L306+20
 10181 0634 FEFFFFEB 		bl	uart_transmit
 10182 0638 0310D4E5 		ldrb	r1, [r4, #3]	@ zero_extendqisi2
 10183 063c 0030D5E5 		ldrb	r3, [r5, #0]	@ zero_extendqisi2
 10184 0640 8C419FE5 		ldr	r4, .L306+84
 10185 0644 033081E0 		add	r3, r1, r3
 10186 0648 0030C5E5 		strb	r3, [r5, #0]
 10187 064c 40019FE5 		ldr	r0, .L306+20
 10188 0650 FEFFFFEB 		bl	uart_transmit
 10189 0654 0010D4E5 		ldrb	r1, [r4, #0]	@ zero_extendqisi2
 10190 0658 0030D5E5 		ldrb	r3, [r5, #0]	@ zero_extendqisi2
 10191 065c 033081E0 		add	r3, r1, r3
 10192 0660 0030C5E5 		strb	r3, [r5, #0]
 10193 0664 28019FE5 		ldr	r0, .L306+20
 10194 0668 FEFFFFEB 		bl	uart_transmit
 10195 066c 0110D4E5 		ldrb	r1, [r4, #1]	@ zero_extendqisi2
 10196 0670 0030D5E5 		ldrb	r3, [r5, #0]	@ zero_extendqisi2
 10197 0674 033081E0 		add	r3, r1, r3
 10198 0678 0030C5E5 		strb	r3, [r5, #0]
 10199 067c 10019FE5 		ldr	r0, .L306+20
 10200 0680 FEFFFFEB 		bl	uart_transmit
 10201 0684 0210D4E5 		ldrb	r1, [r4, #2]	@ zero_extendqisi2
 10202 0688 0030D5E5 		ldrb	r3, [r5, #0]	@ zero_extendqisi2
 10203 068c 033081E0 		add	r3, r1, r3
 10204 0690 0030C5E5 		strb	r3, [r5, #0]
 10205 0694 F8009FE5 		ldr	r0, .L306+20
 10206 0698 FEFFFFEB 		bl	uart_transmit
 10207 069c 0310D4E5 		ldrb	r1, [r4, #3]	@ zero_extendqisi2
 10208 06a0 0030D5E5 		ldrb	r3, [r5, #0]	@ zero_extendqisi2
 10209 06a4 033081E0 		add	r3, r1, r3
 10210 06a8 0030C5E5 		strb	r3, [r5, #0]
 10211 06ac E0009FE5 		ldr	r0, .L306+20
 10212 06b0 FEFFFFEB 		bl	uart_transmit
 10213 06b4 0030D5E5 		ldrb	r3, [r5, #0]	@ zero_extendqisi2
 10214 06b8 033087E0 		add	r3, r7, r3
 10215 06bc 0030C5E5 		strb	r3, [r5, #0]
 10216 06c0 0710A0E1 		mov	r1, r7
 10217 06c4 C8009FE5 		ldr	r0, .L306+20
 10218 06c8 FEFFFFEB 		bl	uart_transmit
 10219 06cc 04319FE5 		ldr	r3, .L306+88
 10220 06d0 0010D3E5 		ldrb	r1, [r3, #0]	@ zero_extendqisi2
 10221 06d4 0030D5E5 		ldrb	r3, [r5, #0]	@ zero_extendqisi2
 10222 06d8 033081E0 		add	r3, r1, r3
 10223 06dc 0030C5E5 		strb	r3, [r5, #0]
 10224 06e0 AC009FE5 		ldr	r0, .L306+20
 10225 06e4 FEFFFFEB 		bl	uart_transmit
 10226 06e8 0010D5E5 		ldrb	r1, [r5, #0]	@ zero_extendqisi2
 10227 06ec 0110E0E1 		mvn	r1, r1
 10228 06f0 FF1001E2 		and	r1, r1, #255
 10229 06f4 0010C5E5 		strb	r1, [r5, #0]
 10230 06f8 94009FE5 		ldr	r0, .L306+20
 10231 06fc FEFFFFEB 		bl	uart_transmit
 10232 0700 030000EA 		b	.L302
 10233              	.L301:
 10234 0704 A8309FE5 		ldr	r3, .L306+52
 10235 0708 0020D3E5 		ldrb	r2, [r3, #0]	@ zero_extendqisi2
 10236 070c 012082E2 		add	r2, r2, #1
 10237 0710 0020C3E5 		strb	r2, [r3, #0]
 10238              	.L302:
 10239 0714 88309FE5 		ldr	r3, .L306+36
 10240 0718 0030D3E5 		ldrb	r3, [r3, #0]	@ zero_extendqisi2
 10241 071c 030053E3 		cmp	r3, #3
 10242 0720 FEFFFF0B 		bleq	v_ctl_altitude_loop
 10243              	.L303:
 10244 0724 60309FE5 		ldr	r3, .L306+12
 10245 0728 0030D3E5 		ldrb	r3, [r3, #0]	@ zero_extendqisi2
 10246 072c 023043E2 		sub	r3, r3, #2
 10247 0730 020053E3 		cmp	r3, #2
 10248 0734 0300008A 		bhi	.L304
 10249 0738 68309FE5 		ldr	r3, .L306+40
 10250 073c 0030D3E5 		ldrb	r3, [r3, #0]	@ zero_extendqisi2
 10251 0740 020053E3 		cmp	r3, #2
 10252 0744 FEFFFF8B 		blhi	h_ctl_course_loop
 10253              	.L304:
 10254 0748 8C309FE5 		ldr	r3, .L306+92
 10255 074c 000093E5 		ldr	r0, [r3, #0]
 10256 0750 FEFFFFEB 		bl	__aeabi_i2f
 10257 0754 84109FE5 		ldr	r1, .L306+96
 10258 0758 FEFFFFEB 		bl	__aeabi_fdiv
 10259 075c FA15A0E3 		mov	r1, #1048576000
 10260 0760 FEFFFFEB 		bl	__aeabi_fmul
 10261 0764 78409FE5 		ldr	r4, .L306+100
 10262 0768 0010A0E1 		mov	r1, r0
 10263 076c 000094E5 		ldr	r0, [r4, #0]	@ float
 10264 0770 FEFFFFEB 		bl	__aeabi_fadd
 10265 0774 000084E5 		str	r0, [r4, #0]	@ float
 10266 0778 F840BDE8 		ldmfd	sp!, {r3, r4, r5, r6, r7, lr}
 10267 077c 1EFF2FE1 		bx	lr
 10268              	.L307:
 10269              		.align	2
 10270              	.L306:
 10271 0780 00000000 		.word	.LANCHOR22
 10272 0784 00000000 		.word	sys_time
 10273 0788 00000000 		.word	gps
 10274 078c 00000000 		.word	.LANCHOR21
 10275 0790 00000000 		.word	.LANCHOR61
 10276 0794 00000000 		.word	uart0
 10277 0798 00000000 		.word	downlink_nb_bytes
 10278 079c 00000000 		.word	downlink_nb_msgs
 10279 07a0 00000000 		.word	xbee_cs
 10280 07a4 00000000 		.word	v_ctl_mode
 10281 07a8 00000000 		.word	.LANCHOR23
 10282 07ac 00000000 		.word	horizontal_mode
 10283 07b0 00000000 		.word	.LANCHOR24
 10284 07b4 00000000 		.word	downlink_nb_ovrn
 10285 07b8 00000000 		.word	.LANCHOR62
 10286 07bc 00000000 		.word	nav_circle_radians
 10287 07c0 182D4454 		.word	1413754136
 10288 07c4 FB211940 		.word	1075388923
 10289 07c8 00000000 		.word	nav_block
 10290 07cc 00000000 		.word	nav_stage
 10291 07d0 00000000 		.word	dist2_to_wp
 10292 07d4 00000000 		.word	dist2_to_home
 10293 07d8 00000000 		.word	nav_oval_count
 10294 07dc 00000000 		.word	.LANCHOR17
 10295 07e0 00006145 		.word	1163984896
 10296 07e4 00000000 		.word	energy
 10298              		.global	__aeabi_dcmpgt
 10299              		.global	__aeabi_fcmpgt
 10300              		.global	__aeabi_fcmplt
 10301              		.section	.text.attitude_loop,"ax",%progbits
 10302              		.align	2
 10303              		.global	attitude_loop
 10305              	attitude_loop:
 10306              		@ Function supports interworking.
 10307              		@ args = 0, pretend = 0, frame = 0
 10308              		@ frame_needed = 0, uses_anonymous_args = 0
 10309 0000 F8402DE9 		stmfd	sp!, {r3, r4, r5, r6, r7, lr}
 10310 0004 FEFFFFEB 		bl	ahrs_update_infrared
 10311 0008 94319FE5 		ldr	r3, .L324
 10312 000c 0030D3E5 		ldrb	r3, [r3, #0]	@ zero_extendqisi2
 10313 0010 010053E3 		cmp	r3, #1
 10314 0014 4F00009A 		bls	.L309
 10315 0018 88319FE5 		ldr	r3, .L324+4
 10316 001c 0030D3E5 		ldrb	r3, [r3, #0]	@ zero_extendqisi2
 10317 0020 010053E3 		cmp	r3, #1
 10318 0024 0800001A 		bne	.L310
 10319 0028 7C319FE5 		ldr	r3, .L324+8
 10320 002c B020D3E1 		ldrh	r2, [r3, #0]
 10321 0030 78319FE5 		ldr	r3, .L324+12
 10322 0034 B020C3E1 		strh	r2, [r3, #0]	@ movhi
 10323 0038 74319FE5 		ldr	r3, .L324+16
 10324 003c 002093E5 		ldr	r2, [r3, #0]	@ float
 10325 0040 70319FE5 		ldr	r3, .L324+20
 10326 0044 002083E5 		str	r2, [r3, #0]	@ float
 10327 0048 000000EA 		b	.L311
 10328              	.L310:
 10329 004c FEFFFF8B 		blhi	v_ctl_climb_loop
 10330              	.L311:
 10331 0050 64319FE5 		ldr	r3, .L324+24
 10332 0054 0050D3E5 		ldrb	r5, [r3, #0]	@ zero_extendqisi2
 10333 0058 0500A0E1 		mov	r0, r5
 10334 005c FEFFFFEB 		bl	__aeabi_i2d
 10335 0060 0020A0E3 		mov	r2, #0
 10336 0064 0030A0E3 		mov	r3, #0
 10337 0068 FEFFFFEB 		bl	__aeabi_dcmpgt
 10338 006c 000050E3 		cmp	r0, #0
 10339 0070 1800000A 		beq	.L312
 10340 0074 34419FE5 		ldr	r4, .L324+12
 10341 0078 F000D4E1 		ldrsh	r0, [r4, #0]
 10342 007c FEFFFFEB 		bl	__aeabi_i2d
 10343 0080 0060A0E1 		mov	r6, r0
 10344 0084 0500A0E1 		mov	r0, r5
 10345 0088 0170A0E1 		mov	r7, r1
 10346 008c FEFFFFEB 		bl	__aeabi_ui2f
 10347 0090 FEFFFFEB 		bl	__aeabi_f2d
 10348 0094 0020A0E1 		mov	r2, r0
 10349 0098 0130A0E1 		mov	r3, r1
 10350 009c 0000A0E3 		mov	r0, #0
 10351 00a0 18119FE5 		ldr	r1, .L324+28
 10352 00a4 FEFFFFEB 		bl	__aeabi_ddiv
 10353 00a8 0130A0E1 		mov	r3, r1
 10354 00ac 0020A0E1 		mov	r2, r0
 10355 00b0 0710A0E1 		mov	r1, r7
 10356 00b4 0600A0E1 		mov	r0, r6
 10357 00b8 FEFFFFEB 		bl	__aeabi_dmul
 10358 00bc FEFFFFEB 		bl	__aeabi_d2iz
 10359 00c0 0038A0E1 		mov	r3, r0, asl #16
 10360 00c4 4338A0E1 		mov	r3, r3, asr #16
 10361 00c8 960D53E3 		cmp	r3, #9600
 10362 00cc 963DA0A3 		movge	r3, #9600
 10363 00d0 C33FC3E1 		bic	r3, r3, r3, asr #31
 10364 00d4 B030C4E1 		strh	r3, [r4, #0]	@ movhi
 10365              	.L312:
 10366 00d8 D8309FE5 		ldr	r3, .L324+20
 10367 00dc E0409FE5 		ldr	r4, .L324+32
 10368 00e0 005093E5 		ldr	r5, [r3, #0]	@ float
 10369 00e4 3F64A0E3 		mov	r6, #1056964608
 10370 00e8 005084E5 		str	r5, [r4, #0]	@ float
 10371 00ec 0500A0E1 		mov	r0, r5
 10372 00f0 0610A0E1 		mov	r1, r6
 10373 00f4 FEFFFFEB 		bl	__aeabi_fcmpgt
 10374 00f8 000050E3 		cmp	r0, #0
 10375 00fc 0500001A 		bne	.L323
 10376              	.L322:
 10377 0100 BF64A0E3 		mov	r6, #-1090519040
 10378 0104 0500A0E1 		mov	r0, r5
 10379 0108 0610A0E1 		mov	r1, r6
 10380 010c FEFFFFEB 		bl	__aeabi_fcmplt
 10381 0110 000050E3 		cmp	r0, #0
 10382 0114 0000000A 		beq	.L316
 10383              	.L323:
 10384 0118 006084E5 		str	r6, [r4, #0]	@ float
 10385              	.L316:
 10386 011c A4309FE5 		ldr	r3, .L324+36
 10387 0120 0030D3E5 		ldrb	r3, [r3, #0]	@ zero_extendqisi2
 10388 0124 000053E3 		cmp	r3, #0
 10389 0128 0700001A 		bne	.L318
 10390 012c 98309FE5 		ldr	r3, .L324+40
 10391 0130 B030D3E1 		ldrh	r3, [r3, #0]
 10392 0134 000053E3 		cmp	r3, #0
 10393 0138 0600001A 		bne	.L309
 10394 013c 8C309FE5 		ldr	r3, .L324+44
 10395 0140 0030D3E5 		ldrb	r3, [r3, #0]	@ zero_extendqisi2
 10396 0144 000053E3 		cmp	r3, #0
 10397 0148 0200001A 		bne	.L309
 10398              	.L318:
 10399 014c 5C309FE5 		ldr	r3, .L324+12
 10400 0150 0020A0E3 		mov	r2, #0
 10401 0154 B020C3E1 		strh	r2, [r3, #0]	@ movhi
 10402              	.L309:
 10403 0158 FEFFFFEB 		bl	h_ctl_attitude_loop
 10404 015c FEFFFFEB 		bl	v_ctl_throttle_slew
 10405 0160 6C309FE5 		ldr	r3, .L324+48
 10406 0164 6C209FE5 		ldr	r2, .L324+52
 10407 0168 003093E5 		ldr	r3, [r3, #0]
 10408 016c B020D2E1 		ldrh	r2, [r2, #0]
 10409 0170 B020C3E1 		strh	r2, [r3, #0]	@ movhi
 10410 0174 60209FE5 		ldr	r2, .L324+56
 10411 0178 B020D2E1 		ldrh	r2, [r2, #0]
 10412 017c 002062E2 		rsb	r2, r2, #0
 10413 0180 B220C3E1 		strh	r2, [r3, #2]	@ movhi
 10414 0184 54209FE5 		ldr	r2, .L324+60
 10415 0188 B020D2E1 		ldrh	r2, [r2, #0]
 10416 018c B420C3E1 		strh	r2, [r3, #4]	@ movhi
 10417 0190 4C309FE5 		ldr	r3, .L324+64
 10418 0194 0120A0E3 		mov	r2, #1
 10419 0198 0020C3E5 		strb	r2, [r3, #0]
 10420 019c F840BDE8 		ldmfd	sp!, {r3, r4, r5, r6, r7, lr}
 10421 01a0 1EFF2FE1 		bx	lr
 10422              	.L325:
 10423              		.align	2
 10424              	.L324:
 10425 01a4 00000000 		.word	.LANCHOR21
 10426 01a8 00000000 		.word	v_ctl_mode
 10427 01ac 00000000 		.word	nav_throttle_setpoint
 10428 01b0 00000000 		.word	v_ctl_throttle_setpoint
 10429 01b4 00000000 		.word	nav_pitch
 10430 01b8 00000000 		.word	v_ctl_pitch_setpoint
 10431 01bc 00000000 		.word	vsupply
 10432 01c0 00C05B40 		.word	1079754752
 10433 01c4 00000000 		.word	h_ctl_pitch_setpoint
 10434 01c8 00000000 		.word	.LANCHOR19
 10435 01cc 00000000 		.word	.LANCHOR18
 10436 01d0 00000000 		.word	.LANCHOR22
 10437 01d4 00000000 		.word	ap_state
 10438 01d8 00000000 		.word	v_ctl_throttle_slewed
 10439 01dc 00000000 		.word	h_ctl_aileron_setpoint
 10440 01e0 00000000 		.word	h_ctl_elevator_setpoint
 10441 01e4 00000000 		.word	inter_mcu_received_ap
 10443              		.section	.text.sensors_task,"ax",%progbits
 10444              		.align	2
 10445              		.global	sensors_task
 10447              	sensors_task:
 10448              		@ Function supports interworking.
 10449              		@ args = 0, pretend = 0, frame = 0
 10450              		@ frame_needed = 0, uses_anonymous_args = 0
 10451 0000 08402DE9 		stmfd	sp!, {r3, lr}
 10452 0004 FEFFFFEB 		bl	imu_periodic
 10453 0008 20309FE5 		ldr	r3, .L328
 10454 000c 0020D3E5 		ldrb	r2, [r3, #0]	@ zero_extendqisi2
 10455 0010 FF0052E3 		cmp	r2, #255
 10456 0014 0020D315 		ldrneb	r2, [r3, #0]	@ zero_extendqisi2
 10457 0018 01208212 		addne	r2, r2, #1
 10458 001c FF200212 		andne	r2, r2, #255
 10459 0020 0020C315 		strneb	r2, [r3, #0]
 10460 0024 FEFFFFEB 		bl	ins_periodic
 10461 0028 0840BDE8 		ldmfd	sp!, {r3, lr}
 10462 002c 1EFF2FE1 		bx	lr
 10463              	.L329:
 10464              		.align	2
 10465              	.L328:
 10466 0030 00000000 		.word	.LANCHOR63
 10468              		.global	__aeabi_dcmplt
 10469              		.section	.text.monitor_task,"ax",%progbits
 10470              		.align	2
 10471              		.global	monitor_task
 10473              	monitor_task:
 10474              		@ Function supports interworking.
 10475              		@ args = 0, pretend = 0, frame = 8
 10476              		@ frame_needed = 0, uses_anonymous_args = 0
 10477 0000 2C329FE5 		ldr	r3, .L345
 10478 0004 37402DE9 		stmfd	sp!, {r0, r1, r2, r4, r5, lr}
 10479 0008 B020D3E1 		ldrh	r2, [r3, #0]
 10480 000c 000052E3 		cmp	r2, #0
 10481 0010 01208212 		addne	r2, r2, #1
 10482 0014 B020C311 		strneh	r2, [r3, #0]	@ movhi
 10483 0018 18329FE5 		ldr	r3, .L345+4
 10484 001c B020D3E1 		ldrh	r2, [r3, #0]
 10485 0020 012082E2 		add	r2, r2, #1
 10486 0024 B020C3E1 		strh	r2, [r3, #0]	@ movhi
 10487 0028 0C329FE5 		ldr	r3, .L345+8
 10488 002c 0000D3E5 		ldrb	r0, [r3, #0]	@ zero_extendqisi2
 10489 0030 FEFFFFEB 		bl	__aeabi_i2d
 10490 0034 0020A0E3 		mov	r2, #0
 10491 0038 00329FE5 		ldr	r3, .L345+12
 10492 003c FEFFFFEB 		bl	__aeabi_dcmplt
 10493 0040 FC319FE5 		ldr	r3, .L345+16
 10494 0044 000050E3 		cmp	r0, #0
 10495 0048 0020D315 		ldrneb	r2, [r3, #0]	@ zero_extendqisi2
 10496 004c 01208212 		addne	r2, r2, #1
 10497 0050 0020C315 		strneb	r2, [r3, #0]
 10498 0054 0000C305 		streqb	r0, [r3, #0]
 10499 0058 0040D3E5 		ldrb	r4, [r3, #0]	@ zero_extendqisi2
 10500 005c E4319FE5 		ldr	r3, .L345+20
 10501 0060 0030D3E5 		ldrb	r3, [r3, #0]	@ zero_extendqisi2
 10502 0064 040054E3 		cmp	r4, #4
 10503 0068 0340A091 		movls	r4, r3
 10504 006c 01408383 		orrhi	r4, r3, #1
 10505 0070 D4319FE5 		ldr	r3, .L345+24
 10506 0074 0000D3E5 		ldrb	r0, [r3, #0]	@ zero_extendqisi2
 10507 0078 000050E3 		cmp	r0, #0
 10508 007c 0500000A 		beq	.L335
 10509 0080 C8319FE5 		ldr	r3, .L345+28
 10510 0084 C8119FE5 		ldr	r1, .L345+32
 10511 0088 000093E5 		ldr	r0, [r3, #0]	@ float
 10512 008c FEFFFFEB 		bl	__aeabi_fcmpgt
 10513 0090 000090E2 		adds	r0, r0, #0
 10514 0094 0100A013 		movne	r0, #1
 10515              	.L335:
 10516 0098 A8319FE5 		ldr	r3, .L345+20
 10517 009c 004084E1 		orr	r4, r4, r0
 10518 00a0 0040C3E5 		strb	r4, [r3, #0]
 10519 00a4 88319FE5 		ldr	r3, .L345
 10520 00a8 B030D3E1 		ldrh	r3, [r3, #0]
 10521 00ac 000053E3 		cmp	r3, #0
 10522 00b0 5D00001A 		bne	.L330
 10523 00b4 9C419FE5 		ldr	r4, .L345+36
 10524 00b8 1531D4E5 		ldrb	r3, [r4, #277]	@ zero_extendqisi2
 10525 00bc 010013E3 		tst	r3, #1
 10526 00c0 FEFFFF0B 		bleq	stateCalcHorizontalSpeedNorm_f
 10527              	.L338:
 10528 00c4 680194E5 		ldr	r0, [r4, #360]	@ float
 10529 00c8 8C119FE5 		ldr	r1, .L345+40
 10530 00cc FEFFFFEB 		bl	__aeabi_fcmpgt
 10531 00d0 000050E3 		cmp	r0, #0
 10532 00d4 5400000A 		beq	.L330
 10533 00d8 54319FE5 		ldr	r3, .L345
 10534 00dc 0150A0E3 		mov	r5, #1
 10535 00e0 B050C3E1 		strh	r5, [r3, #0]	@ movhi
 10536 00e4 60319FE5 		ldr	r3, .L345+24
 10537 00e8 0050C3E5 		strb	r5, [r3, #0]
 10538 00ec 6C319FE5 		ldr	r3, .L345+44
 10539 00f0 003093E5 		ldr	r3, [r3, #0]
 10540 00f4 68019FE5 		ldr	r0, .L345+48
 10541 00f8 0D10A0E3 		mov	r1, #13
 10542 00fc B630CDE1 		strh	r3, [sp, #6]	@ movhi
 10543 0100 FEFFFFEB 		bl	uart_check_free_space
 10544 0104 000050E3 		cmp	r0, #0
 10545 0108 4300000A 		beq	.L340
 10546 010c 54319FE5 		ldr	r3, .L345+52
 10547 0110 B020D3E1 		ldrh	r2, [r3, #0]
 10548 0114 0D2082E2 		add	r2, r2, #13
 10549 0118 B020C3E1 		strh	r2, [r3, #0]	@ movhi
 10550 011c 48319FE5 		ldr	r3, .L345+56
 10551 0120 B020D3E1 		ldrh	r2, [r3, #0]
 10552 0124 052082E0 		add	r2, r2, r5
 10553 0128 B020C3E1 		strh	r2, [r3, #0]	@ movhi
 10554 012c 30019FE5 		ldr	r0, .L345+48
 10555 0130 7E10A0E3 		mov	r1, #126
 10556 0134 34419FE5 		ldr	r4, .L345+60
 10557 0138 FEFFFFEB 		bl	uart_transmit
 10558 013c 20019FE5 		ldr	r0, .L345+48
 10559 0140 0010A0E3 		mov	r1, #0
 10560 0144 FEFFFFEB 		bl	uart_transmit
 10561 0148 14019FE5 		ldr	r0, .L345+48
 10562 014c 0910A0E3 		mov	r1, #9
 10563 0150 FEFFFFEB 		bl	uart_transmit
 10564 0154 0510A0E1 		mov	r1, r5
 10565 0158 0050C4E5 		strb	r5, [r4, #0]
 10566 015c 00019FE5 		ldr	r0, .L345+48
 10567 0160 FEFFFFEB 		bl	uart_transmit
 10568 0164 F8009FE5 		ldr	r0, .L345+48
 10569 0168 0010A0E3 		mov	r1, #0
 10570 016c FEFFFFEB 		bl	uart_transmit
 10571 0170 0030D4E5 		ldrb	r3, [r4, #0]	@ zero_extendqisi2
 10572 0174 053083E0 		add	r3, r3, r5
 10573 0178 0030C4E5 		strb	r3, [r4, #0]
 10574 017c 0510A0E1 		mov	r1, r5
 10575 0180 DC009FE5 		ldr	r0, .L345+48
 10576 0184 FEFFFFEB 		bl	uart_transmit
 10577 0188 D4009FE5 		ldr	r0, .L345+48
 10578 018c 0010A0E3 		mov	r1, #0
 10579 0190 FEFFFFEB 		bl	uart_transmit
 10580 0194 C8009FE5 		ldr	r0, .L345+48
 10581 0198 0010A0E3 		mov	r1, #0
 10582 019c FEFFFFEB 		bl	uart_transmit
 10583 01a0 0030D4E5 		ldrb	r3, [r4, #0]	@ zero_extendqisi2
 10584 01a4 023083E2 		add	r3, r3, #2
 10585 01a8 0030C4E5 		strb	r3, [r4, #0]
 10586 01ac B0009FE5 		ldr	r0, .L345+48
 10587 01b0 0210A0E3 		mov	r1, #2
 10588 01b4 FEFFFFEB 		bl	uart_transmit
 10589 01b8 0030D4E5 		ldrb	r3, [r4, #0]	@ zero_extendqisi2
 10590 01bc 043083E2 		add	r3, r3, #4
 10591 01c0 0030C4E5 		strb	r3, [r4, #0]
 10592 01c4 98009FE5 		ldr	r0, .L345+48
 10593 01c8 0410A0E3 		mov	r1, #4
 10594 01cc FEFFFFEB 		bl	uart_transmit
 10595 01d0 0610DDE5 		ldrb	r1, [sp, #6]	@ zero_extendqisi2
 10596 01d4 0030D4E5 		ldrb	r3, [r4, #0]	@ zero_extendqisi2
 10597 01d8 033081E0 		add	r3, r1, r3
 10598 01dc 0030C4E5 		strb	r3, [r4, #0]
 10599 01e0 7C009FE5 		ldr	r0, .L345+48
 10600 01e4 FEFFFFEB 		bl	uart_transmit
 10601 01e8 0710DDE5 		ldrb	r1, [sp, #7]	@ zero_extendqisi2
 10602 01ec 0030D4E5 		ldrb	r3, [r4, #0]	@ zero_extendqisi2
 10603 01f0 033081E0 		add	r3, r1, r3
 10604 01f4 0030C4E5 		strb	r3, [r4, #0]
 10605 01f8 64009FE5 		ldr	r0, .L345+48
 10606 01fc FEFFFFEB 		bl	uart_transmit
 10607 0200 0010D4E5 		ldrb	r1, [r4, #0]	@ zero_extendqisi2
 10608 0204 0110E0E1 		mvn	r1, r1
 10609 0208 FF1001E2 		and	r1, r1, #255
 10610 020c 0010C4E5 		strb	r1, [r4, #0]
 10611 0210 4C009FE5 		ldr	r0, .L345+48
 10612 0214 FEFFFFEB 		bl	uart_transmit
 10613 0218 030000EA 		b	.L330
 10614              	.L340:
 10615 021c 50309FE5 		ldr	r3, .L345+64
 10616 0220 0020D3E5 		ldrb	r2, [r3, #0]	@ zero_extendqisi2
 10617 0224 012082E2 		add	r2, r2, #1
 10618 0228 0020C3E5 		strb	r2, [r3, #0]
 10619              	.L330:
 10620 022c 3E40BDE8 		ldmfd	sp!, {r1, r2, r3, r4, r5, lr}
 10621 0230 1EFF2FE1 		bx	lr
 10622              	.L346:
 10623              		.align	2
 10624              	.L345:
 10625 0234 00000000 		.word	.LANCHOR18
 10626 0238 00000000 		.word	datalink_time
 10627 023c 00000000 		.word	vsupply
 10628 0240 00405740 		.word	1079459840
 10629 0244 00000000 		.word	.LANCHOR64
 10630 0248 00000000 		.word	.LANCHOR19
 10631 024c 00000000 		.word	.LANCHOR22
 10632 0250 00000000 		.word	dist2_to_home
 10633 0254 C87E9A4A 		.word	1251638984
 10634 0258 00000000 		.word	state
 10635 025c 0000A040 		.word	1084227584
 10636 0260 00000000 		.word	sys_time
 10637 0264 00000000 		.word	uart0
 10638 0268 00000000 		.word	downlink_nb_bytes
 10639 026c 00000000 		.word	downlink_nb_msgs
 10640 0270 00000000 		.word	xbee_cs
 10641 0274 00000000 		.word	downlink_nb_ovrn
 10643              		.global	__aeabi_idivmod
 10644              		.global	__aeabi_dsub
 10645              		.global	__aeabi_d2f
 10646              		.global	__aeabi_fcmpeq
 10647              		.global	__aeabi_fsub
 10648              		.global	__aeabi_fcmpge
 10649              		.section	.text.handle_periodic_tasks_ap,"ax",%progbits
 10650              		.align	2
 10651              		.global	handle_periodic_tasks_ap
 10653              	handle_periodic_tasks_ap:
 10654              		@ Function supports interworking.
 10655              		@ args = 0, pretend = 0, frame = 0
 10656              		@ frame_needed = 0, uses_anonymous_args = 0
 10657 0000 F0412DE9 		stmfd	sp!, {r4, r5, r6, r7, r8, lr}
 10658 0004 14359FE5 		ldr	r3, .L388
 10659 0008 0020D3E5 		ldrb	r2, [r3, #0]	@ zero_extendqisi2
 10660 000c 10359FE5 		ldr	r3, .L388+4
 10661 0010 1410A0E3 		mov	r1, #20
 10662 0014 913222E0 		mla	r2, r1, r2, r3
 10663 0018 1410D2E5 		ldrb	r1, [r2, #20]	@ zero_extendqisi2
 10664 001c 000051E3 		cmp	r1, #0
 10665 0020 102082E2 		add	r2, r2, #16
 10666 0024 0340A0E1 		mov	r4, r3
 10667 0028 0030A013 		movne	r3, #0
 10668 002c 0430C215 		strneb	r3, [r2, #4]
 10669 0030 FEFFFF1B 		blne	sensors_task
 10670              	.L348:
 10671 0034 EC349FE5 		ldr	r3, .L388+8
 10672 0038 0030D3E5 		ldrb	r3, [r3, #0]	@ zero_extendqisi2
 10673 003c 1420A0E3 		mov	r2, #20
 10674 0040 924323E0 		mla	r3, r2, r3, r4
 10675 0044 1420D3E5 		ldrb	r2, [r3, #20]	@ zero_extendqisi2
 10676 0048 000052E3 		cmp	r2, #0
 10677 004c 103083E2 		add	r3, r3, #16
 10678 0050 0020A013 		movne	r2, #0
 10679 0054 0420C315 		strneb	r2, [r3, #4]
 10680 0058 FEFFFF1B 		blne	navigation_task
 10681              	.L349:
 10682 005c C8349FE5 		ldr	r3, .L388+12
 10683 0060 0020D3E5 		ldrb	r2, [r3, #0]	@ zero_extendqisi2
 10684 0064 B8349FE5 		ldr	r3, .L388+4
 10685 0068 1410A0E3 		mov	r1, #20
 10686 006c 913222E0 		mla	r2, r1, r2, r3
 10687 0070 1410D2E5 		ldrb	r1, [r2, #20]	@ zero_extendqisi2
 10688 0074 000051E3 		cmp	r1, #0
 10689 0078 102082E2 		add	r2, r2, #16
 10690 007c 0340A0E1 		mov	r4, r3
 10691 0080 0030A013 		movne	r3, #0
 10692 0084 0430C215 		strneb	r3, [r2, #4]
 10693 0088 FEFFFF1B 		blne	attitude_loop
 10694              	.L350:
 10695 008c 9C349FE5 		ldr	r3, .L388+16
 10696 0090 0030D3E5 		ldrb	r3, [r3, #0]	@ zero_extendqisi2
 10697 0094 1420A0E3 		mov	r2, #20
 10698 0098 924323E0 		mla	r3, r2, r3, r4
 10699 009c 1420D3E5 		ldrb	r2, [r3, #20]	@ zero_extendqisi2
 10700 00a0 000052E3 		cmp	r2, #0
 10701 00a4 103083E2 		add	r3, r3, #16
 10702 00a8 0201000A 		beq	.L351
 10703 00ac 0020A0E3 		mov	r2, #0
 10704 00b0 0420C3E5 		strb	r2, [r3, #4]
 10705 00b4 78349FE5 		ldr	r3, .L388+20
 10706 00b8 0010D3E5 		ldrb	r1, [r3, #0]	@ zero_extendqisi2
 10707 00bc 011081E2 		add	r1, r1, #1
 10708 00c0 FF1001E2 		and	r1, r1, #255
 10709 00c4 020051E1 		cmp	r1, r2
 10710 00c8 0010C3E5 		strb	r1, [r3, #0]
 10711 00cc 0020C315 		strneb	r2, [r3, #0]
 10712 00d0 60349FE5 		ldr	r3, .L388+24
 10713 00d4 0020D3E5 		ldrb	r2, [r3, #0]	@ zero_extendqisi2
 10714 00d8 012082E2 		add	r2, r2, #1
 10715 00dc FF2002E2 		and	r2, r2, #255
 10716 00e0 0E0052E3 		cmp	r2, #14
 10717 00e4 0020C3E5 		strb	r2, [r3, #0]
 10718 00e8 0020A083 		movhi	r2, #0
 10719 00ec 0020C385 		strhib	r2, [r3, #0]
 10720 00f0 44349FE5 		ldr	r3, .L388+28
 10721 00f4 0020D3E5 		ldrb	r2, [r3, #0]	@ zero_extendqisi2
 10722 00f8 012082E2 		add	r2, r2, #1
 10723 00fc FF2002E2 		and	r2, r2, #255
 10724 0100 1D0052E3 		cmp	r2, #29
 10725 0104 0020C3E5 		strb	r2, [r3, #0]
 10726 0108 0020A083 		movhi	r2, #0
 10727 010c 0020C385 		strhib	r2, [r3, #0]
 10728 0110 28349FE5 		ldr	r3, .L388+32
 10729 0114 0020D3E5 		ldrb	r2, [r3, #0]	@ zero_extendqisi2
 10730 0118 020052E3 		cmp	r2, #2
 10731 011c 0120A003 		moveq	r2, #1
 10732 0120 0020C305 		streqb	r2, [r3, #0]
 10733 0124 0030D3E5 		ldrb	r3, [r3, #0]	@ zero_extendqisi2
 10734 0128 030053E3 		cmp	r3, #3
 10735 012c 0C349F05 		ldreq	r3, .L388+32
 10736 0130 0020A003 		moveq	r2, #0
 10737 0134 0020C305 		streqb	r2, [r3, #0]
 10738 0138 04349FE5 		ldr	r3, .L388+36
 10739 013c 0020D3E5 		ldrb	r2, [r3, #0]	@ zero_extendqisi2
 10740 0140 020052E3 		cmp	r2, #2
 10741 0144 0120A003 		moveq	r2, #1
 10742 0148 0020C305 		streqb	r2, [r3, #0]
 10743 014c 0030D3E5 		ldrb	r3, [r3, #0]	@ zero_extendqisi2
 10744 0150 030053E3 		cmp	r3, #3
 10745 0154 E8339F05 		ldreq	r3, .L388+36
 10746 0158 0020A003 		moveq	r2, #0
 10747 015c 0020C305 		streqb	r2, [r3, #0]
 10748 0160 FEFFFFEB 		bl	infrared_adc_update
 10749 0164 CC339FE5 		ldr	r3, .L388+24
 10750 0168 0030D3E5 		ldrb	r3, [r3, #0]	@ zero_extendqisi2
 10751 016c 000053E3 		cmp	r3, #0
 10752 0170 C800001A 		bne	.L359
 10753 0174 C8339FE5 		ldr	r3, .L388+36
 10754 0178 0030D3E5 		ldrb	r3, [r3, #0]	@ zero_extendqisi2
 10755 017c 010053E3 		cmp	r3, #1
 10756 0180 C400001A 		bne	.L359
 10757 0184 BC339FE5 		ldr	r3, .L388+40
 10758 0188 0020D3E5 		ldrb	r2, [r3, #0]	@ zero_extendqisi2
 10759 018c 000052E3 		cmp	r2, #0
 10760 0190 B4339F05 		ldreq	r3, .L388+44
 10761 0194 00309305 		ldreq	r3, [r3, #0]
 10762 0198 01204212 		subne	r2, r2, #1
 10763 019c 962DA003 		moveq	r2, #9600
 10764 01a0 0020C315 		strneb	r2, [r3, #0]
 10765 01a4 B620C301 		streqh	r2, [r3, #6]	@ movhi
 10766 01a8 A0239FE5 		ldr	r2, .L388+48
 10767 01ac 0030D2E5 		ldrb	r3, [r2, #0]	@ zero_extendqisi2
 10768 01b0 013043E2 		sub	r3, r3, #1
 10769 01b4 040053E3 		cmp	r3, #4
 10770 01b8 03F19F97 		ldrls	pc, [pc, r3, asl #2]
 10771 01bc B30000EA 		b	.L362
 10772              	.L367:
 10773 01c0 D4010000 		.word	.L363
 10774 01c4 FC010000 		.word	.L364
 10775 01c8 90040000 		.word	.L362
 10776 01cc 64030000 		.word	.L365
 10777 01d0 34020000 		.word	.L366
 10778              	.L363:
 10779 01d4 78339FE5 		ldr	r3, .L388+52
 10780 01d8 0020D3E5 		ldrb	r2, [r3, #0]	@ zero_extendqisi2
 10781 01dc 000052E3 		cmp	r2, #0
 10782 01e0 01204212 		subne	r2, r2, #1
 10783 01e4 0020C315 		strneb	r2, [r3, #0]
 10784 01e8 AA00001A 		bne	.L359
 10785 01ec 64239FE5 		ldr	r2, .L388+56
 10786 01f0 0020D2E5 		ldrb	r2, [r2, #0]	@ zero_extendqisi2
 10787 01f4 0020C3E5 		strb	r2, [r3, #0]
 10788 01f8 A10000EA 		b	.L387
 10789              	.L364:
 10790 01fc 58339FE5 		ldr	r3, .L388+60
 10791 0200 6410A0E3 		mov	r1, #100
 10792 0204 180093E5 		ldr	r0, [r3, #24]
 10793 0208 FEFFFFEB 		bl	__aeabi_idiv
 10794 020c 6410A0E3 		mov	r1, #100
 10795 0210 FEFFFFEB 		bl	__aeabi_idivmod
 10796 0214 44339FE5 		ldr	r3, .L388+64
 10797 0218 0030D3E5 		ldrb	r3, [r3, #0]	@ zero_extendqisi2
 10798 021c 030051E1 		cmp	r1, r3
 10799 0220 9700003A 		bcc	.L387
 10800 0224 641061E2 		rsb	r1, r1, #100
 10801 0228 030051E1 		cmp	r1, r3
 10802 022c 9900002A 		bcs	.L359
 10803 0230 930000EA 		b	.L387
 10804              	.L366:
 10805 0234 FEFFFFEB 		bl	stateGetNedToBodyEulers_f
 10806 0238 080090E5 		ldr	r0, [r0, #8]	@ float
 10807 023c FEFFFFEB 		bl	__aeabi_f2d
 10808 0240 1C239FE5 		ldr	r2, .L388+68
 10809 0244 1C339FE5 		ldr	r3, .L388+72
 10810 0248 FEFFFFEB 		bl	__aeabi_dmul
 10811 024c 18339FE5 		ldr	r3, .L388+76
 10812 0250 0040A0E1 		mov	r4, r0
 10813 0254 000093E5 		ldr	r0, [r3, #0]	@ float
 10814 0258 0150A0E1 		mov	r5, r1
 10815 025c FEFFFFEB 		bl	__aeabi_f2d
 10816 0260 0020A0E1 		mov	r2, r0
 10817 0264 0130A0E1 		mov	r3, r1
 10818 0268 0400A0E1 		mov	r0, r4
 10819 026c 0510A0E1 		mov	r1, r5
 10820 0270 FEFFFFEB 		bl	__aeabi_dsub
 10821 0274 FEFFFFEB 		bl	__aeabi_d2f
 10822 0278 0010A0E3 		mov	r1, #0
 10823 027c 0040A0E1 		mov	r4, r0
 10824 0280 FEFFFFEB 		bl	__aeabi_fcmplt
 10825 0284 000050E3 		cmp	r0, #0
 10826 0288 0300000A 		beq	.L370
 10827 028c 0400A0E1 		mov	r0, r4
 10828 0290 D8129FE5 		ldr	r1, .L388+80
 10829 0294 FEFFFFEB 		bl	__aeabi_fadd
 10830 0298 0040A0E1 		mov	r4, r0
 10831              	.L370:
 10832 029c D0329FE5 		ldr	r3, .L388+84
 10833 02a0 0400A0E1 		mov	r0, r4
 10834 02a4 001093E5 		ldr	r1, [r3, #0]	@ float
 10835 02a8 FEFFFFEB 		bl	__aeabi_fdiv
 10836 02ac FEFFFFEB 		bl	floorf
 10837 02b0 C0429FE5 		ldr	r4, .L388+88
 10838 02b4 0030D4E5 		ldrb	r3, [r4, #0]	@ zero_extendqisi2
 10839 02b8 000053E3 		cmp	r3, #0
 10840 02bc 0050A0E1 		mov	r5, r0
 10841 02c0 0500000A 		beq	.L372
 10842 02c4 B0329FE5 		ldr	r3, .L388+92
 10843 02c8 001093E5 		ldr	r1, [r3, #0]	@ float
 10844 02cc FEFFFFEB 		bl	__aeabi_fcmpeq
 10845 02d0 000050E3 		cmp	r0, #0
 10846 02d4 0030A013 		movne	r3, #0
 10847 02d8 0030C415 		strneb	r3, [r4, #0]
 10848              	.L372:
 10849 02dc 98329FE5 		ldr	r3, .L388+92
 10850 02e0 004093E5 		ldr	r4, [r3, #0]	@ float
 10851 02e4 94329FE5 		ldr	r3, .L388+96
 10852 02e8 0410A0E1 		mov	r1, r4
 10853 02ec 0500A0E1 		mov	r0, r5
 10854 02f0 008093E5 		ldr	r8, [r3, #0]	@ float
 10855 02f4 FEFFFFEB 		bl	__aeabi_fcmplt
 10856 02f8 000050E3 		cmp	r0, #0
 10857 02fc 0460A001 		moveq	r6, r4
 10858 0300 0560A011 		movne	r6, r5
 10859 0304 0540A001 		moveq	r4, r5
 10860 0308 0610A0E1 		mov	r1, r6
 10861 030c 0400A0E1 		mov	r0, r4
 10862 0310 FEFFFFEB 		bl	__aeabi_fsub
 10863 0314 0810A0E1 		mov	r1, r8
 10864 0318 0070A0E1 		mov	r7, r0
 10865 031c 0600A0E1 		mov	r0, r6
 10866 0320 FEFFFFEB 		bl	__aeabi_fadd
 10867 0324 0410A0E1 		mov	r1, r4
 10868 0328 FEFFFFEB 		bl	__aeabi_fsub
 10869 032c 0010A0E1 		mov	r1, r0
 10870 0330 0700A0E1 		mov	r0, r7
 10871 0334 FEFFFFEB 		bl	fminf
 10872 0338 FE15A0E3 		mov	r1, #1065353216
 10873 033c FEFFFFEB 		bl	__aeabi_fcmpeq
 10874 0340 000050E3 		cmp	r0, #0
 10875 0344 5300000A 		beq	.L359
 10876 0348 34329FE5 		ldr	r3, .L388+100
 10877 034c B020D3E1 		ldrh	r2, [r3, #0]
 10878 0350 012082E2 		add	r2, r2, #1
 10879 0354 B020C3E1 		strh	r2, [r3, #0]	@ movhi
 10880 0358 1C329FE5 		ldr	r3, .L388+92
 10881 035c 005083E5 		str	r5, [r3, #0]	@ float
 10882 0360 470000EA 		b	.L387
 10883              	.L365:
 10884 0364 1C329FE5 		ldr	r3, .L388+104
 10885 0368 004093E5 		ldr	r4, [r3, #0]	@ float
 10886 036c FEFFFFEB 		bl	stateGetPositionEnu_f
 10887 0370 0030A0E1 		mov	r3, r0
 10888 0374 001093E5 		ldr	r1, [r3, #0]	@ float
 10889 0378 0400A0E1 		mov	r0, r4
 10890 037c FEFFFFEB 		bl	__aeabi_fsub
 10891 0380 04329FE5 		ldr	r3, .L388+108
 10892 0384 0060A0E1 		mov	r6, r0
 10893 0388 004093E5 		ldr	r4, [r3, #0]	@ float
 10894 038c FEFFFFEB 		bl	stateGetPositionEnu_f
 10895 0390 0030A0E1 		mov	r3, r0
 10896 0394 041093E5 		ldr	r1, [r3, #4]	@ float
 10897 0398 0400A0E1 		mov	r0, r4
 10898 039c FEFFFFEB 		bl	__aeabi_fsub
 10899 03a0 D0419FE5 		ldr	r4, .L388+88
 10900 03a4 0030D4E5 		ldrb	r3, [r4, #0]	@ zero_extendqisi2
 10901 03a8 000053E3 		cmp	r3, #0
 10902 03ac 0050A0E1 		mov	r5, r0
 10903 03b0 1500000A 		beq	.L376
 10904 03b4 D4319FE5 		ldr	r3, .L388+112
 10905 03b8 0610A0E1 		mov	r1, r6
 10906 03bc 0600A0E1 		mov	r0, r6
 10907 03c0 008093E5 		ldr	r8, [r3, #0]	@ float
 10908 03c4 FEFFFFEB 		bl	__aeabi_fmul
 10909 03c8 0510A0E1 		mov	r1, r5
 10910 03cc 0070A0E1 		mov	r7, r0
 10911 03d0 0500A0E1 		mov	r0, r5
 10912 03d4 FEFFFFEB 		bl	__aeabi_fmul
 10913 03d8 0010A0E1 		mov	r1, r0
 10914 03dc 0700A0E1 		mov	r0, r7
 10915 03e0 FEFFFFEB 		bl	__aeabi_fadd
 10916 03e4 0810A0E1 		mov	r1, r8
 10917 03e8 0070A0E1 		mov	r7, r0
 10918 03ec 0800A0E1 		mov	r0, r8
 10919 03f0 FEFFFFEB 		bl	__aeabi_fmul
 10920 03f4 0010A0E1 		mov	r1, r0
 10921 03f8 0700A0E1 		mov	r0, r7
 10922 03fc FEFFFFEB 		bl	__aeabi_fcmplt
 10923 0400 000050E3 		cmp	r0, #0
 10924 0404 0030A013 		movne	r3, #0
 10925 0408 0030C415 		strneb	r3, [r4, #0]
 10926              	.L376:
 10927 040c 0610A0E1 		mov	r1, r6
 10928 0410 0600A0E1 		mov	r0, r6
 10929 0414 FEFFFFEB 		bl	__aeabi_fmul
 10930 0418 0510A0E1 		mov	r1, r5
 10931 041c 0060A0E1 		mov	r6, r0
 10932 0420 0500A0E1 		mov	r0, r5
 10933 0424 FEFFFFEB 		bl	__aeabi_fmul
 10934 0428 0010A0E1 		mov	r1, r0
 10935 042c 0600A0E1 		mov	r0, r6
 10936 0430 FEFFFFEB 		bl	__aeabi_fadd
 10937 0434 58719FE5 		ldr	r7, .L388+116
 10938 0438 004097E5 		ldr	r4, [r7, #0]	@ float
 10939 043c 0050A0E1 		mov	r5, r0
 10940 0440 0410A0E1 		mov	r1, r4
 10941 0444 0400A0E1 		mov	r0, r4
 10942 0448 FEFFFFEB 		bl	__aeabi_fmul
 10943 044c 0010A0E1 		mov	r1, r0
 10944 0450 0500A0E1 		mov	r0, r5
 10945 0454 FEFFFFEB 		bl	__aeabi_fcmpge
 10946 0458 000050E3 		cmp	r0, #0
 10947 045c 0D00000A 		beq	.L359
 10948 0460 28319FE5 		ldr	r3, .L388+112
 10949 0464 0400A0E1 		mov	r0, r4
 10950 0468 001093E5 		ldr	r1, [r3, #0]	@ float
 10951 046c FEFFFFEB 		bl	__aeabi_fadd
 10952 0470 0C319FE5 		ldr	r3, .L388+100
 10953 0474 B020D3E1 		ldrh	r2, [r3, #0]
 10954 0478 012082E2 		add	r2, r2, #1
 10955 047c 000087E5 		str	r0, [r7, #0]	@ float
 10956 0480 B020C3E1 		strh	r2, [r3, #0]	@ movhi
 10957              	.L387:
 10958 0484 2000A0E3 		mov	r0, #32
 10959 0488 FEFFFFEB 		bl	dc_send_command
 10960 048c 010000EA 		b	.L359
 10961              	.L362:
 10962 0490 0030A0E3 		mov	r3, #0
 10963 0494 0030C2E5 		strb	r3, [r2, #0]
 10964              	.L359:
 10965 0498 9C309FE5 		ldr	r3, .L388+28
 10966 049c 0030D3E5 		ldrb	r3, [r3, #0]	@ zero_extendqisi2
 10967 04a0 070053E3 		cmp	r3, #7
 10968 04a4 0300001A 		bne	.L351
 10969 04a8 90309FE5 		ldr	r3, .L388+32
 10970 04ac 0030D3E5 		ldrb	r3, [r3, #0]	@ zero_extendqisi2
 10971 04b0 010053E3 		cmp	r3, #1
 10972 04b4 FEFFFF0B 		bleq	periodic_2Hz_openlog
 10973              	.L351:
 10974 04b8 D8309FE5 		ldr	r3, .L388+120
 10975 04bc 0020D3E5 		ldrb	r2, [r3, #0]	@ zero_extendqisi2
 10976 04c0 5C309FE5 		ldr	r3, .L388+4
 10977 04c4 1410A0E3 		mov	r1, #20
 10978 04c8 913222E0 		mla	r2, r1, r2, r3
 10979 04cc 1410D2E5 		ldrb	r1, [r2, #20]	@ zero_extendqisi2
 10980 04d0 000051E3 		cmp	r1, #0
 10981 04d4 102082E2 		add	r2, r2, #16
 10982 04d8 0340A0E1 		mov	r4, r3
 10983 04dc 0030A013 		movne	r3, #0
 10984 04e0 0430C215 		strneb	r3, [r2, #4]
 10985 04e4 FEFFFF1B 		blne	monitor_task
 10986              	.L379:
 10987 04e8 AC309FE5 		ldr	r3, .L388+124
 10988 04ec 0030D3E5 		ldrb	r3, [r3, #0]	@ zero_extendqisi2
 10989 04f0 1420A0E3 		mov	r2, #20
 10990 04f4 924323E0 		mla	r3, r2, r3, r4
 10991 04f8 103083E2 		add	r3, r3, #16
 10992 04fc 0420D3E5 		ldrb	r2, [r3, #4]	@ zero_extendqisi2
 10993 0500 000052E3 		cmp	r2, #0
 10994 0504 0300000A 		beq	.L347
 10995 0508 0020A0E3 		mov	r2, #0
 10996 050c 0420C3E5 		strb	r2, [r3, #4]
 10997 0510 F041BDE8 		ldmfd	sp!, {r4, r5, r6, r7, r8, lr}
 10998 0514 FEFFFFEA 		b	reporting_task
 10999              	.L347:
 11000 0518 F041BDE8 		ldmfd	sp!, {r4, r5, r6, r7, r8, lr}
 11001 051c 1EFF2FE1 		bx	lr
 11002              	.L389:
 11003              		.align	2
 11004              	.L388:
 11005 0520 00000000 		.word	sensors_tid
 11006 0524 00000000 		.word	sys_time
 11007 0528 00000000 		.word	navigation_tid
 11008 052c 00000000 		.word	attitude_tid
 11009 0530 00000000 		.word	modules_tid
 11010 0534 00000000 		.word	.LANCHOR65
 11011 0538 00000000 		.word	.LANCHOR66
 11012 053c 00000000 		.word	.LANCHOR67
 11013 0540 00000000 		.word	openlog_periodic_2Hz_openlog_status
 11014 0544 00000000 		.word	digital_cam_servo_servo_cam_ctrl_periodic_status
 11015 0548 00000000 		.word	dc_timer
 11016 054c 00000000 		.word	ap_state
 11017 0550 00000000 		.word	dc_autoshoot
 11018 0554 00000000 		.word	.LANCHOR68
 11019 0558 00000000 		.word	dc_autoshoot_quartersec_period
 11020 055c 00000000 		.word	gps
 11021 0560 00000000 		.word	dc_autoshoot_meter_grid
 11022 0564 F8C1631A 		.word	442745336
 11023 0568 DCA54C40 		.word	1078765020
 11024 056c 00000000 		.word	dc_circle_start_angle
 11025 0570 0000B443 		.word	1135869952
 11026 0574 00000000 		.word	dc_circle_interval
 11027 0578 00000000 		.word	dc_probing
 11028 057c 00000000 		.word	dc_circle_last_block
 11029 0580 00000000 		.word	dc_circle_max_blocks
 11030 0584 00000000 		.word	dc_gps_count
 11031 0588 00000000 		.word	dc_gps_x
 11032 058c 00000000 		.word	dc_gps_y
 11033 0590 00000000 		.word	dc_gps_dist
 11034 0594 00000000 		.word	dc_gps_next_dist
 11035 0598 00000000 		.word	monitor_tid
 11036 059c 00000000 		.word	telemetry_tid
 11038              		.global	__aeabi_dadd
 11039              		.section	.text.event_task_ap,"ax",%progbits
 11040              		.align	2
 11041              		.global	event_task_ap
 11043              	event_task_ap:
 11044              		@ Function supports interworking.
 11045              		@ args = 0, pretend = 0, frame = 0
 11046              		@ frame_needed = 0, uses_anonymous_args = 0
 11047 0000 F84F2DE9 		stmfd	sp!, {r3, r4, r5, r6, r7, r8, r9, sl, fp, lr}
 11048 0004 98369FE5 		ldr	r3, .L442
 11049 0008 0020D3E5 		ldrb	r2, [r3, #0]	@ zero_extendqisi2
 11050 000c 000052E3 		cmp	r2, #0
 11051 0010 0E00000A 		beq	.L391
 11052 0014 0020A0E3 		mov	r2, #0
 11053 0018 0020C3E5 		strb	r2, [r3, #0]
 11054 001c 84469FE5 		ldr	r4, .L442+4
 11055 0020 84369FE5 		ldr	r3, .L442+8
 11056 0024 0020C3E5 		strb	r2, [r3, #0]
 11057 0028 602094E5 		ldr	r2, [r4, #96]
 11058 002c 3C3094E5 		ldr	r3, [r4, #60]
 11059 0030 78069FE5 		ldr	r0, .L442+12
 11060 0034 023063E0 		rsb	r3, r3, r2
 11061 0038 930000E0 		mul	r0, r3, r0
 11062 003c 70169FE5 		ldr	r1, .L442+16
 11063 0040 FEFFFFEB 		bl	__aeabi_idiv
 11064 0044 000084E5 		str	r0, [r4, #0]
 11065 0048 FEFFFFEB 		bl	ahrs_propagate
 11066 004c FEFFFFEB 		bl	ahrs_update_accel
 11067              	.L391:
 11068 0050 60469FE5 		ldr	r4, .L442+20
 11069 0054 B028D4E1 		ldrh	r2, [r4, #128]
 11070 0058 B238D4E1 		ldrh	r3, [r4, #130]
 11071 005c 030052E1 		cmp	r2, r3
 11072 0060 54569F15 		ldrne	r5, .L442+24
 11073 0064 0500001A 		bne	.L441
 11074 0068 0B0000EA 		b	.L393
 11075              	.L394:
 11076 006c 0300D4E7 		ldrb	r0, [r4, r3]	@ zero_extendqisi2
 11077 0070 013083E2 		add	r3, r3, #1
 11078 0074 7F3003E2 		and	r3, r3, #127
 11079 0078 B238C4E1 		strh	r3, [r4, #130]	@ movhi
 11080 007c FEFFFFEB 		bl	gps_ubx_parse
 11081              	.L441:
 11082 0080 B238D4E1 		ldrh	r3, [r4, #130]
 11083 0084 B028D4E1 		ldrh	r2, [r4, #128]
 11084 0088 030052E1 		cmp	r2, r3
 11085 008c 0200000A 		beq	.L393
 11086 0090 0020D5E5 		ldrb	r2, [r5, #0]	@ zero_extendqisi2
 11087 0094 000052E3 		cmp	r2, #0
 11088 0098 F3FFFF0A 		beq	.L394
 11089              	.L393:
 11090 009c 18469FE5 		ldr	r4, .L442+24
 11091 00a0 0030D4E5 		ldrb	r3, [r4, #0]	@ zero_extendqisi2
 11092 00a4 000053E3 		cmp	r3, #0
 11093 00a8 1700000A 		beq	.L395
 11094 00ac FEFFFFEB 		bl	gps_ubx_read_message
 11095 00b0 0831D4E5 		ldrb	r3, [r4, #264]	@ zero_extendqisi2
 11096 00b4 010053E3 		cmp	r3, #1
 11097 00b8 1100001A 		bne	.L396
 11098 00bc 0731D4E5 		ldrb	r3, [r4, #263]	@ zero_extendqisi2
 11099 00c0 120053E3 		cmp	r3, #18
 11100 00c4 0400000A 		beq	.L397
 11101 00c8 060053E3 		cmp	r3, #6
 11102 00cc 0C00001A 		bne	.L396
 11103 00d0 1531D4E5 		ldrb	r3, [r4, #277]	@ zero_extendqisi2
 11104 00d4 000053E3 		cmp	r3, #0
 11105 00d8 0900001A 		bne	.L396
 11106              	.L397:
 11107 00dc DC359FE5 		ldr	r3, .L442+28
 11108 00e0 5B20D3E5 		ldrb	r2, [r3, #91]	@ zero_extendqisi2
 11109 00e4 030052E3 		cmp	r2, #3
 11110 00e8 D4259F05 		ldreq	r2, .L442+32
 11111 00ec 04109205 		ldreq	r1, [r2, #4]
 11112 00f0 00209205 		ldreq	r2, [r2, #0]
 11113 00f4 E8108305 		streq	r1, [r3, #232]
 11114 00f8 EC208305 		streq	r2, [r3, #236]
 11115 00fc FEFFFFEB 		bl	ins_update_gps
 11116 0100 FEFFFFEB 		bl	ahrs_update_gps
 11117              	.L396:
 11118 0104 0030A0E3 		mov	r3, #0
 11119 0108 0030C4E5 		strb	r3, [r4, #0]
 11120              	.L395:
 11121 010c B4A59FE5 		ldr	sl, .L442+36
 11122 0110 B088DAE1 		ldrh	r8, [sl, #128]
 11123 0114 B208DAE1 		ldrh	r0, [sl, #130]
 11124 0118 000058E1 		cmp	r8, r0
 11125 011c 6900000A 		beq	.L399
 11126 0120 A4759FE5 		ldr	r7, .L442+40
 11127 0124 01B0A0E3 		mov	fp, #1
 11128 0128 0431D7E5 		ldrb	r3, [r7, #260]	@ zero_extendqisi2
 11129 012c 0261D7E5 		ldrb	r6, [r7, #258]	@ zero_extendqisi2
 11130 0130 0511D7E5 		ldrb	r1, [r7, #261]	@ zero_extendqisi2
 11131 0134 0621D7E5 		ldrb	r2, [r7, #262]	@ zero_extendqisi2
 11132 0138 0351D7E5 		ldrb	r5, [r7, #259]	@ zero_extendqisi2
 11133 013c 0740A0E1 		mov	r4, r7
 11134 0140 370000EA 		b	.L400
 11135              	.L412:
 11136 0144 00C0DAE7 		ldrb	ip, [sl, r0]	@ zero_extendqisi2
 11137 0148 010080E2 		add	r0, r0, #1
 11138 014c 7F0000E2 		and	r0, r0, #127
 11139 0150 040053E3 		cmp	r3, #4
 11140 0154 03F19F97 		ldrls	pc, [pc, r3, asl #2]
 11141 0158 230000EA 		b	.L401
 11142              	.L407:
 11143 015c 70010000 		.word	.L402
 11144 0160 7C010000 		.word	.L403
 11145 0164 9C010000 		.word	.L404
 11146 0168 B8010000 		.word	.L405
 11147 016c DC010000 		.word	.L406
 11148              	.L402:
 11149 0170 7E005CE3 		cmp	ip, #126
 11150 0174 0130A003 		moveq	r3, #1
 11151 0178 1E0000EA 		b	.L408
 11152              	.L403:
 11153 017c 0131D4E5 		ldrb	r3, [r4, #257]	@ zero_extendqisi2
 11154 0180 FF3013E2 		ands	r3, r3, #255
 11155 0184 01608612 		addne	r6, r6, #1
 11156 0188 0031C705 		streqb	r3, [r7, #256]
 11157 018c FF600612 		andne	r6, r6, #255
 11158 0190 0230A003 		moveq	r3, #2
 11159 0194 1700000A 		beq	.L408
 11160 0198 130000EA 		b	.L401
 11161              	.L404:
 11162 019c 0021D4E5 		ldrb	r2, [r4, #256]	@ zero_extendqisi2
 11163 01a0 02C08CE1 		orr	ip, ip, r2
 11164 01a4 0020A0E3 		mov	r2, #0
 11165 01a8 00C1C4E5 		strb	ip, [r4, #256]
 11166 01ac 0210A0E1 		mov	r1, r2
 11167 01b0 0330A0E3 		mov	r3, #3
 11168 01b4 0F0000EA 		b	.L408
 11169              	.L405:
 11170 01b8 01C0C4E7 		strb	ip, [r4, r1]
 11171 01bc 02208CE0 		add	r2, ip, r2
 11172 01c0 011081E2 		add	r1, r1, #1
 11173 01c4 00C1D4E5 		ldrb	ip, [r4, #256]	@ zero_extendqisi2
 11174 01c8 FF1001E2 		and	r1, r1, #255
 11175 01cc 0C0051E1 		cmp	r1, ip
 11176 01d0 FF2002E2 		and	r2, r2, #255
 11177 01d4 0430A003 		moveq	r3, #4
 11178 01d8 060000EA 		b	.L408
 11179              	.L406:
 11180 01dc 02C08CE0 		add	ip, ip, r2
 11181 01e0 FF005CE3 		cmp	ip, #255
 11182 01e4 01B1C705 		streqb	fp, [r7, #257]
 11183 01e8 0100000A 		beq	.L410
 11184              	.L401:
 11185 01ec 015085E2 		add	r5, r5, #1
 11186 01f0 FF5005E2 		and	r5, r5, #255
 11187              	.L410:
 11188 01f4 0030A0E3 		mov	r3, #0
 11189              	.L408:
 11190 01f8 000058E1 		cmp	r8, r0
 11191 01fc 0800001A 		bne	.L400
 11192 0200 C0049FE5 		ldr	r0, .L442+36
 11193 0204 B288C0E1 		strh	r8, [r0, #130]	@ movhi
 11194 0208 BC049FE5 		ldr	r0, .L442+40
 11195 020c 0431C0E5 		strb	r3, [r0, #260]
 11196 0210 0261C0E5 		strb	r6, [r0, #258]
 11197 0214 0511C0E5 		strb	r1, [r0, #261]
 11198 0218 0621C0E5 		strb	r2, [r0, #262]
 11199 021c 0351C0E5 		strb	r5, [r0, #259]
 11200 0220 0A0000EA 		b	.L411
 11201              	.L400:
 11202 0224 0191D7E5 		ldrb	r9, [r7, #257]	@ zero_extendqisi2
 11203 0228 000059E3 		cmp	r9, #0
 11204 022c 98C49FE5 		ldr	ip, .L442+40
 11205 0230 C3FFFF0A 		beq	.L412
 11206 0234 8C449FE5 		ldr	r4, .L442+36
 11207 0238 0431CCE5 		strb	r3, [ip, #260]
 11208 023c B208C4E1 		strh	r0, [r4, #130]	@ movhi
 11209 0240 0261CCE5 		strb	r6, [ip, #258]
 11210 0244 0511CCE5 		strb	r1, [ip, #261]
 11211 0248 0621CCE5 		strb	r2, [ip, #262]
 11212 024c 0351CCE5 		strb	r5, [ip, #259]
 11213              	.L411:
 11214 0250 74349FE5 		ldr	r3, .L442+40
 11215 0254 0121D3E5 		ldrb	r2, [r3, #257]	@ zero_extendqisi2
 11216 0258 000052E3 		cmp	r2, #0
 11217 025c 1900000A 		beq	.L399
 11218 0260 0020D3E5 		ldrb	r2, [r3, #0]	@ zero_extendqisi2
 11219 0264 010052E3 		cmp	r2, #1
 11220 0268 0100000A 		beq	.L414
 11221 026c 810052E3 		cmp	r2, #129
 11222 0270 1100001A 		bne	.L413
 11223              	.L414:
 11224 0274 0320D3E5 		ldrb	r2, [r3, #3]	@ zero_extendqisi2
 11225 0278 50349FE5 		ldr	r3, .L442+44
 11226 027c 50149FE5 		ldr	r1, .L442+48
 11227 0280 0020C3E5 		strb	r2, [r3, #0]
 11228 0284 0530A0E3 		mov	r3, #5
 11229 0288 3C249FE5 		ldr	r2, .L442+40
 11230 028c 040000EA 		b	.L415
 11231              	.L416:
 11232 0290 03C0D2E7 		ldrb	ip, [r2, r3]	@ zero_extendqisi2
 11233 0294 030081E0 		add	r0, r1, r3
 11234 0298 05C040E5 		strb	ip, [r0, #-5]
 11235 029c 013083E2 		add	r3, r3, #1
 11236 02a0 FF3003E2 		and	r3, r3, #255
 11237              	.L415:
 11238 02a4 0001D2E5 		ldrb	r0, [r2, #256]	@ zero_extendqisi2
 11239 02a8 000053E1 		cmp	r3, r0
 11240 02ac F7FFFF3A 		bcc	.L416
 11241 02b0 20349FE5 		ldr	r3, .L442+52
 11242 02b4 0120A0E3 		mov	r2, #1
 11243 02b8 0020C3E5 		strb	r2, [r3, #0]
 11244              	.L413:
 11245 02bc 08349FE5 		ldr	r3, .L442+40
 11246 02c0 0020A0E3 		mov	r2, #0
 11247 02c4 0121C3E5 		strb	r2, [r3, #257]
 11248              	.L399:
 11249 02c8 08449FE5 		ldr	r4, .L442+52
 11250 02cc 0030D4E5 		ldrb	r3, [r4, #0]	@ zero_extendqisi2
 11251 02d0 000053E3 		cmp	r3, #0
 11252 02d4 0200000A 		beq	.L417
 11253 02d8 FEFFFFEB 		bl	dl_parse_msg
 11254 02dc 0030A0E3 		mov	r3, #0
 11255 02e0 0030C4E5 		strb	r3, [r4, #0]
 11256              	.L417:
 11257 02e4 F0339FE5 		ldr	r3, .L442+56
 11258 02e8 0020D3E5 		ldrb	r2, [r3, #0]	@ zero_extendqisi2
 11259 02ec 000052E3 		cmp	r2, #0
 11260 02f0 E900000A 		beq	.L390
 11261 02f4 0020A0E3 		mov	r2, #0
 11262 02f8 0020C3E5 		strb	r2, [r3, #0]
 11263 02fc DC339FE5 		ldr	r3, .L442+60
 11264 0300 001093E5 		ldr	r1, [r3, #0]
 11265 0304 0F20D1E5 		ldrb	r2, [r1, #15]	@ zero_extendqisi2
 11266 0308 A200A0E1 		mov	r0, r2, lsr #1
 11267 030c 010010E2 		ands	r0, r0, #1
 11268 0310 CC339FE5 		ldr	r3, .L442+64
 11269 0314 0300000A 		beq	.L419
 11270 0318 0000D3E5 		ldrb	r0, [r3, #0]	@ zero_extendqisi2
 11271 031c 010050E3 		cmp	r0, #1
 11272 0320 0000A083 		movhi	r0, #0
 11273 0324 0100A093 		movls	r0, #1
 11274              	.L419:
 11275 0328 0030D3E5 		ldrb	r3, [r3, #0]	@ zero_extendqisi2
 11276 032c 033043E2 		sub	r3, r3, #3
 11277 0330 010053E3 		cmp	r3, #1
 11278 0334 0030A093 		movls	r3, #0
 11279 0338 0F00009A 		bls	.L420
 11280 033c A4339FE5 		ldr	r3, .L442+68
 11281 0340 0030D3E5 		ldrb	r3, [r3, #0]	@ zero_extendqisi2
 11282 0344 000053E3 		cmp	r3, #0
 11283 0348 0B00000A 		beq	.L420
 11284 034c 98339FE5 		ldr	r3, .L442+72
 11285 0350 0030D3E5 		ldrb	r3, [r3, #0]	@ zero_extendqisi2
 11286 0354 000053E3 		cmp	r3, #0
 11287 0358 84339F15 		ldrne	r3, .L442+64
 11288 035c 03C0A013 		movne	ip, #3
 11289 0360 00C0C315 		strneb	ip, [r3, #0]
 11290 0364 0130A013 		movne	r3, #1
 11291 0368 000050E3 		cmp	r0, #0
 11292 036c 70339F15 		ldrne	r3, .L442+64
 11293 0370 0300A013 		movne	r0, #3
 11294 0374 0000C315 		strneb	r0, [r3, #0]
 11295 0378 0130A013 		movne	r3, #1
 11296              	.L420:
 11297 037c 100012E3 		tst	r2, #16
 11298 0380 1300000A 		beq	.L422
 11299 0384 58039FE5 		ldr	r0, .L442+64
 11300 0388 0000D0E5 		ldrb	r0, [r0, #0]	@ zero_extendqisi2
 11301 038c 03C040E2 		sub	ip, r0, #3
 11302 0390 01005CE3 		cmp	ip, #1
 11303 0394 0010A093 		movls	r1, #0
 11304 0398 0C00009A 		bls	.L423
 11305 039c FC10D1E1 		ldrsh	r1, [r1, #12]
 11306 03a0 4B0D51E3 		cmp	r1, #4800
 11307 03a4 0210A0C3 		movgt	r1, #2
 11308 03a8 020000CA 		bgt	.L424
 11309 03ac 4B0D71E3 		cmn	r1, #4800
 11310 03b0 0010A0D3 		movle	r1, #0
 11311 03b4 0110A0C3 		movgt	r1, #1
 11312              	.L424:
 11313 03b8 010050E1 		cmp	r0, r1
 11314 03bc 20039F15 		ldrne	r0, .L442+64
 11315 03c0 0010A003 		moveq	r1, #0
 11316 03c4 0010C015 		strneb	r1, [r0, #0]
 11317 03c8 0110A013 		movne	r1, #1
 11318 03cc FF1001E2 		and	r1, r1, #255
 11319              	.L423:
 11320 03d0 033081E1 		orr	r3, r1, r3
 11321              	.L422:
 11322 03d4 14039FE5 		ldr	r0, .L442+76
 11323 03d8 0010D0E5 		ldrb	r1, [r0, #0]	@ zero_extendqisi2
 11324 03dc 020051E1 		cmp	r1, r2
 11325 03e0 0010A003 		moveq	r1, #0
 11326 03e4 0300000A 		beq	.L426
 11327 03e8 011022E0 		eor	r1, r2, r1
 11328 03ec 0F1011E2 		ands	r1, r1, #15
 11329 03f0 0020C0E5 		strb	r2, [r0, #0]
 11330 03f4 0110A013 		movne	r1, #1
 11331              	.L426:
 11332 03f8 031091E1 		orrs	r1, r1, r3
 11333 03fc 6700000A 		beq	.L427
 11334 0400 C0029FE5 		ldr	r0, .L442+36
 11335 0404 1110A0E3 		mov	r1, #17
 11336 0408 FEFFFFEB 		bl	uart_check_free_space
 11337 040c 000050E3 		cmp	r0, #0
 11338 0410 5E00000A 		beq	.L428
 11339 0414 D8329FE5 		ldr	r3, .L442+80
 11340 0418 B020D3E1 		ldrh	r2, [r3, #0]
 11341 041c 112082E2 		add	r2, r2, #17
 11342 0420 B020C3E1 		strh	r2, [r3, #0]	@ movhi
 11343 0424 CC329FE5 		ldr	r3, .L442+84
 11344 0428 B020D3E1 		ldrh	r2, [r3, #0]
 11345 042c 012082E2 		add	r2, r2, #1
 11346 0430 B020C3E1 		strh	r2, [r3, #0]	@ movhi
 11347 0434 8C029FE5 		ldr	r0, .L442+36
 11348 0438 7E10A0E3 		mov	r1, #126
 11349 043c B8429FE5 		ldr	r4, .L442+88
 11350 0440 FEFFFFEB 		bl	uart_transmit
 11351 0444 7C029FE5 		ldr	r0, .L442+36
 11352 0448 0010A0E3 		mov	r1, #0
 11353 044c FEFFFFEB 		bl	uart_transmit
 11354 0450 0150A0E3 		mov	r5, #1
 11355 0454 6C029FE5 		ldr	r0, .L442+36
 11356 0458 0D10A0E3 		mov	r1, #13
 11357 045c FEFFFFEB 		bl	uart_transmit
 11358 0460 0510A0E1 		mov	r1, r5
 11359 0464 0050C4E5 		strb	r5, [r4, #0]
 11360 0468 58029FE5 		ldr	r0, .L442+36
 11361 046c FEFFFFEB 		bl	uart_transmit
 11362 0470 50029FE5 		ldr	r0, .L442+36
 11363 0474 0010A0E3 		mov	r1, #0
 11364 0478 FEFFFFEB 		bl	uart_transmit
 11365 047c 0030D4E5 		ldrb	r3, [r4, #0]	@ zero_extendqisi2
 11366 0480 053083E0 		add	r3, r3, r5
 11367 0484 0030C4E5 		strb	r3, [r4, #0]
 11368 0488 0510A0E1 		mov	r1, r5
 11369 048c 34029FE5 		ldr	r0, .L442+36
 11370 0490 FEFFFFEB 		bl	uart_transmit
 11371 0494 2C029FE5 		ldr	r0, .L442+36
 11372 0498 0010A0E3 		mov	r1, #0
 11373 049c FEFFFFEB 		bl	uart_transmit
 11374 04a0 20029FE5 		ldr	r0, .L442+36
 11375 04a4 0010A0E3 		mov	r1, #0
 11376 04a8 FEFFFFEB 		bl	uart_transmit
 11377 04ac 0030D4E5 		ldrb	r3, [r4, #0]	@ zero_extendqisi2
 11378 04b0 023083E2 		add	r3, r3, #2
 11379 04b4 0030C4E5 		strb	r3, [r4, #0]
 11380 04b8 08029FE5 		ldr	r0, .L442+36
 11381 04bc 0210A0E3 		mov	r1, #2
 11382 04c0 FEFFFFEB 		bl	uart_transmit
 11383 04c4 0030D4E5 		ldrb	r3, [r4, #0]	@ zero_extendqisi2
 11384 04c8 0B3083E2 		add	r3, r3, #11
 11385 04cc 0030C4E5 		strb	r3, [r4, #0]
 11386 04d0 F0019FE5 		ldr	r0, .L442+36
 11387 04d4 0B10A0E3 		mov	r1, #11
 11388 04d8 FEFFFFEB 		bl	uart_transmit
 11389 04dc 00329FE5 		ldr	r3, .L442+64
 11390 04e0 0010D3E5 		ldrb	r1, [r3, #0]	@ zero_extendqisi2
 11391 04e4 0030D4E5 		ldrb	r3, [r4, #0]	@ zero_extendqisi2
 11392 04e8 033081E0 		add	r3, r1, r3
 11393 04ec 0030C4E5 		strb	r3, [r4, #0]
 11394 04f0 D0019FE5 		ldr	r0, .L442+36
 11395 04f4 FEFFFFEB 		bl	uart_transmit
 11396 04f8 00329FE5 		ldr	r3, .L442+92
 11397 04fc 0010D3E5 		ldrb	r1, [r3, #0]	@ zero_extendqisi2
 11398 0500 0030D4E5 		ldrb	r3, [r4, #0]	@ zero_extendqisi2
 11399 0504 033081E0 		add	r3, r1, r3
 11400 0508 0030C4E5 		strb	r3, [r4, #0]
 11401 050c B4019FE5 		ldr	r0, .L442+36
 11402 0510 FEFFFFEB 		bl	uart_transmit
 11403 0514 E8319FE5 		ldr	r3, .L442+96
 11404 0518 0010D3E5 		ldrb	r1, [r3, #0]	@ zero_extendqisi2
 11405 051c 0030D4E5 		ldrb	r3, [r4, #0]	@ zero_extendqisi2
 11406 0520 033081E0 		add	r3, r1, r3
 11407 0524 0030C4E5 		strb	r3, [r4, #0]
 11408 0528 98019FE5 		ldr	r0, .L442+36
 11409 052c FEFFFFEB 		bl	uart_transmit
 11410 0530 D0319FE5 		ldr	r3, .L442+100
 11411 0534 0010D3E5 		ldrb	r1, [r3, #0]	@ zero_extendqisi2
 11412 0538 0030D4E5 		ldrb	r3, [r4, #0]	@ zero_extendqisi2
 11413 053c 033081E0 		add	r3, r1, r3
 11414 0540 0030C4E5 		strb	r3, [r4, #0]
 11415 0544 7C019FE5 		ldr	r0, .L442+36
 11416 0548 FEFFFFEB 		bl	uart_transmit
 11417 054c 74019FE5 		ldr	r0, .L442+36
 11418 0550 0010A0E3 		mov	r1, #0
 11419 0554 FEFFFFEB 		bl	uart_transmit
 11420 0558 90319FE5 		ldr	r3, .L442+76
 11421 055c 0010D3E5 		ldrb	r1, [r3, #0]	@ zero_extendqisi2
 11422 0560 0030D4E5 		ldrb	r3, [r4, #0]	@ zero_extendqisi2
 11423 0564 033081E0 		add	r3, r1, r3
 11424 0568 0030C4E5 		strb	r3, [r4, #0]
 11425 056c 54019FE5 		ldr	r0, .L442+36
 11426 0570 FEFFFFEB 		bl	uart_transmit
 11427 0574 0010D4E5 		ldrb	r1, [r4, #0]	@ zero_extendqisi2
 11428 0578 0110E0E1 		mvn	r1, r1
 11429 057c FF1001E2 		and	r1, r1, #255
 11430 0580 0010C4E5 		strb	r1, [r4, #0]
 11431 0584 3C019FE5 		ldr	r0, .L442+36
 11432 0588 FEFFFFEB 		bl	uart_transmit
 11433 058c 030000EA 		b	.L427
 11434              	.L428:
 11435 0590 74319FE5 		ldr	r3, .L442+104
 11436 0594 0020D3E5 		ldrb	r2, [r3, #0]	@ zero_extendqisi2
 11437 0598 012082E2 		add	r2, r2, #1
 11438 059c 0020C3E5 		strb	r2, [r3, #0]
 11439              	.L427:
 11440 05a0 3C319FE5 		ldr	r3, .L442+64
 11441 05a4 0040D3E5 		ldrb	r4, [r3, #0]	@ zero_extendqisi2
 11442 05a8 010054E3 		cmp	r4, #1
 11443 05ac 1E00001A 		bne	.L429
 11444 05b0 28319FE5 		ldr	r3, .L442+60
 11445 05b4 005093E5 		ldr	r5, [r3, #0]
 11446 05b8 F000D5E1 		ldrsh	r0, [r5, #0]
 11447 05bc FEFFFFEB 		bl	__aeabi_i2f
 11448 05c0 48119FE5 		ldr	r1, .L442+108
 11449 05c4 FEFFFFEB 		bl	__aeabi_fdiv
 11450 05c8 FEFFFFEB 		bl	__aeabi_f2d
 11451 05cc 40219FE5 		ldr	r2, .L442+112
 11452 05d0 40319FE5 		ldr	r3, .L442+116
 11453 05d4 FEFFFFEB 		bl	__aeabi_dmul
 11454 05d8 0020A0E3 		mov	r2, #0
 11455 05dc 0030A0E3 		mov	r3, #0
 11456 05e0 FEFFFFEB 		bl	__aeabi_dadd
 11457 05e4 FEFFFFEB 		bl	__aeabi_d2f
 11458 05e8 2C319FE5 		ldr	r3, .L442+120
 11459 05ec 000083E5 		str	r0, [r3, #0]	@ float
 11460 05f0 F200D5E1 		ldrsh	r0, [r5, #2]
 11461 05f4 FEFFFFEB 		bl	__aeabi_i2f
 11462 05f8 10119FE5 		ldr	r1, .L442+108
 11463 05fc FEFFFFEB 		bl	__aeabi_fdiv
 11464 0600 FEFFFFEB 		bl	__aeabi_f2d
 11465 0604 14219FE5 		ldr	r2, .L442+124
 11466 0608 14319FE5 		ldr	r3, .L442+128
 11467 060c FEFFFFEB 		bl	__aeabi_dmul
 11468 0610 0030A0E3 		mov	r3, #0
 11469 0614 0020A0E3 		mov	r2, #0
 11470 0618 FEFFFFEB 		bl	__aeabi_dadd
 11471 061c FEFFFFEB 		bl	__aeabi_d2f
 11472 0620 00319FE5 		ldr	r3, .L442+132
 11473 0624 000083E5 		str	r0, [r3, #0]	@ float
 11474 0628 000000EA 		b	.L430
 11475              	.L429:
 11476 062c 0400008A 		bhi	.L431
 11477              	.L430:
 11478 0630 A8309FE5 		ldr	r3, .L442+60
 11479 0634 003093E5 		ldr	r3, [r3, #0]
 11480 0638 B620D3E1 		ldrh	r2, [r3, #6]
 11481 063c E8309FE5 		ldr	r3, .L442+136
 11482 0640 B020C3E1 		strh	r2, [r3, #0]	@ movhi
 11483              	.L431:
 11484 0644 94309FE5 		ldr	r3, .L442+60
 11485 0648 003093E5 		ldr	r3, [r3, #0]
 11486 064c DC209FE5 		ldr	r2, .L442+140
 11487 0650 0E10D3E5 		ldrb	r1, [r3, #14]	@ zero_extendqisi2
 11488 0654 0010C2E5 		strb	r1, [r2, #0]
 11489 0658 1110D3E5 		ldrb	r1, [r3, #17]	@ zero_extendqisi2
 11490 065c D0209FE5 		ldr	r2, .L442+144
 11491 0660 0010C2E5 		strb	r1, [r2, #0]
 11492 0664 CC209FE5 		ldr	r2, .L442+148
 11493 0668 141093E5 		ldr	r1, [r3, #20]
 11494 066c 001082E5 		str	r1, [r2, #0]
 11495 0670 C4209FE5 		ldr	r2, .L442+152
 11496 0674 B020D2E1 		ldrh	r2, [r2, #0]
 11497 0678 000052E3 		cmp	r2, #0
 11498 067c 0600001A 		bne	.L390
 11499 0680 020054E3 		cmp	r4, #2
 11500 0684 0400001A 		bne	.L390
 11501 0688 F630D3E1 		ldrsh	r3, [r3, #6]
 11502 068c 870D53E3 		cmp	r3, #8640
 11503 0690 50309FC5 		ldrgt	r3, .L442+68
 11504 0694 0120A0C3 		movgt	r2, #1
 11505 0698 0020C3C5 		strgtb	r2, [r3, #0]
 11506              	.L390:
 11507 069c F84FBDE8 		ldmfd	sp!, {r3, r4, r5, r6, r7, r8, r9, sl, fp, lr}
 11508 06a0 1EFF2FE1 		bx	lr
 11509              	.L443:
 11510              		.align	2
 11511              	.L442:
 11512 06a4 00000000 		.word	analog_imu_available
 11513 06a8 00000000 		.word	imu
 11514 06ac 00000000 		.word	.LANCHOR63
 11515 06b0 23080000 		.word	2083
 11516 06b4 2B3B0000 		.word	15147
 11517 06b8 00000000 		.word	uart1
 11518 06bc 00000000 		.word	gps_ubx
 11519 06c0 00000000 		.word	gps
 11520 06c4 00000000 		.word	sys_time
 11521 06c8 00000000 		.word	uart0
 11522 06cc 00000000 		.word	xbee_tp
 11523 06d0 00000000 		.word	xbee_rssi
 11524 06d4 00000000 		.word	dl_buffer
 11525 06d8 00000000 		.word	dl_msg_available
 11526 06dc 00000000 		.word	inter_mcu_received_fbw
 11527 06e0 00000000 		.word	fbw_state
 11528 06e4 00000000 		.word	.LANCHOR21
 11529 06e8 00000000 		.word	.LANCHOR22
 11530 06ec 00000000 		.word	too_far_from_home
 11531 06f0 00000000 		.word	.LANCHOR24
 11532 06f4 00000000 		.word	downlink_nb_bytes
 11533 06f8 00000000 		.word	downlink_nb_msgs
 11534 06fc 00000000 		.word	xbee_cs
 11535 0700 00000000 		.word	v_ctl_mode
 11536 0704 00000000 		.word	.LANCHOR23
 11537 0708 00000000 		.word	horizontal_mode
 11538 070c 00000000 		.word	downlink_nb_ovrn
 11539 0710 00001646 		.word	1175846912
 11540 0714 66666666 		.word	1717986918
 11541 0718 6666E63F 		.word	1072064102
 11542 071c 00000000 		.word	h_ctl_roll_setpoint
 11543 0720 33333333 		.word	858993459
 11544 0724 3333E33F 		.word	1071854387
 11545 0728 00000000 		.word	h_ctl_pitch_setpoint
 11546 072c 00000000 		.word	v_ctl_throttle_setpoint
 11547 0730 00000000 		.word	.LANCHOR69
 11548 0734 00000000 		.word	vsupply
 11549 0738 00000000 		.word	.LANCHOR17
 11550 073c 00000000 		.word	.LANCHOR18
 11552              		.comm	monitor_tid,1,1
 11553              		.comm	navigation_tid,1,1
 11554              		.comm	attitude_tid,1,1
 11555              		.comm	sensors_tid,1,1
 11556              		.comm	telemetry_tid,1,1
 11557              		.comm	modules_tid,1,1
 11558              		.global	gps_lost
 11559              		.comm	energy,4,4
 11560              		.comm	vsupply,1,1
 11561              		.global	autopilot_flight_time
 11562              		.global	launch
 11563              		.global	kill_throttle
 11564              		.global	lateral_mode
 11565              		.global	pprz_mode
 11566              		.comm	power_switch,1,1
 11567              		.global	ahrs_timeout_counter
 11568              		.comm	digital_cam_servo_servo_cam_ctrl_periodic_status,1,1
 11569              		.comm	openlog_periodic_2Hz_openlog_status,1,1
 11570              		.section	.bss.i60.4460,"aw",%nobits
 11571              		.set	.LANCHOR4,. + 0
 11574              	i60.4460:
 11575 0000 00       		.space	1
 11576              		.section	.bss.i306.5162,"aw",%nobits
 11577              		.align	1
 11578              		.set	.LANCHOR47,. + 0
 11581              	i306.5162:
 11582 0000 0000     		.space	2
 11583              		.section	.bss.i30.5332,"aw",%nobits
 11584              		.set	.LANCHOR58,. + 0
 11587              	i30.5332:
 11588 0000 00       		.space	1
 11589              		.section	.bss.last.5262,"aw",%nobits
 11590              		.align	1
 11591              		.set	.LANCHOR56,. + 0
 11594              	last.5262:
 11595 0000 0000     		.space	2
 11596              		.section	.bss.i66.4819,"aw",%nobits
 11597              		.set	.LANCHOR27,. + 0
 11600              	i66.4819:
 11601 0000 00       		.space	1
 11602              		.section	.bss.i.4693,"aw",%nobits
 11603              		.set	.LANCHOR20,. + 0
 11606              	i.4693:
 11607 0000 00       		.space	1
 11608              		.section	.bss.i420.5167,"aw",%nobits
 11609              		.align	1
 11610              		.set	.LANCHOR52,. + 0
 11613              	i420.5167:
 11614 0000 0000     		.space	2
 11615              		.section	.bss.i330.5165,"aw",%nobits
 11616              		.align	1
 11617              		.set	.LANCHOR50,. + 0
 11620              	i330.5165:
 11621 0000 0000     		.space	2
 11622              		.section	.bss.last.5114,"aw",%nobits
 11623              		.align	1
 11624              		.set	.LANCHOR45,. + 0
 11627              	last.5114:
 11628 0000 0000     		.space	2
 11629              		.section	.bss.mcu1_ppm_cpt,"aw",%nobits
 11630              		.set	.LANCHOR69,. + 0
 11633              	mcu1_ppm_cpt:
 11634 0000 00       		.space	1
 11635              		.section	.bss.i300.4829,"aw",%nobits
 11636              		.align	1
 11637              		.set	.LANCHOR37,. + 0
 11640              	i300.4829:
 11641 0000 0000     		.space	2
 11642              		.section	.bss.ahrs_timeout_counter,"aw",%nobits
 11643              		.set	.LANCHOR63,. + 0
 11646              	ahrs_timeout_counter:
 11647 0000 00       		.space	1
 11648              		.section	.bss.i192.4826,"aw",%nobits
 11649              		.set	.LANCHOR34,. + 0
 11652              	i192.4826:
 11653 0000 00       		.space	1
 11654              		.section	.bss.i183.4825,"aw",%nobits
 11655              		.set	.LANCHOR33,. + 0
 11658              	i183.4825:
 11659 0000 00       		.space	1
 11660              		.section	.bss.i342.5166,"aw",%nobits
 11661              		.align	1
 11662              		.set	.LANCHOR51,. + 0
 11665              	i342.5166:
 11666 0000 0000     		.space	2
 11667              		.section	.bss.i.5348,"aw",%nobits
 11668              		.set	.LANCHOR60,. + 0
 11671              	i.5348:
 11672 0000 00       		.space	1
 11673              		.section	.bss.i90.4822,"aw",%nobits
 11674              		.set	.LANCHOR30,. + 0
 11677              	i90.4822:
 11678 0000 00       		.space	1
 11679              		.section	.bss.i30.4230,"aw",%nobits
 11680              		.set	.LANCHOR67,. + 0
 11683              	i30.4230:
 11684 0000 00       		.space	1
 11685              		.section	.bss.last.4798,"aw",%nobits
 11686              		.align	1
 11687              		.set	.LANCHOR25,. + 0
 11690              	last.4798:
 11691 0000 0000     		.space	2
 11692              		.section	.bss.i612.5169,"aw",%nobits
 11693              		.align	1
 11694              		.set	.LANCHOR54,. + 0
 11697              	i612.5169:
 11698 0000 0000     		.space	2
 11699              		.section	.bss.i180.4824,"aw",%nobits
 11700              		.set	.LANCHOR32,. + 0
 11703              	i180.4824:
 11704 0000 00       		.space	1
 11705              		.section	.bss.t.5446,"aw",%nobits
 11706              		.set	.LANCHOR64,. + 0
 11709              	t.5446:
 11710 0000 00       		.space	1
 11711              		.section	.bss.i30.4459,"aw",%nobits
 11712              		.set	.LANCHOR3,. + 0
 11715              	i30.4459:
 11716 0000 00       		.space	1
 11717              		.section	.bss.i.4471,"aw",%nobits
 11718              		.set	.LANCHOR15,. + 0
 11721              	i.4471:
 11722 0000 00       		.space	1
 11723              		.section	.bss.last_pprz_mode.5394,"aw",%nobits
 11724              		.set	.LANCHOR61,. + 0
 11727              	last_pprz_mode.5394:
 11728 0000 00       		.space	1
 11729              		.section	.bss.i90.4464,"aw",%nobits
 11730              		.set	.LANCHOR8,. + 0
 11733              	i90.4464:
 11734 0000 00       		.space	1
 11735              		.section	.bss.lateral_mode,"aw",%nobits
 11736              		.set	.LANCHOR23,. + 0
 11739              	lateral_mode:
 11740 0000 00       		.space	1
 11741              		.section	.data.pprz_mode,"aw",%progbits
 11742              		.set	.LANCHOR21,. + 0
 11745              	pprz_mode:
 11746 0000 02       		.byte	2
 11747              		.section	.bss.i.4904,"aw",%nobits
 11748              		.set	.LANCHOR43,. + 0
 11751              	i.4904:
 11752 0000 00       		.space	1
 11753              		.section	.data.boot.4453,"aw",%progbits
 11754              		.set	.LANCHOR0,. + 0
 11757              	boot.4453:
 11758 0000 01       		.byte	1
 11759              		.section	.bss.mcu1_status,"aw",%nobits
 11760              		.set	.LANCHOR24,. + 0
 11763              	mcu1_status:
 11764 0000 00       		.space	1
 11765              		.section	.bss.i606.4833,"aw",%nobits
 11766              		.align	1
 11767              		.set	.LANCHOR41,. + 0
 11770              	i606.4833:
 11771 0000 0000     		.space	2
 11772              		.section	.bss.i63.4461,"aw",%nobits
 11773              		.set	.LANCHOR5,. + 0
 11776              	i63.4461:
 11777 0000 00       		.space	1
 11778              		.section	.bss.i.4923,"aw",%nobits
 11779              		.set	.LANCHOR44,. + 0
 11782              	i.4923:
 11783 0000 00       		.space	1
 11784              		.section	.bss.i126.4466,"aw",%nobits
 11785              		.set	.LANCHOR10,. + 0
 11788              	i126.4466:
 11789 0000 00       		.space	1
 11790              		.section	.bss.i606.5168,"aw",%nobits
 11791              		.align	1
 11792              		.set	.LANCHOR53,. + 0
 11795              	i606.5168:
 11796 0000 0000     		.space	2
 11797              		.section	.bss.i312.4831,"aw",%nobits
 11798              		.align	1
 11799              		.set	.LANCHOR39,. + 0
 11802              	i312.4831:
 11803 0000 0000     		.space	2
 11804              		.section	.bss.gps_lost,"aw",%nobits
 11805              		.set	.LANCHOR62,. + 0
 11808              	gps_lost:
 11809 0000 00       		.space	1
 11810              		.section	.bss.dc_shutter_timer.4201,"aw",%nobits
 11811              		.set	.LANCHOR68,. + 0
 11814              	dc_shutter_timer.4201:
 11815 0000 00       		.space	1
 11816              		.section	.bss.i324.5164,"aw",%nobits
 11817              		.align	1
 11818              		.set	.LANCHOR49,. + 0
 11821              	i324.5164:
 11822 0000 0000     		.space	2
 11823              		.section	.bss.i1.4228,"aw",%nobits
 11824              		.set	.LANCHOR65,. + 0
 11827              	i1.4228:
 11828 0000 00       		.space	1
 11829              		.section	.bss.i120.4465,"aw",%nobits
 11830              		.set	.LANCHOR9,. + 0
 11833              	i120.4465:
 11834 0000 00       		.space	1
 11835              		.section	.bss.i66.4462,"aw",%nobits
 11836              		.set	.LANCHOR6,. + 0
 11839              	i66.4462:
 11840 0000 00       		.space	1
 11841              		.section	.bss.i240.4827,"aw",%nobits
 11842              		.set	.LANCHOR35,. + 0
 11845              	i240.4827:
 11846 0000 00       		.space	1
 11847              		.section	.bss.i.4538,"aw",%nobits
 11848              		.set	.LANCHOR16,. + 0
 11851              	i.4538:
 11852 0000 00       		.space	1
 11853              		.section	.bss.i.4834,"aw",%nobits
 11854              		.set	.LANCHOR42,. + 0
 11857              	i.4834:
 11858 0000 00       		.space	1
 11859              		.section	.bss.kill_throttle,"aw",%nobits
 11860              		.set	.LANCHOR19,. + 0
 11863              	kill_throttle:
 11864 0000 00       		.space	1
 11865              		.section	.bss.i306.4830,"aw",%nobits
 11866              		.align	1
 11867              		.set	.LANCHOR38,. + 0
 11870              	i306.4830:
 11871 0000 0000     		.space	2
 11872              		.section	.bss.i243.4828,"aw",%nobits
 11873              		.set	.LANCHOR36,. + 0
 11876              	i243.4828:
 11877 0000 00       		.space	1
 11878              		.section	.bss.i126.4823,"aw",%nobits
 11879              		.set	.LANCHOR31,. + 0
 11882              	i126.4823:
 11883 0000 00       		.space	1
 11884              		.section	.bss.i126.5333,"aw",%nobits
 11885              		.set	.LANCHOR59,. + 0
 11888              	i126.5333:
 11889 0000 00       		.space	1
 11890              		.section	.bss.i540.4832,"aw",%nobits
 11891              		.align	1
 11892              		.set	.LANCHOR40,. + 0
 11895              	i540.4832:
 11896 0000 0000     		.space	2
 11897              		.section	.bss.i150.4467,"aw",%nobits
 11898              		.set	.LANCHOR11,. + 0
 11901              	i150.4467:
 11902 0000 00       		.space	1
 11903              		.section	.bss.i72.4463,"aw",%nobits
 11904              		.set	.LANCHOR7,. + 0
 11907              	i72.4463:
 11908 0000 00       		.space	1
 11909              		.section	.bss.i15.4458,"aw",%nobits
 11910              		.set	.LANCHOR2,. + 0
 11913              	i15.4458:
 11914 0000 00       		.space	1
 11915              		.section	.bss.i318.5163,"aw",%nobits
 11916              		.align	1
 11917              		.set	.LANCHOR48,. + 0
 11920              	i318.5163:
 11921 0000 0000     		.space	2
 11922              		.section	.bss.i63.4818,"aw",%nobits
 11923              		.set	.LANCHOR26,. + 0
 11926              	i63.4818:
 11927 0000 00       		.space	1
 11928              		.section	.bss.i84.4821,"aw",%nobits
 11929              		.set	.LANCHOR29,. + 0
 11932              	i84.4821:
 11933 0000 00       		.space	1
 11934              		.section	.bss.i78.4820,"aw",%nobits
 11935              		.set	.LANCHOR28,. + 0
 11938              	i78.4820:
 11939 0000 00       		.space	1
 11940              		.section	.bss.current,"aw",%nobits
 11941              		.align	2
 11942              		.set	.LANCHOR17,. + 0
 11945              	current:
 11946 0000 00000000 		.space	4
 11947              		.section	.bss.i300.5161,"aw",%nobits
 11948              		.align	1
 11949              		.set	.LANCHOR46,. + 0
 11952              	i300.5161:
 11953 0000 0000     		.space	2
 11954              		.section	.bss.i300.4468,"aw",%nobits
 11955              		.align	1
 11956              		.set	.LANCHOR12,. + 0
 11959              	i300.4468:
 11960 0000 0000     		.space	2
 11961              		.section	.bss.i306.4469,"aw",%nobits
 11962              		.align	1
 11963              		.set	.LANCHOR13,. + 0
 11966              	i306.4469:
 11967 0000 0000     		.space	2
 11968              		.section	.bss.autopilot_flight_time,"aw",%nobits
 11969              		.align	1
 11970              		.set	.LANCHOR18,. + 0
 11973              	autopilot_flight_time:
 11974 0000 0000     		.space	2
 11975              		.section	.rodata.version,"a",%progbits
 11976              		.align	1
 11977              		.set	.LANCHOR1,. + 0
 11980              	version:
 11981 0000 0100     		.short	1
 11982              		.section	.bss.i.5177,"aw",%nobits
 11983              		.set	.LANCHOR55,. + 0
 11986              	i.5177:
 11987 0000 00       		.space	1
 11988              		.section	.rodata.str1.1,"aMS",%progbits,1
 11989              	.LC0:
 11990 0000 470222CD 		.ascii	"G\002\"\315\032\213\276T\357~O\020\215I\375\353\000"
 11990      1A8BBE54 
 11990      EF7E4F10 
 11990      8D49FDEB 
 11990      00
 11991              		.section	.bss.i6.5331,"aw",%nobits
 11992              		.set	.LANCHOR57,. + 0
 11995              	i6.5331:
 11996 0000 00       		.space	1
 11997              		.section	.bss.launch,"aw",%nobits
 11998              		.set	.LANCHOR22,. + 0
 12001              	launch:
 12002 0000 00       		.space	1
 12003              		.section	.bss.i15.4229,"aw",%nobits
 12004              		.set	.LANCHOR66,. + 0
 12007              	i15.4229:
 12008 0000 00       		.space	1
 12009              		.section	.bss.i540.4470,"aw",%nobits
 12010              		.align	1
 12011              		.set	.LANCHOR14,. + 0
 12014              	i540.4470:
 12015 0000 0000     		.space	2
 12016              		.ident	"GCC: (Linaro GCC 4.6-2011.09-1) 4.6.2 20110908 (prerelease)"
DEFINED SYMBOLS
                            *ABS*:00000000 main_ap.c
     /tmp/cc2aVVg6.s:13     .text.stateGetPositionEnu_f:00000000 $a
     /tmp/cc2aVVg6.s:15     .text.stateGetPositionEnu_f:00000000 stateGetPositionEnu_f
     /tmp/cc2aVVg6.s:31     .text.stateGetPositionEnu_f:00000020 $d
     /tmp/cc2aVVg6.s:35     .text.stateGetNedToBodyEulers_f:00000000 $a
     /tmp/cc2aVVg6.s:37     .text.stateGetNedToBodyEulers_f:00000000 stateGetNedToBodyEulers_f
     /tmp/cc2aVVg6.s:54     .text.stateGetNedToBodyEulers_f:00000024 $d
     /tmp/cc2aVVg6.s:58     .text.stateGetPositionUtm_f:00000000 $a
     /tmp/cc2aVVg6.s:60     .text.stateGetPositionUtm_f:00000000 stateGetPositionUtm_f
     /tmp/cc2aVVg6.s:76     .text.stateGetPositionUtm_f:00000020 $d
     /tmp/cc2aVVg6.s:80     .text.stateGetSpeedEnu_f:00000000 $a
     /tmp/cc2aVVg6.s:82     .text.stateGetSpeedEnu_f:00000000 stateGetSpeedEnu_f
     /tmp/cc2aVVg6.s:98     .text.stateGetSpeedEnu_f:00000020 $d
     /tmp/cc2aVVg6.s:102    .text.init_ap:00000000 $a
     /tmp/cc2aVVg6.s:105    .text.init_ap:00000000 init_ap
     /tmp/cc2aVVg6.s:170    .text.init_ap:000000e8 $d
                            *COM*:00000001 openlog_periodic_2Hz_openlog_status
                            *COM*:00000001 digital_cam_servo_servo_cam_ctrl_periodic_status
                            *COM*:00000001 sensors_tid
                            *COM*:00000001 navigation_tid
                            *COM*:00000001 attitude_tid
                            *COM*:00000001 modules_tid
                            *COM*:00000001 telemetry_tid
                            *COM*:00000001 monitor_tid
                            *COM*:00000001 power_switch
     /tmp/cc2aVVg6.s:196    .text.reporting_task:00000000 $a
     /tmp/cc2aVVg6.s:199    .text.reporting_task:00000000 reporting_task
     /tmp/cc2aVVg6.s:1070   .text.reporting_task:00000d54 $d
                            *COM*:00000004 energy
                            *COM*:00000001 vsupply
     /tmp/cc2aVVg6.s:1133   .text.reporting_task:00000e4c $a
     /tmp/cc2aVVg6.s:2550   .text.reporting_task:0000242c $d
     /tmp/cc2aVVg6.s:2564   .text.reporting_task:00002460 $a
     /tmp/cc2aVVg6.s:3119   .text.reporting_task:00002c9c $d
     /tmp/cc2aVVg6.s:3197   .text.reporting_task:00002dd0 $a
     /tmp/cc2aVVg6.s:4964   .text.reporting_task:00004900 $d
     /tmp/cc2aVVg6.s:4978   .text.reporting_task:00004934 $a
     /tmp/cc2aVVg6.s:5126   .text.reporting_task:00004b30 $d
     /tmp/cc2aVVg6.s:5197   .text.reporting_task:00004c48 $a
     /tmp/cc2aVVg6.s:7202   .text.reporting_task:00006b20 $d
     /tmp/cc2aVVg6.s:7257   .text.reporting_task:00006bf8 $a
     /tmp/cc2aVVg6.s:9312   .text.reporting_task:00008ba0 $d
     /tmp/cc2aVVg6.s:9326   .text.reporting_task:00008bd4 $a
     /tmp/cc2aVVg6.s:9339   .text.reporting_task:00008bf0 $d
     /tmp/cc2aVVg6.s:9395   .text.reporting_task:00008ccc $a
     /tmp/cc2aVVg6.s:9768   .text.navigation_task:00000000 $a
     /tmp/cc2aVVg6.s:9771   .text.navigation_task:00000000 navigation_task
     /tmp/cc2aVVg6.s:10271  .text.navigation_task:00000780 $d
     /tmp/cc2aVVg6.s:10302  .text.attitude_loop:00000000 $a
     /tmp/cc2aVVg6.s:10305  .text.attitude_loop:00000000 attitude_loop
     /tmp/cc2aVVg6.s:10425  .text.attitude_loop:000001a4 $d
     /tmp/cc2aVVg6.s:10444  .text.sensors_task:00000000 $a
     /tmp/cc2aVVg6.s:10447  .text.sensors_task:00000000 sensors_task
     /tmp/cc2aVVg6.s:10466  .text.sensors_task:00000030 $d
     /tmp/cc2aVVg6.s:10470  .text.monitor_task:00000000 $a
     /tmp/cc2aVVg6.s:10473  .text.monitor_task:00000000 monitor_task
     /tmp/cc2aVVg6.s:10625  .text.monitor_task:00000234 $d
     /tmp/cc2aVVg6.s:10650  .text.handle_periodic_tasks_ap:00000000 $a
     /tmp/cc2aVVg6.s:10653  .text.handle_periodic_tasks_ap:00000000 handle_periodic_tasks_ap
     /tmp/cc2aVVg6.s:10773  .text.handle_periodic_tasks_ap:000001c0 $d
     /tmp/cc2aVVg6.s:10779  .text.handle_periodic_tasks_ap:000001d4 $a
     /tmp/cc2aVVg6.s:11005  .text.handle_periodic_tasks_ap:00000520 $d
     /tmp/cc2aVVg6.s:11040  .text.event_task_ap:00000000 $a
     /tmp/cc2aVVg6.s:11043  .text.event_task_ap:00000000 event_task_ap
     /tmp/cc2aVVg6.s:11143  .text.event_task_ap:0000015c $d
     /tmp/cc2aVVg6.s:11149  .text.event_task_ap:00000170 $a
     /tmp/cc2aVVg6.s:11512  .text.event_task_ap:000006a4 $d
     /tmp/cc2aVVg6.s:11808  .bss.gps_lost:00000000 gps_lost
     /tmp/cc2aVVg6.s:11973  .bss.autopilot_flight_time:00000000 autopilot_flight_time
     /tmp/cc2aVVg6.s:12001  .bss.launch:00000000 launch
     /tmp/cc2aVVg6.s:11863  .bss.kill_throttle:00000000 kill_throttle
     /tmp/cc2aVVg6.s:11739  .bss.lateral_mode:00000000 lateral_mode
     /tmp/cc2aVVg6.s:11745  .data.pprz_mode:00000000 pprz_mode
     /tmp/cc2aVVg6.s:11646  .bss.ahrs_timeout_counter:00000000 ahrs_timeout_counter
     /tmp/cc2aVVg6.s:11574  .bss.i60.4460:00000000 i60.4460
     /tmp/cc2aVVg6.s:11575  .bss.i60.4460:00000000 $d
     /tmp/cc2aVVg6.s:11577  .bss.i306.5162:00000000 $d
     /tmp/cc2aVVg6.s:11581  .bss.i306.5162:00000000 i306.5162
     /tmp/cc2aVVg6.s:11587  .bss.i30.5332:00000000 i30.5332
     /tmp/cc2aVVg6.s:11588  .bss.i30.5332:00000000 $d
     /tmp/cc2aVVg6.s:11590  .bss.last.5262:00000000 $d
     /tmp/cc2aVVg6.s:11594  .bss.last.5262:00000000 last.5262
     /tmp/cc2aVVg6.s:11600  .bss.i66.4819:00000000 i66.4819
     /tmp/cc2aVVg6.s:11601  .bss.i66.4819:00000000 $d
     /tmp/cc2aVVg6.s:11606  .bss.i.4693:00000000 i.4693
     /tmp/cc2aVVg6.s:11607  .bss.i.4693:00000000 $d
     /tmp/cc2aVVg6.s:11609  .bss.i420.5167:00000000 $d
     /tmp/cc2aVVg6.s:11613  .bss.i420.5167:00000000 i420.5167
     /tmp/cc2aVVg6.s:11616  .bss.i330.5165:00000000 $d
     /tmp/cc2aVVg6.s:11620  .bss.i330.5165:00000000 i330.5165
     /tmp/cc2aVVg6.s:11623  .bss.last.5114:00000000 $d
     /tmp/cc2aVVg6.s:11627  .bss.last.5114:00000000 last.5114
     /tmp/cc2aVVg6.s:11633  .bss.mcu1_ppm_cpt:00000000 mcu1_ppm_cpt
     /tmp/cc2aVVg6.s:11634  .bss.mcu1_ppm_cpt:00000000 $d
     /tmp/cc2aVVg6.s:11636  .bss.i300.4829:00000000 $d
     /tmp/cc2aVVg6.s:11640  .bss.i300.4829:00000000 i300.4829
     /tmp/cc2aVVg6.s:11647  .bss.ahrs_timeout_counter:00000000 $d
     /tmp/cc2aVVg6.s:11652  .bss.i192.4826:00000000 i192.4826
     /tmp/cc2aVVg6.s:11653  .bss.i192.4826:00000000 $d
     /tmp/cc2aVVg6.s:11658  .bss.i183.4825:00000000 i183.4825
     /tmp/cc2aVVg6.s:11659  .bss.i183.4825:00000000 $d
     /tmp/cc2aVVg6.s:11661  .bss.i342.5166:00000000 $d
     /tmp/cc2aVVg6.s:11665  .bss.i342.5166:00000000 i342.5166
     /tmp/cc2aVVg6.s:11671  .bss.i.5348:00000000 i.5348
     /tmp/cc2aVVg6.s:11672  .bss.i.5348:00000000 $d
     /tmp/cc2aVVg6.s:11677  .bss.i90.4822:00000000 i90.4822
     /tmp/cc2aVVg6.s:11678  .bss.i90.4822:00000000 $d
     /tmp/cc2aVVg6.s:11683  .bss.i30.4230:00000000 i30.4230
     /tmp/cc2aVVg6.s:11684  .bss.i30.4230:00000000 $d
     /tmp/cc2aVVg6.s:11686  .bss.last.4798:00000000 $d
     /tmp/cc2aVVg6.s:11690  .bss.last.4798:00000000 last.4798
     /tmp/cc2aVVg6.s:11693  .bss.i612.5169:00000000 $d
     /tmp/cc2aVVg6.s:11697  .bss.i612.5169:00000000 i612.5169
     /tmp/cc2aVVg6.s:11703  .bss.i180.4824:00000000 i180.4824
     /tmp/cc2aVVg6.s:11704  .bss.i180.4824:00000000 $d
     /tmp/cc2aVVg6.s:11709  .bss.t.5446:00000000 t.5446
     /tmp/cc2aVVg6.s:11710  .bss.t.5446:00000000 $d
     /tmp/cc2aVVg6.s:11715  .bss.i30.4459:00000000 i30.4459
     /tmp/cc2aVVg6.s:11716  .bss.i30.4459:00000000 $d
     /tmp/cc2aVVg6.s:11721  .bss.i.4471:00000000 i.4471
     /tmp/cc2aVVg6.s:11722  .bss.i.4471:00000000 $d
     /tmp/cc2aVVg6.s:11727  .bss.last_pprz_mode.5394:00000000 last_pprz_mode.5394
     /tmp/cc2aVVg6.s:11728  .bss.last_pprz_mode.5394:00000000 $d
     /tmp/cc2aVVg6.s:11733  .bss.i90.4464:00000000 i90.4464
     /tmp/cc2aVVg6.s:11734  .bss.i90.4464:00000000 $d
     /tmp/cc2aVVg6.s:11740  .bss.lateral_mode:00000000 $d
     /tmp/cc2aVVg6.s:11751  .bss.i.4904:00000000 i.4904
     /tmp/cc2aVVg6.s:11752  .bss.i.4904:00000000 $d
     /tmp/cc2aVVg6.s:11757  .data.boot.4453:00000000 boot.4453
     /tmp/cc2aVVg6.s:11763  .bss.mcu1_status:00000000 mcu1_status
     /tmp/cc2aVVg6.s:11764  .bss.mcu1_status:00000000 $d
     /tmp/cc2aVVg6.s:11766  .bss.i606.4833:00000000 $d
     /tmp/cc2aVVg6.s:11770  .bss.i606.4833:00000000 i606.4833
     /tmp/cc2aVVg6.s:11776  .bss.i63.4461:00000000 i63.4461
     /tmp/cc2aVVg6.s:11777  .bss.i63.4461:00000000 $d
     /tmp/cc2aVVg6.s:11782  .bss.i.4923:00000000 i.4923
     /tmp/cc2aVVg6.s:11783  .bss.i.4923:00000000 $d
     /tmp/cc2aVVg6.s:11788  .bss.i126.4466:00000000 i126.4466
     /tmp/cc2aVVg6.s:11789  .bss.i126.4466:00000000 $d
     /tmp/cc2aVVg6.s:11791  .bss.i606.5168:00000000 $d
     /tmp/cc2aVVg6.s:11795  .bss.i606.5168:00000000 i606.5168
     /tmp/cc2aVVg6.s:11798  .bss.i312.4831:00000000 $d
     /tmp/cc2aVVg6.s:11802  .bss.i312.4831:00000000 i312.4831
     /tmp/cc2aVVg6.s:11809  .bss.gps_lost:00000000 $d
     /tmp/cc2aVVg6.s:11814  .bss.dc_shutter_timer.4201:00000000 dc_shutter_timer.4201
     /tmp/cc2aVVg6.s:11815  .bss.dc_shutter_timer.4201:00000000 $d
     /tmp/cc2aVVg6.s:11817  .bss.i324.5164:00000000 $d
     /tmp/cc2aVVg6.s:11821  .bss.i324.5164:00000000 i324.5164
     /tmp/cc2aVVg6.s:11827  .bss.i1.4228:00000000 i1.4228
     /tmp/cc2aVVg6.s:11828  .bss.i1.4228:00000000 $d
     /tmp/cc2aVVg6.s:11833  .bss.i120.4465:00000000 i120.4465
     /tmp/cc2aVVg6.s:11834  .bss.i120.4465:00000000 $d
     /tmp/cc2aVVg6.s:11839  .bss.i66.4462:00000000 i66.4462
     /tmp/cc2aVVg6.s:11840  .bss.i66.4462:00000000 $d
     /tmp/cc2aVVg6.s:11845  .bss.i240.4827:00000000 i240.4827
     /tmp/cc2aVVg6.s:11846  .bss.i240.4827:00000000 $d
     /tmp/cc2aVVg6.s:11851  .bss.i.4538:00000000 i.4538
     /tmp/cc2aVVg6.s:11852  .bss.i.4538:00000000 $d
     /tmp/cc2aVVg6.s:11857  .bss.i.4834:00000000 i.4834
     /tmp/cc2aVVg6.s:11858  .bss.i.4834:00000000 $d
     /tmp/cc2aVVg6.s:11864  .bss.kill_throttle:00000000 $d
     /tmp/cc2aVVg6.s:11866  .bss.i306.4830:00000000 $d
     /tmp/cc2aVVg6.s:11870  .bss.i306.4830:00000000 i306.4830
     /tmp/cc2aVVg6.s:11876  .bss.i243.4828:00000000 i243.4828
     /tmp/cc2aVVg6.s:11877  .bss.i243.4828:00000000 $d
     /tmp/cc2aVVg6.s:11882  .bss.i126.4823:00000000 i126.4823
     /tmp/cc2aVVg6.s:11883  .bss.i126.4823:00000000 $d
     /tmp/cc2aVVg6.s:11888  .bss.i126.5333:00000000 i126.5333
     /tmp/cc2aVVg6.s:11889  .bss.i126.5333:00000000 $d
     /tmp/cc2aVVg6.s:11891  .bss.i540.4832:00000000 $d
     /tmp/cc2aVVg6.s:11895  .bss.i540.4832:00000000 i540.4832
     /tmp/cc2aVVg6.s:11901  .bss.i150.4467:00000000 i150.4467
     /tmp/cc2aVVg6.s:11902  .bss.i150.4467:00000000 $d
     /tmp/cc2aVVg6.s:11907  .bss.i72.4463:00000000 i72.4463
     /tmp/cc2aVVg6.s:11908  .bss.i72.4463:00000000 $d
     /tmp/cc2aVVg6.s:11913  .bss.i15.4458:00000000 i15.4458
     /tmp/cc2aVVg6.s:11914  .bss.i15.4458:00000000 $d
     /tmp/cc2aVVg6.s:11916  .bss.i318.5163:00000000 $d
     /tmp/cc2aVVg6.s:11920  .bss.i318.5163:00000000 i318.5163
     /tmp/cc2aVVg6.s:11926  .bss.i63.4818:00000000 i63.4818
     /tmp/cc2aVVg6.s:11927  .bss.i63.4818:00000000 $d
     /tmp/cc2aVVg6.s:11932  .bss.i84.4821:00000000 i84.4821
     /tmp/cc2aVVg6.s:11933  .bss.i84.4821:00000000 $d
     /tmp/cc2aVVg6.s:11938  .bss.i78.4820:00000000 i78.4820
     /tmp/cc2aVVg6.s:11939  .bss.i78.4820:00000000 $d
     /tmp/cc2aVVg6.s:11941  .bss.current:00000000 $d
     /tmp/cc2aVVg6.s:11945  .bss.current:00000000 current
     /tmp/cc2aVVg6.s:11948  .bss.i300.5161:00000000 $d
     /tmp/cc2aVVg6.s:11952  .bss.i300.5161:00000000 i300.5161
     /tmp/cc2aVVg6.s:11955  .bss.i300.4468:00000000 $d
     /tmp/cc2aVVg6.s:11959  .bss.i300.4468:00000000 i300.4468
     /tmp/cc2aVVg6.s:11962  .bss.i306.4469:00000000 $d
     /tmp/cc2aVVg6.s:11966  .bss.i306.4469:00000000 i306.4469
     /tmp/cc2aVVg6.s:11969  .bss.autopilot_flight_time:00000000 $d
     /tmp/cc2aVVg6.s:11976  .rodata.version:00000000 $d
     /tmp/cc2aVVg6.s:11980  .rodata.version:00000000 version
     /tmp/cc2aVVg6.s:11986  .bss.i.5177:00000000 i.5177
     /tmp/cc2aVVg6.s:11987  .bss.i.5177:00000000 $d
     /tmp/cc2aVVg6.s:11995  .bss.i6.5331:00000000 i6.5331
     /tmp/cc2aVVg6.s:11996  .bss.i6.5331:00000000 $d
     /tmp/cc2aVVg6.s:12002  .bss.launch:00000000 $d
     /tmp/cc2aVVg6.s:12007  .bss.i15.4229:00000000 i15.4229
     /tmp/cc2aVVg6.s:12008  .bss.i15.4229:00000000 $d
     /tmp/cc2aVVg6.s:12010  .bss.i540.4470:00000000 $d
     /tmp/cc2aVVg6.s:12014  .bss.i540.4470:00000000 i540.4470

UNDEFINED SYMBOLS
stateCalcPositionEnu_f
state
orientationCalcEulers_f
stateCalcPositionUtm_f
stateCalcSpeedEnu_f
gps_init
imu_init
ahrs_init
ins_init
stateInit
h_ctl_init
v_ctl_init
nav_init
init_openlog
infrared_adc_init
settings_init
sys_time_register_timer
enableIRQ
xbee_init
traffic_info_init
dc_timer
__aeabi_i2d
__aeabi_dmul
__aeabi_ddiv
__aeabi_d2iz
__aeabi_i2f
__aeabi_fadd
__aeabi_f2d
__aeabi_d2uiz
__aeabi_idiv
__aeabi_f2iz
__aeabi_fmul
__aeabi_ui2f
__aeabi_fdiv
uart_check_free_space
uart_transmit
telemetry_mode_Ap
gps
nb_waypoint
nav_utm_east0
waypoints
nav_utm_north0
nav_utm_zone0
nav_circle_radians
nav_block
nav_stage
dist2_to_wp
dist2_to_home
nav_oval_count
nav_in_circle
nav_circle_x
nav_circle_y
nav_circle_radius
h_ctl_roll_setpoint
h_ctl_pitch_loop_setpoint
h_ctl_course_setpoint
desired_x
desired_y
v_ctl_altitude_setpoint
v_ctl_climb_setpoint
downlink_nb_ovrn
v_ctl_throttle_slewed
block_time
stage_time
imu
downlink_nb_bytes
downlink_nb_msgs
xbee_cs
uart0
nav_in_segment
nav_segment_x_1
nav_segment_y_1
nav_segment_x_2
nav_segment_y_2
telemetry_mode_Fbw
flight_altitude
nav_course
nav_shift
nav_radius
v_ctl_auto_throttle_sum_err
v_ctl_auto_throttle_submode
nav_survey_active
nav_survey_east
nav_survey_north
nav_survey_west
nav_survey_south
v_ctl_mode
horizontal_mode
infrared
common_nav_periodic_task_4Hz
nav_home
nav_without_gps
nav_periodic_task
v_ctl_altitude_loop
h_ctl_course_loop
sys_time
__aeabi_dcmpgt
__aeabi_fcmpgt
__aeabi_fcmplt
ahrs_update_infrared
v_ctl_climb_loop
h_ctl_attitude_loop
v_ctl_throttle_slew
nav_throttle_setpoint
v_ctl_throttle_setpoint
nav_pitch
v_ctl_pitch_setpoint
h_ctl_pitch_setpoint
ap_state
h_ctl_aileron_setpoint
h_ctl_elevator_setpoint
inter_mcu_received_ap
imu_periodic
ins_periodic
__aeabi_dcmplt
stateCalcHorizontalSpeedNorm_f
datalink_time
__aeabi_idivmod
__aeabi_dsub
__aeabi_d2f
__aeabi_fcmpeq
__aeabi_fsub
__aeabi_fcmpge
infrared_adc_update
floorf
fminf
dc_send_command
periodic_2Hz_openlog
dc_autoshoot
dc_autoshoot_quartersec_period
dc_autoshoot_meter_grid
dc_circle_start_angle
dc_circle_interval
dc_probing
dc_circle_last_block
dc_circle_max_blocks
dc_gps_count
dc_gps_x
dc_gps_y
dc_gps_dist
dc_gps_next_dist
__aeabi_dadd
ahrs_propagate
ahrs_update_accel
gps_ubx_parse
gps_ubx_read_message
ins_update_gps
ahrs_update_gps
dl_parse_msg
analog_imu_available
uart1
gps_ubx
xbee_tp
xbee_rssi
dl_buffer
dl_msg_available
inter_mcu_received_fbw
fbw_state
too_far_from_home
