   1              		.cpu arm7tdmi
   2              		.fpu softvfp
   3              		.eabi_attribute 20, 1
   4              		.eabi_attribute 21, 1
   5              		.eabi_attribute 23, 3
   6              		.eabi_attribute 24, 1
   7              		.eabi_attribute 25, 1
   8              		.eabi_attribute 26, 1
   9              		.eabi_attribute 30, 4
  10              		.eabi_attribute 18, 4
  11              		.file	"main_ap.c"
  12              		.section	.text.stateGetPositionEnu_f,"ax",%progbits
  13              		.align	2
  15              	stateGetPositionEnu_f:
  16              		@ Function supports interworking.
  17              		@ args = 0, pretend = 0, frame = 0
  18              		@ frame_needed = 0, uses_anonymous_args = 0
  19 0000 08402DE9 		stmfd	sp!, {r3, lr}
  20 0004 14309FE5 		ldr	r3, .L3
  21 0008 B030D3E1 		ldrh	r3, [r3, #0]
  22 000c 800013E3 		tst	r3, #128
  23 0010 FEFFFF0B 		bleq	stateCalcPositionEnu_f
  24              	.L2:
  25 0014 08009FE5 		ldr	r0, .L3+4
  26 0018 0840BDE8 		ldmfd	sp!, {r3, lr}
  27 001c 1EFF2FE1 		bx	lr
  28              	.L4:
  29              		.align	2
  30              	.L3:
  31 0020 00000000 		.word	state
  32 0024 08010000 		.word	state+264
  34              		.section	.text.stateGetNedToBodyEulers_f,"ax",%progbits
  35              		.align	2
  37              	stateGetNedToBodyEulers_f:
  38              		@ Function supports interworking.
  39              		@ args = 0, pretend = 0, frame = 0
  40              		@ frame_needed = 0, uses_anonymous_args = 0
  41 0000 08402DE9 		stmfd	sp!, {r3, lr}
  42 0004 18009FE5 		ldr	r0, .L7
  43 0008 A431D0E5 		ldrb	r3, [r0, #420]	@ zero_extendqisi2
  44 000c 100013E3 		tst	r3, #16
  45 0010 690F8002 		addeq	r0, r0, #420
  46 0014 FEFFFF0B 		bleq	orientationCalcEulers_f
  47              	.L6:
  48 0018 08009FE5 		ldr	r0, .L7+4
  49 001c 0840BDE8 		ldmfd	sp!, {r3, lr}
  50 0020 1EFF2FE1 		bx	lr
  51              	.L8:
  52              		.align	2
  53              	.L7:
  54 0024 00000000 		.word	state
  55 0028 F8010000 		.word	state+504
  57              		.section	.text.stateGetPositionUtm_f,"ax",%progbits
  58              		.align	2
  60              	stateGetPositionUtm_f:
  61              		@ Function supports interworking.
  62              		@ args = 0, pretend = 0, frame = 0
  63              		@ frame_needed = 0, uses_anonymous_args = 0
  64 0000 08402DE9 		stmfd	sp!, {r3, lr}
  65 0004 14309FE5 		ldr	r3, .L11
  66 0008 B030D3E1 		ldrh	r3, [r3, #0]
  67 000c 020C13E3 		tst	r3, #512
  68 0010 FEFFFF0B 		bleq	stateCalcPositionUtm_f
  69              	.L10:
  70 0014 08009FE5 		ldr	r0, .L11+4
  71 0018 0840BDE8 		ldmfd	sp!, {r3, lr}
  72 001c 1EFF2FE1 		bx	lr
  73              	.L12:
  74              		.align	2
  75              	.L11:
  76 0020 00000000 		.word	state
  77 0024 78000000 		.word	state+120
  79              		.section	.text.stateGetSpeedEnu_f,"ax",%progbits
  80              		.align	2
  82              	stateGetSpeedEnu_f:
  83              		@ Function supports interworking.
  84              		@ args = 0, pretend = 0, frame = 0
  85              		@ frame_needed = 0, uses_anonymous_args = 0
  86 0000 08402DE9 		stmfd	sp!, {r3, lr}
  87 0004 14309FE5 		ldr	r3, .L15
  88 0008 1431D3E5 		ldrb	r3, [r3, #276]	@ zero_extendqisi2
  89 000c A333B0E1 		movs	r3, r3, lsr #7
  90 0010 FEFFFF0B 		bleq	stateCalcSpeedEnu_f
  91              	.L14:
  92 0014 08009FE5 		ldr	r0, .L15+4
  93 0018 0840BDE8 		ldmfd	sp!, {r3, lr}
  94 001c 1EFF2FE1 		bx	lr
  95              	.L16:
  96              		.align	2
  97              	.L15:
  98 0020 00000000 		.word	state
  99 0024 5C010000 		.word	state+348
 101              		.section	.text.init_ap,"ax",%progbits
 102              		.align	2
 103              		.global	init_ap
 105              	init_ap:
 106              		@ Function supports interworking.
 107              		@ args = 0, pretend = 0, frame = 0
 108              		@ frame_needed = 0, uses_anonymous_args = 0
 109 0000 38402DE9 		stmfd	sp!, {r3, r4, r5, lr}
 110 0004 FEFFFFEB 		bl	gps_init
 111 0008 FEFFFFEB 		bl	imu_init
 112 000c FEFFFFEB 		bl	ahrs_init
 113 0010 FEFFFFEB 		bl	ins_init
 114 0014 FEFFFFEB 		bl	stateInit
 115 0018 FEFFFFEB 		bl	h_ctl_init
 116 001c FEFFFFEB 		bl	v_ctl_init
 117 0020 FEFFFFEB 		bl	nav_init
 118 0024 FEFFFFEB 		bl	init_openlog
 119 0028 B8309FE5 		ldr	r3, .L18
 120 002c 0250A0E3 		mov	r5, #2
 121 0030 0050C3E5 		strb	r5, [r3, #0]
 122 0034 FEFFFFEB 		bl	infrared_adc_init
 123 0038 AC309FE5 		ldr	r3, .L18+4
 124 003c 0040A0E3 		mov	r4, #0
 125 0040 0040C3E5 		strb	r4, [r3, #0]
 126 0044 A4309FE5 		ldr	r3, .L18+8
 127 0048 0050C3E5 		strb	r5, [r3, #0]
 128 004c A0509FE5 		ldr	r5, .L18+12
 129 0050 FEFFFFEB 		bl	settings_init
 130 0054 0410A0E1 		mov	r1, r4
 131 0058 0500A0E1 		mov	r0, r5
 132 005c FEFFFFEB 		bl	sys_time_register_timer
 133 0060 90309FE5 		ldr	r3, .L18+16
 134 0064 0410A0E1 		mov	r1, r4
 135 0068 0000C3E5 		strb	r0, [r3, #0]
 136 006c FA05A0E3 		mov	r0, #1048576000
 137 0070 FEFFFFEB 		bl	sys_time_register_timer
 138 0074 80309FE5 		ldr	r3, .L18+20
 139 0078 0410A0E1 		mov	r1, r4
 140 007c 0000C3E5 		strb	r0, [r3, #0]
 141 0080 0500A0E1 		mov	r0, r5
 142 0084 FEFFFFEB 		bl	sys_time_register_timer
 143 0088 70309FE5 		ldr	r3, .L18+24
 144 008c 0410A0E1 		mov	r1, r4
 145 0090 0000C3E5 		strb	r0, [r3, #0]
 146 0094 0500A0E1 		mov	r0, r5
 147 0098 FEFFFFEB 		bl	sys_time_register_timer
 148 009c 60309FE5 		ldr	r3, .L18+28
 149 00a0 0410A0E1 		mov	r1, r4
 150 00a4 0000C3E5 		strb	r0, [r3, #0]
 151 00a8 0500A0E1 		mov	r0, r5
 152 00ac FEFFFFEB 		bl	sys_time_register_timer
 153 00b0 50309FE5 		ldr	r3, .L18+32
 154 00b4 0410A0E1 		mov	r1, r4
 155 00b8 0000C3E5 		strb	r0, [r3, #0]
 156 00bc FE05A0E3 		mov	r0, #1065353216
 157 00c0 FEFFFFEB 		bl	sys_time_register_timer
 158 00c4 40309FE5 		ldr	r3, .L18+36
 159 00c8 0000C3E5 		strb	r0, [r3, #0]
 160 00cc FEFFFFEB 		bl	enableIRQ
 161 00d0 FEFFFFEB 		bl	xbee_init
 162 00d4 34309FE5 		ldr	r3, .L18+40
 163 00d8 0040C3E5 		strb	r4, [r3, #0]
 164 00dc FEFFFFEB 		bl	traffic_info_init
 165 00e0 3840BDE8 		ldmfd	sp!, {r3, r4, r5, lr}
 166 00e4 1EFF2FE1 		bx	lr
 167              	.L19:
 168              		.align	2
 169              	.L18:
 170 00e8 00000000 		.word	openlog_periodic_2Hz_openlog_status
 171 00ec 00000000 		.word	dc_timer
 172 00f0 00000000 		.word	digital_cam_servo_servo_cam_ctrl_periodic_status
 173 00f4 8988883C 		.word	1015580809
 174 00f8 00000000 		.word	sensors_tid
 175 00fc 00000000 		.word	navigation_tid
 176 0100 00000000 		.word	attitude_tid
 177 0104 00000000 		.word	modules_tid
 178 0108 00000000 		.word	telemetry_tid
 179 010c 00000000 		.word	monitor_tid
 180 0110 00000000 		.word	power_switch
 182              		.global	__aeabi_i2d
 183              		.global	__aeabi_dmul
 184              		.global	__aeabi_ddiv
 185              		.global	__aeabi_d2iz
 186              		.global	__aeabi_i2f
 187              		.global	__aeabi_fadd
 188              		.global	__aeabi_f2d
 189              		.global	__aeabi_d2uiz
 190              		.global	__aeabi_idiv
 191              		.global	__aeabi_f2iz
 192              		.global	__aeabi_fmul
 193              		.global	__aeabi_ui2f
 194              		.global	__aeabi_fdiv
 195              		.section	.text.reporting_task,"ax",%progbits
 196              		.align	2
 197              		.global	reporting_task
 199              	reporting_task:
 200              		@ Function supports interworking.
 201              		@ args = 0, pretend = 0, frame = 32
 202              		@ frame_needed = 0, uses_anonymous_args = 0
 203 0000 F0412DE9 		stmfd	sp!, {r4, r5, r6, r7, r8, lr}
 204 0004 483D9FE5 		ldr	r3, .L282
 205 0008 0030D3E5 		ldrb	r3, [r3, #0]	@ zero_extendqisi2
 206 000c 000053E3 		cmp	r3, #0
 207 0010 20D04DE2 		sub	sp, sp, #32
 208 0014 5100000A 		beq	.L21
 209 0018 280E9FE5 		ldr	r0, .L282+244
 210 001c 0D10A0E3 		mov	r1, #13
 211 0020 FEFFFFEB 		bl	uart_check_free_space
 212 0024 000050E3 		cmp	r0, #0
 213 0028 4500000A 		beq	.L22
 214 002c 083E9FE5 		ldr	r3, .L282+232
 215 0030 B020D3E1 		ldrh	r2, [r3, #0]
 216 0034 0D2082E2 		add	r2, r2, #13
 217 0038 B020C3E1 		strh	r2, [r3, #0]	@ movhi
 218 003c FC3D9FE5 		ldr	r3, .L282+236
 219 0040 B020D3E1 		ldrh	r2, [r3, #0]
 220 0044 012082E2 		add	r2, r2, #1
 221 0048 B020C3E1 		strh	r2, [r3, #0]	@ movhi
 222 004c F40D9FE5 		ldr	r0, .L282+244
 223 0050 7E10A0E3 		mov	r1, #126
 224 0054 E84D9FE5 		ldr	r4, .L282+240
 225 0058 FEFFFFEB 		bl	uart_transmit
 226 005c E40D9FE5 		ldr	r0, .L282+244
 227 0060 0010A0E3 		mov	r1, #0
 228 0064 0150A0E3 		mov	r5, #1
 229 0068 FEFFFFEB 		bl	uart_transmit
 230 006c D40D9FE5 		ldr	r0, .L282+244
 231 0070 0910A0E3 		mov	r1, #9
 232 0074 FEFFFFEB 		bl	uart_transmit
 233 0078 0050C4E5 		strb	r5, [r4, #0]
 234 007c 0510A0E1 		mov	r1, r5
 235 0080 C00D9FE5 		ldr	r0, .L282+244
 236 0084 FEFFFFEB 		bl	uart_transmit
 237 0088 B80D9FE5 		ldr	r0, .L282+244
 238 008c 0010A0E3 		mov	r1, #0
 239 0090 FEFFFFEB 		bl	uart_transmit
 240 0094 0030D4E5 		ldrb	r3, [r4, #0]	@ zero_extendqisi2
 241 0098 053083E0 		add	r3, r3, r5
 242 009c 0030C4E5 		strb	r3, [r4, #0]
 243 00a0 0510A0E1 		mov	r1, r5
 244 00a4 9C0D9FE5 		ldr	r0, .L282+244
 245 00a8 FEFFFFEB 		bl	uart_transmit
 246 00ac 940D9FE5 		ldr	r0, .L282+244
 247 00b0 0010A0E3 		mov	r1, #0
 248 00b4 FEFFFFEB 		bl	uart_transmit
 249 00b8 880D9FE5 		ldr	r0, .L282+244
 250 00bc 0010A0E3 		mov	r1, #0
 251 00c0 FEFFFFEB 		bl	uart_transmit
 252 00c4 0030D4E5 		ldrb	r3, [r4, #0]	@ zero_extendqisi2
 253 00c8 023083E2 		add	r3, r3, #2
 254 00cc 0030C4E5 		strb	r3, [r4, #0]
 255 00d0 700D9FE5 		ldr	r0, .L282+244
 256 00d4 0210A0E3 		mov	r1, #2
 257 00d8 FEFFFFEB 		bl	uart_transmit
 258 00dc 0030D4E5 		ldrb	r3, [r4, #0]	@ zero_extendqisi2
 259 00e0 0510A0E1 		mov	r1, r5
 260 00e4 053083E0 		add	r3, r3, r5
 261 00e8 685C9FE5 		ldr	r5, .L282+4
 262 00ec 0030C4E5 		strb	r3, [r4, #0]
 263 00f0 500D9FE5 		ldr	r0, .L282+244
 264 00f4 FEFFFFEB 		bl	uart_transmit
 265 00f8 0010D5E5 		ldrb	r1, [r5, #0]	@ zero_extendqisi2
 266 00fc 0030D4E5 		ldrb	r3, [r4, #0]	@ zero_extendqisi2
 267 0100 033081E0 		add	r3, r1, r3
 268 0104 0030C4E5 		strb	r3, [r4, #0]
 269 0108 380D9FE5 		ldr	r0, .L282+244
 270 010c FEFFFFEB 		bl	uart_transmit
 271 0110 0110D5E5 		ldrb	r1, [r5, #1]	@ zero_extendqisi2
 272 0114 0030D4E5 		ldrb	r3, [r4, #0]	@ zero_extendqisi2
 273 0118 033081E0 		add	r3, r1, r3
 274 011c 0030C4E5 		strb	r3, [r4, #0]
 275 0120 200D9FE5 		ldr	r0, .L282+244
 276 0124 FEFFFFEB 		bl	uart_transmit
 277 0128 0010D4E5 		ldrb	r1, [r4, #0]	@ zero_extendqisi2
 278 012c 0110E0E1 		mvn	r1, r1
 279 0130 FF1001E2 		and	r1, r1, #255
 280 0134 0010C4E5 		strb	r1, [r4, #0]
 281 0138 080D9FE5 		ldr	r0, .L282+244
 282 013c FEFFFFEB 		bl	uart_transmit
 283 0140 030000EA 		b	.L23
 284              	.L22:
 285 0144 C43C9FE5 		ldr	r3, .L282+188
 286 0148 0020D3E5 		ldrb	r2, [r3, #0]	@ zero_extendqisi2
 287 014c 012082E2 		add	r2, r2, #1
 288 0150 0020C3E5 		strb	r2, [r3, #0]
 289              	.L23:
 290 0154 0020A0E3 		mov	r2, #0
 291 0158 F43B9FE5 		ldr	r3, .L282
 292 015c 322400EA 		b	.L276
 293              	.L21:
 294 0160 F43B9FE5 		ldr	r3, .L282+8
 295 0164 0020D3E5 		ldrb	r2, [r3, #0]	@ zero_extendqisi2
 296 0168 000052E3 		cmp	r2, #0
 297 016c D00D001A 		bne	.L25
 298 0170 E83B9FE5 		ldr	r3, .L282+12
 299 0174 0010D3E5 		ldrb	r1, [r3, #0]	@ zero_extendqisi2
 300 0178 011081E2 		add	r1, r1, #1
 301 017c FF1001E2 		and	r1, r1, #255
 302 0180 0E0051E3 		cmp	r1, #14
 303 0184 0010C3E5 		strb	r1, [r3, #0]
 304 0188 0020C385 		strhib	r2, [r3, #0]
 305 018c D03B9FE5 		ldr	r3, .L282+16
 306 0190 0020D3E5 		ldrb	r2, [r3, #0]	@ zero_extendqisi2
 307 0194 012082E2 		add	r2, r2, #1
 308 0198 FF2002E2 		and	r2, r2, #255
 309 019c 1D0052E3 		cmp	r2, #29
 310 01a0 0020C3E5 		strb	r2, [r3, #0]
 311 01a4 0020A083 		movhi	r2, #0
 312 01a8 0020C385 		strhib	r2, [r3, #0]
 313 01ac 043C9FE5 		ldr	r3, .L282+100
 314 01b0 0020D3E5 		ldrb	r2, [r3, #0]	@ zero_extendqisi2
 315 01b4 012082E2 		add	r2, r2, #1
 316 01b8 FF2002E2 		and	r2, r2, #255
 317 01bc 3B0052E3 		cmp	r2, #59
 318 01c0 0020C3E5 		strb	r2, [r3, #0]
 319 01c4 0020A083 		movhi	r2, #0
 320 01c8 0020C385 		strhib	r2, [r3, #0]
 321 01cc 083C9FE5 		ldr	r3, .L282+136
 322 01d0 0020D3E5 		ldrb	r2, [r3, #0]	@ zero_extendqisi2
 323 01d4 012082E2 		add	r2, r2, #1
 324 01d8 FF2002E2 		and	r2, r2, #255
 325 01dc 3E0052E3 		cmp	r2, #62
 326 01e0 0020C3E5 		strb	r2, [r3, #0]
 327 01e4 0020A083 		movhi	r2, #0
 328 01e8 0020C385 		strhib	r2, [r3, #0]
 329 01ec 203C9FE5 		ldr	r3, .L282+192
 330 01f0 0020D3E5 		ldrb	r2, [r3, #0]	@ zero_extendqisi2
 331 01f4 012082E2 		add	r2, r2, #1
 332 01f8 FF2002E2 		and	r2, r2, #255
 333 01fc 410052E3 		cmp	r2, #65
 334 0200 0020C3E5 		strb	r2, [r3, #0]
 335 0204 0020A083 		movhi	r2, #0
 336 0208 0020C385 		strhib	r2, [r3, #0]
 337 020c 543B9FE5 		ldr	r3, .L282+20
 338 0210 0020D3E5 		ldrb	r2, [r3, #0]	@ zero_extendqisi2
 339 0214 012082E2 		add	r2, r2, #1
 340 0218 FF2002E2 		and	r2, r2, #255
 341 021c 470052E3 		cmp	r2, #71
 342 0220 0020C3E5 		strb	r2, [r3, #0]
 343 0224 0020A083 		movhi	r2, #0
 344 0228 0020C385 		strhib	r2, [r3, #0]
 345 022c 383B9FE5 		ldr	r3, .L282+24
 346 0230 0020D3E5 		ldrb	r2, [r3, #0]	@ zero_extendqisi2
 347 0234 012082E2 		add	r2, r2, #1
 348 0238 FF2002E2 		and	r2, r2, #255
 349 023c 590052E3 		cmp	r2, #89
 350 0240 0020C3E5 		strb	r2, [r3, #0]
 351 0244 0020A083 		movhi	r2, #0
 352 0248 0020C385 		strhib	r2, [r3, #0]
 353 024c 1C3B9FE5 		ldr	r3, .L282+28
 354 0250 0020D3E5 		ldrb	r2, [r3, #0]	@ zero_extendqisi2
 355 0254 012082E2 		add	r2, r2, #1
 356 0258 FF2002E2 		and	r2, r2, #255
 357 025c 770052E3 		cmp	r2, #119
 358 0260 0020C3E5 		strb	r2, [r3, #0]
 359 0264 0020A083 		movhi	r2, #0
 360 0268 0020C385 		strhib	r2, [r3, #0]
 361 026c 003B9FE5 		ldr	r3, .L282+32
 362 0270 0020D3E5 		ldrb	r2, [r3, #0]	@ zero_extendqisi2
 363 0274 012082E2 		add	r2, r2, #1
 364 0278 FF2002E2 		and	r2, r2, #255
 365 027c 7D0052E3 		cmp	r2, #125
 366 0280 0020C3E5 		strb	r2, [r3, #0]
 367 0284 0020A083 		movhi	r2, #0
 368 0288 0020C385 		strhib	r2, [r3, #0]
 369 028c E43A9FE5 		ldr	r3, .L282+36
 370 0290 0020D3E5 		ldrb	r2, [r3, #0]	@ zero_extendqisi2
 371 0294 012082E2 		add	r2, r2, #1
 372 0298 FF2002E2 		and	r2, r2, #255
 373 029c 950052E3 		cmp	r2, #149
 374 02a0 0020C3E5 		strb	r2, [r3, #0]
 375 02a4 0020A083 		movhi	r2, #0
 376 02a8 0020C385 		strhib	r2, [r3, #0]
 377 02ac C83A9FE5 		ldr	r3, .L282+40
 378 02b0 B020D3E1 		ldrh	r2, [r3, #0]
 379 02b4 012082E2 		add	r2, r2, #1
 380 02b8 0228A0E1 		mov	r2, r2, asl #16
 381 02bc 2228A0E1 		mov	r2, r2, lsr #16
 382 02c0 4B0F52E3 		cmp	r2, #300
 383 02c4 B020C3E1 		strh	r2, [r3, #0]	@ movhi
 384 02c8 0020A023 		movcs	r2, #0
 385 02cc B020C321 		strcsh	r2, [r3, #0]	@ movhi
 386 02d0 A83A9FE5 		ldr	r3, .L282+44
 387 02d4 B020D3E1 		ldrh	r2, [r3, #0]
 388 02d8 012082E2 		add	r2, r2, #1
 389 02dc 0228A0E1 		mov	r2, r2, asl #16
 390 02e0 9C1A9FE5 		ldr	r1, .L282+48
 391 02e4 2228A0E1 		mov	r2, r2, lsr #16
 392 02e8 010052E1 		cmp	r2, r1
 393 02ec B020C3E1 		strh	r2, [r3, #0]	@ movhi
 394 02f0 0020A083 		movhi	r2, #0
 395 02f4 B020C381 		strhih	r2, [r3, #0]	@ movhi
 396 02f8 883A9FE5 		ldr	r3, .L282+52
 397 02fc B020D3E1 		ldrh	r2, [r3, #0]
 398 0300 012082E2 		add	r2, r2, #1
 399 0304 0228A0E1 		mov	r2, r2, asl #16
 400 0308 2228A0E1 		mov	r2, r2, lsr #16
 401 030c 870F52E3 		cmp	r2, #540
 402 0310 B020C3E1 		strh	r2, [r3, #0]	@ movhi
 403 0314 0020A023 		movcs	r2, #0
 404 0318 B020C321 		strcsh	r2, [r3, #0]	@ movhi
 405 031c 3C3A9FE5 		ldr	r3, .L282+12
 406 0320 0050D3E5 		ldrb	r5, [r3, #0]	@ zero_extendqisi2
 407 0324 000055E3 		cmp	r5, #0
 408 0328 9001001A 		bne	.L39
 409 032c 584A9FE5 		ldr	r4, .L282+56
 410 0330 403094E5 		ldr	r3, [r4, #64]
 411 0334 480094E5 		ldr	r0, [r4, #72]
 412 0338 003063E2 		rsb	r3, r3, #0
 413 033c BC31CDE1 		strh	r3, [sp, #28]	@ movhi
 414 0340 FEFFFFEB 		bl	__aeabi_i2d
 415 0344 442A9FE5 		ldr	r2, .L282+60
 416 0348 443A9FE5 		ldr	r3, .L282+64
 417 034c FEFFFFEB 		bl	__aeabi_dmul
 418 0350 0020A0E3 		mov	r2, #0
 419 0354 3C3A9FE5 		ldr	r3, .L282+68
 420 0358 FEFFFFEB 		bl	__aeabi_ddiv
 421 035c FEFFFFEB 		bl	__aeabi_d2iz
 422 0360 2610A0E3 		mov	r1, #38
 423 0364 BE01CDE1 		strh	r0, [sp, #30]	@ movhi
 424 0368 D80A9FE5 		ldr	r0, .L282+244
 425 036c FEFFFFEB 		bl	uart_check_free_space
 426 0370 000050E3 		cmp	r0, #0
 427 0374 DB00000A 		beq	.L40
 428 0378 BC3A9FE5 		ldr	r3, .L282+232
 429 037c B020D3E1 		ldrh	r2, [r3, #0]
 430 0380 262082E2 		add	r2, r2, #38
 431 0384 B020C3E1 		strh	r2, [r3, #0]	@ movhi
 432 0388 B03A9FE5 		ldr	r3, .L282+236
 433 038c B020D3E1 		ldrh	r2, [r3, #0]
 434 0390 012082E2 		add	r2, r2, #1
 435 0394 B020C3E1 		strh	r2, [r3, #0]	@ movhi
 436 0398 A80A9FE5 		ldr	r0, .L282+244
 437 039c 7E10A0E3 		mov	r1, #126
 438 03a0 9C6A9FE5 		ldr	r6, .L282+240
 439 03a4 FEFFFFEB 		bl	uart_transmit
 440 03a8 0510A0E1 		mov	r1, r5
 441 03ac 940A9FE5 		ldr	r0, .L282+244
 442 03b0 FEFFFFEB 		bl	uart_transmit
 443 03b4 0170A0E3 		mov	r7, #1
 444 03b8 880A9FE5 		ldr	r0, .L282+244
 445 03bc 2210A0E3 		mov	r1, #34
 446 03c0 FEFFFFEB 		bl	uart_transmit
 447 03c4 0710A0E1 		mov	r1, r7
 448 03c8 0070C6E5 		strb	r7, [r6, #0]
 449 03cc 740A9FE5 		ldr	r0, .L282+244
 450 03d0 FEFFFFEB 		bl	uart_transmit
 451 03d4 0510A0E1 		mov	r1, r5
 452 03d8 680A9FE5 		ldr	r0, .L282+244
 453 03dc FEFFFFEB 		bl	uart_transmit
 454 03e0 0030D6E5 		ldrb	r3, [r6, #0]	@ zero_extendqisi2
 455 03e4 073083E0 		add	r3, r3, r7
 456 03e8 0030C6E5 		strb	r3, [r6, #0]
 457 03ec 0710A0E1 		mov	r1, r7
 458 03f0 500A9FE5 		ldr	r0, .L282+244
 459 03f4 FEFFFFEB 		bl	uart_transmit
 460 03f8 0510A0E1 		mov	r1, r5
 461 03fc 440A9FE5 		ldr	r0, .L282+244
 462 0400 FEFFFFEB 		bl	uart_transmit
 463 0404 0510A0E1 		mov	r1, r5
 464 0408 380A9FE5 		ldr	r0, .L282+244
 465 040c FEFFFFEB 		bl	uart_transmit
 466 0410 0030D6E5 		ldrb	r3, [r6, #0]	@ zero_extendqisi2
 467 0414 023083E2 		add	r3, r3, #2
 468 0418 0030C6E5 		strb	r3, [r6, #0]
 469 041c 240A9FE5 		ldr	r0, .L282+244
 470 0420 0210A0E3 		mov	r1, #2
 471 0424 FEFFFFEB 		bl	uart_transmit
 472 0428 0030D6E5 		ldrb	r3, [r6, #0]	@ zero_extendqisi2
 473 042c 083083E2 		add	r3, r3, #8
 474 0430 0030C6E5 		strb	r3, [r6, #0]
 475 0434 0C0A9FE5 		ldr	r0, .L282+244
 476 0438 0810A0E3 		mov	r1, #8
 477 043c FEFFFFEB 		bl	uart_transmit
 478 0440 5B10D4E5 		ldrb	r1, [r4, #91]	@ zero_extendqisi2
 479 0444 0030D6E5 		ldrb	r3, [r6, #0]	@ zero_extendqisi2
 480 0448 033081E0 		add	r3, r1, r3
 481 044c 0030C6E5 		strb	r3, [r6, #0]
 482 0450 F0099FE5 		ldr	r0, .L282+244
 483 0454 FEFFFFEB 		bl	uart_transmit
 484 0458 1C10D4E5 		ldrb	r1, [r4, #28]	@ zero_extendqisi2
 485 045c 0030D6E5 		ldrb	r3, [r6, #0]	@ zero_extendqisi2
 486 0460 033081E0 		add	r3, r1, r3
 487 0464 0030C6E5 		strb	r3, [r6, #0]
 488 0468 D8099FE5 		ldr	r0, .L282+244
 489 046c FEFFFFEB 		bl	uart_transmit
 490 0470 1D10D4E5 		ldrb	r1, [r4, #29]	@ zero_extendqisi2
 491 0474 0030D6E5 		ldrb	r3, [r6, #0]	@ zero_extendqisi2
 492 0478 033081E0 		add	r3, r1, r3
 493 047c 0030C6E5 		strb	r3, [r6, #0]
 494 0480 C0099FE5 		ldr	r0, .L282+244
 495 0484 FEFFFFEB 		bl	uart_transmit
 496 0488 1E10D4E5 		ldrb	r1, [r4, #30]	@ zero_extendqisi2
 497 048c 0030D6E5 		ldrb	r3, [r6, #0]	@ zero_extendqisi2
 498 0490 033081E0 		add	r3, r1, r3
 499 0494 0030C6E5 		strb	r3, [r6, #0]
 500 0498 A8099FE5 		ldr	r0, .L282+244
 501 049c FEFFFFEB 		bl	uart_transmit
 502 04a0 1F10D4E5 		ldrb	r1, [r4, #31]	@ zero_extendqisi2
 503 04a4 0030D6E5 		ldrb	r3, [r6, #0]	@ zero_extendqisi2
 504 04a8 033081E0 		add	r3, r1, r3
 505 04ac 0030C6E5 		strb	r3, [r6, #0]
 506 04b0 90099FE5 		ldr	r0, .L282+244
 507 04b4 FEFFFFEB 		bl	uart_transmit
 508 04b8 1810D4E5 		ldrb	r1, [r4, #24]	@ zero_extendqisi2
 509 04bc 0030D6E5 		ldrb	r3, [r6, #0]	@ zero_extendqisi2
 510 04c0 033081E0 		add	r3, r1, r3
 511 04c4 0030C6E5 		strb	r3, [r6, #0]
 512 04c8 78099FE5 		ldr	r0, .L282+244
 513 04cc FEFFFFEB 		bl	uart_transmit
 514 04d0 1910D4E5 		ldrb	r1, [r4, #25]	@ zero_extendqisi2
 515 04d4 0030D6E5 		ldrb	r3, [r6, #0]	@ zero_extendqisi2
 516 04d8 033081E0 		add	r3, r1, r3
 517 04dc 0030C6E5 		strb	r3, [r6, #0]
 518 04e0 60099FE5 		ldr	r0, .L282+244
 519 04e4 FEFFFFEB 		bl	uart_transmit
 520 04e8 1A10D4E5 		ldrb	r1, [r4, #26]	@ zero_extendqisi2
 521 04ec 0030D6E5 		ldrb	r3, [r6, #0]	@ zero_extendqisi2
 522 04f0 033081E0 		add	r3, r1, r3
 523 04f4 0030C6E5 		strb	r3, [r6, #0]
 524 04f8 48099FE5 		ldr	r0, .L282+244
 525 04fc FEFFFFEB 		bl	uart_transmit
 526 0500 1B10D4E5 		ldrb	r1, [r4, #27]	@ zero_extendqisi2
 527 0504 0030D6E5 		ldrb	r3, [r6, #0]	@ zero_extendqisi2
 528 0508 033081E0 		add	r3, r1, r3
 529 050c 0030C6E5 		strb	r3, [r6, #0]
 530 0510 30099FE5 		ldr	r0, .L282+244
 531 0514 FEFFFFEB 		bl	uart_transmit
 532 0518 1E10DDE5 		ldrb	r1, [sp, #30]	@ zero_extendqisi2
 533 051c 0030D6E5 		ldrb	r3, [r6, #0]	@ zero_extendqisi2
 534 0520 033081E0 		add	r3, r1, r3
 535 0524 0030C6E5 		strb	r3, [r6, #0]
 536 0528 18099FE5 		ldr	r0, .L282+244
 537 052c FEFFFFEB 		bl	uart_transmit
 538 0530 1F10DDE5 		ldrb	r1, [sp, #31]	@ zero_extendqisi2
 539 0534 0030D6E5 		ldrb	r3, [r6, #0]	@ zero_extendqisi2
 540 0538 033081E0 		add	r3, r1, r3
 541 053c 0030C6E5 		strb	r3, [r6, #0]
 542 0540 00099FE5 		ldr	r0, .L282+244
 543 0544 FEFFFFEB 		bl	uart_transmit
 544 0548 2810D4E5 		ldrb	r1, [r4, #40]	@ zero_extendqisi2
 545 054c 0030D6E5 		ldrb	r3, [r6, #0]	@ zero_extendqisi2
 546 0550 033081E0 		add	r3, r1, r3
 547 0554 0030C6E5 		strb	r3, [r6, #0]
 548 0558 E8089FE5 		ldr	r0, .L282+244
 549 055c FEFFFFEB 		bl	uart_transmit
 550 0560 2910D4E5 		ldrb	r1, [r4, #41]	@ zero_extendqisi2
 551 0564 0030D6E5 		ldrb	r3, [r6, #0]	@ zero_extendqisi2
 552 0568 033081E0 		add	r3, r1, r3
 553 056c 0030C6E5 		strb	r3, [r6, #0]
 554 0570 D0089FE5 		ldr	r0, .L282+244
 555 0574 FEFFFFEB 		bl	uart_transmit
 556 0578 2A10D4E5 		ldrb	r1, [r4, #42]	@ zero_extendqisi2
 557 057c 0030D6E5 		ldrb	r3, [r6, #0]	@ zero_extendqisi2
 558 0580 033081E0 		add	r3, r1, r3
 559 0584 0030C6E5 		strb	r3, [r6, #0]
 560 0588 B8089FE5 		ldr	r0, .L282+244
 561 058c FEFFFFEB 		bl	uart_transmit
 562 0590 2B10D4E5 		ldrb	r1, [r4, #43]	@ zero_extendqisi2
 563 0594 0030D6E5 		ldrb	r3, [r6, #0]	@ zero_extendqisi2
 564 0598 033081E0 		add	r3, r1, r3
 565 059c 0030C6E5 		strb	r3, [r6, #0]
 566 05a0 A0089FE5 		ldr	r0, .L282+244
 567 05a4 FEFFFFEB 		bl	uart_transmit
 568 05a8 4410D4E5 		ldrb	r1, [r4, #68]	@ zero_extendqisi2
 569 05ac 0030D6E5 		ldrb	r3, [r6, #0]	@ zero_extendqisi2
 570 05b0 033081E0 		add	r3, r1, r3
 571 05b4 0030C6E5 		strb	r3, [r6, #0]
 572 05b8 88089FE5 		ldr	r0, .L282+244
 573 05bc FEFFFFEB 		bl	uart_transmit
 574 05c0 4510D4E5 		ldrb	r1, [r4, #69]	@ zero_extendqisi2
 575 05c4 0030D6E5 		ldrb	r3, [r6, #0]	@ zero_extendqisi2
 576 05c8 033081E0 		add	r3, r1, r3
 577 05cc 0030C6E5 		strb	r3, [r6, #0]
 578 05d0 70089FE5 		ldr	r0, .L282+244
 579 05d4 FEFFFFEB 		bl	uart_transmit
 580 05d8 1C10DDE5 		ldrb	r1, [sp, #28]	@ zero_extendqisi2
 581 05dc 0030D6E5 		ldrb	r3, [r6, #0]	@ zero_extendqisi2
 582 05e0 033081E0 		add	r3, r1, r3
 583 05e4 0030C6E5 		strb	r3, [r6, #0]
 584 05e8 58089FE5 		ldr	r0, .L282+244
 585 05ec FEFFFFEB 		bl	uart_transmit
 586 05f0 1D10DDE5 		ldrb	r1, [sp, #29]	@ zero_extendqisi2
 587 05f4 0030D6E5 		ldrb	r3, [r6, #0]	@ zero_extendqisi2
 588 05f8 033081E0 		add	r3, r1, r3
 589 05fc 0030C6E5 		strb	r3, [r6, #0]
 590 0600 40089FE5 		ldr	r0, .L282+244
 591 0604 FEFFFFEB 		bl	uart_transmit
 592 0608 5C10D4E5 		ldrb	r1, [r4, #92]	@ zero_extendqisi2
 593 060c 0030D6E5 		ldrb	r3, [r6, #0]	@ zero_extendqisi2
 594 0610 033081E0 		add	r3, r1, r3
 595 0614 0030C6E5 		strb	r3, [r6, #0]
 596 0618 28089FE5 		ldr	r0, .L282+244
 597 061c FEFFFFEB 		bl	uart_transmit
 598 0620 5D10D4E5 		ldrb	r1, [r4, #93]	@ zero_extendqisi2
 599 0624 0030D6E5 		ldrb	r3, [r6, #0]	@ zero_extendqisi2
 600 0628 033081E0 		add	r3, r1, r3
 601 062c 0030C6E5 		strb	r3, [r6, #0]
 602 0630 10089FE5 		ldr	r0, .L282+244
 603 0634 FEFFFFEB 		bl	uart_transmit
 604 0638 6010D4E5 		ldrb	r1, [r4, #96]	@ zero_extendqisi2
 605 063c 0030D6E5 		ldrb	r3, [r6, #0]	@ zero_extendqisi2
 606 0640 033081E0 		add	r3, r1, r3
 607 0644 0030C6E5 		strb	r3, [r6, #0]
 608 0648 F8079FE5 		ldr	r0, .L282+244
 609 064c FEFFFFEB 		bl	uart_transmit
 610 0650 6110D4E5 		ldrb	r1, [r4, #97]	@ zero_extendqisi2
 611 0654 0030D6E5 		ldrb	r3, [r6, #0]	@ zero_extendqisi2
 612 0658 033081E0 		add	r3, r1, r3
 613 065c 0030C6E5 		strb	r3, [r6, #0]
 614 0660 E0079FE5 		ldr	r0, .L282+244
 615 0664 FEFFFFEB 		bl	uart_transmit
 616 0668 6210D4E5 		ldrb	r1, [r4, #98]	@ zero_extendqisi2
 617 066c 0030D6E5 		ldrb	r3, [r6, #0]	@ zero_extendqisi2
 618 0670 033081E0 		add	r3, r1, r3
 619 0674 0030C6E5 		strb	r3, [r6, #0]
 620 0678 C8079FE5 		ldr	r0, .L282+244
 621 067c FEFFFFEB 		bl	uart_transmit
 622 0680 6310D4E5 		ldrb	r1, [r4, #99]	@ zero_extendqisi2
 623 0684 0030D6E5 		ldrb	r3, [r6, #0]	@ zero_extendqisi2
 624 0688 033081E0 		add	r3, r1, r3
 625 068c 0030C6E5 		strb	r3, [r6, #0]
 626 0690 B0079FE5 		ldr	r0, .L282+244
 627 0694 FEFFFFEB 		bl	uart_transmit
 628 0698 2410D4E5 		ldrb	r1, [r4, #36]	@ zero_extendqisi2
 629 069c 0030D6E5 		ldrb	r3, [r6, #0]	@ zero_extendqisi2
 630 06a0 033081E0 		add	r3, r1, r3
 631 06a4 0030C6E5 		strb	r3, [r6, #0]
 632 06a8 98079FE5 		ldr	r0, .L282+244
 633 06ac FEFFFFEB 		bl	uart_transmit
 634 06b0 E4369FE5 		ldr	r3, .L282+72
 635 06b4 0010D3E5 		ldrb	r1, [r3, #0]	@ zero_extendqisi2
 636 06b8 0030D6E5 		ldrb	r3, [r6, #0]	@ zero_extendqisi2
 637 06bc 033081E0 		add	r3, r1, r3
 638 06c0 0030C6E5 		strb	r3, [r6, #0]
 639 06c4 7C079FE5 		ldr	r0, .L282+244
 640 06c8 FEFFFFEB 		bl	uart_transmit
 641 06cc 0010D6E5 		ldrb	r1, [r6, #0]	@ zero_extendqisi2
 642 06d0 0110E0E1 		mvn	r1, r1
 643 06d4 FF1001E2 		and	r1, r1, #255
 644 06d8 0010C6E5 		strb	r1, [r6, #0]
 645 06dc 64079FE5 		ldr	r0, .L282+244
 646 06e0 FEFFFFEB 		bl	uart_transmit
 647 06e4 030000EA 		b	.L41
 648              	.L40:
 649 06e8 20379FE5 		ldr	r3, .L282+188
 650 06ec 0020D3E5 		ldrb	r2, [r3, #0]	@ zero_extendqisi2
 651 06f0 012082E2 		add	r2, r2, #1
 652 06f4 0020C3E5 		strb	r2, [r3, #0]
 653              	.L41:
 654 06f8 8C269FE5 		ldr	r2, .L282+56
 655 06fc 5B30D2E5 		ldrb	r3, [r2, #91]	@ zero_extendqisi2
 656 0700 030053E3 		cmp	r3, #3
 657 0704 90369FE5 		ldr	r3, .L282+72
 658 0708 0400000A 		beq	.L42
 659 070c 6410D2E5 		ldrb	r1, [r2, #100]	@ zero_extendqisi2
 660 0710 0000D3E5 		ldrb	r0, [r3, #0]	@ zero_extendqisi2
 661 0714 010050E1 		cmp	r0, r1
 662 0718 0010A023 		movcs	r1, #0
 663 071c 0010C325 		strcsb	r1, [r3, #0]
 664              	.L42:
 665 0720 0030D3E5 		ldrb	r3, [r3, #0]	@ zero_extendqisi2
 666 0724 6420D2E5 		ldrb	r2, [r2, #100]	@ zero_extendqisi2
 667 0728 820053E1 		cmp	r3, r2, asl #1
 668 072c 68369FA5 		ldrge	r3, .L282+72
 669 0730 0010A0A3 		movge	r1, #0
 670 0734 0010C3A5 		strgeb	r1, [r3, #0]
 671 0738 5C569FE5 		ldr	r5, .L282+72
 672 073c 0030D5E5 		ldrb	r3, [r5, #0]	@ zero_extendqisi2
 673 0740 020053E1 		cmp	r3, r2
 674 0744 8500002A 		bcs	.L44
 675 0748 3C669FE5 		ldr	r6, .L282+56
 676 074c 833186E0 		add	r3, r6, r3, asl #3
 677 0750 6930D3E5 		ldrb	r3, [r3, #105]	@ zero_extendqisi2
 678 0754 000053E3 		cmp	r3, #0
 679 0758 8000000A 		beq	.L44
 680 075c E4069FE5 		ldr	r0, .L282+244
 681 0760 1310A0E3 		mov	r1, #19
 682 0764 FEFFFFEB 		bl	uart_check_free_space
 683 0768 000050E3 		cmp	r0, #0
 684 076c 7700000A 		beq	.L45
 685 0770 C4369FE5 		ldr	r3, .L282+232
 686 0774 B020D3E1 		ldrh	r2, [r3, #0]
 687 0778 132082E2 		add	r2, r2, #19
 688 077c B020C3E1 		strh	r2, [r3, #0]	@ movhi
 689 0780 B8369FE5 		ldr	r3, .L282+236
 690 0784 B020D3E1 		ldrh	r2, [r3, #0]
 691 0788 012082E2 		add	r2, r2, #1
 692 078c B020C3E1 		strh	r2, [r3, #0]	@ movhi
 693 0790 B0069FE5 		ldr	r0, .L282+244
 694 0794 7E10A0E3 		mov	r1, #126
 695 0798 A4469FE5 		ldr	r4, .L282+240
 696 079c FEFFFFEB 		bl	uart_transmit
 697 07a0 A0069FE5 		ldr	r0, .L282+244
 698 07a4 0010A0E3 		mov	r1, #0
 699 07a8 FEFFFFEB 		bl	uart_transmit
 700 07ac 0170A0E3 		mov	r7, #1
 701 07b0 90069FE5 		ldr	r0, .L282+244
 702 07b4 0F10A0E3 		mov	r1, #15
 703 07b8 FEFFFFEB 		bl	uart_transmit
 704 07bc 0710A0E1 		mov	r1, r7
 705 07c0 0070C4E5 		strb	r7, [r4, #0]
 706 07c4 7C069FE5 		ldr	r0, .L282+244
 707 07c8 FEFFFFEB 		bl	uart_transmit
 708 07cc 74069FE5 		ldr	r0, .L282+244
 709 07d0 0010A0E3 		mov	r1, #0
 710 07d4 FEFFFFEB 		bl	uart_transmit
 711 07d8 0030D4E5 		ldrb	r3, [r4, #0]	@ zero_extendqisi2
 712 07dc 073083E0 		add	r3, r3, r7
 713 07e0 0030C4E5 		strb	r3, [r4, #0]
 714 07e4 0710A0E1 		mov	r1, r7
 715 07e8 58069FE5 		ldr	r0, .L282+244
 716 07ec FEFFFFEB 		bl	uart_transmit
 717 07f0 50069FE5 		ldr	r0, .L282+244
 718 07f4 0010A0E3 		mov	r1, #0
 719 07f8 FEFFFFEB 		bl	uart_transmit
 720 07fc 44069FE5 		ldr	r0, .L282+244
 721 0800 0010A0E3 		mov	r1, #0
 722 0804 FEFFFFEB 		bl	uart_transmit
 723 0808 0030D4E5 		ldrb	r3, [r4, #0]	@ zero_extendqisi2
 724 080c 023083E2 		add	r3, r3, #2
 725 0810 0030C4E5 		strb	r3, [r4, #0]
 726 0814 2C069FE5 		ldr	r0, .L282+244
 727 0818 0210A0E3 		mov	r1, #2
 728 081c FEFFFFEB 		bl	uart_transmit
 729 0820 0030D4E5 		ldrb	r3, [r4, #0]	@ zero_extendqisi2
 730 0824 193083E2 		add	r3, r3, #25
 731 0828 0030C4E5 		strb	r3, [r4, #0]
 732 082c 14069FE5 		ldr	r0, .L282+244
 733 0830 1910A0E3 		mov	r1, #25
 734 0834 FEFFFFEB 		bl	uart_transmit
 735 0838 0010D5E5 		ldrb	r1, [r5, #0]	@ zero_extendqisi2
 736 083c 0030D4E5 		ldrb	r3, [r4, #0]	@ zero_extendqisi2
 737 0840 033081E0 		add	r3, r1, r3
 738 0844 0030C4E5 		strb	r3, [r4, #0]
 739 0848 F8059FE5 		ldr	r0, .L282+244
 740 084c FEFFFFEB 		bl	uart_transmit
 741 0850 0030D5E5 		ldrb	r3, [r5, #0]	@ zero_extendqisi2
 742 0854 833186E0 		add	r3, r6, r3, asl #3
 743 0858 6610D3E5 		ldrb	r1, [r3, #102]	@ zero_extendqisi2
 744 085c 0030D4E5 		ldrb	r3, [r4, #0]	@ zero_extendqisi2
 745 0860 033081E0 		add	r3, r1, r3
 746 0864 0030C4E5 		strb	r3, [r4, #0]
 747 0868 D8059FE5 		ldr	r0, .L282+244
 748 086c FEFFFFEB 		bl	uart_transmit
 749 0870 0030D5E5 		ldrb	r3, [r5, #0]	@ zero_extendqisi2
 750 0874 833186E0 		add	r3, r6, r3, asl #3
 751 0878 6710D3E5 		ldrb	r1, [r3, #103]	@ zero_extendqisi2
 752 087c 0030D4E5 		ldrb	r3, [r4, #0]	@ zero_extendqisi2
 753 0880 033081E0 		add	r3, r1, r3
 754 0884 0030C4E5 		strb	r3, [r4, #0]
 755 0888 B8059FE5 		ldr	r0, .L282+244
 756 088c FEFFFFEB 		bl	uart_transmit
 757 0890 0030D5E5 		ldrb	r3, [r5, #0]	@ zero_extendqisi2
 758 0894 833186E0 		add	r3, r6, r3, asl #3
 759 0898 6810D3E5 		ldrb	r1, [r3, #104]	@ zero_extendqisi2
 760 089c 0030D4E5 		ldrb	r3, [r4, #0]	@ zero_extendqisi2
 761 08a0 033081E0 		add	r3, r1, r3
 762 08a4 0030C4E5 		strb	r3, [r4, #0]
 763 08a8 98059FE5 		ldr	r0, .L282+244
 764 08ac FEFFFFEB 		bl	uart_transmit
 765 08b0 0030D5E5 		ldrb	r3, [r5, #0]	@ zero_extendqisi2
 766 08b4 833186E0 		add	r3, r6, r3, asl #3
 767 08b8 6910D3E5 		ldrb	r1, [r3, #105]	@ zero_extendqisi2
 768 08bc 0030D4E5 		ldrb	r3, [r4, #0]	@ zero_extendqisi2
 769 08c0 033081E0 		add	r3, r1, r3
 770 08c4 0030C4E5 		strb	r3, [r4, #0]
 771 08c8 78059FE5 		ldr	r0, .L282+244
 772 08cc FEFFFFEB 		bl	uart_transmit
 773 08d0 0030D5E5 		ldrb	r3, [r5, #0]	@ zero_extendqisi2
 774 08d4 833186E0 		add	r3, r6, r3, asl #3
 775 08d8 6A10D3E5 		ldrb	r1, [r3, #106]	@ zero_extendqisi2
 776 08dc 0030D4E5 		ldrb	r3, [r4, #0]	@ zero_extendqisi2
 777 08e0 033081E0 		add	r3, r1, r3
 778 08e4 0030C4E5 		strb	r3, [r4, #0]
 779 08e8 58059FE5 		ldr	r0, .L282+244
 780 08ec FEFFFFEB 		bl	uart_transmit
 781 08f0 0030D5E5 		ldrb	r3, [r5, #0]	@ zero_extendqisi2
 782 08f4 0C6086E2 		add	r6, r6, #12
 783 08f8 0C3083E2 		add	r3, r3, #12
 784 08fc 8311D6E7 		ldrb	r1, [r6, r3, asl #3]	@ zero_extendqisi2
 785 0900 0030D4E5 		ldrb	r3, [r4, #0]	@ zero_extendqisi2
 786 0904 033081E0 		add	r3, r1, r3
 787 0908 0030C4E5 		strb	r3, [r4, #0]
 788 090c 34059FE5 		ldr	r0, .L282+244
 789 0910 FEFFFFEB 		bl	uart_transmit
 790 0914 0030D5E5 		ldrb	r3, [r5, #0]	@ zero_extendqisi2
 791 0918 836186E0 		add	r6, r6, r3, asl #3
 792 091c 6110D6E5 		ldrb	r1, [r6, #97]	@ zero_extendqisi2
 793 0920 0030D4E5 		ldrb	r3, [r4, #0]	@ zero_extendqisi2
 794 0924 033081E0 		add	r3, r1, r3
 795 0928 0030C4E5 		strb	r3, [r4, #0]
 796 092c 14059FE5 		ldr	r0, .L282+244
 797 0930 FEFFFFEB 		bl	uart_transmit
 798 0934 0010D4E5 		ldrb	r1, [r4, #0]	@ zero_extendqisi2
 799 0938 0110E0E1 		mvn	r1, r1
 800 093c FF1001E2 		and	r1, r1, #255
 801 0940 0010C4E5 		strb	r1, [r4, #0]
 802 0944 FC049FE5 		ldr	r0, .L282+244
 803 0948 FEFFFFEB 		bl	uart_transmit
 804 094c 030000EA 		b	.L44
 805              	.L45:
 806 0950 B8349FE5 		ldr	r3, .L282+188
 807 0954 0020D3E5 		ldrb	r2, [r3, #0]	@ zero_extendqisi2
 808 0958 012082E2 		add	r2, r2, #1
 809 095c 0020C3E5 		strb	r2, [r3, #0]
 810              	.L44:
 811 0960 34349FE5 		ldr	r3, .L282+72
 812 0964 0020D3E5 		ldrb	r2, [r3, #0]	@ zero_extendqisi2
 813 0968 012082E2 		add	r2, r2, #1
 814 096c 0020C3E5 		strb	r2, [r3, #0]
 815              	.L39:
 816 0970 EC339FE5 		ldr	r3, .L282+16
 817 0974 0060D3E5 		ldrb	r6, [r3, #0]	@ zero_extendqisi2
 818 0978 060056E3 		cmp	r6, #6
 819 097c 7C00001A 		bne	.L46
 820 0980 FEFFFFEB 		bl	stateGetNedToBodyEulers_f
 821 0984 1710A0E3 		mov	r1, #23
 822 0988 0050A0E1 		mov	r5, r0
 823 098c B4049FE5 		ldr	r0, .L282+244
 824 0990 FEFFFFEB 		bl	uart_check_free_space
 825 0994 000050E3 		cmp	r0, #0
 826 0998 D901000A 		beq	.L52
 827 099c 98349FE5 		ldr	r3, .L282+232
 828 09a0 B020D3E1 		ldrh	r2, [r3, #0]
 829 09a4 172082E2 		add	r2, r2, #23
 830 09a8 B020C3E1 		strh	r2, [r3, #0]	@ movhi
 831 09ac 8C349FE5 		ldr	r3, .L282+236
 832 09b0 B020D3E1 		ldrh	r2, [r3, #0]
 833 09b4 012082E2 		add	r2, r2, #1
 834 09b8 B020C3E1 		strh	r2, [r3, #0]	@ movhi
 835 09bc 84049FE5 		ldr	r0, .L282+244
 836 09c0 7E10A0E3 		mov	r1, #126
 837 09c4 78449FE5 		ldr	r4, .L282+240
 838 09c8 FEFFFFEB 		bl	uart_transmit
 839 09cc 74049FE5 		ldr	r0, .L282+244
 840 09d0 0010A0E3 		mov	r1, #0
 841 09d4 FEFFFFEB 		bl	uart_transmit
 842 09d8 0170A0E3 		mov	r7, #1
 843 09dc 64049FE5 		ldr	r0, .L282+244
 844 09e0 1310A0E3 		mov	r1, #19
 845 09e4 FEFFFFEB 		bl	uart_transmit
 846 09e8 58049FE5 		ldr	r0, .L282+244
 847 09ec 0710A0E1 		mov	r1, r7
 848 09f0 0070C4E5 		strb	r7, [r4, #0]
 849 09f4 FEFFFFEB 		bl	uart_transmit
 850 09f8 48049FE5 		ldr	r0, .L282+244
 851 09fc 0010A0E3 		mov	r1, #0
 852 0a00 FEFFFFEB 		bl	uart_transmit
 853 0a04 0030D4E5 		ldrb	r3, [r4, #0]	@ zero_extendqisi2
 854 0a08 073083E0 		add	r3, r3, r7
 855 0a0c 0030C4E5 		strb	r3, [r4, #0]
 856 0a10 30049FE5 		ldr	r0, .L282+244
 857 0a14 0710A0E1 		mov	r1, r7
 858 0a18 FEFFFFEB 		bl	uart_transmit
 859 0a1c 24049FE5 		ldr	r0, .L282+244
 860 0a20 0010A0E3 		mov	r1, #0
 861 0a24 FEFFFFEB 		bl	uart_transmit
 862 0a28 18049FE5 		ldr	r0, .L282+244
 863 0a2c 0010A0E3 		mov	r1, #0
 864 0a30 FEFFFFEB 		bl	uart_transmit
 865 0a34 0030D4E5 		ldrb	r3, [r4, #0]	@ zero_extendqisi2
 866 0a38 023083E2 		add	r3, r3, #2
 867 0a3c 0030C4E5 		strb	r3, [r4, #0]
 868 0a40 00049FE5 		ldr	r0, .L282+244
 869 0a44 0210A0E3 		mov	r1, #2
 870 0a48 FEFFFFEB 		bl	uart_transmit
 871 0a4c 0030D4E5 		ldrb	r3, [r4, #0]	@ zero_extendqisi2
 872 0a50 063083E2 		add	r3, r3, #6
 873 0a54 0030C4E5 		strb	r3, [r4, #0]
 874 0a58 E8039FE5 		ldr	r0, .L282+244
 875 0a5c 0610A0E1 		mov	r1, r6
 876 0a60 FEFFFFEB 		bl	uart_transmit
 877 0a64 0010D5E5 		ldrb	r1, [r5, #0]	@ zero_extendqisi2
 878 0a68 0030D4E5 		ldrb	r3, [r4, #0]	@ zero_extendqisi2
 879 0a6c 033081E0 		add	r3, r1, r3
 880 0a70 0030C4E5 		strb	r3, [r4, #0]
 881 0a74 CC039FE5 		ldr	r0, .L282+244
 882 0a78 FEFFFFEB 		bl	uart_transmit
 883 0a7c 0110D5E5 		ldrb	r1, [r5, #1]	@ zero_extendqisi2
 884 0a80 0030D4E5 		ldrb	r3, [r4, #0]	@ zero_extendqisi2
 885 0a84 033081E0 		add	r3, r1, r3
 886 0a88 0030C4E5 		strb	r3, [r4, #0]
 887 0a8c B4039FE5 		ldr	r0, .L282+244
 888 0a90 FEFFFFEB 		bl	uart_transmit
 889 0a94 0210D5E5 		ldrb	r1, [r5, #2]	@ zero_extendqisi2
 890 0a98 0030D4E5 		ldrb	r3, [r4, #0]	@ zero_extendqisi2
 891 0a9c 033081E0 		add	r3, r1, r3
 892 0aa0 0030C4E5 		strb	r3, [r4, #0]
 893 0aa4 9C039FE5 		ldr	r0, .L282+244
 894 0aa8 FEFFFFEB 		bl	uart_transmit
 895 0aac 0310D5E5 		ldrb	r1, [r5, #3]	@ zero_extendqisi2
 896 0ab0 0030D4E5 		ldrb	r3, [r4, #0]	@ zero_extendqisi2
 897 0ab4 033081E0 		add	r3, r1, r3
 898 0ab8 0030C4E5 		strb	r3, [r4, #0]
 899 0abc 84039FE5 		ldr	r0, .L282+244
 900 0ac0 FEFFFFEB 		bl	uart_transmit
 901 0ac4 0810D5E5 		ldrb	r1, [r5, #8]	@ zero_extendqisi2
 902 0ac8 0030D4E5 		ldrb	r3, [r4, #0]	@ zero_extendqisi2
 903 0acc 033081E0 		add	r3, r1, r3
 904 0ad0 0030C4E5 		strb	r3, [r4, #0]
 905 0ad4 6C039FE5 		ldr	r0, .L282+244
 906 0ad8 FEFFFFEB 		bl	uart_transmit
 907 0adc 0910D5E5 		ldrb	r1, [r5, #9]	@ zero_extendqisi2
 908 0ae0 0030D4E5 		ldrb	r3, [r4, #0]	@ zero_extendqisi2
 909 0ae4 033081E0 		add	r3, r1, r3
 910 0ae8 0030C4E5 		strb	r3, [r4, #0]
 911 0aec 54039FE5 		ldr	r0, .L282+244
 912 0af0 FEFFFFEB 		bl	uart_transmit
 913 0af4 0A10D5E5 		ldrb	r1, [r5, #10]	@ zero_extendqisi2
 914 0af8 0030D4E5 		ldrb	r3, [r4, #0]	@ zero_extendqisi2
 915 0afc 033081E0 		add	r3, r1, r3
 916 0b00 0030C4E5 		strb	r3, [r4, #0]
 917 0b04 3C039FE5 		ldr	r0, .L282+244
 918 0b08 FEFFFFEB 		bl	uart_transmit
 919 0b0c 0B10D5E5 		ldrb	r1, [r5, #11]	@ zero_extendqisi2
 920 0b10 0030D4E5 		ldrb	r3, [r4, #0]	@ zero_extendqisi2
 921 0b14 033081E0 		add	r3, r1, r3
 922 0b18 0030C4E5 		strb	r3, [r4, #0]
 923 0b1c 24039FE5 		ldr	r0, .L282+244
 924 0b20 FEFFFFEB 		bl	uart_transmit
 925 0b24 0410D5E5 		ldrb	r1, [r5, #4]	@ zero_extendqisi2
 926 0b28 0030D4E5 		ldrb	r3, [r4, #0]	@ zero_extendqisi2
 927 0b2c 033081E0 		add	r3, r1, r3
 928 0b30 0030C4E5 		strb	r3, [r4, #0]
 929 0b34 0C039FE5 		ldr	r0, .L282+244
 930 0b38 FEFFFFEB 		bl	uart_transmit
 931 0b3c 0510D5E5 		ldrb	r1, [r5, #5]	@ zero_extendqisi2
 932 0b40 0030D4E5 		ldrb	r3, [r4, #0]	@ zero_extendqisi2
 933 0b44 033081E0 		add	r3, r1, r3
 934 0b48 0030C4E5 		strb	r3, [r4, #0]
 935 0b4c F4029FE5 		ldr	r0, .L282+244
 936 0b50 FEFFFFEB 		bl	uart_transmit
 937 0b54 0610D5E5 		ldrb	r1, [r5, #6]	@ zero_extendqisi2
 938 0b58 0030D4E5 		ldrb	r3, [r4, #0]	@ zero_extendqisi2
 939 0b5c 033081E0 		add	r3, r1, r3
 940 0b60 0030C4E5 		strb	r3, [r4, #0]
 941 0b64 DC029FE5 		ldr	r0, .L282+244
 942 0b68 FEFFFFEB 		bl	uart_transmit
 943 0b6c 0710D5E5 		ldrb	r1, [r5, #7]	@ zero_extendqisi2
 944 0b70 6B0000EA 		b	.L258
 945              	.L46:
 946 0b74 0C0056E3 		cmp	r6, #12
 947 0b78 B300001A 		bne	.L49
 948 0b7c C4029FE5 		ldr	r0, .L282+244
 949 0b80 1310A0E3 		mov	r1, #19
 950 0b84 FEFFFFEB 		bl	uart_check_free_space
 951 0b88 000050E3 		cmp	r0, #0
 952 0b8c 5C01000A 		beq	.L52
 953 0b90 A4329FE5 		ldr	r3, .L282+232
 954 0b94 B020D3E1 		ldrh	r2, [r3, #0]
 955 0b98 132082E2 		add	r2, r2, #19
 956 0b9c B020C3E1 		strh	r2, [r3, #0]	@ movhi
 957 0ba0 98329FE5 		ldr	r3, .L282+236
 958 0ba4 B020D3E1 		ldrh	r2, [r3, #0]
 959 0ba8 012082E2 		add	r2, r2, #1
 960 0bac B020C3E1 		strh	r2, [r3, #0]	@ movhi
 961 0bb0 90029FE5 		ldr	r0, .L282+244
 962 0bb4 7E10A0E3 		mov	r1, #126
 963 0bb8 84429FE5 		ldr	r4, .L282+240
 964 0bbc FEFFFFEB 		bl	uart_transmit
 965 0bc0 80029FE5 		ldr	r0, .L282+244
 966 0bc4 0010A0E3 		mov	r1, #0
 967 0bc8 FEFFFFEB 		bl	uart_transmit
 968 0bcc 0150A0E3 		mov	r5, #1
 969 0bd0 70029FE5 		ldr	r0, .L282+244
 970 0bd4 0F10A0E3 		mov	r1, #15
 971 0bd8 FEFFFFEB 		bl	uart_transmit
 972 0bdc 64029FE5 		ldr	r0, .L282+244
 973 0be0 0510A0E1 		mov	r1, r5
 974 0be4 0050C4E5 		strb	r5, [r4, #0]
 975 0be8 FEFFFFEB 		bl	uart_transmit
 976 0bec 54029FE5 		ldr	r0, .L282+244
 977 0bf0 0010A0E3 		mov	r1, #0
 978 0bf4 FEFFFFEB 		bl	uart_transmit
 979 0bf8 0030D4E5 		ldrb	r3, [r4, #0]	@ zero_extendqisi2
 980 0bfc 053083E0 		add	r3, r3, r5
 981 0c00 0030C4E5 		strb	r3, [r4, #0]
 982 0c04 3C029FE5 		ldr	r0, .L282+244
 983 0c08 0510A0E1 		mov	r1, r5
 984 0c0c FEFFFFEB 		bl	uart_transmit
 985 0c10 30029FE5 		ldr	r0, .L282+244
 986 0c14 0010A0E3 		mov	r1, #0
 987 0c18 FEFFFFEB 		bl	uart_transmit
 988 0c1c 24029FE5 		ldr	r0, .L282+244
 989 0c20 0010A0E3 		mov	r1, #0
 990 0c24 FEFFFFEB 		bl	uart_transmit
 991 0c28 0030D4E5 		ldrb	r3, [r4, #0]	@ zero_extendqisi2
 992 0c2c 023083E2 		add	r3, r3, #2
 993 0c30 0030C4E5 		strb	r3, [r4, #0]
 994 0c34 0C029FE5 		ldr	r0, .L282+244
 995 0c38 0210A0E3 		mov	r1, #2
 996 0c3c FEFFFFEB 		bl	uart_transmit
 997 0c40 0030D4E5 		ldrb	r3, [r4, #0]	@ zero_extendqisi2
 998 0c44 2A3083E2 		add	r3, r3, #42
 999 0c48 0030C4E5 		strb	r3, [r4, #0]
 1000 0c4c 2A10A0E3 		mov	r1, #42
 1001 0c50 F0019FE5 		ldr	r0, .L282+244
 1002 0c54 FEFFFFEB 		bl	uart_transmit
 1003 0c58 FEFFFFEB 		bl	stateGetPositionUtm_f
 1004 0c5c 0030D4E5 		ldrb	r3, [r4, #0]	@ zero_extendqisi2
 1005 0c60 0810D0E5 		ldrb	r1, [r0, #8]	@ zero_extendqisi2
 1006 0c64 033081E0 		add	r3, r1, r3
 1007 0c68 0030C4E5 		strb	r3, [r4, #0]
 1008 0c6c D4019FE5 		ldr	r0, .L282+244
 1009 0c70 FEFFFFEB 		bl	uart_transmit
 1010 0c74 FEFFFFEB 		bl	stateGetPositionUtm_f
 1011 0c78 0030D4E5 		ldrb	r3, [r4, #0]	@ zero_extendqisi2
 1012 0c7c 0910D0E5 		ldrb	r1, [r0, #9]	@ zero_extendqisi2
 1013 0c80 033081E0 		add	r3, r1, r3
 1014 0c84 0030C4E5 		strb	r3, [r4, #0]
 1015 0c88 B8019FE5 		ldr	r0, .L282+244
 1016 0c8c FEFFFFEB 		bl	uart_transmit
 1017 0c90 FEFFFFEB 		bl	stateGetPositionUtm_f
 1018 0c94 0030D4E5 		ldrb	r3, [r4, #0]	@ zero_extendqisi2
 1019 0c98 0A10D0E5 		ldrb	r1, [r0, #10]	@ zero_extendqisi2
 1020 0c9c 033081E0 		add	r3, r1, r3
 1021 0ca0 0030C4E5 		strb	r3, [r4, #0]
 1022 0ca4 9C019FE5 		ldr	r0, .L282+244
 1023 0ca8 FEFFFFEB 		bl	uart_transmit
 1024 0cac FEFFFFEB 		bl	stateGetPositionUtm_f
 1025 0cb0 0030D4E5 		ldrb	r3, [r4, #0]	@ zero_extendqisi2
 1026 0cb4 0B10D0E5 		ldrb	r1, [r0, #11]	@ zero_extendqisi2
 1027 0cb8 033081E0 		add	r3, r1, r3
 1028 0cbc 0030C4E5 		strb	r3, [r4, #0]
 1029 0cc0 80019FE5 		ldr	r0, .L282+244
 1030 0cc4 FEFFFFEB 		bl	uart_transmit
 1031 0cc8 FEFFFFEB 		bl	stateGetSpeedEnu_f
 1032 0ccc 0030D4E5 		ldrb	r3, [r4, #0]	@ zero_extendqisi2
 1033 0cd0 0810D0E5 		ldrb	r1, [r0, #8]	@ zero_extendqisi2
 1034 0cd4 033081E0 		add	r3, r1, r3
 1035 0cd8 0030C4E5 		strb	r3, [r4, #0]
 1036 0cdc 64019FE5 		ldr	r0, .L282+244
 1037 0ce0 FEFFFFEB 		bl	uart_transmit
 1038 0ce4 FEFFFFEB 		bl	stateGetSpeedEnu_f
 1039 0ce8 0030D4E5 		ldrb	r3, [r4, #0]	@ zero_extendqisi2
 1040 0cec 0910D0E5 		ldrb	r1, [r0, #9]	@ zero_extendqisi2
 1041 0cf0 033081E0 		add	r3, r1, r3
 1042 0cf4 0030C4E5 		strb	r3, [r4, #0]
 1043 0cf8 48019FE5 		ldr	r0, .L282+244
 1044 0cfc FEFFFFEB 		bl	uart_transmit
 1045 0d00 FEFFFFEB 		bl	stateGetSpeedEnu_f
 1046 0d04 0030D4E5 		ldrb	r3, [r4, #0]	@ zero_extendqisi2
 1047 0d08 0A10D0E5 		ldrb	r1, [r0, #10]	@ zero_extendqisi2
 1048 0d0c 033081E0 		add	r3, r1, r3
 1049 0d10 0030C4E5 		strb	r3, [r4, #0]
 1050 0d14 2C019FE5 		ldr	r0, .L282+244
 1051 0d18 FEFFFFEB 		bl	uart_transmit
 1052 0d1c FEFFFFEB 		bl	stateGetSpeedEnu_f
 1053 0d20 0B10D0E5 		ldrb	r1, [r0, #11]	@ zero_extendqisi2
 1054              	.L258:
 1055 0d24 0030D4E5 		ldrb	r3, [r4, #0]	@ zero_extendqisi2
 1056 0d28 033081E0 		add	r3, r1, r3
 1057 0d2c 0030C4E5 		strb	r3, [r4, #0]
 1058 0d30 10019FE5 		ldr	r0, .L282+244
 1059 0d34 FEFFFFEB 		bl	uart_transmit
 1060 0d38 0010D4E5 		ldrb	r1, [r4, #0]	@ zero_extendqisi2
 1061 0d3c 0110E0E1 		mvn	r1, r1
 1062 0d40 FF1001E2 		and	r1, r1, #255
 1063 0d44 0010C4E5 		strb	r1, [r4, #0]
 1064 0d48 F8009FE5 		ldr	r0, .L282+244
 1065 0d4c FEFFFFEB 		bl	uart_transmit
 1066 0d50 EF0000EA 		b	.L48
 1067              	.L283:
 1068              		.align	2
 1069              	.L282:
 1070 0d54 00000000 		.word	.LANCHOR0
 1071 0d58 00000000 		.word	.LANCHOR1
 1072 0d5c 00000000 		.word	telemetry_mode_Ap
 1073 0d60 00000000 		.word	.LANCHOR2
 1074 0d64 00000000 		.word	.LANCHOR3
 1075 0d68 00000000 		.word	.LANCHOR7
 1076 0d6c 00000000 		.word	.LANCHOR8
 1077 0d70 00000000 		.word	.LANCHOR9
 1078 0d74 00000000 		.word	.LANCHOR10
 1079 0d78 00000000 		.word	.LANCHOR11
 1080 0d7c 00000000 		.word	.LANCHOR12
 1081 0d80 00000000 		.word	.LANCHOR13
 1082 0d84 31010000 		.word	305
 1083 0d88 00000000 		.word	.LANCHOR14
 1084 0d8c 00000000 		.word	gps
 1085 0d90 F8C1631A 		.word	442745336
 1086 0d94 DCA54C40 		.word	1078765020
 1087 0d98 80842E41 		.word	1093567616
 1088 0d9c 00000000 		.word	.LANCHOR15
 1089 0da0 00000000 		.word	nb_waypoint
 1090 0da4 00000000 		.word	nav_utm_east0
 1091 0da8 00000000 		.word	waypoints
 1092 0dac 00000000 		.word	nav_utm_north0
 1093 0db0 00000000 		.word	.LANCHOR16
 1094 0db4 00000000 		.word	nav_utm_zone0
 1095 0db8 00000000 		.word	.LANCHOR4
 1096 0dbc 00000000 		.word	nav_circle_radians
 1097 0dc0 182D4454 		.word	1413754136
 1098 0dc4 FB211940 		.word	1075388923
 1099 0dc8 00000000 		.word	nav_block
 1100 0dcc 00000000 		.word	nav_stage
 1101 0dd0 00000000 		.word	dist2_to_wp
 1102 0dd4 00000000 		.word	dist2_to_home
 1103 0dd8 00000000 		.word	nav_oval_count
 1104 0ddc 00000000 		.word	.LANCHOR5
 1105 0de0 00000000 		.word	nav_in_circle
 1106 0de4 00000000 		.word	nav_circle_x
 1107 0de8 00000000 		.word	nav_circle_y
 1108 0dec 00000000 		.word	nav_circle_radius
 1109 0df0 00005041 		.word	1095761920
 1110 0df4 00000000 		.word	h_ctl_roll_setpoint
 1111 0df8 00000000 		.word	h_ctl_pitch_loop_setpoint
 1112 0dfc 00000000 		.word	h_ctl_course_setpoint
 1113 0e00 00000000 		.word	desired_x
 1114 0e04 00000000 		.word	desired_y
 1115 0e08 00000000 		.word	v_ctl_altitude_setpoint
 1116 0e0c 00000000 		.word	v_ctl_climb_setpoint
 1117 0e10 00000000 		.word	downlink_nb_ovrn
 1118 0e14 00000000 		.word	.LANCHOR6
 1119 0e18 00000000 		.word	.LANCHOR17
 1120 0e1c 00000000 		.word	energy
 1121 0e20 00000000 		.word	v_ctl_throttle_slewed
 1122 0e24 00000000 		.word	vsupply
 1123 0e28 00000000 		.word	.LANCHOR18
 1124 0e2c 00000000 		.word	.LANCHOR19
 1125 0e30 00000000 		.word	block_time
 1126 0e34 00000000 		.word	stage_time
 1127 0e38 00000000 		.word	imu
 1128 0e3c 00000000 		.word	downlink_nb_bytes
 1129 0e40 00000000 		.word	downlink_nb_msgs
 1130 0e44 00000000 		.word	xbee_cs
 1131 0e48 00000000 		.word	uart0
 1132              	.L49:
 1133 0e4c 120056E3 		cmp	r6, #18
 1134 0e50 AF00001A 		bne	.L48
 1135 0e54 AC301FE5 		ldr	r3, .L282+92
 1136 0e58 C0101FE5 		ldr	r1, .L282+76
 1137 0e5c 0020D3E5 		ldrb	r2, [r3, #0]	@ zero_extendqisi2
 1138 0e60 0010D1E5 		ldrb	r1, [r1, #0]	@ zero_extendqisi2
 1139 0e64 012082E2 		add	r2, r2, #1
 1140 0e68 FF2002E2 		and	r2, r2, #255
 1141 0e6c 020051E1 		cmp	r1, r2
 1142 0e70 0020C3E5 		strb	r2, [r3, #0]
 1143 0e74 0020A093 		movls	r2, #0
 1144 0e78 0020C395 		strlsb	r2, [r3, #0]
 1145 0e7c 0040D3E5 		ldrb	r4, [r3, #0]	@ zero_extendqisi2
 1146 0e80 E4301FE5 		ldr	r3, .L282+80
 1147 0e84 0C60A0E3 		mov	r6, #12
 1148 0e88 000093E5 		ldr	r0, [r3, #0]
 1149 0e8c FEFFFFEB 		bl	__aeabi_i2f
 1150 0e90 960403E0 		mul	r3, r6, r4
 1151 0e94 F4501FE5 		ldr	r5, .L282+84
 1152 0e98 031095E7 		ldr	r1, [r5, r3]	@ float
 1153 0e9c 034085E0 		add	r4, r5, r3
 1154 0ea0 FEFFFFEB 		bl	__aeabi_fadd
 1155 0ea4 00311FE5 		ldr	r3, .L282+88
 1156 0ea8 10008DE5 		str	r0, [sp, #16]	@ float
 1157 0eac 000093E5 		ldr	r0, [r3, #0]
 1158 0eb0 FEFFFFEB 		bl	__aeabi_i2f
 1159 0eb4 041094E5 		ldr	r1, [r4, #4]	@ float
 1160 0eb8 FEFFFFEB 		bl	__aeabi_fadd
 1161 0ebc 1910A0E3 		mov	r1, #25
 1162 0ec0 14008DE5 		str	r0, [sp, #20]	@ float
 1163 0ec4 84001FE5 		ldr	r0, .L282+244
 1164 0ec8 FEFFFFEB 		bl	uart_check_free_space
 1165 0ecc 000050E3 		cmp	r0, #0
 1166 0ed0 28711FE5 		ldr	r7, .L282+92
 1167 0ed4 8A00000A 		beq	.L52
 1168 0ed8 A4301FE5 		ldr	r3, .L282+232
 1169 0edc B020D3E1 		ldrh	r2, [r3, #0]
 1170 0ee0 192082E2 		add	r2, r2, #25
 1171 0ee4 B020C3E1 		strh	r2, [r3, #0]	@ movhi
 1172 0ee8 B0301FE5 		ldr	r3, .L282+236
 1173 0eec B020D3E1 		ldrh	r2, [r3, #0]
 1174 0ef0 012082E2 		add	r2, r2, #1
 1175 0ef4 B020C3E1 		strh	r2, [r3, #0]	@ movhi
 1176 0ef8 B8001FE5 		ldr	r0, .L282+244
 1177 0efc 7E10A0E3 		mov	r1, #126
 1178 0f00 C4401FE5 		ldr	r4, .L282+240
 1179 0f04 FEFFFFEB 		bl	uart_transmit
 1180 0f08 C8001FE5 		ldr	r0, .L282+244
 1181 0f0c 0010A0E3 		mov	r1, #0
 1182 0f10 FEFFFFEB 		bl	uart_transmit
 1183 0f14 0180A0E3 		mov	r8, #1
 1184 0f18 D8001FE5 		ldr	r0, .L282+244
 1185 0f1c 1510A0E3 		mov	r1, #21
 1186 0f20 FEFFFFEB 		bl	uart_transmit
 1187 0f24 E4001FE5 		ldr	r0, .L282+244
 1188 0f28 0810A0E1 		mov	r1, r8
 1189 0f2c 0080C4E5 		strb	r8, [r4, #0]
 1190 0f30 FEFFFFEB 		bl	uart_transmit
 1191 0f34 F4001FE5 		ldr	r0, .L282+244
 1192 0f38 0010A0E3 		mov	r1, #0
 1193 0f3c FEFFFFEB 		bl	uart_transmit
 1194 0f40 0030D4E5 		ldrb	r3, [r4, #0]	@ zero_extendqisi2
 1195 0f44 083083E0 		add	r3, r3, r8
 1196 0f48 0030C4E5 		strb	r3, [r4, #0]
 1197 0f4c 0C011FE5 		ldr	r0, .L282+244
 1198 0f50 0810A0E1 		mov	r1, r8
 1199 0f54 FEFFFFEB 		bl	uart_transmit
 1200 0f58 18011FE5 		ldr	r0, .L282+244
 1201 0f5c 0010A0E3 		mov	r1, #0
 1202 0f60 FEFFFFEB 		bl	uart_transmit
 1203 0f64 24011FE5 		ldr	r0, .L282+244
 1204 0f68 0010A0E3 		mov	r1, #0
 1205 0f6c FEFFFFEB 		bl	uart_transmit
 1206 0f70 0030D4E5 		ldrb	r3, [r4, #0]	@ zero_extendqisi2
 1207 0f74 023083E2 		add	r3, r3, #2
 1208 0f78 0030C4E5 		strb	r3, [r4, #0]
 1209 0f7c 3C011FE5 		ldr	r0, .L282+244
 1210 0f80 0210A0E3 		mov	r1, #2
 1211 0f84 FEFFFFEB 		bl	uart_transmit
 1212 0f88 0030D4E5 		ldrb	r3, [r4, #0]	@ zero_extendqisi2
 1213 0f8c 233083E2 		add	r3, r3, #35
 1214 0f90 0030C4E5 		strb	r3, [r4, #0]
 1215 0f94 54011FE5 		ldr	r0, .L282+244
 1216 0f98 2310A0E3 		mov	r1, #35
 1217 0f9c FEFFFFEB 		bl	uart_transmit
 1218 0fa0 0010D7E5 		ldrb	r1, [r7, #0]	@ zero_extendqisi2
 1219 0fa4 0030D4E5 		ldrb	r3, [r4, #0]	@ zero_extendqisi2
 1220 0fa8 033081E0 		add	r3, r1, r3
 1221 0fac 0030C4E5 		strb	r3, [r4, #0]
 1222 0fb0 70011FE5 		ldr	r0, .L282+244
 1223 0fb4 FEFFFFEB 		bl	uart_transmit
 1224 0fb8 1010DDE5 		ldrb	r1, [sp, #16]	@ zero_extendqisi2
 1225 0fbc 0030D4E5 		ldrb	r3, [r4, #0]	@ zero_extendqisi2
 1226 0fc0 033081E0 		add	r3, r1, r3
 1227 0fc4 0030C4E5 		strb	r3, [r4, #0]
 1228 0fc8 88011FE5 		ldr	r0, .L282+244
 1229 0fcc FEFFFFEB 		bl	uart_transmit
 1230 0fd0 1110DDE5 		ldrb	r1, [sp, #17]	@ zero_extendqisi2
 1231 0fd4 0030D4E5 		ldrb	r3, [r4, #0]	@ zero_extendqisi2
 1232 0fd8 033081E0 		add	r3, r1, r3
 1233 0fdc 0030C4E5 		strb	r3, [r4, #0]
 1234 0fe0 A0011FE5 		ldr	r0, .L282+244
 1235 0fe4 FEFFFFEB 		bl	uart_transmit
 1236 0fe8 1210DDE5 		ldrb	r1, [sp, #18]	@ zero_extendqisi2
 1237 0fec 0030D4E5 		ldrb	r3, [r4, #0]	@ zero_extendqisi2
 1238 0ff0 033081E0 		add	r3, r1, r3
 1239 0ff4 0030C4E5 		strb	r3, [r4, #0]
 1240 0ff8 B8011FE5 		ldr	r0, .L282+244
 1241 0ffc FEFFFFEB 		bl	uart_transmit
 1242 1000 1310DDE5 		ldrb	r1, [sp, #19]	@ zero_extendqisi2
 1243 1004 0030D4E5 		ldrb	r3, [r4, #0]	@ zero_extendqisi2
 1244 1008 033081E0 		add	r3, r1, r3
 1245 100c 0030C4E5 		strb	r3, [r4, #0]
 1246 1010 D0011FE5 		ldr	r0, .L282+244
 1247 1014 FEFFFFEB 		bl	uart_transmit
 1248 1018 1410DDE5 		ldrb	r1, [sp, #20]	@ zero_extendqisi2
 1249 101c 0030D4E5 		ldrb	r3, [r4, #0]	@ zero_extendqisi2
 1250 1020 033081E0 		add	r3, r1, r3
 1251 1024 0030C4E5 		strb	r3, [r4, #0]
 1252 1028 E8011FE5 		ldr	r0, .L282+244
 1253 102c FEFFFFEB 		bl	uart_transmit
 1254 1030 1510DDE5 		ldrb	r1, [sp, #21]	@ zero_extendqisi2
 1255 1034 0030D4E5 		ldrb	r3, [r4, #0]	@ zero_extendqisi2
 1256 1038 033081E0 		add	r3, r1, r3
 1257 103c 0030C4E5 		strb	r3, [r4, #0]
 1258 1040 00021FE5 		ldr	r0, .L282+244
 1259 1044 FEFFFFEB 		bl	uart_transmit
 1260 1048 1610DDE5 		ldrb	r1, [sp, #22]	@ zero_extendqisi2
 1261 104c 0030D4E5 		ldrb	r3, [r4, #0]	@ zero_extendqisi2
 1262 1050 033081E0 		add	r3, r1, r3
 1263 1054 0030C4E5 		strb	r3, [r4, #0]
 1264 1058 18021FE5 		ldr	r0, .L282+244
 1265 105c FEFFFFEB 		bl	uart_transmit
 1266 1060 1710DDE5 		ldrb	r1, [sp, #23]	@ zero_extendqisi2
 1267 1064 0030D4E5 		ldrb	r3, [r4, #0]	@ zero_extendqisi2
 1268 1068 033081E0 		add	r3, r1, r3
 1269 106c 0030C4E5 		strb	r3, [r4, #0]
 1270 1070 30021FE5 		ldr	r0, .L282+244
 1271 1074 FEFFFFEB 		bl	uart_transmit
 1272 1078 0030D7E5 		ldrb	r3, [r7, #0]	@ zero_extendqisi2
 1273 107c 965323E0 		mla	r3, r6, r3, r5
 1274 1080 0810D3E5 		ldrb	r1, [r3, #8]	@ zero_extendqisi2
 1275 1084 0030D4E5 		ldrb	r3, [r4, #0]	@ zero_extendqisi2
 1276 1088 033081E0 		add	r3, r1, r3
 1277 108c 0030C4E5 		strb	r3, [r4, #0]
 1278 1090 50021FE5 		ldr	r0, .L282+244
 1279 1094 FEFFFFEB 		bl	uart_transmit
 1280 1098 0030D7E5 		ldrb	r3, [r7, #0]	@ zero_extendqisi2
 1281 109c 965323E0 		mla	r3, r6, r3, r5
 1282 10a0 0910D3E5 		ldrb	r1, [r3, #9]	@ zero_extendqisi2
 1283 10a4 0030D4E5 		ldrb	r3, [r4, #0]	@ zero_extendqisi2
 1284 10a8 033081E0 		add	r3, r1, r3
 1285 10ac 0030C4E5 		strb	r3, [r4, #0]
 1286 10b0 70021FE5 		ldr	r0, .L282+244
 1287 10b4 FEFFFFEB 		bl	uart_transmit
 1288 10b8 0030D7E5 		ldrb	r3, [r7, #0]	@ zero_extendqisi2
 1289 10bc 965323E0 		mla	r3, r6, r3, r5
 1290 10c0 0A10D3E5 		ldrb	r1, [r3, #10]	@ zero_extendqisi2
 1291 10c4 0030D4E5 		ldrb	r3, [r4, #0]	@ zero_extendqisi2
 1292 10c8 033081E0 		add	r3, r1, r3
 1293 10cc 0030C4E5 		strb	r3, [r4, #0]
 1294 10d0 90021FE5 		ldr	r0, .L282+244
 1295 10d4 FEFFFFEB 		bl	uart_transmit
 1296 10d8 0030D7E5 		ldrb	r3, [r7, #0]	@ zero_extendqisi2
 1297 10dc 965325E0 		mla	r5, r6, r3, r5
 1298 10e0 0030D4E5 		ldrb	r3, [r4, #0]	@ zero_extendqisi2
 1299 10e4 0B10D5E5 		ldrb	r1, [r5, #11]	@ zero_extendqisi2
 1300 10e8 033081E0 		add	r3, r1, r3
 1301 10ec 0030C4E5 		strb	r3, [r4, #0]
 1302 10f0 B0021FE5 		ldr	r0, .L282+244
 1303 10f4 FEFFFFEB 		bl	uart_transmit
 1304 10f8 4C331FE5 		ldr	r3, .L282+96
 1305 10fc 0010D3E5 		ldrb	r1, [r3, #0]	@ zero_extendqisi2
 1306 1100 07FFFFEA 		b	.L258
 1307              	.L52:
 1308 1104 FC321FE5 		ldr	r3, .L282+188
 1309 1108 0020D3E5 		ldrb	r2, [r3, #0]	@ zero_extendqisi2
 1310 110c 012082E2 		add	r2, r2, #1
 1311 1110 0020C3E5 		strb	r2, [r3, #0]
 1312              	.L48:
 1313 1114 64331FE5 		ldr	r3, .L282+100
 1314 1118 0030D3E5 		ldrb	r3, [r3, #0]	@ zero_extendqisi2
 1315 111c 180053E3 		cmp	r3, #24
 1316 1120 CB00000A 		beq	.L53
 1317 1124 1E0053E3 		cmp	r3, #30
 1318 1128 C900001A 		bne	.L53
 1319 112c 78331FE5 		ldr	r3, .L282+104
 1320 1130 005093E5 		ldr	r5, [r3, #0]	@ float
 1321 1134 FEFFFFEB 		bl	stateGetPositionEnu_f
 1322 1138 1F10A0E3 		mov	r1, #31
 1323 113c 0040A0E1 		mov	r4, r0
 1324 1140 00031FE5 		ldr	r0, .L282+244
 1325 1144 FEFFFFEB 		bl	uart_check_free_space
 1326 1148 000050E3 		cmp	r0, #0
 1327 114c BC00000A 		beq	.L54
 1328 1150 0201C5E3 		bic	r0, r5, #-2147483648
 1329 1154 FEFFFFEB 		bl	__aeabi_f2d
 1330 1158 A0231FE5 		ldr	r2, .L282+108
 1331 115c A0331FE5 		ldr	r3, .L282+112
 1332 1160 FEFFFFEB 		bl	__aeabi_ddiv
 1333 1164 FEFFFFEB 		bl	__aeabi_d2uiz
 1334 1168 34331FE5 		ldr	r3, .L282+232
 1335 116c B020D3E1 		ldrh	r2, [r3, #0]
 1336 1170 1F2082E2 		add	r2, r2, #31
 1337 1174 B020C3E1 		strh	r2, [r3, #0]	@ movhi
 1338 1178 40331FE5 		ldr	r3, .L282+236
 1339 117c B020D3E1 		ldrh	r2, [r3, #0]
 1340 1180 012082E2 		add	r2, r2, #1
 1341 1184 B020C3E1 		strh	r2, [r3, #0]	@ movhi
 1342 1188 FF7000E2 		and	r7, r0, #255
 1343 118c 7E10A0E3 		mov	r1, #126
 1344 1190 50031FE5 		ldr	r0, .L282+244
 1345 1194 58531FE5 		ldr	r5, .L282+240
 1346 1198 FEFFFFEB 		bl	uart_transmit
 1347 119c 5C031FE5 		ldr	r0, .L282+244
 1348 11a0 0010A0E3 		mov	r1, #0
 1349 11a4 FEFFFFEB 		bl	uart_transmit
 1350 11a8 0160A0E3 		mov	r6, #1
 1351 11ac 6C031FE5 		ldr	r0, .L282+244
 1352 11b0 1B10A0E3 		mov	r1, #27
 1353 11b4 FEFFFFEB 		bl	uart_transmit
 1354 11b8 0610A0E1 		mov	r1, r6
 1355 11bc 0060C5E5 		strb	r6, [r5, #0]
 1356 11c0 80031FE5 		ldr	r0, .L282+244
 1357 11c4 FEFFFFEB 		bl	uart_transmit
 1358 11c8 88031FE5 		ldr	r0, .L282+244
 1359 11cc 0010A0E3 		mov	r1, #0
 1360 11d0 FEFFFFEB 		bl	uart_transmit
 1361 11d4 0030D5E5 		ldrb	r3, [r5, #0]	@ zero_extendqisi2
 1362 11d8 063083E0 		add	r3, r3, r6
 1363 11dc 0030C5E5 		strb	r3, [r5, #0]
 1364 11e0 0610A0E1 		mov	r1, r6
 1365 11e4 A4031FE5 		ldr	r0, .L282+244
 1366 11e8 FEFFFFEB 		bl	uart_transmit
 1367 11ec AC031FE5 		ldr	r0, .L282+244
 1368 11f0 0010A0E3 		mov	r1, #0
 1369 11f4 FEFFFFEB 		bl	uart_transmit
 1370 11f8 B8031FE5 		ldr	r0, .L282+244
 1371 11fc 0010A0E3 		mov	r1, #0
 1372 1200 FEFFFFEB 		bl	uart_transmit
 1373 1204 0030D5E5 		ldrb	r3, [r5, #0]	@ zero_extendqisi2
 1374 1208 023083E2 		add	r3, r3, #2
 1375 120c 0030C5E5 		strb	r3, [r5, #0]
 1376 1210 D0031FE5 		ldr	r0, .L282+244
 1377 1214 0210A0E3 		mov	r1, #2
 1378 1218 FEFFFFEB 		bl	uart_transmit
 1379 121c 0030D5E5 		ldrb	r3, [r5, #0]	@ zero_extendqisi2
 1380 1220 0A3083E2 		add	r3, r3, #10
 1381 1224 0030C5E5 		strb	r3, [r5, #0]
 1382 1228 E8031FE5 		ldr	r0, .L282+244
 1383 122c 0A10A0E3 		mov	r1, #10
 1384 1230 FEFFFFEB 		bl	uart_transmit
 1385 1234 74341FE5 		ldr	r3, .L282+116
 1386 1238 0010D3E5 		ldrb	r1, [r3, #0]	@ zero_extendqisi2
 1387 123c 0030D5E5 		ldrb	r3, [r5, #0]	@ zero_extendqisi2
 1388 1240 033081E0 		add	r3, r1, r3
 1389 1244 0030C5E5 		strb	r3, [r5, #0]
 1390 1248 08041FE5 		ldr	r0, .L282+244
 1391 124c FEFFFFEB 		bl	uart_transmit
 1392 1250 8C341FE5 		ldr	r3, .L282+120
 1393 1254 0010D3E5 		ldrb	r1, [r3, #0]	@ zero_extendqisi2
 1394 1258 0030D5E5 		ldrb	r3, [r5, #0]	@ zero_extendqisi2
 1395 125c 033081E0 		add	r3, r1, r3
 1396 1260 0030C5E5 		strb	r3, [r5, #0]
 1397 1264 24041FE5 		ldr	r0, .L282+244
 1398 1268 FEFFFFEB 		bl	uart_transmit
 1399 126c 0010D4E5 		ldrb	r1, [r4, #0]	@ zero_extendqisi2
 1400 1270 0030D5E5 		ldrb	r3, [r5, #0]	@ zero_extendqisi2
 1401 1274 033081E0 		add	r3, r1, r3
 1402 1278 0030C5E5 		strb	r3, [r5, #0]
 1403 127c 3C041FE5 		ldr	r0, .L282+244
 1404 1280 FEFFFFEB 		bl	uart_transmit
 1405 1284 0110D4E5 		ldrb	r1, [r4, #1]	@ zero_extendqisi2
 1406 1288 0030D5E5 		ldrb	r3, [r5, #0]	@ zero_extendqisi2
 1407 128c 033081E0 		add	r3, r1, r3
 1408 1290 0030C5E5 		strb	r3, [r5, #0]
 1409 1294 54041FE5 		ldr	r0, .L282+244
 1410 1298 FEFFFFEB 		bl	uart_transmit
 1411 129c 0210D4E5 		ldrb	r1, [r4, #2]	@ zero_extendqisi2
 1412 12a0 0030D5E5 		ldrb	r3, [r5, #0]	@ zero_extendqisi2
 1413 12a4 033081E0 		add	r3, r1, r3
 1414 12a8 0030C5E5 		strb	r3, [r5, #0]
 1415 12ac 6C041FE5 		ldr	r0, .L282+244
 1416 12b0 FEFFFFEB 		bl	uart_transmit
 1417 12b4 0310D4E5 		ldrb	r1, [r4, #3]	@ zero_extendqisi2
 1418 12b8 0030D5E5 		ldrb	r3, [r5, #0]	@ zero_extendqisi2
 1419 12bc 033081E0 		add	r3, r1, r3
 1420 12c0 0030C5E5 		strb	r3, [r5, #0]
 1421 12c4 84041FE5 		ldr	r0, .L282+244
 1422 12c8 FEFFFFEB 		bl	uart_transmit
 1423 12cc 0410D4E5 		ldrb	r1, [r4, #4]	@ zero_extendqisi2
 1424 12d0 0030D5E5 		ldrb	r3, [r5, #0]	@ zero_extendqisi2
 1425 12d4 033081E0 		add	r3, r1, r3
 1426 12d8 0030C5E5 		strb	r3, [r5, #0]
 1427 12dc 9C041FE5 		ldr	r0, .L282+244
 1428 12e0 FEFFFFEB 		bl	uart_transmit
 1429 12e4 0510D4E5 		ldrb	r1, [r4, #5]	@ zero_extendqisi2
 1430 12e8 0030D5E5 		ldrb	r3, [r5, #0]	@ zero_extendqisi2
 1431 12ec 033081E0 		add	r3, r1, r3
 1432 12f0 0030C5E5 		strb	r3, [r5, #0]
 1433 12f4 B4041FE5 		ldr	r0, .L282+244
 1434 12f8 FEFFFFEB 		bl	uart_transmit
 1435 12fc 0610D4E5 		ldrb	r1, [r4, #6]	@ zero_extendqisi2
 1436 1300 0030D5E5 		ldrb	r3, [r5, #0]	@ zero_extendqisi2
 1437 1304 033081E0 		add	r3, r1, r3
 1438 1308 0030C5E5 		strb	r3, [r5, #0]
 1439 130c CC041FE5 		ldr	r0, .L282+244
 1440 1310 FEFFFFEB 		bl	uart_transmit
 1441 1314 0710D4E5 		ldrb	r1, [r4, #7]	@ zero_extendqisi2
 1442 1318 0030D5E5 		ldrb	r3, [r5, #0]	@ zero_extendqisi2
 1443 131c 54451FE5 		ldr	r4, .L282+124
 1444 1320 033081E0 		add	r3, r1, r3
 1445 1324 0030C5E5 		strb	r3, [r5, #0]
 1446 1328 E8041FE5 		ldr	r0, .L282+244
 1447 132c FEFFFFEB 		bl	uart_transmit
 1448 1330 0010D4E5 		ldrb	r1, [r4, #0]	@ zero_extendqisi2
 1449 1334 0030D5E5 		ldrb	r3, [r5, #0]	@ zero_extendqisi2
 1450 1338 033081E0 		add	r3, r1, r3
 1451 133c 0030C5E5 		strb	r3, [r5, #0]
 1452 1340 00051FE5 		ldr	r0, .L282+244
 1453 1344 FEFFFFEB 		bl	uart_transmit
 1454 1348 0110D4E5 		ldrb	r1, [r4, #1]	@ zero_extendqisi2
 1455 134c 0030D5E5 		ldrb	r3, [r5, #0]	@ zero_extendqisi2
 1456 1350 033081E0 		add	r3, r1, r3
 1457 1354 0030C5E5 		strb	r3, [r5, #0]
 1458 1358 18051FE5 		ldr	r0, .L282+244
 1459 135c FEFFFFEB 		bl	uart_transmit
 1460 1360 0210D4E5 		ldrb	r1, [r4, #2]	@ zero_extendqisi2
 1461 1364 0030D5E5 		ldrb	r3, [r5, #0]	@ zero_extendqisi2
 1462 1368 033081E0 		add	r3, r1, r3
 1463 136c 0030C5E5 		strb	r3, [r5, #0]
 1464 1370 30051FE5 		ldr	r0, .L282+244
 1465 1374 FEFFFFEB 		bl	uart_transmit
 1466 1378 0310D4E5 		ldrb	r1, [r4, #3]	@ zero_extendqisi2
 1467 137c 0030D5E5 		ldrb	r3, [r5, #0]	@ zero_extendqisi2
 1468 1380 B4451FE5 		ldr	r4, .L282+128
 1469 1384 033081E0 		add	r3, r1, r3
 1470 1388 0030C5E5 		strb	r3, [r5, #0]
 1471 138c 4C051FE5 		ldr	r0, .L282+244
 1472 1390 FEFFFFEB 		bl	uart_transmit
 1473 1394 0010D4E5 		ldrb	r1, [r4, #0]	@ zero_extendqisi2
 1474 1398 0030D5E5 		ldrb	r3, [r5, #0]	@ zero_extendqisi2
 1475 139c 033081E0 		add	r3, r1, r3
 1476 13a0 0030C5E5 		strb	r3, [r5, #0]
 1477 13a4 64051FE5 		ldr	r0, .L282+244
 1478 13a8 FEFFFFEB 		bl	uart_transmit
 1479 13ac 0110D4E5 		ldrb	r1, [r4, #1]	@ zero_extendqisi2
 1480 13b0 0030D5E5 		ldrb	r3, [r5, #0]	@ zero_extendqisi2
 1481 13b4 033081E0 		add	r3, r1, r3
 1482 13b8 0030C5E5 		strb	r3, [r5, #0]
 1483 13bc 7C051FE5 		ldr	r0, .L282+244
 1484 13c0 FEFFFFEB 		bl	uart_transmit
 1485 13c4 0210D4E5 		ldrb	r1, [r4, #2]	@ zero_extendqisi2
 1486 13c8 0030D5E5 		ldrb	r3, [r5, #0]	@ zero_extendqisi2
 1487 13cc 033081E0 		add	r3, r1, r3
 1488 13d0 0030C5E5 		strb	r3, [r5, #0]
 1489 13d4 94051FE5 		ldr	r0, .L282+244
 1490 13d8 FEFFFFEB 		bl	uart_transmit
 1491 13dc 0310D4E5 		ldrb	r1, [r4, #3]	@ zero_extendqisi2
 1492 13e0 0030D5E5 		ldrb	r3, [r5, #0]	@ zero_extendqisi2
 1493 13e4 033081E0 		add	r3, r1, r3
 1494 13e8 0030C5E5 		strb	r3, [r5, #0]
 1495 13ec AC051FE5 		ldr	r0, .L282+244
 1496 13f0 FEFFFFEB 		bl	uart_transmit
 1497 13f4 0030D5E5 		ldrb	r3, [r5, #0]	@ zero_extendqisi2
 1498 13f8 033087E0 		add	r3, r7, r3
 1499 13fc 0030C5E5 		strb	r3, [r5, #0]
 1500 1400 0710A0E1 		mov	r1, r7
 1501 1404 C4051FE5 		ldr	r0, .L282+244
 1502 1408 FEFFFFEB 		bl	uart_transmit
 1503 140c 3C361FE5 		ldr	r3, .L282+132
 1504 1410 0010D3E5 		ldrb	r1, [r3, #0]	@ zero_extendqisi2
 1505 1414 0030D5E5 		ldrb	r3, [r5, #0]	@ zero_extendqisi2
 1506 1418 033081E0 		add	r3, r1, r3
 1507 141c 0030C5E5 		strb	r3, [r5, #0]
 1508 1420 E0051FE5 		ldr	r0, .L282+244
 1509 1424 FEFFFFEB 		bl	uart_transmit
 1510 1428 0010D5E5 		ldrb	r1, [r5, #0]	@ zero_extendqisi2
 1511 142c 0110E0E1 		mvn	r1, r1
 1512 1430 FF1001E2 		and	r1, r1, #255
 1513 1434 0010C5E5 		strb	r1, [r5, #0]
 1514 1438 F8051FE5 		ldr	r0, .L282+244
 1515 143c FEFFFFEB 		bl	uart_transmit
 1516 1440 030000EA 		b	.L53
 1517              	.L54:
 1518 1444 3C361FE5 		ldr	r3, .L282+188
 1519 1448 0020D3E5 		ldrb	r2, [r3, #0]	@ zero_extendqisi2
 1520 144c 012082E2 		add	r2, r2, #1
 1521 1450 0020C3E5 		strb	r2, [r3, #0]
 1522              	.L53:
 1523 1454 80361FE5 		ldr	r3, .L282+136
 1524 1458 0030D3E5 		ldrb	r3, [r3, #0]	@ zero_extendqisi2
 1525 145c 300053E3 		cmp	r3, #48
 1526 1460 8100001A 		bne	.L55
 1527 1464 8C361FE5 		ldr	r3, .L282+140
 1528 1468 0030D3E5 		ldrb	r3, [r3, #0]	@ zero_extendqisi2
 1529 146c 000053E3 		cmp	r3, #0
 1530 1470 8A01000A 		beq	.L56
 1531 1474 34061FE5 		ldr	r0, .L282+244
 1532 1478 1710A0E3 		mov	r1, #23
 1533 147c FEFFFFEB 		bl	uart_check_free_space
 1534 1480 000050E3 		cmp	r0, #0
 1535 1484 8101000A 		beq	.L58
 1536 1488 54361FE5 		ldr	r3, .L282+232
 1537 148c B020D3E1 		ldrh	r2, [r3, #0]
 1538 1490 172082E2 		add	r2, r2, #23
 1539 1494 B020C3E1 		strh	r2, [r3, #0]	@ movhi
 1540 1498 60361FE5 		ldr	r3, .L282+236
 1541 149c B020D3E1 		ldrh	r2, [r3, #0]
 1542 14a0 012082E2 		add	r2, r2, #1
 1543 14a4 B020C3E1 		strh	r2, [r3, #0]	@ movhi
 1544 14a8 68061FE5 		ldr	r0, .L282+244
 1545 14ac 7E10A0E3 		mov	r1, #126
 1546 14b0 74461FE5 		ldr	r4, .L282+240
 1547 14b4 FEFFFFEB 		bl	uart_transmit
 1548 14b8 78061FE5 		ldr	r0, .L282+244
 1549 14bc 0010A0E3 		mov	r1, #0
 1550 14c0 0150A0E3 		mov	r5, #1
 1551 14c4 FEFFFFEB 		bl	uart_transmit
 1552 14c8 88061FE5 		ldr	r0, .L282+244
 1553 14cc 1310A0E3 		mov	r1, #19
 1554 14d0 FEFFFFEB 		bl	uart_transmit
 1555 14d4 0510A0E1 		mov	r1, r5
 1556 14d8 0050C4E5 		strb	r5, [r4, #0]
 1557 14dc 9C061FE5 		ldr	r0, .L282+244
 1558 14e0 FEFFFFEB 		bl	uart_transmit
 1559 14e4 A4061FE5 		ldr	r0, .L282+244
 1560 14e8 0010A0E3 		mov	r1, #0
 1561 14ec FEFFFFEB 		bl	uart_transmit
 1562 14f0 0030D4E5 		ldrb	r3, [r4, #0]	@ zero_extendqisi2
 1563 14f4 053083E0 		add	r3, r3, r5
 1564 14f8 0030C4E5 		strb	r3, [r4, #0]
 1565 14fc 0510A0E1 		mov	r1, r5
 1566 1500 C0061FE5 		ldr	r0, .L282+244
 1567 1504 FEFFFFEB 		bl	uart_transmit
 1568 1508 C8061FE5 		ldr	r0, .L282+244
 1569 150c 0010A0E3 		mov	r1, #0
 1570 1510 FEFFFFEB 		bl	uart_transmit
 1571 1514 D4061FE5 		ldr	r0, .L282+244
 1572 1518 0010A0E3 		mov	r1, #0
 1573 151c FEFFFFEB 		bl	uart_transmit
 1574 1520 0030D4E5 		ldrb	r3, [r4, #0]	@ zero_extendqisi2
 1575 1524 023083E2 		add	r3, r3, #2
 1576 1528 0030C4E5 		strb	r3, [r4, #0]
 1577 152c EC061FE5 		ldr	r0, .L282+244
 1578 1530 0210A0E3 		mov	r1, #2
 1579 1534 FEFFFFEB 		bl	uart_transmit
 1580 1538 0030D4E5 		ldrb	r3, [r4, #0]	@ zero_extendqisi2
 1581 153c 60571FE5 		ldr	r5, .L282+144
 1582 1540 153083E2 		add	r3, r3, #21
 1583 1544 0030C4E5 		strb	r3, [r4, #0]
 1584 1548 08071FE5 		ldr	r0, .L282+244
 1585 154c 1510A0E3 		mov	r1, #21
 1586 1550 FEFFFFEB 		bl	uart_transmit
 1587 1554 0010D5E5 		ldrb	r1, [r5, #0]	@ zero_extendqisi2
 1588 1558 0030D4E5 		ldrb	r3, [r4, #0]	@ zero_extendqisi2
 1589 155c 033081E0 		add	r3, r1, r3
 1590 1560 0030C4E5 		strb	r3, [r4, #0]
 1591 1564 24071FE5 		ldr	r0, .L282+244
 1592 1568 FEFFFFEB 		bl	uart_transmit
 1593 156c 0110D5E5 		ldrb	r1, [r5, #1]	@ zero_extendqisi2
 1594 1570 0030D4E5 		ldrb	r3, [r4, #0]	@ zero_extendqisi2
 1595 1574 033081E0 		add	r3, r1, r3
 1596 1578 0030C4E5 		strb	r3, [r4, #0]
 1597 157c 3C071FE5 		ldr	r0, .L282+244
 1598 1580 FEFFFFEB 		bl	uart_transmit
 1599 1584 0210D5E5 		ldrb	r1, [r5, #2]	@ zero_extendqisi2
 1600 1588 0030D4E5 		ldrb	r3, [r4, #0]	@ zero_extendqisi2
 1601 158c 033081E0 		add	r3, r1, r3
 1602 1590 0030C4E5 		strb	r3, [r4, #0]
 1603 1594 54071FE5 		ldr	r0, .L282+244
 1604 1598 FEFFFFEB 		bl	uart_transmit
 1605 159c 0310D5E5 		ldrb	r1, [r5, #3]	@ zero_extendqisi2
 1606 15a0 0030D4E5 		ldrb	r3, [r4, #0]	@ zero_extendqisi2
 1607 15a4 C4571FE5 		ldr	r5, .L282+148
 1608 15a8 033081E0 		add	r3, r1, r3
 1609 15ac 0030C4E5 		strb	r3, [r4, #0]
 1610 15b0 70071FE5 		ldr	r0, .L282+244
 1611 15b4 FEFFFFEB 		bl	uart_transmit
 1612 15b8 0010D5E5 		ldrb	r1, [r5, #0]	@ zero_extendqisi2
 1613 15bc 0030D4E5 		ldrb	r3, [r4, #0]	@ zero_extendqisi2
 1614 15c0 033081E0 		add	r3, r1, r3
 1615 15c4 0030C4E5 		strb	r3, [r4, #0]
 1616 15c8 88071FE5 		ldr	r0, .L282+244
 1617 15cc FEFFFFEB 		bl	uart_transmit
 1618 15d0 0110D5E5 		ldrb	r1, [r5, #1]	@ zero_extendqisi2
 1619 15d4 0030D4E5 		ldrb	r3, [r4, #0]	@ zero_extendqisi2
 1620 15d8 033081E0 		add	r3, r1, r3
 1621 15dc 0030C4E5 		strb	r3, [r4, #0]
 1622 15e0 A0071FE5 		ldr	r0, .L282+244
 1623 15e4 FEFFFFEB 		bl	uart_transmit
 1624 15e8 0210D5E5 		ldrb	r1, [r5, #2]	@ zero_extendqisi2
 1625 15ec 0030D4E5 		ldrb	r3, [r4, #0]	@ zero_extendqisi2
 1626 15f0 033081E0 		add	r3, r1, r3
 1627 15f4 0030C4E5 		strb	r3, [r4, #0]
 1628 15f8 B8071FE5 		ldr	r0, .L282+244
 1629 15fc FEFFFFEB 		bl	uart_transmit
 1630 1600 0310D5E5 		ldrb	r1, [r5, #3]	@ zero_extendqisi2
 1631 1604 0030D4E5 		ldrb	r3, [r4, #0]	@ zero_extendqisi2
 1632 1608 24581FE5 		ldr	r5, .L282+152
 1633 160c 033081E0 		add	r3, r1, r3
 1634 1610 0030C4E5 		strb	r3, [r4, #0]
 1635 1614 D4071FE5 		ldr	r0, .L282+244
 1636 1618 FEFFFFEB 		bl	uart_transmit
 1637 161c 0010D5E5 		ldrb	r1, [r5, #0]	@ zero_extendqisi2
 1638 1620 0030D4E5 		ldrb	r3, [r4, #0]	@ zero_extendqisi2
 1639 1624 033081E0 		add	r3, r1, r3
 1640 1628 0030C4E5 		strb	r3, [r4, #0]
 1641 162c EC071FE5 		ldr	r0, .L282+244
 1642 1630 FEFFFFEB 		bl	uart_transmit
 1643 1634 0110D5E5 		ldrb	r1, [r5, #1]	@ zero_extendqisi2
 1644 1638 0030D4E5 		ldrb	r3, [r4, #0]	@ zero_extendqisi2
 1645 163c 033081E0 		add	r3, r1, r3
 1646 1640 0030C4E5 		strb	r3, [r4, #0]
 1647 1644 04081FE5 		ldr	r0, .L282+244
 1648 1648 FEFFFFEB 		bl	uart_transmit
 1649 164c 0210D5E5 		ldrb	r1, [r5, #2]	@ zero_extendqisi2
 1650 1650 0030D4E5 		ldrb	r3, [r4, #0]	@ zero_extendqisi2
 1651 1654 033081E0 		add	r3, r1, r3
 1652 1658 0030C4E5 		strb	r3, [r4, #0]
 1653 165c 1C081FE5 		ldr	r0, .L282+244
 1654 1660 FEFFFFEB 		bl	uart_transmit
 1655 1664 0310D5E5 		ldrb	r1, [r5, #3]	@ zero_extendqisi2
 1656 1668 FC0000EA 		b	.L259
 1657              	.L55:
 1658 166c 360053E3 		cmp	r3, #54
 1659 1670 0A01001A 		bne	.L56
 1660 1674 8C381FE5 		ldr	r3, .L282+156
 1661 1678 38081FE5 		ldr	r0, .L282+244
 1662 167c 2B10A0E3 		mov	r1, #43
 1663 1680 14308DE5 		str	r3, [sp, #20]	@ float
 1664 1684 FEFFFFEB 		bl	uart_check_free_space
 1665 1688 000050E3 		cmp	r0, #0
 1666 168c FF00000A 		beq	.L58
 1667 1690 5C381FE5 		ldr	r3, .L282+232
 1668 1694 B020D3E1 		ldrh	r2, [r3, #0]
 1669 1698 2B2082E2 		add	r2, r2, #43
 1670 169c B020C3E1 		strh	r2, [r3, #0]	@ movhi
 1671 16a0 68381FE5 		ldr	r3, .L282+236
 1672 16a4 B020D3E1 		ldrh	r2, [r3, #0]
 1673 16a8 012082E2 		add	r2, r2, #1
 1674 16ac B020C3E1 		strh	r2, [r3, #0]	@ movhi
 1675 16b0 70081FE5 		ldr	r0, .L282+244
 1676 16b4 7E10A0E3 		mov	r1, #126
 1677 16b8 7C481FE5 		ldr	r4, .L282+240
 1678 16bc FEFFFFEB 		bl	uart_transmit
 1679 16c0 80081FE5 		ldr	r0, .L282+244
 1680 16c4 0010A0E3 		mov	r1, #0
 1681 16c8 FEFFFFEB 		bl	uart_transmit
 1682 16cc 0150A0E3 		mov	r5, #1
 1683 16d0 90081FE5 		ldr	r0, .L282+244
 1684 16d4 2710A0E3 		mov	r1, #39
 1685 16d8 FEFFFFEB 		bl	uart_transmit
 1686 16dc 0510A0E1 		mov	r1, r5
 1687 16e0 0050C4E5 		strb	r5, [r4, #0]
 1688 16e4 A4081FE5 		ldr	r0, .L282+244
 1689 16e8 FEFFFFEB 		bl	uart_transmit
 1690 16ec AC081FE5 		ldr	r0, .L282+244
 1691 16f0 0010A0E3 		mov	r1, #0
 1692 16f4 FEFFFFEB 		bl	uart_transmit
 1693 16f8 0030D4E5 		ldrb	r3, [r4, #0]	@ zero_extendqisi2
 1694 16fc 053083E0 		add	r3, r3, r5
 1695 1700 0030C4E5 		strb	r3, [r4, #0]
 1696 1704 0510A0E1 		mov	r1, r5
 1697 1708 C8081FE5 		ldr	r0, .L282+244
 1698 170c FEFFFFEB 		bl	uart_transmit
 1699 1710 D0081FE5 		ldr	r0, .L282+244
 1700 1714 0010A0E3 		mov	r1, #0
 1701 1718 FEFFFFEB 		bl	uart_transmit
 1702 171c DC081FE5 		ldr	r0, .L282+244
 1703 1720 0010A0E3 		mov	r1, #0
 1704 1724 FEFFFFEB 		bl	uart_transmit
 1705 1728 0030D4E5 		ldrb	r3, [r4, #0]	@ zero_extendqisi2
 1706 172c 023083E2 		add	r3, r3, #2
 1707 1730 0030C4E5 		strb	r3, [r4, #0]
 1708 1734 F4081FE5 		ldr	r0, .L282+244
 1709 1738 0210A0E3 		mov	r1, #2
 1710 173c FEFFFFEB 		bl	uart_transmit
 1711 1740 0030D4E5 		ldrb	r3, [r4, #0]	@ zero_extendqisi2
 1712 1744 58591FE5 		ldr	r5, .L282+160
 1713 1748 103083E2 		add	r3, r3, #16
 1714 174c 0030C4E5 		strb	r3, [r4, #0]
 1715 1750 10091FE5 		ldr	r0, .L282+244
 1716 1754 1010A0E3 		mov	r1, #16
 1717 1758 FEFFFFEB 		bl	uart_transmit
 1718 175c 0010D5E5 		ldrb	r1, [r5, #0]	@ zero_extendqisi2
 1719 1760 0030D4E5 		ldrb	r3, [r4, #0]	@ zero_extendqisi2
 1720 1764 033081E0 		add	r3, r1, r3
 1721 1768 0030C4E5 		strb	r3, [r4, #0]
 1722 176c 2C091FE5 		ldr	r0, .L282+244
 1723 1770 FEFFFFEB 		bl	uart_transmit
 1724 1774 0110D5E5 		ldrb	r1, [r5, #1]	@ zero_extendqisi2
 1725 1778 0030D4E5 		ldrb	r3, [r4, #0]	@ zero_extendqisi2
 1726 177c 033081E0 		add	r3, r1, r3
 1727 1780 0030C4E5 		strb	r3, [r4, #0]
 1728 1784 44091FE5 		ldr	r0, .L282+244
 1729 1788 FEFFFFEB 		bl	uart_transmit
 1730 178c 0210D5E5 		ldrb	r1, [r5, #2]	@ zero_extendqisi2
 1731 1790 0030D4E5 		ldrb	r3, [r4, #0]	@ zero_extendqisi2
 1732 1794 033081E0 		add	r3, r1, r3
 1733 1798 0030C4E5 		strb	r3, [r4, #0]
 1734 179c 5C091FE5 		ldr	r0, .L282+244
 1735 17a0 FEFFFFEB 		bl	uart_transmit
 1736 17a4 0310D5E5 		ldrb	r1, [r5, #3]	@ zero_extendqisi2
 1737 17a8 0030D4E5 		ldrb	r3, [r4, #0]	@ zero_extendqisi2
 1738 17ac BC591FE5 		ldr	r5, .L282+164
 1739 17b0 033081E0 		add	r3, r1, r3
 1740 17b4 0030C4E5 		strb	r3, [r4, #0]
 1741 17b8 78091FE5 		ldr	r0, .L282+244
 1742 17bc FEFFFFEB 		bl	uart_transmit
 1743 17c0 0010D5E5 		ldrb	r1, [r5, #0]	@ zero_extendqisi2
 1744 17c4 0030D4E5 		ldrb	r3, [r4, #0]	@ zero_extendqisi2
 1745 17c8 033081E0 		add	r3, r1, r3
 1746 17cc 0030C4E5 		strb	r3, [r4, #0]
 1747 17d0 90091FE5 		ldr	r0, .L282+244
 1748 17d4 FEFFFFEB 		bl	uart_transmit
 1749 17d8 0110D5E5 		ldrb	r1, [r5, #1]	@ zero_extendqisi2
 1750 17dc 0030D4E5 		ldrb	r3, [r4, #0]	@ zero_extendqisi2
 1751 17e0 033081E0 		add	r3, r1, r3
 1752 17e4 0030C4E5 		strb	r3, [r4, #0]
 1753 17e8 A8091FE5 		ldr	r0, .L282+244
 1754 17ec FEFFFFEB 		bl	uart_transmit
 1755 17f0 0210D5E5 		ldrb	r1, [r5, #2]	@ zero_extendqisi2
 1756 17f4 0030D4E5 		ldrb	r3, [r4, #0]	@ zero_extendqisi2
 1757 17f8 033081E0 		add	r3, r1, r3
 1758 17fc 0030C4E5 		strb	r3, [r4, #0]
 1759 1800 C0091FE5 		ldr	r0, .L282+244
 1760 1804 FEFFFFEB 		bl	uart_transmit
 1761 1808 0310D5E5 		ldrb	r1, [r5, #3]	@ zero_extendqisi2
 1762 180c 0030D4E5 		ldrb	r3, [r4, #0]	@ zero_extendqisi2
 1763 1810 1C5A1FE5 		ldr	r5, .L282+168
 1764 1814 033081E0 		add	r3, r1, r3
 1765 1818 0030C4E5 		strb	r3, [r4, #0]
 1766 181c DC091FE5 		ldr	r0, .L282+244
 1767 1820 FEFFFFEB 		bl	uart_transmit
 1768 1824 0010D5E5 		ldrb	r1, [r5, #0]	@ zero_extendqisi2
 1769 1828 0030D4E5 		ldrb	r3, [r4, #0]	@ zero_extendqisi2
 1770 182c 033081E0 		add	r3, r1, r3
 1771 1830 0030C4E5 		strb	r3, [r4, #0]
 1772 1834 F4091FE5 		ldr	r0, .L282+244
 1773 1838 FEFFFFEB 		bl	uart_transmit
 1774 183c 0110D5E5 		ldrb	r1, [r5, #1]	@ zero_extendqisi2
 1775 1840 0030D4E5 		ldrb	r3, [r4, #0]	@ zero_extendqisi2
 1776 1844 033081E0 		add	r3, r1, r3
 1777 1848 0030C4E5 		strb	r3, [r4, #0]
 1778 184c 0C0A1FE5 		ldr	r0, .L282+244
 1779 1850 FEFFFFEB 		bl	uart_transmit
 1780 1854 0210D5E5 		ldrb	r1, [r5, #2]	@ zero_extendqisi2
 1781 1858 0030D4E5 		ldrb	r3, [r4, #0]	@ zero_extendqisi2
 1782 185c 033081E0 		add	r3, r1, r3
 1783 1860 0030C4E5 		strb	r3, [r4, #0]
 1784 1864 240A1FE5 		ldr	r0, .L282+244
 1785 1868 FEFFFFEB 		bl	uart_transmit
 1786 186c 0310D5E5 		ldrb	r1, [r5, #3]	@ zero_extendqisi2
 1787 1870 0030D4E5 		ldrb	r3, [r4, #0]	@ zero_extendqisi2
 1788 1874 7C5A1FE5 		ldr	r5, .L282+172
 1789 1878 033081E0 		add	r3, r1, r3
 1790 187c 0030C4E5 		strb	r3, [r4, #0]
 1791 1880 400A1FE5 		ldr	r0, .L282+244
 1792 1884 FEFFFFEB 		bl	uart_transmit
 1793 1888 0010D5E5 		ldrb	r1, [r5, #0]	@ zero_extendqisi2
 1794 188c 0030D4E5 		ldrb	r3, [r4, #0]	@ zero_extendqisi2
 1795 1890 033081E0 		add	r3, r1, r3
 1796 1894 0030C4E5 		strb	r3, [r4, #0]
 1797 1898 580A1FE5 		ldr	r0, .L282+244
 1798 189c FEFFFFEB 		bl	uart_transmit
 1799 18a0 0110D5E5 		ldrb	r1, [r5, #1]	@ zero_extendqisi2
 1800 18a4 0030D4E5 		ldrb	r3, [r4, #0]	@ zero_extendqisi2
 1801 18a8 033081E0 		add	r3, r1, r3
 1802 18ac 0030C4E5 		strb	r3, [r4, #0]
 1803 18b0 700A1FE5 		ldr	r0, .L282+244
 1804 18b4 FEFFFFEB 		bl	uart_transmit
 1805 18b8 0210D5E5 		ldrb	r1, [r5, #2]	@ zero_extendqisi2
 1806 18bc 0030D4E5 		ldrb	r3, [r4, #0]	@ zero_extendqisi2
 1807 18c0 033081E0 		add	r3, r1, r3
 1808 18c4 0030C4E5 		strb	r3, [r4, #0]
 1809 18c8 880A1FE5 		ldr	r0, .L282+244
 1810 18cc FEFFFFEB 		bl	uart_transmit
 1811 18d0 0310D5E5 		ldrb	r1, [r5, #3]	@ zero_extendqisi2
 1812 18d4 0030D4E5 		ldrb	r3, [r4, #0]	@ zero_extendqisi2
 1813 18d8 DC5A1FE5 		ldr	r5, .L282+176
 1814 18dc 033081E0 		add	r3, r1, r3
 1815 18e0 0030C4E5 		strb	r3, [r4, #0]
 1816 18e4 A40A1FE5 		ldr	r0, .L282+244
 1817 18e8 FEFFFFEB 		bl	uart_transmit
 1818 18ec 0010D5E5 		ldrb	r1, [r5, #0]	@ zero_extendqisi2
 1819 18f0 0030D4E5 		ldrb	r3, [r4, #0]	@ zero_extendqisi2
 1820 18f4 033081E0 		add	r3, r1, r3
 1821 18f8 0030C4E5 		strb	r3, [r4, #0]
 1822 18fc BC0A1FE5 		ldr	r0, .L282+244
 1823 1900 FEFFFFEB 		bl	uart_transmit
 1824 1904 0110D5E5 		ldrb	r1, [r5, #1]	@ zero_extendqisi2
 1825 1908 0030D4E5 		ldrb	r3, [r4, #0]	@ zero_extendqisi2
 1826 190c 033081E0 		add	r3, r1, r3
 1827 1910 0030C4E5 		strb	r3, [r4, #0]
 1828 1914 D40A1FE5 		ldr	r0, .L282+244
 1829 1918 FEFFFFEB 		bl	uart_transmit
 1830 191c 0210D5E5 		ldrb	r1, [r5, #2]	@ zero_extendqisi2
 1831 1920 0030D4E5 		ldrb	r3, [r4, #0]	@ zero_extendqisi2
 1832 1924 033081E0 		add	r3, r1, r3
 1833 1928 0030C4E5 		strb	r3, [r4, #0]
 1834 192c EC0A1FE5 		ldr	r0, .L282+244
 1835 1930 FEFFFFEB 		bl	uart_transmit
 1836 1934 0310D5E5 		ldrb	r1, [r5, #3]	@ zero_extendqisi2
 1837 1938 0030D4E5 		ldrb	r3, [r4, #0]	@ zero_extendqisi2
 1838 193c 3C5B1FE5 		ldr	r5, .L282+180
 1839 1940 033081E0 		add	r3, r1, r3
 1840 1944 0030C4E5 		strb	r3, [r4, #0]
 1841 1948 080B1FE5 		ldr	r0, .L282+244
 1842 194c FEFFFFEB 		bl	uart_transmit
 1843 1950 0010D5E5 		ldrb	r1, [r5, #0]	@ zero_extendqisi2
 1844 1954 0030D4E5 		ldrb	r3, [r4, #0]	@ zero_extendqisi2
 1845 1958 033081E0 		add	r3, r1, r3
 1846 195c 0030C4E5 		strb	r3, [r4, #0]
 1847 1960 200B1FE5 		ldr	r0, .L282+244
 1848 1964 FEFFFFEB 		bl	uart_transmit
 1849 1968 0110D5E5 		ldrb	r1, [r5, #1]	@ zero_extendqisi2
 1850 196c 0030D4E5 		ldrb	r3, [r4, #0]	@ zero_extendqisi2
 1851 1970 033081E0 		add	r3, r1, r3
 1852 1974 0030C4E5 		strb	r3, [r4, #0]
 1853 1978 380B1FE5 		ldr	r0, .L282+244
 1854 197c FEFFFFEB 		bl	uart_transmit
 1855 1980 0210D5E5 		ldrb	r1, [r5, #2]	@ zero_extendqisi2
 1856 1984 0030D4E5 		ldrb	r3, [r4, #0]	@ zero_extendqisi2
 1857 1988 033081E0 		add	r3, r1, r3
 1858 198c 0030C4E5 		strb	r3, [r4, #0]
 1859 1990 500B1FE5 		ldr	r0, .L282+244
 1860 1994 FEFFFFEB 		bl	uart_transmit
 1861 1998 0310D5E5 		ldrb	r1, [r5, #3]	@ zero_extendqisi2
 1862 199c 0030D4E5 		ldrb	r3, [r4, #0]	@ zero_extendqisi2
 1863 19a0 9C5B1FE5 		ldr	r5, .L282+184
 1864 19a4 033081E0 		add	r3, r1, r3
 1865 19a8 0030C4E5 		strb	r3, [r4, #0]
 1866 19ac 6C0B1FE5 		ldr	r0, .L282+244
 1867 19b0 FEFFFFEB 		bl	uart_transmit
 1868 19b4 0010D5E5 		ldrb	r1, [r5, #0]	@ zero_extendqisi2
 1869 19b8 0030D4E5 		ldrb	r3, [r4, #0]	@ zero_extendqisi2
 1870 19bc 033081E0 		add	r3, r1, r3
 1871 19c0 0030C4E5 		strb	r3, [r4, #0]
 1872 19c4 840B1FE5 		ldr	r0, .L282+244
 1873 19c8 FEFFFFEB 		bl	uart_transmit
 1874 19cc 0110D5E5 		ldrb	r1, [r5, #1]	@ zero_extendqisi2
 1875 19d0 0030D4E5 		ldrb	r3, [r4, #0]	@ zero_extendqisi2
 1876 19d4 033081E0 		add	r3, r1, r3
 1877 19d8 0030C4E5 		strb	r3, [r4, #0]
 1878 19dc 9C0B1FE5 		ldr	r0, .L282+244
 1879 19e0 FEFFFFEB 		bl	uart_transmit
 1880 19e4 0210D5E5 		ldrb	r1, [r5, #2]	@ zero_extendqisi2
 1881 19e8 0030D4E5 		ldrb	r3, [r4, #0]	@ zero_extendqisi2
 1882 19ec 033081E0 		add	r3, r1, r3
 1883 19f0 0030C4E5 		strb	r3, [r4, #0]
 1884 19f4 B40B1FE5 		ldr	r0, .L282+244
 1885 19f8 FEFFFFEB 		bl	uart_transmit
 1886 19fc 0310D5E5 		ldrb	r1, [r5, #3]	@ zero_extendqisi2
 1887 1a00 0030D4E5 		ldrb	r3, [r4, #0]	@ zero_extendqisi2
 1888 1a04 033081E0 		add	r3, r1, r3
 1889 1a08 0030C4E5 		strb	r3, [r4, #0]
 1890 1a0c CC0B1FE5 		ldr	r0, .L282+244
 1891 1a10 FEFFFFEB 		bl	uart_transmit
 1892 1a14 1410DDE5 		ldrb	r1, [sp, #20]	@ zero_extendqisi2
 1893 1a18 0030D4E5 		ldrb	r3, [r4, #0]	@ zero_extendqisi2
 1894 1a1c 033081E0 		add	r3, r1, r3
 1895 1a20 0030C4E5 		strb	r3, [r4, #0]
 1896 1a24 E40B1FE5 		ldr	r0, .L282+244
 1897 1a28 FEFFFFEB 		bl	uart_transmit
 1898 1a2c 1510DDE5 		ldrb	r1, [sp, #21]	@ zero_extendqisi2
 1899 1a30 0030D4E5 		ldrb	r3, [r4, #0]	@ zero_extendqisi2
 1900 1a34 033081E0 		add	r3, r1, r3
 1901 1a38 0030C4E5 		strb	r3, [r4, #0]
 1902 1a3c FC0B1FE5 		ldr	r0, .L282+244
 1903 1a40 FEFFFFEB 		bl	uart_transmit
 1904 1a44 1610DDE5 		ldrb	r1, [sp, #22]	@ zero_extendqisi2
 1905 1a48 0030D4E5 		ldrb	r3, [r4, #0]	@ zero_extendqisi2
 1906 1a4c 033081E0 		add	r3, r1, r3
 1907 1a50 0030C4E5 		strb	r3, [r4, #0]
 1908 1a54 140C1FE5 		ldr	r0, .L282+244
 1909 1a58 FEFFFFEB 		bl	uart_transmit
 1910 1a5c 1710DDE5 		ldrb	r1, [sp, #23]	@ zero_extendqisi2
 1911              	.L259:
 1912 1a60 0030D4E5 		ldrb	r3, [r4, #0]	@ zero_extendqisi2
 1913 1a64 033081E0 		add	r3, r1, r3
 1914 1a68 0030C4E5 		strb	r3, [r4, #0]
 1915 1a6c 2C0C1FE5 		ldr	r0, .L282+244
 1916 1a70 FEFFFFEB 		bl	uart_transmit
 1917 1a74 0010D4E5 		ldrb	r1, [r4, #0]	@ zero_extendqisi2
 1918 1a78 0110E0E1 		mvn	r1, r1
 1919 1a7c FF1001E2 		and	r1, r1, #255
 1920 1a80 0010C4E5 		strb	r1, [r4, #0]
 1921 1a84 440C1FE5 		ldr	r0, .L282+244
 1922 1a88 FEFFFFEB 		bl	uart_transmit
 1923 1a8c 030000EA 		b	.L56
 1924              	.L58:
 1925 1a90 883C1FE5 		ldr	r3, .L282+188
 1926 1a94 0020D3E5 		ldrb	r2, [r3, #0]	@ zero_extendqisi2
 1927 1a98 012082E2 		add	r2, r2, #1
 1928 1a9c 0020C3E5 		strb	r2, [r3, #0]
 1929              	.L56:
 1930 1aa0 943C1FE5 		ldr	r3, .L282+192
 1931 1aa4 0050D3E5 		ldrb	r5, [r3, #0]	@ zero_extendqisi2
 1932 1aa8 3C0055E3 		cmp	r5, #60
 1933 1aac 9500001A 		bne	.L59
 1934 1ab0 A03C1FE5 		ldr	r3, .L282+196
 1935 1ab4 0A10A0E3 		mov	r1, #10
 1936 1ab8 000093E5 		ldr	r0, [r3, #0]
 1937 1abc FEFFFFEB 		bl	__aeabi_idiv
 1938 1ac0 AC3C1FE5 		ldr	r3, .L282+200
 1939 1ac4 BE01CDE1 		strh	r0, [sp, #30]	@ movhi
 1940 1ac8 000093E5 		ldr	r0, [r3, #0]	@ float
 1941 1acc FEFFFFEB 		bl	__aeabi_f2iz
 1942 1ad0 1910A0E3 		mov	r1, #25
 1943 1ad4 BC01CDE1 		strh	r0, [sp, #28]	@ movhi
 1944 1ad8 980C1FE5 		ldr	r0, .L282+244
 1945 1adc FEFFFFEB 		bl	uart_check_free_space
 1946 1ae0 000050E3 		cmp	r0, #0
 1947 1ae4 1F01000A 		beq	.L62
 1948 1ae8 B43C1FE5 		ldr	r3, .L282+232
 1949 1aec B020D3E1 		ldrh	r2, [r3, #0]
 1950 1af0 192082E2 		add	r2, r2, #25
 1951 1af4 B020C3E1 		strh	r2, [r3, #0]	@ movhi
 1952 1af8 C03C1FE5 		ldr	r3, .L282+236
 1953 1afc B020D3E1 		ldrh	r2, [r3, #0]
 1954 1b00 012082E2 		add	r2, r2, #1
 1955 1b04 B020C3E1 		strh	r2, [r3, #0]	@ movhi
 1956 1b08 C80C1FE5 		ldr	r0, .L282+244
 1957 1b0c 7E10A0E3 		mov	r1, #126
 1958 1b10 D44C1FE5 		ldr	r4, .L282+240
 1959 1b14 FEFFFFEB 		bl	uart_transmit
 1960 1b18 D80C1FE5 		ldr	r0, .L282+244
 1961 1b1c 0010A0E3 		mov	r1, #0
 1962 1b20 0150A0E3 		mov	r5, #1
 1963 1b24 FEFFFFEB 		bl	uart_transmit
 1964 1b28 E80C1FE5 		ldr	r0, .L282+244
 1965 1b2c 1510A0E3 		mov	r1, #21
 1966 1b30 FEFFFFEB 		bl	uart_transmit
 1967 1b34 0510A0E1 		mov	r1, r5
 1968 1b38 0050C4E5 		strb	r5, [r4, #0]
 1969 1b3c FC0C1FE5 		ldr	r0, .L282+244
 1970 1b40 FEFFFFEB 		bl	uart_transmit
 1971 1b44 040D1FE5 		ldr	r0, .L282+244
 1972 1b48 0010A0E3 		mov	r1, #0
 1973 1b4c FEFFFFEB 		bl	uart_transmit
 1974 1b50 0030D4E5 		ldrb	r3, [r4, #0]	@ zero_extendqisi2
 1975 1b54 053083E0 		add	r3, r3, r5
 1976 1b58 0030C4E5 		strb	r3, [r4, #0]
 1977 1b5c 0510A0E1 		mov	r1, r5
 1978 1b60 200D1FE5 		ldr	r0, .L282+244
 1979 1b64 FEFFFFEB 		bl	uart_transmit
 1980 1b68 280D1FE5 		ldr	r0, .L282+244
 1981 1b6c 0010A0E3 		mov	r1, #0
 1982 1b70 FEFFFFEB 		bl	uart_transmit
 1983 1b74 340D1FE5 		ldr	r0, .L282+244
 1984 1b78 0010A0E3 		mov	r1, #0
 1985 1b7c FEFFFFEB 		bl	uart_transmit
 1986 1b80 0030D4E5 		ldrb	r3, [r4, #0]	@ zero_extendqisi2
 1987 1b84 023083E2 		add	r3, r3, #2
 1988 1b88 0030C4E5 		strb	r3, [r4, #0]
 1989 1b8c 4C0D1FE5 		ldr	r0, .L282+244
 1990 1b90 0210A0E3 		mov	r1, #2
 1991 1b94 FEFFFFEB 		bl	uart_transmit
 1992 1b98 0030D4E5 		ldrb	r3, [r4, #0]	@ zero_extendqisi2
 1993 1b9c 845D1FE5 		ldr	r5, .L282+204
 1994 1ba0 0C3083E2 		add	r3, r3, #12
 1995 1ba4 0030C4E5 		strb	r3, [r4, #0]
 1996 1ba8 680D1FE5 		ldr	r0, .L282+244
 1997 1bac 0C10A0E3 		mov	r1, #12
 1998 1bb0 FEFFFFEB 		bl	uart_transmit
 1999 1bb4 0010D5E5 		ldrb	r1, [r5, #0]	@ zero_extendqisi2
 2000 1bb8 0030D4E5 		ldrb	r3, [r4, #0]	@ zero_extendqisi2
 2001 1bbc 033081E0 		add	r3, r1, r3
 2002 1bc0 0030C4E5 		strb	r3, [r4, #0]
 2003 1bc4 840D1FE5 		ldr	r0, .L282+244
 2004 1bc8 FEFFFFEB 		bl	uart_transmit
 2005 1bcc 0110D5E5 		ldrb	r1, [r5, #1]	@ zero_extendqisi2
 2006 1bd0 0030D4E5 		ldrb	r3, [r4, #0]	@ zero_extendqisi2
 2007 1bd4 033081E0 		add	r3, r1, r3
 2008 1bd8 0030C4E5 		strb	r3, [r4, #0]
 2009 1bdc 9C0D1FE5 		ldr	r0, .L282+244
 2010 1be0 FEFFFFEB 		bl	uart_transmit
 2011 1be4 C83D1FE5 		ldr	r3, .L282+208
 2012 1be8 0010D3E5 		ldrb	r1, [r3, #0]	@ zero_extendqisi2
 2013 1bec 0030D4E5 		ldrb	r3, [r4, #0]	@ zero_extendqisi2
 2014 1bf0 033081E0 		add	r3, r1, r3
 2015 1bf4 0030C4E5 		strb	r3, [r4, #0]
 2016 1bf8 B80D1FE5 		ldr	r0, .L282+244
 2017 1bfc FEFFFFEB 		bl	uart_transmit
 2018 1c00 1E10DDE5 		ldrb	r1, [sp, #30]	@ zero_extendqisi2
 2019 1c04 0030D4E5 		ldrb	r3, [r4, #0]	@ zero_extendqisi2
 2020 1c08 033081E0 		add	r3, r1, r3
 2021 1c0c 0030C4E5 		strb	r3, [r4, #0]
 2022 1c10 D00D1FE5 		ldr	r0, .L282+244
 2023 1c14 FEFFFFEB 		bl	uart_transmit
 2024 1c18 1F10DDE5 		ldrb	r1, [sp, #31]	@ zero_extendqisi2
 2025 1c1c 0030D4E5 		ldrb	r3, [r4, #0]	@ zero_extendqisi2
 2026 1c20 005E1FE5 		ldr	r5, .L282+212
 2027 1c24 033081E0 		add	r3, r1, r3
 2028 1c28 0030C4E5 		strb	r3, [r4, #0]
 2029 1c2c EC0D1FE5 		ldr	r0, .L282+244
 2030 1c30 FEFFFFEB 		bl	uart_transmit
 2031 1c34 0010D5E5 		ldrb	r1, [r5, #0]	@ zero_extendqisi2
 2032 1c38 0030D4E5 		ldrb	r3, [r4, #0]	@ zero_extendqisi2
 2033 1c3c 033081E0 		add	r3, r1, r3
 2034 1c40 0030C4E5 		strb	r3, [r4, #0]
 2035 1c44 040E1FE5 		ldr	r0, .L282+244
 2036 1c48 FEFFFFEB 		bl	uart_transmit
 2037 1c4c 0110D5E5 		ldrb	r1, [r5, #1]	@ zero_extendqisi2
 2038 1c50 0030D4E5 		ldrb	r3, [r4, #0]	@ zero_extendqisi2
 2039 1c54 033081E0 		add	r3, r1, r3
 2040 1c58 0030C4E5 		strb	r3, [r4, #0]
 2041 1c5c 1C0E1FE5 		ldr	r0, .L282+244
 2042 1c60 FEFFFFEB 		bl	uart_transmit
 2043 1c64 403E1FE5 		ldr	r3, .L282+216
 2044 1c68 0010D3E5 		ldrb	r1, [r3, #0]	@ zero_extendqisi2
 2045 1c6c 0030D4E5 		ldrb	r3, [r4, #0]	@ zero_extendqisi2
 2046 1c70 485E1FE5 		ldr	r5, .L282+220
 2047 1c74 033081E0 		add	r3, r1, r3
 2048 1c78 0030C4E5 		strb	r3, [r4, #0]
 2049 1c7c 3C0E1FE5 		ldr	r0, .L282+244
 2050 1c80 FEFFFFEB 		bl	uart_transmit
 2051 1c84 0010D5E5 		ldrb	r1, [r5, #0]	@ zero_extendqisi2
 2052 1c88 0030D4E5 		ldrb	r3, [r4, #0]	@ zero_extendqisi2
 2053 1c8c 033081E0 		add	r3, r1, r3
 2054 1c90 0030C4E5 		strb	r3, [r4, #0]
 2055 1c94 540E1FE5 		ldr	r0, .L282+244
 2056 1c98 FEFFFFEB 		bl	uart_transmit
 2057 1c9c 0110D5E5 		ldrb	r1, [r5, #1]	@ zero_extendqisi2
 2058 1ca0 0030D4E5 		ldrb	r3, [r4, #0]	@ zero_extendqisi2
 2059 1ca4 785E1FE5 		ldr	r5, .L282+224
 2060 1ca8 033081E0 		add	r3, r1, r3
 2061 1cac 0030C4E5 		strb	r3, [r4, #0]
 2062 1cb0 700E1FE5 		ldr	r0, .L282+244
 2063 1cb4 FEFFFFEB 		bl	uart_transmit
 2064 1cb8 0010D5E5 		ldrb	r1, [r5, #0]	@ zero_extendqisi2
 2065 1cbc 0030D4E5 		ldrb	r3, [r4, #0]	@ zero_extendqisi2
 2066 1cc0 033081E0 		add	r3, r1, r3
 2067 1cc4 0030C4E5 		strb	r3, [r4, #0]
 2068 1cc8 880E1FE5 		ldr	r0, .L282+244
 2069 1ccc FEFFFFEB 		bl	uart_transmit
 2070 1cd0 0110D5E5 		ldrb	r1, [r5, #1]	@ zero_extendqisi2
 2071 1cd4 0030D4E5 		ldrb	r3, [r4, #0]	@ zero_extendqisi2
 2072 1cd8 033081E0 		add	r3, r1, r3
 2073 1cdc 0030C4E5 		strb	r3, [r4, #0]
 2074 1ce0 A00E1FE5 		ldr	r0, .L282+244
 2075 1ce4 FEFFFFEB 		bl	uart_transmit
 2076 1ce8 1C10DDE5 		ldrb	r1, [sp, #28]	@ zero_extendqisi2
 2077 1cec 0030D4E5 		ldrb	r3, [r4, #0]	@ zero_extendqisi2
 2078 1cf0 033081E0 		add	r3, r1, r3
 2079 1cf4 0030C4E5 		strb	r3, [r4, #0]
 2080 1cf8 B80E1FE5 		ldr	r0, .L282+244
 2081 1cfc FEFFFFEB 		bl	uart_transmit
 2082 1d00 1D10DDE5 		ldrb	r1, [sp, #29]	@ zero_extendqisi2
 2083 1d04 8B0000EA 		b	.L260
 2084              	.L59:
 2085 1d08 000055E3 		cmp	r5, #0
 2086 1d0c 9900001A 		bne	.L61
 2087 1d10 E04E1FE5 		ldr	r4, .L282+228
 2088 1d14 000094E5 		ldr	r0, [r4, #0]
 2089 1d18 FEFFFFEB 		bl	__aeabi_i2f
 2090 1d1c E615A0E3 		mov	r1, #964689920
 2091 1d20 FEFFFFEB 		bl	__aeabi_fmul
 2092 1d24 04008DE5 		str	r0, [sp, #4]	@ float
 2093 1d28 040094E5 		ldr	r0, [r4, #4]
 2094 1d2c FEFFFFEB 		bl	__aeabi_i2f
 2095 1d30 E615A0E3 		mov	r1, #964689920
 2096 1d34 FEFFFFEB 		bl	__aeabi_fmul
 2097 1d38 08008DE5 		str	r0, [sp, #8]	@ float
 2098 1d3c 080094E5 		ldr	r0, [r4, #8]
 2099 1d40 FEFFFFEB 		bl	__aeabi_i2f
 2100 1d44 E615A0E3 		mov	r1, #964689920
 2101 1d48 FEFFFFEB 		bl	__aeabi_fmul
 2102 1d4c 1710A0E3 		mov	r1, #23
 2103 1d50 0C008DE5 		str	r0, [sp, #12]	@ float
 2104 1d54 140F1FE5 		ldr	r0, .L282+244
 2105 1d58 FEFFFFEB 		bl	uart_check_free_space
 2106 1d5c 000050E3 		cmp	r0, #0
 2107 1d60 8000000A 		beq	.L62
 2108 1d64 303F1FE5 		ldr	r3, .L282+232
 2109 1d68 B020D3E1 		ldrh	r2, [r3, #0]
 2110 1d6c 172082E2 		add	r2, r2, #23
 2111 1d70 B020C3E1 		strh	r2, [r3, #0]	@ movhi
 2112 1d74 3C3F1FE5 		ldr	r3, .L282+236
 2113 1d78 B020D3E1 		ldrh	r2, [r3, #0]
 2114 1d7c 012082E2 		add	r2, r2, #1
 2115 1d80 B020C3E1 		strh	r2, [r3, #0]	@ movhi
 2116 1d84 440F1FE5 		ldr	r0, .L282+244
 2117 1d88 7E10A0E3 		mov	r1, #126
 2118 1d8c 504F1FE5 		ldr	r4, .L282+240
 2119 1d90 FEFFFFEB 		bl	uart_transmit
 2120 1d94 540F1FE5 		ldr	r0, .L282+244
 2121 1d98 0510A0E1 		mov	r1, r5
 2122 1d9c FEFFFFEB 		bl	uart_transmit
 2123 1da0 0160A0E3 		mov	r6, #1
 2124 1da4 640F1FE5 		ldr	r0, .L282+244
 2125 1da8 1310A0E3 		mov	r1, #19
 2126 1dac FEFFFFEB 		bl	uart_transmit
 2127 1db0 700F1FE5 		ldr	r0, .L282+244
 2128 1db4 0610A0E1 		mov	r1, r6
 2129 1db8 0060C4E5 		strb	r6, [r4, #0]
 2130 1dbc FEFFFFEB 		bl	uart_transmit
 2131 1dc0 800F1FE5 		ldr	r0, .L282+244
 2132 1dc4 0510A0E1 		mov	r1, r5
 2133 1dc8 FEFFFFEB 		bl	uart_transmit
 2134 1dcc 0030D4E5 		ldrb	r3, [r4, #0]	@ zero_extendqisi2
 2135 1dd0 063083E0 		add	r3, r3, r6
 2136 1dd4 0030C4E5 		strb	r3, [r4, #0]
 2137 1dd8 980F1FE5 		ldr	r0, .L282+244
 2138 1ddc 0610A0E1 		mov	r1, r6
 2139 1de0 FEFFFFEB 		bl	uart_transmit
 2140 1de4 A40F1FE5 		ldr	r0, .L282+244
 2141 1de8 0510A0E1 		mov	r1, r5
 2142 1dec FEFFFFEB 		bl	uart_transmit
 2143 1df0 B00F1FE5 		ldr	r0, .L282+244
 2144 1df4 0510A0E1 		mov	r1, r5
 2145 1df8 FEFFFFEB 		bl	uart_transmit
 2146 1dfc 0030D4E5 		ldrb	r3, [r4, #0]	@ zero_extendqisi2
 2147 1e00 023083E2 		add	r3, r3, #2
 2148 1e04 0030C4E5 		strb	r3, [r4, #0]
 2149 1e08 C80F1FE5 		ldr	r0, .L282+244
 2150 1e0c 0210A0E3 		mov	r1, #2
 2151 1e10 FEFFFFEB 		bl	uart_transmit
 2152 1e14 0030D4E5 		ldrb	r3, [r4, #0]	@ zero_extendqisi2
 2153 1e18 383043E2 		sub	r3, r3, #56
 2154 1e1c 0030C4E5 		strb	r3, [r4, #0]
 2155 1e20 E00F1FE5 		ldr	r0, .L282+244
 2156 1e24 C810A0E3 		mov	r1, #200
 2157 1e28 FEFFFFEB 		bl	uart_transmit
 2158 1e2c 0410DDE5 		ldrb	r1, [sp, #4]	@ zero_extendqisi2
 2159 1e30 0030D4E5 		ldrb	r3, [r4, #0]	@ zero_extendqisi2
 2160 1e34 033081E0 		add	r3, r1, r3
 2161 1e38 0030C4E5 		strb	r3, [r4, #0]
 2162 1e3c FC0F1FE5 		ldr	r0, .L282+244
 2163 1e40 FEFFFFEB 		bl	uart_transmit
 2164 1e44 0510DDE5 		ldrb	r1, [sp, #5]	@ zero_extendqisi2
 2165 1e48 0030D4E5 		ldrb	r3, [r4, #0]	@ zero_extendqisi2
 2166 1e4c 033081E0 		add	r3, r1, r3
 2167 1e50 0030C4E5 		strb	r3, [r4, #0]
 2168 1e54 700F9FE5 		ldr	r0, .L284+304
 2169 1e58 FEFFFFEB 		bl	uart_transmit
 2170 1e5c 0610DDE5 		ldrb	r1, [sp, #6]	@ zero_extendqisi2
 2171 1e60 0030D4E5 		ldrb	r3, [r4, #0]	@ zero_extendqisi2
 2172 1e64 033081E0 		add	r3, r1, r3
 2173 1e68 0030C4E5 		strb	r3, [r4, #0]
 2174 1e6c 580F9FE5 		ldr	r0, .L284+304
 2175 1e70 FEFFFFEB 		bl	uart_transmit
 2176 1e74 0710DDE5 		ldrb	r1, [sp, #7]	@ zero_extendqisi2
 2177 1e78 0030D4E5 		ldrb	r3, [r4, #0]	@ zero_extendqisi2
 2178 1e7c 033081E0 		add	r3, r1, r3
 2179 1e80 0030C4E5 		strb	r3, [r4, #0]
 2180 1e84 400F9FE5 		ldr	r0, .L284+304
 2181 1e88 FEFFFFEB 		bl	uart_transmit
 2182 1e8c 0810DDE5 		ldrb	r1, [sp, #8]	@ zero_extendqisi2
 2183 1e90 0030D4E5 		ldrb	r3, [r4, #0]	@ zero_extendqisi2
 2184 1e94 033081E0 		add	r3, r1, r3
 2185 1e98 0030C4E5 		strb	r3, [r4, #0]
 2186 1e9c 280F9FE5 		ldr	r0, .L284+304
 2187 1ea0 FEFFFFEB 		bl	uart_transmit
 2188 1ea4 0910DDE5 		ldrb	r1, [sp, #9]	@ zero_extendqisi2
 2189 1ea8 0030D4E5 		ldrb	r3, [r4, #0]	@ zero_extendqisi2
 2190 1eac 033081E0 		add	r3, r1, r3
 2191 1eb0 0030C4E5 		strb	r3, [r4, #0]
 2192 1eb4 100F9FE5 		ldr	r0, .L284+304
 2193 1eb8 FEFFFFEB 		bl	uart_transmit
 2194 1ebc 0A10DDE5 		ldrb	r1, [sp, #10]	@ zero_extendqisi2
 2195 1ec0 0030D4E5 		ldrb	r3, [r4, #0]	@ zero_extendqisi2
 2196 1ec4 033081E0 		add	r3, r1, r3
 2197 1ec8 0030C4E5 		strb	r3, [r4, #0]
 2198 1ecc F80E9FE5 		ldr	r0, .L284+304
 2199 1ed0 FEFFFFEB 		bl	uart_transmit
 2200 1ed4 0B10DDE5 		ldrb	r1, [sp, #11]	@ zero_extendqisi2
 2201 1ed8 0030D4E5 		ldrb	r3, [r4, #0]	@ zero_extendqisi2
 2202 1edc 033081E0 		add	r3, r1, r3
 2203 1ee0 0030C4E5 		strb	r3, [r4, #0]
 2204 1ee4 E00E9FE5 		ldr	r0, .L284+304
 2205 1ee8 FEFFFFEB 		bl	uart_transmit
 2206 1eec 0C10DDE5 		ldrb	r1, [sp, #12]	@ zero_extendqisi2
 2207 1ef0 0030D4E5 		ldrb	r3, [r4, #0]	@ zero_extendqisi2
 2208 1ef4 033081E0 		add	r3, r1, r3
 2209 1ef8 0030C4E5 		strb	r3, [r4, #0]
 2210 1efc C80E9FE5 		ldr	r0, .L284+304
 2211 1f00 FEFFFFEB 		bl	uart_transmit
 2212 1f04 0D10DDE5 		ldrb	r1, [sp, #13]	@ zero_extendqisi2
 2213 1f08 0030D4E5 		ldrb	r3, [r4, #0]	@ zero_extendqisi2
 2214 1f0c 033081E0 		add	r3, r1, r3
 2215 1f10 0030C4E5 		strb	r3, [r4, #0]
 2216 1f14 B00E9FE5 		ldr	r0, .L284+304
 2217 1f18 FEFFFFEB 		bl	uart_transmit
 2218 1f1c 0E10DDE5 		ldrb	r1, [sp, #14]	@ zero_extendqisi2
 2219 1f20 0030D4E5 		ldrb	r3, [r4, #0]	@ zero_extendqisi2
 2220 1f24 033081E0 		add	r3, r1, r3
 2221 1f28 0030C4E5 		strb	r3, [r4, #0]
 2222 1f2c 980E9FE5 		ldr	r0, .L284+304
 2223 1f30 FEFFFFEB 		bl	uart_transmit
 2224 1f34 0F10DDE5 		ldrb	r1, [sp, #15]	@ zero_extendqisi2
 2225              	.L260:
 2226 1f38 0030D4E5 		ldrb	r3, [r4, #0]	@ zero_extendqisi2
 2227 1f3c 033081E0 		add	r3, r1, r3
 2228 1f40 0030C4E5 		strb	r3, [r4, #0]
 2229 1f44 800E9FE5 		ldr	r0, .L284+304
 2230 1f48 FEFFFFEB 		bl	uart_transmit
 2231 1f4c 0010D4E5 		ldrb	r1, [r4, #0]	@ zero_extendqisi2
 2232 1f50 0110E0E1 		mvn	r1, r1
 2233 1f54 FF1001E2 		and	r1, r1, #255
 2234 1f58 0010C4E5 		strb	r1, [r4, #0]
 2235 1f5c 680E9FE5 		ldr	r0, .L284+304
 2236 1f60 FEFFFFEB 		bl	uart_transmit
 2237 1f64 030000EA 		b	.L61
 2238              	.L62:
 2239 1f68 F03D9FE5 		ldr	r3, .L284+196
 2240 1f6c 0020D3E5 		ldrb	r2, [r3, #0]	@ zero_extendqisi2
 2241 1f70 012082E2 		add	r2, r2, #1
 2242 1f74 0020C3E5 		strb	r2, [r3, #0]
 2243              	.L61:
 2244 1f78 1C3D9FE5 		ldr	r3, .L284
 2245 1f7c 0030D3E5 		ldrb	r3, [r3, #0]	@ zero_extendqisi2
 2246 1f80 060053E3 		cmp	r3, #6
 2247 1f84 9A00001A 		bne	.L63
 2248 1f88 103D9FE5 		ldr	r3, .L284+4
 2249 1f8c 0030D3E5 		ldrb	r3, [r3, #0]	@ zero_extendqisi2
 2250 1f90 000053E3 		cmp	r3, #0
 2251 1f94 1701000A 		beq	.L64
 2252 1f98 2C0E9FE5 		ldr	r0, .L284+304
 2253 1f9c 1B10A0E3 		mov	r1, #27
 2254 1fa0 FEFFFFEB 		bl	uart_check_free_space
 2255 1fa4 000050E3 		cmp	r0, #0
 2256 1fa8 0E01000A 		beq	.L66
 2257 1fac 0C3E9FE5 		ldr	r3, .L284+292
 2258 1fb0 B020D3E1 		ldrh	r2, [r3, #0]
 2259 1fb4 1B2082E2 		add	r2, r2, #27
 2260 1fb8 B020C3E1 		strh	r2, [r3, #0]	@ movhi
 2261 1fbc 003E9FE5 		ldr	r3, .L284+296
 2262 1fc0 B020D3E1 		ldrh	r2, [r3, #0]
 2263 1fc4 012082E2 		add	r2, r2, #1
 2264 1fc8 B020C3E1 		strh	r2, [r3, #0]	@ movhi
 2265 1fcc F80D9FE5 		ldr	r0, .L284+304
 2266 1fd0 7E10A0E3 		mov	r1, #126
 2267 1fd4 EC4D9FE5 		ldr	r4, .L284+300
 2268 1fd8 FEFFFFEB 		bl	uart_transmit
 2269 1fdc E80D9FE5 		ldr	r0, .L284+304
 2270 1fe0 0010A0E3 		mov	r1, #0
 2271 1fe4 0150A0E3 		mov	r5, #1
 2272 1fe8 FEFFFFEB 		bl	uart_transmit
 2273 1fec D80D9FE5 		ldr	r0, .L284+304
 2274 1ff0 1710A0E3 		mov	r1, #23
 2275 1ff4 FEFFFFEB 		bl	uart_transmit
 2276 1ff8 0510A0E1 		mov	r1, r5
 2277 1ffc 0050C4E5 		strb	r5, [r4, #0]
 2278 2000 C40D9FE5 		ldr	r0, .L284+304
 2279 2004 FEFFFFEB 		bl	uart_transmit
 2280 2008 BC0D9FE5 		ldr	r0, .L284+304
 2281 200c 0010A0E3 		mov	r1, #0
 2282 2010 FEFFFFEB 		bl	uart_transmit
 2283 2014 0030D4E5 		ldrb	r3, [r4, #0]	@ zero_extendqisi2
 2284 2018 053083E0 		add	r3, r3, r5
 2285 201c 0030C4E5 		strb	r3, [r4, #0]
 2286 2020 0510A0E1 		mov	r1, r5
 2287 2024 A00D9FE5 		ldr	r0, .L284+304
 2288 2028 FEFFFFEB 		bl	uart_transmit
 2289 202c 980D9FE5 		ldr	r0, .L284+304
 2290 2030 0010A0E3 		mov	r1, #0
 2291 2034 FEFFFFEB 		bl	uart_transmit
 2292 2038 8C0D9FE5 		ldr	r0, .L284+304
 2293 203c 0010A0E3 		mov	r1, #0
 2294 2040 FEFFFFEB 		bl	uart_transmit
 2295 2044 0030D4E5 		ldrb	r3, [r4, #0]	@ zero_extendqisi2
 2296 2048 023083E2 		add	r3, r3, #2
 2297 204c 0030C4E5 		strb	r3, [r4, #0]
 2298 2050 740D9FE5 		ldr	r0, .L284+304
 2299 2054 0210A0E3 		mov	r1, #2
 2300 2058 FEFFFFEB 		bl	uart_transmit
 2301 205c 0030D4E5 		ldrb	r3, [r4, #0]	@ zero_extendqisi2
 2302 2060 3C5C9FE5 		ldr	r5, .L284+8
 2303 2064 163083E2 		add	r3, r3, #22
 2304 2068 0030C4E5 		strb	r3, [r4, #0]
 2305 206c 580D9FE5 		ldr	r0, .L284+304
 2306 2070 1610A0E3 		mov	r1, #22
 2307 2074 FEFFFFEB 		bl	uart_transmit
 2308 2078 0010D5E5 		ldrb	r1, [r5, #0]	@ zero_extendqisi2
 2309 207c 0030D4E5 		ldrb	r3, [r4, #0]	@ zero_extendqisi2
 2310 2080 033081E0 		add	r3, r1, r3
 2311 2084 0030C4E5 		strb	r3, [r4, #0]
 2312 2088 3C0D9FE5 		ldr	r0, .L284+304
 2313 208c FEFFFFEB 		bl	uart_transmit
 2314 2090 0110D5E5 		ldrb	r1, [r5, #1]	@ zero_extendqisi2
 2315 2094 0030D4E5 		ldrb	r3, [r4, #0]	@ zero_extendqisi2
 2316 2098 033081E0 		add	r3, r1, r3
 2317 209c 0030C4E5 		strb	r3, [r4, #0]
 2318 20a0 240D9FE5 		ldr	r0, .L284+304
 2319 20a4 FEFFFFEB 		bl	uart_transmit
 2320 20a8 0210D5E5 		ldrb	r1, [r5, #2]	@ zero_extendqisi2
 2321 20ac 0030D4E5 		ldrb	r3, [r4, #0]	@ zero_extendqisi2
 2322 20b0 033081E0 		add	r3, r1, r3
 2323 20b4 0030C4E5 		strb	r3, [r4, #0]
 2324 20b8 0C0D9FE5 		ldr	r0, .L284+304
 2325 20bc FEFFFFEB 		bl	uart_transmit
 2326 20c0 0310D5E5 		ldrb	r1, [r5, #3]	@ zero_extendqisi2
 2327 20c4 0030D4E5 		ldrb	r3, [r4, #0]	@ zero_extendqisi2
 2328 20c8 D85B9FE5 		ldr	r5, .L284+12
 2329 20cc 033081E0 		add	r3, r1, r3
 2330 20d0 0030C4E5 		strb	r3, [r4, #0]
 2331 20d4 F00C9FE5 		ldr	r0, .L284+304
 2332 20d8 FEFFFFEB 		bl	uart_transmit
 2333 20dc 0010D5E5 		ldrb	r1, [r5, #0]	@ zero_extendqisi2
 2334 20e0 0030D4E5 		ldrb	r3, [r4, #0]	@ zero_extendqisi2
 2335 20e4 033081E0 		add	r3, r1, r3
 2336 20e8 0030C4E5 		strb	r3, [r4, #0]
 2337 20ec D80C9FE5 		ldr	r0, .L284+304
 2338 20f0 FEFFFFEB 		bl	uart_transmit
 2339 20f4 0110D5E5 		ldrb	r1, [r5, #1]	@ zero_extendqisi2
 2340 20f8 0030D4E5 		ldrb	r3, [r4, #0]	@ zero_extendqisi2
 2341 20fc 033081E0 		add	r3, r1, r3
 2342 2100 0030C4E5 		strb	r3, [r4, #0]
 2343 2104 C00C9FE5 		ldr	r0, .L284+304
 2344 2108 FEFFFFEB 		bl	uart_transmit
 2345 210c 0210D5E5 		ldrb	r1, [r5, #2]	@ zero_extendqisi2
 2346 2110 0030D4E5 		ldrb	r3, [r4, #0]	@ zero_extendqisi2
 2347 2114 033081E0 		add	r3, r1, r3
 2348 2118 0030C4E5 		strb	r3, [r4, #0]
 2349 211c A80C9FE5 		ldr	r0, .L284+304
 2350 2120 FEFFFFEB 		bl	uart_transmit
 2351 2124 0310D5E5 		ldrb	r1, [r5, #3]	@ zero_extendqisi2
 2352 2128 0030D4E5 		ldrb	r3, [r4, #0]	@ zero_extendqisi2
 2353 212c 785B9FE5 		ldr	r5, .L284+16
 2354 2130 033081E0 		add	r3, r1, r3
 2355 2134 0030C4E5 		strb	r3, [r4, #0]
 2356 2138 8C0C9FE5 		ldr	r0, .L284+304
 2357 213c FEFFFFEB 		bl	uart_transmit
 2358 2140 0010D5E5 		ldrb	r1, [r5, #0]	@ zero_extendqisi2
 2359 2144 0030D4E5 		ldrb	r3, [r4, #0]	@ zero_extendqisi2
 2360 2148 033081E0 		add	r3, r1, r3
 2361 214c 0030C4E5 		strb	r3, [r4, #0]
 2362 2150 740C9FE5 		ldr	r0, .L284+304
 2363 2154 FEFFFFEB 		bl	uart_transmit
 2364 2158 0110D5E5 		ldrb	r1, [r5, #1]	@ zero_extendqisi2
 2365 215c 0030D4E5 		ldrb	r3, [r4, #0]	@ zero_extendqisi2
 2366 2160 033081E0 		add	r3, r1, r3
 2367 2164 0030C4E5 		strb	r3, [r4, #0]
 2368 2168 5C0C9FE5 		ldr	r0, .L284+304
 2369 216c FEFFFFEB 		bl	uart_transmit
 2370 2170 0210D5E5 		ldrb	r1, [r5, #2]	@ zero_extendqisi2
 2371 2174 0030D4E5 		ldrb	r3, [r4, #0]	@ zero_extendqisi2
 2372 2178 033081E0 		add	r3, r1, r3
 2373 217c 0030C4E5 		strb	r3, [r4, #0]
 2374 2180 440C9FE5 		ldr	r0, .L284+304
 2375 2184 FEFFFFEB 		bl	uart_transmit
 2376 2188 0310D5E5 		ldrb	r1, [r5, #3]	@ zero_extendqisi2
 2377 218c 0030D4E5 		ldrb	r3, [r4, #0]	@ zero_extendqisi2
 2378 2190 185B9FE5 		ldr	r5, .L284+20
 2379 2194 033081E0 		add	r3, r1, r3
 2380 2198 0030C4E5 		strb	r3, [r4, #0]
 2381 219c 280C9FE5 		ldr	r0, .L284+304
 2382 21a0 FEFFFFEB 		bl	uart_transmit
 2383 21a4 0010D5E5 		ldrb	r1, [r5, #0]	@ zero_extendqisi2
 2384 21a8 0030D4E5 		ldrb	r3, [r4, #0]	@ zero_extendqisi2
 2385 21ac 033081E0 		add	r3, r1, r3
 2386 21b0 0030C4E5 		strb	r3, [r4, #0]
 2387 21b4 100C9FE5 		ldr	r0, .L284+304
 2388 21b8 FEFFFFEB 		bl	uart_transmit
 2389 21bc 0110D5E5 		ldrb	r1, [r5, #1]	@ zero_extendqisi2
 2390 21c0 0030D4E5 		ldrb	r3, [r4, #0]	@ zero_extendqisi2
 2391 21c4 033081E0 		add	r3, r1, r3
 2392 21c8 0030C4E5 		strb	r3, [r4, #0]
 2393 21cc F80B9FE5 		ldr	r0, .L284+304
 2394 21d0 FEFFFFEB 		bl	uart_transmit
 2395 21d4 0210D5E5 		ldrb	r1, [r5, #2]	@ zero_extendqisi2
 2396 21d8 0030D4E5 		ldrb	r3, [r4, #0]	@ zero_extendqisi2
 2397 21dc 033081E0 		add	r3, r1, r3
 2398 21e0 0030C4E5 		strb	r3, [r4, #0]
 2399 21e4 E00B9FE5 		ldr	r0, .L284+304
 2400 21e8 FEFFFFEB 		bl	uart_transmit
 2401 21ec 0310D5E5 		ldrb	r1, [r5, #3]	@ zero_extendqisi2
 2402 21f0 700000EA 		b	.L261
 2403              	.L63:
 2404 21f4 0C0053E3 		cmp	r3, #12
 2405 21f8 7E00001A 		bne	.L64
 2406 21fc C80B9FE5 		ldr	r0, .L284+304
 2407 2200 1510A0E3 		mov	r1, #21
 2408 2204 FEFFFFEB 		bl	uart_check_free_space
 2409 2208 000050E3 		cmp	r0, #0
 2410 220c 7500000A 		beq	.L66
 2411 2210 A83B9FE5 		ldr	r3, .L284+292
 2412 2214 B020D3E1 		ldrh	r2, [r3, #0]
 2413 2218 152082E2 		add	r2, r2, #21
 2414 221c B020C3E1 		strh	r2, [r3, #0]	@ movhi
 2415 2220 9C3B9FE5 		ldr	r3, .L284+296
 2416 2224 B020D3E1 		ldrh	r2, [r3, #0]
 2417 2228 012082E2 		add	r2, r2, #1
 2418 222c B020C3E1 		strh	r2, [r3, #0]	@ movhi
 2419 2230 940B9FE5 		ldr	r0, .L284+304
 2420 2234 7E10A0E3 		mov	r1, #126
 2421 2238 884B9FE5 		ldr	r4, .L284+300
 2422 223c FEFFFFEB 		bl	uart_transmit
 2423 2240 840B9FE5 		ldr	r0, .L284+304
 2424 2244 0010A0E3 		mov	r1, #0
 2425 2248 0150A0E3 		mov	r5, #1
 2426 224c FEFFFFEB 		bl	uart_transmit
 2427 2250 740B9FE5 		ldr	r0, .L284+304
 2428 2254 1110A0E3 		mov	r1, #17
 2429 2258 FEFFFFEB 		bl	uart_transmit
 2430 225c 0510A0E1 		mov	r1, r5
 2431 2260 0050C4E5 		strb	r5, [r4, #0]
 2432 2264 600B9FE5 		ldr	r0, .L284+304
 2433 2268 FEFFFFEB 		bl	uart_transmit
 2434 226c 580B9FE5 		ldr	r0, .L284+304
 2435 2270 0010A0E3 		mov	r1, #0
 2436 2274 FEFFFFEB 		bl	uart_transmit
 2437 2278 0030D4E5 		ldrb	r3, [r4, #0]	@ zero_extendqisi2
 2438 227c 053083E0 		add	r3, r3, r5
 2439 2280 0030C4E5 		strb	r3, [r4, #0]
 2440 2284 0510A0E1 		mov	r1, r5
 2441 2288 3C0B9FE5 		ldr	r0, .L284+304
 2442 228c FEFFFFEB 		bl	uart_transmit
 2443 2290 340B9FE5 		ldr	r0, .L284+304
 2444 2294 0010A0E3 		mov	r1, #0
 2445 2298 FEFFFFEB 		bl	uart_transmit
 2446 229c 280B9FE5 		ldr	r0, .L284+304
 2447 22a0 0010A0E3 		mov	r1, #0
 2448 22a4 FEFFFFEB 		bl	uart_transmit
 2449 22a8 0030D4E5 		ldrb	r3, [r4, #0]	@ zero_extendqisi2
 2450 22ac 023083E2 		add	r3, r3, #2
 2451 22b0 0030C4E5 		strb	r3, [r4, #0]
 2452 22b4 100B9FE5 		ldr	r0, .L284+304
 2453 22b8 0210A0E3 		mov	r1, #2
 2454 22bc FEFFFFEB 		bl	uart_transmit
 2455 22c0 0030D4E5 		ldrb	r3, [r4, #0]	@ zero_extendqisi2
 2456 22c4 705A9FE5 		ldr	r5, .L284+160
 2457 22c8 073083E2 		add	r3, r3, #7
 2458 22cc 0030C4E5 		strb	r3, [r4, #0]
 2459 22d0 F40A9FE5 		ldr	r0, .L284+304
 2460 22d4 0710A0E3 		mov	r1, #7
 2461 22d8 FEFFFFEB 		bl	uart_transmit
 2462 22dc 0010D5E5 		ldrb	r1, [r5, #0]	@ zero_extendqisi2
 2463 22e0 0030D4E5 		ldrb	r3, [r4, #0]	@ zero_extendqisi2
 2464 22e4 033081E0 		add	r3, r1, r3
 2465 22e8 0030C4E5 		strb	r3, [r4, #0]
 2466 22ec D80A9FE5 		ldr	r0, .L284+304
 2467 22f0 FEFFFFEB 		bl	uart_transmit
 2468 22f4 0110D5E5 		ldrb	r1, [r5, #1]	@ zero_extendqisi2
 2469 22f8 0030D4E5 		ldrb	r3, [r4, #0]	@ zero_extendqisi2
 2470 22fc 033081E0 		add	r3, r1, r3
 2471 2300 0030C4E5 		strb	r3, [r4, #0]
 2472 2304 C00A9FE5 		ldr	r0, .L284+304
 2473 2308 FEFFFFEB 		bl	uart_transmit
 2474 230c 0210D5E5 		ldrb	r1, [r5, #2]	@ zero_extendqisi2
 2475 2310 0030D4E5 		ldrb	r3, [r4, #0]	@ zero_extendqisi2
 2476 2314 033081E0 		add	r3, r1, r3
 2477 2318 0030C4E5 		strb	r3, [r4, #0]
 2478 231c A80A9FE5 		ldr	r0, .L284+304
 2479 2320 FEFFFFEB 		bl	uart_transmit
 2480 2324 0310D5E5 		ldrb	r1, [r5, #3]	@ zero_extendqisi2
 2481 2328 0030D4E5 		ldrb	r3, [r4, #0]	@ zero_extendqisi2
 2482 232c 033081E0 		add	r3, r1, r3
 2483 2330 0030C4E5 		strb	r3, [r4, #0]
 2484 2334 900A9FE5 		ldr	r0, .L284+304
 2485 2338 FEFFFFEB 		bl	uart_transmit
 2486 233c 1610D5E5 		ldrb	r1, [r5, #22]	@ zero_extendqisi2
 2487 2340 0030D4E5 		ldrb	r3, [r4, #0]	@ zero_extendqisi2
 2488 2344 033081E0 		add	r3, r1, r3
 2489 2348 0030C4E5 		strb	r3, [r4, #0]
 2490 234c 780A9FE5 		ldr	r0, .L284+304
 2491 2350 FEFFFFEB 		bl	uart_transmit
 2492 2354 1710D5E5 		ldrb	r1, [r5, #23]	@ zero_extendqisi2
 2493 2358 0030D4E5 		ldrb	r3, [r4, #0]	@ zero_extendqisi2
 2494 235c 033081E0 		add	r3, r1, r3
 2495 2360 0030C4E5 		strb	r3, [r4, #0]
 2496 2364 600A9FE5 		ldr	r0, .L284+304
 2497 2368 FEFFFFEB 		bl	uart_transmit
 2498 236c 1410D5E5 		ldrb	r1, [r5, #20]	@ zero_extendqisi2
 2499 2370 0030D4E5 		ldrb	r3, [r4, #0]	@ zero_extendqisi2
 2500 2374 033081E0 		add	r3, r1, r3
 2501 2378 0030C4E5 		strb	r3, [r4, #0]
 2502 237c 480A9FE5 		ldr	r0, .L284+304
 2503 2380 FEFFFFEB 		bl	uart_transmit
 2504 2384 1510D5E5 		ldrb	r1, [r5, #21]	@ zero_extendqisi2
 2505 2388 0030D4E5 		ldrb	r3, [r4, #0]	@ zero_extendqisi2
 2506 238c 033081E0 		add	r3, r1, r3
 2507 2390 0030C4E5 		strb	r3, [r4, #0]
 2508 2394 300A9FE5 		ldr	r0, .L284+304
 2509 2398 FEFFFFEB 		bl	uart_transmit
 2510 239c 1810D5E5 		ldrb	r1, [r5, #24]	@ zero_extendqisi2
 2511 23a0 0030D4E5 		ldrb	r3, [r4, #0]	@ zero_extendqisi2
 2512 23a4 033081E0 		add	r3, r1, r3
 2513 23a8 0030C4E5 		strb	r3, [r4, #0]
 2514 23ac 180A9FE5 		ldr	r0, .L284+304
 2515 23b0 FEFFFFEB 		bl	uart_transmit
 2516 23b4 1910D5E5 		ldrb	r1, [r5, #25]	@ zero_extendqisi2
 2517              	.L261:
 2518 23b8 0030D4E5 		ldrb	r3, [r4, #0]	@ zero_extendqisi2
 2519 23bc 033081E0 		add	r3, r1, r3
 2520 23c0 0030C4E5 		strb	r3, [r4, #0]
 2521 23c4 000A9FE5 		ldr	r0, .L284+304
 2522 23c8 FEFFFFEB 		bl	uart_transmit
 2523 23cc 0010D4E5 		ldrb	r1, [r4, #0]	@ zero_extendqisi2
 2524 23d0 0110E0E1 		mvn	r1, r1
 2525 23d4 FF1001E2 		and	r1, r1, #255
 2526 23d8 0010C4E5 		strb	r1, [r4, #0]
 2527 23dc E8099FE5 		ldr	r0, .L284+304
 2528 23e0 FEFFFFEB 		bl	uart_transmit
 2529 23e4 030000EA 		b	.L64
 2530              	.L66:
 2531 23e8 70399FE5 		ldr	r3, .L284+196
 2532 23ec 0020D3E5 		ldrb	r2, [r3, #0]	@ zero_extendqisi2
 2533 23f0 012082E2 		add	r2, r2, #1
 2534 23f4 0020C3E5 		strb	r2, [r3, #0]
 2535              	.L64:
 2536 23f8 B4389FE5 		ldr	r3, .L284+24
 2537 23fc 0030D3E5 		ldrb	r3, [r3, #0]	@ zero_extendqisi2
 2538 2400 120053E3 		cmp	r3, #18
 2539 2404 9C00001A 		bne	.L67
 2540 2408 A8389FE5 		ldr	r3, .L284+28
 2541 240c 0020D3E5 		ldrb	r2, [r3, #0]	@ zero_extendqisi2
 2542 2410 0C0052E3 		cmp	r2, #12
 2543 2414 0020A083 		movhi	r2, #0
 2544 2418 0020C385 		strhib	r2, [r3, #0]
 2545 241c 0030D3E5 		ldrb	r3, [r3, #0]	@ zero_extendqisi2
 2546 2420 0C0053E3 		cmp	r3, #12
 2547 2424 03F19F97 		ldrls	pc, [pc, r3, asl #2]
 2548 2428 2C0000EA 		b	.L69
 2549              	.L83:
 2550 242c 60240000 		.word	.L70
 2551 2430 68240000 		.word	.L71
 2552 2434 7C240000 		.word	.L72
 2553 2438 84240000 		.word	.L73
 2554 243c 8C240000 		.word	.L74
 2555 2440 94240000 		.word	.L75
 2556 2444 A0240000 		.word	.L76
 2557 2448 AC240000 		.word	.L77
 2558 244c B4240000 		.word	.L78
 2559 2450 BC240000 		.word	.L79
 2560 2454 C4240000 		.word	.L80
 2561 2458 D0240000 		.word	.L81
 2562 245c D8240000 		.word	.L82
 2563              	.L70:
 2564 2460 FC389FE5 		ldr	r3, .L284+200
 2565 2464 000000EA 		b	.L262
 2566              	.L71:
 2567 2468 4C389FE5 		ldr	r3, .L284+32
 2568              	.L262:
 2569 246c 0000D3E5 		ldrb	r0, [r3, #0]	@ zero_extendqisi2
 2570              	.L263:
 2571 2470 FEFFFFEB 		bl	__aeabi_ui2f
 2572 2474 14008DE5 		str	r0, [sp, #20]	@ float
 2573 2478 1A0000EA 		b	.L84
 2574              	.L72:
 2575 247c 3C389FE5 		ldr	r3, .L284+36
 2576 2480 070000EA 		b	.L277
 2577              	.L73:
 2578 2484 38389FE5 		ldr	r3, .L284+40
 2579 2488 050000EA 		b	.L277
 2580              	.L74:
 2581 248c 34389FE5 		ldr	r3, .L284+44
 2582 2490 030000EA 		b	.L277
 2583              	.L75:
 2584 2494 30389FE5 		ldr	r3, .L284+48
 2585 2498 B000D3E1 		ldrh	r0, [r3, #0]
 2586 249c F3FFFFEA 		b	.L263
 2587              	.L76:
 2588 24a0 28389FE5 		ldr	r3, .L284+52
 2589              	.L277:
 2590 24a4 003093E5 		ldr	r3, [r3, #0]	@ float
 2591 24a8 0D0000EA 		b	.L264
 2592              	.L77:
 2593 24ac 74389FE5 		ldr	r3, .L284+140
 2594 24b0 EDFFFFEA 		b	.L262
 2595              	.L78:
 2596 24b4 18389FE5 		ldr	r3, .L284+56
 2597 24b8 EBFFFFEA 		b	.L262
 2598              	.L79:
 2599 24bc 14389FE5 		ldr	r3, .L284+60
 2600 24c0 E9FFFFEA 		b	.L262
 2601              	.L80:
 2602 24c4 E4389FE5 		ldr	r3, .L284+276
 2603 24c8 B00FD3E1 		ldrh	r0, [r3, #240]
 2604 24cc E7FFFFEA 		b	.L263
 2605              	.L81:
 2606 24d0 04389FE5 		ldr	r3, .L284+64
 2607 24d4 E4FFFFEA 		b	.L262
 2608              	.L82:
 2609 24d8 00389FE5 		ldr	r3, .L284+68
 2610 24dc E2FFFFEA 		b	.L262
 2611              	.L69:
 2612 24e0 0030A0E3 		mov	r3, #0
 2613              	.L264:
 2614 24e4 14308DE5 		str	r3, [sp, #20]	@ float
 2615              	.L84:
 2616 24e8 DC089FE5 		ldr	r0, .L284+304
 2617 24ec 1010A0E3 		mov	r1, #16
 2618 24f0 FEFFFFEB 		bl	uart_check_free_space
 2619 24f4 000050E3 		cmp	r0, #0
 2620 24f8 5700000A 		beq	.L85
 2621 24fc BC389FE5 		ldr	r3, .L284+292
 2622 2500 B020D3E1 		ldrh	r2, [r3, #0]
 2623 2504 102082E2 		add	r2, r2, #16
 2624 2508 B020C3E1 		strh	r2, [r3, #0]	@ movhi
 2625 250c B0389FE5 		ldr	r3, .L284+296
 2626 2510 B020D3E1 		ldrh	r2, [r3, #0]
 2627 2514 012082E2 		add	r2, r2, #1
 2628 2518 B020C3E1 		strh	r2, [r3, #0]	@ movhi
 2629 251c A8089FE5 		ldr	r0, .L284+304
 2630 2520 7E10A0E3 		mov	r1, #126
 2631 2524 9C489FE5 		ldr	r4, .L284+300
 2632 2528 FEFFFFEB 		bl	uart_transmit
 2633 252c 98089FE5 		ldr	r0, .L284+304
 2634 2530 0010A0E3 		mov	r1, #0
 2635 2534 FEFFFFEB 		bl	uart_transmit
 2636 2538 0150A0E3 		mov	r5, #1
 2637 253c 88089FE5 		ldr	r0, .L284+304
 2638 2540 0C10A0E3 		mov	r1, #12
 2639 2544 FEFFFFEB 		bl	uart_transmit
 2640 2548 0510A0E1 		mov	r1, r5
 2641 254c 0050C4E5 		strb	r5, [r4, #0]
 2642 2550 74089FE5 		ldr	r0, .L284+304
 2643 2554 FEFFFFEB 		bl	uart_transmit
 2644 2558 6C089FE5 		ldr	r0, .L284+304
 2645 255c 0010A0E3 		mov	r1, #0
 2646 2560 FEFFFFEB 		bl	uart_transmit
 2647 2564 0030D4E5 		ldrb	r3, [r4, #0]	@ zero_extendqisi2
 2648 2568 053083E0 		add	r3, r3, r5
 2649 256c 0030C4E5 		strb	r3, [r4, #0]
 2650 2570 0510A0E1 		mov	r1, r5
 2651 2574 50089FE5 		ldr	r0, .L284+304
 2652 2578 FEFFFFEB 		bl	uart_transmit
 2653 257c 48089FE5 		ldr	r0, .L284+304
 2654 2580 0010A0E3 		mov	r1, #0
 2655 2584 FEFFFFEB 		bl	uart_transmit
 2656 2588 3C089FE5 		ldr	r0, .L284+304
 2657 258c 0010A0E3 		mov	r1, #0
 2658 2590 FEFFFFEB 		bl	uart_transmit
 2659 2594 0030D4E5 		ldrb	r3, [r4, #0]	@ zero_extendqisi2
 2660 2598 023083E2 		add	r3, r3, #2
 2661 259c 0030C4E5 		strb	r3, [r4, #0]
 2662 25a0 24089FE5 		ldr	r0, .L284+304
 2663 25a4 0210A0E3 		mov	r1, #2
 2664 25a8 FEFFFFEB 		bl	uart_transmit
 2665 25ac 0030D4E5 		ldrb	r3, [r4, #0]	@ zero_extendqisi2
 2666 25b0 1F3083E2 		add	r3, r3, #31
 2667 25b4 0030C4E5 		strb	r3, [r4, #0]
 2668 25b8 0C089FE5 		ldr	r0, .L284+304
 2669 25bc 1F10A0E3 		mov	r1, #31
 2670 25c0 FEFFFFEB 		bl	uart_transmit
 2671 25c4 EC369FE5 		ldr	r3, .L284+28
 2672 25c8 0010D3E5 		ldrb	r1, [r3, #0]	@ zero_extendqisi2
 2673 25cc 0030D4E5 		ldrb	r3, [r4, #0]	@ zero_extendqisi2
 2674 25d0 033081E0 		add	r3, r1, r3
 2675 25d4 0030C4E5 		strb	r3, [r4, #0]
 2676 25d8 EC079FE5 		ldr	r0, .L284+304
 2677 25dc FEFFFFEB 		bl	uart_transmit
 2678 25e0 1410DDE5 		ldrb	r1, [sp, #20]	@ zero_extendqisi2
 2679 25e4 0030D4E5 		ldrb	r3, [r4, #0]	@ zero_extendqisi2
 2680 25e8 033081E0 		add	r3, r1, r3
 2681 25ec 0030C4E5 		strb	r3, [r4, #0]
 2682 25f0 D4079FE5 		ldr	r0, .L284+304
 2683 25f4 FEFFFFEB 		bl	uart_transmit
 2684 25f8 1510DDE5 		ldrb	r1, [sp, #21]	@ zero_extendqisi2
 2685 25fc 0030D4E5 		ldrb	r3, [r4, #0]	@ zero_extendqisi2
 2686 2600 033081E0 		add	r3, r1, r3
 2687 2604 0030C4E5 		strb	r3, [r4, #0]
 2688 2608 BC079FE5 		ldr	r0, .L284+304
 2689 260c FEFFFFEB 		bl	uart_transmit
 2690 2610 1610DDE5 		ldrb	r1, [sp, #22]	@ zero_extendqisi2
 2691 2614 0030D4E5 		ldrb	r3, [r4, #0]	@ zero_extendqisi2
 2692 2618 033081E0 		add	r3, r1, r3
 2693 261c 0030C4E5 		strb	r3, [r4, #0]
 2694 2620 A4079FE5 		ldr	r0, .L284+304
 2695 2624 FEFFFFEB 		bl	uart_transmit
 2696 2628 1710DDE5 		ldrb	r1, [sp, #23]	@ zero_extendqisi2
 2697 262c 0030D4E5 		ldrb	r3, [r4, #0]	@ zero_extendqisi2
 2698 2630 033081E0 		add	r3, r1, r3
 2699 2634 0030C4E5 		strb	r3, [r4, #0]
 2700 2638 8C079FE5 		ldr	r0, .L284+304
 2701 263c FEFFFFEB 		bl	uart_transmit
 2702 2640 0010D4E5 		ldrb	r1, [r4, #0]	@ zero_extendqisi2
 2703 2644 0110E0E1 		mvn	r1, r1
 2704 2648 FF1001E2 		and	r1, r1, #255
 2705 264c 0010C4E5 		strb	r1, [r4, #0]
 2706 2650 74079FE5 		ldr	r0, .L284+304
 2707 2654 FEFFFFEB 		bl	uart_transmit
 2708 2658 030000EA 		b	.L86
 2709              	.L85:
 2710 265c FC369FE5 		ldr	r3, .L284+196
 2711 2660 0020D3E5 		ldrb	r2, [r3, #0]	@ zero_extendqisi2
 2712 2664 012082E2 		add	r2, r2, #1
 2713 2668 0020C3E5 		strb	r2, [r3, #0]
 2714              	.L86:
 2715 266c 44369FE5 		ldr	r3, .L284+28
 2716 2670 0020D3E5 		ldrb	r2, [r3, #0]	@ zero_extendqisi2
 2717 2674 012082E2 		add	r2, r2, #1
 2718 2678 0020C3E5 		strb	r2, [r3, #0]
 2719              	.L67:
 2720 267c 60369FE5 		ldr	r3, .L284+72
 2721 2680 0030D3E5 		ldrb	r3, [r3, #0]	@ zero_extendqisi2
 2722 2684 180053E3 		cmp	r3, #24
 2723 2688 8400001A 		bne	.L87
 2724 268c 38079FE5 		ldr	r0, .L284+304
 2725 2690 1610A0E3 		mov	r1, #22
 2726 2694 FEFFFFEB 		bl	uart_check_free_space
 2727 2698 000050E3 		cmp	r0, #0
 2728 269c 7B00000A 		beq	.L88
 2729 26a0 18379FE5 		ldr	r3, .L284+292
 2730 26a4 B020D3E1 		ldrh	r2, [r3, #0]
 2731 26a8 162082E2 		add	r2, r2, #22
 2732 26ac B020C3E1 		strh	r2, [r3, #0]	@ movhi
 2733 26b0 0C379FE5 		ldr	r3, .L284+296
 2734 26b4 B020D3E1 		ldrh	r2, [r3, #0]
 2735 26b8 012082E2 		add	r2, r2, #1
 2736 26bc B020C3E1 		strh	r2, [r3, #0]	@ movhi
 2737 26c0 04079FE5 		ldr	r0, .L284+304
 2738 26c4 7E10A0E3 		mov	r1, #126
 2739 26c8 F8469FE5 		ldr	r4, .L284+300
 2740 26cc FEFFFFEB 		bl	uart_transmit
 2741 26d0 F4069FE5 		ldr	r0, .L284+304
 2742 26d4 0010A0E3 		mov	r1, #0
 2743 26d8 FEFFFFEB 		bl	uart_transmit
 2744 26dc 0150A0E3 		mov	r5, #1
 2745 26e0 E4069FE5 		ldr	r0, .L284+304
 2746 26e4 1210A0E3 		mov	r1, #18
 2747 26e8 FEFFFFEB 		bl	uart_transmit
 2748 26ec 0050C4E5 		strb	r5, [r4, #0]
 2749 26f0 0510A0E1 		mov	r1, r5
 2750 26f4 D0069FE5 		ldr	r0, .L284+304
 2751 26f8 FEFFFFEB 		bl	uart_transmit
 2752 26fc C8069FE5 		ldr	r0, .L284+304
 2753 2700 0010A0E3 		mov	r1, #0
 2754 2704 FEFFFFEB 		bl	uart_transmit
 2755 2708 0030D4E5 		ldrb	r3, [r4, #0]	@ zero_extendqisi2
 2756 270c 053083E0 		add	r3, r3, r5
 2757 2710 0030C4E5 		strb	r3, [r4, #0]
 2758 2714 0510A0E1 		mov	r1, r5
 2759 2718 AC069FE5 		ldr	r0, .L284+304
 2760 271c FEFFFFEB 		bl	uart_transmit
 2761 2720 A4069FE5 		ldr	r0, .L284+304
 2762 2724 0010A0E3 		mov	r1, #0
 2763 2728 FEFFFFEB 		bl	uart_transmit
 2764 272c 98069FE5 		ldr	r0, .L284+304
 2765 2730 0010A0E3 		mov	r1, #0
 2766 2734 FEFFFFEB 		bl	uart_transmit
 2767 2738 0030D4E5 		ldrb	r3, [r4, #0]	@ zero_extendqisi2
 2768 273c 023083E2 		add	r3, r3, #2
 2769 2740 0030C4E5 		strb	r3, [r4, #0]
 2770 2744 80069FE5 		ldr	r0, .L284+304
 2771 2748 0210A0E3 		mov	r1, #2
 2772 274c FEFFFFEB 		bl	uart_transmit
 2773 2750 0030D4E5 		ldrb	r3, [r4, #0]	@ zero_extendqisi2
 2774 2754 54569FE5 		ldr	r5, .L284+276
 2775 2758 113083E2 		add	r3, r3, #17
 2776 275c 0030C4E5 		strb	r3, [r4, #0]
 2777 2760 64069FE5 		ldr	r0, .L284+304
 2778 2764 1110A0E3 		mov	r1, #17
 2779 2768 FEFFFFEB 		bl	uart_transmit
 2780 276c 4C10D5E5 		ldrb	r1, [r5, #76]	@ zero_extendqisi2
 2781 2770 0030D4E5 		ldrb	r3, [r4, #0]	@ zero_extendqisi2
 2782 2774 033081E0 		add	r3, r1, r3
 2783 2778 0030C4E5 		strb	r3, [r4, #0]
 2784 277c 48069FE5 		ldr	r0, .L284+304
 2785 2780 FEFFFFEB 		bl	uart_transmit
 2786 2784 4D10D5E5 		ldrb	r1, [r5, #77]	@ zero_extendqisi2
 2787 2788 0030D4E5 		ldrb	r3, [r4, #0]	@ zero_extendqisi2
 2788 278c 033081E0 		add	r3, r1, r3
 2789 2790 0030C4E5 		strb	r3, [r4, #0]
 2790 2794 30069FE5 		ldr	r0, .L284+304
 2791 2798 FEFFFFEB 		bl	uart_transmit
 2792 279c 4E10D5E5 		ldrb	r1, [r5, #78]	@ zero_extendqisi2
 2793 27a0 0030D4E5 		ldrb	r3, [r4, #0]	@ zero_extendqisi2
 2794 27a4 033081E0 		add	r3, r1, r3
 2795 27a8 0030C4E5 		strb	r3, [r4, #0]
 2796 27ac 18069FE5 		ldr	r0, .L284+304
 2797 27b0 FEFFFFEB 		bl	uart_transmit
 2798 27b4 4F10D5E5 		ldrb	r1, [r5, #79]	@ zero_extendqisi2
 2799 27b8 0030D4E5 		ldrb	r3, [r4, #0]	@ zero_extendqisi2
 2800 27bc 033081E0 		add	r3, r1, r3
 2801 27c0 0030C4E5 		strb	r3, [r4, #0]
 2802 27c4 00069FE5 		ldr	r0, .L284+304
 2803 27c8 FEFFFFEB 		bl	uart_transmit
 2804 27cc 5010D5E5 		ldrb	r1, [r5, #80]	@ zero_extendqisi2
 2805 27d0 0030D4E5 		ldrb	r3, [r4, #0]	@ zero_extendqisi2
 2806 27d4 033081E0 		add	r3, r1, r3
 2807 27d8 0030C4E5 		strb	r3, [r4, #0]
 2808 27dc E8059FE5 		ldr	r0, .L284+304
 2809 27e0 FEFFFFEB 		bl	uart_transmit
 2810 27e4 5110D5E5 		ldrb	r1, [r5, #81]	@ zero_extendqisi2
 2811 27e8 0030D4E5 		ldrb	r3, [r4, #0]	@ zero_extendqisi2
 2812 27ec 033081E0 		add	r3, r1, r3
 2813 27f0 0030C4E5 		strb	r3, [r4, #0]
 2814 27f4 D0059FE5 		ldr	r0, .L284+304
 2815 27f8 FEFFFFEB 		bl	uart_transmit
 2816 27fc 5210D5E5 		ldrb	r1, [r5, #82]	@ zero_extendqisi2
 2817 2800 0030D4E5 		ldrb	r3, [r4, #0]	@ zero_extendqisi2
 2818 2804 033081E0 		add	r3, r1, r3
 2819 2808 0030C4E5 		strb	r3, [r4, #0]
 2820 280c B8059FE5 		ldr	r0, .L284+304
 2821 2810 FEFFFFEB 		bl	uart_transmit
 2822 2814 5310D5E5 		ldrb	r1, [r5, #83]	@ zero_extendqisi2
 2823 2818 0030D4E5 		ldrb	r3, [r4, #0]	@ zero_extendqisi2
 2824 281c 033081E0 		add	r3, r1, r3
 2825 2820 0030C4E5 		strb	r3, [r4, #0]
 2826 2824 A0059FE5 		ldr	r0, .L284+304
 2827 2828 FEFFFFEB 		bl	uart_transmit
 2828 282c 5810D5E5 		ldrb	r1, [r5, #88]	@ zero_extendqisi2
 2829 2830 0030D4E5 		ldrb	r3, [r4, #0]	@ zero_extendqisi2
 2830 2834 033081E0 		add	r3, r1, r3
 2831 2838 0030C4E5 		strb	r3, [r4, #0]
 2832 283c 88059FE5 		ldr	r0, .L284+304
 2833 2840 FEFFFFEB 		bl	uart_transmit
 2834 2844 5910D5E5 		ldrb	r1, [r5, #89]	@ zero_extendqisi2
 2835 2848 0030D4E5 		ldrb	r3, [r4, #0]	@ zero_extendqisi2
 2836 284c 033081E0 		add	r3, r1, r3
 2837 2850 0030C4E5 		strb	r3, [r4, #0]
 2838 2854 70059FE5 		ldr	r0, .L284+304
 2839 2858 FEFFFFEB 		bl	uart_transmit
 2840 285c 5A10D5E5 		ldrb	r1, [r5, #90]	@ zero_extendqisi2
 2841 2860 0030D4E5 		ldrb	r3, [r4, #0]	@ zero_extendqisi2
 2842 2864 033081E0 		add	r3, r1, r3
 2843 2868 0030C4E5 		strb	r3, [r4, #0]
 2844 286c 58059FE5 		ldr	r0, .L284+304
 2845 2870 FEFFFFEB 		bl	uart_transmit
 2846 2874 0010D4E5 		ldrb	r1, [r4, #0]	@ zero_extendqisi2
 2847 2878 0110E0E1 		mvn	r1, r1
 2848 287c FF1001E2 		and	r1, r1, #255
 2849 2880 0010C4E5 		strb	r1, [r4, #0]
 2850 2884 40059FE5 		ldr	r0, .L284+304
 2851 2888 FEFFFFEB 		bl	uart_transmit
 2852 288c 030000EA 		b	.L87
 2853              	.L88:
 2854 2890 C8349FE5 		ldr	r3, .L284+196
 2855 2894 0020D3E5 		ldrb	r2, [r3, #0]	@ zero_extendqisi2
 2856 2898 012082E2 		add	r2, r2, #1
 2857 289c 0020C3E5 		strb	r2, [r3, #0]
 2858              	.L87:
 2859 28a0 40349FE5 		ldr	r3, .L284+76
 2860 28a4 0030D3E5 		ldrb	r3, [r3, #0]	@ zero_extendqisi2
 2861 28a8 1E0053E3 		cmp	r3, #30
 2862 28ac 5200001A 		bne	.L89
 2863 28b0 14059FE5 		ldr	r0, .L284+304
 2864 28b4 1010A0E3 		mov	r1, #16
 2865 28b8 FEFFFFEB 		bl	uart_check_free_space
 2866 28bc 000050E3 		cmp	r0, #0
 2867 28c0 4201000A 		beq	.L92
 2868 28c4 F4349FE5 		ldr	r3, .L284+292
 2869 28c8 B020D3E1 		ldrh	r2, [r3, #0]
 2870 28cc 102082E2 		add	r2, r2, #16
 2871 28d0 B020C3E1 		strh	r2, [r3, #0]	@ movhi
 2872 28d4 E8349FE5 		ldr	r3, .L284+296
 2873 28d8 B020D3E1 		ldrh	r2, [r3, #0]
 2874 28dc 012082E2 		add	r2, r2, #1
 2875 28e0 B020C3E1 		strh	r2, [r3, #0]	@ movhi
 2876 28e4 E0049FE5 		ldr	r0, .L284+304
 2877 28e8 7E10A0E3 		mov	r1, #126
 2878 28ec D4449FE5 		ldr	r4, .L284+300
 2879 28f0 FEFFFFEB 		bl	uart_transmit
 2880 28f4 D0049FE5 		ldr	r0, .L284+304
 2881 28f8 0010A0E3 		mov	r1, #0
 2882 28fc 0150A0E3 		mov	r5, #1
 2883 2900 FEFFFFEB 		bl	uart_transmit
 2884 2904 C0049FE5 		ldr	r0, .L284+304
 2885 2908 0C10A0E3 		mov	r1, #12
 2886 290c FEFFFFEB 		bl	uart_transmit
 2887 2910 0510A0E1 		mov	r1, r5
 2888 2914 0050C4E5 		strb	r5, [r4, #0]
 2889 2918 AC049FE5 		ldr	r0, .L284+304
 2890 291c FEFFFFEB 		bl	uart_transmit
 2891 2920 A4049FE5 		ldr	r0, .L284+304
 2892 2924 0010A0E3 		mov	r1, #0
 2893 2928 FEFFFFEB 		bl	uart_transmit
 2894 292c 0030D4E5 		ldrb	r3, [r4, #0]	@ zero_extendqisi2
 2895 2930 053083E0 		add	r3, r3, r5
 2896 2934 0030C4E5 		strb	r3, [r4, #0]
 2897 2938 0510A0E1 		mov	r1, r5
 2898 293c 88049FE5 		ldr	r0, .L284+304
 2899 2940 FEFFFFEB 		bl	uart_transmit
 2900 2944 80049FE5 		ldr	r0, .L284+304
 2901 2948 0010A0E3 		mov	r1, #0
 2902 294c FEFFFFEB 		bl	uart_transmit
 2903 2950 74049FE5 		ldr	r0, .L284+304
 2904 2954 0010A0E3 		mov	r1, #0
 2905 2958 FEFFFFEB 		bl	uart_transmit
 2906 295c 0030D4E5 		ldrb	r3, [r4, #0]	@ zero_extendqisi2
 2907 2960 023083E2 		add	r3, r3, #2
 2908 2964 0030C4E5 		strb	r3, [r4, #0]
 2909 2968 5C049FE5 		ldr	r0, .L284+304
 2910 296c 0210A0E3 		mov	r1, #2
 2911 2970 FEFFFFEB 		bl	uart_transmit
 2912 2974 0030D4E5 		ldrb	r3, [r4, #0]	@ zero_extendqisi2
 2913 2978 6C539FE5 		ldr	r5, .L284+80
 2914 297c 0E3083E2 		add	r3, r3, #14
 2915 2980 0030C4E5 		strb	r3, [r4, #0]
 2916 2984 40049FE5 		ldr	r0, .L284+304
 2917 2988 0E10A0E3 		mov	r1, #14
 2918 298c FEFFFFEB 		bl	uart_transmit
 2919 2990 0010D5E5 		ldrb	r1, [r5, #0]	@ zero_extendqisi2
 2920 2994 0030D4E5 		ldrb	r3, [r4, #0]	@ zero_extendqisi2
 2921 2998 033081E0 		add	r3, r1, r3
 2922 299c 0030C4E5 		strb	r3, [r4, #0]
 2923 29a0 24049FE5 		ldr	r0, .L284+304
 2924 29a4 FEFFFFEB 		bl	uart_transmit
 2925 29a8 0110D5E5 		ldrb	r1, [r5, #1]	@ zero_extendqisi2
 2926 29ac 0030D4E5 		ldrb	r3, [r4, #0]	@ zero_extendqisi2
 2927 29b0 033081E0 		add	r3, r1, r3
 2928 29b4 0030C4E5 		strb	r3, [r4, #0]
 2929 29b8 0C049FE5 		ldr	r0, .L284+304
 2930 29bc FEFFFFEB 		bl	uart_transmit
 2931 29c0 0210D5E5 		ldrb	r1, [r5, #2]	@ zero_extendqisi2
 2932 29c4 0030D4E5 		ldrb	r3, [r4, #0]	@ zero_extendqisi2
 2933 29c8 033081E0 		add	r3, r1, r3
 2934 29cc 0030C4E5 		strb	r3, [r4, #0]
 2935 29d0 F4039FE5 		ldr	r0, .L284+304
 2936 29d4 FEFFFFEB 		bl	uart_transmit
 2937 29d8 0310D5E5 		ldrb	r1, [r5, #3]	@ zero_extendqisi2
 2938 29dc 0030D4E5 		ldrb	r3, [r4, #0]	@ zero_extendqisi2
 2939 29e0 033081E0 		add	r3, r1, r3
 2940 29e4 0030C4E5 		strb	r3, [r4, #0]
 2941 29e8 DC039FE5 		ldr	r0, .L284+304
 2942 29ec FEFFFFEB 		bl	uart_transmit
 2943 29f0 F8329FE5 		ldr	r3, .L284+84
 2944 29f4 0010D3E5 		ldrb	r1, [r3, #0]	@ zero_extendqisi2
 2945 29f8 9B0000EA 		b	.L265
 2946              	.L89:
 2947 29fc 240053E3 		cmp	r3, #36
 2948 2a00 F600001A 		bne	.L91
 2949 2a04 E8329FE5 		ldr	r3, .L284+88
 2950 2a08 0030D3E5 		ldrb	r3, [r3, #0]	@ zero_extendqisi2
 2951 2a0c 000053E3 		cmp	r3, #0
 2952 2a10 F200000A 		beq	.L91
 2953 2a14 B0039FE5 		ldr	r0, .L284+304
 2954 2a18 1B10A0E3 		mov	r1, #27
 2955 2a1c FEFFFFEB 		bl	uart_check_free_space
 2956 2a20 000050E3 		cmp	r0, #0
 2957 2a24 E900000A 		beq	.L92
 2958 2a28 90339FE5 		ldr	r3, .L284+292
 2959 2a2c B020D3E1 		ldrh	r2, [r3, #0]
 2960 2a30 1B2082E2 		add	r2, r2, #27
 2961 2a34 B020C3E1 		strh	r2, [r3, #0]	@ movhi
 2962 2a38 84339FE5 		ldr	r3, .L284+296
 2963 2a3c B020D3E1 		ldrh	r2, [r3, #0]
 2964 2a40 012082E2 		add	r2, r2, #1
 2965 2a44 B020C3E1 		strh	r2, [r3, #0]	@ movhi
 2966 2a48 7C039FE5 		ldr	r0, .L284+304
 2967 2a4c 7E10A0E3 		mov	r1, #126
 2968 2a50 70439FE5 		ldr	r4, .L284+300
 2969 2a54 FEFFFFEB 		bl	uart_transmit
 2970 2a58 6C039FE5 		ldr	r0, .L284+304
 2971 2a5c 0010A0E3 		mov	r1, #0
 2972 2a60 0150A0E3 		mov	r5, #1
 2973 2a64 FEFFFFEB 		bl	uart_transmit
 2974 2a68 5C039FE5 		ldr	r0, .L284+304
 2975 2a6c 1710A0E3 		mov	r1, #23
 2976 2a70 FEFFFFEB 		bl	uart_transmit
 2977 2a74 0510A0E1 		mov	r1, r5
 2978 2a78 0050C4E5 		strb	r5, [r4, #0]
 2979 2a7c 48039FE5 		ldr	r0, .L284+304
 2980 2a80 FEFFFFEB 		bl	uart_transmit
 2981 2a84 40039FE5 		ldr	r0, .L284+304
 2982 2a88 0010A0E3 		mov	r1, #0
 2983 2a8c FEFFFFEB 		bl	uart_transmit
 2984 2a90 0030D4E5 		ldrb	r3, [r4, #0]	@ zero_extendqisi2
 2985 2a94 053083E0 		add	r3, r3, r5
 2986 2a98 0030C4E5 		strb	r3, [r4, #0]
 2987 2a9c 0510A0E1 		mov	r1, r5
 2988 2aa0 24039FE5 		ldr	r0, .L284+304
 2989 2aa4 FEFFFFEB 		bl	uart_transmit
 2990 2aa8 1C039FE5 		ldr	r0, .L284+304
 2991 2aac 0010A0E3 		mov	r1, #0
 2992 2ab0 FEFFFFEB 		bl	uart_transmit
 2993 2ab4 10039FE5 		ldr	r0, .L284+304
 2994 2ab8 0010A0E3 		mov	r1, #0
 2995 2abc FEFFFFEB 		bl	uart_transmit
 2996 2ac0 0030D4E5 		ldrb	r3, [r4, #0]	@ zero_extendqisi2
 2997 2ac4 023083E2 		add	r3, r3, #2
 2998 2ac8 0030C4E5 		strb	r3, [r4, #0]
 2999 2acc F8029FE5 		ldr	r0, .L284+304
 3000 2ad0 0210A0E3 		mov	r1, #2
 3001 2ad4 FEFFFFEB 		bl	uart_transmit
 3002 2ad8 0030D4E5 		ldrb	r3, [r4, #0]	@ zero_extendqisi2
 3003 2adc 14529FE5 		ldr	r5, .L284+92
 3004 2ae0 1B3083E2 		add	r3, r3, #27
 3005 2ae4 0030C4E5 		strb	r3, [r4, #0]
 3006 2ae8 DC029FE5 		ldr	r0, .L284+304
 3007 2aec 1B10A0E3 		mov	r1, #27
 3008 2af0 FEFFFFEB 		bl	uart_transmit
 3009 2af4 0010D5E5 		ldrb	r1, [r5, #0]	@ zero_extendqisi2
 3010 2af8 0030D4E5 		ldrb	r3, [r4, #0]	@ zero_extendqisi2
 3011 2afc 033081E0 		add	r3, r1, r3
 3012 2b00 0030C4E5 		strb	r3, [r4, #0]
 3013 2b04 C0029FE5 		ldr	r0, .L284+304
 3014 2b08 FEFFFFEB 		bl	uart_transmit
 3015 2b0c 0110D5E5 		ldrb	r1, [r5, #1]	@ zero_extendqisi2
 3016 2b10 0030D4E5 		ldrb	r3, [r4, #0]	@ zero_extendqisi2
 3017 2b14 033081E0 		add	r3, r1, r3
 3018 2b18 0030C4E5 		strb	r3, [r4, #0]
 3019 2b1c A8029FE5 		ldr	r0, .L284+304
 3020 2b20 FEFFFFEB 		bl	uart_transmit
 3021 2b24 0210D5E5 		ldrb	r1, [r5, #2]	@ zero_extendqisi2
 3022 2b28 0030D4E5 		ldrb	r3, [r4, #0]	@ zero_extendqisi2
 3023 2b2c 033081E0 		add	r3, r1, r3
 3024 2b30 0030C4E5 		strb	r3, [r4, #0]
 3025 2b34 90029FE5 		ldr	r0, .L284+304
 3026 2b38 FEFFFFEB 		bl	uart_transmit
 3027 2b3c 0310D5E5 		ldrb	r1, [r5, #3]	@ zero_extendqisi2
 3028 2b40 0030D4E5 		ldrb	r3, [r4, #0]	@ zero_extendqisi2
 3029 2b44 B0519FE5 		ldr	r5, .L284+96
 3030 2b48 033081E0 		add	r3, r1, r3
 3031 2b4c 0030C4E5 		strb	r3, [r4, #0]
 3032 2b50 74029FE5 		ldr	r0, .L284+304
 3033 2b54 FEFFFFEB 		bl	uart_transmit
 3034 2b58 0010D5E5 		ldrb	r1, [r5, #0]	@ zero_extendqisi2
 3035 2b5c 0030D4E5 		ldrb	r3, [r4, #0]	@ zero_extendqisi2
 3036 2b60 033081E0 		add	r3, r1, r3
 3037 2b64 0030C4E5 		strb	r3, [r4, #0]
 3038 2b68 5C029FE5 		ldr	r0, .L284+304
 3039 2b6c FEFFFFEB 		bl	uart_transmit
 3040 2b70 0110D5E5 		ldrb	r1, [r5, #1]	@ zero_extendqisi2
 3041 2b74 0030D4E5 		ldrb	r3, [r4, #0]	@ zero_extendqisi2
 3042 2b78 033081E0 		add	r3, r1, r3
 3043 2b7c 0030C4E5 		strb	r3, [r4, #0]
 3044 2b80 44029FE5 		ldr	r0, .L284+304
 3045 2b84 FEFFFFEB 		bl	uart_transmit
 3046 2b88 0210D5E5 		ldrb	r1, [r5, #2]	@ zero_extendqisi2
 3047 2b8c 0030D4E5 		ldrb	r3, [r4, #0]	@ zero_extendqisi2
 3048 2b90 033081E0 		add	r3, r1, r3
 3049 2b94 0030C4E5 		strb	r3, [r4, #0]
 3050 2b98 2C029FE5 		ldr	r0, .L284+304
 3051 2b9c FEFFFFEB 		bl	uart_transmit
 3052 2ba0 0310D5E5 		ldrb	r1, [r5, #3]	@ zero_extendqisi2
 3053 2ba4 0030D4E5 		ldrb	r3, [r4, #0]	@ zero_extendqisi2
 3054 2ba8 50519FE5 		ldr	r5, .L284+100
 3055 2bac 033081E0 		add	r3, r1, r3
 3056 2bb0 0030C4E5 		strb	r3, [r4, #0]
 3057 2bb4 10029FE5 		ldr	r0, .L284+304
 3058 2bb8 FEFFFFEB 		bl	uart_transmit
 3059 2bbc 0010D5E5 		ldrb	r1, [r5, #0]	@ zero_extendqisi2
 3060 2bc0 0030D4E5 		ldrb	r3, [r4, #0]	@ zero_extendqisi2
 3061 2bc4 033081E0 		add	r3, r1, r3
 3062 2bc8 0030C4E5 		strb	r3, [r4, #0]
 3063 2bcc F8019FE5 		ldr	r0, .L284+304
 3064 2bd0 FEFFFFEB 		bl	uart_transmit
 3065 2bd4 0110D5E5 		ldrb	r1, [r5, #1]	@ zero_extendqisi2
 3066 2bd8 0030D4E5 		ldrb	r3, [r4, #0]	@ zero_extendqisi2
 3067 2bdc 033081E0 		add	r3, r1, r3
 3068 2be0 0030C4E5 		strb	r3, [r4, #0]
 3069 2be4 E0019FE5 		ldr	r0, .L284+304
 3070 2be8 FEFFFFEB 		bl	uart_transmit
 3071 2bec 0210D5E5 		ldrb	r1, [r5, #2]	@ zero_extendqisi2
 3072 2bf0 0030D4E5 		ldrb	r3, [r4, #0]	@ zero_extendqisi2
 3073 2bf4 033081E0 		add	r3, r1, r3
 3074 2bf8 0030C4E5 		strb	r3, [r4, #0]
 3075 2bfc C8019FE5 		ldr	r0, .L284+304
 3076 2c00 FEFFFFEB 		bl	uart_transmit
 3077 2c04 0310D5E5 		ldrb	r1, [r5, #3]	@ zero_extendqisi2
 3078 2c08 0030D4E5 		ldrb	r3, [r4, #0]	@ zero_extendqisi2
 3079 2c0c F0509FE5 		ldr	r5, .L284+104
 3080 2c10 033081E0 		add	r3, r1, r3
 3081 2c14 0030C4E5 		strb	r3, [r4, #0]
 3082 2c18 AC019FE5 		ldr	r0, .L284+304
 3083 2c1c FEFFFFEB 		bl	uart_transmit
 3084 2c20 0010D5E5 		ldrb	r1, [r5, #0]	@ zero_extendqisi2
 3085 2c24 0030D4E5 		ldrb	r3, [r4, #0]	@ zero_extendqisi2
 3086 2c28 033081E0 		add	r3, r1, r3
 3087 2c2c 0030C4E5 		strb	r3, [r4, #0]
 3088 2c30 94019FE5 		ldr	r0, .L284+304
 3089 2c34 FEFFFFEB 		bl	uart_transmit
 3090 2c38 0110D5E5 		ldrb	r1, [r5, #1]	@ zero_extendqisi2
 3091 2c3c 0030D4E5 		ldrb	r3, [r4, #0]	@ zero_extendqisi2
 3092 2c40 033081E0 		add	r3, r1, r3
 3093 2c44 0030C4E5 		strb	r3, [r4, #0]
 3094 2c48 7C019FE5 		ldr	r0, .L284+304
 3095 2c4c FEFFFFEB 		bl	uart_transmit
 3096 2c50 0210D5E5 		ldrb	r1, [r5, #2]	@ zero_extendqisi2
 3097 2c54 0030D4E5 		ldrb	r3, [r4, #0]	@ zero_extendqisi2
 3098 2c58 033081E0 		add	r3, r1, r3
 3099 2c5c 0030C4E5 		strb	r3, [r4, #0]
 3100 2c60 64019FE5 		ldr	r0, .L284+304
 3101 2c64 FEFFFFEB 		bl	uart_transmit
 3102 2c68 0310D5E5 		ldrb	r1, [r5, #3]	@ zero_extendqisi2
 3103              	.L265:
 3104 2c6c 0030D4E5 		ldrb	r3, [r4, #0]	@ zero_extendqisi2
 3105 2c70 033081E0 		add	r3, r1, r3
 3106 2c74 0030C4E5 		strb	r3, [r4, #0]
 3107 2c78 4C019FE5 		ldr	r0, .L284+304
 3108 2c7c FEFFFFEB 		bl	uart_transmit
 3109 2c80 0010D4E5 		ldrb	r1, [r4, #0]	@ zero_extendqisi2
 3110 2c84 0110E0E1 		mvn	r1, r1
 3111 2c88 FF1001E2 		and	r1, r1, #255
 3112 2c8c 0010C4E5 		strb	r1, [r4, #0]
 3113 2c90 34019FE5 		ldr	r0, .L284+304
 3114 2c94 FEFFFFEB 		bl	uart_transmit
 3115 2c98 500000EA 		b	.L91
 3116              	.L285:
 3117              		.align	2
 3118              	.L284:
 3119 2c9c 00000000 		.word	.LANCHOR7
 3120 2ca0 00000000 		.word	nav_in_segment
 3121 2ca4 00000000 		.word	nav_segment_x_1
 3122 2ca8 00000000 		.word	nav_segment_y_1
 3123 2cac 00000000 		.word	nav_segment_x_2
 3124 2cb0 00000000 		.word	nav_segment_y_2
 3125 2cb4 00000000 		.word	.LANCHOR8
 3126 2cb8 00000000 		.word	.LANCHOR20
 3127 2cbc 00000000 		.word	telemetry_mode_Fbw
 3128 2cc0 00000000 		.word	flight_altitude
 3129 2cc4 00000000 		.word	nav_course
 3130 2cc8 00000000 		.word	nav_shift
 3131 2ccc 00000000 		.word	.LANCHOR18
 3132 2cd0 00000000 		.word	nav_radius
 3133 2cd4 00000000 		.word	.LANCHOR22
 3134 2cd8 00000000 		.word	.LANCHOR19
 3135 2cdc 00000000 		.word	openlog_periodic_2Hz_openlog_status
 3136 2ce0 00000000 		.word	digital_cam_servo_servo_cam_ctrl_periodic_status
 3137 2ce4 00000000 		.word	.LANCHOR9
 3138 2ce8 00000000 		.word	.LANCHOR10
 3139 2cec 00000000 		.word	v_ctl_auto_throttle_sum_err
 3140 2cf0 00000000 		.word	v_ctl_auto_throttle_submode
 3141 2cf4 00000000 		.word	nav_survey_active
 3142 2cf8 00000000 		.word	nav_survey_east
 3143 2cfc 00000000 		.word	nav_survey_north
 3144 2d00 00000000 		.word	nav_survey_west
 3145 2d04 00000000 		.word	nav_survey_south
 3146 2d08 00000000 		.word	.LANCHOR11
 3147 2d0c 00000000 		.word	energy
 3148 2d10 00000000 		.word	vsupply
 3149 2d14 00002041 		.word	1092616192
 3150 2d18 00000000 		.word	.LANCHOR17
 3151 2d1c 00007A44 		.word	1148846080
 3152 2d20 00000000 		.word	.LANCHOR12
 3153 2d24 00000000 		.word	.LC0
 3154 2d28 00000000 		.word	.LANCHOR21
 3155 2d2c 00000000 		.word	v_ctl_mode
 3156 2d30 00000000 		.word	.LANCHOR23
 3157 2d34 00000000 		.word	horizontal_mode
 3158 2d38 00000000 		.word	.LANCHOR24
 3159 2d3c 00000000 		.word	infrared
 3160 2d40 00000000 		.word	.LANCHOR13
 3161 2d44 00000000 		.word	.LANCHOR25
 3162 2d48 66666666 		.word	1717986918
 3163 2d4c 66661440 		.word	1075078758
 3164 2d50 00000000 		.word	.LANCHOR14
 3165 2d54 00000000 		.word	nav_utm_east0
 3166 2d58 00000000 		.word	nav_utm_north0
 3167 2d5c 00000000 		.word	nav_utm_zone0
 3168 2d60 00000000 		.word	downlink_nb_ovrn
 3169 2d64 00000000 		.word	telemetry_mode_Ap
 3170 2d68 00000000 		.word	.LANCHOR27
 3171 2d6c 00000000 		.word	.LANCHOR28
 3172 2d70 00000000 		.word	.LANCHOR29
 3173 2d74 00000000 		.word	.LANCHOR30
 3174 2d78 00000000 		.word	.LANCHOR31
 3175 2d7c 00000000 		.word	.LANCHOR32
 3176 2d80 00000000 		.word	.LANCHOR33
 3177 2d84 00000000 		.word	.LANCHOR34
 3178 2d88 00000000 		.word	.LANCHOR35
 3179 2d8c 00000000 		.word	.LANCHOR36
 3180 2d90 00000000 		.word	.LANCHOR37
 3181 2d94 00000000 		.word	.LANCHOR38
 3182 2d98 31010000 		.word	305
 3183 2d9c 00000000 		.word	.LANCHOR39
 3184 2da0 00000000 		.word	.LANCHOR40
 3185 2da4 00000000 		.word	.LANCHOR41
 3186 2da8 5D020000 		.word	605
 3187 2dac 00000000 		.word	.LANCHOR26
 3188 2db0 00000000 		.word	gps
 3189 2db4 F8C1631A 		.word	442745336
 3190 2db8 DCA54C40 		.word	1078765020
 3191 2dbc 80842E41 		.word	1093567616
 3192 2dc0 00000000 		.word	downlink_nb_bytes
 3193 2dc4 00000000 		.word	downlink_nb_msgs
 3194 2dc8 00000000 		.word	xbee_cs
 3195 2dcc 00000000 		.word	uart0
 3196              	.L92:
 3197 2dd0 78301FE5 		ldr	r3, .L284+196
 3198 2dd4 0020D3E5 		ldrb	r2, [r3, #0]	@ zero_extendqisi2
 3199 2dd8 012082E2 		add	r2, r2, #1
 3200 2ddc 0020C3E5 		strb	r2, [r3, #0]
 3201              	.L91:
 3202 2de0 E0301FE5 		ldr	r3, .L284+108
 3203 2de4 0030D3E5 		ldrb	r3, [r3, #0]	@ zero_extendqisi2
 3204 2de8 2A0053E3 		cmp	r3, #42
 3205 2dec AA00001A 		bne	.L93
 3206 2df0 EC301FE5 		ldr	r3, .L284+112
 3207 2df4 000093E5 		ldr	r0, [r3, #0]	@ float
 3208 2df8 FEFFFFEB 		bl	__aeabi_f2iz
 3209 2dfc F4301FE5 		ldr	r3, .L284+116
 3210 2e00 BC01CDE1 		strh	r0, [sp, #28]	@ movhi
 3211 2e04 0000D3E5 		ldrb	r0, [r3, #0]	@ zero_extendqisi2
 3212 2e08 FEFFFFEB 		bl	__aeabi_ui2f
 3213 2e0c 00111FE5 		ldr	r1, .L284+120
 3214 2e10 FEFFFFEB 		bl	__aeabi_fdiv
 3215 2e14 04311FE5 		ldr	r3, .L284+124
 3216 2e18 0040A0E1 		mov	r4, r0
 3217 2e1c 14008DE5 		str	r0, [sp, #20]	@ float
 3218 2e20 000093E5 		ldr	r0, [r3, #0]
 3219 2e24 FEFFFFEB 		bl	__aeabi_i2f
 3220 2e28 14111FE5 		ldr	r1, .L284+128
 3221 2e2c FEFFFFEB 		bl	__aeabi_fdiv
 3222 2e30 0010A0E1 		mov	r1, r0
 3223 2e34 10008DE5 		str	r0, [sp, #16]	@ float
 3224 2e38 0400A0E1 		mov	r0, r4
 3225 2e3c FEFFFFEB 		bl	__aeabi_fmul
 3226 2e40 1910A0E3 		mov	r1, #25
 3227 2e44 18008DE5 		str	r0, [sp, #24]	@ float
 3228 2e48 84001FE5 		ldr	r0, .L284+304
 3229 2e4c FEFFFFEB 		bl	uart_check_free_space
 3230 2e50 000050E3 		cmp	r0, #0
 3231 2e54 8C00000A 		beq	.L94
 3232 2e58 A0301FE5 		ldr	r3, .L284+292
 3233 2e5c B020D3E1 		ldrh	r2, [r3, #0]
 3234 2e60 192082E2 		add	r2, r2, #25
 3235 2e64 B020C3E1 		strh	r2, [r3, #0]	@ movhi
 3236 2e68 AC301FE5 		ldr	r3, .L284+296
 3237 2e6c B020D3E1 		ldrh	r2, [r3, #0]
 3238 2e70 012082E2 		add	r2, r2, #1
 3239 2e74 B020C3E1 		strh	r2, [r3, #0]	@ movhi
 3240 2e78 B4001FE5 		ldr	r0, .L284+304
 3241 2e7c 7E10A0E3 		mov	r1, #126
 3242 2e80 C0401FE5 		ldr	r4, .L284+300
 3243 2e84 FEFFFFEB 		bl	uart_transmit
 3244 2e88 C4001FE5 		ldr	r0, .L284+304
 3245 2e8c 0010A0E3 		mov	r1, #0
 3246 2e90 FEFFFFEB 		bl	uart_transmit
 3247 2e94 0150A0E3 		mov	r5, #1
 3248 2e98 D4001FE5 		ldr	r0, .L284+304
 3249 2e9c 1510A0E3 		mov	r1, #21
 3250 2ea0 FEFFFFEB 		bl	uart_transmit
 3251 2ea4 0510A0E1 		mov	r1, r5
 3252 2ea8 0050C4E5 		strb	r5, [r4, #0]
 3253 2eac E8001FE5 		ldr	r0, .L284+304
 3254 2eb0 FEFFFFEB 		bl	uart_transmit
 3255 2eb4 F0001FE5 		ldr	r0, .L284+304
 3256 2eb8 0010A0E3 		mov	r1, #0
 3257 2ebc FEFFFFEB 		bl	uart_transmit
 3258 2ec0 0030D4E5 		ldrb	r3, [r4, #0]	@ zero_extendqisi2
 3259 2ec4 053083E0 		add	r3, r3, r5
 3260 2ec8 0030C4E5 		strb	r3, [r4, #0]
 3261 2ecc 0510A0E1 		mov	r1, r5
 3262 2ed0 0C011FE5 		ldr	r0, .L284+304
 3263 2ed4 FEFFFFEB 		bl	uart_transmit
 3264 2ed8 14011FE5 		ldr	r0, .L284+304
 3265 2edc 0010A0E3 		mov	r1, #0
 3266 2ee0 FEFFFFEB 		bl	uart_transmit
 3267 2ee4 20011FE5 		ldr	r0, .L284+304
 3268 2ee8 0010A0E3 		mov	r1, #0
 3269 2eec FEFFFFEB 		bl	uart_transmit
 3270 2ef0 0030D4E5 		ldrb	r3, [r4, #0]	@ zero_extendqisi2
 3271 2ef4 023083E2 		add	r3, r3, #2
 3272 2ef8 0030C4E5 		strb	r3, [r4, #0]
 3273 2efc 38011FE5 		ldr	r0, .L284+304
 3274 2f00 0210A0E3 		mov	r1, #2
 3275 2f04 FEFFFFEB 		bl	uart_transmit
 3276 2f08 0030D4E5 		ldrb	r3, [r4, #0]	@ zero_extendqisi2
 3277 2f0c 253083E2 		add	r3, r3, #37
 3278 2f10 0030C4E5 		strb	r3, [r4, #0]
 3279 2f14 50011FE5 		ldr	r0, .L284+304
 3280 2f18 2510A0E3 		mov	r1, #37
 3281 2f1c FEFFFFEB 		bl	uart_transmit
 3282 2f20 1410DDE5 		ldrb	r1, [sp, #20]	@ zero_extendqisi2
 3283 2f24 0030D4E5 		ldrb	r3, [r4, #0]	@ zero_extendqisi2
 3284 2f28 033081E0 		add	r3, r1, r3
 3285 2f2c 0030C4E5 		strb	r3, [r4, #0]
 3286 2f30 6C011FE5 		ldr	r0, .L284+304
 3287 2f34 FEFFFFEB 		bl	uart_transmit
 3288 2f38 1510DDE5 		ldrb	r1, [sp, #21]	@ zero_extendqisi2
 3289 2f3c 0030D4E5 		ldrb	r3, [r4, #0]	@ zero_extendqisi2
 3290 2f40 033081E0 		add	r3, r1, r3
 3291 2f44 0030C4E5 		strb	r3, [r4, #0]
 3292 2f48 84011FE5 		ldr	r0, .L284+304
 3293 2f4c FEFFFFEB 		bl	uart_transmit
 3294 2f50 1610DDE5 		ldrb	r1, [sp, #22]	@ zero_extendqisi2
 3295 2f54 0030D4E5 		ldrb	r3, [r4, #0]	@ zero_extendqisi2
 3296 2f58 033081E0 		add	r3, r1, r3
 3297 2f5c 0030C4E5 		strb	r3, [r4, #0]
 3298 2f60 9C011FE5 		ldr	r0, .L284+304
 3299 2f64 FEFFFFEB 		bl	uart_transmit
 3300 2f68 1710DDE5 		ldrb	r1, [sp, #23]	@ zero_extendqisi2
 3301 2f6c 0030D4E5 		ldrb	r3, [r4, #0]	@ zero_extendqisi2
 3302 2f70 033081E0 		add	r3, r1, r3
 3303 2f74 0030C4E5 		strb	r3, [r4, #0]
 3304 2f78 B4011FE5 		ldr	r0, .L284+304
 3305 2f7c FEFFFFEB 		bl	uart_transmit
 3306 2f80 1010DDE5 		ldrb	r1, [sp, #16]	@ zero_extendqisi2
 3307 2f84 0030D4E5 		ldrb	r3, [r4, #0]	@ zero_extendqisi2
 3308 2f88 033081E0 		add	r3, r1, r3
 3309 2f8c 0030C4E5 		strb	r3, [r4, #0]
 3310 2f90 CC011FE5 		ldr	r0, .L284+304
 3311 2f94 FEFFFFEB 		bl	uart_transmit
 3312 2f98 1110DDE5 		ldrb	r1, [sp, #17]	@ zero_extendqisi2
 3313 2f9c 0030D4E5 		ldrb	r3, [r4, #0]	@ zero_extendqisi2
 3314 2fa0 033081E0 		add	r3, r1, r3
 3315 2fa4 0030C4E5 		strb	r3, [r4, #0]
 3316 2fa8 E4011FE5 		ldr	r0, .L284+304
 3317 2fac FEFFFFEB 		bl	uart_transmit
 3318 2fb0 1210DDE5 		ldrb	r1, [sp, #18]	@ zero_extendqisi2
 3319 2fb4 0030D4E5 		ldrb	r3, [r4, #0]	@ zero_extendqisi2
 3320 2fb8 033081E0 		add	r3, r1, r3
 3321 2fbc 0030C4E5 		strb	r3, [r4, #0]
 3322 2fc0 FC011FE5 		ldr	r0, .L284+304
 3323 2fc4 FEFFFFEB 		bl	uart_transmit
 3324 2fc8 1310DDE5 		ldrb	r1, [sp, #19]	@ zero_extendqisi2
 3325 2fcc 0030D4E5 		ldrb	r3, [r4, #0]	@ zero_extendqisi2
 3326 2fd0 033081E0 		add	r3, r1, r3
 3327 2fd4 0030C4E5 		strb	r3, [r4, #0]
 3328 2fd8 14021FE5 		ldr	r0, .L284+304
 3329 2fdc FEFFFFEB 		bl	uart_transmit
 3330 2fe0 1C10DDE5 		ldrb	r1, [sp, #28]	@ zero_extendqisi2
 3331 2fe4 0030D4E5 		ldrb	r3, [r4, #0]	@ zero_extendqisi2
 3332 2fe8 033081E0 		add	r3, r1, r3
 3333 2fec 0030C4E5 		strb	r3, [r4, #0]
 3334 2ff0 2C021FE5 		ldr	r0, .L284+304
 3335 2ff4 FEFFFFEB 		bl	uart_transmit
 3336 2ff8 1D10DDE5 		ldrb	r1, [sp, #29]	@ zero_extendqisi2
 3337 2ffc 0030D4E5 		ldrb	r3, [r4, #0]	@ zero_extendqisi2
 3338 3000 033081E0 		add	r3, r1, r3
 3339 3004 0030C4E5 		strb	r3, [r4, #0]
 3340 3008 44021FE5 		ldr	r0, .L284+304
 3341 300c FEFFFFEB 		bl	uart_transmit
 3342 3010 1810DDE5 		ldrb	r1, [sp, #24]	@ zero_extendqisi2
 3343 3014 0030D4E5 		ldrb	r3, [r4, #0]	@ zero_extendqisi2
 3344 3018 033081E0 		add	r3, r1, r3
 3345 301c 0030C4E5 		strb	r3, [r4, #0]
 3346 3020 5C021FE5 		ldr	r0, .L284+304
 3347 3024 FEFFFFEB 		bl	uart_transmit
 3348 3028 1910DDE5 		ldrb	r1, [sp, #25]	@ zero_extendqisi2
 3349 302c 0030D4E5 		ldrb	r3, [r4, #0]	@ zero_extendqisi2
 3350 3030 033081E0 		add	r3, r1, r3
 3351 3034 0030C4E5 		strb	r3, [r4, #0]
 3352 3038 74021FE5 		ldr	r0, .L284+304
 3353 303c FEFFFFEB 		bl	uart_transmit
 3354 3040 1A10DDE5 		ldrb	r1, [sp, #26]	@ zero_extendqisi2
 3355 3044 0030D4E5 		ldrb	r3, [r4, #0]	@ zero_extendqisi2
 3356 3048 033081E0 		add	r3, r1, r3
 3357 304c 0030C4E5 		strb	r3, [r4, #0]
 3358 3050 8C021FE5 		ldr	r0, .L284+304
 3359 3054 FEFFFFEB 		bl	uart_transmit
 3360 3058 1B10DDE5 		ldrb	r1, [sp, #27]	@ zero_extendqisi2
 3361 305c 0030D4E5 		ldrb	r3, [r4, #0]	@ zero_extendqisi2
 3362 3060 033081E0 		add	r3, r1, r3
 3363 3064 0030C4E5 		strb	r3, [r4, #0]
 3364 3068 A4021FE5 		ldr	r0, .L284+304
 3365 306c FEFFFFEB 		bl	uart_transmit
 3366 3070 0010D4E5 		ldrb	r1, [r4, #0]	@ zero_extendqisi2
 3367 3074 0110E0E1 		mvn	r1, r1
 3368 3078 FF1001E2 		and	r1, r1, #255
 3369 307c 0010C4E5 		strb	r1, [r4, #0]
 3370 3080 BC021FE5 		ldr	r0, .L284+304
 3371 3084 FEFFFFEB 		bl	uart_transmit
 3372 3088 030000EA 		b	.L93
 3373              	.L94:
 3374 308c 34331FE5 		ldr	r3, .L284+196
 3375 3090 0020D3E5 		ldrb	r2, [r3, #0]	@ zero_extendqisi2
 3376 3094 012082E2 		add	r2, r2, #1
 3377 3098 0020C3E5 		strb	r2, [r3, #0]
 3378              	.L93:
 3379 309c 84331FE5 		ldr	r3, .L284+132
 3380 30a0 B030D3E1 		ldrh	r3, [r3, #0]
 3381 30a4 300053E3 		cmp	r3, #48
 3382 30a8 4D00001A 		bne	.L95
 3383 30ac E8021FE5 		ldr	r0, .L284+304
 3384 30b0 1C10A0E3 		mov	r1, #28
 3385 30b4 FEFFFFEB 		bl	uart_check_free_space
 3386 30b8 000050E3 		cmp	r0, #0
 3387 30bc 0901000A 		beq	.L102
 3388 30c0 08331FE5 		ldr	r3, .L284+292
 3389 30c4 B020D3E1 		ldrh	r2, [r3, #0]
 3390 30c8 1C2082E2 		add	r2, r2, #28
 3391 30cc B020C3E1 		strh	r2, [r3, #0]	@ movhi
 3392 30d0 14331FE5 		ldr	r3, .L284+296
 3393 30d4 B020D3E1 		ldrh	r2, [r3, #0]
 3394 30d8 012082E2 		add	r2, r2, #1
 3395 30dc B020C3E1 		strh	r2, [r3, #0]	@ movhi
 3396 30e0 1C031FE5 		ldr	r0, .L284+304
 3397 30e4 7E10A0E3 		mov	r1, #126
 3398 30e8 28431FE5 		ldr	r4, .L284+300
 3399 30ec FEFFFFEB 		bl	uart_transmit
 3400 30f0 2C031FE5 		ldr	r0, .L284+304
 3401 30f4 0010A0E3 		mov	r1, #0
 3402 30f8 0150A0E3 		mov	r5, #1
 3403 30fc FEFFFFEB 		bl	uart_transmit
 3404 3100 3C031FE5 		ldr	r0, .L284+304
 3405 3104 1810A0E3 		mov	r1, #24
 3406 3108 FEFFFFEB 		bl	uart_transmit
 3407 310c 0510A0E1 		mov	r1, r5
 3408 3110 0050C4E5 		strb	r5, [r4, #0]
 3409 3114 50031FE5 		ldr	r0, .L284+304
 3410 3118 FEFFFFEB 		bl	uart_transmit
 3411 311c 58031FE5 		ldr	r0, .L284+304
 3412 3120 0010A0E3 		mov	r1, #0
 3413 3124 FEFFFFEB 		bl	uart_transmit
 3414 3128 0030D4E5 		ldrb	r3, [r4, #0]	@ zero_extendqisi2
 3415 312c 053083E0 		add	r3, r3, r5
 3416 3130 0030C4E5 		strb	r3, [r4, #0]
 3417 3134 0510A0E1 		mov	r1, r5
 3418 3138 74031FE5 		ldr	r0, .L284+304
 3419 313c FEFFFFEB 		bl	uart_transmit
 3420 3140 7C031FE5 		ldr	r0, .L284+304
 3421 3144 0010A0E3 		mov	r1, #0
 3422 3148 FEFFFFEB 		bl	uart_transmit
 3423 314c 88031FE5 		ldr	r0, .L284+304
 3424 3150 0010A0E3 		mov	r1, #0
 3425 3154 FEFFFFEB 		bl	uart_transmit
 3426 3158 0030D4E5 		ldrb	r3, [r4, #0]	@ zero_extendqisi2
 3427 315c 023083E2 		add	r3, r3, #2
 3428 3160 0030C4E5 		strb	r3, [r4, #0]
 3429 3164 A0031FE5 		ldr	r0, .L284+304
 3430 3168 0210A0E3 		mov	r1, #2
 3431 316c FEFFFFEB 		bl	uart_transmit
 3432 3170 0030D4E5 		ldrb	r3, [r4, #0]	@ zero_extendqisi2
 3433 3174 023083E2 		add	r3, r3, #2
 3434 3178 0030C4E5 		strb	r3, [r4, #0]
 3435 317c B8031FE5 		ldr	r0, .L284+304
 3436 3180 0210A0E3 		mov	r1, #2
 3437 3184 FEFFFFEB 		bl	uart_transmit
 3438 3188 0030D4E5 		ldrb	r3, [r4, #0]	@ zero_extendqisi2
 3439 318c 103083E2 		add	r3, r3, #16
 3440 3190 0030C4E5 		strb	r3, [r4, #0]
 3441 3194 D0031FE5 		ldr	r0, .L284+304
 3442 3198 1010A0E3 		mov	r1, #16
 3443 319c FEFFFFEB 		bl	uart_transmit
 3444 31a0 84741FE5 		ldr	r7, .L284+136
 3445 31a4 0050A0E3 		mov	r5, #0
 3446              	.L97:
 3447 31a8 0510D7E7 		ldrb	r1, [r7, r5]	@ zero_extendqisi2
 3448 31ac 0030D4E5 		ldrb	r3, [r4, #0]	@ zero_extendqisi2
 3449 31b0 033081E0 		add	r3, r1, r3
 3450 31b4 0030C4E5 		strb	r3, [r4, #0]
 3451 31b8 F4031FE5 		ldr	r0, .L284+304
 3452 31bc 015085E2 		add	r5, r5, #1
 3453 31c0 FEFFFFEB 		bl	uart_transmit
 3454 31c4 100055E3 		cmp	r5, #16
 3455 31c8 08641FE5 		ldr	r6, .L284+300
 3456 31cc F5FFFF1A 		bne	.L97
 3457 31d0 0010D6E5 		ldrb	r1, [r6, #0]	@ zero_extendqisi2
 3458 31d4 0110E0E1 		mvn	r1, r1
 3459 31d8 FF1001E2 		and	r1, r1, #255
 3460 31dc 0010C6E5 		strb	r1, [r6, #0]
 3461 31e0 620000EA 		b	.L266
 3462              	.L95:
 3463 31e4 360053E3 		cmp	r3, #54
 3464 31e8 6300001A 		bne	.L99
 3465 31ec 28041FE5 		ldr	r0, .L284+304
 3466 31f0 1110A0E3 		mov	r1, #17
 3467 31f4 FEFFFFEB 		bl	uart_check_free_space
 3468 31f8 000050E3 		cmp	r0, #0
 3469 31fc B900000A 		beq	.L102
 3470 3200 48341FE5 		ldr	r3, .L284+292
 3471 3204 B020D3E1 		ldrh	r2, [r3, #0]
 3472 3208 112082E2 		add	r2, r2, #17
 3473 320c B020C3E1 		strh	r2, [r3, #0]	@ movhi
 3474 3210 54341FE5 		ldr	r3, .L284+296
 3475 3214 B020D3E1 		ldrh	r2, [r3, #0]
 3476 3218 012082E2 		add	r2, r2, #1
 3477 321c B020C3E1 		strh	r2, [r3, #0]	@ movhi
 3478 3220 5C041FE5 		ldr	r0, .L284+304
 3479 3224 7E10A0E3 		mov	r1, #126
 3480 3228 68441FE5 		ldr	r4, .L284+300
 3481 322c FEFFFFEB 		bl	uart_transmit
 3482 3230 6C041FE5 		ldr	r0, .L284+304
 3483 3234 0010A0E3 		mov	r1, #0
 3484 3238 FEFFFFEB 		bl	uart_transmit
 3485 323c 0150A0E3 		mov	r5, #1
 3486 3240 7C041FE5 		ldr	r0, .L284+304
 3487 3244 0D10A0E3 		mov	r1, #13
 3488 3248 FEFFFFEB 		bl	uart_transmit
 3489 324c 88041FE5 		ldr	r0, .L284+304
 3490 3250 0510A0E1 		mov	r1, r5
 3491 3254 0050C4E5 		strb	r5, [r4, #0]
 3492 3258 FEFFFFEB 		bl	uart_transmit
 3493 325c 98041FE5 		ldr	r0, .L284+304
 3494 3260 0010A0E3 		mov	r1, #0
 3495 3264 FEFFFFEB 		bl	uart_transmit
 3496 3268 0030D4E5 		ldrb	r3, [r4, #0]	@ zero_extendqisi2
 3497 326c 053083E0 		add	r3, r3, r5
 3498 3270 0030C4E5 		strb	r3, [r4, #0]
 3499 3274 B0041FE5 		ldr	r0, .L284+304
 3500 3278 0510A0E1 		mov	r1, r5
 3501 327c FEFFFFEB 		bl	uart_transmit
 3502 3280 BC041FE5 		ldr	r0, .L284+304
 3503 3284 0010A0E3 		mov	r1, #0
 3504 3288 FEFFFFEB 		bl	uart_transmit
 3505 328c C8041FE5 		ldr	r0, .L284+304
 3506 3290 0010A0E3 		mov	r1, #0
 3507 3294 FEFFFFEB 		bl	uart_transmit
 3508 3298 0030D4E5 		ldrb	r3, [r4, #0]	@ zero_extendqisi2
 3509 329c 023083E2 		add	r3, r3, #2
 3510 32a0 0030C4E5 		strb	r3, [r4, #0]
 3511 32a4 E0041FE5 		ldr	r0, .L284+304
 3512 32a8 0210A0E3 		mov	r1, #2
 3513 32ac FEFFFFEB 		bl	uart_transmit
 3514 32b0 0030D4E5 		ldrb	r3, [r4, #0]	@ zero_extendqisi2
 3515 32b4 0B3083E2 		add	r3, r3, #11
 3516 32b8 0030C4E5 		strb	r3, [r4, #0]
 3517 32bc F8041FE5 		ldr	r0, .L284+304
 3518 32c0 0B10A0E3 		mov	r1, #11
 3519 32c4 FEFFFFEB 		bl	uart_transmit
 3520 32c8 A8351FE5 		ldr	r3, .L284+140
 3521 32cc 0010D3E5 		ldrb	r1, [r3, #0]	@ zero_extendqisi2
 3522 32d0 0030D4E5 		ldrb	r3, [r4, #0]	@ zero_extendqisi2
 3523 32d4 033081E0 		add	r3, r1, r3
 3524 32d8 0030C4E5 		strb	r3, [r4, #0]
 3525 32dc 18051FE5 		ldr	r0, .L284+304
 3526 32e0 FEFFFFEB 		bl	uart_transmit
 3527 32e4 C0351FE5 		ldr	r3, .L284+144
 3528 32e8 0010D3E5 		ldrb	r1, [r3, #0]	@ zero_extendqisi2
 3529 32ec 0030D4E5 		ldrb	r3, [r4, #0]	@ zero_extendqisi2
 3530 32f0 033081E0 		add	r3, r1, r3
 3531 32f4 0030C4E5 		strb	r3, [r4, #0]
 3532 32f8 34051FE5 		ldr	r0, .L284+304
 3533 32fc FEFFFFEB 		bl	uart_transmit
 3534 3300 D8351FE5 		ldr	r3, .L284+148
 3535 3304 0010D3E5 		ldrb	r1, [r3, #0]	@ zero_extendqisi2
 3536 3308 0030D4E5 		ldrb	r3, [r4, #0]	@ zero_extendqisi2
 3537 330c 033081E0 		add	r3, r1, r3
 3538 3310 0030C4E5 		strb	r3, [r4, #0]
 3539 3314 50051FE5 		ldr	r0, .L284+304
 3540 3318 FEFFFFEB 		bl	uart_transmit
 3541 331c F0351FE5 		ldr	r3, .L284+152
 3542 3320 0010D3E5 		ldrb	r1, [r3, #0]	@ zero_extendqisi2
 3543 3324 0030D4E5 		ldrb	r3, [r4, #0]	@ zero_extendqisi2
 3544 3328 033081E0 		add	r3, r1, r3
 3545 332c 0030C4E5 		strb	r3, [r4, #0]
 3546 3330 6C051FE5 		ldr	r0, .L284+304
 3547 3334 FEFFFFEB 		bl	uart_transmit
 3548 3338 0010A0E3 		mov	r1, #0
 3549 333c 78051FE5 		ldr	r0, .L284+304
 3550 3340 FEFFFFEB 		bl	uart_transmit
 3551 3344 14361FE5 		ldr	r3, .L284+156
 3552 3348 0010D3E5 		ldrb	r1, [r3, #0]	@ zero_extendqisi2
 3553              	.L278:
 3554 334c 0030D4E5 		ldrb	r3, [r4, #0]	@ zero_extendqisi2
 3555 3350 033081E0 		add	r3, r1, r3
 3556 3354 0030C4E5 		strb	r3, [r4, #0]
 3557 3358 94051FE5 		ldr	r0, .L284+304
 3558 335c FEFFFFEB 		bl	uart_transmit
 3559 3360 0010D4E5 		ldrb	r1, [r4, #0]	@ zero_extendqisi2
 3560 3364 0110E0E1 		mvn	r1, r1
 3561 3368 FF1001E2 		and	r1, r1, #255
 3562 336c 0010C4E5 		strb	r1, [r4, #0]
 3563              	.L266:
 3564 3370 AC051FE5 		ldr	r0, .L284+304
 3565 3374 FEFFFFEB 		bl	uart_transmit
 3566 3378 5E0000EA 		b	.L98
 3567              	.L99:
 3568 337c 3C0053E3 		cmp	r3, #60
 3569 3380 5C00000A 		beq	.L98
 3570 3384 420053E3 		cmp	r3, #66
 3571 3388 5A00001A 		bne	.L98
 3572 338c 58361FE5 		ldr	r3, .L284+160
 3573 3390 F661D3E1 		ldrsh	r6, [r3, #22]
 3574 3394 F421D3E1 		ldrsh	r2, [r3, #20]
 3575 3398 F831D3E1 		ldrsh	r3, [r3, #24]
 3576 339c 000052E3 		cmp	r2, #0
 3577 33a0 002062B2 		rsblt	r2, r2, #0
 3578 33a4 000056E3 		cmp	r6, #0
 3579 33a8 006066B2 		rsblt	r6, r6, #0
 3580 33ac 000053E3 		cmp	r3, #0
 3581 33b0 003063B2 		rsblt	r3, r3, #0
 3582 33b4 026086E0 		add	r6, r6, r2
 3583 33b8 036086E0 		add	r6, r6, r3
 3584 33bc 0668A0E1 		mov	r6, r6, asl #16
 3585 33c0 2668A0E1 		mov	r6, r6, lsr #16
 3586 33c4 310056E3 		cmp	r6, #49
 3587 33c8 04061FE5 		ldr	r0, .L284+304
 3588 33cc 0E10A0E3 		mov	r1, #14
 3589 33d0 BC61CDE1 		strh	r6, [sp, #28]	@ movhi
 3590 33d4 0760A093 		movls	r6, #7
 3591 33d8 0360A083 		movhi	r6, #3
 3592 33dc FEFFFFEB 		bl	uart_check_free_space
 3593 33e0 000050E3 		cmp	r0, #0
 3594 33e4 3F00000A 		beq	.L102
 3595 33e8 30361FE5 		ldr	r3, .L284+292
 3596 33ec B020D3E1 		ldrh	r2, [r3, #0]
 3597 33f0 0E2082E2 		add	r2, r2, #14
 3598 33f4 B020C3E1 		strh	r2, [r3, #0]	@ movhi
 3599 33f8 3C361FE5 		ldr	r3, .L284+296
 3600 33fc B020D3E1 		ldrh	r2, [r3, #0]
 3601 3400 012082E2 		add	r2, r2, #1
 3602 3404 B020C3E1 		strh	r2, [r3, #0]	@ movhi
 3603 3408 44061FE5 		ldr	r0, .L284+304
 3604 340c 7E10A0E3 		mov	r1, #126
 3605 3410 50461FE5 		ldr	r4, .L284+300
 3606 3414 FEFFFFEB 		bl	uart_transmit
 3607 3418 54061FE5 		ldr	r0, .L284+304
 3608 341c 0010A0E3 		mov	r1, #0
 3609 3420 FEFFFFEB 		bl	uart_transmit
 3610 3424 0150A0E3 		mov	r5, #1
 3611 3428 64061FE5 		ldr	r0, .L284+304
 3612 342c 0A10A0E3 		mov	r1, #10
 3613 3430 FEFFFFEB 		bl	uart_transmit
 3614 3434 70061FE5 		ldr	r0, .L284+304
 3615 3438 0510A0E1 		mov	r1, r5
 3616 343c 0050C4E5 		strb	r5, [r4, #0]
 3617 3440 FEFFFFEB 		bl	uart_transmit
 3618 3444 80061FE5 		ldr	r0, .L284+304
 3619 3448 0010A0E3 		mov	r1, #0
 3620 344c FEFFFFEB 		bl	uart_transmit
 3621 3450 0030D4E5 		ldrb	r3, [r4, #0]	@ zero_extendqisi2
 3622 3454 053083E0 		add	r3, r3, r5
 3623 3458 0030C4E5 		strb	r3, [r4, #0]
 3624 345c 98061FE5 		ldr	r0, .L284+304
 3625 3460 0510A0E1 		mov	r1, r5
 3626 3464 FEFFFFEB 		bl	uart_transmit
 3627 3468 A4061FE5 		ldr	r0, .L284+304
 3628 346c 0010A0E3 		mov	r1, #0
 3629 3470 FEFFFFEB 		bl	uart_transmit
 3630 3474 B0061FE5 		ldr	r0, .L284+304
 3631 3478 0010A0E3 		mov	r1, #0
 3632 347c FEFFFFEB 		bl	uart_transmit
 3633 3480 0030D4E5 		ldrb	r3, [r4, #0]	@ zero_extendqisi2
 3634 3484 023083E2 		add	r3, r3, #2
 3635 3488 0030C4E5 		strb	r3, [r4, #0]
 3636 348c C8061FE5 		ldr	r0, .L284+304
 3637 3490 0210A0E3 		mov	r1, #2
 3638 3494 FEFFFFEB 		bl	uart_transmit
 3639 3498 0030D4E5 		ldrb	r3, [r4, #0]	@ zero_extendqisi2
 3640 349c 183043E2 		sub	r3, r3, #24
 3641 34a0 0030C4E5 		strb	r3, [r4, #0]
 3642 34a4 E0061FE5 		ldr	r0, .L284+304
 3643 34a8 E810A0E3 		mov	r1, #232
 3644 34ac FEFFFFEB 		bl	uart_transmit
 3645 34b0 0030D4E5 		ldrb	r3, [r4, #0]	@ zero_extendqisi2
 3646 34b4 033086E0 		add	r3, r6, r3
 3647 34b8 0030C4E5 		strb	r3, [r4, #0]
 3648 34bc F8061FE5 		ldr	r0, .L284+304
 3649 34c0 0610A0E1 		mov	r1, r6
 3650 34c4 FEFFFFEB 		bl	uart_transmit
 3651 34c8 1C10DDE5 		ldrb	r1, [sp, #28]	@ zero_extendqisi2
 3652 34cc 0030D4E5 		ldrb	r3, [r4, #0]	@ zero_extendqisi2
 3653 34d0 033081E0 		add	r3, r1, r3
 3654 34d4 0030C4E5 		strb	r3, [r4, #0]
 3655 34d8 14071FE5 		ldr	r0, .L284+304
 3656 34dc FEFFFFEB 		bl	uart_transmit
 3657 34e0 1D10DDE5 		ldrb	r1, [sp, #29]	@ zero_extendqisi2
 3658 34e4 98FFFFEA 		b	.L278
 3659              	.L102:
 3660 34e8 90371FE5 		ldr	r3, .L284+196
 3661 34ec 0020D3E5 		ldrb	r2, [r3, #0]	@ zero_extendqisi2
 3662 34f0 012082E2 		add	r2, r2, #1
 3663 34f4 0020C3E5 		strb	r2, [r3, #0]
 3664              	.L98:
 3665 34f8 C0371FE5 		ldr	r3, .L284+164
 3666 34fc B030D3E1 		ldrh	r3, [r3, #0]
 3667 3500 480053E3 		cmp	r3, #72
 3668 3504 6B00001A 		bne	.L103
 3669 3508 CC571FE5 		ldr	r5, .L284+168
 3670 350c 54471FE5 		ldr	r4, .L284+292
 3671 3510 B000D5E1 		ldrh	r0, [r5, #0]
 3672 3514 B060D4E1 		ldrh	r6, [r4, #0]
 3673 3518 060060E0 		rsb	r0, r0, r6
 3674 351c FEFFFFEB 		bl	__aeabi_i2d
 3675 3520 E0271FE5 		ldr	r2, .L284+172
 3676 3524 E0371FE5 		ldr	r3, .L284+176
 3677 3528 FEFFFFEB 		bl	__aeabi_ddiv
 3678 352c FEFFFFEB 		bl	__aeabi_d2uiz
 3679 3530 B060C5E1 		strh	r6, [r5, #0]	@ movhi
 3680 3534 BC01CDE1 		strh	r0, [sp, #28]	@ movhi
 3681 3538 1010A0E3 		mov	r1, #16
 3682 353c 78071FE5 		ldr	r0, .L284+304
 3683 3540 FEFFFFEB 		bl	uart_check_free_space
 3684 3544 000050E3 		cmp	r0, #0
 3685 3548 5600000A 		beq	.L104
 3686 354c B030D4E1 		ldrh	r3, [r4, #0]
 3687 3550 94571FE5 		ldr	r5, .L284+296
 3688 3554 103083E2 		add	r3, r3, #16
 3689 3558 B030C4E1 		strh	r3, [r4, #0]	@ movhi
 3690 355c B030D5E1 		ldrh	r3, [r5, #0]
 3691 3560 013083E2 		add	r3, r3, #1
 3692 3564 B030C5E1 		strh	r3, [r5, #0]	@ movhi
 3693 3568 A4071FE5 		ldr	r0, .L284+304
 3694 356c 7E10A0E3 		mov	r1, #126
 3695 3570 B0471FE5 		ldr	r4, .L284+300
 3696 3574 FEFFFFEB 		bl	uart_transmit
 3697 3578 B4071FE5 		ldr	r0, .L284+304
 3698 357c 0010A0E3 		mov	r1, #0
 3699 3580 FEFFFFEB 		bl	uart_transmit
 3700 3584 0160A0E3 		mov	r6, #1
 3701 3588 C4071FE5 		ldr	r0, .L284+304
 3702 358c 0C10A0E3 		mov	r1, #12
 3703 3590 FEFFFFEB 		bl	uart_transmit
 3704 3594 0610A0E1 		mov	r1, r6
 3705 3598 0060C4E5 		strb	r6, [r4, #0]
 3706 359c D8071FE5 		ldr	r0, .L284+304
 3707 35a0 FEFFFFEB 		bl	uart_transmit
 3708 35a4 E0071FE5 		ldr	r0, .L284+304
 3709 35a8 0010A0E3 		mov	r1, #0
 3710 35ac FEFFFFEB 		bl	uart_transmit
 3711 35b0 0030D4E5 		ldrb	r3, [r4, #0]	@ zero_extendqisi2
 3712 35b4 063083E0 		add	r3, r3, r6
 3713 35b8 0030C4E5 		strb	r3, [r4, #0]
 3714 35bc 0610A0E1 		mov	r1, r6
 3715 35c0 FC071FE5 		ldr	r0, .L284+304
 3716 35c4 FEFFFFEB 		bl	uart_transmit
 3717 35c8 04081FE5 		ldr	r0, .L284+304
 3718 35cc 0010A0E3 		mov	r1, #0
 3719 35d0 FEFFFFEB 		bl	uart_transmit
 3720 35d4 10081FE5 		ldr	r0, .L284+304
 3721 35d8 0010A0E3 		mov	r1, #0
 3722 35dc FEFFFFEB 		bl	uart_transmit
 3723 35e0 0030D4E5 		ldrb	r3, [r4, #0]	@ zero_extendqisi2
 3724 35e4 023083E2 		add	r3, r3, #2
 3725 35e8 0030C4E5 		strb	r3, [r4, #0]
 3726 35ec 28081FE5 		ldr	r0, .L284+304
 3727 35f0 0210A0E3 		mov	r1, #2
 3728 35f4 FEFFFFEB 		bl	uart_transmit
 3729 35f8 0030D4E5 		ldrb	r3, [r4, #0]	@ zero_extendqisi2
 3730 35fc 1E3083E2 		add	r3, r3, #30
 3731 3600 0030C4E5 		strb	r3, [r4, #0]
 3732 3604 40081FE5 		ldr	r0, .L284+304
 3733 3608 1E10A0E3 		mov	r1, #30
 3734 360c FEFFFFEB 		bl	uart_transmit
 3735 3610 B8381FE5 		ldr	r3, .L284+196
 3736 3614 0010D3E5 		ldrb	r1, [r3, #0]	@ zero_extendqisi2
 3737 3618 0030D4E5 		ldrb	r3, [r4, #0]	@ zero_extendqisi2
 3738 361c 033081E0 		add	r3, r1, r3
 3739 3620 0030C4E5 		strb	r3, [r4, #0]
 3740 3624 60081FE5 		ldr	r0, .L284+304
 3741 3628 FEFFFFEB 		bl	uart_transmit
 3742 362c 1C10DDE5 		ldrb	r1, [sp, #28]	@ zero_extendqisi2
 3743 3630 0030D4E5 		ldrb	r3, [r4, #0]	@ zero_extendqisi2
 3744 3634 033081E0 		add	r3, r1, r3
 3745 3638 0030C4E5 		strb	r3, [r4, #0]
 3746 363c 78081FE5 		ldr	r0, .L284+304
 3747 3640 FEFFFFEB 		bl	uart_transmit
 3748 3644 1D10DDE5 		ldrb	r1, [sp, #29]	@ zero_extendqisi2
 3749 3648 0030D4E5 		ldrb	r3, [r4, #0]	@ zero_extendqisi2
 3750 364c 033081E0 		add	r3, r1, r3
 3751 3650 0030C4E5 		strb	r3, [r4, #0]
 3752 3654 90081FE5 		ldr	r0, .L284+304
 3753 3658 FEFFFFEB 		bl	uart_transmit
 3754 365c 0010D5E5 		ldrb	r1, [r5, #0]	@ zero_extendqisi2
 3755 3660 0030D4E5 		ldrb	r3, [r4, #0]	@ zero_extendqisi2
 3756 3664 033081E0 		add	r3, r1, r3
 3757 3668 0030C4E5 		strb	r3, [r4, #0]
 3758 366c A8081FE5 		ldr	r0, .L284+304
 3759 3670 FEFFFFEB 		bl	uart_transmit
 3760 3674 0110D5E5 		ldrb	r1, [r5, #1]	@ zero_extendqisi2
 3761 3678 0030D4E5 		ldrb	r3, [r4, #0]	@ zero_extendqisi2
 3762 367c 033081E0 		add	r3, r1, r3
 3763 3680 0030C4E5 		strb	r3, [r4, #0]
 3764 3684 C0081FE5 		ldr	r0, .L284+304
 3765 3688 FEFFFFEB 		bl	uart_transmit
 3766 368c 0010D4E5 		ldrb	r1, [r4, #0]	@ zero_extendqisi2
 3767 3690 0110E0E1 		mvn	r1, r1
 3768 3694 FF1001E2 		and	r1, r1, #255
 3769 3698 0010C4E5 		strb	r1, [r4, #0]
 3770 369c D8081FE5 		ldr	r0, .L284+304
 3771 36a0 FEFFFFEB 		bl	uart_transmit
 3772 36a4 030000EA 		b	.L103
 3773              	.L104:
 3774 36a8 50391FE5 		ldr	r3, .L284+196
 3775 36ac 0020D3E5 		ldrb	r2, [r3, #0]	@ zero_extendqisi2
 3776 36b0 012082E2 		add	r2, r2, #1
 3777 36b4 0020C3E5 		strb	r2, [r3, #0]
 3778              	.L103:
 3779 36b8 70391FE5 		ldr	r3, .L284+180
 3780 36bc B030D3E1 		ldrh	r3, [r3, #0]
 3781 36c0 4E0053E3 		cmp	r3, #78
 3782 36c4 7A00001A 		bne	.L25
 3783 36c8 04091FE5 		ldr	r0, .L284+304
 3784 36cc 1410A0E3 		mov	r1, #20
 3785 36d0 FEFFFFEB 		bl	uart_check_free_space
 3786 36d4 000050E3 		cmp	r0, #0
 3787 36d8 7100000A 		beq	.L105
 3788 36dc 24391FE5 		ldr	r3, .L284+292
 3789 36e0 B020D3E1 		ldrh	r2, [r3, #0]
 3790 36e4 142082E2 		add	r2, r2, #20
 3791 36e8 B020C3E1 		strh	r2, [r3, #0]	@ movhi
 3792 36ec 30391FE5 		ldr	r3, .L284+296
 3793 36f0 B020D3E1 		ldrh	r2, [r3, #0]
 3794 36f4 012082E2 		add	r2, r2, #1
 3795 36f8 B020C3E1 		strh	r2, [r3, #0]	@ movhi
 3796 36fc 38091FE5 		ldr	r0, .L284+304
 3797 3700 7E10A0E3 		mov	r1, #126
 3798 3704 44491FE5 		ldr	r4, .L284+300
 3799 3708 FEFFFFEB 		bl	uart_transmit
 3800 370c 48091FE5 		ldr	r0, .L284+304
 3801 3710 0010A0E3 		mov	r1, #0
 3802 3714 FEFFFFEB 		bl	uart_transmit
 3803 3718 0150A0E3 		mov	r5, #1
 3804 371c 58091FE5 		ldr	r0, .L284+304
 3805 3720 1010A0E3 		mov	r1, #16
 3806 3724 FEFFFFEB 		bl	uart_transmit
 3807 3728 0050C4E5 		strb	r5, [r4, #0]
 3808 372c 0510A0E1 		mov	r1, r5
 3809 3730 6C091FE5 		ldr	r0, .L284+304
 3810 3734 FEFFFFEB 		bl	uart_transmit
 3811 3738 74091FE5 		ldr	r0, .L284+304
 3812 373c 0010A0E3 		mov	r1, #0
 3813 3740 FEFFFFEB 		bl	uart_transmit
 3814 3744 0030D4E5 		ldrb	r3, [r4, #0]	@ zero_extendqisi2
 3815 3748 053083E0 		add	r3, r3, r5
 3816 374c 0030C4E5 		strb	r3, [r4, #0]
 3817 3750 0510A0E1 		mov	r1, r5
 3818 3754 90091FE5 		ldr	r0, .L284+304
 3819 3758 FEFFFFEB 		bl	uart_transmit
 3820 375c 98091FE5 		ldr	r0, .L284+304
 3821 3760 0010A0E3 		mov	r1, #0
 3822 3764 FEFFFFEB 		bl	uart_transmit
 3823 3768 A4091FE5 		ldr	r0, .L284+304
 3824 376c 0010A0E3 		mov	r1, #0
 3825 3770 FEFFFFEB 		bl	uart_transmit
 3826 3774 0030D4E5 		ldrb	r3, [r4, #0]	@ zero_extendqisi2
 3827 3778 023083E2 		add	r3, r3, #2
 3828 377c 0030C4E5 		strb	r3, [r4, #0]
 3829 3780 BC091FE5 		ldr	r0, .L284+304
 3830 3784 0210A0E3 		mov	r1, #2
 3831 3788 FEFFFFEB 		bl	uart_transmit
 3832 378c 0030D4E5 		ldrb	r3, [r4, #0]	@ zero_extendqisi2
 3833 3790 445A1FE5 		ldr	r5, .L284+184
 3834 3794 093083E2 		add	r3, r3, #9
 3835 3798 0030C4E5 		strb	r3, [r4, #0]
 3836 379c D8091FE5 		ldr	r0, .L284+304
 3837 37a0 0910A0E3 		mov	r1, #9
 3838 37a4 FEFFFFEB 		bl	uart_transmit
 3839 37a8 0010D5E5 		ldrb	r1, [r5, #0]	@ zero_extendqisi2
 3840 37ac 0030D4E5 		ldrb	r3, [r4, #0]	@ zero_extendqisi2
 3841 37b0 033081E0 		add	r3, r1, r3
 3842 37b4 0030C4E5 		strb	r3, [r4, #0]
 3843 37b8 F4091FE5 		ldr	r0, .L284+304
 3844 37bc FEFFFFEB 		bl	uart_transmit
 3845 37c0 0110D5E5 		ldrb	r1, [r5, #1]	@ zero_extendqisi2
 3846 37c4 0030D4E5 		ldrb	r3, [r4, #0]	@ zero_extendqisi2
 3847 37c8 033081E0 		add	r3, r1, r3
 3848 37cc 0030C4E5 		strb	r3, [r4, #0]
 3849 37d0 0C0A1FE5 		ldr	r0, .L284+304
 3850 37d4 FEFFFFEB 		bl	uart_transmit
 3851 37d8 0210D5E5 		ldrb	r1, [r5, #2]	@ zero_extendqisi2
 3852 37dc 0030D4E5 		ldrb	r3, [r4, #0]	@ zero_extendqisi2
 3853 37e0 033081E0 		add	r3, r1, r3
 3854 37e4 0030C4E5 		strb	r3, [r4, #0]
 3855 37e8 240A1FE5 		ldr	r0, .L284+304
 3856 37ec FEFFFFEB 		bl	uart_transmit
 3857 37f0 0310D5E5 		ldrb	r1, [r5, #3]	@ zero_extendqisi2
 3858 37f4 0030D4E5 		ldrb	r3, [r4, #0]	@ zero_extendqisi2
 3859 37f8 A85A1FE5 		ldr	r5, .L284+188
 3860 37fc 033081E0 		add	r3, r1, r3
 3861 3800 0030C4E5 		strb	r3, [r4, #0]
 3862 3804 400A1FE5 		ldr	r0, .L284+304
 3863 3808 FEFFFFEB 		bl	uart_transmit
 3864 380c 0010D5E5 		ldrb	r1, [r5, #0]	@ zero_extendqisi2
 3865 3810 0030D4E5 		ldrb	r3, [r4, #0]	@ zero_extendqisi2
 3866 3814 033081E0 		add	r3, r1, r3
 3867 3818 0030C4E5 		strb	r3, [r4, #0]
 3868 381c 580A1FE5 		ldr	r0, .L284+304
 3869 3820 FEFFFFEB 		bl	uart_transmit
 3870 3824 0110D5E5 		ldrb	r1, [r5, #1]	@ zero_extendqisi2
 3871 3828 0030D4E5 		ldrb	r3, [r4, #0]	@ zero_extendqisi2
 3872 382c 033081E0 		add	r3, r1, r3
 3873 3830 0030C4E5 		strb	r3, [r4, #0]
 3874 3834 700A1FE5 		ldr	r0, .L284+304
 3875 3838 FEFFFFEB 		bl	uart_transmit
 3876 383c 0210D5E5 		ldrb	r1, [r5, #2]	@ zero_extendqisi2
 3877 3840 0030D4E5 		ldrb	r3, [r4, #0]	@ zero_extendqisi2
 3878 3844 033081E0 		add	r3, r1, r3
 3879 3848 0030C4E5 		strb	r3, [r4, #0]
 3880 384c 880A1FE5 		ldr	r0, .L284+304
 3881 3850 FEFFFFEB 		bl	uart_transmit
 3882 3854 0310D5E5 		ldrb	r1, [r5, #3]	@ zero_extendqisi2
 3883 3858 0030D4E5 		ldrb	r3, [r4, #0]	@ zero_extendqisi2
 3884 385c 033081E0 		add	r3, r1, r3
 3885 3860 0030C4E5 		strb	r3, [r4, #0]
 3886 3864 A00A1FE5 		ldr	r0, .L284+304
 3887 3868 FEFFFFEB 		bl	uart_transmit
 3888 386c 183B1FE5 		ldr	r3, .L284+192
 3889 3870 0010D3E5 		ldrb	r1, [r3, #0]	@ zero_extendqisi2
 3890 3874 0030D4E5 		ldrb	r3, [r4, #0]	@ zero_extendqisi2
 3891 3878 033081E0 		add	r3, r1, r3
 3892 387c 0030C4E5 		strb	r3, [r4, #0]
 3893 3880 BC0A1FE5 		ldr	r0, .L284+304
 3894 3884 FEFFFFEB 		bl	uart_transmit
 3895 3888 0010D4E5 		ldrb	r1, [r4, #0]	@ zero_extendqisi2
 3896 388c 0110E0E1 		mvn	r1, r1
 3897 3890 FF1001E2 		and	r1, r1, #255
 3898 3894 0010C4E5 		strb	r1, [r4, #0]
 3899 3898 D40A1FE5 		ldr	r0, .L284+304
 3900 389c FEFFFFEB 		bl	uart_transmit
 3901 38a0 030000EA 		b	.L25
 3902              	.L105:
 3903 38a4 4C3B1FE5 		ldr	r3, .L284+196
 3904 38a8 0020D3E5 		ldrb	r2, [r3, #0]	@ zero_extendqisi2
 3905 38ac 012082E2 		add	r2, r2, #1
 3906 38b0 0020C3E5 		strb	r2, [r3, #0]
 3907              	.L25:
 3908 38b4 583B1FE5 		ldr	r3, .L284+200
 3909 38b8 0030D3E5 		ldrb	r3, [r3, #0]	@ zero_extendqisi2
 3910 38bc 010053E3 		cmp	r3, #1
 3911 38c0 6E0D001A 		bne	.L106
 3912 38c4 203B1FE5 		ldr	r3, .L284+272
 3913 38c8 0020D3E5 		ldrb	r2, [r3, #0]	@ zero_extendqisi2
 3914 38cc 012082E2 		add	r2, r2, #1
 3915 38d0 FF2002E2 		and	r2, r2, #255
 3916 38d4 3E0052E3 		cmp	r2, #62
 3917 38d8 0020C3E5 		strb	r2, [r3, #0]
 3918 38dc 0020A083 		movhi	r2, #0
 3919 38e0 0020C385 		strhib	r2, [r3, #0]
 3920 38e4 843B1FE5 		ldr	r3, .L284+204
 3921 38e8 0020D3E5 		ldrb	r2, [r3, #0]	@ zero_extendqisi2
 3922 38ec 012082E2 		add	r2, r2, #1
 3923 38f0 FF2002E2 		and	r2, r2, #255
 3924 38f4 410052E3 		cmp	r2, #65
 3925 38f8 0020C3E5 		strb	r2, [r3, #0]
 3926 38fc 0020A083 		movhi	r2, #0
 3927 3900 0020C385 		strhib	r2, [r3, #0]
 3928 3904 A03B1FE5 		ldr	r3, .L284+208
 3929 3908 0020D3E5 		ldrb	r2, [r3, #0]	@ zero_extendqisi2
 3930 390c 012082E2 		add	r2, r2, #1
 3931 3910 FF2002E2 		and	r2, r2, #255
 3932 3914 4D0052E3 		cmp	r2, #77
 3933 3918 0020C3E5 		strb	r2, [r3, #0]
 3934 391c 0020A083 		movhi	r2, #0
 3935 3920 0020C385 		strhib	r2, [r3, #0]
 3936 3924 BC3B1FE5 		ldr	r3, .L284+212
 3937 3928 0020D3E5 		ldrb	r2, [r3, #0]	@ zero_extendqisi2
 3938 392c 012082E2 		add	r2, r2, #1
 3939 3930 FF2002E2 		and	r2, r2, #255
 3940 3934 530052E3 		cmp	r2, #83
 3941 3938 0020C3E5 		strb	r2, [r3, #0]
 3942 393c 0020A083 		movhi	r2, #0
 3943 3940 0020C385 		strhib	r2, [r3, #0]
 3944 3944 D83B1FE5 		ldr	r3, .L284+216
 3945 3948 0020D3E5 		ldrb	r2, [r3, #0]	@ zero_extendqisi2
 3946 394c 012082E2 		add	r2, r2, #1
 3947 3950 FF2002E2 		and	r2, r2, #255
 3948 3954 590052E3 		cmp	r2, #89
 3949 3958 0020C3E5 		strb	r2, [r3, #0]
 3950 395c 0020A083 		movhi	r2, #0
 3951 3960 0020C385 		strhib	r2, [r3, #0]
 3952 3964 F43B1FE5 		ldr	r3, .L284+220
 3953 3968 0020D3E5 		ldrb	r2, [r3, #0]	@ zero_extendqisi2
 3954 396c 012082E2 		add	r2, r2, #1
 3955 3970 FF2002E2 		and	r2, r2, #255
 3956 3974 7D0052E3 		cmp	r2, #125
 3957 3978 0020C3E5 		strb	r2, [r3, #0]
 3958 397c 0020A083 		movhi	r2, #0
 3959 3980 0020C385 		strhib	r2, [r3, #0]
 3960 3984 103C1FE5 		ldr	r3, .L284+224
 3961 3988 0020D3E5 		ldrb	r2, [r3, #0]	@ zero_extendqisi2
 3962 398c 012082E2 		add	r2, r2, #1
 3963 3990 FF2002E2 		and	r2, r2, #255
 3964 3994 B30052E3 		cmp	r2, #179
 3965 3998 0020C3E5 		strb	r2, [r3, #0]
 3966 399c 0020A083 		movhi	r2, #0
 3967 39a0 0020C385 		strhib	r2, [r3, #0]
 3968 39a4 2C3C1FE5 		ldr	r3, .L284+228
 3969 39a8 0020D3E5 		ldrb	r2, [r3, #0]	@ zero_extendqisi2
 3970 39ac 012082E2 		add	r2, r2, #1
 3971 39b0 FF2002E2 		and	r2, r2, #255
 3972 39b4 B60052E3 		cmp	r2, #182
 3973 39b8 0020C3E5 		strb	r2, [r3, #0]
 3974 39bc 0020A083 		movhi	r2, #0
 3975 39c0 0020C385 		strhib	r2, [r3, #0]
 3976 39c4 483C1FE5 		ldr	r3, .L284+232
 3977 39c8 0020D3E5 		ldrb	r2, [r3, #0]	@ zero_extendqisi2
 3978 39cc 012082E2 		add	r2, r2, #1
 3979 39d0 FF2002E2 		and	r2, r2, #255
 3980 39d4 BF0052E3 		cmp	r2, #191
 3981 39d8 0020C3E5 		strb	r2, [r3, #0]
 3982 39dc 0020A083 		movhi	r2, #0
 3983 39e0 0020C385 		strhib	r2, [r3, #0]
 3984 39e4 643C1FE5 		ldr	r3, .L284+236
 3985 39e8 0020D3E5 		ldrb	r2, [r3, #0]	@ zero_extendqisi2
 3986 39ec 012082E2 		add	r2, r2, #1
 3987 39f0 FF2002E2 		and	r2, r2, #255
 3988 39f4 EF0052E3 		cmp	r2, #239
 3989 39f8 0020C3E5 		strb	r2, [r3, #0]
 3990 39fc 0020A083 		movhi	r2, #0
 3991 3a00 0020C385 		strhib	r2, [r3, #0]
 3992 3a04 803C1FE5 		ldr	r3, .L284+240
 3993 3a08 0020D3E5 		ldrb	r2, [r3, #0]	@ zero_extendqisi2
 3994 3a0c 012082E2 		add	r2, r2, #1
 3995 3a10 FF2002E2 		and	r2, r2, #255
 3996 3a14 F20052E3 		cmp	r2, #242
 3997 3a18 0020C3E5 		strb	r2, [r3, #0]
 3998 3a1c 0020A083 		movhi	r2, #0
 3999 3a20 0020C385 		strhib	r2, [r3, #0]
 4000 3a24 9C3C1FE5 		ldr	r3, .L284+244
 4001 3a28 B020D3E1 		ldrh	r2, [r3, #0]
 4002 3a2c 012082E2 		add	r2, r2, #1
 4003 3a30 0228A0E1 		mov	r2, r2, asl #16
 4004 3a34 2228A0E1 		mov	r2, r2, lsr #16
 4005 3a38 4B0F52E3 		cmp	r2, #300
 4006 3a3c B020C3E1 		strh	r2, [r3, #0]	@ movhi
 4007 3a40 0020A023 		movcs	r2, #0
 4008 3a44 B020C321 		strcsh	r2, [r3, #0]	@ movhi
 4009 3a48 BC3C1FE5 		ldr	r3, .L284+248
 4010 3a4c B020D3E1 		ldrh	r2, [r3, #0]
 4011 3a50 012082E2 		add	r2, r2, #1
 4012 3a54 C41C1FE5 		ldr	r1, .L284+252
 4013 3a58 0228A0E1 		mov	r2, r2, asl #16
 4014 3a5c 2228A0E1 		mov	r2, r2, lsr #16
 4015 3a60 010052E1 		cmp	r2, r1
 4016 3a64 B020C3E1 		strh	r2, [r3, #0]	@ movhi
 4017 3a68 0020A083 		movhi	r2, #0
 4018 3a6c B020C381 		strhih	r2, [r3, #0]	@ movhi
 4019 3a70 DC3C1FE5 		ldr	r3, .L284+256
 4020 3a74 B020D3E1 		ldrh	r2, [r3, #0]
 4021 3a78 012082E2 		add	r2, r2, #1
 4022 3a7c 0228A0E1 		mov	r2, r2, asl #16
 4023 3a80 2228A0E1 		mov	r2, r2, lsr #16
 4024 3a84 4E0F52E3 		cmp	r2, #312
 4025 3a88 B020C3E1 		strh	r2, [r3, #0]	@ movhi
 4026 3a8c 0020A023 		movcs	r2, #0
 4027 3a90 B020C321 		strcsh	r2, [r3, #0]	@ movhi
 4028 3a94 FC3C1FE5 		ldr	r3, .L284+260
 4029 3a98 B020D3E1 		ldrh	r2, [r3, #0]
 4030 3a9c 012082E2 		add	r2, r2, #1
 4031 3aa0 0228A0E1 		mov	r2, r2, asl #16
 4032 3aa4 2228A0E1 		mov	r2, r2, lsr #16
 4033 3aa8 870F52E3 		cmp	r2, #540
 4034 3aac B020C3E1 		strh	r2, [r3, #0]	@ movhi
 4035 3ab0 0020A023 		movcs	r2, #0
 4036 3ab4 B020C321 		strcsh	r2, [r3, #0]	@ movhi
 4037 3ab8 1C3D1FE5 		ldr	r3, .L284+264
 4038 3abc B020D3E1 		ldrh	r2, [r3, #0]
 4039 3ac0 012082E2 		add	r2, r2, #1
 4040 3ac4 0228A0E1 		mov	r2, r2, asl #16
 4041 3ac8 281D1FE5 		ldr	r1, .L284+268
 4042 3acc 2228A0E1 		mov	r2, r2, lsr #16
 4043 3ad0 010052E1 		cmp	r2, r1
 4044 3ad4 B020C3E1 		strh	r2, [r3, #0]	@ movhi
 4045 3ad8 0020A083 		movhi	r2, #0
 4046 3adc B020C381 		strhih	r2, [r3, #0]	@ movhi
 4047 3ae0 3C3D1FE5 		ldr	r3, .L284+272
 4048 3ae4 0050D3E5 		ldrb	r5, [r3, #0]	@ zero_extendqisi2
 4049 3ae8 000055E3 		cmp	r5, #0
 4050 3aec 9001001A 		bne	.L123
 4051 3af0 484D1FE5 		ldr	r4, .L284+276
 4052 3af4 403094E5 		ldr	r3, [r4, #64]
 4053 3af8 480094E5 		ldr	r0, [r4, #72]
 4054 3afc 003063E2 		rsb	r3, r3, #0
 4055 3b00 BC31CDE1 		strh	r3, [sp, #28]	@ movhi
 4056 3b04 FEFFFFEB 		bl	__aeabi_i2d
 4057 3b08 5C2D1FE5 		ldr	r2, .L284+280
 4058 3b0c 5C3D1FE5 		ldr	r3, .L284+284
 4059 3b10 FEFFFFEB 		bl	__aeabi_dmul
 4060 3b14 0020A0E3 		mov	r2, #0
 4061 3b18 643D1FE5 		ldr	r3, .L284+288
 4062 3b1c FEFFFFEB 		bl	__aeabi_ddiv
 4063 3b20 FEFFFFEB 		bl	__aeabi_d2iz
 4064 3b24 2610A0E3 		mov	r1, #38
 4065 3b28 BE01CDE1 		strh	r0, [sp, #30]	@ movhi
 4066 3b2c 680D1FE5 		ldr	r0, .L284+304
 4067 3b30 FEFFFFEB 		bl	uart_check_free_space
 4068 3b34 000050E3 		cmp	r0, #0
 4069 3b38 DB00000A 		beq	.L124
 4070 3b3c 843D1FE5 		ldr	r3, .L284+292
 4071 3b40 B020D3E1 		ldrh	r2, [r3, #0]
 4072 3b44 262082E2 		add	r2, r2, #38
 4073 3b48 B020C3E1 		strh	r2, [r3, #0]	@ movhi
 4074 3b4c 903D1FE5 		ldr	r3, .L284+296
 4075 3b50 B020D3E1 		ldrh	r2, [r3, #0]
 4076 3b54 012082E2 		add	r2, r2, #1
 4077 3b58 B020C3E1 		strh	r2, [r3, #0]	@ movhi
 4078 3b5c 980D1FE5 		ldr	r0, .L284+304
 4079 3b60 7E10A0E3 		mov	r1, #126
 4080 3b64 A46D1FE5 		ldr	r6, .L284+300
 4081 3b68 FEFFFFEB 		bl	uart_transmit
 4082 3b6c 0510A0E1 		mov	r1, r5
 4083 3b70 AC0D1FE5 		ldr	r0, .L284+304
 4084 3b74 FEFFFFEB 		bl	uart_transmit
 4085 3b78 0170A0E3 		mov	r7, #1
 4086 3b7c B80D1FE5 		ldr	r0, .L284+304
 4087 3b80 2210A0E3 		mov	r1, #34
 4088 3b84 FEFFFFEB 		bl	uart_transmit
 4089 3b88 0710A0E1 		mov	r1, r7
 4090 3b8c 0070C6E5 		strb	r7, [r6, #0]
 4091 3b90 CC0D1FE5 		ldr	r0, .L284+304
 4092 3b94 FEFFFFEB 		bl	uart_transmit
 4093 3b98 0510A0E1 		mov	r1, r5
 4094 3b9c D80D1FE5 		ldr	r0, .L284+304
 4095 3ba0 FEFFFFEB 		bl	uart_transmit
 4096 3ba4 0030D6E5 		ldrb	r3, [r6, #0]	@ zero_extendqisi2
 4097 3ba8 073083E0 		add	r3, r3, r7
 4098 3bac 0030C6E5 		strb	r3, [r6, #0]
 4099 3bb0 0710A0E1 		mov	r1, r7
 4100 3bb4 F00D1FE5 		ldr	r0, .L284+304
 4101 3bb8 FEFFFFEB 		bl	uart_transmit
 4102 3bbc 0510A0E1 		mov	r1, r5
 4103 3bc0 FC0D1FE5 		ldr	r0, .L284+304
 4104 3bc4 FEFFFFEB 		bl	uart_transmit
 4105 3bc8 0510A0E1 		mov	r1, r5
 4106 3bcc 080E1FE5 		ldr	r0, .L284+304
 4107 3bd0 FEFFFFEB 		bl	uart_transmit
 4108 3bd4 0030D6E5 		ldrb	r3, [r6, #0]	@ zero_extendqisi2
 4109 3bd8 023083E2 		add	r3, r3, #2
 4110 3bdc 0030C6E5 		strb	r3, [r6, #0]
 4111 3be0 1C0E1FE5 		ldr	r0, .L284+304
 4112 3be4 0210A0E3 		mov	r1, #2
 4113 3be8 FEFFFFEB 		bl	uart_transmit
 4114 3bec 0030D6E5 		ldrb	r3, [r6, #0]	@ zero_extendqisi2
 4115 3bf0 083083E2 		add	r3, r3, #8
 4116 3bf4 0030C6E5 		strb	r3, [r6, #0]
 4117 3bf8 340E1FE5 		ldr	r0, .L284+304
 4118 3bfc 0810A0E3 		mov	r1, #8
 4119 3c00 FEFFFFEB 		bl	uart_transmit
 4120 3c04 5B10D4E5 		ldrb	r1, [r4, #91]	@ zero_extendqisi2
 4121 3c08 0030D6E5 		ldrb	r3, [r6, #0]	@ zero_extendqisi2
 4122 3c0c 033081E0 		add	r3, r1, r3
 4123 3c10 0030C6E5 		strb	r3, [r6, #0]
 4124 3c14 500E1FE5 		ldr	r0, .L284+304
 4125 3c18 FEFFFFEB 		bl	uart_transmit
 4126 3c1c 1C10D4E5 		ldrb	r1, [r4, #28]	@ zero_extendqisi2
 4127 3c20 0030D6E5 		ldrb	r3, [r6, #0]	@ zero_extendqisi2
 4128 3c24 033081E0 		add	r3, r1, r3
 4129 3c28 0030C6E5 		strb	r3, [r6, #0]
 4130 3c2c 680E1FE5 		ldr	r0, .L284+304
 4131 3c30 FEFFFFEB 		bl	uart_transmit
 4132 3c34 1D10D4E5 		ldrb	r1, [r4, #29]	@ zero_extendqisi2
 4133 3c38 0030D6E5 		ldrb	r3, [r6, #0]	@ zero_extendqisi2
 4134 3c3c 033081E0 		add	r3, r1, r3
 4135 3c40 0030C6E5 		strb	r3, [r6, #0]
 4136 3c44 800E1FE5 		ldr	r0, .L284+304
 4137 3c48 FEFFFFEB 		bl	uart_transmit
 4138 3c4c 1E10D4E5 		ldrb	r1, [r4, #30]	@ zero_extendqisi2
 4139 3c50 0030D6E5 		ldrb	r3, [r6, #0]	@ zero_extendqisi2
 4140 3c54 033081E0 		add	r3, r1, r3
 4141 3c58 0030C6E5 		strb	r3, [r6, #0]
 4142 3c5c 980E1FE5 		ldr	r0, .L284+304
 4143 3c60 FEFFFFEB 		bl	uart_transmit
 4144 3c64 1F10D4E5 		ldrb	r1, [r4, #31]	@ zero_extendqisi2
 4145 3c68 0030D6E5 		ldrb	r3, [r6, #0]	@ zero_extendqisi2
 4146 3c6c 033081E0 		add	r3, r1, r3
 4147 3c70 0030C6E5 		strb	r3, [r6, #0]
 4148 3c74 B00E1FE5 		ldr	r0, .L284+304
 4149 3c78 FEFFFFEB 		bl	uart_transmit
 4150 3c7c 1810D4E5 		ldrb	r1, [r4, #24]	@ zero_extendqisi2
 4151 3c80 0030D6E5 		ldrb	r3, [r6, #0]	@ zero_extendqisi2
 4152 3c84 033081E0 		add	r3, r1, r3
 4153 3c88 0030C6E5 		strb	r3, [r6, #0]
 4154 3c8c C80E1FE5 		ldr	r0, .L284+304
 4155 3c90 FEFFFFEB 		bl	uart_transmit
 4156 3c94 1910D4E5 		ldrb	r1, [r4, #25]	@ zero_extendqisi2
 4157 3c98 0030D6E5 		ldrb	r3, [r6, #0]	@ zero_extendqisi2
 4158 3c9c 033081E0 		add	r3, r1, r3
 4159 3ca0 0030C6E5 		strb	r3, [r6, #0]
 4160 3ca4 E00E1FE5 		ldr	r0, .L284+304
 4161 3ca8 FEFFFFEB 		bl	uart_transmit
 4162 3cac 1A10D4E5 		ldrb	r1, [r4, #26]	@ zero_extendqisi2
 4163 3cb0 0030D6E5 		ldrb	r3, [r6, #0]	@ zero_extendqisi2
 4164 3cb4 033081E0 		add	r3, r1, r3
 4165 3cb8 0030C6E5 		strb	r3, [r6, #0]
 4166 3cbc F80E1FE5 		ldr	r0, .L284+304
 4167 3cc0 FEFFFFEB 		bl	uart_transmit
 4168 3cc4 1B10D4E5 		ldrb	r1, [r4, #27]	@ zero_extendqisi2
 4169 3cc8 0030D6E5 		ldrb	r3, [r6, #0]	@ zero_extendqisi2
 4170 3ccc 033081E0 		add	r3, r1, r3
 4171 3cd0 0030C6E5 		strb	r3, [r6, #0]
 4172 3cd4 100F1FE5 		ldr	r0, .L284+304
 4173 3cd8 FEFFFFEB 		bl	uart_transmit
 4174 3cdc 1E10DDE5 		ldrb	r1, [sp, #30]	@ zero_extendqisi2
 4175 3ce0 0030D6E5 		ldrb	r3, [r6, #0]	@ zero_extendqisi2
 4176 3ce4 033081E0 		add	r3, r1, r3
 4177 3ce8 0030C6E5 		strb	r3, [r6, #0]
 4178 3cec 280F1FE5 		ldr	r0, .L284+304
 4179 3cf0 FEFFFFEB 		bl	uart_transmit
 4180 3cf4 1F10DDE5 		ldrb	r1, [sp, #31]	@ zero_extendqisi2
 4181 3cf8 0030D6E5 		ldrb	r3, [r6, #0]	@ zero_extendqisi2
 4182 3cfc 033081E0 		add	r3, r1, r3
 4183 3d00 0030C6E5 		strb	r3, [r6, #0]
 4184 3d04 400F1FE5 		ldr	r0, .L284+304
 4185 3d08 FEFFFFEB 		bl	uart_transmit
 4186 3d0c 2810D4E5 		ldrb	r1, [r4, #40]	@ zero_extendqisi2
 4187 3d10 0030D6E5 		ldrb	r3, [r6, #0]	@ zero_extendqisi2
 4188 3d14 033081E0 		add	r3, r1, r3
 4189 3d18 0030C6E5 		strb	r3, [r6, #0]
 4190 3d1c 580F1FE5 		ldr	r0, .L284+304
 4191 3d20 FEFFFFEB 		bl	uart_transmit
 4192 3d24 2910D4E5 		ldrb	r1, [r4, #41]	@ zero_extendqisi2
 4193 3d28 0030D6E5 		ldrb	r3, [r6, #0]	@ zero_extendqisi2
 4194 3d2c 033081E0 		add	r3, r1, r3
 4195 3d30 0030C6E5 		strb	r3, [r6, #0]
 4196 3d34 700F1FE5 		ldr	r0, .L284+304
 4197 3d38 FEFFFFEB 		bl	uart_transmit
 4198 3d3c 2A10D4E5 		ldrb	r1, [r4, #42]	@ zero_extendqisi2
 4199 3d40 0030D6E5 		ldrb	r3, [r6, #0]	@ zero_extendqisi2
 4200 3d44 033081E0 		add	r3, r1, r3
 4201 3d48 0030C6E5 		strb	r3, [r6, #0]
 4202 3d4c 880F1FE5 		ldr	r0, .L284+304
 4203 3d50 FEFFFFEB 		bl	uart_transmit
 4204 3d54 2B10D4E5 		ldrb	r1, [r4, #43]	@ zero_extendqisi2
 4205 3d58 0030D6E5 		ldrb	r3, [r6, #0]	@ zero_extendqisi2
 4206 3d5c 033081E0 		add	r3, r1, r3
 4207 3d60 0030C6E5 		strb	r3, [r6, #0]
 4208 3d64 A00F1FE5 		ldr	r0, .L284+304
 4209 3d68 FEFFFFEB 		bl	uart_transmit
 4210 3d6c 4410D4E5 		ldrb	r1, [r4, #68]	@ zero_extendqisi2
 4211 3d70 0030D6E5 		ldrb	r3, [r6, #0]	@ zero_extendqisi2
 4212 3d74 033081E0 		add	r3, r1, r3
 4213 3d78 0030C6E5 		strb	r3, [r6, #0]
 4214 3d7c B80F1FE5 		ldr	r0, .L284+304
 4215 3d80 FEFFFFEB 		bl	uart_transmit
 4216 3d84 4510D4E5 		ldrb	r1, [r4, #69]	@ zero_extendqisi2
 4217 3d88 0030D6E5 		ldrb	r3, [r6, #0]	@ zero_extendqisi2
 4218 3d8c 033081E0 		add	r3, r1, r3
 4219 3d90 0030C6E5 		strb	r3, [r6, #0]
 4220 3d94 D00F1FE5 		ldr	r0, .L284+304
 4221 3d98 FEFFFFEB 		bl	uart_transmit
 4222 3d9c 1C10DDE5 		ldrb	r1, [sp, #28]	@ zero_extendqisi2
 4223 3da0 0030D6E5 		ldrb	r3, [r6, #0]	@ zero_extendqisi2
 4224 3da4 033081E0 		add	r3, r1, r3
 4225 3da8 0030C6E5 		strb	r3, [r6, #0]
 4226 3dac E80F1FE5 		ldr	r0, .L284+304
 4227 3db0 FEFFFFEB 		bl	uart_transmit
 4228 3db4 1D10DDE5 		ldrb	r1, [sp, #29]	@ zero_extendqisi2
 4229 3db8 0030D6E5 		ldrb	r3, [r6, #0]	@ zero_extendqisi2
 4230 3dbc 033081E0 		add	r3, r1, r3
 4231 3dc0 0030C6E5 		strb	r3, [r6, #0]
 4232 3dc4 780E9FE5 		ldr	r0, .L286+276
 4233 3dc8 FEFFFFEB 		bl	uart_transmit
 4234 3dcc 5C10D4E5 		ldrb	r1, [r4, #92]	@ zero_extendqisi2
 4235 3dd0 0030D6E5 		ldrb	r3, [r6, #0]	@ zero_extendqisi2
 4236 3dd4 033081E0 		add	r3, r1, r3
 4237 3dd8 0030C6E5 		strb	r3, [r6, #0]
 4238 3ddc 600E9FE5 		ldr	r0, .L286+276
 4239 3de0 FEFFFFEB 		bl	uart_transmit
 4240 3de4 5D10D4E5 		ldrb	r1, [r4, #93]	@ zero_extendqisi2
 4241 3de8 0030D6E5 		ldrb	r3, [r6, #0]	@ zero_extendqisi2
 4242 3dec 033081E0 		add	r3, r1, r3
 4243 3df0 0030C6E5 		strb	r3, [r6, #0]
 4244 3df4 480E9FE5 		ldr	r0, .L286+276
 4245 3df8 FEFFFFEB 		bl	uart_transmit
 4246 3dfc 6010D4E5 		ldrb	r1, [r4, #96]	@ zero_extendqisi2
 4247 3e00 0030D6E5 		ldrb	r3, [r6, #0]	@ zero_extendqisi2
 4248 3e04 033081E0 		add	r3, r1, r3
 4249 3e08 0030C6E5 		strb	r3, [r6, #0]
 4250 3e0c 300E9FE5 		ldr	r0, .L286+276
 4251 3e10 FEFFFFEB 		bl	uart_transmit
 4252 3e14 6110D4E5 		ldrb	r1, [r4, #97]	@ zero_extendqisi2
 4253 3e18 0030D6E5 		ldrb	r3, [r6, #0]	@ zero_extendqisi2
 4254 3e1c 033081E0 		add	r3, r1, r3
 4255 3e20 0030C6E5 		strb	r3, [r6, #0]
 4256 3e24 180E9FE5 		ldr	r0, .L286+276
 4257 3e28 FEFFFFEB 		bl	uart_transmit
 4258 3e2c 6210D4E5 		ldrb	r1, [r4, #98]	@ zero_extendqisi2
 4259 3e30 0030D6E5 		ldrb	r3, [r6, #0]	@ zero_extendqisi2
 4260 3e34 033081E0 		add	r3, r1, r3
 4261 3e38 0030C6E5 		strb	r3, [r6, #0]
 4262 3e3c 000E9FE5 		ldr	r0, .L286+276
 4263 3e40 FEFFFFEB 		bl	uart_transmit
 4264 3e44 6310D4E5 		ldrb	r1, [r4, #99]	@ zero_extendqisi2
 4265 3e48 0030D6E5 		ldrb	r3, [r6, #0]	@ zero_extendqisi2
 4266 3e4c 033081E0 		add	r3, r1, r3
 4267 3e50 0030C6E5 		strb	r3, [r6, #0]
 4268 3e54 E80D9FE5 		ldr	r0, .L286+276
 4269 3e58 FEFFFFEB 		bl	uart_transmit
 4270 3e5c 2410D4E5 		ldrb	r1, [r4, #36]	@ zero_extendqisi2
 4271 3e60 0030D6E5 		ldrb	r3, [r6, #0]	@ zero_extendqisi2
 4272 3e64 033081E0 		add	r3, r1, r3
 4273 3e68 0030C6E5 		strb	r3, [r6, #0]
 4274 3e6c D00D9FE5 		ldr	r0, .L286+276
 4275 3e70 FEFFFFEB 		bl	uart_transmit
 4276 3e74 B43C9FE5 		ldr	r3, .L286
 4277 3e78 0010D3E5 		ldrb	r1, [r3, #0]	@ zero_extendqisi2
 4278 3e7c 0030D6E5 		ldrb	r3, [r6, #0]	@ zero_extendqisi2
 4279 3e80 033081E0 		add	r3, r1, r3
 4280 3e84 0030C6E5 		strb	r3, [r6, #0]
 4281 3e88 B40D9FE5 		ldr	r0, .L286+276
 4282 3e8c FEFFFFEB 		bl	uart_transmit
 4283 3e90 0010D6E5 		ldrb	r1, [r6, #0]	@ zero_extendqisi2
 4284 3e94 0110E0E1 		mvn	r1, r1
 4285 3e98 FF1001E2 		and	r1, r1, #255
 4286 3e9c 0010C6E5 		strb	r1, [r6, #0]
 4287 3ea0 9C0D9FE5 		ldr	r0, .L286+276
 4288 3ea4 FEFFFFEB 		bl	uart_transmit
 4289 3ea8 030000EA 		b	.L125
 4290              	.L124:
 4291 3eac 643D9FE5 		ldr	r3, .L286+232
 4292 3eb0 0020D3E5 		ldrb	r2, [r3, #0]	@ zero_extendqisi2
 4293 3eb4 012082E2 		add	r2, r2, #1
 4294 3eb8 0020C3E5 		strb	r2, [r3, #0]
 4295              	.L125:
 4296 3ebc 702C9FE5 		ldr	r2, .L286+4
 4297 3ec0 5B30D2E5 		ldrb	r3, [r2, #91]	@ zero_extendqisi2
 4298 3ec4 030053E3 		cmp	r3, #3
 4299 3ec8 603C9FE5 		ldr	r3, .L286
 4300 3ecc 0400000A 		beq	.L126
 4301 3ed0 6410D2E5 		ldrb	r1, [r2, #100]	@ zero_extendqisi2
 4302 3ed4 0000D3E5 		ldrb	r0, [r3, #0]	@ zero_extendqisi2
 4303 3ed8 010050E1 		cmp	r0, r1
 4304 3edc 0010A023 		movcs	r1, #0
 4305 3ee0 0010C325 		strcsb	r1, [r3, #0]
 4306              	.L126:
 4307 3ee4 0030D3E5 		ldrb	r3, [r3, #0]	@ zero_extendqisi2
 4308 3ee8 6420D2E5 		ldrb	r2, [r2, #100]	@ zero_extendqisi2
 4309 3eec 820053E1 		cmp	r3, r2, asl #1
 4310 3ef0 383C9FA5 		ldrge	r3, .L286
 4311 3ef4 0010A0A3 		movge	r1, #0
 4312 3ef8 0010C3A5 		strgeb	r1, [r3, #0]
 4313 3efc 2C5C9FE5 		ldr	r5, .L286
 4314 3f00 0030D5E5 		ldrb	r3, [r5, #0]	@ zero_extendqisi2
 4315 3f04 020053E1 		cmp	r3, r2
 4316 3f08 8500002A 		bcs	.L128
 4317 3f0c 206C9FE5 		ldr	r6, .L286+4
 4318 3f10 833186E0 		add	r3, r6, r3, asl #3
 4319 3f14 6930D3E5 		ldrb	r3, [r3, #105]	@ zero_extendqisi2
 4320 3f18 000053E3 		cmp	r3, #0
 4321 3f1c 8000000A 		beq	.L128
 4322 3f20 1C0D9FE5 		ldr	r0, .L286+276
 4323 3f24 1310A0E3 		mov	r1, #19
 4324 3f28 FEFFFFEB 		bl	uart_check_free_space
 4325 3f2c 000050E3 		cmp	r0, #0
 4326 3f30 7700000A 		beq	.L129
 4327 3f34 E83C9FE5 		ldr	r3, .L286+244
 4328 3f38 B020D3E1 		ldrh	r2, [r3, #0]
 4329 3f3c 132082E2 		add	r2, r2, #19
 4330 3f40 B020C3E1 		strh	r2, [r3, #0]	@ movhi
 4331 3f44 DC3C9FE5 		ldr	r3, .L286+248
 4332 3f48 B020D3E1 		ldrh	r2, [r3, #0]
 4333 3f4c 012082E2 		add	r2, r2, #1
 4334 3f50 B020C3E1 		strh	r2, [r3, #0]	@ movhi
 4335 3f54 E80C9FE5 		ldr	r0, .L286+276
 4336 3f58 7E10A0E3 		mov	r1, #126
 4337 3f5c C84C9FE5 		ldr	r4, .L286+252
 4338 3f60 FEFFFFEB 		bl	uart_transmit
 4339 3f64 D80C9FE5 		ldr	r0, .L286+276
 4340 3f68 0010A0E3 		mov	r1, #0
 4341 3f6c FEFFFFEB 		bl	uart_transmit
 4342 3f70 0170A0E3 		mov	r7, #1
 4343 3f74 C80C9FE5 		ldr	r0, .L286+276
 4344 3f78 0F10A0E3 		mov	r1, #15
 4345 3f7c FEFFFFEB 		bl	uart_transmit
 4346 3f80 0710A0E1 		mov	r1, r7
 4347 3f84 0070C4E5 		strb	r7, [r4, #0]
 4348 3f88 B40C9FE5 		ldr	r0, .L286+276
 4349 3f8c FEFFFFEB 		bl	uart_transmit
 4350 3f90 AC0C9FE5 		ldr	r0, .L286+276
 4351 3f94 0010A0E3 		mov	r1, #0
 4352 3f98 FEFFFFEB 		bl	uart_transmit
 4353 3f9c 0030D4E5 		ldrb	r3, [r4, #0]	@ zero_extendqisi2
 4354 3fa0 073083E0 		add	r3, r3, r7
 4355 3fa4 0030C4E5 		strb	r3, [r4, #0]
 4356 3fa8 0710A0E1 		mov	r1, r7
 4357 3fac 900C9FE5 		ldr	r0, .L286+276
 4358 3fb0 FEFFFFEB 		bl	uart_transmit
 4359 3fb4 880C9FE5 		ldr	r0, .L286+276
 4360 3fb8 0010A0E3 		mov	r1, #0
 4361 3fbc FEFFFFEB 		bl	uart_transmit
 4362 3fc0 7C0C9FE5 		ldr	r0, .L286+276
 4363 3fc4 0010A0E3 		mov	r1, #0
 4364 3fc8 FEFFFFEB 		bl	uart_transmit
 4365 3fcc 0030D4E5 		ldrb	r3, [r4, #0]	@ zero_extendqisi2
 4366 3fd0 023083E2 		add	r3, r3, #2
 4367 3fd4 0030C4E5 		strb	r3, [r4, #0]
 4368 3fd8 640C9FE5 		ldr	r0, .L286+276
 4369 3fdc 0210A0E3 		mov	r1, #2
 4370 3fe0 FEFFFFEB 		bl	uart_transmit
 4371 3fe4 0030D4E5 		ldrb	r3, [r4, #0]	@ zero_extendqisi2
 4372 3fe8 193083E2 		add	r3, r3, #25
 4373 3fec 0030C4E5 		strb	r3, [r4, #0]
 4374 3ff0 4C0C9FE5 		ldr	r0, .L286+276
 4375 3ff4 1910A0E3 		mov	r1, #25
 4376 3ff8 FEFFFFEB 		bl	uart_transmit
 4377 3ffc 0010D5E5 		ldrb	r1, [r5, #0]	@ zero_extendqisi2
 4378 4000 0030D4E5 		ldrb	r3, [r4, #0]	@ zero_extendqisi2
 4379 4004 033081E0 		add	r3, r1, r3
 4380 4008 0030C4E5 		strb	r3, [r4, #0]
 4381 400c 300C9FE5 		ldr	r0, .L286+276
 4382 4010 FEFFFFEB 		bl	uart_transmit
 4383 4014 0030D5E5 		ldrb	r3, [r5, #0]	@ zero_extendqisi2
 4384 4018 833186E0 		add	r3, r6, r3, asl #3
 4385 401c 6610D3E5 		ldrb	r1, [r3, #102]	@ zero_extendqisi2
 4386 4020 0030D4E5 		ldrb	r3, [r4, #0]	@ zero_extendqisi2
 4387 4024 033081E0 		add	r3, r1, r3
 4388 4028 0030C4E5 		strb	r3, [r4, #0]
 4389 402c 100C9FE5 		ldr	r0, .L286+276
 4390 4030 FEFFFFEB 		bl	uart_transmit
 4391 4034 0030D5E5 		ldrb	r3, [r5, #0]	@ zero_extendqisi2
 4392 4038 833186E0 		add	r3, r6, r3, asl #3
 4393 403c 6710D3E5 		ldrb	r1, [r3, #103]	@ zero_extendqisi2
 4394 4040 0030D4E5 		ldrb	r3, [r4, #0]	@ zero_extendqisi2
 4395 4044 033081E0 		add	r3, r1, r3
 4396 4048 0030C4E5 		strb	r3, [r4, #0]
 4397 404c F00B9FE5 		ldr	r0, .L286+276
 4398 4050 FEFFFFEB 		bl	uart_transmit
 4399 4054 0030D5E5 		ldrb	r3, [r5, #0]	@ zero_extendqisi2
 4400 4058 833186E0 		add	r3, r6, r3, asl #3
 4401 405c 6810D3E5 		ldrb	r1, [r3, #104]	@ zero_extendqisi2
 4402 4060 0030D4E5 		ldrb	r3, [r4, #0]	@ zero_extendqisi2
 4403 4064 033081E0 		add	r3, r1, r3
 4404 4068 0030C4E5 		strb	r3, [r4, #0]
 4405 406c D00B9FE5 		ldr	r0, .L286+276
 4406 4070 FEFFFFEB 		bl	uart_transmit
 4407 4074 0030D5E5 		ldrb	r3, [r5, #0]	@ zero_extendqisi2
 4408 4078 833186E0 		add	r3, r6, r3, asl #3
 4409 407c 6910D3E5 		ldrb	r1, [r3, #105]	@ zero_extendqisi2
 4410 4080 0030D4E5 		ldrb	r3, [r4, #0]	@ zero_extendqisi2
 4411 4084 033081E0 		add	r3, r1, r3
 4412 4088 0030C4E5 		strb	r3, [r4, #0]
 4413 408c B00B9FE5 		ldr	r0, .L286+276
 4414 4090 FEFFFFEB 		bl	uart_transmit
 4415 4094 0030D5E5 		ldrb	r3, [r5, #0]	@ zero_extendqisi2
 4416 4098 833186E0 		add	r3, r6, r3, asl #3
 4417 409c 6A10D3E5 		ldrb	r1, [r3, #106]	@ zero_extendqisi2
 4418 40a0 0030D4E5 		ldrb	r3, [r4, #0]	@ zero_extendqisi2
 4419 40a4 033081E0 		add	r3, r1, r3
 4420 40a8 0030C4E5 		strb	r3, [r4, #0]
 4421 40ac 900B9FE5 		ldr	r0, .L286+276
 4422 40b0 FEFFFFEB 		bl	uart_transmit
 4423 40b4 0030D5E5 		ldrb	r3, [r5, #0]	@ zero_extendqisi2
 4424 40b8 0C6086E2 		add	r6, r6, #12
 4425 40bc 0C3083E2 		add	r3, r3, #12
 4426 40c0 8311D6E7 		ldrb	r1, [r6, r3, asl #3]	@ zero_extendqisi2
 4427 40c4 0030D4E5 		ldrb	r3, [r4, #0]	@ zero_extendqisi2
 4428 40c8 033081E0 		add	r3, r1, r3
 4429 40cc 0030C4E5 		strb	r3, [r4, #0]
 4430 40d0 6C0B9FE5 		ldr	r0, .L286+276
 4431 40d4 FEFFFFEB 		bl	uart_transmit
 4432 40d8 0030D5E5 		ldrb	r3, [r5, #0]	@ zero_extendqisi2
 4433 40dc 836186E0 		add	r6, r6, r3, asl #3
 4434 40e0 6110D6E5 		ldrb	r1, [r6, #97]	@ zero_extendqisi2
 4435 40e4 0030D4E5 		ldrb	r3, [r4, #0]	@ zero_extendqisi2
 4436 40e8 033081E0 		add	r3, r1, r3
 4437 40ec 0030C4E5 		strb	r3, [r4, #0]
 4438 40f0 4C0B9FE5 		ldr	r0, .L286+276
 4439 40f4 FEFFFFEB 		bl	uart_transmit
 4440 40f8 0010D4E5 		ldrb	r1, [r4, #0]	@ zero_extendqisi2
 4441 40fc 0110E0E1 		mvn	r1, r1
 4442 4100 FF1001E2 		and	r1, r1, #255
 4443 4104 0010C4E5 		strb	r1, [r4, #0]
 4444 4108 340B9FE5 		ldr	r0, .L286+276
 4445 410c FEFFFFEB 		bl	uart_transmit
 4446 4110 030000EA 		b	.L128
 4447              	.L129:
 4448 4114 FC3A9FE5 		ldr	r3, .L286+232
 4449 4118 0020D3E5 		ldrb	r2, [r3, #0]	@ zero_extendqisi2
 4450 411c 012082E2 		add	r2, r2, #1
 4451 4120 0020C3E5 		strb	r2, [r3, #0]
 4452              	.L128:
 4453 4124 043A9FE5 		ldr	r3, .L286
 4454 4128 0020D3E5 		ldrb	r2, [r3, #0]	@ zero_extendqisi2
 4455 412c 012082E2 		add	r2, r2, #1
 4456 4130 0020C3E5 		strb	r2, [r3, #0]
 4457              	.L123:
 4458 4134 FC399FE5 		ldr	r3, .L286+8
 4459 4138 0030D3E5 		ldrb	r3, [r3, #0]	@ zero_extendqisi2
 4460 413c 060053E3 		cmp	r3, #6
 4461 4140 A400001A 		bne	.L130
 4462 4144 F0399FE5 		ldr	r3, .L286+12
 4463 4148 0A10A0E3 		mov	r1, #10
 4464 414c 000093E5 		ldr	r0, [r3, #0]
 4465 4150 FEFFFFEB 		bl	__aeabi_idiv
 4466 4154 E4399FE5 		ldr	r3, .L286+16
 4467 4158 BE01CDE1 		strh	r0, [sp, #30]	@ movhi
 4468 415c 000093E5 		ldr	r0, [r3, #0]	@ float
 4469 4160 FEFFFFEB 		bl	__aeabi_f2iz
 4470 4164 1910A0E3 		mov	r1, #25
 4471 4168 BC01CDE1 		strh	r0, [sp, #28]	@ movhi
 4472 416c D00A9FE5 		ldr	r0, .L286+276
 4473 4170 FEFFFFEB 		bl	uart_check_free_space
 4474 4174 000050E3 		cmp	r0, #0
 4475 4178 9200000A 		beq	.L131
 4476 417c A03A9FE5 		ldr	r3, .L286+244
 4477 4180 B020D3E1 		ldrh	r2, [r3, #0]
 4478 4184 192082E2 		add	r2, r2, #25
 4479 4188 B020C3E1 		strh	r2, [r3, #0]	@ movhi
 4480 418c 943A9FE5 		ldr	r3, .L286+248
 4481 4190 B020D3E1 		ldrh	r2, [r3, #0]
 4482 4194 012082E2 		add	r2, r2, #1
 4483 4198 B020C3E1 		strh	r2, [r3, #0]	@ movhi
 4484 419c A00A9FE5 		ldr	r0, .L286+276
 4485 41a0 7E10A0E3 		mov	r1, #126
 4486 41a4 804A9FE5 		ldr	r4, .L286+252
 4487 41a8 FEFFFFEB 		bl	uart_transmit
 4488 41ac 900A9FE5 		ldr	r0, .L286+276
 4489 41b0 0010A0E3 		mov	r1, #0
 4490 41b4 FEFFFFEB 		bl	uart_transmit
 4491 41b8 0150A0E3 		mov	r5, #1
 4492 41bc 800A9FE5 		ldr	r0, .L286+276
 4493 41c0 1510A0E3 		mov	r1, #21
 4494 41c4 FEFFFFEB 		bl	uart_transmit
 4495 41c8 0050C4E5 		strb	r5, [r4, #0]
 4496 41cc 0510A0E1 		mov	r1, r5
 4497 41d0 6C0A9FE5 		ldr	r0, .L286+276
 4498 41d4 FEFFFFEB 		bl	uart_transmit
 4499 41d8 640A9FE5 		ldr	r0, .L286+276
 4500 41dc 0010A0E3 		mov	r1, #0
 4501 41e0 FEFFFFEB 		bl	uart_transmit
 4502 41e4 0030D4E5 		ldrb	r3, [r4, #0]	@ zero_extendqisi2
 4503 41e8 053083E0 		add	r3, r3, r5
 4504 41ec 0030C4E5 		strb	r3, [r4, #0]
 4505 41f0 0510A0E1 		mov	r1, r5
 4506 41f4 480A9FE5 		ldr	r0, .L286+276
 4507 41f8 FEFFFFEB 		bl	uart_transmit
 4508 41fc 400A9FE5 		ldr	r0, .L286+276
 4509 4200 0010A0E3 		mov	r1, #0
 4510 4204 FEFFFFEB 		bl	uart_transmit
 4511 4208 340A9FE5 		ldr	r0, .L286+276
 4512 420c 0010A0E3 		mov	r1, #0
 4513 4210 FEFFFFEB 		bl	uart_transmit
 4514 4214 0030D4E5 		ldrb	r3, [r4, #0]	@ zero_extendqisi2
 4515 4218 023083E2 		add	r3, r3, #2
 4516 421c 0030C4E5 		strb	r3, [r4, #0]
 4517 4220 1C0A9FE5 		ldr	r0, .L286+276
 4518 4224 0210A0E3 		mov	r1, #2
 4519 4228 FEFFFFEB 		bl	uart_transmit
 4520 422c 0030D4E5 		ldrb	r3, [r4, #0]	@ zero_extendqisi2
 4521 4230 0C599FE5 		ldr	r5, .L286+20
 4522 4234 0C3083E2 		add	r3, r3, #12
 4523 4238 0030C4E5 		strb	r3, [r4, #0]
 4524 423c 000A9FE5 		ldr	r0, .L286+276
 4525 4240 0C10A0E3 		mov	r1, #12
 4526 4244 FEFFFFEB 		bl	uart_transmit
 4527 4248 0010D5E5 		ldrb	r1, [r5, #0]	@ zero_extendqisi2
 4528 424c 0030D4E5 		ldrb	r3, [r4, #0]	@ zero_extendqisi2
 4529 4250 033081E0 		add	r3, r1, r3
 4530 4254 0030C4E5 		strb	r3, [r4, #0]
 4531 4258 E4099FE5 		ldr	r0, .L286+276
 4532 425c FEFFFFEB 		bl	uart_transmit
 4533 4260 0110D5E5 		ldrb	r1, [r5, #1]	@ zero_extendqisi2
 4534 4264 0030D4E5 		ldrb	r3, [r4, #0]	@ zero_extendqisi2
 4535 4268 033081E0 		add	r3, r1, r3
 4536 426c 0030C4E5 		strb	r3, [r4, #0]
 4537 4270 CC099FE5 		ldr	r0, .L286+276
 4538 4274 FEFFFFEB 		bl	uart_transmit
 4539 4278 C8389FE5 		ldr	r3, .L286+24
 4540 427c 0010D3E5 		ldrb	r1, [r3, #0]	@ zero_extendqisi2
 4541 4280 0030D4E5 		ldrb	r3, [r4, #0]	@ zero_extendqisi2
 4542 4284 033081E0 		add	r3, r1, r3
 4543 4288 0030C4E5 		strb	r3, [r4, #0]
 4544 428c B0099FE5 		ldr	r0, .L286+276
 4545 4290 FEFFFFEB 		bl	uart_transmit
 4546 4294 1E10DDE5 		ldrb	r1, [sp, #30]	@ zero_extendqisi2
 4547 4298 0030D4E5 		ldrb	r3, [r4, #0]	@ zero_extendqisi2
 4548 429c 033081E0 		add	r3, r1, r3
 4549 42a0 0030C4E5 		strb	r3, [r4, #0]
 4550 42a4 98099FE5 		ldr	r0, .L286+276
 4551 42a8 FEFFFFEB 		bl	uart_transmit
 4552 42ac 1F10DDE5 		ldrb	r1, [sp, #31]	@ zero_extendqisi2
 4553 42b0 0030D4E5 		ldrb	r3, [r4, #0]	@ zero_extendqisi2
 4554 42b4 90589FE5 		ldr	r5, .L286+28
 4555 42b8 033081E0 		add	r3, r1, r3
 4556 42bc 0030C4E5 		strb	r3, [r4, #0]
 4557 42c0 7C099FE5 		ldr	r0, .L286+276
 4558 42c4 FEFFFFEB 		bl	uart_transmit
 4559 42c8 0010D5E5 		ldrb	r1, [r5, #0]	@ zero_extendqisi2
 4560 42cc 0030D4E5 		ldrb	r3, [r4, #0]	@ zero_extendqisi2
 4561 42d0 033081E0 		add	r3, r1, r3
 4562 42d4 0030C4E5 		strb	r3, [r4, #0]
 4563 42d8 64099FE5 		ldr	r0, .L286+276
 4564 42dc FEFFFFEB 		bl	uart_transmit
 4565 42e0 0110D5E5 		ldrb	r1, [r5, #1]	@ zero_extendqisi2
 4566 42e4 0030D4E5 		ldrb	r3, [r4, #0]	@ zero_extendqisi2
 4567 42e8 033081E0 		add	r3, r1, r3
 4568 42ec 0030C4E5 		strb	r3, [r4, #0]
 4569 42f0 4C099FE5 		ldr	r0, .L286+276
 4570 42f4 FEFFFFEB 		bl	uart_transmit
 4571 42f8 50389FE5 		ldr	r3, .L286+32
 4572 42fc 0010D3E5 		ldrb	r1, [r3, #0]	@ zero_extendqisi2
 4573 4300 0030D4E5 		ldrb	r3, [r4, #0]	@ zero_extendqisi2
 4574 4304 48589FE5 		ldr	r5, .L286+36
 4575 4308 033081E0 		add	r3, r1, r3
 4576 430c 0030C4E5 		strb	r3, [r4, #0]
 4577 4310 2C099FE5 		ldr	r0, .L286+276
 4578 4314 FEFFFFEB 		bl	uart_transmit
 4579 4318 0010D5E5 		ldrb	r1, [r5, #0]	@ zero_extendqisi2
 4580 431c 0030D4E5 		ldrb	r3, [r4, #0]	@ zero_extendqisi2
 4581 4320 033081E0 		add	r3, r1, r3
 4582 4324 0030C4E5 		strb	r3, [r4, #0]
 4583 4328 14099FE5 		ldr	r0, .L286+276
 4584 432c FEFFFFEB 		bl	uart_transmit
 4585 4330 0110D5E5 		ldrb	r1, [r5, #1]	@ zero_extendqisi2
 4586 4334 0030D4E5 		ldrb	r3, [r4, #0]	@ zero_extendqisi2
 4587 4338 18589FE5 		ldr	r5, .L286+40
 4588 433c 033081E0 		add	r3, r1, r3
 4589 4340 0030C4E5 		strb	r3, [r4, #0]
 4590 4344 F8089FE5 		ldr	r0, .L286+276
 4591 4348 FEFFFFEB 		bl	uart_transmit
 4592 434c 0010D5E5 		ldrb	r1, [r5, #0]	@ zero_extendqisi2
 4593 4350 0030D4E5 		ldrb	r3, [r4, #0]	@ zero_extendqisi2
 4594 4354 033081E0 		add	r3, r1, r3
 4595 4358 0030C4E5 		strb	r3, [r4, #0]
 4596 435c E0089FE5 		ldr	r0, .L286+276
 4597 4360 FEFFFFEB 		bl	uart_transmit
 4598 4364 0110D5E5 		ldrb	r1, [r5, #1]	@ zero_extendqisi2
 4599 4368 0030D4E5 		ldrb	r3, [r4, #0]	@ zero_extendqisi2
 4600 436c 033081E0 		add	r3, r1, r3
 4601 4370 0030C4E5 		strb	r3, [r4, #0]
 4602 4374 C8089FE5 		ldr	r0, .L286+276
 4603 4378 FEFFFFEB 		bl	uart_transmit
 4604 437c 1C10DDE5 		ldrb	r1, [sp, #28]	@ zero_extendqisi2
 4605 4380 0030D4E5 		ldrb	r3, [r4, #0]	@ zero_extendqisi2
 4606 4384 033081E0 		add	r3, r1, r3
 4607 4388 0030C4E5 		strb	r3, [r4, #0]
 4608 438c B0089FE5 		ldr	r0, .L286+276
 4609 4390 FEFFFFEB 		bl	uart_transmit
 4610 4394 1D10DDE5 		ldrb	r1, [sp, #29]	@ zero_extendqisi2
 4611 4398 0030D4E5 		ldrb	r3, [r4, #0]	@ zero_extendqisi2
 4612 439c 033081E0 		add	r3, r1, r3
 4613 43a0 0030C4E5 		strb	r3, [r4, #0]
 4614 43a4 98089FE5 		ldr	r0, .L286+276
 4615 43a8 FEFFFFEB 		bl	uart_transmit
 4616 43ac 0010D4E5 		ldrb	r1, [r4, #0]	@ zero_extendqisi2
 4617 43b0 0110E0E1 		mvn	r1, r1
 4618 43b4 FF1001E2 		and	r1, r1, #255
 4619 43b8 0010C4E5 		strb	r1, [r4, #0]
 4620 43bc 80089FE5 		ldr	r0, .L286+276
 4621 43c0 FEFFFFEB 		bl	uart_transmit
 4622 43c4 030000EA 		b	.L130
 4623              	.L131:
 4624 43c8 48389FE5 		ldr	r3, .L286+232
 4625 43cc 0020D3E5 		ldrb	r2, [r3, #0]	@ zero_extendqisi2
 4626 43d0 012082E2 		add	r2, r2, #1
 4627 43d4 0020C3E5 		strb	r2, [r3, #0]
 4628              	.L130:
 4629 43d8 7C379FE5 		ldr	r3, .L286+44
 4630 43dc 0030D3E5 		ldrb	r3, [r3, #0]	@ zero_extendqisi2
 4631 43e0 0C0053E3 		cmp	r3, #12
 4632 43e4 7900001A 		bne	.L132
 4633 43e8 54089FE5 		ldr	r0, .L286+276
 4634 43ec 1310A0E3 		mov	r1, #19
 4635 43f0 FEFFFFEB 		bl	uart_check_free_space
 4636 43f4 000050E3 		cmp	r0, #0
 4637 43f8 7000000A 		beq	.L133
 4638 43fc 20389FE5 		ldr	r3, .L286+244
 4639 4400 B020D3E1 		ldrh	r2, [r3, #0]
 4640 4404 132082E2 		add	r2, r2, #19
 4641 4408 B020C3E1 		strh	r2, [r3, #0]	@ movhi
 4642 440c 14389FE5 		ldr	r3, .L286+248
 4643 4410 B020D3E1 		ldrh	r2, [r3, #0]
 4644 4414 012082E2 		add	r2, r2, #1
 4645 4418 B020C3E1 		strh	r2, [r3, #0]	@ movhi
 4646 441c 20089FE5 		ldr	r0, .L286+276
 4647 4420 7E10A0E3 		mov	r1, #126
 4648 4424 00489FE5 		ldr	r4, .L286+252
 4649 4428 FEFFFFEB 		bl	uart_transmit
 4650 442c 10089FE5 		ldr	r0, .L286+276
 4651 4430 0010A0E3 		mov	r1, #0
 4652 4434 FEFFFFEB 		bl	uart_transmit
 4653 4438 0150A0E3 		mov	r5, #1
 4654 443c 00089FE5 		ldr	r0, .L286+276
 4655 4440 0F10A0E3 		mov	r1, #15
 4656 4444 FEFFFFEB 		bl	uart_transmit
 4657 4448 0510A0E1 		mov	r1, r5
 4658 444c 0050C4E5 		strb	r5, [r4, #0]
 4659 4450 EC079FE5 		ldr	r0, .L286+276
 4660 4454 FEFFFFEB 		bl	uart_transmit
 4661 4458 E4079FE5 		ldr	r0, .L286+276
 4662 445c 0010A0E3 		mov	r1, #0
 4663 4460 FEFFFFEB 		bl	uart_transmit
 4664 4464 0030D4E5 		ldrb	r3, [r4, #0]	@ zero_extendqisi2
 4665 4468 053083E0 		add	r3, r3, r5
 4666 446c 0030C4E5 		strb	r3, [r4, #0]
 4667 4470 0510A0E1 		mov	r1, r5
 4668 4474 C8079FE5 		ldr	r0, .L286+276
 4669 4478 FEFFFFEB 		bl	uart_transmit
 4670 447c C0079FE5 		ldr	r0, .L286+276
 4671 4480 0010A0E3 		mov	r1, #0
 4672 4484 FEFFFFEB 		bl	uart_transmit
 4673 4488 B4079FE5 		ldr	r0, .L286+276
 4674 448c 0010A0E3 		mov	r1, #0
 4675 4490 FEFFFFEB 		bl	uart_transmit
 4676 4494 0030D4E5 		ldrb	r3, [r4, #0]	@ zero_extendqisi2
 4677 4498 023083E2 		add	r3, r3, #2
 4678 449c 0030C4E5 		strb	r3, [r4, #0]
 4679 44a0 9C079FE5 		ldr	r0, .L286+276
 4680 44a4 0210A0E3 		mov	r1, #2
 4681 44a8 FEFFFFEB 		bl	uart_transmit
 4682 44ac 0030D4E5 		ldrb	r3, [r4, #0]	@ zero_extendqisi2
 4683 44b0 2A3083E2 		add	r3, r3, #42
 4684 44b4 0030C4E5 		strb	r3, [r4, #0]
 4685 44b8 2A10A0E3 		mov	r1, #42
 4686 44bc 80079FE5 		ldr	r0, .L286+276
 4687 44c0 FEFFFFEB 		bl	uart_transmit
 4688 44c4 FEFFFFEB 		bl	stateGetPositionUtm_f
 4689 44c8 0030D4E5 		ldrb	r3, [r4, #0]	@ zero_extendqisi2
 4690 44cc 0810D0E5 		ldrb	r1, [r0, #8]	@ zero_extendqisi2
 4691 44d0 033081E0 		add	r3, r1, r3
 4692 44d4 0030C4E5 		strb	r3, [r4, #0]
 4693 44d8 64079FE5 		ldr	r0, .L286+276
 4694 44dc FEFFFFEB 		bl	uart_transmit
 4695 44e0 FEFFFFEB 		bl	stateGetPositionUtm_f
 4696 44e4 0030D4E5 		ldrb	r3, [r4, #0]	@ zero_extendqisi2
 4697 44e8 0910D0E5 		ldrb	r1, [r0, #9]	@ zero_extendqisi2
 4698 44ec 033081E0 		add	r3, r1, r3
 4699 44f0 0030C4E5 		strb	r3, [r4, #0]
 4700 44f4 48079FE5 		ldr	r0, .L286+276
 4701 44f8 FEFFFFEB 		bl	uart_transmit
 4702 44fc FEFFFFEB 		bl	stateGetPositionUtm_f
 4703 4500 0030D4E5 		ldrb	r3, [r4, #0]	@ zero_extendqisi2
 4704 4504 0A10D0E5 		ldrb	r1, [r0, #10]	@ zero_extendqisi2
 4705 4508 033081E0 		add	r3, r1, r3
 4706 450c 0030C4E5 		strb	r3, [r4, #0]
 4707 4510 2C079FE5 		ldr	r0, .L286+276
 4708 4514 FEFFFFEB 		bl	uart_transmit
 4709 4518 FEFFFFEB 		bl	stateGetPositionUtm_f
 4710 451c 0030D4E5 		ldrb	r3, [r4, #0]	@ zero_extendqisi2
 4711 4520 0B10D0E5 		ldrb	r1, [r0, #11]	@ zero_extendqisi2
 4712 4524 033081E0 		add	r3, r1, r3
 4713 4528 0030C4E5 		strb	r3, [r4, #0]
 4714 452c 10079FE5 		ldr	r0, .L286+276
 4715 4530 FEFFFFEB 		bl	uart_transmit
 4716 4534 FEFFFFEB 		bl	stateGetSpeedEnu_f
 4717 4538 0030D4E5 		ldrb	r3, [r4, #0]	@ zero_extendqisi2
 4718 453c 0810D0E5 		ldrb	r1, [r0, #8]	@ zero_extendqisi2
 4719 4540 033081E0 		add	r3, r1, r3
 4720 4544 0030C4E5 		strb	r3, [r4, #0]
 4721 4548 F4069FE5 		ldr	r0, .L286+276
 4722 454c FEFFFFEB 		bl	uart_transmit
 4723 4550 FEFFFFEB 		bl	stateGetSpeedEnu_f
 4724 4554 0030D4E5 		ldrb	r3, [r4, #0]	@ zero_extendqisi2
 4725 4558 0910D0E5 		ldrb	r1, [r0, #9]	@ zero_extendqisi2
 4726 455c 033081E0 		add	r3, r1, r3
 4727 4560 0030C4E5 		strb	r3, [r4, #0]
 4728 4564 D8069FE5 		ldr	r0, .L286+276
 4729 4568 FEFFFFEB 		bl	uart_transmit
 4730 456c FEFFFFEB 		bl	stateGetSpeedEnu_f
 4731 4570 0030D4E5 		ldrb	r3, [r4, #0]	@ zero_extendqisi2
 4732 4574 0A10D0E5 		ldrb	r1, [r0, #10]	@ zero_extendqisi2
 4733 4578 033081E0 		add	r3, r1, r3
 4734 457c 0030C4E5 		strb	r3, [r4, #0]
 4735 4580 BC069FE5 		ldr	r0, .L286+276
 4736 4584 FEFFFFEB 		bl	uart_transmit
 4737 4588 FEFFFFEB 		bl	stateGetSpeedEnu_f
 4738 458c 0030D4E5 		ldrb	r3, [r4, #0]	@ zero_extendqisi2
 4739 4590 0B10D0E5 		ldrb	r1, [r0, #11]	@ zero_extendqisi2
 4740 4594 033081E0 		add	r3, r1, r3
 4741 4598 0030C4E5 		strb	r3, [r4, #0]
 4742 459c A0069FE5 		ldr	r0, .L286+276
 4743 45a0 FEFFFFEB 		bl	uart_transmit
 4744 45a4 0010D4E5 		ldrb	r1, [r4, #0]	@ zero_extendqisi2
 4745 45a8 0110E0E1 		mvn	r1, r1
 4746 45ac FF1001E2 		and	r1, r1, #255
 4747 45b0 0010C4E5 		strb	r1, [r4, #0]
 4748 45b4 88069FE5 		ldr	r0, .L286+276
 4749 45b8 FEFFFFEB 		bl	uart_transmit
 4750 45bc 030000EA 		b	.L132
 4751              	.L133:
 4752 45c0 50369FE5 		ldr	r3, .L286+232
 4753 45c4 0020D3E5 		ldrb	r2, [r3, #0]	@ zero_extendqisi2
 4754 45c8 012082E2 		add	r2, r2, #1
 4755 45cc 0020C3E5 		strb	r2, [r3, #0]
 4756              	.L132:
 4757 45d0 88359FE5 		ldr	r3, .L286+48
 4758 45d4 0030D3E5 		ldrb	r3, [r3, #0]	@ zero_extendqisi2
 4759 45d8 120053E3 		cmp	r3, #18
 4760 45dc BA00001A 		bne	.L134
 4761 45e0 7C359FE5 		ldr	r3, .L286+52
 4762 45e4 7C159FE5 		ldr	r1, .L286+56
 4763 45e8 0020D3E5 		ldrb	r2, [r3, #0]	@ zero_extendqisi2
 4764 45ec 0010D1E5 		ldrb	r1, [r1, #0]	@ zero_extendqisi2
 4765 45f0 012082E2 		add	r2, r2, #1
 4766 45f4 FF2002E2 		and	r2, r2, #255
 4767 45f8 020051E1 		cmp	r1, r2
 4768 45fc 0020C3E5 		strb	r2, [r3, #0]
 4769 4600 0020A093 		movls	r2, #0
 4770 4604 0020C395 		strlsb	r2, [r3, #0]
 4771 4608 0040D3E5 		ldrb	r4, [r3, #0]	@ zero_extendqisi2
 4772 460c 58359FE5 		ldr	r3, .L286+60
 4773 4610 0C60A0E3 		mov	r6, #12
 4774 4614 000093E5 		ldr	r0, [r3, #0]
 4775 4618 FEFFFFEB 		bl	__aeabi_i2f
 4776 461c 960403E0 		mul	r3, r6, r4
 4777 4620 48559FE5 		ldr	r5, .L286+64
 4778 4624 031095E7 		ldr	r1, [r5, r3]	@ float
 4779 4628 034085E0 		add	r4, r5, r3
 4780 462c FEFFFFEB 		bl	__aeabi_fadd
 4781 4630 3C359FE5 		ldr	r3, .L286+68
 4782 4634 18008DE5 		str	r0, [sp, #24]	@ float
 4783 4638 000093E5 		ldr	r0, [r3, #0]
 4784 463c FEFFFFEB 		bl	__aeabi_i2f
 4785 4640 041094E5 		ldr	r1, [r4, #4]	@ float
 4786 4644 FEFFFFEB 		bl	__aeabi_fadd
 4787 4648 1910A0E3 		mov	r1, #25
 4788 464c 10008DE5 		str	r0, [sp, #16]	@ float
 4789 4650 EC059FE5 		ldr	r0, .L286+276
 4790 4654 FEFFFFEB 		bl	uart_check_free_space
 4791 4658 000050E3 		cmp	r0, #0
 4792 465c 00759FE5 		ldr	r7, .L286+52
 4793 4660 9500000A 		beq	.L136
 4794 4664 B8359FE5 		ldr	r3, .L286+244
 4795 4668 B020D3E1 		ldrh	r2, [r3, #0]
 4796 466c 192082E2 		add	r2, r2, #25
 4797 4670 B020C3E1 		strh	r2, [r3, #0]	@ movhi
 4798 4674 AC359FE5 		ldr	r3, .L286+248
 4799 4678 B020D3E1 		ldrh	r2, [r3, #0]
 4800 467c 012082E2 		add	r2, r2, #1
 4801 4680 B020C3E1 		strh	r2, [r3, #0]	@ movhi
 4802 4684 B8059FE5 		ldr	r0, .L286+276
 4803 4688 7E10A0E3 		mov	r1, #126
 4804 468c 98459FE5 		ldr	r4, .L286+252
 4805 4690 FEFFFFEB 		bl	uart_transmit
 4806 4694 A8059FE5 		ldr	r0, .L286+276
 4807 4698 0010A0E3 		mov	r1, #0
 4808 469c FEFFFFEB 		bl	uart_transmit
 4809 46a0 0180A0E3 		mov	r8, #1
 4810 46a4 98059FE5 		ldr	r0, .L286+276
 4811 46a8 1510A0E3 		mov	r1, #21
 4812 46ac FEFFFFEB 		bl	uart_transmit
 4813 46b0 0810A0E1 		mov	r1, r8
 4814 46b4 0080C4E5 		strb	r8, [r4, #0]
 4815 46b8 84059FE5 		ldr	r0, .L286+276
 4816 46bc FEFFFFEB 		bl	uart_transmit
 4817 46c0 7C059FE5 		ldr	r0, .L286+276
 4818 46c4 0010A0E3 		mov	r1, #0
 4819 46c8 FEFFFFEB 		bl	uart_transmit
 4820 46cc 0030D4E5 		ldrb	r3, [r4, #0]	@ zero_extendqisi2
 4821 46d0 083083E0 		add	r3, r3, r8
 4822 46d4 0030C4E5 		strb	r3, [r4, #0]
 4823 46d8 0810A0E1 		mov	r1, r8
 4824 46dc 60059FE5 		ldr	r0, .L286+276
 4825 46e0 FEFFFFEB 		bl	uart_transmit
 4826 46e4 58059FE5 		ldr	r0, .L286+276
 4827 46e8 0010A0E3 		mov	r1, #0
 4828 46ec FEFFFFEB 		bl	uart_transmit
 4829 46f0 4C059FE5 		ldr	r0, .L286+276
 4830 46f4 0010A0E3 		mov	r1, #0
 4831 46f8 FEFFFFEB 		bl	uart_transmit
 4832 46fc 0030D4E5 		ldrb	r3, [r4, #0]	@ zero_extendqisi2
 4833 4700 023083E2 		add	r3, r3, #2
 4834 4704 0030C4E5 		strb	r3, [r4, #0]
 4835 4708 34059FE5 		ldr	r0, .L286+276
 4836 470c 0210A0E3 		mov	r1, #2
 4837 4710 FEFFFFEB 		bl	uart_transmit
 4838 4714 0030D4E5 		ldrb	r3, [r4, #0]	@ zero_extendqisi2
 4839 4718 233083E2 		add	r3, r3, #35
 4840 471c 0030C4E5 		strb	r3, [r4, #0]
 4841 4720 1C059FE5 		ldr	r0, .L286+276
 4842 4724 2310A0E3 		mov	r1, #35
 4843 4728 FEFFFFEB 		bl	uart_transmit
 4844 472c 0010D7E5 		ldrb	r1, [r7, #0]	@ zero_extendqisi2
 4845 4730 0030D4E5 		ldrb	r3, [r4, #0]	@ zero_extendqisi2
 4846 4734 033081E0 		add	r3, r1, r3
 4847 4738 0030C4E5 		strb	r3, [r4, #0]
 4848 473c 00059FE5 		ldr	r0, .L286+276
 4849 4740 FEFFFFEB 		bl	uart_transmit
 4850 4744 1810DDE5 		ldrb	r1, [sp, #24]	@ zero_extendqisi2
 4851 4748 0030D4E5 		ldrb	r3, [r4, #0]	@ zero_extendqisi2
 4852 474c 033081E0 		add	r3, r1, r3
 4853 4750 0030C4E5 		strb	r3, [r4, #0]
 4854 4754 E8049FE5 		ldr	r0, .L286+276
 4855 4758 FEFFFFEB 		bl	uart_transmit
 4856 475c 1910DDE5 		ldrb	r1, [sp, #25]	@ zero_extendqisi2
 4857 4760 0030D4E5 		ldrb	r3, [r4, #0]	@ zero_extendqisi2
 4858 4764 033081E0 		add	r3, r1, r3
 4859 4768 0030C4E5 		strb	r3, [r4, #0]
 4860 476c D0049FE5 		ldr	r0, .L286+276
 4861 4770 FEFFFFEB 		bl	uart_transmit
 4862 4774 1A10DDE5 		ldrb	r1, [sp, #26]	@ zero_extendqisi2
 4863 4778 0030D4E5 		ldrb	r3, [r4, #0]	@ zero_extendqisi2
 4864 477c 033081E0 		add	r3, r1, r3
 4865 4780 0030C4E5 		strb	r3, [r4, #0]
 4866 4784 B8049FE5 		ldr	r0, .L286+276
 4867 4788 FEFFFFEB 		bl	uart_transmit
 4868 478c 1B10DDE5 		ldrb	r1, [sp, #27]	@ zero_extendqisi2
 4869 4790 0030D4E5 		ldrb	r3, [r4, #0]	@ zero_extendqisi2
 4870 4794 033081E0 		add	r3, r1, r3
 4871 4798 0030C4E5 		strb	r3, [r4, #0]
 4872 479c A0049FE5 		ldr	r0, .L286+276
 4873 47a0 FEFFFFEB 		bl	uart_transmit
 4874 47a4 1010DDE5 		ldrb	r1, [sp, #16]	@ zero_extendqisi2
 4875 47a8 0030D4E5 		ldrb	r3, [r4, #0]	@ zero_extendqisi2
 4876 47ac 033081E0 		add	r3, r1, r3
 4877 47b0 0030C4E5 		strb	r3, [r4, #0]
 4878 47b4 88049FE5 		ldr	r0, .L286+276
 4879 47b8 FEFFFFEB 		bl	uart_transmit
 4880 47bc 1110DDE5 		ldrb	r1, [sp, #17]	@ zero_extendqisi2
 4881 47c0 0030D4E5 		ldrb	r3, [r4, #0]	@ zero_extendqisi2
 4882 47c4 033081E0 		add	r3, r1, r3
 4883 47c8 0030C4E5 		strb	r3, [r4, #0]
 4884 47cc 70049FE5 		ldr	r0, .L286+276
 4885 47d0 FEFFFFEB 		bl	uart_transmit
 4886 47d4 1210DDE5 		ldrb	r1, [sp, #18]	@ zero_extendqisi2
 4887 47d8 0030D4E5 		ldrb	r3, [r4, #0]	@ zero_extendqisi2
 4888 47dc 033081E0 		add	r3, r1, r3
 4889 47e0 0030C4E5 		strb	r3, [r4, #0]
 4890 47e4 58049FE5 		ldr	r0, .L286+276
 4891 47e8 FEFFFFEB 		bl	uart_transmit
 4892 47ec 1310DDE5 		ldrb	r1, [sp, #19]	@ zero_extendqisi2
 4893 47f0 0030D4E5 		ldrb	r3, [r4, #0]	@ zero_extendqisi2
 4894 47f4 033081E0 		add	r3, r1, r3
 4895 47f8 0030C4E5 		strb	r3, [r4, #0]
 4896 47fc 40049FE5 		ldr	r0, .L286+276
 4897 4800 FEFFFFEB 		bl	uart_transmit
 4898 4804 0030D7E5 		ldrb	r3, [r7, #0]	@ zero_extendqisi2
 4899 4808 965323E0 		mla	r3, r6, r3, r5
 4900 480c 0810D3E5 		ldrb	r1, [r3, #8]	@ zero_extendqisi2
 4901 4810 0030D4E5 		ldrb	r3, [r4, #0]	@ zero_extendqisi2
 4902 4814 033081E0 		add	r3, r1, r3
 4903 4818 0030C4E5 		strb	r3, [r4, #0]
 4904 481c 20049FE5 		ldr	r0, .L286+276
 4905 4820 FEFFFFEB 		bl	uart_transmit
 4906 4824 0030D7E5 		ldrb	r3, [r7, #0]	@ zero_extendqisi2
 4907 4828 965323E0 		mla	r3, r6, r3, r5
 4908 482c 0910D3E5 		ldrb	r1, [r3, #9]	@ zero_extendqisi2
 4909 4830 0030D4E5 		ldrb	r3, [r4, #0]	@ zero_extendqisi2
 4910 4834 033081E0 		add	r3, r1, r3
 4911 4838 0030C4E5 		strb	r3, [r4, #0]
 4912 483c 00049FE5 		ldr	r0, .L286+276
 4913 4840 FEFFFFEB 		bl	uart_transmit
 4914 4844 0030D7E5 		ldrb	r3, [r7, #0]	@ zero_extendqisi2
 4915 4848 965323E0 		mla	r3, r6, r3, r5
 4916 484c 0A10D3E5 		ldrb	r1, [r3, #10]	@ zero_extendqisi2
 4917 4850 0030D4E5 		ldrb	r3, [r4, #0]	@ zero_extendqisi2
 4918 4854 033081E0 		add	r3, r1, r3
 4919 4858 0030C4E5 		strb	r3, [r4, #0]
 4920 485c E0039FE5 		ldr	r0, .L286+276
 4921 4860 FEFFFFEB 		bl	uart_transmit
 4922 4864 0030D7E5 		ldrb	r3, [r7, #0]	@ zero_extendqisi2
 4923 4868 965325E0 		mla	r5, r6, r3, r5
 4924 486c 0030D4E5 		ldrb	r3, [r4, #0]	@ zero_extendqisi2
 4925 4870 0B10D5E5 		ldrb	r1, [r5, #11]	@ zero_extendqisi2
 4926 4874 033081E0 		add	r3, r1, r3
 4927 4878 0030C4E5 		strb	r3, [r4, #0]
 4928 487c C0039FE5 		ldr	r0, .L286+276
 4929 4880 FEFFFFEB 		bl	uart_transmit
 4930 4884 EC329FE5 		ldr	r3, .L286+72
 4931 4888 0010D3E5 		ldrb	r1, [r3, #0]	@ zero_extendqisi2
 4932 488c 0030D4E5 		ldrb	r3, [r4, #0]	@ zero_extendqisi2
 4933 4890 033081E0 		add	r3, r1, r3
 4934 4894 0030C4E5 		strb	r3, [r4, #0]
 4935 4898 A4039FE5 		ldr	r0, .L286+276
 4936 489c FEFFFFEB 		bl	uart_transmit
 4937 48a0 0010D4E5 		ldrb	r1, [r4, #0]	@ zero_extendqisi2
 4938 48a4 0110E0E1 		mvn	r1, r1
 4939 48a8 FF1001E2 		and	r1, r1, #255
 4940 48ac 0010C4E5 		strb	r1, [r4, #0]
 4941 48b0 8C039FE5 		ldr	r0, .L286+276
 4942 48b4 FEFFFFEB 		bl	uart_transmit
 4943 48b8 030000EA 		b	.L134
 4944              	.L136:
 4945 48bc 54339FE5 		ldr	r3, .L286+232
 4946 48c0 0020D3E5 		ldrb	r2, [r3, #0]	@ zero_extendqisi2
 4947 48c4 012082E2 		add	r2, r2, #1
 4948 48c8 0020C3E5 		strb	r2, [r3, #0]
 4949              	.L134:
 4950 48cc A8329FE5 		ldr	r3, .L286+76
 4951 48d0 0030D3E5 		ldrb	r3, [r3, #0]	@ zero_extendqisi2
 4952 48d4 180053E3 		cmp	r3, #24
 4953 48d8 E200001A 		bne	.L137
 4954 48dc C4329FE5 		ldr	r3, .L286+120
 4955 48e0 0020D3E5 		ldrb	r2, [r3, #0]	@ zero_extendqisi2
 4956 48e4 0C0052E3 		cmp	r2, #12
 4957 48e8 0020A083 		movhi	r2, #0
 4958 48ec 0020C385 		strhib	r2, [r3, #0]
 4959 48f0 0030D3E5 		ldrb	r3, [r3, #0]	@ zero_extendqisi2
 4960 48f4 0C0053E3 		cmp	r3, #12
 4961 48f8 03F19F97 		ldrls	pc, [pc, r3, asl #2]
 4962 48fc 2C0000EA 		b	.L139
 4963              	.L153:
 4964 4900 34490000 		.word	.L140
 4965 4904 3C490000 		.word	.L141
 4966 4908 50490000 		.word	.L142
 4967 490c 58490000 		.word	.L143
 4968 4910 60490000 		.word	.L144
 4969 4914 68490000 		.word	.L145
 4970 4918 74490000 		.word	.L146
 4971 491c 80490000 		.word	.L147
 4972 4920 88490000 		.word	.L148
 4973 4924 90490000 		.word	.L149
 4974 4928 98490000 		.word	.L150
 4975 492c A4490000 		.word	.L151
 4976 4930 AC490000 		.word	.L152
 4977              	.L140:
 4978 4934 44329FE5 		ldr	r3, .L286+80
 4979 4938 000000EA 		b	.L267
 4980              	.L141:
 4981 493c 40329FE5 		ldr	r3, .L286+84
 4982              	.L267:
 4983 4940 0000D3E5 		ldrb	r0, [r3, #0]	@ zero_extendqisi2
 4984              	.L268:
 4985 4944 FEFFFFEB 		bl	__aeabi_ui2f
 4986 4948 10008DE5 		str	r0, [sp, #16]	@ float
 4987 494c 1A0000EA 		b	.L154
 4988              	.L142:
 4989 4950 30329FE5 		ldr	r3, .L286+88
 4990 4954 070000EA 		b	.L279
 4991              	.L143:
 4992 4958 2C329FE5 		ldr	r3, .L286+92
 4993 495c 050000EA 		b	.L279
 4994              	.L144:
 4995 4960 28329FE5 		ldr	r3, .L286+96
 4996 4964 030000EA 		b	.L279
 4997              	.L145:
 4998 4968 DC319FE5 		ldr	r3, .L286+28
 4999 496c B000D3E1 		ldrh	r0, [r3, #0]
 5000 4970 F3FFFFEA 		b	.L268
 5001              	.L146:
 5002 4974 18329FE5 		ldr	r3, .L286+100
 5003              	.L279:
 5004 4978 003093E5 		ldr	r3, [r3, #0]	@ float
 5005 497c 0D0000EA 		b	.L269
 5006              	.L147:
 5007 4980 10329FE5 		ldr	r3, .L286+104
 5008 4984 EDFFFFEA 		b	.L267
 5009              	.L148:
 5010 4988 0C329FE5 		ldr	r3, .L286+108
 5011 498c EBFFFFEA 		b	.L267
 5012              	.L149:
 5013 4990 B8319FE5 		ldr	r3, .L286+32
 5014 4994 E9FFFFEA 		b	.L267
 5015              	.L150:
 5016 4998 94319FE5 		ldr	r3, .L286+4
 5017 499c B00FD3E1 		ldrh	r0, [r3, #240]
 5018 49a0 E7FFFFEA 		b	.L268
 5019              	.L151:
 5020 49a4 F4319FE5 		ldr	r3, .L286+112
 5021 49a8 E4FFFFEA 		b	.L267
 5022              	.L152:
 5023 49ac F0319FE5 		ldr	r3, .L286+116
 5024 49b0 E2FFFFEA 		b	.L267
 5025              	.L139:
 5026 49b4 0030A0E3 		mov	r3, #0
 5027              	.L269:
 5028 49b8 10308DE5 		str	r3, [sp, #16]	@ float
 5029              	.L154:
 5030 49bc 80029FE5 		ldr	r0, .L286+276
 5031 49c0 1010A0E3 		mov	r1, #16
 5032 49c4 FEFFFFEB 		bl	uart_check_free_space
 5033 49c8 000050E3 		cmp	r0, #0
 5034 49cc 9D00000A 		beq	.L155
 5035 49d0 4C329FE5 		ldr	r3, .L286+244
 5036 49d4 B020D3E1 		ldrh	r2, [r3, #0]
 5037 49d8 102082E2 		add	r2, r2, #16
 5038 49dc B020C3E1 		strh	r2, [r3, #0]	@ movhi
 5039 49e0 40329FE5 		ldr	r3, .L286+248
 5040 49e4 B020D3E1 		ldrh	r2, [r3, #0]
 5041 49e8 012082E2 		add	r2, r2, #1
 5042 49ec B020C3E1 		strh	r2, [r3, #0]	@ movhi
 5043 49f0 4C029FE5 		ldr	r0, .L286+276
 5044 49f4 7E10A0E3 		mov	r1, #126
 5045 49f8 2C429FE5 		ldr	r4, .L286+252
 5046 49fc FEFFFFEB 		bl	uart_transmit
 5047 4a00 3C029FE5 		ldr	r0, .L286+276
 5048 4a04 0010A0E3 		mov	r1, #0
 5049 4a08 FEFFFFEB 		bl	uart_transmit
 5050 4a0c 0150A0E3 		mov	r5, #1
 5051 4a10 2C029FE5 		ldr	r0, .L286+276
 5052 4a14 0C10A0E3 		mov	r1, #12
 5053 4a18 FEFFFFEB 		bl	uart_transmit
 5054 4a1c 0510A0E1 		mov	r1, r5
 5055 4a20 0050C4E5 		strb	r5, [r4, #0]
 5056 4a24 18029FE5 		ldr	r0, .L286+276
 5057 4a28 FEFFFFEB 		bl	uart_transmit
 5058 4a2c 10029FE5 		ldr	r0, .L286+276
 5059 4a30 0010A0E3 		mov	r1, #0
 5060 4a34 FEFFFFEB 		bl	uart_transmit
 5061 4a38 0030D4E5 		ldrb	r3, [r4, #0]	@ zero_extendqisi2
 5062 4a3c 053083E0 		add	r3, r3, r5
 5063 4a40 0030C4E5 		strb	r3, [r4, #0]
 5064 4a44 0510A0E1 		mov	r1, r5
 5065 4a48 F4019FE5 		ldr	r0, .L286+276
 5066 4a4c FEFFFFEB 		bl	uart_transmit
 5067 4a50 EC019FE5 		ldr	r0, .L286+276
 5068 4a54 0010A0E3 		mov	r1, #0
 5069 4a58 FEFFFFEB 		bl	uart_transmit
 5070 4a5c E0019FE5 		ldr	r0, .L286+276
 5071 4a60 0010A0E3 		mov	r1, #0
 5072 4a64 FEFFFFEB 		bl	uart_transmit
 5073 4a68 0030D4E5 		ldrb	r3, [r4, #0]	@ zero_extendqisi2
 5074 4a6c 023083E2 		add	r3, r3, #2
 5075 4a70 0030C4E5 		strb	r3, [r4, #0]
 5076 4a74 C8019FE5 		ldr	r0, .L286+276
 5077 4a78 0210A0E3 		mov	r1, #2
 5078 4a7c FEFFFFEB 		bl	uart_transmit
 5079 4a80 0030D4E5 		ldrb	r3, [r4, #0]	@ zero_extendqisi2
 5080 4a84 1F3083E2 		add	r3, r3, #31
 5081 4a88 0030C4E5 		strb	r3, [r4, #0]
 5082 4a8c B0019FE5 		ldr	r0, .L286+276
 5083 4a90 1F10A0E3 		mov	r1, #31
 5084 4a94 FEFFFFEB 		bl	uart_transmit
 5085 4a98 08319FE5 		ldr	r3, .L286+120
 5086 4a9c 0010D3E5 		ldrb	r1, [r3, #0]	@ zero_extendqisi2
 5087 4aa0 0030D4E5 		ldrb	r3, [r4, #0]	@ zero_extendqisi2
 5088 4aa4 033081E0 		add	r3, r1, r3
 5089 4aa8 0030C4E5 		strb	r3, [r4, #0]
 5090 4aac 90019FE5 		ldr	r0, .L286+276
 5091 4ab0 FEFFFFEB 		bl	uart_transmit
 5092 4ab4 1010DDE5 		ldrb	r1, [sp, #16]	@ zero_extendqisi2
 5093 4ab8 0030D4E5 		ldrb	r3, [r4, #0]	@ zero_extendqisi2
 5094 4abc 033081E0 		add	r3, r1, r3
 5095 4ac0 0030C4E5 		strb	r3, [r4, #0]
 5096 4ac4 78019FE5 		ldr	r0, .L286+276
 5097 4ac8 FEFFFFEB 		bl	uart_transmit
 5098 4acc 1110DDE5 		ldrb	r1, [sp, #17]	@ zero_extendqisi2
 5099 4ad0 0030D4E5 		ldrb	r3, [r4, #0]	@ zero_extendqisi2
 5100 4ad4 033081E0 		add	r3, r1, r3
 5101 4ad8 0030C4E5 		strb	r3, [r4, #0]
 5102 4adc 60019FE5 		ldr	r0, .L286+276
 5103 4ae0 FEFFFFEB 		bl	uart_transmit
 5104 4ae4 1210DDE5 		ldrb	r1, [sp, #18]	@ zero_extendqisi2
 5105 4ae8 0030D4E5 		ldrb	r3, [r4, #0]	@ zero_extendqisi2
 5106 4aec 033081E0 		add	r3, r1, r3
 5107 4af0 0030C4E5 		strb	r3, [r4, #0]
 5108 4af4 48019FE5 		ldr	r0, .L286+276
 5109 4af8 FEFFFFEB 		bl	uart_transmit
 5110 4afc 1310DDE5 		ldrb	r1, [sp, #19]	@ zero_extendqisi2
 5111 4b00 0030D4E5 		ldrb	r3, [r4, #0]	@ zero_extendqisi2
 5112 4b04 033081E0 		add	r3, r1, r3
 5113 4b08 0030C4E5 		strb	r3, [r4, #0]
 5114 4b0c 30019FE5 		ldr	r0, .L286+276
 5115 4b10 FEFFFFEB 		bl	uart_transmit
 5116 4b14 0010D4E5 		ldrb	r1, [r4, #0]	@ zero_extendqisi2
 5117 4b18 0110E0E1 		mvn	r1, r1
 5118 4b1c FF1001E2 		and	r1, r1, #255
 5119 4b20 0010C4E5 		strb	r1, [r4, #0]
 5120 4b24 18019FE5 		ldr	r0, .L286+276
 5121 4b28 FEFFFFEB 		bl	uart_transmit
 5122 4b2c 490000EA 		b	.L156
 5123              	.L287:
 5124              		.align	2
 5125              	.L286:
 5126 4b30 00000000 		.word	.LANCHOR42
 5127 4b34 00000000 		.word	gps
 5128 4b38 00000000 		.word	.LANCHOR27
 5129 4b3c 00000000 		.word	.LANCHOR17
 5130 4b40 00000000 		.word	energy
 5131 4b44 00000000 		.word	v_ctl_throttle_slewed
 5132 4b48 00000000 		.word	vsupply
 5133 4b4c 00000000 		.word	.LANCHOR18
 5134 4b50 00000000 		.word	.LANCHOR19
 5135 4b54 00000000 		.word	block_time
 5136 4b58 00000000 		.word	stage_time
 5137 4b5c 00000000 		.word	.LANCHOR28
 5138 4b60 00000000 		.word	.LANCHOR29
 5139 4b64 00000000 		.word	.LANCHOR43
 5140 4b68 00000000 		.word	nb_waypoint
 5141 4b6c 00000000 		.word	nav_utm_east0
 5142 4b70 00000000 		.word	waypoints
 5143 4b74 00000000 		.word	nav_utm_north0
 5144 4b78 00000000 		.word	nav_utm_zone0
 5145 4b7c 00000000 		.word	.LANCHOR30
 5146 4b80 00000000 		.word	telemetry_mode_Ap
 5147 4b84 00000000 		.word	telemetry_mode_Fbw
 5148 4b88 00000000 		.word	flight_altitude
 5149 4b8c 00000000 		.word	nav_course
 5150 4b90 00000000 		.word	nav_shift
 5151 4b94 00000000 		.word	nav_radius
 5152 4b98 00000000 		.word	.LANCHOR21
 5153 4b9c 00000000 		.word	.LANCHOR22
 5154 4ba0 00000000 		.word	openlog_periodic_2Hz_openlog_status
 5155 4ba4 00000000 		.word	digital_cam_servo_servo_cam_ctrl_periodic_status
 5156 4ba8 00000000 		.word	.LANCHOR44
 5157 4bac 00000000 		.word	.LANCHOR31
 5158 4bb0 00000000 		.word	nav_survey_active
 5159 4bb4 00000000 		.word	nav_survey_east
 5160 4bb8 00000000 		.word	nav_survey_north
 5161 4bbc 00000000 		.word	nav_survey_west
 5162 4bc0 00000000 		.word	nav_survey_south
 5163 4bc4 00000000 		.word	.LANCHOR32
 5164 4bc8 00000000 		.word	nav_circle_radians
 5165 4bcc 182D4454 		.word	1413754136
 5166 4bd0 FB211940 		.word	1075388923
 5167 4bd4 00000000 		.word	nav_block
 5168 4bd8 00000000 		.word	nav_stage
 5169 4bdc 00000000 		.word	dist2_to_wp
 5170 4be0 00000000 		.word	dist2_to_home
 5171 4be4 00000000 		.word	nav_oval_count
 5172 4be8 00000000 		.word	.LANCHOR33
 5173 4bec 00000000 		.word	nav_in_circle
 5174 4bf0 00000000 		.word	nav_circle_x
 5175 4bf4 00000000 		.word	nav_circle_y
 5176 4bf8 00000000 		.word	nav_circle_radius
 5177 4bfc 00000000 		.word	.LANCHOR34
 5178 4c00 00000000 		.word	nav_in_segment
 5179 4c04 00000000 		.word	nav_segment_x_1
 5180 4c08 00000000 		.word	nav_segment_y_1
 5181 4c0c 00000000 		.word	nav_segment_x_2
 5182 4c10 00000000 		.word	nav_segment_y_2
 5183 4c14 00000000 		.word	.LANCHOR35
 5184 4c18 00000000 		.word	downlink_nb_ovrn
 5185 4c1c 00000000 		.word	.LANCHOR36
 5186 4c20 00005041 		.word	1095761920
 5187 4c24 00000000 		.word	downlink_nb_bytes
 5188 4c28 00000000 		.word	downlink_nb_msgs
 5189 4c2c 00000000 		.word	xbee_cs
 5190 4c30 00000000 		.word	h_ctl_roll_setpoint
 5191 4c34 00000000 		.word	h_ctl_pitch_loop_setpoint
 5192 4c38 00000000 		.word	h_ctl_course_setpoint
 5193 4c3c 00000000 		.word	desired_x
 5194 4c40 00000000 		.word	desired_y
 5195 4c44 00000000 		.word	uart0
 5196              	.L155:
 5197 4c48 38301FE5 		ldr	r3, .L286+232
 5198 4c4c 0020D3E5 		ldrb	r2, [r3, #0]	@ zero_extendqisi2
 5199 4c50 012082E2 		add	r2, r2, #1
 5200 4c54 0020C3E5 		strb	r2, [r3, #0]
 5201              	.L156:
 5202 4c58 B8301FE5 		ldr	r3, .L286+120
 5203 4c5c 0020D3E5 		ldrb	r2, [r3, #0]	@ zero_extendqisi2
 5204 4c60 012082E2 		add	r2, r2, #1
 5205 4c64 0020C3E5 		strb	r2, [r3, #0]
 5206              	.L137:
 5207 4c68 C4301FE5 		ldr	r3, .L286+124
 5208 4c6c 0030D3E5 		ldrb	r3, [r3, #0]	@ zero_extendqisi2
 5209 4c70 1E0053E3 		cmp	r3, #30
 5210 4c74 A900001A 		bne	.L157
 5211 4c78 D0301FE5 		ldr	r3, .L286+128
 5212 4c7c 0030D3E5 		ldrb	r3, [r3, #0]	@ zero_extendqisi2
 5213 4c80 000053E3 		cmp	r3, #0
 5214 4c84 A500000A 		beq	.L157
 5215 4c88 4C001FE5 		ldr	r0, .L286+276
 5216 4c8c 1B10A0E3 		mov	r1, #27
 5217 4c90 FEFFFFEB 		bl	uart_check_free_space
 5218 4c94 000050E3 		cmp	r0, #0
 5219 4c98 9C00000A 		beq	.L158
 5220 4c9c 80301FE5 		ldr	r3, .L286+244
 5221 4ca0 B020D3E1 		ldrh	r2, [r3, #0]
 5222 4ca4 1B2082E2 		add	r2, r2, #27
 5223 4ca8 B020C3E1 		strh	r2, [r3, #0]	@ movhi
 5224 4cac 8C301FE5 		ldr	r3, .L286+248
 5225 4cb0 B020D3E1 		ldrh	r2, [r3, #0]
 5226 4cb4 012082E2 		add	r2, r2, #1
 5227 4cb8 B020C3E1 		strh	r2, [r3, #0]	@ movhi
 5228 4cbc 80001FE5 		ldr	r0, .L286+276
 5229 4cc0 7E10A0E3 		mov	r1, #126
 5230 4cc4 A0401FE5 		ldr	r4, .L286+252
 5231 4cc8 FEFFFFEB 		bl	uart_transmit
 5232 4ccc 90001FE5 		ldr	r0, .L286+276
 5233 4cd0 0010A0E3 		mov	r1, #0
 5234 4cd4 FEFFFFEB 		bl	uart_transmit
 5235 4cd8 0150A0E3 		mov	r5, #1
 5236 4cdc A0001FE5 		ldr	r0, .L286+276
 5237 4ce0 1710A0E3 		mov	r1, #23
 5238 4ce4 FEFFFFEB 		bl	uart_transmit
 5239 4ce8 0050C4E5 		strb	r5, [r4, #0]
 5240 4cec 0510A0E1 		mov	r1, r5
 5241 4cf0 B4001FE5 		ldr	r0, .L286+276
 5242 4cf4 FEFFFFEB 		bl	uart_transmit
 5243 4cf8 BC001FE5 		ldr	r0, .L286+276
 5244 4cfc 0010A0E3 		mov	r1, #0
 5245 4d00 FEFFFFEB 		bl	uart_transmit
 5246 4d04 0030D4E5 		ldrb	r3, [r4, #0]	@ zero_extendqisi2
 5247 4d08 053083E0 		add	r3, r3, r5
 5248 4d0c 0030C4E5 		strb	r3, [r4, #0]
 5249 4d10 0510A0E1 		mov	r1, r5
 5250 4d14 D8001FE5 		ldr	r0, .L286+276
 5251 4d18 FEFFFFEB 		bl	uart_transmit
 5252 4d1c E0001FE5 		ldr	r0, .L286+276
 5253 4d20 0010A0E3 		mov	r1, #0
 5254 4d24 FEFFFFEB 		bl	uart_transmit
 5255 4d28 EC001FE5 		ldr	r0, .L286+276
 5256 4d2c 0010A0E3 		mov	r1, #0
 5257 4d30 FEFFFFEB 		bl	uart_transmit
 5258 4d34 0030D4E5 		ldrb	r3, [r4, #0]	@ zero_extendqisi2
 5259 4d38 023083E2 		add	r3, r3, #2
 5260 4d3c 0030C4E5 		strb	r3, [r4, #0]
 5261 4d40 04011FE5 		ldr	r0, .L286+276
 5262 4d44 0210A0E3 		mov	r1, #2
 5263 4d48 FEFFFFEB 		bl	uart_transmit
 5264 4d4c 0030D4E5 		ldrb	r3, [r4, #0]	@ zero_extendqisi2
 5265 4d50 A4511FE5 		ldr	r5, .L286+132
 5266 4d54 1B3083E2 		add	r3, r3, #27
 5267 4d58 0030C4E5 		strb	r3, [r4, #0]
 5268 4d5c 20011FE5 		ldr	r0, .L286+276
 5269 4d60 1B10A0E3 		mov	r1, #27
 5270 4d64 FEFFFFEB 		bl	uart_transmit
 5271 4d68 0010D5E5 		ldrb	r1, [r5, #0]	@ zero_extendqisi2
 5272 4d6c 0030D4E5 		ldrb	r3, [r4, #0]	@ zero_extendqisi2
 5273 4d70 033081E0 		add	r3, r1, r3
 5274 4d74 0030C4E5 		strb	r3, [r4, #0]
 5275 4d78 3C011FE5 		ldr	r0, .L286+276
 5276 4d7c FEFFFFEB 		bl	uart_transmit
 5277 4d80 0110D5E5 		ldrb	r1, [r5, #1]	@ zero_extendqisi2
 5278 4d84 0030D4E5 		ldrb	r3, [r4, #0]	@ zero_extendqisi2
 5279 4d88 033081E0 		add	r3, r1, r3
 5280 4d8c 0030C4E5 		strb	r3, [r4, #0]
 5281 4d90 54011FE5 		ldr	r0, .L286+276
 5282 4d94 FEFFFFEB 		bl	uart_transmit
 5283 4d98 0210D5E5 		ldrb	r1, [r5, #2]	@ zero_extendqisi2
 5284 4d9c 0030D4E5 		ldrb	r3, [r4, #0]	@ zero_extendqisi2
 5285 4da0 033081E0 		add	r3, r1, r3
 5286 4da4 0030C4E5 		strb	r3, [r4, #0]
 5287 4da8 6C011FE5 		ldr	r0, .L286+276
 5288 4dac FEFFFFEB 		bl	uart_transmit
 5289 4db0 0310D5E5 		ldrb	r1, [r5, #3]	@ zero_extendqisi2
 5290 4db4 0030D4E5 		ldrb	r3, [r4, #0]	@ zero_extendqisi2
 5291 4db8 08521FE5 		ldr	r5, .L286+136
 5292 4dbc 033081E0 		add	r3, r1, r3
 5293 4dc0 0030C4E5 		strb	r3, [r4, #0]
 5294 4dc4 88011FE5 		ldr	r0, .L286+276
 5295 4dc8 FEFFFFEB 		bl	uart_transmit
 5296 4dcc 0010D5E5 		ldrb	r1, [r5, #0]	@ zero_extendqisi2
 5297 4dd0 0030D4E5 		ldrb	r3, [r4, #0]	@ zero_extendqisi2
 5298 4dd4 033081E0 		add	r3, r1, r3
 5299 4dd8 0030C4E5 		strb	r3, [r4, #0]
 5300 4ddc A0011FE5 		ldr	r0, .L286+276
 5301 4de0 FEFFFFEB 		bl	uart_transmit
 5302 4de4 0110D5E5 		ldrb	r1, [r5, #1]	@ zero_extendqisi2
 5303 4de8 0030D4E5 		ldrb	r3, [r4, #0]	@ zero_extendqisi2
 5304 4dec 033081E0 		add	r3, r1, r3
 5305 4df0 0030C4E5 		strb	r3, [r4, #0]
 5306 4df4 B8011FE5 		ldr	r0, .L286+276
 5307 4df8 FEFFFFEB 		bl	uart_transmit
 5308 4dfc 0210D5E5 		ldrb	r1, [r5, #2]	@ zero_extendqisi2
 5309 4e00 0030D4E5 		ldrb	r3, [r4, #0]	@ zero_extendqisi2
 5310 4e04 033081E0 		add	r3, r1, r3
 5311 4e08 0030C4E5 		strb	r3, [r4, #0]
 5312 4e0c D0011FE5 		ldr	r0, .L286+276
 5313 4e10 FEFFFFEB 		bl	uart_transmit
 5314 4e14 0310D5E5 		ldrb	r1, [r5, #3]	@ zero_extendqisi2
 5315 4e18 0030D4E5 		ldrb	r3, [r4, #0]	@ zero_extendqisi2
 5316 4e1c 68521FE5 		ldr	r5, .L286+140
 5317 4e20 033081E0 		add	r3, r1, r3
 5318 4e24 0030C4E5 		strb	r3, [r4, #0]
 5319 4e28 EC011FE5 		ldr	r0, .L286+276
 5320 4e2c FEFFFFEB 		bl	uart_transmit
 5321 4e30 0010D5E5 		ldrb	r1, [r5, #0]	@ zero_extendqisi2
 5322 4e34 0030D4E5 		ldrb	r3, [r4, #0]	@ zero_extendqisi2
 5323 4e38 033081E0 		add	r3, r1, r3
 5324 4e3c 0030C4E5 		strb	r3, [r4, #0]
 5325 4e40 04021FE5 		ldr	r0, .L286+276
 5326 4e44 FEFFFFEB 		bl	uart_transmit
 5327 4e48 0110D5E5 		ldrb	r1, [r5, #1]	@ zero_extendqisi2
 5328 4e4c 0030D4E5 		ldrb	r3, [r4, #0]	@ zero_extendqisi2
 5329 4e50 033081E0 		add	r3, r1, r3
 5330 4e54 0030C4E5 		strb	r3, [r4, #0]
 5331 4e58 1C021FE5 		ldr	r0, .L286+276
 5332 4e5c FEFFFFEB 		bl	uart_transmit
 5333 4e60 0210D5E5 		ldrb	r1, [r5, #2]	@ zero_extendqisi2
 5334 4e64 0030D4E5 		ldrb	r3, [r4, #0]	@ zero_extendqisi2
 5335 4e68 033081E0 		add	r3, r1, r3
 5336 4e6c 0030C4E5 		strb	r3, [r4, #0]
 5337 4e70 34021FE5 		ldr	r0, .L286+276
 5338 4e74 FEFFFFEB 		bl	uart_transmit
 5339 4e78 0310D5E5 		ldrb	r1, [r5, #3]	@ zero_extendqisi2
 5340 4e7c 0030D4E5 		ldrb	r3, [r4, #0]	@ zero_extendqisi2
 5341 4e80 C8521FE5 		ldr	r5, .L286+144
 5342 4e84 033081E0 		add	r3, r1, r3
 5343 4e88 0030C4E5 		strb	r3, [r4, #0]
 5344 4e8c 50021FE5 		ldr	r0, .L286+276
 5345 4e90 FEFFFFEB 		bl	uart_transmit
 5346 4e94 0010D5E5 		ldrb	r1, [r5, #0]	@ zero_extendqisi2
 5347 4e98 0030D4E5 		ldrb	r3, [r4, #0]	@ zero_extendqisi2
 5348 4e9c 033081E0 		add	r3, r1, r3
 5349 4ea0 0030C4E5 		strb	r3, [r4, #0]
 5350 4ea4 68021FE5 		ldr	r0, .L286+276
 5351 4ea8 FEFFFFEB 		bl	uart_transmit
 5352 4eac 0110D5E5 		ldrb	r1, [r5, #1]	@ zero_extendqisi2
 5353 4eb0 0030D4E5 		ldrb	r3, [r4, #0]	@ zero_extendqisi2
 5354 4eb4 033081E0 		add	r3, r1, r3
 5355 4eb8 0030C4E5 		strb	r3, [r4, #0]
 5356 4ebc 80021FE5 		ldr	r0, .L286+276
 5357 4ec0 FEFFFFEB 		bl	uart_transmit
 5358 4ec4 0210D5E5 		ldrb	r1, [r5, #2]	@ zero_extendqisi2
 5359 4ec8 0030D4E5 		ldrb	r3, [r4, #0]	@ zero_extendqisi2
 5360 4ecc 033081E0 		add	r3, r1, r3
 5361 4ed0 0030C4E5 		strb	r3, [r4, #0]
 5362 4ed4 98021FE5 		ldr	r0, .L286+276
 5363 4ed8 FEFFFFEB 		bl	uart_transmit
 5364 4edc 0310D5E5 		ldrb	r1, [r5, #3]	@ zero_extendqisi2
 5365 4ee0 0030D4E5 		ldrb	r3, [r4, #0]	@ zero_extendqisi2
 5366 4ee4 033081E0 		add	r3, r1, r3
 5367 4ee8 0030C4E5 		strb	r3, [r4, #0]
 5368 4eec B0021FE5 		ldr	r0, .L286+276
 5369 4ef0 FEFFFFEB 		bl	uart_transmit
 5370 4ef4 0010D4E5 		ldrb	r1, [r4, #0]	@ zero_extendqisi2
 5371 4ef8 0110E0E1 		mvn	r1, r1
 5372 4efc FF1001E2 		and	r1, r1, #255
 5373 4f00 0010C4E5 		strb	r1, [r4, #0]
 5374 4f04 C8021FE5 		ldr	r0, .L286+276
 5375 4f08 FEFFFFEB 		bl	uart_transmit
 5376 4f0c 030000EA 		b	.L157
 5377              	.L158:
 5378 4f10 00331FE5 		ldr	r3, .L286+232
 5379 4f14 0020D3E5 		ldrb	r2, [r3, #0]	@ zero_extendqisi2
 5380 4f18 012082E2 		add	r2, r2, #1
 5381 4f1c 0020C3E5 		strb	r2, [r3, #0]
 5382              	.L157:
 5383 4f20 64331FE5 		ldr	r3, .L286+148
 5384 4f24 0030D3E5 		ldrb	r3, [r3, #0]	@ zero_extendqisi2
 5385 4f28 240053E3 		cmp	r3, #36
 5386 4f2c C900001A 		bne	.L159
 5387 4f30 70331FE5 		ldr	r3, .L286+152
 5388 4f34 005093E5 		ldr	r5, [r3, #0]	@ float
 5389 4f38 FEFFFFEB 		bl	stateGetPositionEnu_f
 5390 4f3c 1F10A0E3 		mov	r1, #31
 5391 4f40 0040A0E1 		mov	r4, r0
 5392 4f44 08031FE5 		ldr	r0, .L286+276
 5393 4f48 FEFFFFEB 		bl	uart_check_free_space
 5394 4f4c 000050E3 		cmp	r0, #0
 5395 4f50 BC00000A 		beq	.L160
 5396 4f54 0201C5E3 		bic	r0, r5, #-2147483648
 5397 4f58 FEFFFFEB 		bl	__aeabi_f2d
 5398 4f5c 98231FE5 		ldr	r2, .L286+156
 5399 4f60 98331FE5 		ldr	r3, .L286+160
 5400 4f64 FEFFFFEB 		bl	__aeabi_ddiv
 5401 4f68 FEFFFFEB 		bl	__aeabi_d2uiz
 5402 4f6c 50331FE5 		ldr	r3, .L286+244
 5403 4f70 B020D3E1 		ldrh	r2, [r3, #0]
 5404 4f74 1F2082E2 		add	r2, r2, #31
 5405 4f78 B020C3E1 		strh	r2, [r3, #0]	@ movhi
 5406 4f7c 5C331FE5 		ldr	r3, .L286+248
 5407 4f80 B020D3E1 		ldrh	r2, [r3, #0]
 5408 4f84 012082E2 		add	r2, r2, #1
 5409 4f88 B020C3E1 		strh	r2, [r3, #0]	@ movhi
 5410 4f8c FF7000E2 		and	r7, r0, #255
 5411 4f90 7E10A0E3 		mov	r1, #126
 5412 4f94 58031FE5 		ldr	r0, .L286+276
 5413 4f98 74531FE5 		ldr	r5, .L286+252
 5414 4f9c FEFFFFEB 		bl	uart_transmit
 5415 4fa0 64031FE5 		ldr	r0, .L286+276
 5416 4fa4 0010A0E3 		mov	r1, #0
 5417 4fa8 FEFFFFEB 		bl	uart_transmit
 5418 4fac 0160A0E3 		mov	r6, #1
 5419 4fb0 74031FE5 		ldr	r0, .L286+276
 5420 4fb4 1B10A0E3 		mov	r1, #27
 5421 4fb8 FEFFFFEB 		bl	uart_transmit
 5422 4fbc 0610A0E1 		mov	r1, r6
 5423 4fc0 0060C5E5 		strb	r6, [r5, #0]
 5424 4fc4 88031FE5 		ldr	r0, .L286+276
 5425 4fc8 FEFFFFEB 		bl	uart_transmit
 5426 4fcc 90031FE5 		ldr	r0, .L286+276
 5427 4fd0 0010A0E3 		mov	r1, #0
 5428 4fd4 FEFFFFEB 		bl	uart_transmit
 5429 4fd8 0030D5E5 		ldrb	r3, [r5, #0]	@ zero_extendqisi2
 5430 4fdc 063083E0 		add	r3, r3, r6
 5431 4fe0 0030C5E5 		strb	r3, [r5, #0]
 5432 4fe4 0610A0E1 		mov	r1, r6
 5433 4fe8 AC031FE5 		ldr	r0, .L286+276
 5434 4fec FEFFFFEB 		bl	uart_transmit
 5435 4ff0 B4031FE5 		ldr	r0, .L286+276
 5436 4ff4 0010A0E3 		mov	r1, #0
 5437 4ff8 FEFFFFEB 		bl	uart_transmit
 5438 4ffc C0031FE5 		ldr	r0, .L286+276
 5439 5000 0010A0E3 		mov	r1, #0
 5440 5004 FEFFFFEB 		bl	uart_transmit
 5441 5008 0030D5E5 		ldrb	r3, [r5, #0]	@ zero_extendqisi2
 5442 500c 023083E2 		add	r3, r3, #2
 5443 5010 0030C5E5 		strb	r3, [r5, #0]
 5444 5014 D8031FE5 		ldr	r0, .L286+276
 5445 5018 0210A0E3 		mov	r1, #2
 5446 501c FEFFFFEB 		bl	uart_transmit
 5447 5020 0030D5E5 		ldrb	r3, [r5, #0]	@ zero_extendqisi2
 5448 5024 0A3083E2 		add	r3, r3, #10
 5449 5028 0030C5E5 		strb	r3, [r5, #0]
 5450 502c F0031FE5 		ldr	r0, .L286+276
 5451 5030 0A10A0E3 		mov	r1, #10
 5452 5034 FEFFFFEB 		bl	uart_transmit
 5453 5038 6C341FE5 		ldr	r3, .L286+164
 5454 503c 0010D3E5 		ldrb	r1, [r3, #0]	@ zero_extendqisi2
 5455 5040 0030D5E5 		ldrb	r3, [r5, #0]	@ zero_extendqisi2
 5456 5044 033081E0 		add	r3, r1, r3
 5457 5048 0030C5E5 		strb	r3, [r5, #0]
 5458 504c 10041FE5 		ldr	r0, .L286+276
 5459 5050 FEFFFFEB 		bl	uart_transmit
 5460 5054 84341FE5 		ldr	r3, .L286+168
 5461 5058 0010D3E5 		ldrb	r1, [r3, #0]	@ zero_extendqisi2
 5462 505c 0030D5E5 		ldrb	r3, [r5, #0]	@ zero_extendqisi2
 5463 5060 033081E0 		add	r3, r1, r3
 5464 5064 0030C5E5 		strb	r3, [r5, #0]
 5465 5068 2C041FE5 		ldr	r0, .L286+276
 5466 506c FEFFFFEB 		bl	uart_transmit
 5467 5070 0010D4E5 		ldrb	r1, [r4, #0]	@ zero_extendqisi2
 5468 5074 0030D5E5 		ldrb	r3, [r5, #0]	@ zero_extendqisi2
 5469 5078 033081E0 		add	r3, r1, r3
 5470 507c 0030C5E5 		strb	r3, [r5, #0]
 5471 5080 44041FE5 		ldr	r0, .L286+276
 5472 5084 FEFFFFEB 		bl	uart_transmit
 5473 5088 0110D4E5 		ldrb	r1, [r4, #1]	@ zero_extendqisi2
 5474 508c 0030D5E5 		ldrb	r3, [r5, #0]	@ zero_extendqisi2
 5475 5090 033081E0 		add	r3, r1, r3
 5476 5094 0030C5E5 		strb	r3, [r5, #0]
 5477 5098 5C041FE5 		ldr	r0, .L286+276
 5478 509c FEFFFFEB 		bl	uart_transmit
 5479 50a0 0210D4E5 		ldrb	r1, [r4, #2]	@ zero_extendqisi2
 5480 50a4 0030D5E5 		ldrb	r3, [r5, #0]	@ zero_extendqisi2
 5481 50a8 033081E0 		add	r3, r1, r3
 5482 50ac 0030C5E5 		strb	r3, [r5, #0]
 5483 50b0 74041FE5 		ldr	r0, .L286+276
 5484 50b4 FEFFFFEB 		bl	uart_transmit
 5485 50b8 0310D4E5 		ldrb	r1, [r4, #3]	@ zero_extendqisi2
 5486 50bc 0030D5E5 		ldrb	r3, [r5, #0]	@ zero_extendqisi2
 5487 50c0 033081E0 		add	r3, r1, r3
 5488 50c4 0030C5E5 		strb	r3, [r5, #0]
 5489 50c8 8C041FE5 		ldr	r0, .L286+276
 5490 50cc FEFFFFEB 		bl	uart_transmit
 5491 50d0 0410D4E5 		ldrb	r1, [r4, #4]	@ zero_extendqisi2
 5492 50d4 0030D5E5 		ldrb	r3, [r5, #0]	@ zero_extendqisi2
 5493 50d8 033081E0 		add	r3, r1, r3
 5494 50dc 0030C5E5 		strb	r3, [r5, #0]
 5495 50e0 A4041FE5 		ldr	r0, .L286+276
 5496 50e4 FEFFFFEB 		bl	uart_transmit
 5497 50e8 0510D4E5 		ldrb	r1, [r4, #5]	@ zero_extendqisi2
 5498 50ec 0030D5E5 		ldrb	r3, [r5, #0]	@ zero_extendqisi2
 5499 50f0 033081E0 		add	r3, r1, r3
 5500 50f4 0030C5E5 		strb	r3, [r5, #0]
 5501 50f8 BC041FE5 		ldr	r0, .L286+276
 5502 50fc FEFFFFEB 		bl	uart_transmit
 5503 5100 0610D4E5 		ldrb	r1, [r4, #6]	@ zero_extendqisi2
 5504 5104 0030D5E5 		ldrb	r3, [r5, #0]	@ zero_extendqisi2
 5505 5108 033081E0 		add	r3, r1, r3
 5506 510c 0030C5E5 		strb	r3, [r5, #0]
 5507 5110 D4041FE5 		ldr	r0, .L286+276
 5508 5114 FEFFFFEB 		bl	uart_transmit
 5509 5118 0710D4E5 		ldrb	r1, [r4, #7]	@ zero_extendqisi2
 5510 511c 0030D5E5 		ldrb	r3, [r5, #0]	@ zero_extendqisi2
 5511 5120 4C451FE5 		ldr	r4, .L286+172
 5512 5124 033081E0 		add	r3, r1, r3
 5513 5128 0030C5E5 		strb	r3, [r5, #0]
 5514 512c F0041FE5 		ldr	r0, .L286+276
 5515 5130 FEFFFFEB 		bl	uart_transmit
 5516 5134 0010D4E5 		ldrb	r1, [r4, #0]	@ zero_extendqisi2
 5517 5138 0030D5E5 		ldrb	r3, [r5, #0]	@ zero_extendqisi2
 5518 513c 033081E0 		add	r3, r1, r3
 5519 5140 0030C5E5 		strb	r3, [r5, #0]
 5520 5144 08051FE5 		ldr	r0, .L286+276
 5521 5148 FEFFFFEB 		bl	uart_transmit
 5522 514c 0110D4E5 		ldrb	r1, [r4, #1]	@ zero_extendqisi2
 5523 5150 0030D5E5 		ldrb	r3, [r5, #0]	@ zero_extendqisi2
 5524 5154 033081E0 		add	r3, r1, r3
 5525 5158 0030C5E5 		strb	r3, [r5, #0]
 5526 515c 20051FE5 		ldr	r0, .L286+276
 5527 5160 FEFFFFEB 		bl	uart_transmit
 5528 5164 0210D4E5 		ldrb	r1, [r4, #2]	@ zero_extendqisi2
 5529 5168 0030D5E5 		ldrb	r3, [r5, #0]	@ zero_extendqisi2
 5530 516c 033081E0 		add	r3, r1, r3
 5531 5170 0030C5E5 		strb	r3, [r5, #0]
 5532 5174 38051FE5 		ldr	r0, .L286+276
 5533 5178 FEFFFFEB 		bl	uart_transmit
 5534 517c 0310D4E5 		ldrb	r1, [r4, #3]	@ zero_extendqisi2
 5535 5180 0030D5E5 		ldrb	r3, [r5, #0]	@ zero_extendqisi2
 5536 5184 AC451FE5 		ldr	r4, .L286+176
 5537 5188 033081E0 		add	r3, r1, r3
 5538 518c 0030C5E5 		strb	r3, [r5, #0]
 5539 5190 54051FE5 		ldr	r0, .L286+276
 5540 5194 FEFFFFEB 		bl	uart_transmit
 5541 5198 0010D4E5 		ldrb	r1, [r4, #0]	@ zero_extendqisi2
 5542 519c 0030D5E5 		ldrb	r3, [r5, #0]	@ zero_extendqisi2
 5543 51a0 033081E0 		add	r3, r1, r3
 5544 51a4 0030C5E5 		strb	r3, [r5, #0]
 5545 51a8 6C051FE5 		ldr	r0, .L286+276
 5546 51ac FEFFFFEB 		bl	uart_transmit
 5547 51b0 0110D4E5 		ldrb	r1, [r4, #1]	@ zero_extendqisi2
 5548 51b4 0030D5E5 		ldrb	r3, [r5, #0]	@ zero_extendqisi2
 5549 51b8 033081E0 		add	r3, r1, r3
 5550 51bc 0030C5E5 		strb	r3, [r5, #0]
 5551 51c0 84051FE5 		ldr	r0, .L286+276
 5552 51c4 FEFFFFEB 		bl	uart_transmit
 5553 51c8 0210D4E5 		ldrb	r1, [r4, #2]	@ zero_extendqisi2
 5554 51cc 0030D5E5 		ldrb	r3, [r5, #0]	@ zero_extendqisi2
 5555 51d0 033081E0 		add	r3, r1, r3
 5556 51d4 0030C5E5 		strb	r3, [r5, #0]
 5557 51d8 9C051FE5 		ldr	r0, .L286+276
 5558 51dc FEFFFFEB 		bl	uart_transmit
 5559 51e0 0310D4E5 		ldrb	r1, [r4, #3]	@ zero_extendqisi2
 5560 51e4 0030D5E5 		ldrb	r3, [r5, #0]	@ zero_extendqisi2
 5561 51e8 033081E0 		add	r3, r1, r3
 5562 51ec 0030C5E5 		strb	r3, [r5, #0]
 5563 51f0 B4051FE5 		ldr	r0, .L286+276
 5564 51f4 FEFFFFEB 		bl	uart_transmit
 5565 51f8 0030D5E5 		ldrb	r3, [r5, #0]	@ zero_extendqisi2
 5566 51fc 033087E0 		add	r3, r7, r3
 5567 5200 0030C5E5 		strb	r3, [r5, #0]
 5568 5204 0710A0E1 		mov	r1, r7
 5569 5208 CC051FE5 		ldr	r0, .L286+276
 5570 520c FEFFFFEB 		bl	uart_transmit
 5571 5210 34361FE5 		ldr	r3, .L286+180
 5572 5214 0010D3E5 		ldrb	r1, [r3, #0]	@ zero_extendqisi2
 5573 5218 0030D5E5 		ldrb	r3, [r5, #0]	@ zero_extendqisi2
 5574 521c 033081E0 		add	r3, r1, r3
 5575 5220 0030C5E5 		strb	r3, [r5, #0]
 5576 5224 E8051FE5 		ldr	r0, .L286+276
 5577 5228 FEFFFFEB 		bl	uart_transmit
 5578 522c 0010D5E5 		ldrb	r1, [r5, #0]	@ zero_extendqisi2
 5579 5230 0110E0E1 		mvn	r1, r1
 5580 5234 FF1001E2 		and	r1, r1, #255
 5581 5238 0010C5E5 		strb	r1, [r5, #0]
 5582 523c 00061FE5 		ldr	r0, .L286+276
 5583 5240 FEFFFFEB 		bl	uart_transmit
 5584 5244 030000EA 		b	.L159
 5585              	.L160:
 5586 5248 38361FE5 		ldr	r3, .L286+232
 5587 524c 0020D3E5 		ldrb	r2, [r3, #0]	@ zero_extendqisi2
 5588 5250 012082E2 		add	r2, r2, #1
 5589 5254 0020C3E5 		strb	r2, [r3, #0]
 5590              	.L159:
 5591 5258 78361FE5 		ldr	r3, .L286+184
 5592 525c 0030D3E5 		ldrb	r3, [r3, #0]	@ zero_extendqisi2
 5593 5260 2A0053E3 		cmp	r3, #42
 5594 5264 9000001A 		bne	.L161
 5595 5268 84361FE5 		ldr	r3, .L286+188
 5596 526c 0030D3E5 		ldrb	r3, [r3, #0]	@ zero_extendqisi2
 5597 5270 000053E3 		cmp	r3, #0
 5598 5274 8C00000A 		beq	.L161
 5599 5278 3C061FE5 		ldr	r0, .L286+276
 5600 527c 1710A0E3 		mov	r1, #23
 5601 5280 FEFFFFEB 		bl	uart_check_free_space
 5602 5284 000050E3 		cmp	r0, #0
 5603 5288 8300000A 		beq	.L162
 5604 528c 70361FE5 		ldr	r3, .L286+244
 5605 5290 B020D3E1 		ldrh	r2, [r3, #0]
 5606 5294 172082E2 		add	r2, r2, #23
 5607 5298 B020C3E1 		strh	r2, [r3, #0]	@ movhi
 5608 529c 7C361FE5 		ldr	r3, .L286+248
 5609 52a0 B020D3E1 		ldrh	r2, [r3, #0]
 5610 52a4 012082E2 		add	r2, r2, #1
 5611 52a8 B020C3E1 		strh	r2, [r3, #0]	@ movhi
 5612 52ac 70061FE5 		ldr	r0, .L286+276
 5613 52b0 7E10A0E3 		mov	r1, #126
 5614 52b4 90461FE5 		ldr	r4, .L286+252
 5615 52b8 FEFFFFEB 		bl	uart_transmit
 5616 52bc 80061FE5 		ldr	r0, .L286+276
 5617 52c0 0010A0E3 		mov	r1, #0
 5618 52c4 FEFFFFEB 		bl	uart_transmit
 5619 52c8 0150A0E3 		mov	r5, #1
 5620 52cc 90061FE5 		ldr	r0, .L286+276
 5621 52d0 1310A0E3 		mov	r1, #19
 5622 52d4 FEFFFFEB 		bl	uart_transmit
 5623 52d8 0050C4E5 		strb	r5, [r4, #0]
 5624 52dc 0510A0E1 		mov	r1, r5
 5625 52e0 A4061FE5 		ldr	r0, .L286+276
 5626 52e4 FEFFFFEB 		bl	uart_transmit
 5627 52e8 AC061FE5 		ldr	r0, .L286+276
 5628 52ec 0010A0E3 		mov	r1, #0
 5629 52f0 FEFFFFEB 		bl	uart_transmit
 5630 52f4 0030D4E5 		ldrb	r3, [r4, #0]	@ zero_extendqisi2
 5631 52f8 053083E0 		add	r3, r3, r5
 5632 52fc 0030C4E5 		strb	r3, [r4, #0]
 5633 5300 0510A0E1 		mov	r1, r5
 5634 5304 C8061FE5 		ldr	r0, .L286+276
 5635 5308 FEFFFFEB 		bl	uart_transmit
 5636 530c D0061FE5 		ldr	r0, .L286+276
 5637 5310 0010A0E3 		mov	r1, #0
 5638 5314 FEFFFFEB 		bl	uart_transmit
 5639 5318 DC061FE5 		ldr	r0, .L286+276
 5640 531c 0010A0E3 		mov	r1, #0
 5641 5320 FEFFFFEB 		bl	uart_transmit
 5642 5324 0030D4E5 		ldrb	r3, [r4, #0]	@ zero_extendqisi2
 5643 5328 023083E2 		add	r3, r3, #2
 5644 532c 0030C4E5 		strb	r3, [r4, #0]
 5645 5330 F4061FE5 		ldr	r0, .L286+276
 5646 5334 0210A0E3 		mov	r1, #2
 5647 5338 FEFFFFEB 		bl	uart_transmit
 5648 533c 0030D4E5 		ldrb	r3, [r4, #0]	@ zero_extendqisi2
 5649 5340 58571FE5 		ldr	r5, .L286+192
 5650 5344 153083E2 		add	r3, r3, #21
 5651 5348 0030C4E5 		strb	r3, [r4, #0]
 5652 534c 10071FE5 		ldr	r0, .L286+276
 5653 5350 1510A0E3 		mov	r1, #21
 5654 5354 FEFFFFEB 		bl	uart_transmit
 5655 5358 0010D5E5 		ldrb	r1, [r5, #0]	@ zero_extendqisi2
 5656 535c 0030D4E5 		ldrb	r3, [r4, #0]	@ zero_extendqisi2
 5657 5360 033081E0 		add	r3, r1, r3
 5658 5364 0030C4E5 		strb	r3, [r4, #0]
 5659 5368 2C071FE5 		ldr	r0, .L286+276
 5660 536c FEFFFFEB 		bl	uart_transmit
 5661 5370 0110D5E5 		ldrb	r1, [r5, #1]	@ zero_extendqisi2
 5662 5374 0030D4E5 		ldrb	r3, [r4, #0]	@ zero_extendqisi2
 5663 5378 033081E0 		add	r3, r1, r3
 5664 537c 0030C4E5 		strb	r3, [r4, #0]
 5665 5380 44071FE5 		ldr	r0, .L286+276
 5666 5384 FEFFFFEB 		bl	uart_transmit
 5667 5388 0210D5E5 		ldrb	r1, [r5, #2]	@ zero_extendqisi2
 5668 538c 0030D4E5 		ldrb	r3, [r4, #0]	@ zero_extendqisi2
 5669 5390 033081E0 		add	r3, r1, r3
 5670 5394 0030C4E5 		strb	r3, [r4, #0]
 5671 5398 5C071FE5 		ldr	r0, .L286+276
 5672 539c FEFFFFEB 		bl	uart_transmit
 5673 53a0 0310D5E5 		ldrb	r1, [r5, #3]	@ zero_extendqisi2
 5674 53a4 0030D4E5 		ldrb	r3, [r4, #0]	@ zero_extendqisi2
 5675 53a8 BC571FE5 		ldr	r5, .L286+196
 5676 53ac 033081E0 		add	r3, r1, r3
 5677 53b0 0030C4E5 		strb	r3, [r4, #0]
 5678 53b4 78071FE5 		ldr	r0, .L286+276
 5679 53b8 FEFFFFEB 		bl	uart_transmit
 5680 53bc 0010D5E5 		ldrb	r1, [r5, #0]	@ zero_extendqisi2
 5681 53c0 0030D4E5 		ldrb	r3, [r4, #0]	@ zero_extendqisi2
 5682 53c4 033081E0 		add	r3, r1, r3
 5683 53c8 0030C4E5 		strb	r3, [r4, #0]
 5684 53cc 90071FE5 		ldr	r0, .L286+276
 5685 53d0 FEFFFFEB 		bl	uart_transmit
 5686 53d4 0110D5E5 		ldrb	r1, [r5, #1]	@ zero_extendqisi2
 5687 53d8 0030D4E5 		ldrb	r3, [r4, #0]	@ zero_extendqisi2
 5688 53dc 033081E0 		add	r3, r1, r3
 5689 53e0 0030C4E5 		strb	r3, [r4, #0]
 5690 53e4 A8071FE5 		ldr	r0, .L286+276
 5691 53e8 FEFFFFEB 		bl	uart_transmit
 5692 53ec 0210D5E5 		ldrb	r1, [r5, #2]	@ zero_extendqisi2
 5693 53f0 0030D4E5 		ldrb	r3, [r4, #0]	@ zero_extendqisi2
 5694 53f4 033081E0 		add	r3, r1, r3
 5695 53f8 0030C4E5 		strb	r3, [r4, #0]
 5696 53fc C0071FE5 		ldr	r0, .L286+276
 5697 5400 FEFFFFEB 		bl	uart_transmit
 5698 5404 0310D5E5 		ldrb	r1, [r5, #3]	@ zero_extendqisi2
 5699 5408 0030D4E5 		ldrb	r3, [r4, #0]	@ zero_extendqisi2
 5700 540c 1C581FE5 		ldr	r5, .L286+200
 5701 5410 033081E0 		add	r3, r1, r3
 5702 5414 0030C4E5 		strb	r3, [r4, #0]
 5703 5418 DC071FE5 		ldr	r0, .L286+276
 5704 541c FEFFFFEB 		bl	uart_transmit
 5705 5420 0010D5E5 		ldrb	r1, [r5, #0]	@ zero_extendqisi2
 5706 5424 0030D4E5 		ldrb	r3, [r4, #0]	@ zero_extendqisi2
 5707 5428 033081E0 		add	r3, r1, r3
 5708 542c 0030C4E5 		strb	r3, [r4, #0]
 5709 5430 F4071FE5 		ldr	r0, .L286+276
 5710 5434 FEFFFFEB 		bl	uart_transmit
 5711 5438 0110D5E5 		ldrb	r1, [r5, #1]	@ zero_extendqisi2
 5712 543c 0030D4E5 		ldrb	r3, [r4, #0]	@ zero_extendqisi2
 5713 5440 033081E0 		add	r3, r1, r3
 5714 5444 0030C4E5 		strb	r3, [r4, #0]
 5715 5448 0C081FE5 		ldr	r0, .L286+276
 5716 544c FEFFFFEB 		bl	uart_transmit
 5717 5450 0210D5E5 		ldrb	r1, [r5, #2]	@ zero_extendqisi2
 5718 5454 0030D4E5 		ldrb	r3, [r4, #0]	@ zero_extendqisi2
 5719 5458 033081E0 		add	r3, r1, r3
 5720 545c 0030C4E5 		strb	r3, [r4, #0]
 5721 5460 24081FE5 		ldr	r0, .L286+276
 5722 5464 FEFFFFEB 		bl	uart_transmit
 5723 5468 0310D5E5 		ldrb	r1, [r5, #3]	@ zero_extendqisi2
 5724 546c 0030D4E5 		ldrb	r3, [r4, #0]	@ zero_extendqisi2
 5725 5470 033081E0 		add	r3, r1, r3
 5726 5474 0030C4E5 		strb	r3, [r4, #0]
 5727 5478 3C081FE5 		ldr	r0, .L286+276
 5728 547c FEFFFFEB 		bl	uart_transmit
 5729 5480 0010D4E5 		ldrb	r1, [r4, #0]	@ zero_extendqisi2
 5730 5484 0110E0E1 		mvn	r1, r1
 5731 5488 FF1001E2 		and	r1, r1, #255
 5732 548c 0010C4E5 		strb	r1, [r4, #0]
 5733 5490 54081FE5 		ldr	r0, .L286+276
 5734 5494 FEFFFFEB 		bl	uart_transmit
 5735 5498 030000EA 		b	.L161
 5736              	.L162:
 5737 549c 8C381FE5 		ldr	r3, .L286+232
 5738 54a0 0020D3E5 		ldrb	r2, [r3, #0]	@ zero_extendqisi2
 5739 54a4 012082E2 		add	r2, r2, #1
 5740 54a8 0020C3E5 		strb	r2, [r3, #0]
 5741              	.L161:
 5742 54ac B8381FE5 		ldr	r3, .L286+204
 5743 54b0 0030D3E5 		ldrb	r3, [r3, #0]	@ zero_extendqisi2
 5744 54b4 300053E3 		cmp	r3, #48
 5745 54b8 A900001A 		bne	.L163
 5746 54bc C4381FE5 		ldr	r3, .L286+208
 5747 54c0 0030D3E5 		ldrb	r3, [r3, #0]	@ zero_extendqisi2
 5748 54c4 000053E3 		cmp	r3, #0
 5749 54c8 A500000A 		beq	.L163
 5750 54cc 90081FE5 		ldr	r0, .L286+276
 5751 54d0 1B10A0E3 		mov	r1, #27
 5752 54d4 FEFFFFEB 		bl	uart_check_free_space
 5753 54d8 000050E3 		cmp	r0, #0
 5754 54dc 9C00000A 		beq	.L164
 5755 54e0 C4381FE5 		ldr	r3, .L286+244
 5756 54e4 B020D3E1 		ldrh	r2, [r3, #0]
 5757 54e8 1B2082E2 		add	r2, r2, #27
 5758 54ec B020C3E1 		strh	r2, [r3, #0]	@ movhi
 5759 54f0 D0381FE5 		ldr	r3, .L286+248
 5760 54f4 B020D3E1 		ldrh	r2, [r3, #0]
 5761 54f8 012082E2 		add	r2, r2, #1
 5762 54fc B020C3E1 		strh	r2, [r3, #0]	@ movhi
 5763 5500 C4081FE5 		ldr	r0, .L286+276
 5764 5504 7E10A0E3 		mov	r1, #126
 5765 5508 E4481FE5 		ldr	r4, .L286+252
 5766 550c FEFFFFEB 		bl	uart_transmit
 5767 5510 D4081FE5 		ldr	r0, .L286+276
 5768 5514 0010A0E3 		mov	r1, #0
 5769 5518 FEFFFFEB 		bl	uart_transmit
 5770 551c 0150A0E3 		mov	r5, #1
 5771 5520 E4081FE5 		ldr	r0, .L286+276
 5772 5524 1710A0E3 		mov	r1, #23
 5773 5528 FEFFFFEB 		bl	uart_transmit
 5774 552c 0050C4E5 		strb	r5, [r4, #0]
 5775 5530 0510A0E1 		mov	r1, r5
 5776 5534 F8081FE5 		ldr	r0, .L286+276
 5777 5538 FEFFFFEB 		bl	uart_transmit
 5778 553c 00091FE5 		ldr	r0, .L286+276
 5779 5540 0010A0E3 		mov	r1, #0
 5780 5544 FEFFFFEB 		bl	uart_transmit
 5781 5548 0030D4E5 		ldrb	r3, [r4, #0]	@ zero_extendqisi2
 5782 554c 053083E0 		add	r3, r3, r5
 5783 5550 0030C4E5 		strb	r3, [r4, #0]
 5784 5554 0510A0E1 		mov	r1, r5
 5785 5558 1C091FE5 		ldr	r0, .L286+276
 5786 555c FEFFFFEB 		bl	uart_transmit
 5787 5560 24091FE5 		ldr	r0, .L286+276
 5788 5564 0010A0E3 		mov	r1, #0
 5789 5568 FEFFFFEB 		bl	uart_transmit
 5790 556c 30091FE5 		ldr	r0, .L286+276
 5791 5570 0010A0E3 		mov	r1, #0
 5792 5574 FEFFFFEB 		bl	uart_transmit
 5793 5578 0030D4E5 		ldrb	r3, [r4, #0]	@ zero_extendqisi2
 5794 557c 023083E2 		add	r3, r3, #2
 5795 5580 0030C4E5 		strb	r3, [r4, #0]
 5796 5584 48091FE5 		ldr	r0, .L286+276
 5797 5588 0210A0E3 		mov	r1, #2
 5798 558c FEFFFFEB 		bl	uart_transmit
 5799 5590 0030D4E5 		ldrb	r3, [r4, #0]	@ zero_extendqisi2
 5800 5594 98591FE5 		ldr	r5, .L286+212
 5801 5598 163083E2 		add	r3, r3, #22
 5802 559c 0030C4E5 		strb	r3, [r4, #0]
 5803 55a0 64091FE5 		ldr	r0, .L286+276
 5804 55a4 1610A0E3 		mov	r1, #22
 5805 55a8 FEFFFFEB 		bl	uart_transmit
 5806 55ac 0010D5E5 		ldrb	r1, [r5, #0]	@ zero_extendqisi2
 5807 55b0 0030D4E5 		ldrb	r3, [r4, #0]	@ zero_extendqisi2
 5808 55b4 033081E0 		add	r3, r1, r3
 5809 55b8 0030C4E5 		strb	r3, [r4, #0]
 5810 55bc 80091FE5 		ldr	r0, .L286+276
 5811 55c0 FEFFFFEB 		bl	uart_transmit
 5812 55c4 0110D5E5 		ldrb	r1, [r5, #1]	@ zero_extendqisi2
 5813 55c8 0030D4E5 		ldrb	r3, [r4, #0]	@ zero_extendqisi2
 5814 55cc 033081E0 		add	r3, r1, r3
 5815 55d0 0030C4E5 		strb	r3, [r4, #0]
 5816 55d4 98091FE5 		ldr	r0, .L286+276
 5817 55d8 FEFFFFEB 		bl	uart_transmit
 5818 55dc 0210D5E5 		ldrb	r1, [r5, #2]	@ zero_extendqisi2
 5819 55e0 0030D4E5 		ldrb	r3, [r4, #0]	@ zero_extendqisi2
 5820 55e4 033081E0 		add	r3, r1, r3
 5821 55e8 0030C4E5 		strb	r3, [r4, #0]
 5822 55ec B0091FE5 		ldr	r0, .L286+276
 5823 55f0 FEFFFFEB 		bl	uart_transmit
 5824 55f4 0310D5E5 		ldrb	r1, [r5, #3]	@ zero_extendqisi2
 5825 55f8 0030D4E5 		ldrb	r3, [r4, #0]	@ zero_extendqisi2
 5826 55fc FC591FE5 		ldr	r5, .L286+216
 5827 5600 033081E0 		add	r3, r1, r3
 5828 5604 0030C4E5 		strb	r3, [r4, #0]
 5829 5608 CC091FE5 		ldr	r0, .L286+276
 5830 560c FEFFFFEB 		bl	uart_transmit
 5831 5610 0010D5E5 		ldrb	r1, [r5, #0]	@ zero_extendqisi2
 5832 5614 0030D4E5 		ldrb	r3, [r4, #0]	@ zero_extendqisi2
 5833 5618 033081E0 		add	r3, r1, r3
 5834 561c 0030C4E5 		strb	r3, [r4, #0]
 5835 5620 E4091FE5 		ldr	r0, .L286+276
 5836 5624 FEFFFFEB 		bl	uart_transmit
 5837 5628 0110D5E5 		ldrb	r1, [r5, #1]	@ zero_extendqisi2
 5838 562c 0030D4E5 		ldrb	r3, [r4, #0]	@ zero_extendqisi2
 5839 5630 033081E0 		add	r3, r1, r3
 5840 5634 0030C4E5 		strb	r3, [r4, #0]
 5841 5638 FC091FE5 		ldr	r0, .L286+276
 5842 563c FEFFFFEB 		bl	uart_transmit
 5843 5640 0210D5E5 		ldrb	r1, [r5, #2]	@ zero_extendqisi2
 5844 5644 0030D4E5 		ldrb	r3, [r4, #0]	@ zero_extendqisi2
 5845 5648 033081E0 		add	r3, r1, r3
 5846 564c 0030C4E5 		strb	r3, [r4, #0]
 5847 5650 140A1FE5 		ldr	r0, .L286+276
 5848 5654 FEFFFFEB 		bl	uart_transmit
 5849 5658 0310D5E5 		ldrb	r1, [r5, #3]	@ zero_extendqisi2
 5850 565c 0030D4E5 		ldrb	r3, [r4, #0]	@ zero_extendqisi2
 5851 5660 5C5A1FE5 		ldr	r5, .L286+220
 5852 5664 033081E0 		add	r3, r1, r3
 5853 5668 0030C4E5 		strb	r3, [r4, #0]
 5854 566c 300A1FE5 		ldr	r0, .L286+276
 5855 5670 FEFFFFEB 		bl	uart_transmit
 5856 5674 0010D5E5 		ldrb	r1, [r5, #0]	@ zero_extendqisi2
 5857 5678 0030D4E5 		ldrb	r3, [r4, #0]	@ zero_extendqisi2
 5858 567c 033081E0 		add	r3, r1, r3
 5859 5680 0030C4E5 		strb	r3, [r4, #0]
 5860 5684 480A1FE5 		ldr	r0, .L286+276
 5861 5688 FEFFFFEB 		bl	uart_transmit
 5862 568c 0110D5E5 		ldrb	r1, [r5, #1]	@ zero_extendqisi2
 5863 5690 0030D4E5 		ldrb	r3, [r4, #0]	@ zero_extendqisi2
 5864 5694 033081E0 		add	r3, r1, r3
 5865 5698 0030C4E5 		strb	r3, [r4, #0]
 5866 569c 600A1FE5 		ldr	r0, .L286+276
 5867 56a0 FEFFFFEB 		bl	uart_transmit
 5868 56a4 0210D5E5 		ldrb	r1, [r5, #2]	@ zero_extendqisi2
 5869 56a8 0030D4E5 		ldrb	r3, [r4, #0]	@ zero_extendqisi2
 5870 56ac 033081E0 		add	r3, r1, r3
 5871 56b0 0030C4E5 		strb	r3, [r4, #0]
 5872 56b4 780A1FE5 		ldr	r0, .L286+276
 5873 56b8 FEFFFFEB 		bl	uart_transmit
 5874 56bc 0310D5E5 		ldrb	r1, [r5, #3]	@ zero_extendqisi2
 5875 56c0 0030D4E5 		ldrb	r3, [r4, #0]	@ zero_extendqisi2
 5876 56c4 BC5A1FE5 		ldr	r5, .L286+224
 5877 56c8 033081E0 		add	r3, r1, r3
 5878 56cc 0030C4E5 		strb	r3, [r4, #0]
 5879 56d0 940A1FE5 		ldr	r0, .L286+276
 5880 56d4 FEFFFFEB 		bl	uart_transmit
 5881 56d8 0010D5E5 		ldrb	r1, [r5, #0]	@ zero_extendqisi2
 5882 56dc 0030D4E5 		ldrb	r3, [r4, #0]	@ zero_extendqisi2
 5883 56e0 033081E0 		add	r3, r1, r3
 5884 56e4 0030C4E5 		strb	r3, [r4, #0]
 5885 56e8 AC0A1FE5 		ldr	r0, .L286+276
 5886 56ec FEFFFFEB 		bl	uart_transmit
 5887 56f0 0110D5E5 		ldrb	r1, [r5, #1]	@ zero_extendqisi2
 5888 56f4 0030D4E5 		ldrb	r3, [r4, #0]	@ zero_extendqisi2
 5889 56f8 033081E0 		add	r3, r1, r3
 5890 56fc 0030C4E5 		strb	r3, [r4, #0]
 5891 5700 C40A1FE5 		ldr	r0, .L286+276
 5892 5704 FEFFFFEB 		bl	uart_transmit
 5893 5708 0210D5E5 		ldrb	r1, [r5, #2]	@ zero_extendqisi2
 5894 570c 0030D4E5 		ldrb	r3, [r4, #0]	@ zero_extendqisi2
 5895 5710 033081E0 		add	r3, r1, r3
 5896 5714 0030C4E5 		strb	r3, [r4, #0]
 5897 5718 DC0A1FE5 		ldr	r0, .L286+276
 5898 571c FEFFFFEB 		bl	uart_transmit
 5899 5720 0310D5E5 		ldrb	r1, [r5, #3]	@ zero_extendqisi2
 5900 5724 0030D4E5 		ldrb	r3, [r4, #0]	@ zero_extendqisi2
 5901 5728 033081E0 		add	r3, r1, r3
 5902 572c 0030C4E5 		strb	r3, [r4, #0]
 5903 5730 F40A1FE5 		ldr	r0, .L286+276
 5904 5734 FEFFFFEB 		bl	uart_transmit
 5905 5738 0010D4E5 		ldrb	r1, [r4, #0]	@ zero_extendqisi2
 5906 573c 0110E0E1 		mvn	r1, r1
 5907 5740 FF1001E2 		and	r1, r1, #255
 5908 5744 0010C4E5 		strb	r1, [r4, #0]
 5909 5748 0C0B1FE5 		ldr	r0, .L286+276
 5910 574c FEFFFFEB 		bl	uart_transmit
 5911 5750 030000EA 		b	.L163
 5912              	.L164:
 5913 5754 443B1FE5 		ldr	r3, .L286+232
 5914 5758 0020D3E5 		ldrb	r2, [r3, #0]	@ zero_extendqisi2
 5915 575c 012082E2 		add	r2, r2, #1
 5916 5760 0020C3E5 		strb	r2, [r3, #0]
 5917              	.L163:
 5918 5764 583B1FE5 		ldr	r3, .L286+228
 5919 5768 0030D3E5 		ldrb	r3, [r3, #0]	@ zero_extendqisi2
 5920 576c 360053E3 		cmp	r3, #54
 5921 5770 8B00001A 		bne	.L165
 5922 5774 FEFFFFEB 		bl	stateGetNedToBodyEulers_f
 5923 5778 1710A0E3 		mov	r1, #23
 5924 577c 0050A0E1 		mov	r5, r0
 5925 5780 440B1FE5 		ldr	r0, .L286+276
 5926 5784 FEFFFFEB 		bl	uart_check_free_space
 5927 5788 000050E3 		cmp	r0, #0
 5928 578c 8000000A 		beq	.L166
 5929 5790 743B1FE5 		ldr	r3, .L286+244
 5930 5794 B020D3E1 		ldrh	r2, [r3, #0]
 5931 5798 172082E2 		add	r2, r2, #23
 5932 579c B020C3E1 		strh	r2, [r3, #0]	@ movhi
 5933 57a0 803B1FE5 		ldr	r3, .L286+248
 5934 57a4 B020D3E1 		ldrh	r2, [r3, #0]
 5935 57a8 012082E2 		add	r2, r2, #1
 5936 57ac B020C3E1 		strh	r2, [r3, #0]	@ movhi
 5937 57b0 740B1FE5 		ldr	r0, .L286+276
 5938 57b4 7E10A0E3 		mov	r1, #126
 5939 57b8 944B1FE5 		ldr	r4, .L286+252
 5940 57bc FEFFFFEB 		bl	uart_transmit
 5941 57c0 840B1FE5 		ldr	r0, .L286+276
 5942 57c4 0010A0E3 		mov	r1, #0
 5943 57c8 FEFFFFEB 		bl	uart_transmit
 5944 57cc 0160A0E3 		mov	r6, #1
 5945 57d0 940B1FE5 		ldr	r0, .L286+276
 5946 57d4 1310A0E3 		mov	r1, #19
 5947 57d8 FEFFFFEB 		bl	uart_transmit
 5948 57dc 0610A0E1 		mov	r1, r6
 5949 57e0 0060C4E5 		strb	r6, [r4, #0]
 5950 57e4 A80B1FE5 		ldr	r0, .L286+276
 5951 57e8 FEFFFFEB 		bl	uart_transmit
 5952 57ec B00B1FE5 		ldr	r0, .L286+276
 5953 57f0 0010A0E3 		mov	r1, #0
 5954 57f4 FEFFFFEB 		bl	uart_transmit
 5955 57f8 0030D4E5 		ldrb	r3, [r4, #0]	@ zero_extendqisi2
 5956 57fc 063083E0 		add	r3, r3, r6
 5957 5800 0030C4E5 		strb	r3, [r4, #0]
 5958 5804 0610A0E1 		mov	r1, r6
 5959 5808 CC0B1FE5 		ldr	r0, .L286+276
 5960 580c FEFFFFEB 		bl	uart_transmit
 5961 5810 D40B1FE5 		ldr	r0, .L286+276
 5962 5814 0010A0E3 		mov	r1, #0
 5963 5818 FEFFFFEB 		bl	uart_transmit
 5964 581c E00B1FE5 		ldr	r0, .L286+276
 5965 5820 0010A0E3 		mov	r1, #0
 5966 5824 FEFFFFEB 		bl	uart_transmit
 5967 5828 0030D4E5 		ldrb	r3, [r4, #0]	@ zero_extendqisi2
 5968 582c 023083E2 		add	r3, r3, #2
 5969 5830 0030C4E5 		strb	r3, [r4, #0]
 5970 5834 F80B1FE5 		ldr	r0, .L286+276
 5971 5838 0210A0E3 		mov	r1, #2
 5972 583c FEFFFFEB 		bl	uart_transmit
 5973 5840 0030D4E5 		ldrb	r3, [r4, #0]	@ zero_extendqisi2
 5974 5844 063083E2 		add	r3, r3, #6
 5975 5848 0030C4E5 		strb	r3, [r4, #0]
 5976 584c 100C1FE5 		ldr	r0, .L286+276
 5977 5850 0610A0E3 		mov	r1, #6
 5978 5854 FEFFFFEB 		bl	uart_transmit
 5979 5858 0010D5E5 		ldrb	r1, [r5, #0]	@ zero_extendqisi2
 5980 585c 0030D4E5 		ldrb	r3, [r4, #0]	@ zero_extendqisi2
 5981 5860 033081E0 		add	r3, r1, r3
 5982 5864 0030C4E5 		strb	r3, [r4, #0]
