   1              		.cpu arm7tdmi
   2              		.fpu softvfp
   3              		.eabi_attribute 20, 1
   4              		.eabi_attribute 21, 1
   5              		.eabi_attribute 23, 3
   6              		.eabi_attribute 24, 1
   7              		.eabi_attribute 25, 1
   8              		.eabi_attribute 26, 1
   9              		.eabi_attribute 30, 4
  10              		.eabi_attribute 18, 4
  11              		.file	"nav.c"
  12              		.global	__aeabi_fsub
  13              		.global	__aeabi_fcmpgt
  14              		.section	.text.nav_set_altitude,"ax",%progbits
  15              		.align	2
  17              	nav_set_altitude:
  18              		@ Function supports interworking.
  19              		@ args = 0, pretend = 0, frame = 0
  20              		@ frame_needed = 0, uses_anonymous_args = 0
  21 0000 38402DE9 		stmfd	sp!, {r3, r4, r5, lr}
  22 0004 40309FE5 		ldr	r3, .L5
  23 0008 40509FE5 		ldr	r5, .L5+4
  24 000c 004093E5 		ldr	r4, [r3, #0]	@ float
  25 0010 001095E5 		ldr	r1, [r5, #0]	@ float
  26 0014 0400A0E1 		mov	r0, r4
  27 0018 FEFFFFEB 		bl	__aeabi_fsub
  28 001c FE15A0E3 		mov	r1, #1065353216
  29 0020 0201C0E3 		bic	r0, r0, #-2147483648
  30 0024 FEFFFFEB 		bl	__aeabi_fcmpgt
  31 0028 24309FE5 		ldr	r3, .L5+8
  32 002c 000050E3 		cmp	r0, #0
  33 0030 00408315 		strne	r4, [r3, #0]	@ float
  34 0034 002093E5 		ldr	r2, [r3, #0]	@ float
  35 0038 18309FE5 		ldr	r3, .L5+12
  36 003c 00408515 		strne	r4, [r5, #0]	@ float
  37 0040 002083E5 		str	r2, [r3, #0]	@ float
  38 0044 3840BDE8 		ldmfd	sp!, {r3, r4, r5, lr}
  39 0048 1EFF2FE1 		bx	lr
  40              	.L6:
  41              		.align	2
  42              	.L5:
  43 004c 00000000 		.word	.LANCHOR0
  44 0050 00000000 		.word	.LANCHOR1
  45 0054 00000000 		.word	flight_altitude
  46 0058 00000000 		.word	v_ctl_altitude_setpoint
  48              		.section	.text.stateGetPositionEnu_f,"ax",%progbits
  49              		.align	2
  51              	stateGetPositionEnu_f:
  52              		@ Function supports interworking.
  53              		@ args = 0, pretend = 0, frame = 0
  54              		@ frame_needed = 0, uses_anonymous_args = 0
  55 0000 08402DE9 		stmfd	sp!, {r3, lr}
  56 0004 14309FE5 		ldr	r3, .L9
  57 0008 B030D3E1 		ldrh	r3, [r3, #0]
  58 000c 800013E3 		tst	r3, #128
  59 0010 FEFFFF0B 		bleq	stateCalcPositionEnu_f
  60              	.L8:
  61 0014 08009FE5 		ldr	r0, .L9+4
  62 0018 0840BDE8 		ldmfd	sp!, {r3, lr}
  63 001c 1EFF2FE1 		bx	lr
  64              	.L10:
  65              		.align	2
  66              	.L9:
  67 0020 00000000 		.word	state
  68 0024 08010000 		.word	state+264
  70              		.section	.text.stateGetPositionUtm_f,"ax",%progbits
  71              		.align	2
  73              	stateGetPositionUtm_f:
  74              		@ Function supports interworking.
  75              		@ args = 0, pretend = 0, frame = 0
  76              		@ frame_needed = 0, uses_anonymous_args = 0
  77 0000 08402DE9 		stmfd	sp!, {r3, lr}
  78 0004 14309FE5 		ldr	r3, .L13
  79 0008 B030D3E1 		ldrh	r3, [r3, #0]
  80 000c 020C13E3 		tst	r3, #512
  81 0010 FEFFFF0B 		bleq	stateCalcPositionUtm_f
  82              	.L12:
  83 0014 08009FE5 		ldr	r0, .L13+4
  84 0018 0840BDE8 		ldmfd	sp!, {r3, lr}
  85 001c 1EFF2FE1 		bx	lr
  86              	.L14:
  87              		.align	2
  88              	.L13:
  89 0020 00000000 		.word	state
  90 0024 78000000 		.word	state+120
  92              		.section	.text.stateGetHorizontalSpeedNorm_f,"ax",%progbits
  93              		.align	2
  95              	stateGetHorizontalSpeedNorm_f:
  96              		@ Function supports interworking.
  97              		@ args = 0, pretend = 0, frame = 0
  98              		@ frame_needed = 0, uses_anonymous_args = 0
  99 0000 08402DE9 		stmfd	sp!, {r3, lr}
 100 0004 14309FE5 		ldr	r3, .L17
 101 0008 1531D3E5 		ldrb	r3, [r3, #277]	@ zero_extendqisi2
 102 000c 010013E3 		tst	r3, #1
 103 0010 FEFFFF0B 		bleq	stateCalcHorizontalSpeedNorm_f
 104              	.L16:
 105 0014 08009FE5 		ldr	r0, .L17+4
 106 0018 0840BDE8 		ldmfd	sp!, {r3, lr}
 107 001c 1EFF2FE1 		bx	lr
 108              	.L18:
 109              		.align	2
 110              	.L17:
 111 0020 00000000 		.word	state
 112 0024 68010000 		.word	state+360
 114              		.section	.text.nav_init_stage,"ax",%progbits
 115              		.align	2
 116              		.global	nav_init_stage
 118              	nav_init_stage:
 119              		@ Function supports interworking.
 120              		@ args = 0, pretend = 0, frame = 0
 121              		@ frame_needed = 0, uses_anonymous_args = 0
 122 0000 08402DE9 		stmfd	sp!, {r3, lr}
 123 0004 FEFFFFEB 		bl	stateGetPositionEnu_f
 124 0008 54309FE5 		ldr	r3, .L20
 125 000c 002090E5 		ldr	r2, [r0, #0]	@ float
 126 0010 002083E5 		str	r2, [r3, #0]	@ float
 127 0014 FEFFFFEB 		bl	stateGetPositionEnu_f
 128 0018 48309FE5 		ldr	r3, .L20+4
 129 001c 042090E5 		ldr	r2, [r0, #4]	@ float
 130 0020 002083E5 		str	r2, [r3, #0]	@ float
 131 0024 40309FE5 		ldr	r3, .L20+8
 132 0028 0020A0E3 		mov	r2, #0
 133 002c 3C109FE5 		ldr	r1, .L20+12
 134 0030 B020C3E1 		strh	r2, [r3, #0]	@ movhi
 135 0034 0030A0E3 		mov	r3, #0
 136 0038 003081E5 		str	r3, [r1, #0]	@ float
 137 003c 30109FE5 		ldr	r1, .L20+16
 138 0040 0020C1E5 		strb	r2, [r1, #0]
 139 0044 2C109FE5 		ldr	r1, .L20+20
 140 0048 0020C1E5 		strb	r2, [r1, #0]
 141 004c 28209FE5 		ldr	r2, .L20+24
 142 0050 003082E5 		str	r3, [r2, #0]	@ float
 143 0054 24209FE5 		ldr	r2, .L20+28
 144 0058 003082E5 		str	r3, [r2, #0]	@ float
 145 005c 0840BDE8 		ldmfd	sp!, {r3, lr}
 146 0060 1EFF2FE1 		bx	lr
 147              	.L21:
 148              		.align	2
 149              	.L20:
 150 0064 00000000 		.word	last_x
 151 0068 00000000 		.word	last_y
 152 006c 00000000 		.word	stage_time
 153 0070 00000000 		.word	nav_circle_radians
 154 0074 00000000 		.word	.LANCHOR2
 155 0078 00000000 		.word	.LANCHOR3
 156 007c 00000000 		.word	nav_shift
 157 0080 00000000 		.word	nav_pitch
 159              		.global	__aeabi_fmul
 160              		.global	__aeabi_fadd
 161              		.global	__aeabi_fcmplt
 162              		.section	.text.nav_approaching_xy,"ax",%progbits
 163              		.align	2
 164              		.global	nav_approaching_xy
 166              	nav_approaching_xy:
 167              		@ Function supports interworking.
 168              		@ args = 4, pretend = 0, frame = 0
 169              		@ frame_needed = 0, uses_anonymous_args = 0
 170 0000 F84F2DE9 		stmfd	sp!, {r3, r4, r5, r6, r7, r8, r9, sl, fp, lr}
 171 0004 0260A0E1 		mov	r6, r2
 172 0008 0140A0E1 		mov	r4, r1
 173 000c 0050A0E1 		mov	r5, r0
 174 0010 0390A0E1 		mov	r9, r3
 175 0014 FEFFFFEB 		bl	stateGetPositionEnu_f
 176 0018 0030A0E1 		mov	r3, r0
 177 001c 001093E5 		ldr	r1, [r3, #0]	@ float
 178 0020 0500A0E1 		mov	r0, r5
 179 0024 FEFFFFEB 		bl	__aeabi_fsub
 180 0028 0080A0E1 		mov	r8, r0
 181 002c FEFFFFEB 		bl	stateGetPositionEnu_f
 182 0030 0030A0E1 		mov	r3, r0
 183 0034 041093E5 		ldr	r1, [r3, #4]	@ float
 184 0038 0400A0E1 		mov	r0, r4
 185 003c FEFFFFEB 		bl	__aeabi_fsub
 186 0040 0810A0E1 		mov	r1, r8
 187 0044 0070A0E1 		mov	r7, r0
 188 0048 0800A0E1 		mov	r0, r8
 189 004c FEFFFFEB 		bl	__aeabi_fmul
 190 0050 0710A0E1 		mov	r1, r7
 191 0054 00B0A0E1 		mov	fp, r0
 192 0058 0700A0E1 		mov	r0, r7
 193 005c FEFFFFEB 		bl	__aeabi_fmul
 194 0060 0010A0E1 		mov	r1, r0
 195 0064 0B00A0E1 		mov	r0, fp
 196 0068 FEFFFFEB 		bl	__aeabi_fadd
 197 006c 8CA09FE5 		ldr	sl, .L26
 198 0070 00008AE5 		str	r0, [sl, #0]	@ float
 199 0074 FEFFFFEB 		bl	stateGetHorizontalSpeedNorm_f
 200 0078 0030A0E1 		mov	r3, r0
 201 007c 001093E5 		ldr	r1, [r3, #0]	@ float
 202 0080 28009DE5 		ldr	r0, [sp, #40]	@ float
 203 0084 FEFFFFEB 		bl	__aeabi_fmul
 204 0088 0010A0E1 		mov	r1, r0
 205 008c FEFFFFEB 		bl	__aeabi_fmul
 206 0090 0010A0E1 		mov	r1, r0
 207 0094 00009AE5 		ldr	r0, [sl, #0]	@ float
 208 0098 FEFFFFEB 		bl	__aeabi_fcmplt
 209 009c 000050E3 		cmp	r0, #0
 210 00a0 0100A013 		movne	r0, #1
 211 00a4 1300001A 		bne	.L23
 212 00a8 0500A0E1 		mov	r0, r5
 213 00ac 0610A0E1 		mov	r1, r6
 214 00b0 FEFFFFEB 		bl	__aeabi_fsub
 215 00b4 0810A0E1 		mov	r1, r8
 216 00b8 FEFFFFEB 		bl	__aeabi_fmul
 217 00bc 0910A0E1 		mov	r1, r9
 218 00c0 0050A0E1 		mov	r5, r0
 219 00c4 0400A0E1 		mov	r0, r4
 220 00c8 FEFFFFEB 		bl	__aeabi_fsub
 221 00cc 0710A0E1 		mov	r1, r7
 222 00d0 FEFFFFEB 		bl	__aeabi_fmul
 223 00d4 0010A0E1 		mov	r1, r0
 224 00d8 0500A0E1 		mov	r0, r5
 225 00dc FEFFFFEB 		bl	__aeabi_fadd
 226 00e0 0010A0E3 		mov	r1, #0
 227 00e4 FEFFFFEB 		bl	__aeabi_fcmplt
 228 00e8 000050E3 		cmp	r0, #0
 229 00ec 0140A0E3 		mov	r4, #1
 230 00f0 0040A001 		moveq	r4, r0
 231 00f4 FF0004E2 		and	r0, r4, #255
 232              	.L23:
 233 00f8 F84FBDE8 		ldmfd	sp!, {r3, r4, r5, r6, r7, r8, r9, sl, fp, lr}
 234 00fc 1EFF2FE1 		bx	lr
 235              	.L27:
 236              		.align	2
 237              	.L26:
 238 0100 00000000 		.word	dist2_to_wp
 240              		.global	__aeabi_f2d
 241              		.global	__aeabi_d2f
 242              		.global	__aeabi_dadd
 243              		.global	__aeabi_dsub
 244              		.global	__aeabi_dcmpgt
 245              		.global	__aeabi_dcmplt
 246              		.global	__aeabi_ddiv
 247              		.section	.text.fly_to_xy,"ax",%progbits
 248              		.align	2
 249              		.global	fly_to_xy
 251              	fly_to_xy:
 252              		@ Function supports interworking.
 253              		@ args = 0, pretend = 0, frame = 0
 254              		@ frame_needed = 0, uses_anonymous_args = 0
 255 0000 F8402DE9 		stmfd	sp!, {r3, r4, r5, r6, r7, lr}
 256 0004 0060A0E1 		mov	r6, r0
 257 0008 0150A0E1 		mov	r5, r1
 258 000c FEFFFFEB 		bl	stateGetPositionEnu_f
 259 0010 7C329FE5 		ldr	r3, .L53
 260 0014 006083E5 		str	r6, [r3, #0]	@ float
 261 0018 78329FE5 		ldr	r3, .L53+4
 262 001c 005083E5 		str	r5, [r3, #0]	@ float
 263 0020 74329FE5 		ldr	r3, .L53+8
 264 0024 003093E5 		ldr	r3, [r3, #0]
 265 0028 0040A0E1 		mov	r4, r0
 266 002c 020053E3 		cmp	r3, #2
 267 0030 0600A0E1 		mov	r0, r6
 268 0034 001094E5 		ldr	r1, [r4, #0]	@ float
 269 0038 1D00001A 		bne	.L29
 270 003c FEFFFFEB 		bl	__aeabi_fsub
 271 0040 FEFFFFEB 		bl	__aeabi_f2d
 272 0044 0060A0E1 		mov	r6, r0
 273 0048 0170A0E1 		mov	r7, r1
 274 004c 0500A0E1 		mov	r0, r5
 275 0050 041094E5 		ldr	r1, [r4, #4]	@ float
 276 0054 FEFFFFEB 		bl	__aeabi_fsub
 277 0058 FEFFFFEB 		bl	__aeabi_f2d
 278 005c 0020A0E1 		mov	r2, r0
 279 0060 0130A0E1 		mov	r3, r1
 280 0064 0600A0E1 		mov	r0, r6
 281 0068 0710A0E1 		mov	r1, r7
 282 006c FEFFFFEB 		bl	atan2
 283 0070 FEFFFFEB 		bl	__aeabi_d2f
 284 0074 24429FE5 		ldr	r4, .L53+12
 285 0078 0010A0E3 		mov	r1, #0
 286 007c 000084E5 		str	r0, [r4, #0]	@ float
 287 0080 0050A0E1 		mov	r5, r0
 288 0084 FEFFFFEB 		bl	__aeabi_fcmplt
 289 0088 000050E3 		cmp	r0, #0
 290 008c 0600000A 		beq	.L30
 291 0090 0500A0E1 		mov	r0, r5
 292 0094 FEFFFFEB 		bl	__aeabi_f2d
 293 0098 04229FE5 		ldr	r2, .L53+16
 294 009c 04329FE5 		ldr	r3, .L53+20
 295 00a0 FEFFFFEB 		bl	__aeabi_dadd
 296 00a4 FEFFFFEB 		bl	__aeabi_d2f
 297 00a8 000084E5 		str	r0, [r4, #0]	@ float
 298              	.L30:
 299 00ac 0320A0E3 		mov	r2, #3
 300 00b0 730000EA 		b	.L52
 301              	.L29:
 302 00b4 FEFFFFEB 		bl	__aeabi_fsub
 303 00b8 FEFFFFEB 		bl	__aeabi_f2d
 304 00bc 0060A0E1 		mov	r6, r0
 305 00c0 0170A0E1 		mov	r7, r1
 306 00c4 0500A0E1 		mov	r0, r5
 307 00c8 041094E5 		ldr	r1, [r4, #4]	@ float
 308 00cc FEFFFFEB 		bl	__aeabi_fsub
 309 00d0 FEFFFFEB 		bl	__aeabi_f2d
 310 00d4 0130A0E1 		mov	r3, r1
 311 00d8 0020A0E1 		mov	r2, r0
 312 00dc 0710A0E1 		mov	r1, r7
 313 00e0 0600A0E1 		mov	r0, r6
 314 00e4 FEFFFFEB 		bl	atan2
 315 00e8 BC619FE5 		ldr	r6, .L53+24
 316 00ec 453FA0E3 		mov	r3, #276
 317 00f0 B33096E1 		ldrh	r3, [r6, r3]
 318 00f4 020C13E3 		tst	r3, #512
 319 00f8 0040A0E1 		mov	r4, r0
 320 00fc 0150A0E1 		mov	r5, r1
 321 0100 FEFFFF0B 		bleq	stateCalcHorizontalSpeedDir_f
 322              	.L33:
 323 0104 6C0196E5 		ldr	r0, [r6, #364]	@ float
 324 0108 FEFFFFEB 		bl	__aeabi_f2d
 325 010c 0020A0E1 		mov	r2, r0
 326 0110 0130A0E1 		mov	r3, r1
 327 0114 0400A0E1 		mov	r0, r4
 328 0118 0510A0E1 		mov	r1, r5
 329 011c 030000EA 		b	.L50
 330              	.L35:
 331 0120 7C219FE5 		ldr	r2, .L53+16
 332 0124 7C319FE5 		ldr	r3, .L53+20
 333 0128 0600A0E1 		mov	r0, r6
 334 012c 0710A0E1 		mov	r1, r7
 335              	.L50:
 336 0130 FEFFFFEB 		bl	__aeabi_dsub
 337 0134 FEFFFFEB 		bl	__aeabi_d2f
 338 0138 0040A0E1 		mov	r4, r0
 339 013c FEFFFFEB 		bl	__aeabi_f2d
 340 0140 5C219FE5 		ldr	r2, .L53+16
 341 0144 64319FE5 		ldr	r3, .L53+28
 342 0148 0060A0E1 		mov	r6, r0
 343 014c 0170A0E1 		mov	r7, r1
 344 0150 FEFFFFEB 		bl	__aeabi_dcmpgt
 345 0154 000050E3 		cmp	r0, #0
 346 0158 F0FFFF1A 		bne	.L35
 347 015c 030000EA 		b	.L48
 348              	.L37:
 349 0160 40319FE5 		ldr	r3, .L53+20
 350 0164 FEFFFFEB 		bl	__aeabi_dadd
 351 0168 FEFFFFEB 		bl	__aeabi_d2f
 352 016c 0040A0E1 		mov	r4, r0
 353              	.L48:
 354 0170 0400A0E1 		mov	r0, r4
 355 0174 FEFFFFEB 		bl	__aeabi_f2d
 356 0178 24219FE5 		ldr	r2, .L53+16
 357 017c 30319FE5 		ldr	r3, .L53+32
 358 0180 0060A0E1 		mov	r6, r0
 359 0184 0170A0E1 		mov	r7, r1
 360 0188 FEFFFFEB 		bl	__aeabi_dcmplt
 361 018c 000050E3 		cmp	r0, #0
 362 0190 0710A0E1 		mov	r1, r7
 363 0194 0600A0E1 		mov	r0, r6
 364 0198 04219FE5 		ldr	r2, .L53+16
 365 019c EFFFFF1A 		bne	.L37
 366 01a0 10319FE5 		ldr	r3, .L53+36
 367 01a4 FEFFFFEB 		bl	__aeabi_dcmpgt
 368 01a8 000050E3 		cmp	r0, #0
 369 01ac 08419F15 		ldrne	r4, .L53+40
 370 01b0 0600001A 		bne	.L38
 371 01b4 0600A0E1 		mov	r0, r6
 372 01b8 0710A0E1 		mov	r1, r7
 373 01bc E0209FE5 		ldr	r2, .L53+16
 374 01c0 F8309FE5 		ldr	r3, .L53+44
 375 01c4 FEFFFFEB 		bl	__aeabi_dcmplt
 376 01c8 000050E3 		cmp	r0, #0
 377 01cc F0409F15 		ldrne	r4, .L53+48
 378              	.L38:
 379 01d0 0400A0E1 		mov	r0, r4
 380 01d4 FEFFFFEB 		bl	__aeabi_f2d
 381 01d8 FEFFFFEB 		bl	sin
 382 01dc 0060A0E1 		mov	r6, r0
 383 01e0 0170A0E1 		mov	r7, r1
 384 01e4 FEFFFFEB 		bl	stateGetHorizontalSpeedNorm_f
 385 01e8 004090E5 		ldr	r4, [r0, #0]	@ float
 386 01ec 0410A0E1 		mov	r1, r4
 387 01f0 0400A0E1 		mov	r0, r4
 388 01f4 FEFFFFEB 		bl	__aeabi_fadd
 389 01f8 0410A0E1 		mov	r1, r4
 390 01fc FEFFFFEB 		bl	__aeabi_fmul
 391 0200 0710A0E1 		mov	r1, r7
 392 0204 0040A0E1 		mov	r4, r0
 393 0208 0600A0E1 		mov	r0, r6
 394 020c FEFFFFEB 		bl	__aeabi_d2f
 395 0210 0010A0E1 		mov	r1, r0
 396 0214 0400A0E1 		mov	r0, r4
 397 0218 FEFFFFEB 		bl	__aeabi_fmul
 398 021c A4309FE5 		ldr	r3, .L53+52
 399 0220 001093E5 		ldr	r1, [r3, #0]	@ float
 400 0224 FEFFFFEB 		bl	__aeabi_fmul
 401 0228 FEFFFFEB 		bl	__aeabi_f2d
 402 022c 98209FE5 		ldr	r2, .L53+56
 403 0230 98309FE5 		ldr	r3, .L53+60
 404 0234 FEFFFFEB 		bl	__aeabi_ddiv
 405 0238 FEFFFFEB 		bl	atan
 406 023c FEFFFFEB 		bl	__aeabi_d2f
 407 0240 8C309FE5 		ldr	r3, .L53+64
 408 0244 8C409FE5 		ldr	r4, .L53+68
 409 0248 005093E5 		ldr	r5, [r3, #0]	@ float
 410 024c 000084E5 		str	r0, [r4, #0]	@ float
 411 0250 0510A0E1 		mov	r1, r5
 412 0254 0060A0E1 		mov	r6, r0
 413 0258 FEFFFFEB 		bl	__aeabi_fcmpgt
 414 025c 000050E3 		cmp	r0, #0
 415 0260 0500001A 		bne	.L51
 416              	.L49:
 417 0264 025185E2 		add	r5, r5, #-2147483648
 418 0268 0600A0E1 		mov	r0, r6
 419 026c 0510A0E1 		mov	r1, r5
 420 0270 FEFFFFEB 		bl	__aeabi_fcmplt
 421 0274 000050E3 		cmp	r0, #0
 422 0278 0000000A 		beq	.L41
 423              	.L51:
 424 027c 005084E5 		str	r5, [r4, #0]	@ float
 425              	.L41:
 426 0280 0220A0E3 		mov	r2, #2
 427              	.L52:
 428 0284 50309FE5 		ldr	r3, .L53+72
 429 0288 0020C3E5 		strb	r2, [r3, #0]
 430 028c F840BDE8 		ldmfd	sp!, {r3, r4, r5, r6, r7, lr}
 431 0290 1EFF2FE1 		bx	lr
 432              	.L54:
 433              		.align	2
 434              	.L53:
 435 0294 00000000 		.word	desired_x
 436 0298 00000000 		.word	desired_y
 437 029c 00000000 		.word	nav_mode
 438 02a0 00000000 		.word	h_ctl_course_setpoint
 439 02a4 182D4454 		.word	1413754136
 440 02a8 FB211940 		.word	1075388923
 441 02ac 00000000 		.word	state
 442 02b0 FB210940 		.word	1074340347
 443 02b4 FB2109C0 		.word	-1073143301
 444 02b8 FB21F93F 		.word	1073291771
 445 02bc DB0FC93F 		.word	1070141403
 446 02c0 FB21F9BF 		.word	-1074191877
 447 02c4 DB0FC9BF 		.word	-1077342245
 448 02c8 00000000 		.word	h_ctl_course_pgain
 449 02cc 33333333 		.word	858993459
 450 02d0 33ED8340 		.word	1082387763
 451 02d4 00000000 		.word	h_ctl_roll_max_setpoint
 452 02d8 00000000 		.word	h_ctl_roll_setpoint
 453 02dc 00000000 		.word	lateral_mode
 455              		.global	__aeabi_dmul
 456              		.global	__aeabi_fdiv
 457              		.section	.text.nav_circle_XY,"ax",%progbits
 458              		.align	2
 459              		.global	nav_circle_XY
 461              	nav_circle_XY:
 462              		@ Function supports interworking.
 463              		@ args = 0, pretend = 0, frame = 24
 464              		@ frame_needed = 0, uses_anonymous_args = 0
 465 0000 F04F2DE9 		stmfd	sp!, {r4, r5, r6, r7, r8, r9, sl, fp, lr}
 466 0004 1CD04DE2 		sub	sp, sp, #28
 467 0008 0270A0E1 		mov	r7, r2
 468 000c 0090A0E1 		mov	r9, r0
 469 0010 01B0A0E1 		mov	fp, r1
 470 0014 FEFFFFEB 		bl	stateGetPositionEnu_f
 471 0018 0B10A0E1 		mov	r1, fp
 472 001c 0050A0E1 		mov	r5, r0
 473 0020 040090E5 		ldr	r0, [r0, #4]	@ float
 474 0024 FEFFFFEB 		bl	__aeabi_fsub
 475 0028 FEFFFFEB 		bl	__aeabi_f2d
 476 002c 08008DE5 		str	r0, [sp, #8]
 477 0030 0C108DE5 		str	r1, [sp, #12]
 478 0034 000095E5 		ldr	r0, [r5, #0]	@ float
 479 0038 0910A0E1 		mov	r1, r9
 480 003c FEFFFFEB 		bl	__aeabi_fsub
 481 0040 FEFFFFEB 		bl	__aeabi_f2d
 482 0044 F4439FE5 		ldr	r4, .L77
 483 0048 0130A0E1 		mov	r3, r1
 484 004c 0020A0E1 		mov	r2, r0
 485 0050 08108DE2 		add	r1, sp, #8
 486 0054 030091E8 		ldmia	r1, {r0-r1}
 487 0058 006094E5 		ldr	r6, [r4, #0]	@ float
 488 005c FEFFFFEB 		bl	atan2
 489 0060 FEFFFFEB 		bl	__aeabi_d2f
 490 0064 D8339FE5 		ldr	r3, .L77+4
 491 0068 0030D3E5 		ldrb	r3, [r3, #0]	@ zero_extendqisi2
 492 006c 000053E3 		cmp	r3, #0
 493 0070 000084E5 		str	r0, [r4, #0]	@ float
 494 0074 2700000A 		beq	.L56
 495 0078 0610A0E1 		mov	r1, r6
 496 007c FEFFFFEB 		bl	__aeabi_fsub
 497 0080 050000EA 		b	.L76
 498              	.L58:
 499 0084 BC239FE5 		ldr	r2, .L77+8
 500 0088 BC339FE5 		ldr	r3, .L77+12
 501 008c 08108DE2 		add	r1, sp, #8
 502 0090 030091E8 		ldmia	r1, {r0-r1}
 503 0094 FEFFFFEB 		bl	__aeabi_dsub
 504 0098 FEFFFFEB 		bl	__aeabi_d2f
 505              	.L76:
 506 009c 0040A0E1 		mov	r4, r0
 507 00a0 FEFFFFEB 		bl	__aeabi_f2d
 508 00a4 9C239FE5 		ldr	r2, .L77+8
 509 00a8 A0339FE5 		ldr	r3, .L77+16
 510 00ac 08008DE5 		str	r0, [sp, #8]
 511 00b0 0C108DE5 		str	r1, [sp, #12]
 512 00b4 FEFFFFEB 		bl	__aeabi_dcmpgt
 513 00b8 000050E3 		cmp	r0, #0
 514 00bc F0FFFF1A 		bne	.L58
 515 00c0 060000EA 		b	.L74
 516              	.L60:
 517 00c4 7C239FE5 		ldr	r2, .L77+8
 518 00c8 7C339FE5 		ldr	r3, .L77+12
 519 00cc 08108DE2 		add	r1, sp, #8
 520 00d0 030091E8 		ldmia	r1, {r0-r1}
 521 00d4 FEFFFFEB 		bl	__aeabi_dadd
 522 00d8 FEFFFFEB 		bl	__aeabi_d2f
 523 00dc 0040A0E1 		mov	r4, r0
 524              	.L74:
 525 00e0 0400A0E1 		mov	r0, r4
 526 00e4 FEFFFFEB 		bl	__aeabi_f2d
 527 00e8 58239FE5 		ldr	r2, .L77+8
 528 00ec 60339FE5 		ldr	r3, .L77+20
 529 00f0 08008DE5 		str	r0, [sp, #8]
 530 00f4 0C108DE5 		str	r1, [sp, #12]
 531 00f8 FEFFFFEB 		bl	__aeabi_dcmplt
 532 00fc 000050E3 		cmp	r0, #0
 533 0100 EFFFFF1A 		bne	.L60
 534 0104 4C639FE5 		ldr	r6, .L77+24
 535 0108 0410A0E1 		mov	r1, r4
 536 010c 000096E5 		ldr	r0, [r6, #0]	@ float
 537 0110 FEFFFFEB 		bl	__aeabi_fadd
 538 0114 000086E5 		str	r0, [r6, #0]	@ float
 539              	.L56:
 540 0118 000095E5 		ldr	r0, [r5, #0]	@ float
 541 011c 0910A0E1 		mov	r1, r9
 542 0120 FEFFFFEB 		bl	__aeabi_fsub
 543 0124 0B10A0E1 		mov	r1, fp
 544 0128 0040A0E1 		mov	r4, r0
 545 012c 040095E5 		ldr	r0, [r5, #4]	@ float
 546 0130 FEFFFFEB 		bl	__aeabi_fsub
 547 0134 0410A0E1 		mov	r1, r4
 548 0138 0050A0E1 		mov	r5, r0
 549 013c 0400A0E1 		mov	r0, r4
 550 0140 FEFFFFEB 		bl	__aeabi_fmul
 551 0144 0510A0E1 		mov	r1, r5
 552 0148 0040A0E1 		mov	r4, r0
 553 014c 0500A0E1 		mov	r0, r5
 554 0150 FEFFFFEB 		bl	__aeabi_fmul
 555 0154 0010A0E1 		mov	r1, r0
 556 0158 0400A0E1 		mov	r0, r4
 557 015c FEFFFFEB 		bl	__aeabi_fadd
 558 0160 0010A0E3 		mov	r1, #0
 559 0164 0080A0E1 		mov	r8, r0
 560 0168 0700A0E1 		mov	r0, r7
 561 016c FEFFFFEB 		bl	__aeabi_fcmpgt
 562 0170 E4329FE5 		ldr	r3, .L77+28
 563 0174 000050E3 		cmp	r0, #0
 564 0178 001093E5 		ldr	r1, [r3, #0]	@ float
 565 017c 0700A0E1 		mov	r0, r7
 566 0180 FE65A013 		movne	r6, #1065353216
 567 0184 D4629F05 		ldreq	r6, .L77+32
 568 0188 FEFFFFEB 		bl	__aeabi_fsub
 569 018c 0241C0E3 		bic	r4, r0, #-2147483648
 570 0190 CC129FE5 		ldr	r1, .L77+36
 571 0194 00A0A0E1 		mov	sl, r0
 572 0198 0400A0E1 		mov	r0, r4
 573 019c FEFFFFEB 		bl	__aeabi_fadd
 574 01a0 0010A0E1 		mov	r1, r0
 575 01a4 FEFFFFEB 		bl	__aeabi_fmul
 576 01a8 0010A0E1 		mov	r1, r0
 577 01ac 0800A0E1 		mov	r0, r8
 578 01b0 FEFFFFEB 		bl	__aeabi_fcmpgt
 579 01b4 000050E3 		cmp	r0, #0
 580 01b8 0150A0E3 		mov	r5, #1
 581 01bc 0050A003 		moveq	r5, #0
 582 01c0 FF5015E2 		ands	r5, r5, #255
 583 01c4 2300001A 		bne	.L71
 584 01c8 94129FE5 		ldr	r1, .L77+36
 585 01cc 0400A0E1 		mov	r0, r4
 586 01d0 FEFFFFEB 		bl	__aeabi_fsub
 587 01d4 0010A0E1 		mov	r1, r0
 588 01d8 FEFFFFEB 		bl	__aeabi_fmul
 589 01dc 0010A0E1 		mov	r1, r0
 590 01e0 0800A0E1 		mov	r0, r8
 591 01e4 FEFFFFEB 		bl	__aeabi_fcmplt
 592 01e8 000050E3 		cmp	r0, #0
 593 01ec 0170A0E3 		mov	r7, #1
 594 01f0 0570A001 		moveq	r7, r5
 595 01f4 FF0017E3 		tst	r7, #255
 596 01f8 1600001A 		bne	.L71
 597 01fc FEFFFFEB 		bl	stateGetHorizontalSpeedNorm_f
 598 0200 005090E5 		ldr	r5, [r0, #0]	@ float
 599 0204 FEFFFFEB 		bl	stateGetHorizontalSpeedNorm_f
 600 0208 0030A0E1 		mov	r3, r0
 601 020c 001093E5 		ldr	r1, [r3, #0]	@ float
 602 0210 0500A0E1 		mov	r0, r5
 603 0214 FEFFFFEB 		bl	__aeabi_fmul
 604 0218 FEFFFFEB 		bl	__aeabi_f2d
 605 021c 0070A0E1 		mov	r7, r0
 606 0220 0A00A0E1 		mov	r0, sl
 607 0224 0180A0E1 		mov	r8, r1
 608 0228 FEFFFFEB 		bl	__aeabi_f2d
 609 022c 34229FE5 		ldr	r2, .L77+40
 610 0230 34329FE5 		ldr	r3, .L77+44
 611 0234 FEFFFFEB 		bl	__aeabi_dmul
 612 0238 0020A0E1 		mov	r2, r0
 613 023c 0130A0E1 		mov	r3, r1
 614 0240 0700A0E1 		mov	r0, r7
 615 0244 0810A0E1 		mov	r1, r8
 616 0248 FEFFFFEB 		bl	__aeabi_ddiv
 617 024c FEFFFFEB 		bl	atan
 618 0250 FEFFFFEB 		bl	__aeabi_d2f
 619 0254 000000EA 		b	.L63
 620              	.L71:
 621 0258 0000A0E3 		mov	r0, #0
 622              	.L63:
 623 025c 0C329FE5 		ldr	r3, .L77+48
 624 0260 0410A0E1 		mov	r1, r4
 625 0264 000083E5 		str	r0, [r3, #0]	@ float
 626 0268 F4019FE5 		ldr	r0, .L77+36
 627 026c FEFFFFEB 		bl	__aeabi_fdiv
 628 0270 0050A0E1 		mov	r5, r0
 629 0274 FEFFFFEB 		bl	__aeabi_f2d
 630 0278 C8219FE5 		ldr	r2, .L77+8
 631 027c F0319FE5 		ldr	r3, .L77+52
 632 0280 FEFFFFEB 		bl	__aeabi_dcmplt
 633 0284 000050E3 		cmp	r0, #0
 634 0288 E8519F05 		ldreq	r5, .L77+56
 635 028c 0500A0E1 		mov	r0, r5
 636 0290 FEFFFFEB 		bl	__aeabi_f2d
 637 0294 AC219FE5 		ldr	r2, .L77+8
 638 0298 DC319FE5 		ldr	r3, .L77+60
 639 029c FEFFFFEB 		bl	__aeabi_dcmpgt
 640 02a0 000050E3 		cmp	r0, #0
 641 02a4 D4519F05 		ldreq	r5, .L77+64
 642 02a8 0600A0E1 		mov	r0, r6
 643 02ac 0510A0E1 		mov	r1, r5
 644 02b0 FEFFFFEB 		bl	__aeabi_fmul
 645 02b4 84319FE5 		ldr	r3, .L77
 646 02b8 0010A0E1 		mov	r1, r0
 647 02bc 000093E5 		ldr	r0, [r3, #0]	@ float
 648 02c0 FEFFFFEB 		bl	__aeabi_fsub
 649 02c4 B8319FE5 		ldr	r3, .L77+68
 650 02c8 0220A0E3 		mov	r2, #2
 651 02cc 0020C3E5 		strb	r2, [r3, #0]
 652 02d0 B0319FE5 		ldr	r3, .L77+72
 653 02d4 003093E5 		ldr	r3, [r3, #0]
 654 02d8 020053E1 		cmp	r3, r2
 655 02dc 0080A0E1 		mov	r8, r0
 656 02e0 1500001A 		bne	.L68
 657 02e4 0400A0E1 		mov	r0, r4
 658 02e8 FEFFFFEB 		bl	__aeabi_f2d
 659 02ec 0060A0E1 		mov	r6, r0
 660 02f0 0500A0E1 		mov	r0, r5
 661 02f4 0170A0E1 		mov	r7, r1
 662 02f8 FEFFFFEB 		bl	__aeabi_f2d
 663 02fc FEFFFFEB 		bl	cos
 664 0300 0020A0E1 		mov	r2, r0
 665 0304 0130A0E1 		mov	r3, r1
 666 0308 0600A0E1 		mov	r0, r6
 667 030c 0710A0E1 		mov	r1, r7
 668 0310 FEFFFFEB 		bl	__aeabi_ddiv
 669 0314 0620A0E1 		mov	r2, r6
 670 0318 0730A0E1 		mov	r3, r7
 671 031c FEFFFFEB 		bl	__aeabi_dsub
 672 0320 0020A0E1 		mov	r2, r0
 673 0324 0130A0E1 		mov	r3, r1
 674 0328 0600A0E1 		mov	r0, r6
 675 032c 0710A0E1 		mov	r1, r7
 676 0330 FEFFFFEB 		bl	__aeabi_dadd
 677 0334 FEFFFFEB 		bl	__aeabi_d2f
 678 0338 0040A0E1 		mov	r4, r0
 679              	.L68:
 680 033c 0800A0E1 		mov	r0, r8
 681 0340 FEFFFFEB 		bl	__aeabi_f2d
 682 0344 0060A0E1 		mov	r6, r0
 683 0348 0170A0E1 		mov	r7, r1
 684 034c FEFFFFEB 		bl	cos
 685 0350 0020A0E1 		mov	r2, r0
 686 0354 0400A0E1 		mov	r0, r4
 687 0358 04208DE5 		str	r2, [sp, #4]
 688 035c 00108DE5 		str	r1, [sp, #0]
 689 0360 FEFFFFEB 		bl	__aeabi_f2d
 690 0364 08008DE5 		str	r0, [sp, #8]
 691 0368 0C108DE5 		str	r1, [sp, #12]
 692 036c 0600A0E1 		mov	r0, r6
 693 0370 0710A0E1 		mov	r1, r7
 694 0374 FEFFFFEB 		bl	sin
 695 0378 10008DE5 		str	r0, [sp, #16]
 696 037c 14108DE5 		str	r1, [sp, #20]
 697 0380 0900A0E1 		mov	r0, r9
 698 0384 FEFFFFEB 		bl	__aeabi_f2d
 699 0388 04209DE5 		ldr	r2, [sp, #4]
 700 038c 00309DE5 		ldr	r3, [sp, #0]
 701 0390 0040A0E1 		mov	r4, r0
 702 0394 0150A0E1 		mov	r5, r1
 703 0398 0200A0E1 		mov	r0, r2
 704 039c 0310A0E1 		mov	r1, r3
 705 03a0 08308DE2 		add	r3, sp, #8
 706 03a4 0C0093E8 		ldmia	r3, {r2-r3}
 707 03a8 FEFFFFEB 		bl	__aeabi_dmul
 708 03ac 0020A0E1 		mov	r2, r0
 709 03b0 0130A0E1 		mov	r3, r1
 710 03b4 0400A0E1 		mov	r0, r4
 711 03b8 0510A0E1 		mov	r1, r5
 712 03bc FEFFFFEB 		bl	__aeabi_dadd
 713 03c0 FEFFFFEB 		bl	__aeabi_d2f
 714 03c4 0040A0E1 		mov	r4, r0
 715 03c8 0B00A0E1 		mov	r0, fp
 716 03cc FEFFFFEB 		bl	__aeabi_f2d
 717 03d0 08308DE2 		add	r3, sp, #8
 718 03d4 0C0093E8 		ldmia	r3, {r2-r3}
 719 03d8 0060A0E1 		mov	r6, r0
 720 03dc 0170A0E1 		mov	r7, r1
 721 03e0 10108DE2 		add	r1, sp, #16
 722 03e4 030091E8 		ldmia	r1, {r0-r1}
 723 03e8 FEFFFFEB 		bl	__aeabi_dmul
 724 03ec 0020A0E1 		mov	r2, r0
 725 03f0 0130A0E1 		mov	r3, r1
 726 03f4 0600A0E1 		mov	r0, r6
 727 03f8 0710A0E1 		mov	r1, r7
 728 03fc FEFFFFEB 		bl	__aeabi_dadd
 729 0400 FEFFFFEB 		bl	__aeabi_d2f
 730 0404 0010A0E1 		mov	r1, r0
 731 0408 0400A0E1 		mov	r0, r4
 732 040c FEFFFFEB 		bl	fly_to_xy
 733 0410 2C309FE5 		ldr	r3, .L77+4
 734 0414 0120A0E3 		mov	r2, #1
 735 0418 0020C3E5 		strb	r2, [r3, #0]
 736 041c 68309FE5 		ldr	r3, .L77+76
 737 0420 009083E5 		str	r9, [r3, #0]	@ float
 738 0424 64309FE5 		ldr	r3, .L77+80
 739 0428 00B083E5 		str	fp, [r3, #0]	@ float
 740 042c 60309FE5 		ldr	r3, .L77+84
 741 0430 00A083E5 		str	sl, [r3, #0]	@ float
 742 0434 1CD08DE2 		add	sp, sp, #28
 743 0438 F04FBDE8 		ldmfd	sp!, {r4, r5, r6, r7, r8, r9, sl, fp, lr}
 744 043c 1EFF2FE1 		bx	lr
 745              	.L78:
 746              		.align	2
 747              	.L77:
 748 0440 00000000 		.word	nav_circle_trigo_qdr
 749 0444 00000000 		.word	.LANCHOR2
 750 0448 182D4454 		.word	1413754136
 751 044c FB211940 		.word	1075388923
 752 0450 FB210940 		.word	1074340347
 753 0454 FB2109C0 		.word	-1073143301
 754 0458 00000000 		.word	nav_circle_radians
 755 045c 00000000 		.word	nav_shift
 756 0460 000080BF 		.word	-1082130432
 757 0464 00008242 		.word	1115815936
 758 0468 E9263108 		.word	137438953
 759 046c AC9C2340 		.word	1076075692
 760 0470 00000000 		.word	.LANCHOR4
 761 0474 FB21E93F 		.word	1072243195
 762 0478 DB0F493F 		.word	1061752795
 763 047c FB21C93F 		.word	1070146043
 764 0480 DB0F493E 		.word	1044975579
 765 0484 00000000 		.word	horizontal_mode
 766 0488 00000000 		.word	nav_mode
 767 048c 00000000 		.word	nav_circle_x
 768 0490 00000000 		.word	nav_circle_y
 769 0494 00000000 		.word	nav_circle_radius
 771              		.section	.text.nav_route_xy,"ax",%progbits
 772              		.align	2
 773              		.global	nav_route_xy
 775              	nav_route_xy:
 776              		@ Function supports interworking.
 777              		@ args = 0, pretend = 0, frame = 8
 778              		@ frame_needed = 0, uses_anonymous_args = 0
 779 0000 F74F2DE9 		stmfd	sp!, {r0, r1, r2, r4, r5, r6, r7, r8, r9, sl, fp, lr}
 780 0004 0060A0E1 		mov	r6, r0
 781 0008 0170A0E1 		mov	r7, r1
 782 000c 0200A0E1 		mov	r0, r2
 783 0010 0610A0E1 		mov	r1, r6
 784 0014 02A0A0E1 		mov	sl, r2
 785 0018 0390A0E1 		mov	r9, r3
 786 001c FEFFFFEB 		bl	__aeabi_fsub
 787 0020 0710A0E1 		mov	r1, r7
 788 0024 0050A0E1 		mov	r5, r0
 789 0028 0900A0E1 		mov	r0, r9
 790 002c FEFFFFEB 		bl	__aeabi_fsub
 791 0030 0510A0E1 		mov	r1, r5
 792 0034 0040A0E1 		mov	r4, r0
 793 0038 0500A0E1 		mov	r0, r5
 794 003c FEFFFFEB 		bl	__aeabi_fmul
 795 0040 0410A0E1 		mov	r1, r4
 796 0044 0080A0E1 		mov	r8, r0
 797 0048 0400A0E1 		mov	r0, r4
 798 004c FEFFFFEB 		bl	__aeabi_fmul
 799 0050 0010A0E1 		mov	r1, r0
 800 0054 0800A0E1 		mov	r0, r8
 801 0058 FEFFFFEB 		bl	__aeabi_fadd
 802 005c FE15A0E3 		mov	r1, #1065353216
 803 0060 0080A0E1 		mov	r8, r0
 804 0064 FEFFFFEB 		bl	__aeabi_fcmpgt
 805 0068 000050E3 		cmp	r0, #0
 806 006c FE85A003 		moveq	r8, #1065353216
 807 0070 FEFFFFEB 		bl	stateGetPositionEnu_f
 808 0074 0610A0E1 		mov	r1, r6
 809 0078 000090E5 		ldr	r0, [r0, #0]	@ float
 810 007c FEFFFFEB 		bl	__aeabi_fsub
 811 0080 0510A0E1 		mov	r1, r5
 812 0084 FEFFFFEB 		bl	__aeabi_fmul
 813 0088 00B0A0E1 		mov	fp, r0
 814 008c FEFFFFEB 		bl	stateGetPositionEnu_f
 815 0090 0710A0E1 		mov	r1, r7
 816 0094 040090E5 		ldr	r0, [r0, #4]	@ float
 817 0098 FEFFFFEB 		bl	__aeabi_fsub
 818 009c 0410A0E1 		mov	r1, r4
 819 00a0 FEFFFFEB 		bl	__aeabi_fmul
 820 00a4 0010A0E1 		mov	r1, r0
 821 00a8 0B00A0E1 		mov	r0, fp
 822 00ac FEFFFFEB 		bl	__aeabi_fadd
 823 00b0 0810A0E1 		mov	r1, r8
 824 00b4 FEFFFFEB 		bl	__aeabi_fdiv
 825 00b8 00B0A0E1 		mov	fp, r0
 826 00bc 0800A0E1 		mov	r0, r8
 827 00c0 FEFFFFEB 		bl	__aeabi_f2d
 828 00c4 FEFFFFEB 		bl	sqrt
 829 00c8 FEFFFFEB 		bl	__aeabi_d2f
 830 00cc 28319FE5 		ldr	r3, .L86
 831 00d0 0080A0E1 		mov	r8, r0
 832 00d4 000083E5 		str	r0, [r3, #0]	@ float
 833 00d8 0B00A0E1 		mov	r0, fp
 834 00dc FEFFFFEB 		bl	__aeabi_f2d
 835 00e0 03008DE8 		stmia	sp, {r0-r1}
 836 00e4 0810A0E1 		mov	r1, r8
 837 00e8 10019FE5 		ldr	r0, .L86+4
 838 00ec FEFFFFEB 		bl	__aeabi_fdiv
 839 00f0 0010A0E3 		mov	r1, #0
 840 00f4 00B0A0E1 		mov	fp, r0
 841 00f8 FEFFFFEB 		bl	__aeabi_fcmpgt
 842 00fc 000050E3 		cmp	r0, #0
 843 0100 0020A003 		moveq	r2, #0
 844 0104 0030A003 		moveq	r3, #0
 845 0108 0300000A 		beq	.L81
 846 010c 0B00A0E1 		mov	r0, fp
 847 0110 FEFFFFEB 		bl	__aeabi_f2d
 848 0114 0020A0E1 		mov	r2, r0
 849 0118 0130A0E1 		mov	r3, r1
 850              	.L81:
 851 011c 03009DE8 		ldmia	sp, {r0-r1}
 852 0120 FEFFFFEB 		bl	__aeabi_dadd
 853 0124 FEFFFFEB 		bl	__aeabi_d2f
 854 0128 D4309FE5 		ldr	r3, .L86+8
 855 012c D4209FE5 		ldr	r2, .L86+12
 856 0130 000083E5 		str	r0, [r3, #0]	@ float
 857 0134 0130A0E3 		mov	r3, #1
 858 0138 0030C2E5 		strb	r3, [r2, #0]
 859 013c C8209FE5 		ldr	r2, .L86+16
 860 0140 006082E5 		str	r6, [r2, #0]	@ float
 861 0144 C4209FE5 		ldr	r2, .L86+20
 862 0148 007082E5 		str	r7, [r2, #0]	@ float
 863 014c C0209FE5 		ldr	r2, .L86+24
 864 0150 00A082E5 		str	sl, [r2, #0]	@ float
 865 0154 BC209FE5 		ldr	r2, .L86+28
 866 0158 009082E5 		str	r9, [r2, #0]	@ float
 867 015c B8209FE5 		ldr	r2, .L86+32
 868 0160 0030C2E5 		strb	r3, [r2, #0]
 869 0164 B4309FE5 		ldr	r3, .L86+36
 870 0168 0510A0E1 		mov	r1, r5
 871 016c 00A093E5 		ldr	sl, [r3, #0]	@ float
 872 0170 00B0A0E1 		mov	fp, r0
 873 0174 FEFFFFEB 		bl	__aeabi_fmul
 874 0178 0010A0E1 		mov	r1, r0
 875 017c 0600A0E1 		mov	r0, r6
 876 0180 FEFFFFEB 		bl	__aeabi_fadd
 877 0184 0410A0E1 		mov	r1, r4
 878 0188 0060A0E1 		mov	r6, r0
 879 018c 0A00A0E1 		mov	r0, sl
 880 0190 FEFFFFEB 		bl	__aeabi_fmul
 881 0194 0810A0E1 		mov	r1, r8
 882 0198 FEFFFFEB 		bl	__aeabi_fdiv
 883 019c 0010A0E1 		mov	r1, r0
 884 01a0 0600A0E1 		mov	r0, r6
 885 01a4 FEFFFFEB 		bl	__aeabi_fadd
 886 01a8 0410A0E1 		mov	r1, r4
 887 01ac 0060A0E1 		mov	r6, r0
 888 01b0 0B00A0E1 		mov	r0, fp
 889 01b4 FEFFFFEB 		bl	__aeabi_fmul
 890 01b8 0010A0E1 		mov	r1, r0
 891 01bc 0700A0E1 		mov	r0, r7
 892 01c0 FEFFFFEB 		bl	__aeabi_fadd
 893 01c4 0510A0E1 		mov	r1, r5
 894 01c8 0040A0E1 		mov	r4, r0
 895 01cc 0A00A0E1 		mov	r0, sl
 896 01d0 FEFFFFEB 		bl	__aeabi_fmul
 897 01d4 0810A0E1 		mov	r1, r8
 898 01d8 FEFFFFEB 		bl	__aeabi_fdiv
 899 01dc 0010A0E1 		mov	r1, r0
 900 01e0 0400A0E1 		mov	r0, r4
 901 01e4 FEFFFFEB 		bl	__aeabi_fsub
 902 01e8 0010A0E1 		mov	r1, r0
 903 01ec 0600A0E1 		mov	r0, r6
 904 01f0 0CD08DE2 		add	sp, sp, #12
 905 01f4 F04FBDE8 		ldmfd	sp!, {r4, r5, r6, r7, r8, r9, sl, fp, lr}
 906 01f8 FEFFFFEA 		b	fly_to_xy
 907              	.L87:
 908              		.align	2
 909              	.L86:
 910 01fc 00000000 		.word	.LANCHOR5
 911 0200 00008242 		.word	1115815936
 912 0204 00000000 		.word	.LANCHOR6
 913 0208 00000000 		.word	.LANCHOR3
 914 020c 00000000 		.word	nav_segment_x_1
 915 0210 00000000 		.word	nav_segment_y_1
 916 0214 00000000 		.word	nav_segment_x_2
 917 0218 00000000 		.word	nav_segment_y_2
 918 021c 00000000 		.word	horizontal_mode
 919 0220 00000000 		.word	nav_shift
 921              		.section	.text.compute_dist2_to_home,"ax",%progbits
 922              		.align	2
 923              		.global	compute_dist2_to_home
 925              	compute_dist2_to_home:
 926              		@ Function supports interworking.
 927              		@ args = 0, pretend = 0, frame = 0
 928              		@ frame_needed = 0, uses_anonymous_args = 0
 929 0000 70402DE9 		stmfd	sp!, {r4, r5, r6, lr}
 930 0004 FEFFFFEB 		bl	stateGetPositionEnu_f
 931 0008 74509FE5 		ldr	r5, .L90
 932 000c 0040A0E1 		mov	r4, r0
 933 0010 001094E5 		ldr	r1, [r4, #0]	@ float
 934 0014 0C0095E5 		ldr	r0, [r5, #12]	@ float
 935 0018 FEFFFFEB 		bl	__aeabi_fsub
 936 001c 041094E5 		ldr	r1, [r4, #4]	@ float
 937 0020 0060A0E1 		mov	r6, r0
 938 0024 100095E5 		ldr	r0, [r5, #16]	@ float
 939 0028 FEFFFFEB 		bl	__aeabi_fsub
 940 002c 0610A0E1 		mov	r1, r6
 941 0030 0050A0E1 		mov	r5, r0
 942 0034 0600A0E1 		mov	r0, r6
 943 0038 FEFFFFEB 		bl	__aeabi_fmul
 944 003c 0510A0E1 		mov	r1, r5
 945 0040 0040A0E1 		mov	r4, r0
 946 0044 0500A0E1 		mov	r0, r5
 947 0048 FEFFFFEB 		bl	__aeabi_fmul
 948 004c 0010A0E1 		mov	r1, r0
 949 0050 0400A0E1 		mov	r0, r4
 950 0054 FEFFFFEB 		bl	__aeabi_fadd
 951 0058 28309FE5 		ldr	r3, .L90+4
 952 005c 28109FE5 		ldr	r1, .L90+8
 953 0060 000083E5 		str	r0, [r3, #0]	@ float
 954 0064 FEFFFFEB 		bl	__aeabi_fcmpgt
 955 0068 20309FE5 		ldr	r3, .L90+12
 956 006c 000050E3 		cmp	r0, #0
 957 0070 0140A0E3 		mov	r4, #1
 958 0074 0040A003 		moveq	r4, #0
 959 0078 0040C3E5 		strb	r4, [r3, #0]
 960 007c 7040BDE8 		ldmfd	sp!, {r4, r5, r6, lr}
 961 0080 1EFF2FE1 		bx	lr
 962              	.L91:
 963              		.align	2
 964              	.L90:
 965 0084 00000000 		.word	.LANCHOR7
 966 0088 00000000 		.word	dist2_to_home
 967 008c 4054094A 		.word	1242125376
 968 0090 00000000 		.word	too_far_from_home
 970              		.global	__aeabi_idiv
 971              		.global	__aeabi_i2f
 972              		.global	__aeabi_i2d
 973              		.section	.text.nav_reset_reference,"ax",%progbits
 974              		.align	2
 975              		.global	nav_reset_reference
 977              	nav_reset_reference:
 978              		@ Function supports interworking.
 979              		@ args = 0, pretend = 0, frame = 0
 980              		@ frame_needed = 0, uses_anonymous_args = 0
 981 0000 F8402DE9 		stmfd	sp!, {r3, r4, r5, r6, r7, lr}
 982 0004 C0509FE5 		ldr	r5, .L93
 983 0008 C0309FE5 		ldr	r3, .L93+4
 984 000c 2440D5E5 		ldrb	r4, [r5, #36]	@ zero_extendqisi2
 985 0010 1C0095E5 		ldr	r0, [r5, #28]
 986 0014 0040C3E5 		strb	r4, [r3, #0]
 987 0018 6410A0E3 		mov	r1, #100
 988 001c FEFFFFEB 		bl	__aeabi_idiv
 989 0020 AC309FE5 		ldr	r3, .L93+8
 990 0024 6410A0E3 		mov	r1, #100
 991 0028 0060A0E1 		mov	r6, r0
 992 002c 000083E5 		str	r0, [r3, #0]
 993 0030 180095E5 		ldr	r0, [r5, #24]
 994 0034 FEFFFFEB 		bl	__aeabi_idiv
 995 0038 98309FE5 		ldr	r3, .L93+12
 996 003c 000083E5 		str	r0, [r3, #0]
 997 0040 FEFFFFEB 		bl	__aeabi_i2f
 998 0044 90709FE5 		ldr	r7, .L93+16
 999 0048 E80087E5 		str	r0, [r7, #232]	@ float
 1000 004c 0600A0E1 		mov	r0, r6
 1001 0050 FEFFFFEB 		bl	__aeabi_i2f
 1002 0054 0030A0E3 		mov	r3, #0
 1003 0058 F03087E5 		str	r3, [r7, #240]	@ float
 1004 005c 0130A0E3 		mov	r3, #1
 1005 0060 F830C7E5 		strb	r3, [r7, #248]
 1006 0064 B030D7E1 		ldrh	r3, [r7, #0]
 1007 0068 C630C3E3 		bic	r3, r3, #198
 1008 006c B030C7E1 		strh	r3, [r7, #0]	@ movhi
 1009 0070 453FA0E3 		mov	r3, #276
 1010 0074 B32097E1 		ldrh	r2, [r7, r3]
 1011 0078 C620C2E3 		bic	r2, r2, #198
 1012 007c B32087E1 		strh	r2, [r7, r3]	@ movhi
 1013 0080 7031D7E5 		ldrb	r3, [r7, #368]	@ zero_extendqisi2
 1014 0084 F440C7E5 		strb	r4, [r7, #244]
 1015 0088 50409FE5 		ldr	r4, .L93+20
 1016 008c 0A30C3E3 		bic	r3, r3, #10
 1017 0090 002094E5 		ldr	r2, [r4, #0]	@ float
 1018 0094 7031C7E5 		strb	r3, [r7, #368]
 1019 0098 44309FE5 		ldr	r3, .L93+24
 1020 009c EC0087E5 		str	r0, [r7, #236]	@ float
 1021 00a0 002083E5 		str	r2, [r3, #0]	@ float
 1022 00a4 280095E5 		ldr	r0, [r5, #40]
 1023 00a8 FEFFFFEB 		bl	__aeabi_i2d
 1024 00ac 0020A0E3 		mov	r2, #0
 1025 00b0 30309FE5 		ldr	r3, .L93+28
 1026 00b4 FEFFFFEB 		bl	__aeabi_ddiv
 1027 00b8 FEFFFFEB 		bl	__aeabi_d2f
 1028 00bc 000084E5 		str	r0, [r4, #0]	@ float
 1029 00c0 0000A0E3 		mov	r0, #0
 1030 00c4 F840BDE8 		ldmfd	sp!, {r3, r4, r5, r6, r7, lr}
 1031 00c8 1EFF2FE1 		bx	lr
 1032              	.L94:
 1033              		.align	2
 1034              	.L93:
 1035 00cc 00000000 		.word	gps
 1036 00d0 00000000 		.word	.LANCHOR8
 1037 00d4 00000000 		.word	.LANCHOR9
 1038 00d8 00000000 		.word	.LANCHOR10
 1039 00dc 00000000 		.word	state
 1040 00e0 00000000 		.word	ground_alt
 1041 00e4 00000000 		.word	.LANCHOR11
 1042 00e8 00408F40 		.word	1083129856
 1044              		.section	.text.nav_update_waypoints_alt,"ax",%progbits
 1045              		.align	2
 1046              		.global	nav_update_waypoints_alt
 1048              	nav_update_waypoints_alt:
 1049              		@ Function supports interworking.
 1050              		@ args = 0, pretend = 0, frame = 0
 1051              		@ frame_needed = 0, uses_anonymous_args = 0
 1052 0000 44309FE5 		ldr	r3, .L98
 1053 0004 000093E5 		ldr	r0, [r3, #0]	@ float
 1054 0008 40309FE5 		ldr	r3, .L98+4
 1055 000c 70402DE9 		stmfd	sp!, {r4, r5, r6, lr}
 1056 0010 001093E5 		ldr	r1, [r3, #0]	@ float
 1057 0014 FEFFFFEB 		bl	__aeabi_fsub
 1058 0018 34409FE5 		ldr	r4, .L98+8
 1059 001c 0060A0E1 		mov	r6, r0
 1060 0020 905084E2 		add	r5, r4, #144
 1061              	.L96:
 1062 0024 080094E5 		ldr	r0, [r4, #8]	@ float
 1063 0028 0610A0E1 		mov	r1, r6
 1064 002c FEFFFFEB 		bl	__aeabi_fadd
 1065 0030 080084E5 		str	r0, [r4, #8]	@ float
 1066 0034 0C4084E2 		add	r4, r4, #12
 1067 0038 050054E1 		cmp	r4, r5
 1068 003c F8FFFF1A 		bne	.L96
 1069 0040 0000A0E3 		mov	r0, #0
 1070 0044 7040BDE8 		ldmfd	sp!, {r4, r5, r6, lr}
 1071 0048 1EFF2FE1 		bx	lr
 1072              	.L99:
 1073              		.align	2
 1074              	.L98:
 1075 004c 00000000 		.word	ground_alt
 1076 0050 00000000 		.word	.LANCHOR11
 1077 0054 00000000 		.word	.LANCHOR7
 1079              		.section	.text.common_nav_periodic_task_4Hz,"ax",%progbits
 1080              		.align	2
 1081              		.global	common_nav_periodic_task_4Hz
 1083              	common_nav_periodic_task_4Hz:
 1084              		@ Function supports interworking.
 1085              		@ args = 0, pretend = 0, frame = 0
 1086              		@ frame_needed = 0, uses_anonymous_args = 0
 1087              		@ link register save eliminated.
 1088 0000 44309FE5 		ldr	r3, .L102
 1089 0004 B020D3E1 		ldrh	r2, [r3, #0]
 1090 0008 012082E2 		add	r2, r2, #1
 1091 000c 0228A0E1 		mov	r2, r2, asl #16
 1092 0010 2228A0E1 		mov	r2, r2, lsr #16
 1093 0014 030052E3 		cmp	r2, #3
 1094 0018 B020C3E1 		strh	r2, [r3, #0]	@ movhi
 1095 001c 1EFF2F91 		bxls	lr
 1096 0020 0020A0E3 		mov	r2, #0
 1097 0024 B020C3E1 		strh	r2, [r3, #0]	@ movhi
 1098 0028 20309FE5 		ldr	r3, .L102+4
 1099 002c B020D3E1 		ldrh	r2, [r3, #0]
 1100 0030 012082E2 		add	r2, r2, #1
 1101 0034 B020C3E1 		strh	r2, [r3, #0]	@ movhi
 1102 0038 14309FE5 		ldr	r3, .L102+8
 1103 003c B020D3E1 		ldrh	r2, [r3, #0]
 1104 0040 012082E2 		add	r2, r2, #1
 1105 0044 B020C3E1 		strh	r2, [r3, #0]	@ movhi
 1106 0048 1EFF2FE1 		bx	lr
 1107              	.L103:
 1108              		.align	2
 1109              	.L102:
 1110 004c 00000000 		.word	.LANCHOR12
 1111 0050 00000000 		.word	stage_time
 1112 0054 00000000 		.word	block_time
 1114              		.section	.text.nav_move_waypoint,"ax",%progbits
 1115              		.align	2
 1116              		.global	nav_move_waypoint
 1118              	nav_move_waypoint:
 1119              		@ Function supports interworking.
 1120              		@ args = 0, pretend = 0, frame = 0
 1121              		@ frame_needed = 0, uses_anonymous_args = 0
 1122 0000 0B0050E3 		cmp	r0, #11
 1123 0004 F0472DE9 		stmfd	sp!, {r4, r5, r6, r7, r8, r9, sl, lr}
 1124 0008 0040A0E1 		mov	r4, r0
 1125 000c 0160A0E1 		mov	r6, r1
 1126 0010 0250A0E1 		mov	r5, r2
 1127 0014 0380A0E1 		mov	r8, r3
 1128 0018 3900008A 		bhi	.L104
 1129 001c E8309FE5 		ldr	r3, .L110
 1130 0020 000093E5 		ldr	r0, [r3, #0]
 1131 0024 FEFFFFEB 		bl	__aeabi_i2f
 1132 0028 E0A09FE5 		ldr	sl, .L110+4
 1133 002c 0C709AE5 		ldr	r7, [sl, #12]	@ float
 1134 0030 0010A0E1 		mov	r1, r0
 1135 0034 0600A0E1 		mov	r0, r6
 1136 0038 FEFFFFEB 		bl	__aeabi_fsub
 1137 003c 0710A0E1 		mov	r1, r7
 1138 0040 FEFFFFEB 		bl	__aeabi_fsub
 1139 0044 C8309FE5 		ldr	r3, .L110+8
 1140 0048 0090A0E1 		mov	r9, r0
 1141 004c 000093E5 		ldr	r0, [r3, #0]
 1142 0050 FEFFFFEB 		bl	__aeabi_i2f
 1143 0054 0010A0E1 		mov	r1, r0
 1144 0058 0500A0E1 		mov	r0, r5
 1145 005c FEFFFFEB 		bl	__aeabi_fsub
 1146 0060 10109AE5 		ldr	r1, [sl, #16]	@ float
 1147 0064 FEFFFFEB 		bl	__aeabi_fsub
 1148 0068 A8309FE5 		ldr	r3, .L110+12
 1149 006c 005093E5 		ldr	r5, [r3, #0]	@ float
 1150 0070 00A0A0E1 		mov	sl, r0
 1151 0074 0510A0E1 		mov	r1, r5
 1152 0078 0900A0E1 		mov	r0, r9
 1153 007c FEFFFFEB 		bl	__aeabi_fcmpgt
 1154 0080 000050E3 		cmp	r0, #0
 1155 0084 0560A011 		movne	r6, r5
 1156 0088 0500001A 		bne	.L106
 1157 008c 026185E2 		add	r6, r5, #-2147483648
 1158 0090 0610A0E1 		mov	r1, r6
 1159 0094 0900A0E1 		mov	r0, r9
 1160 0098 FEFFFFEB 		bl	__aeabi_fcmplt
 1161 009c 000050E3 		cmp	r0, #0
 1162 00a0 0960A001 		moveq	r6, r9
 1163              	.L106:
 1164 00a4 0A00A0E1 		mov	r0, sl
 1165 00a8 0510A0E1 		mov	r1, r5
 1166 00ac FEFFFFEB 		bl	__aeabi_fcmpgt
 1167 00b0 000050E3 		cmp	r0, #0
 1168 00b4 0500001A 		bne	.L107
 1169 00b8 025185E2 		add	r5, r5, #-2147483648
 1170 00bc 0510A0E1 		mov	r1, r5
 1171 00c0 0A00A0E1 		mov	r0, sl
 1172 00c4 FEFFFFEB 		bl	__aeabi_fcmplt
 1173 00c8 000050E3 		cmp	r0, #0
 1174 00cc 0A50A001 		moveq	r5, sl
 1175              	.L107:
 1176 00d0 0C30A0E3 		mov	r3, #12
 1177 00d4 0610A0E1 		mov	r1, r6
 1178 00d8 0700A0E1 		mov	r0, r7
 1179 00dc 930404E0 		mul	r4, r3, r4
 1180 00e0 FEFFFFEB 		bl	__aeabi_fadd
 1181 00e4 24A09FE5 		ldr	sl, .L110+4
 1182 00e8 0510A0E1 		mov	r1, r5
 1183 00ec 04008AE7 		str	r0, [sl, r4]	@ float
 1184 00f0 10009AE5 		ldr	r0, [sl, #16]	@ float
 1185 00f4 FEFFFFEB 		bl	__aeabi_fadd
 1186 00f8 04908AE0 		add	r9, sl, r4
 1187 00fc 040089E5 		str	r0, [r9, #4]	@ float
 1188 0100 088089E5 		str	r8, [r9, #8]	@ float
 1189              	.L104:
 1190 0104 F047BDE8 		ldmfd	sp!, {r4, r5, r6, r7, r8, r9, sl, lr}
 1191 0108 1EFF2FE1 		bx	lr
 1192              	.L111:
 1193              		.align	2
 1194              	.L110:
 1195 010c 00000000 		.word	.LANCHOR9
 1196 0110 00000000 		.word	.LANCHOR7
 1197 0114 00000000 		.word	.LANCHOR10
 1198 0118 00000000 		.word	.LANCHOR13
 1200              		.section	.text.nav_home,"ax",%progbits
 1201              		.align	2
 1202              		.global	nav_home
 1204              	nav_home:
 1205              		@ Function supports interworking.
 1206              		@ args = 0, pretend = 0, frame = 0
 1207              		@ frame_needed = 0, uses_anonymous_args = 0
 1208 0000 08402DE9 		stmfd	sp!, {r3, lr}
 1209 0004 58309FE5 		ldr	r3, .L113
 1210 0008 58209FE5 		ldr	r2, .L113+4
 1211 000c 0C0093E5 		ldr	r0, [r3, #12]	@ float
 1212 0010 101093E5 		ldr	r1, [r3, #16]	@ float
 1213 0014 FEFFFFEB 		bl	nav_circle_XY
 1214 0018 4C309FE5 		ldr	r3, .L113+8
 1215 001c 0020A0E3 		mov	r2, #0
 1216 0020 002083E5 		str	r2, [r3, #0]	@ float
 1217 0024 44309FE5 		ldr	r3, .L113+12
 1218 0028 0320A0E3 		mov	r2, #3
 1219 002c 0020C3E5 		strb	r2, [r3, #0]
 1220 0030 3C309FE5 		ldr	r3, .L113+16
 1221 0034 3C109FE5 		ldr	r1, .L113+20
 1222 0038 000093E5 		ldr	r0, [r3, #0]	@ float
 1223 003c FEFFFFEB 		bl	__aeabi_fadd
 1224 0040 34309FE5 		ldr	r3, .L113+24
 1225 0044 000083E5 		str	r0, [r3, #0]	@ float
 1226 0048 FEFFFFEB 		bl	compute_dist2_to_home
 1227 004c 2C309FE5 		ldr	r3, .L113+28
 1228 0050 002093E5 		ldr	r2, [r3, #0]	@ float
 1229 0054 28309FE5 		ldr	r3, .L113+32
 1230 0058 002083E5 		str	r2, [r3, #0]	@ float
 1231 005c 0840BDE8 		ldmfd	sp!, {r3, lr}
 1232 0060 FEFFFFEA 		b	nav_set_altitude
 1233              	.L114:
 1234              		.align	2
 1235              	.L113:
 1236 0064 00000000 		.word	.LANCHOR7
 1237 0068 0000A042 		.word	1117782016
 1238 006c 00000000 		.word	nav_pitch
 1239 0070 00000000 		.word	v_ctl_mode
 1240 0074 00000000 		.word	ground_alt
 1241 0078 0000C841 		.word	1103626240
 1242 007c 00000000 		.word	.LANCHOR0
 1243 0080 00000000 		.word	dist2_to_home
 1244 0084 00000000 		.word	dist2_to_wp
 1246              		.section	.text.nav_init,"ax",%progbits
 1247              		.align	2
 1248              		.global	nav_init
 1250              	nav_init:
 1251              		@ Function supports interworking.
 1252              		@ args = 0, pretend = 0, frame = 0
 1253              		@ frame_needed = 0, uses_anonymous_args = 0
 1254              		@ link register save eliminated.
 1255 0000 48209FE5 		ldr	r2, .L116
 1256 0004 0030A0E3 		mov	r3, #0
 1257 0008 0030C2E5 		strb	r3, [r2, #0]
 1258 000c 40209FE5 		ldr	r2, .L116+4
 1259 0010 0030C2E5 		strb	r3, [r2, #0]
 1260 0014 3C209FE5 		ldr	r2, .L116+8
 1261 0018 0030A0E3 		mov	r3, #0
 1262 001c 003082E5 		str	r3, [r2, #0]	@ float
 1263 0020 34209FE5 		ldr	r2, .L116+12
 1264 0024 003082E5 		str	r3, [r2, #0]	@ float
 1265 0028 30209FE5 		ldr	r2, .L116+16
 1266 002c 30309FE5 		ldr	r3, .L116+20
 1267 0030 002083E5 		str	r2, [r3, #0]	@ float
 1268 0034 2C209FE5 		ldr	r2, .L116+24
 1269 0038 2C309FE5 		ldr	r3, .L116+28
 1270 003c 002083E5 		str	r2, [r3, #0]	@ float
 1271 0040 28309FE5 		ldr	r3, .L116+32
 1272 0044 0220A0E3 		mov	r2, #2
 1273 0048 002083E5 		str	r2, [r3, #0]
 1274 004c 1EFF2FE1 		bx	lr
 1275              	.L117:
 1276              		.align	2
 1277              	.L116:
 1278 0050 00000000 		.word	nav_block
 1279 0054 00000000 		.word	nav_stage
 1280 0058 00000000 		.word	ground_alt
 1281 005c 00000000 		.word	nav_glide_pitch_trim
 1282 0060 0000A042 		.word	1117782016
 1283 0064 00000000 		.word	nav_radius
 1284 0068 00002043 		.word	1126170624
 1285 006c 00000000 		.word	nav_survey_shift
 1286 0070 00000000 		.word	nav_mode
 1288              		.section	.text.nav_without_gps,"ax",%progbits
 1289              		.align	2
 1290              		.global	nav_without_gps
 1292              	nav_without_gps:
 1293              		@ Function supports interworking.
 1294              		@ args = 0, pretend = 0, frame = 0
 1295              		@ frame_needed = 0, uses_anonymous_args = 0
 1296              		@ link register save eliminated.
 1297 0000 38309FE5 		ldr	r3, .L119
 1298 0004 0220A0E3 		mov	r2, #2
 1299 0008 0020C3E5 		strb	r2, [r3, #0]
 1300 000c 30309FE5 		ldr	r3, .L119+4
 1301 0010 0120A0E3 		mov	r2, #1
 1302 0014 0020C3E5 		strb	r2, [r3, #0]
 1303 0018 28209FE5 		ldr	r2, .L119+8
 1304 001c 28309FE5 		ldr	r3, .L119+12
 1305 0020 002083E5 		str	r2, [r3, #0]	@ float
 1306 0024 24309FE5 		ldr	r3, .L119+16
 1307 0028 3F24A0E3 		mov	r2, #1056964608
 1308 002c 002083E5 		str	r2, [r3, #0]	@ float
 1309 0030 1C309FE5 		ldr	r3, .L119+20
 1310 0034 2D2DA0E3 		mov	r2, #2880
 1311 0038 B020C3E1 		strh	r2, [r3, #0]	@ movhi
 1312 003c 1EFF2FE1 		bx	lr
 1313              	.L120:
 1314              		.align	2
 1315              	.L119:
 1316 0040 00000000 		.word	lateral_mode
 1317 0044 00000000 		.word	v_ctl_mode
 1318 0048 9A99993E 		.word	1050253722
 1319 004c 00000000 		.word	h_ctl_roll_setpoint
 1320 0050 00000000 		.word	nav_pitch
 1321 0054 00000000 		.word	nav_throttle_setpoint
 1323              		.section	.text.nav_eight_init,"ax",%progbits
 1324              		.align	2
 1325              		.global	nav_eight_init
 1327              	nav_eight_init:
 1328              		@ Function supports interworking.
 1329              		@ args = 0, pretend = 0, frame = 0
 1330              		@ frame_needed = 0, uses_anonymous_args = 0
 1331              		@ link register save eliminated.
 1332 0000 08309FE5 		ldr	r3, .L122
 1333 0004 0520A0E3 		mov	r2, #5
 1334 0008 0020C3E5 		strb	r2, [r3, #0]
 1335 000c 1EFF2FE1 		bx	lr
 1336              	.L123:
 1337              		.align	2
 1338              	.L122:
 1339 0010 00000000 		.word	.LANCHOR14
 1341              		.global	__aeabi_fcmpge
 1342              		.section	.text.nav_eight,"ax",%progbits
 1343              		.align	2
 1344              		.global	nav_eight
 1346              	nav_eight:
 1347              		@ Function supports interworking.
 1348              		@ args = 0, pretend = 0, frame = 40
 1349              		@ frame_needed = 0, uses_anonymous_args = 0
 1350 0000 F04F2DE9 		stmfd	sp!, {r4, r5, r6, r7, r8, r9, sl, fp, lr}
 1351 0004 34D04DE2 		sub	sp, sp, #52
 1352 0008 10108DE5 		str	r1, [sp, #16]
 1353 000c 0271C2E3 		bic	r7, r2, #-2147483648
 1354 0010 0C10A0E3 		mov	r1, #12
 1355 0014 0240A0E1 		mov	r4, r2
 1356 0018 0020A0E1 		mov	r2, r0
 1357 001c 910202E0 		mul	r2, r1, r2
 1358 0020 10C09DE5 		ldr	ip, [sp, #16]
 1359 0024 9C0101E0 		mul	r1, ip, r1
 1360 0028 70379FE5 		ldr	r3, .L190
 1361 002c 025083E0 		add	r5, r3, r2
 1362 0030 0C008DE5 		str	r0, [sp, #12]
 1363 0034 080095E5 		ldr	r0, [r5, #8]	@ float
 1364 0038 016083E0 		add	r6, r3, r1
 1365 003c 080086E5 		str	r0, [r6, #8]	@ float
 1366 0040 010093E7 		ldr	r0, [r3, r1]	@ float
 1367 0044 021093E7 		ldr	r1, [r3, r2]	@ float
 1368 0048 FEFFFFEB 		bl	__aeabi_fsub
 1369 004c 041095E5 		ldr	r1, [r5, #4]	@ float
 1370 0050 0080A0E1 		mov	r8, r0
 1371 0054 040096E5 		ldr	r0, [r6, #4]	@ float
 1372 0058 FEFFFFEB 		bl	__aeabi_fsub
 1373 005c 0810A0E1 		mov	r1, r8
 1374 0060 0060A0E1 		mov	r6, r0
 1375 0064 0800A0E1 		mov	r0, r8
 1376 0068 FEFFFFEB 		bl	__aeabi_fmul
 1377 006c 0610A0E1 		mov	r1, r6
 1378 0070 0050A0E1 		mov	r5, r0
 1379 0074 0600A0E1 		mov	r0, r6
 1380 0078 FEFFFFEB 		bl	__aeabi_fmul
 1381 007c 0010A0E1 		mov	r1, r0
 1382 0080 0500A0E1 		mov	r0, r5
 1383 0084 FEFFFFEB 		bl	__aeabi_fadd
 1384 0088 FEFFFFEB 		bl	__aeabi_f2d
 1385 008c FEFFFFEB 		bl	sqrt
 1386 0090 FEFFFFEB 		bl	__aeabi_d2f
 1387 0094 FE15A0E3 		mov	r1, #1065353216
 1388 0098 0050A0E1 		mov	r5, r0
 1389 009c FEFFFFEB 		bl	__aeabi_fcmpgt
 1390 00a0 000050E3 		cmp	r0, #0
 1391 00a4 FE55A003 		moveq	r5, #1065353216
 1392 00a8 0510A0E1 		mov	r1, r5
 1393 00ac 0800A0E1 		mov	r0, r8
 1394 00b0 FEFFFFEB 		bl	__aeabi_fdiv
 1395 00b4 0510A0E1 		mov	r1, r5
 1396 00b8 00A0A0E1 		mov	sl, r0
 1397 00bc 0600A0E1 		mov	r0, r6
 1398 00c0 FEFFFFEB 		bl	__aeabi_fdiv
 1399 00c4 0710A0E1 		mov	r1, r7
 1400 00c8 00B0A0E1 		mov	fp, r0
 1401 00cc 0700A0E1 		mov	r0, r7
 1402 00d0 FEFFFFEB 		bl	__aeabi_fadd
 1403 00d4 0060A0E1 		mov	r6, r0
 1404 00d8 0610A0E1 		mov	r1, r6
 1405 00dc 0500A0E1 		mov	r0, r5
 1406 00e0 FEFFFFEB 		bl	__aeabi_fcmpgt
 1407 00e4 000050E3 		cmp	r0, #0
 1408 00e8 1800000A 		beq	.L126
 1409 00ec 10709DE5 		ldr	r7, [sp, #16]
 1410 00f0 0C80A0E3 		mov	r8, #12
 1411 00f4 980707E0 		mul	r7, r8, r7
 1412 00f8 A0569FE5 		ldr	r5, .L190
 1413 00fc 0CC09DE5 		ldr	ip, [sp, #12]
 1414 0100 073085E0 		add	r3, r5, r7
 1415 0104 0A10A0E1 		mov	r1, sl
 1416 0108 0600A0E1 		mov	r0, r6
 1417 010c 9C0808E0 		mul	r8, ip, r8
 1418 0110 08308DE5 		str	r3, [sp, #8]
 1419 0114 FEFFFFEB 		bl	__aeabi_fmul
 1420 0118 0010A0E1 		mov	r1, r0
 1421 011c 080095E7 		ldr	r0, [r5, r8]	@ float
 1422 0120 FEFFFFEB 		bl	__aeabi_fadd
 1423 0124 0B10A0E1 		mov	r1, fp
 1424 0128 070085E7 		str	r0, [r5, r7]	@ float
 1425 012c 0600A0E1 		mov	r0, r6
 1426 0130 FEFFFFEB 		bl	__aeabi_fmul
 1427 0134 089085E0 		add	r9, r5, r8
 1428 0138 0010A0E1 		mov	r1, r0
 1429 013c 040099E5 		ldr	r0, [r9, #4]	@ float
 1430 0140 FEFFFFEB 		bl	__aeabi_fadd
 1431 0144 08309DE5 		ldr	r3, [sp, #8]
 1432 0148 040083E5 		str	r0, [r3, #4]	@ float
 1433 014c 0650A0E1 		mov	r5, r6
 1434              	.L126:
 1435 0150 0A10A0E1 		mov	r1, sl
 1436 0154 0500A0E1 		mov	r0, r5
 1437 0158 FEFFFFEB 		bl	__aeabi_fmul
 1438 015c 0C809DE5 		ldr	r8, [sp, #12]
 1439 0160 0C70A0E3 		mov	r7, #12
 1440 0164 970808E0 		mul	r8, r7, r8
 1441 0168 30669FE5 		ldr	r6, .L190
 1442 016c 0010A0E1 		mov	r1, r0
 1443 0170 080096E7 		ldr	r0, [r6, r8]	@ float
 1444 0174 FEFFFFEB 		bl	__aeabi_fsub
 1445 0178 0B10A0E1 		mov	r1, fp
 1446 017c 14008DE5 		str	r0, [sp, #20]	@ float
 1447 0180 0500A0E1 		mov	r0, r5
 1448 0184 FEFFFFEB 		bl	__aeabi_fmul
 1449 0188 089086E0 		add	r9, r6, r8
 1450 018c 0010A0E1 		mov	r1, r0
 1451 0190 040099E5 		ldr	r0, [r9, #4]	@ float
 1452 0194 FEFFFFEB 		bl	__aeabi_fsub
 1453 0198 10C09DE5 		ldr	ip, [sp, #16]
 1454 019c 18008DE5 		str	r0, [sp, #24]	@ float
 1455 01a0 02118BE2 		add	r1, fp, #-2147483648
 1456 01a4 0400A0E1 		mov	r0, r4
 1457 01a8 9C0707E0 		mul	r7, ip, r7
 1458 01ac FEFFFFEB 		bl	__aeabi_fmul
 1459 01b0 075096E7 		ldr	r5, [r6, r7]	@ float
 1460 01b4 0090A0E1 		mov	r9, r0
 1461 01b8 0910A0E1 		mov	r1, r9
 1462 01bc 0500A0E1 		mov	r0, r5
 1463 01c0 FEFFFFEB 		bl	__aeabi_fadd
 1464 01c4 0A10A0E1 		mov	r1, sl
 1465 01c8 1C008DE5 		str	r0, [sp, #28]	@ float
 1466 01cc 0400A0E1 		mov	r0, r4
 1467 01d0 FEFFFFEB 		bl	__aeabi_fmul
 1468 01d4 078086E0 		add	r8, r6, r7
 1469 01d8 046098E5 		ldr	r6, [r8, #4]	@ float
 1470 01dc 0080A0E1 		mov	r8, r0
 1471 01e0 0810A0E1 		mov	r1, r8
 1472 01e4 0600A0E1 		mov	r0, r6
 1473 01e8 FEFFFFEB 		bl	__aeabi_fadd
 1474 01ec 0B10A0E1 		mov	r1, fp
 1475 01f0 20008DE5 		str	r0, [sp, #32]	@ float
 1476 01f4 0400A0E1 		mov	r0, r4
 1477 01f8 FEFFFFEB 		bl	__aeabi_fmul
 1478 01fc 0070A0E1 		mov	r7, r0
 1479 0200 0710A0E1 		mov	r1, r7
 1480 0204 0500A0E1 		mov	r0, r5
 1481 0208 FEFFFFEB 		bl	__aeabi_fadd
 1482 020c 0810A0E1 		mov	r1, r8
 1483 0210 0050A0E1 		mov	r5, r0
 1484 0214 0600A0E1 		mov	r0, r6
 1485 0218 FEFFFFEB 		bl	__aeabi_fsub
 1486 021c 0910A0E1 		mov	r1, r9
 1487 0220 0060A0E1 		mov	r6, r0
 1488 0224 14009DE5 		ldr	r0, [sp, #20]	@ float
 1489 0228 FEFFFFEB 		bl	__aeabi_fadd
 1490 022c 0810A0E1 		mov	r1, r8
 1491 0230 0090A0E1 		mov	r9, r0
 1492 0234 18009DE5 		ldr	r0, [sp, #24]	@ float
 1493 0238 FEFFFFEB 		bl	__aeabi_fadd
 1494 023c 0710A0E1 		mov	r1, r7
 1495 0240 24008DE5 		str	r0, [sp, #36]	@ float
 1496 0244 14009DE5 		ldr	r0, [sp, #20]	@ float
 1497 0248 FEFFFFEB 		bl	__aeabi_fadd
 1498 024c 0810A0E1 		mov	r1, r8
 1499 0250 0070A0E1 		mov	r7, r0
 1500 0254 18009DE5 		ldr	r0, [sp, #24]	@ float
 1501 0258 FEFFFFEB 		bl	__aeabi_fsub
 1502 025c 0080A0E1 		mov	r8, r0
 1503 0260 0B00A0E1 		mov	r0, fp
 1504 0264 FEFFFFEB 		bl	__aeabi_f2d
 1505 0268 28008DE5 		str	r0, [sp, #40]
 1506 026c 2C108DE5 		str	r1, [sp, #44]
 1507 0270 0A00A0E1 		mov	r0, sl
 1508 0274 FEFFFFEB 		bl	__aeabi_f2d
 1509 0278 0020A0E1 		mov	r2, r0
 1510 027c 0130A0E1 		mov	r3, r1
 1511 0280 28108DE2 		add	r1, sp, #40
 1512 0284 030091E8 		ldmia	r1, {r0-r1}
 1513 0288 FEFFFFEB 		bl	atan2
 1514 028c 0020A0E1 		mov	r2, r0
 1515 0290 0130A0E1 		mov	r3, r1
 1516 0294 08059FE5 		ldr	r0, .L190+4
 1517 0298 08159FE5 		ldr	r1, .L190+8
 1518 029c FEFFFFEB 		bl	__aeabi_dsub
 1519 02a0 FEFFFFEB 		bl	__aeabi_d2f
 1520 02a4 0010A0E3 		mov	r1, #0
 1521 02a8 00A0A0E1 		mov	sl, r0
 1522 02ac 0400A0E1 		mov	r0, r4
 1523 02b0 FEFFFFEB 		bl	__aeabi_fcmplt
 1524 02b4 000050E3 		cmp	r0, #0
 1525 02b8 0600000A 		beq	.L128
 1526 02bc 0A00A0E1 		mov	r0, sl
 1527 02c0 FEFFFFEB 		bl	__aeabi_f2d
 1528 02c4 D8249FE5 		ldr	r2, .L190+4
 1529 02c8 D8349FE5 		ldr	r3, .L190+8
 1530 02cc FEFFFFEB 		bl	__aeabi_dadd
 1531 02d0 FEFFFFEB 		bl	__aeabi_d2f
 1532 02d4 00A0A0E1 		mov	sl, r0
 1533              	.L128:
 1534 02d8 CC349FE5 		ldr	r3, .L190+12
 1535 02dc 0030D3E5 		ldrb	r3, [r3, #0]	@ zero_extendqisi2
 1536 02e0 050053E3 		cmp	r3, #5
 1537 02e4 03F19F97 		ldrls	pc, [pc, r3, asl #2]
 1538 02e8 290100EA 		b	.L124
 1539              	.L137:
 1540 02ec B8040000 		.word	.L131
 1541 02f0 0C050000 		.word	.L132
 1542 02f4 4C050000 		.word	.L133
 1543 02f8 EC060000 		.word	.L134
 1544 02fc 44070000 		.word	.L135
 1545 0300 04030000 		.word	.L136
 1546              	.L136:
 1547 0304 10C09DE5 		ldr	ip, [sp, #16]
 1548 0308 0C20A0E3 		mov	r2, #12
 1549 030c 9C0202E0 		mul	r2, ip, r2
 1550 0310 88149FE5 		ldr	r1, .L190
 1551 0314 023081E0 		add	r3, r1, r2
 1552 0318 020091E7 		ldr	r0, [r1, r2]	@ float
 1553 031c 0420A0E1 		mov	r2, r4
 1554 0320 041093E5 		ldr	r1, [r3, #4]	@ float
 1555 0324 FEFFFFEB 		bl	nav_circle_XY
 1556 0328 0A00A0E1 		mov	r0, sl
 1557 032c FEFFFFEB 		bl	__aeabi_f2d
 1558 0330 78249FE5 		ldr	r2, .L190+16
 1559 0334 78349FE5 		ldr	r3, .L190+20
 1560 0338 FEFFFFEB 		bl	__aeabi_dmul
 1561 033c 0020A0E3 		mov	r2, #0
 1562 0340 70349FE5 		ldr	r3, .L190+24
 1563 0344 FEFFFFEB 		bl	__aeabi_dsub
 1564 0348 6C349FE5 		ldr	r3, .L190+28
 1565 034c 0040A0E1 		mov	r4, r0
 1566 0350 000093E5 		ldr	r0, [r3, #0]	@ float
 1567 0354 0150A0E1 		mov	r5, r1
 1568 0358 FEFFFFEB 		bl	__aeabi_f2d
 1569 035c 0020A0E1 		mov	r2, r0
 1570 0360 0130A0E1 		mov	r3, r1
 1571 0364 38049FE5 		ldr	r0, .L190+4
 1572 0368 50149FE5 		ldr	r1, .L190+32
 1573 036c FEFFFFEB 		bl	__aeabi_dsub
 1574 0370 38249FE5 		ldr	r2, .L190+16
 1575 0374 38349FE5 		ldr	r3, .L190+20
 1576 0378 FEFFFFEB 		bl	__aeabi_dmul
 1577 037c FEFFFFEB 		bl	__aeabi_d2f
 1578 0380 0070A0E3 		mov	r7, #0
 1579 0384 0060A0E1 		mov	r6, r0
 1580 0388 030000EA 		b	.L138
 1581              	.L141:
 1582 038c 0600A0E1 		mov	r0, r6
 1583 0390 2C149FE5 		ldr	r1, .L190+36
 1584 0394 FEFFFFEB 		bl	__aeabi_fadd
 1585 0398 0060A0E1 		mov	r6, r0
 1586              	.L138:
 1587 039c 0600A0E1 		mov	r0, r6
 1588 03a0 0010A0E3 		mov	r1, #0
 1589 03a4 FEFFFFEB 		bl	__aeabi_fcmplt
 1590 03a8 000050E3 		cmp	r0, #0
 1591 03ac FF8007E2 		and	r8, r7, #255
 1592 03b0 0700000A 		beq	.L180
 1593 03b4 017087E2 		add	r7, r7, #1
 1594 03b8 010C57E3 		cmp	r7, #256
 1595 03bc F2FFFF1A 		bne	.L141
 1596 03c0 0080A0E3 		mov	r8, #0
 1597 03c4 020000EA 		b	.L180
 1598              	.L145:
 1599 03c8 F4139FE5 		ldr	r1, .L190+36
 1600 03cc FEFFFFEB 		bl	__aeabi_fsub
 1601 03d0 0060A0E1 		mov	r6, r0
 1602              	.L180:
 1603 03d4 0600A0E1 		mov	r0, r6
 1604 03d8 E4139FE5 		ldr	r1, .L190+36
 1605 03dc FEFFFFEB 		bl	__aeabi_fcmpge
 1606 03e0 000050E3 		cmp	r0, #0
 1607 03e4 0600A0E1 		mov	r0, r6
 1608 03e8 0200000A 		beq	.L143
 1609 03ec 018088E2 		add	r8, r8, #1
 1610 03f0 FF8018E2 		ands	r8, r8, #255
 1611 03f4 F3FFFF1A 		bne	.L145
 1612              	.L143:
 1613 03f8 FEFFFFEB 		bl	__aeabi_f2d
 1614 03fc 0020A0E1 		mov	r2, r0
 1615 0400 0130A0E1 		mov	r3, r1
 1616 0404 0400A0E1 		mov	r0, r4
 1617 0408 0510A0E1 		mov	r1, r5
 1618 040c FEFFFFEB 		bl	__aeabi_dsub
 1619 0410 FEFFFFEB 		bl	__aeabi_d2f
 1620 0414 0050A0E3 		mov	r5, #0
 1621 0418 0040A0E1 		mov	r4, r0
 1622 041c 030000EA 		b	.L146
 1623              	.L149:
 1624 0420 0400A0E1 		mov	r0, r4
 1625 0424 98139FE5 		ldr	r1, .L190+36
 1626 0428 FEFFFFEB 		bl	__aeabi_fadd
 1627 042c 0040A0E1 		mov	r4, r0
 1628              	.L146:
 1629 0430 0400A0E1 		mov	r0, r4
 1630 0434 0010A0E3 		mov	r1, #0
 1631 0438 FEFFFFEB 		bl	__aeabi_fcmplt
 1632 043c 000050E3 		cmp	r0, #0
 1633 0440 FF6005E2 		and	r6, r5, #255
 1634 0444 0700000A 		beq	.L181
 1635 0448 015085E2 		add	r5, r5, #1
 1636 044c 010C55E3 		cmp	r5, #256
 1637 0450 F2FFFF1A 		bne	.L149
 1638 0454 0060A0E3 		mov	r6, #0
 1639 0458 020000EA 		b	.L181
 1640              	.L153:
 1641 045c 60139FE5 		ldr	r1, .L190+36
 1642 0460 FEFFFFEB 		bl	__aeabi_fsub
 1643 0464 0040A0E1 		mov	r4, r0
 1644              	.L181:
 1645 0468 0400A0E1 		mov	r0, r4
 1646 046c 50139FE5 		ldr	r1, .L190+36
 1647 0470 FEFFFFEB 		bl	__aeabi_fcmpge
 1648 0474 000050E3 		cmp	r0, #0
 1649 0478 0400A0E1 		mov	r0, r4
 1650 047c 0200000A 		beq	.L151
 1651 0480 016086E2 		add	r6, r6, #1
 1652 0484 FF6016E2 		ands	r6, r6, #255
 1653 0488 F3FFFF1A 		bne	.L153
 1654              	.L151:
 1655 048c 34139FE5 		ldr	r1, .L190+40
 1656 0490 FEFFFFEB 		bl	__aeabi_fcmpgt
 1657 0494 000050E3 		cmp	r0, #0
 1658 0498 0400001A 		bne	.L154
 1659 049c 0400A0E1 		mov	r0, r4
 1660 04a0 24139FE5 		ldr	r1, .L190+44
 1661 04a4 FEFFFFEB 		bl	__aeabi_fcmplt
 1662 04a8 000050E3 		cmp	r0, #0
 1663 04ac B800000A 		beq	.L124
 1664              	.L154:
 1665 04b0 0020A0E3 		mov	r2, #0
 1666 04b4 B10000EA 		b	.L188
 1667              	.L131:
 1668 04b8 0500A0E1 		mov	r0, r5
 1669 04bc 0610A0E1 		mov	r1, r6
 1670 04c0 0920A0E1 		mov	r2, r9
 1671 04c4 24309DE5 		ldr	r3, [sp, #36]	@ float
 1672 04c8 FEFFFFEB 		bl	nav_route_xy
 1673 04cc 0CC09DE5 		ldr	ip, [sp, #12]
 1674 04d0 0C20A0E3 		mov	r2, #12
 1675 04d4 9C0202E0 		mul	r2, ip, r2
 1676 04d8 C0129FE5 		ldr	r1, .L190
 1677 04dc 0000A0E3 		mov	r0, #0
 1678 04e0 00008DE5 		str	r0, [sp, #0]	@ float
 1679 04e4 023081E0 		add	r3, r1, r2
 1680 04e8 020091E7 		ldr	r0, [r1, r2]	@ float
 1681 04ec 041093E5 		ldr	r1, [r3, #4]	@ float
 1682 04f0 0520A0E1 		mov	r2, r5
 1683 04f4 0630A0E1 		mov	r3, r6
 1684 04f8 FEFFFFEB 		bl	nav_approaching_xy
 1685 04fc 000050E3 		cmp	r0, #0
 1686 0500 0120A013 		movne	r2, #1
 1687 0504 A200000A 		beq	.L124
 1688 0508 9C0000EA 		b	.L188
 1689              	.L132:
 1690 050c 0500A0E1 		mov	r0, r5
 1691 0510 0610A0E1 		mov	r1, r6
 1692 0514 0920A0E1 		mov	r2, r9
 1693 0518 24309DE5 		ldr	r3, [sp, #36]	@ float
 1694 051c FEFFFFEB 		bl	nav_route_xy
 1695 0520 A8329FE5 		ldr	r3, .L190+48
 1696 0524 0520A0E1 		mov	r2, r5
 1697 0528 00308DE5 		str	r3, [sp, #0]	@ float
 1698 052c 0900A0E1 		mov	r0, r9
 1699 0530 24109DE5 		ldr	r1, [sp, #36]	@ float
 1700 0534 0630A0E1 		mov	r3, r6
 1701 0538 FEFFFFEB 		bl	nav_approaching_xy
 1702 053c 000050E3 		cmp	r0, #0
 1703 0540 0220A013 		movne	r2, #2
 1704 0544 9200000A 		beq	.L124
 1705 0548 8C0000EA 		b	.L188
 1706              	.L133:
 1707 054c 022184E2 		add	r2, r4, #-2147483648
 1708 0550 14009DE5 		ldr	r0, [sp, #20]	@ float
 1709 0554 18109DE5 		ldr	r1, [sp, #24]	@ float
 1710 0558 FEFFFFEB 		bl	nav_circle_XY
 1711 055c 0A00A0E1 		mov	r0, sl
 1712 0560 FEFFFFEB 		bl	__aeabi_f2d
 1713 0564 44229FE5 		ldr	r2, .L190+16
 1714 0568 44329FE5 		ldr	r3, .L190+20
 1715 056c FEFFFFEB 		bl	__aeabi_dmul
 1716 0570 0020A0E3 		mov	r2, #0
 1717 0574 3C329FE5 		ldr	r3, .L190+24
 1718 0578 FEFFFFEB 		bl	__aeabi_dadd
 1719 057c 38329FE5 		ldr	r3, .L190+28
 1720 0580 0040A0E1 		mov	r4, r0
 1721 0584 000093E5 		ldr	r0, [r3, #0]	@ float
 1722 0588 0150A0E1 		mov	r5, r1
 1723 058c FEFFFFEB 		bl	__aeabi_f2d
 1724 0590 0020A0E1 		mov	r2, r0
 1725 0594 0130A0E1 		mov	r3, r1
 1726 0598 04029FE5 		ldr	r0, .L190+4
 1727 059c 1C129FE5 		ldr	r1, .L190+32
 1728 05a0 FEFFFFEB 		bl	__aeabi_dsub
 1729 05a4 04229FE5 		ldr	r2, .L190+16
 1730 05a8 04329FE5 		ldr	r3, .L190+20
 1731 05ac FEFFFFEB 		bl	__aeabi_dmul
 1732 05b0 FEFFFFEB 		bl	__aeabi_d2f
 1733 05b4 0070A0E3 		mov	r7, #0
 1734 05b8 0060A0E1 		mov	r6, r0
 1735 05bc 030000EA 		b	.L156
 1736              	.L159:
 1737 05c0 0600A0E1 		mov	r0, r6
 1738 05c4 F8119FE5 		ldr	r1, .L190+36
 1739 05c8 FEFFFFEB 		bl	__aeabi_fadd
 1740 05cc 0060A0E1 		mov	r6, r0
 1741              	.L156:
 1742 05d0 0600A0E1 		mov	r0, r6
 1743 05d4 0010A0E3 		mov	r1, #0
 1744 05d8 FEFFFFEB 		bl	__aeabi_fcmplt
 1745 05dc 000050E3 		cmp	r0, #0
 1746 05e0 FF8007E2 		and	r8, r7, #255
 1747 05e4 0700000A 		beq	.L182
 1748 05e8 017087E2 		add	r7, r7, #1
 1749 05ec 010C57E3 		cmp	r7, #256
 1750 05f0 F2FFFF1A 		bne	.L159
 1751 05f4 0080A0E3 		mov	r8, #0
 1752 05f8 020000EA 		b	.L182
 1753              	.L163:
 1754 05fc C0119FE5 		ldr	r1, .L190+36
 1755 0600 FEFFFFEB 		bl	__aeabi_fsub
 1756 0604 0060A0E1 		mov	r6, r0
 1757              	.L182:
 1758 0608 0600A0E1 		mov	r0, r6
 1759 060c B0119FE5 		ldr	r1, .L190+36
 1760 0610 FEFFFFEB 		bl	__aeabi_fcmpge
 1761 0614 000050E3 		cmp	r0, #0
 1762 0618 0600A0E1 		mov	r0, r6
 1763 061c 0200000A 		beq	.L161
 1764 0620 018088E2 		add	r8, r8, #1
 1765 0624 FF8018E2 		ands	r8, r8, #255
 1766 0628 F3FFFF1A 		bne	.L163
 1767              	.L161:
 1768 062c FEFFFFEB 		bl	__aeabi_f2d
 1769 0630 0020A0E1 		mov	r2, r0
 1770 0634 0130A0E1 		mov	r3, r1
 1771 0638 0400A0E1 		mov	r0, r4
 1772 063c 0510A0E1 		mov	r1, r5
 1773 0640 FEFFFFEB 		bl	__aeabi_dsub
 1774 0644 FEFFFFEB 		bl	__aeabi_d2f
 1775 0648 0050A0E3 		mov	r5, #0
 1776 064c 0040A0E1 		mov	r4, r0
 1777 0650 030000EA 		b	.L164
 1778              	.L167:
 1779 0654 0400A0E1 		mov	r0, r4
 1780 0658 64119FE5 		ldr	r1, .L190+36
 1781 065c FEFFFFEB 		bl	__aeabi_fadd
 1782 0660 0040A0E1 		mov	r4, r0
 1783              	.L164:
 1784 0664 0400A0E1 		mov	r0, r4
 1785 0668 0010A0E3 		mov	r1, #0
 1786 066c FEFFFFEB 		bl	__aeabi_fcmplt
 1787 0670 000050E3 		cmp	r0, #0
 1788 0674 FF6005E2 		and	r6, r5, #255
 1789 0678 0700000A 		beq	.L183
 1790 067c 015085E2 		add	r5, r5, #1
 1791 0680 010C55E3 		cmp	r5, #256
 1792 0684 F2FFFF1A 		bne	.L167
 1793 0688 0060A0E3 		mov	r6, #0
 1794 068c 020000EA 		b	.L183
 1795              	.L171:
 1796 0690 2C119FE5 		ldr	r1, .L190+36
 1797 0694 FEFFFFEB 		bl	__aeabi_fsub
 1798 0698 0040A0E1 		mov	r4, r0
 1799              	.L183:
 1800 069c 0400A0E1 		mov	r0, r4
 1801 06a0 1C119FE5 		ldr	r1, .L190+36
 1802 06a4 FEFFFFEB 		bl	__aeabi_fcmpge
 1803 06a8 000050E3 		cmp	r0, #0
 1804 06ac 0400A0E1 		mov	r0, r4
 1805 06b0 0200000A 		beq	.L169
 1806 06b4 016086E2 		add	r6, r6, #1
 1807 06b8 FF6016E2 		ands	r6, r6, #255
 1808 06bc F3FFFF1A 		bne	.L171
 1809              	.L169:
 1810 06c0 00119FE5 		ldr	r1, .L190+40
 1811 06c4 FEFFFFEB 		bl	__aeabi_fcmpgt
 1812 06c8 000050E3 		cmp	r0, #0
 1813 06cc 0400001A 		bne	.L172
 1814 06d0 0400A0E1 		mov	r0, r4
 1815 06d4 F0109FE5 		ldr	r1, .L190+44
 1816 06d8 FEFFFFEB 		bl	__aeabi_fcmplt
 1817 06dc 000050E3 		cmp	r0, #0
 1818 06e0 2B00000A 		beq	.L124
 1819              	.L172:
 1820 06e4 0320A0E3 		mov	r2, #3
 1821 06e8 240000EA 		b	.L188
 1822              	.L134:
 1823 06ec 0700A0E1 		mov	r0, r7
 1824 06f0 0810A0E1 		mov	r1, r8
 1825 06f4 1C209DE5 		ldr	r2, [sp, #28]	@ float
 1826 06f8 20309DE5 		ldr	r3, [sp, #32]	@ float
 1827 06fc FEFFFFEB 		bl	nav_route_xy
 1828 0700 0CC09DE5 		ldr	ip, [sp, #12]
 1829 0704 0C20A0E3 		mov	r2, #12
 1830 0708 9C0202E0 		mul	r2, ip, r2
 1831 070c 8C109FE5 		ldr	r1, .L190
 1832 0710 0000A0E3 		mov	r0, #0
 1833 0714 00008DE5 		str	r0, [sp, #0]	@ float
 1834 0718 023081E0 		add	r3, r1, r2
 1835 071c 020091E7 		ldr	r0, [r1, r2]	@ float
 1836 0720 041093E5 		ldr	r1, [r3, #4]	@ float
 1837 0724 0720A0E1 		mov	r2, r7
 1838 0728 0830A0E1 		mov	r3, r8
 1839 072c FEFFFFEB 		bl	nav_approaching_xy
 1840 0730 000050E3 		cmp	r0, #0
 1841 0734 70309F15 		ldrne	r3, .L190+12
 1842 0738 0420A013 		movne	r2, #4
 1843 073c 1400000A 		beq	.L124
 1844 0740 0F0000EA 		b	.L189
 1845              	.L135:
 1846 0744 0700A0E1 		mov	r0, r7
 1847 0748 0810A0E1 		mov	r1, r8
 1848 074c 1C209DE5 		ldr	r2, [sp, #28]	@ float
 1849 0750 20309DE5 		ldr	r3, [sp, #32]	@ float
 1850 0754 FEFFFFEB 		bl	nav_route_xy
 1851 0758 70309FE5 		ldr	r3, .L190+48
 1852 075c 1C009DE5 		ldr	r0, [sp, #28]	@ float
 1853 0760 00308DE5 		str	r3, [sp, #0]	@ float
 1854 0764 20109DE5 		ldr	r1, [sp, #32]	@ float
 1855 0768 0720A0E1 		mov	r2, r7
 1856 076c 0830A0E1 		mov	r3, r8
 1857 0770 FEFFFFEB 		bl	nav_approaching_xy
 1858 0774 000050E3 		cmp	r0, #0
 1859 0778 0500000A 		beq	.L124
 1860 077c 0520A0E3 		mov	r2, #5
 1861              	.L188:
 1862 0780 24309FE5 		ldr	r3, .L190+12
 1863              	.L189:
 1864 0784 0020C3E5 		strb	r2, [r3, #0]
 1865 0788 34D08DE2 		add	sp, sp, #52
 1866 078c F04FBDE8 		ldmfd	sp!, {r4, r5, r6, r7, r8, r9, sl, fp, lr}
 1867 0790 FEFFFFEA 		b	nav_init_stage
 1868              	.L124:
 1869 0794 34D08DE2 		add	sp, sp, #52
 1870 0798 F04FBDE8 		ldmfd	sp!, {r4, r5, r6, r7, r8, r9, sl, fp, lr}
 1871 079c 1EFF2FE1 		bx	lr
 1872              	.L191:
 1873              		.align	2
 1874              	.L190:
 1875 07a0 00000000 		.word	.LANCHOR7
 1876 07a4 182D4454 		.word	1413754136
 1877 07a8 FB210940 		.word	1074340347
 1878 07ac 00000000 		.word	.LANCHOR14
 1879 07b0 F8C1631A 		.word	442745336
 1880 07b4 DCA54C40 		.word	1078765020
 1881 07b8 00002440 		.word	1076101120
 1882 07bc 00000000 		.word	nav_circle_trigo_qdr
 1883 07c0 FB21F93F 		.word	1073291771
 1884 07c4 0000B443 		.word	1135869952
 1885 07c8 0000AF43 		.word	1135542272
 1886 07cc 00002041 		.word	1092616192
 1887 07d0 0000A040 		.word	1084227584
 1889              		.section	.text.nav_oval_init,"ax",%progbits
 1890              		.align	2
 1891              		.global	nav_oval_init
 1893              	nav_oval_init:
 1894              		@ Function supports interworking.
 1895              		@ args = 0, pretend = 0, frame = 0
 1896              		@ frame_needed = 0, uses_anonymous_args = 0
 1897              		@ link register save eliminated.
 1898 0000 14309FE5 		ldr	r3, .L193
 1899 0004 0120A0E3 		mov	r2, #1
 1900 0008 0020C3E5 		strb	r2, [r3, #0]
 1901 000c 0C309FE5 		ldr	r3, .L193+4
 1902 0010 0020A0E3 		mov	r2, #0
 1903 0014 0020C3E5 		strb	r2, [r3, #0]
 1904 0018 1EFF2FE1 		bx	lr
 1905              	.L194:
 1906              		.align	2
 1907              	.L193:
 1908 001c 00000000 		.word	oval_status
 1909 0020 00000000 		.word	nav_oval_count
 1911              		.section	.text.nav_oval,"ax",%progbits
 1912              		.align	2
 1913              		.global	nav_oval
 1915              	nav_oval:
 1916              		@ Function supports interworking.
 1917              		@ args = 0, pretend = 0, frame = 40
 1918              		@ frame_needed = 0, uses_anonymous_args = 0
 1919 0000 F04F2DE9 		stmfd	sp!, {r4, r5, r6, r7, r8, r9, sl, fp, lr}
 1920 0004 0C70A0E3 		mov	r7, #12
 1921 0008 00A0A0E1 		mov	sl, r0
 1922 000c 970A0AE0 		mul	sl, r7, sl
 1923 0010 910707E0 		mul	r7, r1, r7
 1924 0014 9C569FE5 		ldr	r5, .L260
 1925 0018 0A8085E0 		add	r8, r5, sl
 1926 001c 083098E5 		ldr	r3, [r8, #8]	@ float
 1927 0020 34D04DE2 		sub	sp, sp, #52
 1928 0024 076085E0 		add	r6, r5, r7
 1929 0028 083086E5 		str	r3, [r6, #8]	@ float
 1930 002c 28008DE5 		str	r0, [sp, #40]
 1931 0030 2C108DE5 		str	r1, [sp, #44]
 1932 0034 0A0095E7 		ldr	r0, [r5, sl]	@ float
 1933 0038 071095E7 		ldr	r1, [r5, r7]	@ float
 1934 003c 024182E2 		add	r4, r2, #-2147483648
 1935 0040 10208DE5 		str	r2, [sp, #16]	@ float
 1936 0044 FEFFFFEB 		bl	__aeabi_fsub
 1937 0048 041096E5 		ldr	r1, [r6, #4]	@ float
 1938 004c 00B0A0E1 		mov	fp, r0
 1939 0050 040098E5 		ldr	r0, [r8, #4]	@ float
 1940 0054 FEFFFFEB 		bl	__aeabi_fsub
 1941 0058 0B10A0E1 		mov	r1, fp
 1942 005c 0090A0E1 		mov	r9, r0
 1943 0060 0B00A0E1 		mov	r0, fp
 1944 0064 FEFFFFEB 		bl	__aeabi_fmul
 1945 0068 0910A0E1 		mov	r1, r9
 1946 006c 0030A0E1 		mov	r3, r0
 1947 0070 0900A0E1 		mov	r0, r9
 1948 0074 0C308DE5 		str	r3, [sp, #12]
 1949 0078 FEFFFFEB 		bl	__aeabi_fmul
 1950 007c 0C309DE5 		ldr	r3, [sp, #12]
 1951 0080 0010A0E1 		mov	r1, r0
 1952 0084 0300A0E1 		mov	r0, r3
 1953 0088 FEFFFFEB 		bl	__aeabi_fadd
 1954 008c FEFFFFEB 		bl	__aeabi_f2d
 1955 0090 FEFFFFEB 		bl	sqrt
 1956 0094 FEFFFFEB 		bl	__aeabi_d2f
 1957 0098 0030A0E1 		mov	r3, r0
 1958 009c 0310A0E1 		mov	r1, r3
 1959 00a0 0B00A0E1 		mov	r0, fp
 1960 00a4 0C308DE5 		str	r3, [sp, #12]
 1961 00a8 FEFFFFEB 		bl	__aeabi_fdiv
 1962 00ac 0C309DE5 		ldr	r3, [sp, #12]
 1963 00b0 00B0A0E1 		mov	fp, r0
 1964 00b4 0310A0E1 		mov	r1, r3
 1965 00b8 0900A0E1 		mov	r0, r9
 1966 00bc FEFFFFEB 		bl	__aeabi_fdiv
 1967 00c0 022180E2 		add	r2, r0, #-2147483648
 1968 00c4 18208DE5 		str	r2, [sp, #24]
 1969 00c8 0AA095E7 		ldr	sl, [r5, sl]	@ float
 1970 00cc 18109DE5 		ldr	r1, [sp, #24]	@ float
 1971 00d0 0090A0E1 		mov	r9, r0
 1972 00d4 0400A0E1 		mov	r0, r4
 1973 00d8 14A08DE5 		str	sl, [sp, #20]	@ float
 1974 00dc FEFFFFEB 		bl	__aeabi_fmul
 1975 00e0 048098E5 		ldr	r8, [r8, #4]	@ float
 1976 00e4 1C008DE5 		str	r0, [sp, #28]	@ float
 1977 00e8 0B10A0E1 		mov	r1, fp
 1978 00ec 0400A0E1 		mov	r0, r4
 1979 00f0 20808DE5 		str	r8, [sp, #32]	@ float
 1980 00f4 FEFFFFEB 		bl	__aeabi_fmul
 1981 00f8 24008DE5 		str	r0, [sp, #36]	@ float
 1982 00fc 0900A0E1 		mov	r0, r9
 1983 0100 FEFFFFEB 		bl	__aeabi_f2d
 1984 0104 048096E5 		ldr	r8, [r6, #4]	@ float
 1985 0108 0060A0E1 		mov	r6, r0
 1986 010c 0B00A0E1 		mov	r0, fp
 1987 0110 07A095E7 		ldr	sl, [r5, r7]	@ float
 1988 0114 0170A0E1 		mov	r7, r1
 1989 0118 FEFFFFEB 		bl	__aeabi_f2d
 1990 011c 0020A0E1 		mov	r2, r0
 1991 0120 0130A0E1 		mov	r3, r1
 1992 0124 0600A0E1 		mov	r0, r6
 1993 0128 0710A0E1 		mov	r1, r7
 1994 012c FEFFFFEB 		bl	atan2
 1995 0130 0020A0E1 		mov	r2, r0
 1996 0134 0130A0E1 		mov	r3, r1
 1997 0138 7C059FE5 		ldr	r0, .L260+4
 1998 013c 7C159FE5 		ldr	r1, .L260+8
 1999 0140 FEFFFFEB 		bl	__aeabi_dsub
 2000 0144 FEFFFFEB 		bl	__aeabi_d2f
 2001 0148 0070A0E1 		mov	r7, r0
 2002 014c FEFFFFEB 		bl	__aeabi_f2d
 2003 0150 64259FE5 		ldr	r2, .L260+4
 2004 0154 64359FE5 		ldr	r3, .L260+8
 2005 0158 FEFFFFEB 		bl	__aeabi_dadd
 2006 015c FEFFFFEB 		bl	__aeabi_d2f
 2007 0160 0010A0E3 		mov	r1, #0
 2008 0164 0060A0E1 		mov	r6, r0
 2009 0168 0400A0E1 		mov	r0, r4
 2010 016c FEFFFFEB 		bl	__aeabi_fcmplt
 2011 0170 000050E3 		cmp	r0, #0
 2012 0174 0700000A 		beq	.L196
 2013 0178 0600A0E1 		mov	r0, r6
 2014 017c FEFFFFEB 		bl	__aeabi_f2d
 2015 0180 34259FE5 		ldr	r2, .L260+4
 2016 0184 34359FE5 		ldr	r3, .L260+8
 2017 0188 FEFFFFEB 		bl	__aeabi_dadd
 2018 018c FEFFFFEB 		bl	__aeabi_d2f
 2019 0190 0670A0E1 		mov	r7, r6
 2020 0194 0060A0E1 		mov	r6, r0
 2021              	.L196:
 2022 0198 0400A0E1 		mov	r0, r4
 2023 019c 0010A0E3 		mov	r1, #0
 2024 01a0 FEFFFFEB 		bl	__aeabi_fcmpgt
 2025 01a4 18359FE5 		ldr	r3, .L260+12
 2026 01a8 0030D3E5 		ldrb	r3, [r3, #0]	@ zero_extendqisi2
 2027 01ac 000050E3 		cmp	r0, #0
 2028 01b0 10559F15 		ldrne	r5, .L260+16
 2029 01b4 10559F05 		ldreq	r5, .L260+20
 2030 01b8 030053E3 		cmp	r3, #3
 2031 01bc 03F19F97 		ldrls	pc, [pc, r3, asl #2]
 2032 01c0 390100EA 		b	.L195
 2033              	.L205:
 2034 01c4 A8030000 		.word	.L201
 2035 01c8 68040000 		.word	.L202
 2036 01cc 3C060000 		.word	.L203
 2037 01d0 D4010000 		.word	.L204
 2038              	.L204:
 2039 01d4 1C109DE5 		ldr	r1, [sp, #28]	@ float
 2040 01d8 14009DE5 		ldr	r0, [sp, #20]	@ float
 2041 01dc FEFFFFEB 		bl	__aeabi_fadd
 2042 01e0 24109DE5 		ldr	r1, [sp, #36]	@ float
 2043 01e4 0040A0E1 		mov	r4, r0
 2044 01e8 20009DE5 		ldr	r0, [sp, #32]	@ float
 2045 01ec FEFFFFEB 		bl	__aeabi_fadd
 2046 01f0 10209DE5 		ldr	r2, [sp, #16]	@ float
 2047 01f4 0010A0E1 		mov	r1, r0
 2048 01f8 0400A0E1 		mov	r0, r4
 2049 01fc FEFFFFEB 		bl	nav_circle_XY
 2050 0200 0600A0E1 		mov	r0, r6
 2051 0204 FEFFFFEB 		bl	__aeabi_f2d
 2052 0208 C0249FE5 		ldr	r2, .L260+24
 2053 020c C0349FE5 		ldr	r3, .L260+28
 2054 0210 FEFFFFEB 		bl	__aeabi_dmul
 2055 0214 0060A0E1 		mov	r6, r0
 2056 0218 0500A0E1 		mov	r0, r5
 2057 021c 0170A0E1 		mov	r7, r1
 2058 0220 FEFFFFEB 		bl	__aeabi_f2d
 2059 0224 0020A0E1 		mov	r2, r0
 2060 0228 0130A0E1 		mov	r3, r1
 2061 022c 0600A0E1 		mov	r0, r6
 2062 0230 0710A0E1 		mov	r1, r7
 2063 0234 FEFFFFEB 		bl	__aeabi_dsub
 2064 0238 98349FE5 		ldr	r3, .L260+32
 2065 023c 0040A0E1 		mov	r4, r0
 2066 0240 000093E5 		ldr	r0, [r3, #0]	@ float
 2067 0244 0150A0E1 		mov	r5, r1
 2068 0248 FEFFFFEB 		bl	__aeabi_f2d
 2069 024c 0020A0E1 		mov	r2, r0
 2070 0250 0130A0E1 		mov	r3, r1
 2071 0254 60049FE5 		ldr	r0, .L260+4
 2072 0258 7C149FE5 		ldr	r1, .L260+36
 2073 025c FEFFFFEB 		bl	__aeabi_dsub
 2074 0260 68249FE5 		ldr	r2, .L260+24
 2075 0264 68349FE5 		ldr	r3, .L260+28
 2076 0268 FEFFFFEB 		bl	__aeabi_dmul
 2077 026c FEFFFFEB 		bl	__aeabi_d2f
 2078 0270 0070A0E3 		mov	r7, #0
 2079 0274 0060A0E1 		mov	r6, r0
 2080 0278 030000EA 		b	.L206
 2081              	.L209:
 2082 027c 0600A0E1 		mov	r0, r6
 2083 0280 58149FE5 		ldr	r1, .L260+40
 2084 0284 FEFFFFEB 		bl	__aeabi_fadd
 2085 0288 0060A0E1 		mov	r6, r0
 2086              	.L206:
 2087 028c 0600A0E1 		mov	r0, r6
 2088 0290 0010A0E3 		mov	r1, #0
 2089 0294 FEFFFFEB 		bl	__aeabi_fcmplt
 2090 0298 000050E3 		cmp	r0, #0
 2091 029c FF8007E2 		and	r8, r7, #255
 2092 02a0 0700000A 		beq	.L250
 2093 02a4 017087E2 		add	r7, r7, #1
 2094 02a8 010C57E3 		cmp	r7, #256
 2095 02ac F2FFFF1A 		bne	.L209
 2096 02b0 0080A0E3 		mov	r8, #0
 2097 02b4 020000EA 		b	.L250
 2098              	.L213:
 2099 02b8 20149FE5 		ldr	r1, .L260+40
 2100 02bc FEFFFFEB 		bl	__aeabi_fsub
 2101 02c0 0060A0E1 		mov	r6, r0
 2102              	.L250:
 2103 02c4 0600A0E1 		mov	r0, r6
 2104 02c8 10149FE5 		ldr	r1, .L260+40
 2105 02cc FEFFFFEB 		bl	__aeabi_fcmpge
 2106 02d0 000050E3 		cmp	r0, #0
 2107 02d4 0600A0E1 		mov	r0, r6
 2108 02d8 0200000A 		beq	.L211
 2109 02dc 018088E2 		add	r8, r8, #1
 2110 02e0 FF8018E2 		ands	r8, r8, #255
 2111 02e4 F3FFFF1A 		bne	.L213
 2112              	.L211:
 2113 02e8 FEFFFFEB 		bl	__aeabi_f2d
 2114 02ec 0020A0E1 		mov	r2, r0
 2115 02f0 0130A0E1 		mov	r3, r1
 2116 02f4 0400A0E1 		mov	r0, r4
 2117 02f8 0510A0E1 		mov	r1, r5
 2118 02fc FEFFFFEB 		bl	__aeabi_dsub
 2119 0300 FEFFFFEB 		bl	__aeabi_d2f
 2120 0304 0050A0E3 		mov	r5, #0
 2121 0308 0040A0E1 		mov	r4, r0
 2122 030c 030000EA 		b	.L214
 2123              	.L217:
 2124 0310 0400A0E1 		mov	r0, r4
 2125 0314 C4139FE5 		ldr	r1, .L260+40
 2126 0318 FEFFFFEB 		bl	__aeabi_fadd
 2127 031c 0040A0E1 		mov	r4, r0
 2128              	.L214:
 2129 0320 0400A0E1 		mov	r0, r4
 2130 0324 0010A0E3 		mov	r1, #0
 2131 0328 FEFFFFEB 		bl	__aeabi_fcmplt
 2132 032c 000050E3 		cmp	r0, #0
 2133 0330 FF6005E2 		and	r6, r5, #255
 2134 0334 0700000A 		beq	.L251
 2135 0338 015085E2 		add	r5, r5, #1
 2136 033c 010C55E3 		cmp	r5, #256
 2137 0340 F2FFFF1A 		bne	.L217
 2138 0344 0060A0E3 		mov	r6, #0
 2139 0348 020000EA 		b	.L251
 2140              	.L221:
 2141 034c 8C139FE5 		ldr	r1, .L260+40
 2142 0350 FEFFFFEB 		bl	__aeabi_fsub
 2143 0354 0040A0E1 		mov	r4, r0
 2144              	.L251:
 2145 0358 0400A0E1 		mov	r0, r4
 2146 035c 7C139FE5 		ldr	r1, .L260+40
 2147 0360 FEFFFFEB 		bl	__aeabi_fcmpge
 2148 0364 000050E3 		cmp	r0, #0
 2149 0368 0400A0E1 		mov	r0, r4
 2150 036c 0200000A 		beq	.L219
 2151 0370 016086E2 		add	r6, r6, #1
 2152 0374 FF6016E2 		ands	r6, r6, #255
 2153 0378 F3FFFF1A 		bne	.L221
 2154              	.L219:
 2155 037c 60139FE5 		ldr	r1, .L260+44
 2156 0380 FEFFFFEB 		bl	__aeabi_fcmpgt
 2157 0384 000050E3 		cmp	r0, #0
 2158 0388 0400001A 		bne	.L222
 2159 038c 0400A0E1 		mov	r0, r4
 2160 0390 50139FE5 		ldr	r1, .L260+48
 2161 0394 FEFFFFEB 		bl	__aeabi_fcmplt
 2162 0398 000050E3 		cmp	r0, #0
 2163 039c C200000A 		beq	.L195
 2164              	.L222:
 2165 03a0 0020A0E3 		mov	r2, #0
 2166 03a4 BB0000EA 		b	.L258
 2167              	.L201:
 2168 03a8 0410A0E1 		mov	r1, r4
 2169 03ac 0400A0E1 		mov	r0, r4
 2170 03b0 FEFFFFEB 		bl	__aeabi_fadd
 2171 03b4 18109DE5 		ldr	r1, [sp, #24]	@ float
 2172 03b8 0050A0E1 		mov	r5, r0
 2173 03bc FEFFFFEB 		bl	__aeabi_fmul
 2174 03c0 0060A0E1 		mov	r6, r0
 2175 03c4 0610A0E1 		mov	r1, r6
 2176 03c8 14009DE5 		ldr	r0, [sp, #20]	@ float
 2177 03cc FEFFFFEB 		bl	__aeabi_fadd
 2178 03d0 0B10A0E1 		mov	r1, fp
 2179 03d4 0040A0E1 		mov	r4, r0
 2180 03d8 0500A0E1 		mov	r0, r5
 2181 03dc FEFFFFEB 		bl	__aeabi_fmul
 2182 03e0 0070A0E1 		mov	r7, r0
 2183 03e4 0710A0E1 		mov	r1, r7
 2184 03e8 20009DE5 		ldr	r0, [sp, #32]	@ float
 2185 03ec FEFFFFEB 		bl	__aeabi_fadd
 2186 03f0 0610A0E1 		mov	r1, r6
 2187 03f4 0050A0E1 		mov	r5, r0
 2188 03f8 0A00A0E1 		mov	r0, sl
 2189 03fc FEFFFFEB 		bl	__aeabi_fadd
 2190 0400 0710A0E1 		mov	r1, r7
 2191 0404 0060A0E1 		mov	r6, r0
 2192 0408 0800A0E1 		mov	r0, r8
 2193 040c FEFFFFEB 		bl	__aeabi_fadd
 2194 0410 0070A0E1 		mov	r7, r0
 2195 0414 0510A0E1 		mov	r1, r5
 2196 0418 0400A0E1 		mov	r0, r4
 2197 041c 0620A0E1 		mov	r2, r6
 2198 0420 0730A0E1 		mov	r3, r7
 2199 0424 FEFFFFEB 		bl	nav_route_xy
 2200 0428 BC329FE5 		ldr	r3, .L260+52
 2201 042c 0600A0E1 		mov	r0, r6
 2202 0430 00308DE5 		str	r3, [sp, #0]	@ float
 2203 0434 0710A0E1 		mov	r1, r7
 2204 0438 0420A0E1 		mov	r2, r4
 2205 043c 0530A0E1 		mov	r3, r5
 2206 0440 FEFFFFEB 		bl	nav_approaching_xy
 2207 0444 000050E3 		cmp	r0, #0
 2208 0448 9700000A 		beq	.L195
 2209 044c 70329FE5 		ldr	r3, .L260+12
 2210 0450 0120A0E3 		mov	r2, #1
 2211 0454 0020C3E5 		strb	r2, [r3, #0]
 2212 0458 90329FE5 		ldr	r3, .L260+56
 2213 045c 0020D3E5 		ldrb	r2, [r3, #0]	@ zero_extendqisi2
 2214 0460 012082E2 		add	r2, r2, #1
 2215 0464 8C0000EA 		b	.L259
 2216              	.L202:
 2217 0468 1C109DE5 		ldr	r1, [sp, #28]	@ float
 2218 046c 0A00A0E1 		mov	r0, sl
 2219 0470 FEFFFFEB 		bl	__aeabi_fadd
 2220 0474 24109DE5 		ldr	r1, [sp, #36]	@ float
 2221 0478 0040A0E1 		mov	r4, r0
 2222 047c 0800A0E1 		mov	r0, r8
 2223 0480 FEFFFFEB 		bl	__aeabi_fadd
 2224 0484 10209DE5 		ldr	r2, [sp, #16]	@ float
 2225 0488 0010A0E1 		mov	r1, r0
 2226 048c 0400A0E1 		mov	r0, r4
 2227 0490 FEFFFFEB 		bl	nav_circle_XY
 2228 0494 0700A0E1 		mov	r0, r7
 2229 0498 FEFFFFEB 		bl	__aeabi_f2d
 2230 049c 2C229FE5 		ldr	r2, .L260+24
 2231 04a0 2C329FE5 		ldr	r3, .L260+28
 2232 04a4 FEFFFFEB 		bl	__aeabi_dmul
 2233 04a8 0060A0E1 		mov	r6, r0
 2234 04ac 0500A0E1 		mov	r0, r5
 2235 04b0 0170A0E1 		mov	r7, r1
 2236 04b4 FEFFFFEB 		bl	__aeabi_f2d
 2237 04b8 0020A0E1 		mov	r2, r0
 2238 04bc 0130A0E1 		mov	r3, r1
 2239 04c0 0600A0E1 		mov	r0, r6
 2240 04c4 0710A0E1 		mov	r1, r7
 2241 04c8 FEFFFFEB 		bl	__aeabi_dsub
 2242 04cc 04329FE5 		ldr	r3, .L260+32
 2243 04d0 0040A0E1 		mov	r4, r0
 2244 04d4 000093E5 		ldr	r0, [r3, #0]	@ float
 2245 04d8 0150A0E1 		mov	r5, r1
 2246 04dc FEFFFFEB 		bl	__aeabi_f2d
 2247 04e0 0020A0E1 		mov	r2, r0
 2248 04e4 0130A0E1 		mov	r3, r1
 2249 04e8 CC019FE5 		ldr	r0, .L260+4
 2250 04ec E8119FE5 		ldr	r1, .L260+36
 2251 04f0 FEFFFFEB 		bl	__aeabi_dsub
 2252 04f4 D4219FE5 		ldr	r2, .L260+24
 2253 04f8 D4319FE5 		ldr	r3, .L260+28
 2254 04fc FEFFFFEB 		bl	__aeabi_dmul
 2255 0500 FEFFFFEB 		bl	__aeabi_d2f
 2256 0504 0070A0E3 		mov	r7, #0
 2257 0508 0060A0E1 		mov	r6, r0
 2258 050c 030000EA 		b	.L224
 2259              	.L227:
 2260 0510 0600A0E1 		mov	r0, r6
 2261 0514 C4119FE5 		ldr	r1, .L260+40
 2262 0518 FEFFFFEB 		bl	__aeabi_fadd
 2263 051c 0060A0E1 		mov	r6, r0
 2264              	.L224:
 2265 0520 0600A0E1 		mov	r0, r6
 2266 0524 0010A0E3 		mov	r1, #0
 2267 0528 FEFFFFEB 		bl	__aeabi_fcmplt
 2268 052c 000050E3 		cmp	r0, #0
 2269 0530 FF8007E2 		and	r8, r7, #255
 2270 0534 0700000A 		beq	.L252
 2271 0538 017087E2 		add	r7, r7, #1
 2272 053c 010C57E3 		cmp	r7, #256
 2273 0540 F2FFFF1A 		bne	.L227
 2274 0544 0080A0E3 		mov	r8, #0
 2275 0548 020000EA 		b	.L252
 2276              	.L231:
 2277 054c 8C119FE5 		ldr	r1, .L260+40
 2278 0550 FEFFFFEB 		bl	__aeabi_fsub
 2279 0554 0060A0E1 		mov	r6, r0
 2280              	.L252:
 2281 0558 0600A0E1 		mov	r0, r6
 2282 055c 7C119FE5 		ldr	r1, .L260+40
 2283 0560 FEFFFFEB 		bl	__aeabi_fcmpge
 2284 0564 000050E3 		cmp	r0, #0
 2285 0568 0600A0E1 		mov	r0, r6
 2286 056c 0200000A 		beq	.L229
 2287 0570 018088E2 		add	r8, r8, #1
 2288 0574 FF8018E2 		ands	r8, r8, #255
 2289 0578 F3FFFF1A 		bne	.L231
 2290              	.L229:
 2291 057c FEFFFFEB 		bl	__aeabi_f2d
 2292 0580 0020A0E1 		mov	r2, r0
 2293 0584 0130A0E1 		mov	r3, r1
 2294 0588 0400A0E1 		mov	r0, r4
 2295 058c 0510A0E1 		mov	r1, r5
 2296 0590 FEFFFFEB 		bl	__aeabi_dsub
 2297 0594 FEFFFFEB 		bl	__aeabi_d2f
 2298 0598 0050A0E3 		mov	r5, #0
 2299 059c 0040A0E1 		mov	r4, r0
 2300 05a0 030000EA 		b	.L232
 2301              	.L235:
 2302 05a4 0400A0E1 		mov	r0, r4
 2303 05a8 30119FE5 		ldr	r1, .L260+40
 2304 05ac FEFFFFEB 		bl	__aeabi_fadd
 2305 05b0 0040A0E1 		mov	r4, r0
 2306              	.L232:
 2307 05b4 0400A0E1 		mov	r0, r4
 2308 05b8 0010A0E3 		mov	r1, #0
 2309 05bc FEFFFFEB 		bl	__aeabi_fcmplt
 2310 05c0 000050E3 		cmp	r0, #0
 2311 05c4 FF6005E2 		and	r6, r5, #255
 2312 05c8 0700000A 		beq	.L253
 2313 05cc 015085E2 		add	r5, r5, #1
 2314 05d0 010C55E3 		cmp	r5, #256
 2315 05d4 F2FFFF1A 		bne	.L235
 2316 05d8 0060A0E3 		mov	r6, #0
 2317 05dc 020000EA 		b	.L253
 2318              	.L239:
 2319 05e0 F8109FE5 		ldr	r1, .L260+40
 2320 05e4 FEFFFFEB 		bl	__aeabi_fsub
 2321 05e8 0040A0E1 		mov	r4, r0
 2322              	.L253:
 2323 05ec 0400A0E1 		mov	r0, r4
 2324 05f0 E8109FE5 		ldr	r1, .L260+40
 2325 05f4 FEFFFFEB 		bl	__aeabi_fcmpge
 2326 05f8 000050E3 		cmp	r0, #0
 2327 05fc 0400A0E1 		mov	r0, r4
 2328 0600 0200000A 		beq	.L237
 2329 0604 016086E2 		add	r6, r6, #1
 2330 0608 FF6016E2 		ands	r6, r6, #255
 2331 060c F3FFFF1A 		bne	.L239
 2332              	.L237:
 2333 0610 CC109FE5 		ldr	r1, .L260+44
 2334 0614 FEFFFFEB 		bl	__aeabi_fcmpgt
 2335 0618 000050E3 		cmp	r0, #0
 2336 061c 0400001A 		bne	.L240
 2337 0620 0400A0E1 		mov	r0, r4
 2338 0624 BC109FE5 		ldr	r1, .L260+48
 2339 0628 FEFFFFEB 		bl	__aeabi_fcmplt
 2340 062c 000050E3 		cmp	r0, #0
 2341 0630 1D00000A 		beq	.L195
 2342              	.L240:
 2343 0634 0220A0E3 		mov	r2, #2
 2344 0638 160000EA 		b	.L258
 2345              	.L203:
 2346 063c 28309DE5 		ldr	r3, [sp, #40]
 2347 0640 2C509DE5 		ldr	r5, [sp, #44]
 2348 0644 0C60A0E3 		mov	r6, #12
 2349 0648 960505E0 		mul	r5, r6, r5
 2350 064c 930606E0 		mul	r6, r3, r6
 2351 0650 60409FE5 		ldr	r4, .L260
 2352 0654 058084E0 		add	r8, r4, r5
 2353 0658 067084E0 		add	r7, r4, r6
 2354 065c 050094E7 		ldr	r0, [r4, r5]	@ float
 2355 0660 041098E5 		ldr	r1, [r8, #4]	@ float
 2356 0664 062094E7 		ldr	r2, [r4, r6]	@ float
 2357 0668 043097E5 		ldr	r3, [r7, #4]	@ float
 2358 066c FEFFFFEB 		bl	nav_route_xy
 2359 0670 74309FE5 		ldr	r3, .L260+52
 2360 0674 00308DE5 		str	r3, [sp, #0]	@ float
 2361 0678 060094E7 		ldr	r0, [r4, r6]	@ float
 2362 067c 041097E5 		ldr	r1, [r7, #4]	@ float
 2363 0680 052094E7 		ldr	r2, [r4, r5]	@ float
 2364 0684 043098E5 		ldr	r3, [r8, #4]	@ float
 2365 0688 FEFFFFEB 		bl	nav_approaching_xy
 2366 068c 000050E3 		cmp	r0, #0
 2367 0690 0500000A 		beq	.L195
 2368 0694 0320A0E3 		mov	r2, #3
 2369              	.L258:
 2370 0698 24309FE5 		ldr	r3, .L260+12
 2371              	.L259:
 2372 069c 0020C3E5 		strb	r2, [r3, #0]
 2373 06a0 34D08DE2 		add	sp, sp, #52
 2374 06a4 F04FBDE8 		ldmfd	sp!, {r4, r5, r6, r7, r8, r9, sl, fp, lr}
 2375 06a8 FEFFFFEA 		b	nav_init_stage
 2376              	.L195:
 2377 06ac 34D08DE2 		add	sp, sp, #52
 2378 06b0 F04FBDE8 		ldmfd	sp!, {r4, r5, r6, r7, r8, r9, sl, fp, lr}
 2379 06b4 1EFF2FE1 		bx	lr
 2380              	.L261:
 2381              		.align	2
 2382              	.L260:
 2383 06b8 00000000 		.word	.LANCHOR7
 2384 06bc 182D4454 		.word	1413754136
 2385 06c0 FB210940 		.word	1074340347
 2386 06c4 00000000 		.word	oval_status
 2387 06c8 000070C1 		.word	-1049624576
 2388 06cc 00007041 		.word	1097859072
 2389 06d0 F8C1631A 		.word	442745336
 2390 06d4 DCA54C40 		.word	1078765020
 2391 06d8 00000000 		.word	nav_circle_trigo_qdr
 2392 06dc FB21F93F 		.word	1073291771
 2393 06e0 0000B443 		.word	1135869952
 2394 06e4 0000AF43 		.word	1135542272
 2395 06e8 00002041 		.word	1092616192
 2396 06ec 0000A040 		.word	1084227584
 2397 06f0 00000000 		.word	nav_oval_count
 2399              		.section	.text.nav_periodic_task,"ax",%progbits
 2400              		.align	2
 2401              		.global	nav_periodic_task
 2403              	nav_periodic_task:
 2404              		@ Function supports interworking.
 2405              		@ args = 0, pretend = 0, frame = 0
 2406              		@ frame_needed = 0, uses_anonymous_args = 0
 2407 0000 443E9FE5 		ldr	r3, .L438
 2408 0004 F7432DE9 		stmfd	sp!, {r0, r1, r2, r4, r5, r6, r7, r8, r9, lr}
 2409 0008 0020A0E3 		mov	r2, #0
 2410 000c 0020C3E5 		strb	r2, [r3, #0]
 2411 0010 FEFFFFEB 		bl	compute_dist2_to_home
 2412 0014 343E9FE5 		ldr	r3, .L438+4
 2413 0018 0040A0E3 		mov	r4, #0
 2414 001c 004083E5 		str	r4, [r3, #0]	@ float
 2415 0020 2C3E9FE5 		ldr	r3, .L438+8
 2416 0024 0020D3E5 		ldrb	r2, [r3, #0]	@ zero_extendqisi2
 2417 0028 100052E3 		cmp	r2, #16
 2418 002c 02F19F97 		ldrls	pc, [pc, r2, asl #2]
 2419 0030 740300EA 		b	.L263
 2420              	.L281:
 2421 0034 78000000 		.word	.L264
 2422 0038 BC000000 		.word	.L265
 2423 003c 0C010000 		.word	.L266
 2424 0040 54010000 		.word	.L267
 2425 0044 50020000 		.word	.L268
 2426 0048 AC020000 		.word	.L269
 2427 004c 34030000 		.word	.L270
 2428 0050 B0030000 		.word	.L271
 2429 0054 60040000 		.word	.L272
 2430 0058 B0040000 		.word	.L273
 2431 005c 04050000 		.word	.L274
 2432 0060 00070000 		.word	.L275
 2433 0064 30070000 		.word	.L276
 2434 0068 7C070000 		.word	.L277
 2435 006c C80B0000 		.word	.L278
 2436 0070 E00C0000 		.word	.L279
 2437 0074 DC0D0000 		.word	.L280
 2438              	.L264:
 2439 0078 D83D9FE5 		ldr	r3, .L438+12
 2440 007c 0010D3E5 		ldrb	r1, [r3, #0]	@ zero_extendqisi2
 2441 0080 000051E3 		cmp	r1, #0
 2442 0084 0300A0E1 		mov	r0, r3
 2443 0088 0120A0E3 		mov	r2, #1
 2444 008c 2900000A 		beq	.L421
 2445 0090 020051E3 		cmp	r1, #2
 2446 0094 0400008A 		bhi	.L282
 2447              	.L284:
 2448 0098 BC2D9FE5 		ldr	r2, .L438+16
 2449 009c 5B20D2E5 		ldrb	r2, [r2, #91]	@ zero_extendqisi2
 2450 00a0 030052E3 		cmp	r2, #3
 2451 00a4 0220A013 		movne	r2, #2
 2452 00a8 2400001A 		bne	.L411
 2453              	.L282:
 2454 00ac 0330A0E3 		mov	r3, #3
 2455 00b0 0030C0E5 		strb	r3, [r0, #0]
 2456 00b4 0120A0E3 		mov	r2, #1
 2457 00b8 450300EA 		b	.L416
 2458              	.L265:
 2459 00bc 943D9FE5 		ldr	r3, .L438+12
 2460 00c0 0020D3E5 		ldrb	r2, [r3, #0]	@ zero_extendqisi2
 2461 00c4 010052E3 		cmp	r2, #1
 2462 00c8 0340A0E1 		mov	r4, r3
 2463 00cc 0500009A 		bls	.L286
 2464 00d0 020052E3 		cmp	r2, #2
 2465 00d4 0320A013 		movne	r2, #3
 2466 00d8 0020C315 		strneb	r2, [r3, #0]
 2467 00dc 0220A013 		movne	r2, #2
 2468 00e0 3B03001A 		bne	.L416
 2469 00e4 030000EA 		b	.L287
 2470              	.L286:
 2471 00e8 702D9FE5 		ldr	r2, .L438+20
 2472 00ec B020D2E1 		ldrh	r2, [r2, #0]
 2473 00f0 090052E3 		cmp	r2, #9
 2474 00f4 7900009A 		bls	.L419
 2475              	.L287:
 2476 00f8 0230A0E3 		mov	r3, #2
 2477 00fc 0030C4E5 		strb	r3, [r4, #0]
 2478 0100 FEFFFFEB 		bl	nav_reset_reference
 2479 0104 FEFFFFEB 		bl	nav_update_waypoints_alt
 2480 0108 F60000EA 		b	.L422
 2481              	.L266:
 2482 010c 443D9FE5 		ldr	r3, .L438+12
 2483 0110 0020D3E5 		ldrb	r2, [r3, #0]	@ zero_extendqisi2
 2484 0114 000052E3 		cmp	r2, #0
 2485 0118 0120A003 		moveq	r2, #1
 2486 011c 0500000A 		beq	.L421
 2487 0120 010052E3 		cmp	r2, #1
 2488 0124 0220A0E3 		mov	r2, #2
 2489 0128 0020C315 		strneb	r2, [r3, #0]
 2490 012c 0320A013 		movne	r2, #3
 2491 0130 2703001A 		bne	.L416
 2492 0134 030000EA 		b	.L429
 2493              	.L421:
 2494 0138 241D9FE5 		ldr	r1, .L438+24
 2495 013c 0020C1E5 		strb	r2, [r1, #0]
 2496              	.L411:
 2497 0140 0020C3E5 		strb	r2, [r3, #0]
 2498 0144 FE0200EA 		b	.L407
 2499              	.L429:
 2500 0148 183D9FE5 		ldr	r3, .L438+28
 2501 014c 0020C3E5 		strb	r2, [r3, #0]
 2502 0150 0F0300EA 		b	.L428
 2503              	.L267:
 2504 0154 FEFFFFEB 		bl	stateGetPositionUtm_f
 2505 0158 0C3D9FE5 		ldr	r3, .L438+32
 2506 015c 0040A0E1 		mov	r4, r0
 2507 0160 081D9FE5 		ldr	r1, .L438+36
 2508 0164 000093E5 		ldr	r0, [r3, #0]	@ float
 2509 0168 FEFFFFEB 		bl	__aeabi_fadd
 2510 016c 0010A0E1 		mov	r1, r0
 2511 0170 080094E5 		ldr	r0, [r4, #8]	@ float
 2512 0174 FEFFFFEB 		bl	__aeabi_fcmpgt
 2513 0178 000050E3 		cmp	r0, #0
 2514 017c 0420A013 		movne	r2, #4
 2515 0180 1303001A 		bne	.L416
 2516 0184 CC4C9FE5 		ldr	r4, .L438+12
 2517 0188 0030D4E5 		ldrb	r3, [r4, #0]	@ zero_extendqisi2
 2518 018c 010053E3 		cmp	r3, #1
 2519 0190 0B00000A 		beq	.L296
 2520 0194 0400003A 		bcc	.L295
 2521 0198 020053E3 		cmp	r3, #2
 2522 019c 0330A013 		movne	r3, #3
 2523 01a0 0030C415 		strneb	r3, [r4, #0]
 2524 01a4 C902001A 		bne	.L417
 2525 01a8 0A0000EA 		b	.L430
 2526              	.L295:
 2527 01ac B03C9FE5 		ldr	r3, .L438+24
 2528 01b0 0020A0E3 		mov	r2, #0
 2529 01b4 0020C3E5 		strb	r2, [r3, #0]
 2530 01b8 0130A0E3 		mov	r3, #1
 2531              	.L412:
 2532 01bc 0030C4E5 		strb	r3, [r4, #0]
 2533 01c0 DF0200EA 		b	.L407
 2534              	.L296:
 2535 01c4 A83C9FE5 		ldr	r3, .L438+40
 2536 01c8 0020A0E3 		mov	r2, #0
 2537 01cc B020C3E1 		strh	r2, [r3, #0]	@ movhi
 2538 01d0 0230A0E3 		mov	r3, #2
 2539 01d4 F8FFFFEA 		b	.L412
 2540              	.L430:
 2541 01d8 983C9FE5 		ldr	r3, .L438+44
 2542 01dc 985C9FE5 		ldr	r5, .L438+48
 2543 01e0 00308DE5 		str	r3, [sp, #0]	@ float
 2544 01e4 840095E5 		ldr	r0, [r5, #132]	@ float
 2545 01e8 881095E5 		ldr	r1, [r5, #136]	@ float
 2546 01ec 0C2095E5 		ldr	r2, [r5, #12]	@ float
 2547 01f0 103095E5 		ldr	r3, [r5, #16]	@ float
 2548 01f4 FEFFFFEB 		bl	nav_approaching_xy
 2549 01f8 006050E2 		subs	r6, r0, #0
 2550 01fc 7C3C9F15 		ldrne	r3, .L438+52
 2551 0200 0B20A013 		movne	r2, #11
 2552 0204 0020C315 		strneb	r2, [r3, #0]
 2553 0208 B600001A 		bne	.L422
 2554              	.L298:
 2555 020c 703C9FE5 		ldr	r3, .L438+56
 2556 0210 840095E5 		ldr	r0, [r5, #132]	@ float
 2557 0214 0060C3E5 		strb	r6, [r3, #0]
 2558 0218 881095E5 		ldr	r1, [r5, #136]	@ float
 2559 021c FEFFFFEB 		bl	fly_to_xy
 2560 0220 603C9FE5 		ldr	r3, .L438+60
 2561 0224 602C9FE5 		ldr	r2, .L438+64
 2562 0228 0060C3E5 		strb	r6, [r3, #0]
 2563 022c 5C3C9FE5 		ldr	r3, .L438+68
 2564 0230 002083E5 		str	r2, [r3, #0]	@ float
 2565 0234 583C9FE5 		ldr	r3, .L438+72
 2566 0238 0120A0E3 		mov	r2, #1
 2567 023c 0020C3E5 		strb	r2, [r3, #0]
 2568 0240 503C9FE5 		ldr	r3, .L438+76
 2569 0244 962DA0E3 		mov	r2, #9600
 2570 0248 B020C3E1 		strh	r2, [r3, #0]	@ movhi
 2571 024c ED0200EA 		b	.L263
 2572              	.L268:
 2573 0250 002C9FE5 		ldr	r2, .L438+12
 2574 0254 0010D2E5 		ldrb	r1, [r2, #0]	@ zero_extendqisi2
 2575 0258 000051E3 		cmp	r1, #0
 2576 025c 0110A013 		movne	r1, #1
 2577 0260 0010C215 		strneb	r1, [r2, #0]
 2578 0264 0520A013 		movne	r2, #5
 2579 0268 E402001A 		bne	.L405
 2580 026c 143C9FE5 		ldr	r3, .L438+60
 2581 0270 0010C3E5 		strb	r1, [r3, #0]
 2582 0274 143C9FE5 		ldr	r3, .L438+68
 2583 0278 004083E5 		str	r4, [r3, #0]	@ float
 2584 027c 103C9FE5 		ldr	r3, .L438+72
 2585 0280 0320A0E3 		mov	r2, #3
 2586 0284 0020C3E5 		strb	r2, [r3, #0]
 2587 0288 EC3B9FE5 		ldr	r3, .L438+48
 2588 028c 082C9FE5 		ldr	r2, .L438+80
 2589 0290 201093E5 		ldr	r1, [r3, #32]	@ float
 2590 0294 001082E5 		str	r1, [r2, #0]	@ float
 2591 0298 002C9FE5 		ldr	r2, .L438+84
 2592 029c 180093E5 		ldr	r0, [r3, #24]	@ float
 2593 02a0 004082E5 		str	r4, [r2, #0]	@ float
 2594 02a4 1C1093E5 		ldr	r1, [r3, #28]	@ float
 2595 02a8 680000EA 		b	.L408
 2596              	.L269:
 2597 02ac A43B9FE5 		ldr	r3, .L438+12
 2598 02b0 0020D3E5 		ldrb	r2, [r3, #0]	@ zero_extendqisi2
 2599 02b4 000052E3 		cmp	r2, #0
 2600 02b8 0500000A 		beq	.L302
 2601 02bc 010052E3 		cmp	r2, #1
 2602 02c0 0220A013 		movne	r2, #2
 2603 02c4 0020C315 		strneb	r2, [r3, #0]
 2604 02c8 0620A013 		movne	r2, #6
 2605 02cc C002001A 		bne	.L416
 2606 02d0 040000EA 		b	.L431
 2607              	.L302:
 2608 02d4 C82B9FE5 		ldr	r2, .L438+88
 2609 02d8 0510A0E3 		mov	r1, #5
 2610 02dc 0010C2E5 		strb	r1, [r2, #0]
 2611              	.L419:
 2612 02e0 0120A0E3 		mov	r2, #1
 2613 02e4 95FFFFEA 		b	.L411
 2614              	.L431:
 2615 02e8 983B9FE5 		ldr	r3, .L438+60
 2616 02ec 0020A0E3 		mov	r2, #0
 2617 02f0 0020C3E5 		strb	r2, [r3, #0]
 2618 02f4 943B9FE5 		ldr	r3, .L438+68
 2619 02f8 004083E5 		str	r4, [r3, #0]	@ float
 2620 02fc 903B9FE5 		ldr	r3, .L438+72
 2621 0300 0300A0E3 		mov	r0, #3
 2622 0304 0000C3E5 		strb	r0, [r3, #0]
 2623 0308 6C3B9FE5 		ldr	r3, .L438+48
 2624 030c 2C2093E5 		ldr	r2, [r3, #44]	@ float
 2625 0310 843B9FE5 		ldr	r3, .L438+80
 2626 0314 002083E5 		str	r2, [r3, #0]	@ float
 2627 0318 803B9FE5 		ldr	r3, .L438+84
 2628 031c 004083E5 		str	r4, [r3, #0]	@ float
 2629 0320 803B9FE5 		ldr	r3, .L438+92
 2630 0324 0410A0E3 		mov	r1, #4
 2631 0328 002093E5 		ldr	r2, [r3, #0]	@ float
 2632 032c FEFFFFEB 		bl	nav_eight
 2633 0330 B40200EA 		b	.L263
 2634              	.L270:
 2635 0334 1C5B9FE5 		ldr	r5, .L438+12
 2636 0338 0030D5E5 		ldrb	r3, [r5, #0]	@ zero_extendqisi2
 2637 033c 000053E3 		cmp	r3, #0
 2638 0340 0500000A 		beq	.L305
 2639 0344 010053E3 		cmp	r3, #1
 2640 0348 0230A013 		movne	r3, #2
 2641 034c 0030C515 		strneb	r3, [r5, #0]
 2642 0350 0720A013 		movne	r2, #7
 2643 0354 9E02001A 		bne	.L416
 2644 0358 010000EA 		b	.L432
 2645              	.L305:
 2646 035c FEFFFFEB 		bl	nav_oval_init
 2647 0360 800100EA 		b	.L425
 2648              	.L432:
 2649 0364 1C3B9FE5 		ldr	r3, .L438+60
 2650 0368 0020A0E3 		mov	r2, #0
 2651 036c 0020C3E5 		strb	r2, [r3, #0]
 2652 0370 183B9FE5 		ldr	r3, .L438+68
 2653 0374 004083E5 		str	r4, [r3, #0]	@ float
 2654 0378 143B9FE5 		ldr	r3, .L438+72
 2655 037c 0310A0E3 		mov	r1, #3
 2656 0380 0010C3E5 		strb	r1, [r3, #0]
 2657 0384 F03A9FE5 		ldr	r3, .L438+48
 2658 0388 2C2093E5 		ldr	r2, [r3, #44]	@ float
 2659 038c 083B9FE5 		ldr	r3, .L438+80
 2660 0390 002083E5 		str	r2, [r3, #0]	@ float
 2661 0394 043B9FE5 		ldr	r3, .L438+84
 2662 0398 004083E5 		str	r4, [r3, #0]	@ float
 2663 039c 043B9FE5 		ldr	r3, .L438+92
 2664 03a0 0400A0E3 		mov	r0, #4
 2665 03a4 002093E5 		ldr	r2, [r3, #0]	@ float
 2666 03a8 FEFFFFEB 		bl	nav_oval
 2667 03ac 950200EA 		b	.L263
 2668              	.L271:
 2669 03b0 A05A9FE5 		ldr	r5, .L438+12
 2670 03b4 0030D5E5 		ldrb	r3, [r5, #0]	@ zero_extendqisi2
 2671 03b8 010053E3 		cmp	r3, #1
 2672 03bc 0E00000A 		beq	.L309
 2673 03c0 0500003A 		bcc	.L308
 2674 03c4 020053E3 		cmp	r3, #2
 2675 03c8 0330A013 		movne	r3, #3
 2676 03cc 0030C515 		strneb	r3, [r5, #0]
 2677 03d0 0820A013 		movne	r2, #8
 2678 03d4 7E02001A 		bne	.L416
 2679 03d8 0C0000EA 		b	.L433
 2680              	.L308:
 2681 03dc FEFFFFEB 		bl	stateGetPositionEnu_f
 2682 03e0 944A9FE5 		ldr	r4, .L438+48
 2683 03e4 003090E5 		ldr	r3, [r0, #0]	@ float
 2684 03e8 3C3084E5 		str	r3, [r4, #60]	@ float
 2685 03ec FEFFFFEB 		bl	stateGetPositionEnu_f
 2686 03f0 043090E5 		ldr	r3, [r0, #4]	@ float
 2687 03f4 403084E5 		str	r3, [r4, #64]	@ float
 2688 03f8 5A0100EA 		b	.L425
 2689              	.L309:
 2690 03fc A43A9FE5 		ldr	r3, .L438+92
 2691 0400 A42A9FE5 		ldr	r2, .L438+96
 2692 0404 002083E5 		str	r2, [r3, #0]	@ float
 2693 0408 0230A0E3 		mov	r3, #2
 2694 040c 570100EA 		b	.L414
 2695              	.L433:
 2696 0410 703A9FE5 		ldr	r3, .L438+60
 2697 0414 0020A0E3 		mov	r2, #0
 2698 0418 0020C3E5 		strb	r2, [r3, #0]
 2699 041c 6C3A9FE5 		ldr	r3, .L438+68
 2700 0420 004083E5 		str	r4, [r3, #0]	@ float
 2701 0424 683A9FE5 		ldr	r3, .L438+72
 2702 0428 0320A0E3 		mov	r2, #3
 2703 042c 0020C3E5 		strb	r2, [r3, #0]
 2704 0430 443A9FE5 		ldr	r3, .L438+48
 2705 0434 602A9FE5 		ldr	r2, .L438+80
 2706 0438 441093E5 		ldr	r1, [r3, #68]	@ float
 2707 043c 001082E5 		str	r1, [r2, #0]	@ float
 2708 0440 582A9FE5 		ldr	r2, .L438+84
 2709 0444 3C0093E5 		ldr	r0, [r3, #60]	@ float
 2710 0448 004082E5 		str	r4, [r2, #0]	@ float
 2711 044c 401093E5 		ldr	r1, [r3, #64]	@ float
 2712              	.L408:
 2713 0450 503A9FE5 		ldr	r3, .L438+92
 2714 0454 002093E5 		ldr	r2, [r3, #0]	@ float
 2715 0458 FEFFFFEB 		bl	nav_circle_XY
 2716 045c 690200EA 		b	.L263
 2717              	.L272:
 2718 0460 F0499FE5 		ldr	r4, .L438+12
 2719 0464 0030D4E5 		ldrb	r3, [r4, #0]	@ zero_extendqisi2
 2720 0468 000053E3 		cmp	r3, #0
 2721 046c 0500000A 		beq	.L312
 2722 0470 010053E3 		cmp	r3, #1
 2723 0474 0230A013 		movne	r3, #2
 2724 0478 0030C415 		strneb	r3, [r4, #0]
 2725 047c 0920A013 		movne	r2, #9
 2726 0480 5302001A 		bne	.L416
 2727 0484 010000EA 		b	.L434
 2728              	.L312:
 2729 0488 FEFFFFEB 		bl	nav_line_init
 2730 048c 040000EA 		b	.L424
 2731              	.L434:
 2732 0490 103A9FE5 		ldr	r3, .L438+92
 2733 0494 0300A0E3 		mov	r0, #3
 2734 0498 0410A0E3 		mov	r1, #4
 2735 049c 002093E5 		ldr	r2, [r3, #0]	@ float
 2736 04a0 FEFFFFEB 		bl	nav_line
 2737              	.L424:
 2738 04a4 000050E3 		cmp	r0, #0
 2739 04a8 5602001A 		bne	.L263
 2740 04ac 0D0000EA 		b	.L422
 2741              	.L273:
 2742 04b0 A0499FE5 		ldr	r4, .L438+12
 2743 04b4 0030D4E5 		ldrb	r3, [r4, #0]	@ zero_extendqisi2
 2744 04b8 000053E3 		cmp	r3, #0
 2745 04bc 0500000A 		beq	.L315
 2746 04c0 010053E3 		cmp	r3, #1
 2747 04c4 0230A013 		movne	r3, #2
 2748 04c8 0030C415 		strneb	r3, [r4, #0]
 2749 04cc 0A20A013 		movne	r2, #10
 2750 04d0 3F02001A 		bne	.L416
 2751 04d4 060000EA 		b	.L435
 2752              	.L315:
 2753 04d8 0600A0E3 		mov	r0, #6
 2754 04dc 0710A0E3 		mov	r1, #7
 2755 04e0 C8299FE5 		ldr	r2, .L438+100
 2756 04e4 FEFFFFEB 		bl	nav_survey_rectangle_init
 2757              	.L422:
 2758 04e8 0030D4E5 		ldrb	r3, [r4, #0]	@ zero_extendqisi2
 2759 04ec 013083E2 		add	r3, r3, #1
 2760 04f0 31FFFFEA 		b	.L412
 2761              	.L435:
 2762 04f4 0600A0E3 		mov	r0, #6
 2763 04f8 0710A0E3 		mov	r1, #7
 2764 04fc FEFFFFEB 		bl	nav_survey_rectangle
 2765 0500 400200EA 		b	.L263
 2766              	.L274:
 2767 0504 4C199FE5 		ldr	r1, .L438+12
 2768 0508 0020D1E5 		ldrb	r2, [r1, #0]	@ zero_extendqisi2
 2769 050c 040052E3 		cmp	r2, #4
 2770 0510 02F19F97 		ldrls	pc, [pc, r2, asl #2]
 2771 0514 750000EA 		b	.L317
 2772              	.L323:
 2773 0518 2C050000 		.word	.L318
 2774 051c 90050000 		.word	.L319
 2775 0520 F4050000 		.word	.L320
 2776 0524 60060000 		.word	.L321
 2777 0528 E8060000 		.word	.L322
 2778              	.L318:
 2779 052c 44399FE5 		ldr	r3, .L438+44
 2780 0530 44599FE5 		ldr	r5, .L438+48
 2781 0534 00308DE5 		str	r3, [sp, #0]	@ float
 2782 0538 242095E5 		ldr	r2, [r5, #36]	@ float
 2783 053c 300095E5 		ldr	r0, [r5, #48]	@ float
 2784 0540 341095E5 		ldr	r1, [r5, #52]	@ float
 2785 0544 283095E5 		ldr	r3, [r5, #40]	@ float
 2786 0548 FEFFFFEB 		bl	nav_approaching_xy
 2787 054c 006050E2 		subs	r6, r0, #0
 2788 0550 0420A013 		movne	r2, #4
 2789 0554 4C00001A 		bne	.L426
 2790 0558 302095E5 		ldr	r2, [r5, #48]	@ float
 2791 055c 343095E5 		ldr	r3, [r5, #52]	@ float
 2792 0560 240095E5 		ldr	r0, [r5, #36]	@ float
 2793 0564 281095E5 		ldr	r1, [r5, #40]	@ float
 2794 0568 FEFFFFEB 		bl	nav_route_xy
 2795 056c 14399FE5 		ldr	r3, .L438+60
 2796 0570 0060C3E5 		strb	r6, [r3, #0]
 2797 0574 14399FE5 		ldr	r3, .L438+68
 2798 0578 004083E5 		str	r4, [r3, #0]	@ float
 2799 057c 10399FE5 		ldr	r3, .L438+72
 2800 0580 0320A0E3 		mov	r2, #3
 2801 0584 0020C3E5 		strb	r2, [r3, #0]
 2802 0588 382095E5 		ldr	r2, [r5, #56]	@ float
 2803 058c 500000EA 		b	.L409
 2804              	.L319:
 2805 0590 E0389FE5 		ldr	r3, .L438+44
 2806 0594 E0589FE5 		ldr	r5, .L438+48
 2807 0598 00308DE5 		str	r3, [sp, #0]	@ float
 2808 059c 302095E5 		ldr	r2, [r5, #48]	@ float
 2809 05a0 480095E5 		ldr	r0, [r5, #72]	@ float
 2810 05a4 4C1095E5 		ldr	r1, [r5, #76]	@ float
 2811 05a8 343095E5 		ldr	r3, [r5, #52]	@ float
 2812 05ac FEFFFFEB 		bl	nav_approaching_xy
 2813 05b0 006050E2 		subs	r6, r0, #0
 2814 05b4 0620A013 		movne	r2, #6
 2815 05b8 3300001A 		bne	.L426
 2816 05bc 482095E5 		ldr	r2, [r5, #72]	@ float
 2817 05c0 4C3095E5 		ldr	r3, [r5, #76]	@ float
 2818 05c4 300095E5 		ldr	r0, [r5, #48]	@ float
 2819 05c8 341095E5 		ldr	r1, [r5, #52]	@ float
 2820 05cc FEFFFFEB 		bl	nav_route_xy
 2821 05d0 B0389FE5 		ldr	r3, .L438+60
 2822 05d4 0060C3E5 		strb	r6, [r3, #0]
 2823 05d8 B0389FE5 		ldr	r3, .L438+68
 2824 05dc 004083E5 		str	r4, [r3, #0]	@ float
 2825 05e0 AC389FE5 		ldr	r3, .L438+72
 2826 05e4 0320A0E3 		mov	r2, #3
 2827 05e8 0020C3E5 		strb	r2, [r3, #0]
 2828 05ec 502095E5 		ldr	r2, [r5, #80]	@ float
 2829 05f0 370000EA 		b	.L409
 2830              	.L320:
 2831 05f4 FE35A0E3 		mov	r3, #1065353216
 2832 05f8 00308DE5 		str	r3, [sp, #0]	@ float
 2833 05fc 78589FE5 		ldr	r5, .L438+48
 2834 0600 482095E5 		ldr	r2, [r5, #72]	@ float
 2835 0604 540095E5 		ldr	r0, [r5, #84]	@ float
 2836 0608 581095E5 		ldr	r1, [r5, #88]	@ float
 2837 060c 4C3095E5 		ldr	r3, [r5, #76]	@ float
 2838 0610 FEFFFFEB 		bl	nav_approaching_xy
 2839 0614 000050E3 		cmp	r0, #0
 2840 0618 0720A013 		movne	r2, #7
 2841 061c 1A00001A 		bne	.L426
 2842 0620 542095E5 		ldr	r2, [r5, #84]	@ float
 2843 0624 583095E5 		ldr	r3, [r5, #88]	@ float
 2844 0628 480095E5 		ldr	r0, [r5, #72]	@ float
 2845 062c 4C1095E5 		ldr	r1, [r5, #76]	@ float
 2846 0630 FEFFFFEB 		bl	nav_route_xy
 2847 0634 4C389FE5 		ldr	r3, .L438+60
 2848 0638 0120A0E3 		mov	r2, #1
 2849 063c 0020C3E5 		strb	r2, [r3, #0]
 2850 0640 50389FE5 		ldr	r3, .L438+76
 2851 0644 0F2CA0E3 		mov	r2, #3840
 2852 0648 B020C3E1 		strh	r2, [r3, #0]	@ movhi
 2853 064c 40389FE5 		ldr	r3, .L438+72
 2854 0650 0320A0E3 		mov	r2, #3
 2855 0654 0020C3E5 		strb	r2, [r3, #0]
 2856 0658 5C2095E5 		ldr	r2, [r5, #92]	@ float
 2857 065c 1C0000EA 		b	.L409
 2858              	.L321:
 2859 0660 FE35A0E3 		mov	r3, #1065353216
 2860 0664 00308DE5 		str	r3, [sp, #0]	@ float
 2861 0668 0C589FE5 		ldr	r5, .L438+48
 2862 066c 180095E5 		ldr	r0, [r5, #24]	@ float
 2863 0670 1C1095E5 		ldr	r1, [r5, #28]	@ float
 2864 0674 542095E5 		ldr	r2, [r5, #84]	@ float
 2865 0678 583095E5 		ldr	r3, [r5, #88]	@ float
 2866 067c FEFFFFEB 		bl	nav_approaching_xy
 2867 0680 000050E3 		cmp	r0, #0
 2868 0684 0300000A 		beq	.L327
 2869 0688 0220A0E3 		mov	r2, #2
 2870              	.L426:
 2871 068c EC379FE5 		ldr	r3, .L438+52
 2872 0690 0020C3E5 		strb	r2, [r3, #0]
 2873 0694 470100EA 		b	.L420
 2874              	.L327:
 2875 0698 182095E5 		ldr	r2, [r5, #24]	@ float
 2876 069c 1C3095E5 		ldr	r3, [r5, #28]	@ float
 2877 06a0 540095E5 		ldr	r0, [r5, #84]	@ float
 2878 06a4 581095E5 		ldr	r1, [r5, #88]	@ float
 2879 06a8 FEFFFFEB 		bl	nav_route_xy
 2880 06ac D4379FE5 		ldr	r3, .L438+60
 2881 06b0 0120A0E3 		mov	r2, #1
 2882 06b4 0020C3E5 		strb	r2, [r3, #0]
 2883 06b8 D8379FE5 		ldr	r3, .L438+76
 2884 06bc 0F2CA0E3 		mov	r2, #3840
 2885 06c0 B020C3E1 		strh	r2, [r3, #0]	@ movhi
 2886 06c4 C8379FE5 		ldr	r3, .L438+72
 2887 06c8 0320A0E3 		mov	r2, #3
 2888 06cc 0020C3E5 		strb	r2, [r3, #0]
 2889 06d0 202095E5 		ldr	r2, [r5, #32]	@ float
 2890              	.L409:
 2891 06d4 C0379FE5 		ldr	r3, .L438+80
 2892 06d8 002083E5 		str	r2, [r3, #0]	@ float
 2893 06dc BC379FE5 		ldr	r3, .L438+84
 2894 06e0 004083E5 		str	r4, [r3, #0]	@ float
 2895 06e4 C70100EA 		b	.L263
 2896              	.L322:
 2897 06e8 0420A0E3 		mov	r2, #4
 2898 06ec C30100EA 		b	.L405
 2899              	.L317:
 2900 06f0 0520A0E3 		mov	r2, #5
 2901 06f4 0020C1E5 		strb	r2, [r1, #0]
 2902 06f8 0B20A0E3 		mov	r2, #11
 2903 06fc BF0100EA 		b	.L405
 2904              	.L275:
 2905 0700 50279FE5 		ldr	r2, .L438+12
 2906 0704 0010D2E5 		ldrb	r1, [r2, #0]	@ zero_extendqisi2
 2907 0708 000051E3 		cmp	r1, #0
 2908 070c 98179F05 		ldreq	r1, .L438+96
 2909 0710 0F00000A 		beq	.L413
 2910 0714 010051E3 		cmp	r1, #1
 2911 0718 0230A013 		movne	r3, #2
 2912 071c 0030C215 		strneb	r3, [r2, #0]
 2913 0720 0C20A013 		movne	r2, #12
 2914 0724 AA01001A 		bne	.L416
 2915 0728 0D20A0E3 		mov	r2, #13
 2916 072c B30100EA 		b	.L405
 2917              	.L276:
 2918 0730 20279FE5 		ldr	r2, .L438+12
 2919 0734 0010D2E5 		ldrb	r1, [r2, #0]	@ zero_extendqisi2
 2920 0738 000051E3 		cmp	r1, #0
 2921 073c 70179F05 		ldreq	r1, .L438+104
 2922 0740 0300000A 		beq	.L413
 2923 0744 010051E3 		cmp	r1, #1
 2924 0748 0D10A0E3 		mov	r1, #13
 2925 074c 0500001A 		bne	.L396
 2926 0750 070000EA 		b	.L418
 2927              	.L413:
 2928 0754 4C379FE5 		ldr	r3, .L438+92
 2929 0758 001083E5 		str	r1, [r3, #0]	@ float
 2930 075c 0130A0E3 		mov	r3, #1
 2931 0760 0030C2E5 		strb	r3, [r2, #0]
 2932 0764 760100EA 		b	.L407
 2933              	.L396:
 2934 0768 0230A0E3 		mov	r3, #2
 2935 076c 0030C2E5 		strb	r3, [r2, #0]
 2936 0770 DC369FE5 		ldr	r3, .L438+8
 2937              	.L418:
 2938 0774 0010C3E5 		strb	r1, [r3, #0]
 2939 0778 A10100EA 		b	.L410
 2940              	.L277:
 2941 077c D4569FE5 		ldr	r5, .L438+12
 2942 0780 0030D5E5 		ldrb	r3, [r5, #0]	@ zero_extendqisi2
 2943 0784 010053E3 		cmp	r3, #1
 2944 0788 5700000A 		beq	.L336
 2945 078c 0500003A 		bcc	.L335
 2946 0790 020053E3 		cmp	r3, #2
 2947 0794 0330A013 		movne	r3, #3
 2948 0798 0030C515 		strneb	r3, [r5, #0]
 2949 079c 0E20A013 		movne	r2, #14
 2950 07a0 8B01001A 		bne	.L416
 2951 07a4 730000EA 		b	.L436
 2952              	.L335:
 2953 07a8 CC569FE5 		ldr	r5, .L438+48
 2954 07ac 601095E5 		ldr	r1, [r5, #96]	@ float
 2955 07b0 6C0095E5 		ldr	r0, [r5, #108]	@ float
 2956 07b4 FEFFFFEB 		bl	__aeabi_fsub
 2957 07b8 641095E5 		ldr	r1, [r5, #100]	@ float
 2958 07bc 0060A0E1 		mov	r6, r0
 2959 07c0 700095E5 		ldr	r0, [r5, #112]	@ float
 2960 07c4 FEFFFFEB 		bl	__aeabi_fsub
 2961 07c8 0610A0E1 		mov	r1, r6
 2962 07cc 0040A0E1 		mov	r4, r0
 2963 07d0 0600A0E1 		mov	r0, r6
 2964 07d4 FEFFFFEB 		bl	__aeabi_fmul
 2965 07d8 0410A0E1 		mov	r1, r4
 2966 07dc 0070A0E1 		mov	r7, r0
 2967 07e0 0400A0E1 		mov	r0, r4
 2968 07e4 FEFFFFEB 		bl	__aeabi_fmul
 2969 07e8 0010A0E1 		mov	r1, r0
 2970 07ec 0700A0E1 		mov	r0, r7
 2971 07f0 FEFFFFEB 		bl	__aeabi_fadd
 2972 07f4 FEFFFFEB 		bl	__aeabi_f2d
 2973 07f8 FEFFFFEB 		bl	sqrt
 2974 07fc FEFFFFEB 		bl	__aeabi_d2f
 2975 0800 0070A0E1 		mov	r7, r0
 2976 0804 0710A0E1 		mov	r1, r7
 2977 0808 0600A0E1 		mov	r0, r6
 2978 080c FEFFFFEB 		bl	__aeabi_fdiv
 2979 0810 0710A0E1 		mov	r1, r7
 2980 0814 0080A0E1 		mov	r8, r0
 2981 0818 0400A0E1 		mov	r0, r4
 2982 081c FEFFFFEB 		bl	__aeabi_fdiv
 2983 0820 80469FE5 		ldr	r4, .L438+92
 2984 0824 006094E5 		ldr	r6, [r4, #0]	@ float
 2985 0828 0610A0E1 		mov	r1, r6
 2986 082c 0070A0E1 		mov	r7, r0
 2987 0830 FEFFFFEB 		bl	__aeabi_fmul
 2988 0834 0010A0E1 		mov	r1, r0
 2989 0838 600095E5 		ldr	r0, [r5, #96]	@ float
 2990 083c FEFFFFEB 		bl	__aeabi_fadd
 2991 0840 0610A0E1 		mov	r1, r6
 2992 0844 780085E5 		str	r0, [r5, #120]	@ float
 2993 0848 0800A0E1 		mov	r0, r8
 2994 084c FEFFFFEB 		bl	__aeabi_fmul
 2995 0850 0010A0E1 		mov	r1, r0
 2996 0854 640095E5 		ldr	r0, [r5, #100]	@ float
 2997 0858 FEFFFFEB 		bl	__aeabi_fsub
 2998 085c 683095E5 		ldr	r3, [r5, #104]	@ float
 2999 0860 7C0085E5 		str	r0, [r5, #124]	@ float
 3000 0864 803085E5 		str	r3, [r5, #128]	@ float
 3001 0868 020187E2 		add	r0, r7, #-2147483648
 3002 086c FEFFFFEB 		bl	__aeabi_f2d
 3003 0870 0060A0E1 		mov	r6, r0
 3004 0874 020188E2 		add	r0, r8, #-2147483648
 3005 0878 0170A0E1 		mov	r7, r1
 3006 087c FEFFFFEB 		bl	__aeabi_f2d
 3007 0880 0020A0E1 		mov	r2, r0
 3008 0884 0130A0E1 		mov	r3, r1
 3009 0888 0600A0E1 		mov	r0, r6
 3010 088c 0710A0E1 		mov	r1, r7
 3011 0890 FEFFFFEB 		bl	atan2
 3012 0894 0020A0E1 		mov	r2, r0
 3013 0898 0130A0E1 		mov	r3, r1
 3014 089c 14069FE5 		ldr	r0, .L438+108
 3015 08a0 14169FE5 		ldr	r1, .L438+112
 3016 08a4 FEFFFFEB 		bl	__aeabi_dsub
 3017 08a8 FEFFFFEB 		bl	__aeabi_d2f
 3018 08ac 0C569FE5 		ldr	r5, .L438+116
 3019 08b0 0060A0E1 		mov	r6, r0
 3020 08b4 000085E5 		str	r0, [r5, #0]	@ float
 3021 08b8 0010A0E3 		mov	r1, #0
 3022 08bc 000094E5 		ldr	r0, [r4, #0]	@ float
 3023 08c0 FEFFFFEB 		bl	__aeabi_fcmplt
 3024 08c4 000050E3 		cmp	r0, #0
 3025 08c8 BA00000A 		beq	.L420
 3026 08cc 0600A0E1 		mov	r0, r6
 3027 08d0 FEFFFFEB 		bl	__aeabi_f2d
 3028 08d4 DC259FE5 		ldr	r2, .L438+108
 3029 08d8 DC359FE5 		ldr	r3, .L438+112
 3030 08dc FEFFFFEB 		bl	__aeabi_dadd
 3031 08e0 FEFFFFEB 		bl	__aeabi_d2f
 3032 08e4 000085E5 		str	r0, [r5, #0]	@ float
 3033 08e8 B20000EA 		b	.L420
 3034              	.L336:
 3035 08ec 94359FE5 		ldr	r3, .L438+60
 3036 08f0 0020A0E3 		mov	r2, #0
 3037 08f4 0020C3E5 		strb	r2, [r3, #0]
 3038 08f8 90359FE5 		ldr	r3, .L438+68
 3039 08fc 004083E5 		str	r4, [r3, #0]	@ float
 3040 0900 8C359FE5 		ldr	r3, .L438+72
 3041 0904 0320A0E3 		mov	r2, #3
 3042 0908 0020C3E5 		strb	r2, [r3, #0]
 3043 090c 68359FE5 		ldr	r3, .L438+48
 3044 0910 84259FE5 		ldr	r2, .L438+80
 3045 0914 801093E5 		ldr	r1, [r3, #128]	@ float
 3046 0918 780093E5 		ldr	r0, [r3, #120]	@ float
 3047 091c 001082E5 		str	r1, [r2, #0]	@ float
 3048 0920 7C1093E5 		ldr	r1, [r3, #124]	@ float
 3049 0924 74259FE5 		ldr	r2, .L438+84
 3050 0928 78359FE5 		ldr	r3, .L438+92
 3051 092c 004082E5 		str	r4, [r2, #0]	@ float
 3052 0930 002093E5 		ldr	r2, [r3, #0]	@ float
 3053 0934 FEFFFFEB 		bl	nav_circle_XY
 3054 0938 84359FE5 		ldr	r3, .L438+120
 3055 093c 000093E5 		ldr	r0, [r3, #0]
 3056 0940 0201C0E3 		bic	r0, r0, #-2147483648
 3057 0944 FEFFFFEB 		bl	__aeabi_f2d
 3058 0948 68259FE5 		ldr	r2, .L438+108
 3059 094c 74359FE5 		ldr	r3, .L438+124
 3060 0950 FEFFFFEB 		bl	__aeabi_ddiv
 3061 0954 0020A0E3 		mov	r2, #0
 3062 0958 6C359FE5 		ldr	r3, .L438+128
 3063 095c FEFFFFEB 		bl	__aeabi_dcmpgt
 3064 0960 000050E3 		cmp	r0, #0
 3065 0964 2701000A 		beq	.L263
 3066              	.L425:
 3067 0968 0030D5E5 		ldrb	r3, [r5, #0]	@ zero_extendqisi2
 3068 096c 013083E2 		add	r3, r3, #1
 3069              	.L414:
 3070 0970 0030C5E5 		strb	r3, [r5, #0]
 3071 0974 F20000EA 		b	.L407
 3072              	.L436:
 3073 0978 08359FE5 		ldr	r3, .L438+60
 3074 097c 0050A0E3 		mov	r5, #0
 3075 0980 0050C3E5 		strb	r5, [r3, #0]
 3076 0984 04359FE5 		ldr	r3, .L438+68
 3077 0988 004083E5 		str	r4, [r3, #0]	@ float
 3078 098c 00359FE5 		ldr	r3, .L438+72
 3079 0990 0320A0E3 		mov	r2, #3
 3080 0994 0020C3E5 		strb	r2, [r3, #0]
 3081 0998 DC349FE5 		ldr	r3, .L438+48
 3082 099c F8249FE5 		ldr	r2, .L438+80
 3083 09a0 801093E5 		ldr	r1, [r3, #128]	@ float
 3084 09a4 001082E5 		str	r1, [r2, #0]	@ float
 3085 09a8 F0249FE5 		ldr	r2, .L438+84
 3086 09ac 004082E5 		str	r4, [r2, #0]	@ float
 3087 09b0 F0449FE5 		ldr	r4, .L438+92
 3088 09b4 780093E5 		ldr	r0, [r3, #120]	@ float
 3089 09b8 002094E5 		ldr	r2, [r4, #0]	@ float
 3090 09bc 7C1093E5 		ldr	r1, [r3, #124]	@ float
 3091 09c0 FEFFFFEB 		bl	nav_circle_XY
 3092 09c4 F4349FE5 		ldr	r3, .L438+116
 3093 09c8 000093E5 		ldr	r0, [r3, #0]	@ float
 3094 09cc FEFFFFEB 		bl	__aeabi_f2d
 3095 09d0 F8249FE5 		ldr	r2, .L438+132
 3096 09d4 F8349FE5 		ldr	r3, .L438+136
 3097 09d8 FEFFFFEB 		bl	__aeabi_dmul
 3098 09dc 004094E5 		ldr	r4, [r4, #0]	@ float
 3099 09e0 0080A0E1 		mov	r8, r0
 3100 09e4 0400A0E1 		mov	r0, r4
 3101 09e8 0190A0E1 		mov	r9, r1
 3102 09ec FEFFFFEB 		bl	__aeabi_f2d
 3103 09f0 0060A0E1 		mov	r6, r0
 3104 09f4 0201C4E3 		bic	r0, r4, #-2147483648
 3105 09f8 0170A0E1 		mov	r7, r1
 3106 09fc FEFFFFEB 		bl	__aeabi_f2d
 3107 0a00 0020A0E1 		mov	r2, r0
 3108 0a04 0130A0E1 		mov	r3, r1
 3109 0a08 0600A0E1 		mov	r0, r6
 3110 0a0c 0710A0E1 		mov	r1, r7
 3111 0a10 FEFFFFEB 		bl	__aeabi_ddiv
 3112 0a14 0020A0E3 		mov	r2, #0
 3113 0a18 B8349FE5 		ldr	r3, .L438+140
 3114 0a1c FEFFFFEB 		bl	__aeabi_dmul
 3115 0a20 0020A0E1 		mov	r2, r0
 3116 0a24 0130A0E1 		mov	r3, r1
 3117 0a28 0800A0E1 		mov	r0, r8
 3118 0a2c 0910A0E1 		mov	r1, r9
 3119 0a30 FEFFFFEB 		bl	__aeabi_dsub
 3120 0a34 A0349FE5 		ldr	r3, .L438+144
 3121 0a38 0060A0E1 		mov	r6, r0
 3122 0a3c 000093E5 		ldr	r0, [r3, #0]	@ float
 3123 0a40 0170A0E1 		mov	r7, r1
 3124 0a44 FEFFFFEB 		bl	__aeabi_f2d
 3125 0a48 0020A0E1 		mov	r2, r0
 3126 0a4c 0130A0E1 		mov	r3, r1
 3127 0a50 60049FE5 		ldr	r0, .L438+108
 3128 0a54 84149FE5 		ldr	r1, .L438+148
 3129 0a58 FEFFFFEB 		bl	__aeabi_dsub
 3130 0a5c 6C249FE5 		ldr	r2, .L438+132
 3131 0a60 6C349FE5 		ldr	r3, .L438+136
 3132 0a64 FEFFFFEB 		bl	__aeabi_dmul
 3133 0a68 FEFFFFEB 		bl	__aeabi_d2f
 3134 0a6c 020000EA 		b	.L404
 3135              	.L344:
 3136 0a70 0400A0E1 		mov	r0, r4
 3137 0a74 68149FE5 		ldr	r1, .L438+152
 3138 0a78 FEFFFFEB 		bl	__aeabi_fadd
 3139              	.L404:
 3140 0a7c 0010A0E3 		mov	r1, #0
 3141 0a80 0040A0E1 		mov	r4, r0
 3142 0a84 FEFFFFEB 		bl	__aeabi_fcmplt
 3143 0a88 000050E3 		cmp	r0, #0
 3144 0a8c FF8005E2 		and	r8, r5, #255
 3145 0a90 0700000A 		beq	.L398
 3146 0a94 015085E2 		add	r5, r5, #1
 3147 0a98 010C55E3 		cmp	r5, #256
 3148 0a9c F3FFFF1A 		bne	.L344
 3149 0aa0 0080A0E3 		mov	r8, #0
 3150 0aa4 020000EA 		b	.L398
 3151              	.L348:
 3152 0aa8 34149FE5 		ldr	r1, .L438+152
 3153 0aac FEFFFFEB 		bl	__aeabi_fsub
 3154 0ab0 0040A0E1 		mov	r4, r0
 3155              	.L398:
 3156 0ab4 0400A0E1 		mov	r0, r4
 3157 0ab8 24149FE5 		ldr	r1, .L438+152
 3158 0abc FEFFFFEB 		bl	__aeabi_fcmpge
 3159 0ac0 000050E3 		cmp	r0, #0
 3160 0ac4 0400A0E1 		mov	r0, r4
 3161 0ac8 0200000A 		beq	.L346
 3162 0acc 018088E2 		add	r8, r8, #1
 3163 0ad0 FF8018E2 		ands	r8, r8, #255
 3164 0ad4 F3FFFF1A 		bne	.L348
 3165              	.L346:
 3166 0ad8 FEFFFFEB 		bl	__aeabi_f2d
 3167 0adc 0020A0E1 		mov	r2, r0
 3168 0ae0 0130A0E1 		mov	r3, r1
 3169 0ae4 0600A0E1 		mov	r0, r6
 3170 0ae8 0710A0E1 		mov	r1, r7
 3171 0aec FEFFFFEB 		bl	__aeabi_dsub
 3172 0af0 FEFFFFEB 		bl	__aeabi_d2f
 3173 0af4 0050A0E3 		mov	r5, #0
 3174 0af8 0040A0E1 		mov	r4, r0
 3175 0afc 030000EA 		b	.L349
 3176              	.L352:
 3177 0b00 0400A0E1 		mov	r0, r4
 3178 0b04 D8139FE5 		ldr	r1, .L438+152
 3179 0b08 FEFFFFEB 		bl	__aeabi_fadd
 3180 0b0c 0040A0E1 		mov	r4, r0
 3181              	.L349:
 3182 0b10 0400A0E1 		mov	r0, r4
 3183 0b14 0010A0E3 		mov	r1, #0
 3184 0b18 FEFFFFEB 		bl	__aeabi_fcmplt
 3185 0b1c 000050E3 		cmp	r0, #0
 3186 0b20 FF6005E2 		and	r6, r5, #255
 3187 0b24 0700000A 		beq	.L399
 3188 0b28 015085E2 		add	r5, r5, #1
 3189 0b2c 010C55E3 		cmp	r5, #256
 3190 0b30 F2FFFF1A 		bne	.L352
 3191 0b34 0060A0E3 		mov	r6, #0
 3192 0b38 020000EA 		b	.L399
 3193              	.L356:
 3194 0b3c A0139FE5 		ldr	r1, .L438+152
 3195 0b40 FEFFFFEB 		bl	__aeabi_fsub
 3196 0b44 0040A0E1 		mov	r4, r0
 3197              	.L399:
 3198 0b48 0400A0E1 		mov	r0, r4
 3199 0b4c 90139FE5 		ldr	r1, .L438+152
 3200 0b50 FEFFFFEB 		bl	__aeabi_fcmpge
 3201 0b54 000050E3 		cmp	r0, #0
 3202 0b58 0400A0E1 		mov	r0, r4
 3203 0b5c 0200000A 		beq	.L354
 3204 0b60 016086E2 		add	r6, r6, #1
 3205 0b64 FF6016E2 		ands	r6, r6, #255
 3206 0b68 F3FFFF1A 		bne	.L356
 3207              	.L354:
 3208 0b6c 74139FE5 		ldr	r1, .L438+156
 3209 0b70 FEFFFFEB 		bl	__aeabi_fcmpgt
 3210 0b74 000050E3 		cmp	r0, #0
 3211 0b78 0400001A 		bne	.L357
 3212 0b7c 0400A0E1 		mov	r0, r4
 3213 0b80 64139FE5 		ldr	r1, .L438+160
 3214 0b84 FEFFFFEB 		bl	__aeabi_fcmplt
 3215 0b88 000050E3 		cmp	r0, #0
 3216 0b8c 9D00000A 		beq	.L263
 3217              	.L357:
 3218 0b90 FEFFFFEB 		bl	stateGetPositionUtm_f
 3219 0b94 E0329FE5 		ldr	r3, .L438+48
 3220 0b98 080090E5 		ldr	r0, [r0, #8]	@ float
 3221 0b9c 801093E5 		ldr	r1, [r3, #128]	@ float
 3222 0ba0 FEFFFFEB 		bl	__aeabi_fsub
 3223 0ba4 40139FE5 		ldr	r1, .L438+160
 3224 0ba8 0201C0E3 		bic	r0, r0, #-2147483648
 3225 0bac FEFFFFEB 		bl	__aeabi_fcmplt
 3226 0bb0 000050E3 		cmp	r0, #0
 3227 0bb4 9300000A 		beq	.L263
 3228              	.L420:
 3229 0bb8 98329FE5 		ldr	r3, .L438+12
 3230 0bbc 0020D3E5 		ldrb	r2, [r3, #0]	@ zero_extendqisi2
 3231 0bc0 012082E2 		add	r2, r2, #1
 3232 0bc4 5DFDFFEA 		b	.L411
 3233              	.L278:
 3234 0bc8 9C329FE5 		ldr	r3, .L438+32
 3235 0bcc 18139FE5 		ldr	r1, .L438+160
 3236 0bd0 000093E5 		ldr	r0, [r3, #0]	@ float
 3237 0bd4 FEFFFFEB 		bl	__aeabi_fadd
 3238 0bd8 0050A0E1 		mov	r5, r0
 3239 0bdc FEFFFFEB 		bl	stateGetPositionUtm_f
 3240 0be0 0030A0E1 		mov	r3, r0
 3241 0be4 081093E5 		ldr	r1, [r3, #8]	@ float
 3242 0be8 0500A0E1 		mov	r0, r5
 3243 0bec FEFFFFEB 		bl	__aeabi_fcmpgt
 3244 0bf0 000050E3 		cmp	r0, #0
 3245 0bf4 0F20A013 		movne	r2, #15
 3246 0bf8 7500001A 		bne	.L416
 3247 0bfc 54629FE5 		ldr	r6, .L438+12
 3248 0c00 0030D6E5 		ldrb	r3, [r6, #0]	@ zero_extendqisi2
 3249 0c04 000053E3 		cmp	r3, #0
 3250 0c08 0130A013 		movne	r3, #1
 3251 0c0c 0030C615 		strneb	r3, [r6, #0]
 3252 0c10 2E00001A 		bne	.L417
 3253 0c14 5C329FE5 		ldr	r3, .L438+44
 3254 0c18 5C529FE5 		ldr	r5, .L438+48
 3255 0c1c 00308DE5 		str	r3, [sp, #0]	@ float
 3256 0c20 6C0095E5 		ldr	r0, [r5, #108]	@ float
 3257 0c24 701095E5 		ldr	r1, [r5, #112]	@ float
 3258 0c28 602095E5 		ldr	r2, [r5, #96]	@ float
 3259 0c2c 643095E5 		ldr	r3, [r5, #100]	@ float
 3260 0c30 FEFFFFEB 		bl	nav_approaching_xy
 3261 0c34 007050E2 		subs	r7, r0, #0
 3262 0c38 3B00001A 		bne	.L406
 3263              	.L364:
 3264 0c3c 6C2095E5 		ldr	r2, [r5, #108]	@ float
 3265 0c40 600095E5 		ldr	r0, [r5, #96]	@ float
 3266 0c44 641095E5 		ldr	r1, [r5, #100]	@ float
 3267 0c48 703095E5 		ldr	r3, [r5, #112]	@ float
 3268 0c4c FEFFFFEB 		bl	nav_route_xy
 3269 0c50 30329FE5 		ldr	r3, .L438+60
 3270 0c54 0070C3E5 		strb	r7, [r3, #0]
 3271 0c58 30329FE5 		ldr	r3, .L438+68
 3272 0c5c 004083E5 		str	r4, [r3, #0]	@ float
 3273 0c60 684095E5 		ldr	r4, [r5, #104]	@ float
 3274 0c64 740095E5 		ldr	r0, [r5, #116]	@ float
 3275 0c68 0410A0E1 		mov	r1, r4
 3276 0c6c FEFFFFEB 		bl	__aeabi_fsub
 3277 0c70 78329FE5 		ldr	r3, .L438+164
 3278 0c74 001093E5 		ldr	r1, [r3, #0]	@ float
 3279 0c78 0050A0E1 		mov	r5, r0
 3280 0c7c FEFFFFEB 		bl	__aeabi_fmul
 3281 0c80 0010A0E1 		mov	r1, r0
 3282 0c84 0400A0E1 		mov	r0, r4
 3283 0c88 FEFFFFEB 		bl	__aeabi_fadd
 3284 0c8c 0040A0E1 		mov	r4, r0
 3285 0c90 FEFFFFEB 		bl	stateGetHorizontalSpeedNorm_f
 3286 0c94 0030A0E1 		mov	r3, r0
 3287 0c98 001093E5 		ldr	r1, [r3, #0]	@ float
 3288 0c9c 0500A0E1 		mov	r0, r5
 3289 0ca0 FEFFFFEB 		bl	__aeabi_fmul
 3290 0ca4 48329FE5 		ldr	r3, .L438+168
 3291 0ca8 001093E5 		ldr	r1, [r3, #0]	@ float
 3292 0cac FEFFFFEB 		bl	__aeabi_fdiv
 3293 0cb0 DC319FE5 		ldr	r3, .L438+72
 3294 0cb4 0320A0E3 		mov	r2, #3
 3295 0cb8 0020C3E5 		strb	r2, [r3, #0]
 3296 0cbc D8319FE5 		ldr	r3, .L438+80
 3297 0cc0 004083E5 		str	r4, [r3, #0]	@ float
 3298 0cc4 D4319FE5 		ldr	r3, .L438+84
 3299 0cc8 000083E5 		str	r0, [r3, #0]	@ float
 3300 0ccc 4D0000EA 		b	.L263
 3301              	.L417:
 3302 0cd0 7C319FE5 		ldr	r3, .L438+8
 3303 0cd4 0020D3E5 		ldrb	r2, [r3, #0]	@ zero_extendqisi2
 3304 0cd8 012082E2 		add	r2, r2, #1
 3305 0cdc 470000EA 		b	.L405
 3306              	.L279:
 3307 0ce0 70619FE5 		ldr	r6, .L438+12
 3308 0ce4 0030D6E5 		ldrb	r3, [r6, #0]	@ zero_extendqisi2
 3309 0ce8 000053E3 		cmp	r3, #0
 3310 0cec 0500000A 		beq	.L366
 3311 0cf0 010053E3 		cmp	r3, #1
 3312 0cf4 0230A0E3 		mov	r3, #2
 3313 0cf8 0030C615 		strneb	r3, [r6, #0]
 3314 0cfc 1020A013 		movne	r2, #16
 3315 0d00 3300001A 		bne	.L416
 3316 0d04 200000EA 		b	.L437
 3317              	.L366:
 3318 0d08 00408DE5 		str	r4, [sp, #0]	@ float
 3319 0d0c 68519FE5 		ldr	r5, .L438+48
 3320 0d10 6C0095E5 		ldr	r0, [r5, #108]	@ float
 3321 0d14 701095E5 		ldr	r1, [r5, #112]	@ float
 3322 0d18 602095E5 		ldr	r2, [r5, #96]	@ float
 3323 0d1c 643095E5 		ldr	r3, [r5, #100]	@ float
 3324 0d20 FEFFFFEB 		bl	nav_approaching_xy
 3325 0d24 004050E2 		subs	r4, r0, #0
 3326 0d28 0700000A 		beq	.L368
 3327              	.L406:
 3328 0d2c 4C319FE5 		ldr	r3, .L438+52
 3329 0d30 0920A0E3 		mov	r2, #9
 3330 0d34 0020C3E5 		strb	r2, [r3, #0]
 3331 0d38 0030D6E5 		ldrb	r3, [r6, #0]	@ zero_extendqisi2
 3332 0d3c 013083E2 		add	r3, r3, #1
 3333 0d40 0030C6E5 		strb	r3, [r6, #0]
 3334              	.L407:
 3335 0d44 FEFFFFEB 		bl	nav_init_stage
 3336 0d48 2E0000EA 		b	.L263
 3337              	.L368:
 3338 0d4c 6C2095E5 		ldr	r2, [r5, #108]	@ float
 3339 0d50 703095E5 		ldr	r3, [r5, #112]	@ float
 3340 0d54 600095E5 		ldr	r0, [r5, #96]	@ float
 3341 0d58 641095E5 		ldr	r1, [r5, #100]	@ float
 3342 0d5c FEFFFFEB 		bl	nav_route_xy
 3343 0d60 20319FE5 		ldr	r3, .L438+60
 3344 0d64 0040C3E5 		strb	r4, [r3, #0]
 3345 0d68 20319FE5 		ldr	r3, .L438+68
 3346 0d6c 0020A0E3 		mov	r2, #0
 3347 0d70 002083E5 		str	r2, [r3, #0]	@ float
 3348 0d74 18319FE5 		ldr	r3, .L438+72
 3349 0d78 0120A0E3 		mov	r2, #1
 3350 0d7c 0020C3E5 		strb	r2, [r3, #0]
 3351 0d80 10319FE5 		ldr	r3, .L438+76
 3352 0d84 B040C3E1 		strh	r4, [r3, #0]	@ movhi
 3353 0d88 1E0000EA 		b	.L263
 3354              	.L437:
 3355 0d8c D4209FE5 		ldr	r2, .L438+28
 3356 0d90 0030C2E5 		strb	r3, [r2, #0]
 3357              	.L428:
 3358 0d94 5C319FE5 		ldr	r3, .L438+172
 3359 0d98 0030D3E5 		ldrb	r3, [r3, #0]	@ zero_extendqisi2
 3360 0d9c 010053E3 		cmp	r3, #1
 3361 0da0 54319F15 		ldrne	r3, .L438+176
 3362 0da4 DC209FE5 		ldr	r2, .L438+60
 3363 0da8 00408315 		strne	r4, [r3, #0]	@ float
 3364 0dac 0030A0E3 		mov	r3, #0
 3365 0db0 0030C2E5 		strb	r3, [r2, #0]
 3366 0db4 D4209FE5 		ldr	r2, .L438+68
 3367 0db8 004082E5 		str	r4, [r2, #0]	@ float
 3368 0dbc D0209FE5 		ldr	r2, .L438+72
 3369 0dc0 0110A0E3 		mov	r1, #1
 3370 0dc4 0010C2E5 		strb	r1, [r2, #0]
 3371 0dc8 C8209FE5 		ldr	r2, .L438+76
 3372 0dcc B030C2E1 		strh	r3, [r2, #0]	@ movhi
 3373 0dd0 0C0000EA 		b	.L263
 3374              	.L416:
 3375 0dd4 78309FE5 		ldr	r3, .L438+8
 3376 0dd8 080000EA 		b	.L405
 3377              	.L280:
 3378 0ddc 74209FE5 		ldr	r2, .L438+12
 3379 0de0 0010D2E5 		ldrb	r1, [r2, #0]	@ zero_extendqisi2
 3380 0de4 000051E3 		cmp	r1, #0
 3381 0de8 0110A013 		movne	r1, #1
 3382 0dec 0010C215 		strneb	r1, [r2, #0]
 3383 0df0 1120A013 		movne	r2, #17
 3384 0df4 0100001A 		bne	.L405
 3385 0df8 FEFFFFEB 		bl	nav_home
 3386 0dfc 010000EA 		b	.L263
 3387              	.L405:
 3388 0e00 0020C3E5 		strb	r2, [r3, #0]
 3389              	.L410:
 3390 0e04 FEFFFFEB 		bl	nav_init_block
 3391              	.L263:
 3392 0e08 F0309FE5 		ldr	r3, .L438+180
 3393 0e0c 0030D3E5 		ldrb	r3, [r3, #0]	@ zero_extendqisi2
 3394 0e10 000053E3 		cmp	r3, #0
 3395 0e14 E8309F15 		ldrne	r3, .L438+184
 3396 0e18 E8209FE5 		ldr	r2, .L438+188
 3397 0e1c 00309315 		ldrne	r3, [r3, #0]	@ float
 3398 0e20 0030A003 		moveq	r3, #0
 3399 0e24 003082E5 		str	r3, [r2, #0]	@ float
 3400 0e28 64309FE5 		ldr	r3, .L438+72
 3401 0e2c 0030D3E5 		ldrb	r3, [r3, #0]	@ zero_extendqisi2
 3402 0e30 020053E3 		cmp	r3, #2
 3403 0e34 D0309F05 		ldreq	r3, .L438+192
 3404 0e38 0020A003 		moveq	r2, #0
 3405 0e3c 0020C305 		streqb	r2, [r3, #0]
 3406 0e40 0CD08DE2 		add	sp, sp, #12
 3407 0e44 F043BDE8 		ldmfd	sp!, {r4, r5, r6, r7, r8, r9, lr}
 3408 0e48 FEFFFFEA 		b	nav_set_altitude
 3409              	.L439:
 3410              		.align	2
 3411              	.L438:
 3412 0e4c 00000000 		.word	nav_survey_active
 3413 0e50 00000000 		.word	dist2_to_wp
 3414 0e54 00000000 		.word	nav_block
 3415 0e58 00000000 		.word	nav_stage
 3416 0e5c 00000000 		.word	gps
 3417 0e60 00000000 		.word	block_time
 3418 0e64 00000000 		.word	kill_throttle
 3419 0e68 00000000 		.word	lateral_mode
 3420 0e6c 00000000 		.word	ground_alt
 3421 0e70 0000C841 		.word	1103626240
 3422 0e74 00000000 		.word	autopilot_flight_time
 3423 0e78 0000A040 		.word	1084227584
 3424 0e7c 00000000 		.word	.LANCHOR7
 3425 0e80 00000000 		.word	.LANCHOR15
 3426 0e84 00000000 		.word	horizontal_mode
 3427 0e88 00000000 		.word	v_ctl_climb_mode
 3428 0e8c 920A863E 		.word	1048971922
 3429 0e90 00000000 		.word	nav_pitch
 3430 0e94 00000000 		.word	v_ctl_mode
 3431 0e98 00000000 		.word	nav_throttle_setpoint
 3432 0e9c 00000000 		.word	.LANCHOR0
 3433 0ea0 00000000 		.word	v_ctl_altitude_pre_climb
 3434 0ea4 00000000 		.word	.LANCHOR14
 3435 0ea8 00000000 		.word	nav_radius
 3436 0eac 0000A042 		.word	1117782016
 3437 0eb0 00001643 		.word	1125515264
 3438 0eb4 0000A0C2 		.word	-1029701632
 3439 0eb8 182D4454 		.word	1413754136
 3440 0ebc FB210940 		.word	1074340347
 3441 0ec0 00000000 		.word	.LANCHOR16
 3442 0ec4 00000000 		.word	nav_circle_radians
 3443 0ec8 FB211940 		.word	1075388923
 3444 0ecc 0000E03F 		.word	1071644672
 3445 0ed0 F8C1631A 		.word	442745336
 3446 0ed4 DCA54C40 		.word	1078765020
 3447 0ed8 00002440 		.word	1076101120
 3448 0edc 00000000 		.word	nav_circle_trigo_qdr
 3449 0ee0 FB21F93F 		.word	1073291771
 3450 0ee4 0000B443 		.word	1135869952
 3451 0ee8 0000AF43 		.word	1135542272
 3452 0eec 00002041 		.word	1092616192
 3453 0ef0 00000000 		.word	.LANCHOR6
 3454 0ef4 00000000 		.word	.LANCHOR5
 3455 0ef8 00000000 		.word	pprz_mode
 3456 0efc 00000000 		.word	h_ctl_roll_setpoint
 3457 0f00 00000000 		.word	.LANCHOR2
 3458 0f04 00000000 		.word	.LANCHOR4
 3459 0f08 00000000 		.word	h_ctl_course_pre_bank
 3460 0f0c 00000000 		.word	v_ctl_auto_throttle_submode
 3462              		.comm	nav_oval_count,1,1
 3463              		.global	max_dist_from_home
 3464              		.global	nav_utm_zone0
 3465              		.global	nav_utm_north0
 3466              		.global	nav_utm_east0
 3467              		.comm	ground_alt,4,4
 3468              		.global	waypoints
 3469              		.global	nb_waypoint
 3470              		.comm	too_far_from_home,1,1
 3471              		.comm	dist2_to_wp,4,4
 3472              		.comm	dist2_to_home,4,4
 3473              		.comm	fp_pitch,4,4
 3474              		.comm	nav_pitch,4,4
 3475              		.comm	nav_throttle_setpoint,2,2
 3476              		.comm	desired_y,4,4
 3477              		.comm	desired_x,4,4
 3478              		.global	nav_altitude
 3479              		.comm	nav_mode,4,4
 3480              		.comm	nav_survey_active,1,1
 3481              		.comm	nav_survey_south,4,4
 3482              		.comm	nav_survey_north,4,4
 3483              		.comm	nav_survey_east,4,4
 3484              		.comm	nav_survey_west,4,4
 3485              		.comm	nav_survey_shift,4,4
 3486              		.comm	nav_ground_speed_pgain,4,4
 3487              		.comm	nav_ground_speed_setpoint,4,4
 3488              		.comm	nav_glide_pitch_trim,4,4
 3489              		.comm	flight_altitude,4,4
 3490              		.global	circle_bank
 3491              		.comm	horizontal_mode,1,1
 3492              		.comm	nav_segment_y_2,4,4
 3493              		.comm	nav_segment_x_2,4,4
 3494              		.comm	nav_segment_y_1,4,4
 3495              		.comm	nav_segment_x_1,4,4
 3496              		.comm	nav_circle_radius,4,4
 3497              		.comm	nav_circle_y,4,4
 3498              		.comm	nav_circle_x,4,4
 3499              		.global	nav_in_segment
 3500              		.global	nav_in_circle
 3501              		.comm	nav_shift,4,4
 3502              		.comm	nav_climb,4,4
 3503              		.comm	nav_course,4,4
 3504              		.comm	nav_radius,4,4
 3505              		.comm	nav_circle_trigo_qdr,4,4
 3506              		.comm	nav_circle_radians,4,4
 3507              		.comm	carrot_y,4,4
 3508              		.comm	carrot_x,4,4
 3509              		.comm	rc_pitch,4,4
 3510              		.comm	last_y,4,4
 3511              		.comm	last_x,4,4
 3512              		.comm	oval_status,1,1
 3513              		.section	.bss.prescaler.4443,"aw",%nobits
 3514              		.align	1
 3515              		.set	.LANCHOR12,. + 0
 3518              	prescaler.4443:
 3519 0000 0000     		.space	2
 3520              		.section	.bss.previous_ground_alt,"aw",%nobits
 3521              		.align	2
 3522              		.set	.LANCHOR11,. + 0
 3525              	previous_ground_alt:
 3526 0000 00000000 		.space	4
 3527              		.section	.bss.baseleg_out_qdr,"aw",%nobits
 3528              		.align	2
 3529              		.set	.LANCHOR16,. + 0
 3532              	baseleg_out_qdr:
 3533 0000 00000000 		.space	4
 3534              		.section	.bss.last_nav_altitude.4455,"aw",%nobits
 3535              		.align	2
 3536              		.set	.LANCHOR1,. + 0
 3539              	last_nav_altitude.4455:
 3540 0000 00000000 		.space	4
 3541              		.section	.rodata.nb_waypoint,"a",%progbits
 3544              	nb_waypoint:
 3545 0000 0C       		.byte	12
 3546              		.section	.data.nav_utm_zone0,"aw",%progbits
 3547              		.set	.LANCHOR8,. + 0
 3550              	nav_utm_zone0:
 3551 0000 1F       		.byte	31
 3552              		.section	.data.nav_utm_north0,"aw",%progbits
 3553              		.align	2
 3554              		.set	.LANCHOR10,. + 0
 3557              	nav_utm_north0:
 3558 0000 1B734900 		.word	4813595
 3559              		.section	.data.nav_altitude,"aw",%progbits
 3560              		.align	2
 3561              		.set	.LANCHOR0,. + 0
 3564              	nav_altitude:
 3565 0000 00004842 		.word	1112014848
 3566              		.section	.bss.nav_in_segment,"aw",%nobits
 3567              		.set	.LANCHOR3,. + 0
 3570              	nav_in_segment:
 3571 0000 00       		.space	1
 3572              		.section	.data.waypoints,"aw",%progbits
 3573              		.align	2
 3574              		.set	.LANCHOR7,. + 0
 3577              	waypoints:
 3578 0000 00002842 		.word	1109917696
 3579 0004 00002842 		.word	1109917696
 3580 0008 00009642 		.word	1117126656
 3581 000c 00000000 		.word	0
 3582 0010 00000000 		.word	0
 3583 0014 00009642 		.word	1117126656
 3584 0018 00004642 		.word	1111883776
 3585 001c 3333C842 		.word	1120416563
 3586 0020 00009642 		.word	1117126656
 3587 0024 9A992141 		.word	1092721050
 3588 0028 66E63D43 		.word	1128130150
 3589 002c 00009642 		.word	1117126656
 3590 0030 CD4C0443 		.word	1124355277
 3591 0034 9A190B43 		.word	1124800922
 3592 0038 00009642 		.word	1117126656
 3593 003c 00000943 		.word	1124663296
 3594 0040 9A9939C1 		.word	-1053189734
 3595 0044 00009642 		.word	1117126656
 3596 0048 6666EEC2 		.word	-1024563610
 3597 004c 33338B42 		.word	1116418867
 3598 0050 00009642 		.word	1117126656
 3599 0054 33338943 		.word	1133065011
 3600 0058 00805143 		.word	1129414656
 3601 005c 00009642 		.word	1117126656
 3602 0060 66663143 		.word	1127310950
 3603 0064 66663442 		.word	1110730342
 3604 0068 0000F041 		.word	1106247680
 3605 006c 6666E641 		.word	1105618534
 3606 0070 00006442 		.word	1113849856
 3607 0074 00000000 		.word	0
 3608 0078 CDCC2843 		.word	1126747341
 3609 007c CDCC5CC1 		.word	-1050882867
 3610 0080 00009642 		.word	1117126656
 3611 0084 0000E5C2 		.word	-1025179648
 3612 0088 CD4C2243 		.word	1126321357
 3613 008c 00009642 		.word	1117126656
 3614              		.section	.bss.last_wp,"aw",%nobits
 3615              		.set	.LANCHOR15,. + 0
 3618              	last_wp:
 3619 0000 00       		.space	1
 3620              		.section	.bss.nav_in_circle,"aw",%nobits
 3621              		.set	.LANCHOR2,. + 0
 3624              	nav_in_circle:
 3625 0000 00       		.space	1
 3626              		.section	.bss.nav_leg_length,"aw",%nobits
 3627              		.align	2
 3628              		.set	.LANCHOR5,. + 0
 3631              	nav_leg_length:
 3632 0000 00000000 		.space	4
 3633              		.section	.bss.eight_status,"aw",%nobits
 3634              		.set	.LANCHOR14,. + 0
 3637              	eight_status:
 3638 0000 00       		.space	1
 3639              		.section	.data.max_dist_from_home,"aw",%progbits
 3640              		.align	2
 3641              		.set	.LANCHOR13,. + 0
 3644              	max_dist_from_home:
 3645 0000 0080BB44 		.word	1153138688
 3646              		.section	.data.nav_utm_east0,"aw",%progbits
 3647              		.align	2
 3648              		.set	.LANCHOR9,. + 0
 3651              	nav_utm_east0:
 3652 0000 5D7F0500 		.word	360285
 3653              		.section	.bss.circle_bank,"aw",%nobits
 3654              		.align	2
 3655              		.set	.LANCHOR4,. + 0
 3658              	circle_bank:
 3659 0000 00000000 		.space	4
 3660              		.section	.bss.nav_leg_progress,"aw",%nobits
 3661              		.align	2
 3662              		.set	.LANCHOR6,. + 0
 3665              	nav_leg_progress:
 3666 0000 00000000 		.space	4
 3667              		.ident	"GCC: (Linaro GCC 4.6-2011.09-1) 4.6.2 20110908 (prerelease)"