   1              		.cpu arm7tdmi
   2              		.fpu softvfp
   3              		.eabi_attribute 20, 1
   4              		.eabi_attribute 21, 1
   5              		.eabi_attribute 23, 3
   6              		.eabi_attribute 24, 1
   7              		.eabi_attribute 25, 1
   8              		.eabi_attribute 26, 1
   9              		.eabi_attribute 30, 4
  10              		.eabi_attribute 18, 4
  11              		.file	"nav_survey_rectangle.c"
  12              		.section	.text.stateGetPositionEnu_f,"ax",%progbits
  13              		.align	2
  15              	stateGetPositionEnu_f:
  16              		@ Function supports interworking.
  17              		@ args = 0, pretend = 0, frame = 0
  18              		@ frame_needed = 0, uses_anonymous_args = 0
  19 0000 08402DE9 		stmfd	sp!, {r3, lr}
  20 0004 14309FE5 		ldr	r3, .L3
  21 0008 B030D3E1 		ldrh	r3, [r3, #0]
  22 000c 800013E3 		tst	r3, #128
  23 0010 FEFFFF0B 		bleq	stateCalcPositionEnu_f
  24              	.L2:
  25 0014 08009FE5 		ldr	r0, .L3+4
  26 0018 0840BDE8 		ldmfd	sp!, {r3, lr}
  27 001c 1EFF2FE1 		bx	lr
  28              	.L4:
  29              		.align	2
  30              	.L3:
  31 0020 00000000 		.word	state
  32 0024 08010000 		.word	state+264
  34              		.section	.text.stateGetHorizontalSpeedDir_f,"ax",%progbits
  35              		.align	2
  37              	stateGetHorizontalSpeedDir_f:
  38              		@ Function supports interworking.
  39              		@ args = 0, pretend = 0, frame = 0
  40              		@ frame_needed = 0, uses_anonymous_args = 0
  41 0000 1C209FE5 		ldr	r2, .L7
  42 0004 08402DE9 		stmfd	sp!, {r3, lr}
  43 0008 453FA0E3 		mov	r3, #276
  44 000c B33092E1 		ldrh	r3, [r2, r3]
  45 0010 020C13E3 		tst	r3, #512
  46 0014 FEFFFF0B 		bleq	stateCalcHorizontalSpeedDir_f
  47              	.L6:
  48 0018 08009FE5 		ldr	r0, .L7+4
  49 001c 0840BDE8 		ldmfd	sp!, {r3, lr}
  50 0020 1EFF2FE1 		bx	lr
  51              	.L8:
  52              		.align	2
  53              	.L7:
  54 0024 00000000 		.word	state
  55 0028 6C010000 		.word	state+364
  57              		.global	__aeabi_fcmplt
  58              		.global	__aeabi_fcmpgt
  59              		.global	__aeabi_f2d
  60              		.global	__aeabi_dmul
  61              		.global	__aeabi_dadd
  62              		.global	__aeabi_dcmpgt
  63              		.global	__aeabi_dsub
  64              		.global	__aeabi_dcmplt
  65              		.global	__aeabi_d2f
  66              		.section	.text.nav_survey_rectangle_init,"ax",%progbits
  67              		.align	2
  68              		.global	nav_survey_rectangle_init
  70              	nav_survey_rectangle_init:
  71              		@ Function supports interworking.
  72              		@ args = 0, pretend = 0, frame = 0
  73              		@ frame_needed = 0, uses_anonymous_args = 0
  74 0000 F84F2DE9 		stmfd	sp!, {r3, r4, r5, r6, r7, r8, r9, sl, fp, lr}
  75 0004 0140A0E1 		mov	r4, r1
  76 0008 0250A0E1 		mov	r5, r2
  77 000c 0C20A0E3 		mov	r2, #12
  78 0010 920001E0 		mul	r1, r2, r0
  79 0014 940202E0 		mul	r2, r4, r2
  80 0018 03A0A0E1 		mov	sl, r3
  81 001c 60349FE5 		ldr	r3, .L68
  82 0020 018093E7 		ldr	r8, [r3, r1]	@ float
  83 0024 027093E7 		ldr	r7, [r3, r2]	@ float
  84 0028 0060A0E1 		mov	r6, r0
  85 002c 0710A0E1 		mov	r1, r7
  86 0030 0800A0E1 		mov	r0, r8
  87 0034 FEFFFFEB 		bl	__aeabi_fcmplt
  88 0038 48249FE5 		ldr	r2, .L68+4
  89 003c 000050E3 		cmp	r0, #0
  90 0040 0730A001 		moveq	r3, r7
  91 0044 0830A011 		movne	r3, r8
  92 0048 003082E5 		str	r3, [r2, #0]	@ float
  93 004c 0710A0E1 		mov	r1, r7
  94 0050 0800A0E1 		mov	r0, r8
  95 0054 FEFFFFEB 		bl	__aeabi_fcmpgt
  96 0058 2C349FE5 		ldr	r3, .L68+8
  97 005c 000050E3 		cmp	r0, #0
  98 0060 0870A011 		movne	r7, r8
  99 0064 007083E5 		str	r7, [r3, #0]	@ float
 100 0068 14349FE5 		ldr	r3, .L68
 101 006c 0C20A0E3 		mov	r2, #12
 102 0070 923626E0 		mla	r6, r2, r6, r3
 103 0074 923424E0 		mla	r4, r2, r4, r3
 104 0078 046096E5 		ldr	r6, [r6, #4]	@ float
 105 007c 044094E5 		ldr	r4, [r4, #4]	@ float
 106 0080 0600A0E1 		mov	r0, r6
 107 0084 0410A0E1 		mov	r1, r4
 108 0088 FEFFFFEB 		bl	__aeabi_fcmplt
 109 008c FC239FE5 		ldr	r2, .L68+12
 110 0090 000050E3 		cmp	r0, #0
 111 0094 0430A001 		moveq	r3, r4
 112 0098 0630A011 		movne	r3, r6
 113 009c 003082E5 		str	r3, [r2, #0]	@ float
 114 00a0 0410A0E1 		mov	r1, r4
 115 00a4 0600A0E1 		mov	r0, r6
 116 00a8 FEFFFFEB 		bl	__aeabi_fcmpgt
 117 00ac E0339FE5 		ldr	r3, .L68+16
 118 00b0 000050E3 		cmp	r0, #0
 119 00b4 0640A011 		movne	r4, r6
 120 00b8 004083E5 		str	r4, [r3, #0]	@ float
 121 00bc D4339FE5 		ldr	r3, .L68+20
 122 00c0 00005AE3 		cmp	sl, #0
 123 00c4 00A0C3E5 		strb	sl, [r3, #0]
 124 00c8 7700001A 		bne	.L18
 125 00cc FEFFFFEB 		bl	stateGetPositionEnu_f
 126 00d0 0040A0E1 		mov	r4, r0
 127 00d4 0500A0E1 		mov	r0, r5
 128 00d8 FEFFFFEB 		bl	__aeabi_f2d
 129 00dc 0020A0E3 		mov	r2, #0
 130 00e0 B4339FE5 		ldr	r3, .L68+24
 131 00e4 FEFFFFEB 		bl	__aeabi_dmul
 132 00e8 98339FE5 		ldr	r3, .L68+4
 133 00ec 0080A0E1 		mov	r8, r0
 134 00f0 0190A0E1 		mov	r9, r1
 135 00f4 000093E5 		ldr	r0, [r3, #0]	@ float
 136 00f8 FEFFFFEB 		bl	__aeabi_f2d
 137 00fc 0820A0E1 		mov	r2, r8
 138 0100 0930A0E1 		mov	r3, r9
 139 0104 FEFFFFEB 		bl	__aeabi_dadd
 140 0108 0060A0E1 		mov	r6, r0
 141 010c 0170A0E1 		mov	r7, r1
 142 0110 000094E5 		ldr	r0, [r4, #0]	@ float
 143 0114 FEFFFFEB 		bl	__aeabi_f2d
 144 0118 0620A0E1 		mov	r2, r6
 145 011c 0730A0E1 		mov	r3, r7
 146 0120 FEFFFFEB 		bl	__aeabi_dcmpgt
 147 0124 000050E3 		cmp	r0, #0
 148 0128 0400000A 		beq	.L19
 149 012c FEFFFFEB 		bl	stateGetPositionEnu_f
 150 0130 000090E5 		ldr	r0, [r0, #0]	@ float
 151 0134 FEFFFFEB 		bl	__aeabi_f2d
 152 0138 0060A0E1 		mov	r6, r0
 153 013c 0170A0E1 		mov	r7, r1
 154              	.L19:
 155 0140 44339FE5 		ldr	r3, .L68+8
 156 0144 000093E5 		ldr	r0, [r3, #0]	@ float
 157 0148 FEFFFFEB 		bl	__aeabi_f2d
 158 014c 0820A0E1 		mov	r2, r8
 159 0150 0930A0E1 		mov	r3, r9
 160 0154 FEFFFFEB 		bl	__aeabi_dsub
 161 0158 00A0A0E1 		mov	sl, r0
 162 015c 01B0A0E1 		mov	fp, r1
 163 0160 0600A0E1 		mov	r0, r6
 164 0164 0710A0E1 		mov	r1, r7
 165 0168 0A20A0E1 		mov	r2, sl
 166 016c 0B30A0E1 		mov	r3, fp
 167 0170 FEFFFFEB 		bl	__aeabi_dcmplt
 168 0174 000050E3 		cmp	r0, #0
 169 0178 0A00A001 		moveq	r0, sl
 170 017c 0B10A001 		moveq	r1, fp
 171 0180 1500000A 		beq	.L64
 172 0184 FEFFFFEB 		bl	stateGetPositionEnu_f
 173 0188 F8329FE5 		ldr	r3, .L68+4
 174 018c 0040A0E1 		mov	r4, r0
 175 0190 000093E5 		ldr	r0, [r3, #0]	@ float
 176 0194 FEFFFFEB 		bl	__aeabi_f2d
 177 0198 0820A0E1 		mov	r2, r8
 178 019c 0930A0E1 		mov	r3, r9
 179 01a0 FEFFFFEB 		bl	__aeabi_dadd
 180 01a4 0060A0E1 		mov	r6, r0
 181 01a8 0170A0E1 		mov	r7, r1
 182 01ac 000094E5 		ldr	r0, [r4, #0]	@ float
 183 01b0 FEFFFFEB 		bl	__aeabi_f2d
 184 01b4 0620A0E1 		mov	r2, r6
 185 01b8 0730A0E1 		mov	r3, r7
 186 01bc FEFFFFEB 		bl	__aeabi_dcmpgt
 187 01c0 000050E3 		cmp	r0, #0
 188 01c4 0600A001 		moveq	r0, r6
 189 01c8 0710A001 		moveq	r1, r7
 190 01cc 0200000A 		beq	.L64
 191 01d0 FEFFFFEB 		bl	stateGetPositionEnu_f
 192 01d4 000090E5 		ldr	r0, [r0, #0]	@ float
 193 01d8 000000EA 		b	.L25
 194              	.L64:
 195 01dc FEFFFFEB 		bl	__aeabi_d2f
 196              	.L25:
 197 01e0 B8329FE5 		ldr	r3, .L68+28
 198 01e4 000083E5 		str	r0, [r3, #0]	@ float
 199 01e8 B4329FE5 		ldr	r3, .L68+32
 200 01ec 000083E5 		str	r0, [r3, #0]	@ float
 201 01f0 FEFFFFEB 		bl	stateGetPositionEnu_f
 202 01f4 98329FE5 		ldr	r3, .L68+16
 203 01f8 040090E5 		ldr	r0, [r0, #4]	@ float
 204 01fc 001093E5 		ldr	r1, [r3, #0]	@ float
 205 0200 FEFFFFEB 		bl	__aeabi_fcmpgt
 206 0204 000050E3 		cmp	r0, #0
 207 0208 1600001A 		bne	.L26
 208 020c FEFFFFEB 		bl	stateGetPositionEnu_f
 209 0210 78329FE5 		ldr	r3, .L68+12
 210 0214 040090E5 		ldr	r0, [r0, #4]	@ float
 211 0218 001093E5 		ldr	r1, [r3, #0]	@ float
 212 021c FEFFFFEB 		bl	__aeabi_fcmpgt
 213 0220 000050E3 		cmp	r0, #0
 214 0224 1700000A 		beq	.L27
 215 0228 FEFFFFEB 		bl	stateGetHorizontalSpeedDir_f
 216 022c 000090E5 		ldr	r0, [r0, #0]	@ float
 217 0230 FEFFFFEB 		bl	__aeabi_f2d
 218 0234 6C229FE5 		ldr	r2, .L68+36
 219 0238 6C329FE5 		ldr	r3, .L68+40
 220 023c FEFFFFEB 		bl	__aeabi_dcmpgt
 221 0240 000050E3 		cmp	r0, #0
 222 0244 0F00000A 		beq	.L27
 223 0248 FEFFFFEB 		bl	stateGetHorizontalSpeedDir_f
 224 024c 000090E5 		ldr	r0, [r0, #0]	@ float
 225 0250 FEFFFFEB 		bl	__aeabi_f2d
 226 0254 54229FE5 		ldr	r2, .L68+44
 227 0258 54329FE5 		ldr	r3, .L68+48
 228 025c FEFFFFEB 		bl	__aeabi_dcmplt
 229 0260 000050E3 		cmp	r0, #0
 230 0264 0700000A 		beq	.L27
 231              	.L26:
 232 0268 20329FE5 		ldr	r3, .L68+12
 233 026c 002093E5 		ldr	r2, [r3, #0]	@ float
 234 0270 28329FE5 		ldr	r3, .L68+28
 235 0274 042083E5 		str	r2, [r3, #4]	@ float
 236 0278 14329FE5 		ldr	r3, .L68+16
 237 027c 002093E5 		ldr	r2, [r3, #0]	@ float
 238 0280 1C329FE5 		ldr	r3, .L68+32
 239 0284 060000EA 		b	.L66
 240              	.L27:
 241 0288 00329FE5 		ldr	r3, .L68+12
 242 028c 002093E5 		ldr	r2, [r3, #0]	@ float
 243 0290 0C329FE5 		ldr	r3, .L68+32
 244 0294 042083E5 		str	r2, [r3, #4]	@ float
 245 0298 F4319FE5 		ldr	r3, .L68+16
 246 029c 002093E5 		ldr	r2, [r3, #0]	@ float
 247 02a0 F8319FE5 		ldr	r3, .L68+28
 248              	.L66:
 249 02a4 042083E5 		str	r2, [r3, #4]	@ float
 250 02a8 6E0000EA 		b	.L31
 251              	.L18:
 252 02ac FEFFFFEB 		bl	stateGetPositionEnu_f
 253 02b0 0040A0E1 		mov	r4, r0
 254 02b4 0500A0E1 		mov	r0, r5
 255 02b8 FEFFFFEB 		bl	__aeabi_f2d
 256 02bc 0020A0E3 		mov	r2, #0
 257 02c0 D4319FE5 		ldr	r3, .L68+24
 258 02c4 FEFFFFEB 		bl	__aeabi_dmul
 259 02c8 C0319FE5 		ldr	r3, .L68+12
 260 02cc 0080A0E1 		mov	r8, r0
 261 02d0 0190A0E1 		mov	r9, r1
 262 02d4 000093E5 		ldr	r0, [r3, #0]	@ float
 263 02d8 FEFFFFEB 		bl	__aeabi_f2d
 264 02dc 0820A0E1 		mov	r2, r8
 265 02e0 0930A0E1 		mov	r3, r9
 266 02e4 FEFFFFEB 		bl	__aeabi_dadd
 267 02e8 0060A0E1 		mov	r6, r0
 268 02ec 0170A0E1 		mov	r7, r1
 269 02f0 040094E5 		ldr	r0, [r4, #4]	@ float
 270 02f4 FEFFFFEB 		bl	__aeabi_f2d
 271 02f8 0620A0E1 		mov	r2, r6
 272 02fc 0730A0E1 		mov	r3, r7
 273 0300 FEFFFFEB 		bl	__aeabi_dcmpgt
 274 0304 000050E3 		cmp	r0, #0
 275 0308 0400000A 		beq	.L32
 276 030c FEFFFFEB 		bl	stateGetPositionEnu_f
 277 0310 040090E5 		ldr	r0, [r0, #4]	@ float
 278 0314 FEFFFFEB 		bl	__aeabi_f2d
 279 0318 0060A0E1 		mov	r6, r0
 280 031c 0170A0E1 		mov	r7, r1
 281              	.L32:
 282 0320 6C319FE5 		ldr	r3, .L68+16
 283 0324 000093E5 		ldr	r0, [r3, #0]	@ float
 284 0328 FEFFFFEB 		bl	__aeabi_f2d
 285 032c 0820A0E1 		mov	r2, r8
 286 0330 0930A0E1 		mov	r3, r9
 287 0334 FEFFFFEB 		bl	__aeabi_dsub
 288 0338 00A0A0E1 		mov	sl, r0
 289 033c 01B0A0E1 		mov	fp, r1
 290 0340 0600A0E1 		mov	r0, r6
 291 0344 0710A0E1 		mov	r1, r7
 292 0348 0A20A0E1 		mov	r2, sl
 293 034c 0B30A0E1 		mov	r3, fp
 294 0350 FEFFFFEB 		bl	__aeabi_dcmplt
 295 0354 000050E3 		cmp	r0, #0
 296 0358 0A00A001 		moveq	r0, sl
 297 035c 0B10A001 		moveq	r1, fp
 298 0360 1500000A 		beq	.L65
 299 0364 FEFFFFEB 		bl	stateGetPositionEnu_f
 300 0368 20319FE5 		ldr	r3, .L68+12
 301 036c 0040A0E1 		mov	r4, r0
 302 0370 000093E5 		ldr	r0, [r3, #0]	@ float
 303 0374 FEFFFFEB 		bl	__aeabi_f2d
 304 0378 0820A0E1 		mov	r2, r8
 305 037c 0930A0E1 		mov	r3, r9
 306 0380 FEFFFFEB 		bl	__aeabi_dadd
 307 0384 0060A0E1 		mov	r6, r0
 308 0388 0170A0E1 		mov	r7, r1
 309 038c 040094E5 		ldr	r0, [r4, #4]	@ float
 310 0390 FEFFFFEB 		bl	__aeabi_f2d
 311 0394 0620A0E1 		mov	r2, r6
 312 0398 0730A0E1 		mov	r3, r7
 313 039c FEFFFFEB 		bl	__aeabi_dcmpgt
 314 03a0 000050E3 		cmp	r0, #0
 315 03a4 0600A001 		moveq	r0, r6
 316 03a8 0710A001 		moveq	r1, r7
 317 03ac 0200000A 		beq	.L65
 318 03b0 FEFFFFEB 		bl	stateGetPositionEnu_f
 319 03b4 040090E5 		ldr	r0, [r0, #4]	@ float
 320 03b8 000000EA 		b	.L38
 321              	.L65:
 322 03bc FEFFFFEB 		bl	__aeabi_d2f
 323              	.L38:
 324 03c0 D8309FE5 		ldr	r3, .L68+28
 325 03c4 040083E5 		str	r0, [r3, #4]	@ float
 326 03c8 D4309FE5 		ldr	r3, .L68+32
 327 03cc 040083E5 		str	r0, [r3, #4]	@ float
 328 03d0 FEFFFFEB 		bl	stateGetPositionEnu_f
 329 03d4 B0309FE5 		ldr	r3, .L68+8
 330 03d8 000090E5 		ldr	r0, [r0, #0]	@ float
 331 03dc 001093E5 		ldr	r1, [r3, #0]	@ float
 332 03e0 FEFFFFEB 		bl	__aeabi_fcmpgt
 333 03e4 000050E3 		cmp	r0, #0
 334 03e8 0E00001A 		bne	.L39
 335 03ec FEFFFFEB 		bl	stateGetPositionEnu_f
 336 03f0 90309FE5 		ldr	r3, .L68+4
 337 03f4 000090E5 		ldr	r0, [r0, #0]	@ float
 338 03f8 001093E5 		ldr	r1, [r3, #0]	@ float
 339 03fc FEFFFFEB 		bl	__aeabi_fcmpgt
 340 0400 000050E3 		cmp	r0, #0
 341 0404 0F00000A 		beq	.L40
 342 0408 FEFFFFEB 		bl	stateGetHorizontalSpeedDir_f
 343 040c 000090E5 		ldr	r0, [r0, #0]	@ float
 344 0410 FEFFFFEB 		bl	__aeabi_f2d
 345 0414 8C209FE5 		ldr	r2, .L68+36
 346 0418 98309FE5 		ldr	r3, .L68+52
 347 041c FEFFFFEB 		bl	__aeabi_dcmpgt
 348 0420 000050E3 		cmp	r0, #0
 349 0424 0700000A 		beq	.L40
 350              	.L39:
 351 0428 58309FE5 		ldr	r3, .L68+4
 352 042c 002093E5 		ldr	r2, [r3, #0]	@ float
 353 0430 68309FE5 		ldr	r3, .L68+28
 354 0434 002083E5 		str	r2, [r3, #0]	@ float
 355 0438 4C309FE5 		ldr	r3, .L68+8
 356 043c 002093E5 		ldr	r2, [r3, #0]	@ float
 357 0440 5C309FE5 		ldr	r3, .L68+32
 358 0444 060000EA 		b	.L67
 359              	.L40:
 360 0448 38309FE5 		ldr	r3, .L68+4
 361 044c 002093E5 		ldr	r2, [r3, #0]	@ float
 362 0450 4C309FE5 		ldr	r3, .L68+32
 363 0454 002083E5 		str	r2, [r3, #0]	@ float
 364 0458 2C309FE5 		ldr	r3, .L68+8
 365 045c 002093E5 		ldr	r2, [r3, #0]	@ float
 366 0460 38309FE5 		ldr	r3, .L68+28
 367              	.L67:
 368 0464 002083E5 		str	r2, [r3, #0]	@ float
 369              	.L31:
 370 0468 4C309FE5 		ldr	r3, .L68+56
 371 046c 005083E5 		str	r5, [r3, #0]	@ float
 372 0470 48309FE5 		ldr	r3, .L68+60
 373 0474 0020A0E3 		mov	r2, #0
 374 0478 0020C3E5 		strb	r2, [r3, #0]
 375 047c F84FBDE8 		ldmfd	sp!, {r3, r4, r5, r6, r7, r8, r9, sl, fp, lr}
 376 0480 1EFF2FE1 		bx	lr
 377              	.L69:
 378              		.align	2
 379              	.L68:
 380 0484 00000000 		.word	waypoints
 381 0488 00000000 		.word	nav_survey_west
 382 048c 00000000 		.word	nav_survey_east
 383 0490 00000000 		.word	nav_survey_south
 384 0494 00000000 		.word	nav_survey_north
 385 0498 00000000 		.word	.LANCHOR0
 386 049c 0000E03F 		.word	1071644672
 387 04a0 00000000 		.word	.LANCHOR1
 388 04a4 00000000 		.word	.LANCHOR2
 389 04a8 182D4454 		.word	1413754136
 390 04ac FB21F93F 		.word	1073291771
 391 04b0 D221337F 		.word	2134057426
 392 04b4 7CD91240 		.word	1074977148
 393 04b8 FB210940 		.word	1074340347
 394 04bc 00000000 		.word	nav_survey_shift
 395 04c0 00000000 		.word	.LANCHOR3
 397              		.global	__aeabi_fadd
 398              		.global	__aeabi_fmul
 399              		.global	__aeabi_fsub
 400              		.global	__aeabi_fcmpge
 401              		.section	.text.nav_survey_rectangle,"ax",%progbits
 402              		.align	2
 403              		.global	nav_survey_rectangle
 405              	nav_survey_rectangle:
 406              		@ Function supports interworking.
 407              		@ args = 0, pretend = 0, frame = 8
 408              		@ frame_needed = 0, uses_anonymous_args = 0
 409 0000 44399FE5 		ldr	r3, .L188
 410 0004 0120A0E3 		mov	r2, #1
 411 0008 F3472DE9 		stmfd	sp!, {r0, r1, r4, r5, r6, r7, r8, r9, sl, lr}
 412 000c 0020C3E5 		strb	r2, [r3, #0]
 413 0010 0170A0E1 		mov	r7, r1
 414 0014 0C20A0E3 		mov	r2, #12
 415 0018 920001E0 		mul	r1, r2, r0
 416 001c 970202E0 		mul	r2, r7, r2
 417 0020 28399FE5 		ldr	r3, .L188+4
 418 0024 015093E7 		ldr	r5, [r3, r1]	@ float
 419 0028 024093E7 		ldr	r4, [r3, r2]	@ float
 420 002c 00A0A0E1 		mov	sl, r0
 421 0030 0410A0E1 		mov	r1, r4
 422 0034 0500A0E1 		mov	r0, r5
 423 0038 FEFFFFEB 		bl	__aeabi_fcmplt
 424 003c 10399FE5 		ldr	r3, .L188+8
 425 0040 000050E3 		cmp	r0, #0
 426 0044 0560A011 		movne	r6, r5
 427 0048 0460A001 		moveq	r6, r4
 428 004c 0410A0E1 		mov	r1, r4
 429 0050 006083E5 		str	r6, [r3, #0]	@ float
 430 0054 0500A0E1 		mov	r0, r5
 431 0058 FEFFFFEB 		bl	__aeabi_fcmpgt
 432 005c F4389FE5 		ldr	r3, .L188+12
 433 0060 000050E3 		cmp	r0, #0
 434 0064 0540A011 		movne	r4, r5
 435 0068 004083E5 		str	r4, [r3, #0]	@ float
 436 006c DC389FE5 		ldr	r3, .L188+4
 437 0070 0C20A0E3 		mov	r2, #12
 438 0074 923727E0 		mla	r7, r2, r7, r3
 439 0078 923A21E0 		mla	r1, r2, sl, r3
 440 007c 045097E5 		ldr	r5, [r7, #4]	@ float
 441 0080 048091E5 		ldr	r8, [r1, #4]	@ float
 442 0084 0510A0E1 		mov	r1, r5
 443 0088 0800A0E1 		mov	r0, r8
 444 008c FEFFFFEB 		bl	__aeabi_fcmplt
 445 0090 C4389FE5 		ldr	r3, .L188+16
 446 0094 000050E3 		cmp	r0, #0
 447 0098 0570A001 		moveq	r7, r5
 448 009c 0870A011 		movne	r7, r8
 449 00a0 007083E5 		str	r7, [r3, #0]	@ float
 450 00a4 0510A0E1 		mov	r1, r5
 451 00a8 0800A0E1 		mov	r0, r8
 452 00ac FEFFFFEB 		bl	__aeabi_fcmpgt
 453 00b0 A8389FE5 		ldr	r3, .L188+20
 454 00b4 000050E3 		cmp	r0, #0
 455 00b8 0850A011 		movne	r5, r8
 456 00bc 005083E5 		str	r5, [r3, #0]	@ float
 457 00c0 9C389FE5 		ldr	r3, .L188+24
 458 00c4 0030D3E5 		ldrb	r3, [r3, #0]	@ zero_extendqisi2
 459 00c8 000053E3 		cmp	r3, #0
 460 00cc 1100001A 		bne	.L79
 461 00d0 90689FE5 		ldr	r6, .L188+28
 462 00d4 90489FE5 		ldr	r4, .L188+32
 463 00d8 049096E5 		ldr	r9, [r6, #4]	@ float
 464 00dc 048094E5 		ldr	r8, [r4, #4]	@ float
 465 00e0 0900A0E1 		mov	r0, r9
 466 00e4 0810A0E1 		mov	r1, r8
 467 00e8 FEFFFFEB 		bl	__aeabi_fcmpgt
 468 00ec 000050E3 		cmp	r0, #0
 469 00f0 04508615 		strne	r5, [r6, #4]	@ float
 470 00f4 04708415 		strne	r7, [r4, #4]	@ float
 471 00f8 1900001A 		bne	.L82
 472 00fc 0900A0E1 		mov	r0, r9
 473 0100 0810A0E1 		mov	r1, r8
 474 0104 FEFFFFEB 		bl	__aeabi_fcmplt
 475 0108 000050E3 		cmp	r0, #0
 476 010c 04708615 		strne	r7, [r6, #4]	@ float
 477 0110 04508415 		strne	r5, [r4, #4]	@ float
 478 0114 120000EA 		b	.L82
 479              	.L79:
 480 0118 010053E3 		cmp	r3, #1
 481 011c 1000001A 		bne	.L82
 482 0120 40789FE5 		ldr	r7, .L188+28
 483 0124 40589FE5 		ldr	r5, .L188+32
 484 0128 009097E5 		ldr	r9, [r7, #0]	@ float
 485 012c 008095E5 		ldr	r8, [r5, #0]	@ float
 486 0130 0900A0E1 		mov	r0, r9
 487 0134 0810A0E1 		mov	r1, r8
 488 0138 FEFFFFEB 		bl	__aeabi_fcmpgt
 489 013c 000050E3 		cmp	r0, #0
 490 0140 00408715 		strne	r4, [r7, #0]	@ float
 491 0144 00608515 		strne	r6, [r5, #0]	@ float
 492 0148 0500001A 		bne	.L82
 493 014c 0900A0E1 		mov	r0, r9
 494 0150 0810A0E1 		mov	r1, r8
 495 0154 FEFFFFEB 		bl	__aeabi_fcmplt
 496 0158 000050E3 		cmp	r0, #0
 497 015c 00608715 		strne	r6, [r7, #0]	@ float
 498 0160 00408515 		strne	r4, [r5, #0]	@ float
 499              	.L82:
 500 0164 04389FE5 		ldr	r3, .L188+36
 501 0168 0030D3E5 		ldrb	r3, [r3, #0]	@ zero_extendqisi2
 502 016c 000053E3 		cmp	r3, #0
 503 0170 E400001A 		bne	.L87
 504 0174 FEFFFFEB 		bl	stateGetPositionEnu_f
 505 0178 E0379FE5 		ldr	r3, .L188+20
 506 017c 040090E5 		ldr	r0, [r0, #4]	@ float
 507 0180 001093E5 		ldr	r1, [r3, #0]	@ float
 508 0184 FEFFFFEB 		bl	__aeabi_fcmplt
 509 0188 000050E3 		cmp	r0, #0
 510 018c 0A00000A 		beq	.L88
 511 0190 CC379FE5 		ldr	r3, .L188+24
 512 0194 0030D3E5 		ldrb	r3, [r3, #0]	@ zero_extendqisi2
 513 0198 000053E3 		cmp	r3, #0
 514 019c 0600001A 		bne	.L88
 515 01a0 C0379FE5 		ldr	r3, .L188+28
 516 01a4 040093E5 		ldr	r0, [r3, #4]	@ float
 517 01a8 BC379FE5 		ldr	r3, .L188+32
 518 01ac 041093E5 		ldr	r1, [r3, #4]	@ float
 519 01b0 FEFFFFEB 		bl	__aeabi_fcmpgt
 520 01b4 000050E3 		cmp	r0, #0
 521 01b8 3600001A 		bne	.L90
 522              	.L88:
 523 01bc FEFFFFEB 		bl	stateGetPositionEnu_f
 524 01c0 94379FE5 		ldr	r3, .L188+16
 525 01c4 040090E5 		ldr	r0, [r0, #4]	@ float
 526 01c8 001093E5 		ldr	r1, [r3, #0]	@ float
 527 01cc FEFFFFEB 		bl	__aeabi_fcmpgt
 528 01d0 000050E3 		cmp	r0, #0
 529 01d4 0A00000A 		beq	.L91
 530 01d8 84379FE5 		ldr	r3, .L188+24
 531 01dc 0030D3E5 		ldrb	r3, [r3, #0]	@ zero_extendqisi2
 532 01e0 000053E3 		cmp	r3, #0
 533 01e4 0600001A 		bne	.L91
 534 01e8 78379FE5 		ldr	r3, .L188+28
 535 01ec 040093E5 		ldr	r0, [r3, #4]	@ float
 536 01f0 74379FE5 		ldr	r3, .L188+32
 537 01f4 041093E5 		ldr	r1, [r3, #4]	@ float
 538 01f8 FEFFFFEB 		bl	__aeabi_fcmplt
 539 01fc 000050E3 		cmp	r0, #0
 540 0200 2400001A 		bne	.L90
 541              	.L91:
 542 0204 FEFFFFEB 		bl	stateGetPositionEnu_f
 543 0208 48379FE5 		ldr	r3, .L188+12
 544 020c 000090E5 		ldr	r0, [r0, #0]	@ float
 545 0210 001093E5 		ldr	r1, [r3, #0]	@ float
 546 0214 FEFFFFEB 		bl	__aeabi_fcmplt
 547 0218 000050E3 		cmp	r0, #0
 548 021c 0A00000A 		beq	.L93
 549 0220 3C379FE5 		ldr	r3, .L188+24
 550 0224 0030D3E5 		ldrb	r3, [r3, #0]	@ zero_extendqisi2
 551 0228 010053E3 		cmp	r3, #1
 552 022c 0600001A 		bne	.L93
 553 0230 30379FE5 		ldr	r3, .L188+28
 554 0234 000093E5 		ldr	r0, [r3, #0]	@ float
 555 0238 2C379FE5 		ldr	r3, .L188+32
 556 023c 001093E5 		ldr	r1, [r3, #0]	@ float
 557 0240 FEFFFFEB 		bl	__aeabi_fcmpgt
 558 0244 000050E3 		cmp	r0, #0
 559 0248 1200001A 		bne	.L90
 560              	.L93:
 561 024c FEFFFFEB 		bl	stateGetPositionEnu_f
 562 0250 FC369FE5 		ldr	r3, .L188+8
 563 0254 006093E5 		ldr	r6, [r3, #0]	@ float
 564 0258 000090E5 		ldr	r0, [r0, #0]	@ float
 565 025c 0610A0E1 		mov	r1, r6
 566 0260 FEFFFFEB 		bl	__aeabi_fcmpgt
 567 0264 000050E3 		cmp	r0, #0
 568 0268 1200000A 		beq	.L95
 569 026c F0369FE5 		ldr	r3, .L188+24
 570 0270 0030D3E5 		ldrb	r3, [r3, #0]	@ zero_extendqisi2
 571 0274 010053E3 		cmp	r3, #1
 572 0278 0E00001A 		bne	.L95
 573 027c E4369FE5 		ldr	r3, .L188+28
 574 0280 000093E5 		ldr	r0, [r3, #0]	@ float
 575 0284 E0369FE5 		ldr	r3, .L188+32
 576 0288 001093E5 		ldr	r1, [r3, #0]	@ float
 577 028c FEFFFFEB 		bl	__aeabi_fcmplt
 578 0290 000050E3 		cmp	r0, #0
 579 0294 0700000A 		beq	.L95
 580              	.L90:
 581 0298 CC269FE5 		ldr	r2, .L188+32
 582 029c C4369FE5 		ldr	r3, .L188+28
 583 02a0 000092E5 		ldr	r0, [r2, #0]	@ float
 584 02a4 041092E5 		ldr	r1, [r2, #4]	@ float
 585 02a8 002093E5 		ldr	r2, [r3, #0]	@ float
 586 02ac 043093E5 		ldr	r3, [r3, #4]	@ float
 587 02b0 FEFFFFEB 		bl	nav_route_xy
 588 02b4 910100EA 		b	.L98
 589              	.L95:
 590 02b8 A4369FE5 		ldr	r3, .L188+24
 591 02bc 0070D3E5 		ldrb	r7, [r3, #0]	@ zero_extendqisi2
 592 02c0 000057E3 		cmp	r7, #0
 593 02c4 A0269FE5 		ldr	r2, .L188+32
 594 02c8 A4369FE5 		ldr	r3, .L188+40
 595 02cc 4100001A 		bne	.L99
 596 02d0 004092E5 		ldr	r4, [r2, #0]	@ float
 597 02d4 005093E5 		ldr	r5, [r3, #0]	@ float
 598 02d8 0400A0E1 		mov	r0, r4
 599 02dc 0510A0E1 		mov	r1, r5
 600 02e0 FEFFFFEB 		bl	__aeabi_fadd
 601 02e4 0610A0E1 		mov	r1, r6
 602 02e8 0070A0E1 		mov	r7, r0
 603 02ec FEFFFFEB 		bl	__aeabi_fcmplt
 604 02f0 000050E3 		cmp	r0, #0
 605 02f4 0500001A 		bne	.L100
 606 02f8 58369FE5 		ldr	r3, .L188+12
 607 02fc 0700A0E1 		mov	r0, r7
 608 0300 001093E5 		ldr	r1, [r3, #0]	@ float
 609 0304 FEFFFFEB 		bl	__aeabi_fcmpgt
 610 0308 000050E3 		cmp	r0, #0
 611 030c 0900000A 		beq	.L101
 612              	.L100:
 613 0310 0500A0E1 		mov	r0, r5
 614 0314 3F14A0E3 		mov	r1, #1056964608
 615 0318 FEFFFFEB 		bl	__aeabi_fmul
 616 031c 0010A0E1 		mov	r1, r0
 617 0320 0400A0E1 		mov	r0, r4
 618 0324 FEFFFFEB 		bl	__aeabi_fadd
 619 0328 44369FE5 		ldr	r3, .L188+40
 620 032c 025185E2 		add	r5, r5, #-2147483648
 621 0330 005083E5 		str	r5, [r3, #0]	@ float
 622 0334 0040A0E1 		mov	r4, r0
 623              	.L101:
 624 0338 34369FE5 		ldr	r3, .L188+40
 625 033c 005093E5 		ldr	r5, [r3, #0]	@ float
 626 0340 0400A0E1 		mov	r0, r4
 627 0344 0510A0E1 		mov	r1, r5
 628 0348 FEFFFFEB 		bl	__aeabi_fadd
 629 034c 14369FE5 		ldr	r3, .L188+28
 630 0350 14269FE5 		ldr	r2, .L188+32
 631 0354 046093E5 		ldr	r6, [r3, #4]	@ float
 632 0358 047092E5 		ldr	r7, [r2, #4]	@ float
 633 035c 000083E5 		str	r0, [r3, #0]	@ float
 634 0360 046082E5 		str	r6, [r2, #4]	@ float
 635 0364 047083E5 		str	r7, [r3, #4]	@ float
 636 0368 000082E5 		str	r0, [r2, #0]	@ float
 637 036c FEFFFFEB 		bl	__aeabi_f2d
 638 0370 0080A0E1 		mov	r8, r0
 639 0374 0500A0E1 		mov	r0, r5
 640 0378 0190A0E1 		mov	r9, r1
 641 037c FEFFFFEB 		bl	__aeabi_f2d
 642 0380 0020A0E3 		mov	r2, #0
 643 0384 EC359FE5 		ldr	r3, .L188+44
 644 0388 FEFFFFEB 		bl	__aeabi_dmul
 645 038c 0020A0E1 		mov	r2, r0
 646 0390 0130A0E1 		mov	r3, r1
 647 0394 0800A0E1 		mov	r0, r8
 648 0398 0910A0E1 		mov	r1, r9
 649 039c FEFFFFEB 		bl	__aeabi_dsub
 650 03a0 FEFFFFEB 		bl	__aeabi_d2f
 651 03a4 A4459FE5 		ldr	r4, .L188+4
 652 03a8 3F14A0E3 		mov	r1, #1056964608
 653 03ac 000084E5 		str	r0, [r4, #0]	@ float
 654 03b0 046084E5 		str	r6, [r4, #4]	@ float
 655 03b4 0500A0E1 		mov	r0, r5
 656 03b8 FEFFFFEB 		bl	__aeabi_fmul
 657 03bc B8459FE5 		ldr	r4, .L188+48
 658 03c0 0050A0E1 		mov	r5, r0
 659 03c4 000084E5 		str	r0, [r4, #0]	@ float
 660 03c8 0610A0E1 		mov	r1, r6
 661 03cc 0700A0E1 		mov	r0, r7
 662 03d0 FEFFFFEB 		bl	__aeabi_fcmpgt
 663 03d4 410000EA 		b	.L187
 664              	.L99:
 665 03d8 044092E5 		ldr	r4, [r2, #4]	@ float
 666 03dc 005093E5 		ldr	r5, [r3, #0]	@ float
 667 03e0 0400A0E1 		mov	r0, r4
 668 03e4 0510A0E1 		mov	r1, r5
 669 03e8 FEFFFFEB 		bl	__aeabi_fadd
 670 03ec 68359FE5 		ldr	r3, .L188+16
 671 03f0 001093E5 		ldr	r1, [r3, #0]	@ float
 672 03f4 0060A0E1 		mov	r6, r0
 673 03f8 FEFFFFEB 		bl	__aeabi_fcmplt
 674 03fc 000050E3 		cmp	r0, #0
 675 0400 0500001A 		bne	.L105
 676 0404 54359FE5 		ldr	r3, .L188+20
 677 0408 0600A0E1 		mov	r0, r6
 678 040c 001093E5 		ldr	r1, [r3, #0]	@ float
 679 0410 FEFFFFEB 		bl	__aeabi_fcmpgt
 680 0414 000050E3 		cmp	r0, #0
 681 0418 0900000A 		beq	.L106
 682              	.L105:
 683 041c 0500A0E1 		mov	r0, r5
 684 0420 3F14A0E3 		mov	r1, #1056964608
 685 0424 FEFFFFEB 		bl	__aeabi_fmul
 686 0428 0010A0E1 		mov	r1, r0
 687 042c 0400A0E1 		mov	r0, r4
 688 0430 FEFFFFEB 		bl	__aeabi_fadd
 689 0434 38359FE5 		ldr	r3, .L188+40
 690 0438 025185E2 		add	r5, r5, #-2147483648
 691 043c 005083E5 		str	r5, [r3, #0]	@ float
 692 0440 0040A0E1 		mov	r4, r0
 693              	.L106:
 694 0444 28359FE5 		ldr	r3, .L188+40
 695 0448 005093E5 		ldr	r5, [r3, #0]	@ float
 696 044c 0400A0E1 		mov	r0, r4
 697 0450 0510A0E1 		mov	r1, r5
 698 0454 FEFFFFEB 		bl	__aeabi_fadd
 699 0458 08359FE5 		ldr	r3, .L188+28
 700 045c 08259FE5 		ldr	r2, .L188+32
 701 0460 006093E5 		ldr	r6, [r3, #0]	@ float
 702 0464 008092E5 		ldr	r8, [r2, #0]	@ float
 703 0468 E0449FE5 		ldr	r4, .L188+4
 704 046c 006082E5 		str	r6, [r2, #0]	@ float
 705 0470 008083E5 		str	r8, [r3, #0]	@ float
 706 0474 040083E5 		str	r0, [r3, #4]	@ float
 707 0478 040082E5 		str	r0, [r2, #4]	@ float
 708 047c 006084E5 		str	r6, [r4, #0]	@ float
 709 0480 FEFFFFEB 		bl	__aeabi_f2d
 710 0484 03008DE8 		stmia	sp, {r0-r1}
 711 0488 0500A0E1 		mov	r0, r5
 712 048c FEFFFFEB 		bl	__aeabi_f2d
 713 0490 0020A0E3 		mov	r2, #0
 714 0494 DC349FE5 		ldr	r3, .L188+44
 715 0498 FEFFFFEB 		bl	__aeabi_dmul
 716 049c 0020A0E1 		mov	r2, r0
 717 04a0 0130A0E1 		mov	r3, r1
 718 04a4 03009DE8 		ldmia	sp, {r0-r1}
 719 04a8 FEFFFFEB 		bl	__aeabi_dsub
 720 04ac FEFFFFEB 		bl	__aeabi_d2f
 721 04b0 3F14A0E3 		mov	r1, #1056964608
 722 04b4 040084E5 		str	r0, [r4, #4]	@ float
 723 04b8 0500A0E1 		mov	r0, r5
 724 04bc FEFFFFEB 		bl	__aeabi_fmul
 725 04c0 B4449FE5 		ldr	r4, .L188+48
 726 04c4 010057E3 		cmp	r7, #1
 727 04c8 0050A0E1 		mov	r5, r0
 728 04cc 000084E5 		str	r0, [r4, #0]	@ float
 729 04d0 0500001A 		bne	.L103
 730 04d4 0800A0E1 		mov	r0, r8
 731 04d8 0610A0E1 		mov	r1, r6
 732 04dc FEFFFFEB 		bl	__aeabi_fcmplt
 733              	.L187:
 734 04e0 000050E3 		cmp	r0, #0
 735 04e4 02518512 		addne	r5, r5, #-2147483648
 736 04e8 00508415 		strne	r5, [r4, #0]	@ float
 737              	.L103:
 738 04ec 8C349FE5 		ldr	r3, .L188+52
 739 04f0 0020A0E3 		mov	r2, #0
 740 04f4 0020C3E5 		strb	r2, [r3, #0]
 741 04f8 70349FE5 		ldr	r3, .L188+36
 742 04fc 0120A0E3 		mov	r2, #1
 743 0500 0020C3E5 		strb	r2, [r3, #0]
 744 0504 FD0000EA 		b	.L98
 745              	.L87:
 746 0508 54349FE5 		ldr	r3, .L188+24
 747 050c 0040D3E5 		ldrb	r4, [r3, #0]	@ zero_extendqisi2
 748 0510 000054E3 		cmp	r4, #0
 749 0514 3600001A 		bne	.L109
 750 0518 48349FE5 		ldr	r3, .L188+28
 751 051c 040093E5 		ldr	r0, [r3, #4]	@ float
 752 0520 44349FE5 		ldr	r3, .L188+32
 753 0524 041093E5 		ldr	r1, [r3, #4]	@ float
 754 0528 FEFFFFEB 		bl	__aeabi_fcmpgt
 755 052c 000050E3 		cmp	r0, #0
 756 0530 2F00000A 		beq	.L109
 757 0534 FEFFFFEB 		bl	stateGetHorizontalSpeedDir_f
 758 0538 000090E5 		ldr	r0, [r0, #0]	@ float
 759 053c FEFFFFEB 		bl	__aeabi_f2d
 760 0540 3C249FE5 		ldr	r2, .L188+56
 761 0544 3C349FE5 		ldr	r3, .L188+60
 762 0548 FEFFFFEB 		bl	__aeabi_dmul
 763 054c 0020A0E1 		mov	r2, r0
 764 0550 0130A0E1 		mov	r3, r1
 765 0554 0000A0E3 		mov	r0, #0
 766 0558 0010A0E3 		mov	r1, #0
 767 055c FEFFFFEB 		bl	__aeabi_dsub
 768 0560 FEFFFFEB 		bl	__aeabi_d2f
 769 0564 020000EA 		b	.L184
 770              	.L114:
 771 0568 0500A0E1 		mov	r0, r5
 772 056c 18149FE5 		ldr	r1, .L188+64
 773 0570 FEFFFFEB 		bl	__aeabi_fadd
 774              	.L184:
 775 0574 0010A0E3 		mov	r1, #0
 776 0578 0050A0E1 		mov	r5, r0
 777 057c FEFFFFEB 		bl	__aeabi_fcmplt
 778 0580 000050E3 		cmp	r0, #0
 779 0584 FF6004E2 		and	r6, r4, #255
 780 0588 0700000A 		beq	.L179
 781 058c 014084E2 		add	r4, r4, #1
 782 0590 010C54E3 		cmp	r4, #256
 783 0594 F3FFFF1A 		bne	.L114
 784 0598 0060A0E3 		mov	r6, #0
 785 059c 020000EA 		b	.L179
 786              	.L118:
 787 05a0 E4139FE5 		ldr	r1, .L188+64
 788 05a4 FEFFFFEB 		bl	__aeabi_fsub
 789 05a8 0050A0E1 		mov	r5, r0
 790              	.L179:
 791 05ac 0500A0E1 		mov	r0, r5
 792 05b0 D4139FE5 		ldr	r1, .L188+64
 793 05b4 FEFFFFEB 		bl	__aeabi_fcmpge
 794 05b8 000050E3 		cmp	r0, #0
 795 05bc 0500A0E1 		mov	r0, r5
 796 05c0 0200000A 		beq	.L116
 797 05c4 016086E2 		add	r6, r6, #1
 798 05c8 FF6016E2 		ands	r6, r6, #255
 799 05cc F3FFFF1A 		bne	.L118
 800              	.L116:
 801 05d0 B8139FE5 		ldr	r1, .L188+68
 802 05d4 FEFFFFEB 		bl	__aeabi_fcmpgt
 803 05d8 000050E3 		cmp	r0, #0
 804 05dc BB00001A 		bne	.L119
 805 05e0 0500A0E1 		mov	r0, r5
 806 05e4 A8139FE5 		ldr	r1, .L188+72
 807 05e8 FEFFFFEB 		bl	__aeabi_fcmplt
 808 05ec 000050E3 		cmp	r0, #0
 809 05f0 B600001A 		bne	.L119
 810              	.L109:
 811 05f4 68339FE5 		ldr	r3, .L188+24
 812 05f8 0040D3E5 		ldrb	r4, [r3, #0]	@ zero_extendqisi2
 813 05fc 000054E3 		cmp	r4, #0
 814 0600 3600001A 		bne	.L120
 815 0604 5C339FE5 		ldr	r3, .L188+28
 816 0608 040093E5 		ldr	r0, [r3, #4]	@ float
 817 060c 58339FE5 		ldr	r3, .L188+32
 818 0610 041093E5 		ldr	r1, [r3, #4]	@ float
 819 0614 FEFFFFEB 		bl	__aeabi_fcmplt
 820 0618 000050E3 		cmp	r0, #0
 821 061c 2F00000A 		beq	.L120
 822 0620 FEFFFFEB 		bl	stateGetHorizontalSpeedDir_f
 823 0624 000090E5 		ldr	r0, [r0, #0]	@ float
 824 0628 FEFFFFEB 		bl	__aeabi_f2d
 825 062c 50239FE5 		ldr	r2, .L188+56
 826 0630 50339FE5 		ldr	r3, .L188+60
 827 0634 FEFFFFEB 		bl	__aeabi_dmul
 828 0638 0020A0E1 		mov	r2, r0
 829 063c 0130A0E1 		mov	r3, r1
 830 0640 0000A0E3 		mov	r0, #0
 831 0644 4C139FE5 		ldr	r1, .L188+76
 832 0648 FEFFFFEB 		bl	__aeabi_dsub
 833 064c FEFFFFEB 		bl	__aeabi_d2f
 834 0650 020000EA 		b	.L185
 835              	.L125:
 836 0654 0500A0E1 		mov	r0, r5
 837 0658 2C139FE5 		ldr	r1, .L188+64
 838 065c FEFFFFEB 		bl	__aeabi_fadd
 839              	.L185:
 840 0660 0010A0E3 		mov	r1, #0
 841 0664 0050A0E1 		mov	r5, r0
 842 0668 FEFFFFEB 		bl	__aeabi_fcmplt
 843 066c 000050E3 		cmp	r0, #0
 844 0670 FF6004E2 		and	r6, r4, #255
 845 0674 0700000A 		beq	.L180
 846 0678 014084E2 		add	r4, r4, #1
 847 067c 010C54E3 		cmp	r4, #256
 848 0680 F3FFFF1A 		bne	.L125
 849 0684 0060A0E3 		mov	r6, #0
 850 0688 020000EA 		b	.L180
 851              	.L129:
 852 068c F8129FE5 		ldr	r1, .L188+64
 853 0690 FEFFFFEB 		bl	__aeabi_fsub
 854 0694 0050A0E1 		mov	r5, r0
 855              	.L180:
 856 0698 0500A0E1 		mov	r0, r5
 857 069c E8129FE5 		ldr	r1, .L188+64
 858 06a0 FEFFFFEB 		bl	__aeabi_fcmpge
 859 06a4 000050E3 		cmp	r0, #0
 860 06a8 0500A0E1 		mov	r0, r5
 861 06ac 0200000A 		beq	.L127
 862 06b0 016086E2 		add	r6, r6, #1
 863 06b4 FF6016E2 		ands	r6, r6, #255
 864 06b8 F3FFFF1A 		bne	.L129
 865              	.L127:
 866 06bc CC129FE5 		ldr	r1, .L188+68
 867 06c0 FEFFFFEB 		bl	__aeabi_fcmpgt
 868 06c4 000050E3 		cmp	r0, #0
 869 06c8 8000001A 		bne	.L119
 870 06cc 0500A0E1 		mov	r0, r5
 871 06d0 BC129FE5 		ldr	r1, .L188+72
 872 06d4 FEFFFFEB 		bl	__aeabi_fcmplt
 873 06d8 000050E3 		cmp	r0, #0
 874 06dc 7B00001A 		bne	.L119
 875              	.L120:
 876 06e0 7C329FE5 		ldr	r3, .L188+24
 877 06e4 0030D3E5 		ldrb	r3, [r3, #0]	@ zero_extendqisi2
 878 06e8 010053E3 		cmp	r3, #1
 879 06ec 3900001A 		bne	.L130
 880 06f0 70329FE5 		ldr	r3, .L188+28
 881 06f4 000093E5 		ldr	r0, [r3, #0]	@ float
 882 06f8 6C329FE5 		ldr	r3, .L188+32
 883 06fc 001093E5 		ldr	r1, [r3, #0]	@ float
 884 0700 FEFFFFEB 		bl	__aeabi_fcmpgt
 885 0704 000050E3 		cmp	r0, #0
 886 0708 3200000A 		beq	.L130
 887 070c FEFFFFEB 		bl	stateGetHorizontalSpeedDir_f
 888 0710 000090E5 		ldr	r0, [r0, #0]	@ float
 889 0714 FEFFFFEB 		bl	__aeabi_f2d
 890 0718 64229FE5 		ldr	r2, .L188+56
 891 071c 64329FE5 		ldr	r3, .L188+60
 892 0720 FEFFFFEB 		bl	__aeabi_dmul
 893 0724 0020A0E1 		mov	r2, r0
 894 0728 0130A0E1 		mov	r3, r1
 895 072c 0000A0E3 		mov	r0, #0
 896 0730 64129FE5 		ldr	r1, .L188+80
 897 0734 FEFFFFEB 		bl	__aeabi_dsub
 898 0738 FEFFFFEB 		bl	__aeabi_d2f
 899 073c 0050A0E3 		mov	r5, #0
 900 0740 0040A0E1 		mov	r4, r0
 901 0744 030000EA 		b	.L132
 902              	.L135:
 903 0748 0400A0E1 		mov	r0, r4
 904 074c 38129FE5 		ldr	r1, .L188+64
 905 0750 FEFFFFEB 		bl	__aeabi_fadd
 906 0754 0040A0E1 		mov	r4, r0
 907              	.L132:
 908 0758 0400A0E1 		mov	r0, r4
 909 075c 0010A0E3 		mov	r1, #0
 910 0760 FEFFFFEB 		bl	__aeabi_fcmplt
 911 0764 000050E3 		cmp	r0, #0
 912 0768 FF6005E2 		and	r6, r5, #255
 913 076c 0700000A 		beq	.L181
 914 0770 015085E2 		add	r5, r5, #1
 915 0774 010C55E3 		cmp	r5, #256
 916 0778 F2FFFF1A 		bne	.L135
 917 077c 0060A0E3 		mov	r6, #0
 918 0780 020000EA 		b	.L181
 919              	.L139:
 920 0784 00129FE5 		ldr	r1, .L188+64
 921 0788 FEFFFFEB 		bl	__aeabi_fsub
 922 078c 0040A0E1 		mov	r4, r0
 923              	.L181:
 924 0790 0400A0E1 		mov	r0, r4
 925 0794 F0119FE5 		ldr	r1, .L188+64
 926 0798 FEFFFFEB 		bl	__aeabi_fcmpge
 927 079c 000050E3 		cmp	r0, #0
 928 07a0 0400A0E1 		mov	r0, r4
 929 07a4 0200000A 		beq	.L137
 930 07a8 016086E2 		add	r6, r6, #1
 931 07ac FF6016E2 		ands	r6, r6, #255
 932 07b0 F3FFFF1A 		bne	.L139
 933              	.L137:
 934 07b4 D4119FE5 		ldr	r1, .L188+68
 935 07b8 FEFFFFEB 		bl	__aeabi_fcmpgt
 936 07bc 000050E3 		cmp	r0, #0
 937 07c0 4200001A 		bne	.L119
 938 07c4 0400A0E1 		mov	r0, r4
 939 07c8 C4119FE5 		ldr	r1, .L188+72
 940 07cc FEFFFFEB 		bl	__aeabi_fcmplt
 941 07d0 000050E3 		cmp	r0, #0
 942 07d4 3D00001A 		bne	.L119
 943              	.L130:
 944 07d8 84319FE5 		ldr	r3, .L188+24
 945 07dc 0030D3E5 		ldrb	r3, [r3, #0]	@ zero_extendqisi2
 946 07e0 010053E3 		cmp	r3, #1
 947 07e4 3F00001A 		bne	.L140
 948 07e8 78319FE5 		ldr	r3, .L188+28
 949 07ec 000093E5 		ldr	r0, [r3, #0]	@ float
 950 07f0 74319FE5 		ldr	r3, .L188+32
 951 07f4 001093E5 		ldr	r1, [r3, #0]	@ float
 952 07f8 FEFFFFEB 		bl	__aeabi_fcmplt
 953 07fc 000050E3 		cmp	r0, #0
 954 0800 3800000A 		beq	.L140
 955 0804 FEFFFFEB 		bl	stateGetHorizontalSpeedDir_f
 956 0808 000090E5 		ldr	r0, [r0, #0]	@ float
 957 080c FEFFFFEB 		bl	__aeabi_f2d
 958 0810 6C219FE5 		ldr	r2, .L188+56
 959 0814 6C319FE5 		ldr	r3, .L188+60
 960 0818 FEFFFFEB 		bl	__aeabi_dmul
 961 081c 0020A0E1 		mov	r2, r0
 962 0820 0130A0E1 		mov	r3, r1
 963 0824 0000A0E3 		mov	r0, #0
 964 0828 70119FE5 		ldr	r1, .L188+84
 965 082c FEFFFFEB 		bl	__aeabi_dsub
 966 0830 FEFFFFEB 		bl	__aeabi_d2f
 967 0834 0050A0E3 		mov	r5, #0
 968 0838 0040A0E1 		mov	r4, r0
 969 083c 030000EA 		b	.L142
 970              	.L145:
 971 0840 0400A0E1 		mov	r0, r4
 972 0844 40119FE5 		ldr	r1, .L188+64
 973 0848 FEFFFFEB 		bl	__aeabi_fadd
 974 084c 0040A0E1 		mov	r4, r0
 975              	.L142:
 976 0850 0400A0E1 		mov	r0, r4
 977 0854 0010A0E3 		mov	r1, #0
 978 0858 FEFFFFEB 		bl	__aeabi_fcmplt
 979 085c 000050E3 		cmp	r0, #0
 980 0860 FF6005E2 		and	r6, r5, #255
 981 0864 0700000A 		beq	.L182
 982 0868 015085E2 		add	r5, r5, #1
 983 086c 010C55E3 		cmp	r5, #256
 984 0870 F2FFFF1A 		bne	.L145
 985 0874 0060A0E3 		mov	r6, #0
 986 0878 020000EA 		b	.L182
 987              	.L149:
 988 087c 08119FE5 		ldr	r1, .L188+64
 989 0880 FEFFFFEB 		bl	__aeabi_fsub
 990 0884 0040A0E1 		mov	r4, r0
 991              	.L182:
 992 0888 0400A0E1 		mov	r0, r4
 993 088c F8109FE5 		ldr	r1, .L188+64
 994 0890 FEFFFFEB 		bl	__aeabi_fcmpge
 995 0894 000050E3 		cmp	r0, #0
 996 0898 0400A0E1 		mov	r0, r4
 997 089c 0200000A 		beq	.L147
 998 08a0 016086E2 		add	r6, r6, #1
 999 08a4 FF6016E2 		ands	r6, r6, #255
 1000 08a8 F3FFFF1A 		bne	.L149
 1001              	.L147:
 1002 08ac DC109FE5 		ldr	r1, .L188+68
 1003 08b0 FEFFFFEB 		bl	__aeabi_fcmpgt
 1004 08b4 000050E3 		cmp	r0, #0
 1005 08b8 0400001A 		bne	.L119
 1006 08bc 0400A0E1 		mov	r0, r4
 1007 08c0 CC109FE5 		ldr	r1, .L188+72
 1008 08c4 FEFFFFEB 		bl	__aeabi_fcmplt
 1009 08c8 000050E3 		cmp	r0, #0
 1010 08cc 0500000A 		beq	.L140
 1011              	.L119:
 1012 08d0 98209FE5 		ldr	r2, .L188+36
 1013 08d4 0030A0E3 		mov	r3, #0
 1014 08d8 0030C2E5 		strb	r3, [r2, #0]
 1015 08dc C0209FE5 		ldr	r2, .L188+88
 1016 08e0 0030C2E5 		strb	r3, [r2, #0]
 1017 08e4 050000EA 		b	.L98
 1018              	.L140:
 1019 08e8 60309FE5 		ldr	r3, .L188+4
 1020 08ec 000093E5 		ldr	r0, [r3, #0]	@ float
 1021 08f0 041093E5 		ldr	r1, [r3, #4]	@ float
 1022 08f4 80309FE5 		ldr	r3, .L188+48
 1023 08f8 002093E5 		ldr	r2, [r3, #0]	@ float
 1024 08fc FEFFFFEB 		bl	nav_circle_XY
 1025              	.L98:
 1026 0900 A0309FE5 		ldr	r3, .L188+92
 1027 0904 0020A0E3 		mov	r2, #0
 1028 0908 0020C3E5 		strb	r2, [r3, #0]
 1029 090c 98209FE5 		ldr	r2, .L188+96
 1030 0910 0030A0E3 		mov	r3, #0
 1031 0914 003082E5 		str	r3, [r2, #0]	@ float
 1032 0918 90209FE5 		ldr	r2, .L188+100
 1033 091c 0310A0E3 		mov	r1, #3
 1034 0920 0010C2E5 		strb	r1, [r2, #0]
 1035 0924 24209FE5 		ldr	r2, .L188+4
 1036 0928 0C10A0E3 		mov	r1, #12
 1037 092c 912A2AE0 		mla	sl, r1, sl, r2
 1038 0930 7C209FE5 		ldr	r2, .L188+104
 1039 0934 08109AE5 		ldr	r1, [sl, #8]	@ float
 1040 0938 001082E5 		str	r1, [r2, #0]	@ float
 1041 093c 74209FE5 		ldr	r2, .L188+108
 1042 0940 003082E5 		str	r3, [r2, #0]	@ float
 1043 0944 FC47BDE8 		ldmfd	sp!, {r2, r3, r4, r5, r6, r7, r8, r9, sl, lr}
 1044 0948 1EFF2FE1 		bx	lr
 1045              	.L189:
 1046              		.align	2
 1047              	.L188:
 1048 094c 00000000 		.word	nav_survey_active
 1049 0950 00000000 		.word	waypoints
 1050 0954 00000000 		.word	nav_survey_west
 1051 0958 00000000 		.word	nav_survey_east
 1052 095c 00000000 		.word	nav_survey_south
 1053 0960 00000000 		.word	nav_survey_north
 1054 0964 00000000 		.word	.LANCHOR0
 1055 0968 00000000 		.word	.LANCHOR1
 1056 096c 00000000 		.word	.LANCHOR2
 1057 0970 00000000 		.word	.LANCHOR3
 1058 0974 00000000 		.word	nav_survey_shift
 1059 0978 0000E03F 		.word	1071644672
 1060 097c 00000000 		.word	.LANCHOR4
 1061 0980 00000000 		.word	nav_in_segment
 1062 0984 F8C1631A 		.word	442745336
 1063 0988 DCA54C40 		.word	1078765020
 1064 098c 0000B443 		.word	1135869952
 1065 0990 0000AF43 		.word	1135542272
 1066 0994 00002041 		.word	1092616192
 1067 0998 00806640 		.word	1080459264
 1068 099c 00805640 		.word	1079410688
 1069 09a0 00E07040 		.word	1081139200
 1070 09a4 00000000 		.word	nav_in_circle
 1071 09a8 00000000 		.word	v_ctl_climb_mode
 1072 09ac 00000000 		.word	nav_pitch
 1073 09b0 00000000 		.word	v_ctl_mode
 1074 09b4 00000000 		.word	nav_altitude
 1075 09b8 00000000 		.word	v_ctl_altitude_pre_climb
 1077              		.section	.bss.survey_from,"aw",%nobits
 1078              		.align	2
 1079              		.set	.LANCHOR2,. + 0
 1082              	survey_from:
 1083 0000 00000000 		.space	12
 1083      00000000 
 1083      00000000 
 1084              		.section	.bss.survey_orientation,"aw",%nobits
 1085              		.set	.LANCHOR0,. + 0
 1088              	survey_orientation:
 1089 0000 00       		.space	1
 1090              		.section	.bss.survey_to,"aw",%nobits
 1091              		.align	2
 1092              		.set	.LANCHOR1,. + 0
 1095              	survey_to:
 1096 0000 00000000 		.space	12
 1096      00000000 
 1096      00000000 
 1097              		.section	.bss.survey_uturn,"aw",%nobits
 1098              		.set	.LANCHOR3,. + 0
 1101              	survey_uturn:
 1102 0000 00       		.space	1
 1103              		.section	.bss.survey_radius.4080,"aw",%nobits
 1104              		.align	2
 1105              		.set	.LANCHOR4,. + 0
 1108              	survey_radius.4080:
 1109 0000 00000000 		.space	4
 1110              		.ident	"GCC: (Linaro GCC 4.6-2011.09-1) 4.6.2 20110908 (prerelease)"