   1              		.cpu arm7tdmi
   2              		.fpu softvfp
   3              		.eabi_attribute 20, 1
   4              		.eabi_attribute 21, 1
   5              		.eabi_attribute 23, 3
   6              		.eabi_attribute 24, 1
   7              		.eabi_attribute 25, 1
   8              		.eabi_attribute 26, 1
   9              		.eabi_attribute 30, 4
  10              		.eabi_attribute 18, 4
  11              		.file	"openlog.c"
  12              		.section	.text.init_openlog,"ax",%progbits
  13              		.align	2
  14              		.global	init_openlog
  16              	init_openlog:
  17              		@ Function supports interworking.
  18              		@ args = 0, pretend = 0, frame = 0
  19              		@ frame_needed = 0, uses_anonymous_args = 0
  20              		@ link register save eliminated.
  21 0000 1EFF2FE1 		bx	lr
  23              		.section	.text.periodic_2Hz_openlog,"ax",%progbits
  24              		.align	2
  25              		.global	periodic_2Hz_openlog
  27              	periodic_2Hz_openlog:
  28              		@ Function supports interworking.
  29              		@ args = 0, pretend = 0, frame = 0
  30              		@ frame_needed = 0, uses_anonymous_args = 0
  31 0000 70402DE9 		stmfd	sp!, {r4, r5, r6, lr}
  32 0004 78519FE5 		ldr	r5, .L5
  33 0008 003095E5 		ldr	r3, [r5, #0]
  34 000c 74019FE5 		ldr	r0, .L5+4
  35 0010 7D3F83E2 		add	r3, r3, #500
  36 0014 0F10A0E3 		mov	r1, #15
  37 0018 003085E5 		str	r3, [r5, #0]
  38 001c FEFFFFEB 		bl	uart_check_free_space
  39 0020 000050E3 		cmp	r0, #0
  40 0024 5000000A 		beq	.L3
  41 0028 5C319FE5 		ldr	r3, .L5+8
  42 002c B020D3E1 		ldrh	r2, [r3, #0]
  43 0030 0F2082E2 		add	r2, r2, #15
  44 0034 B020C3E1 		strh	r2, [r3, #0]	@ movhi
  45 0038 50319FE5 		ldr	r3, .L5+12
  46 003c B020D3E1 		ldrh	r2, [r3, #0]
  47 0040 012082E2 		add	r2, r2, #1
  48 0044 B020C3E1 		strh	r2, [r3, #0]	@ movhi
  49 0048 38019FE5 		ldr	r0, .L5+4
  50 004c 7E10A0E3 		mov	r1, #126
  51 0050 FEFFFFEB 		bl	uart_transmit
  52 0054 2C019FE5 		ldr	r0, .L5+4
  53 0058 0010A0E3 		mov	r1, #0
  54 005c 30419FE5 		ldr	r4, .L5+16
  55 0060 FEFFFFEB 		bl	uart_transmit
  56 0064 0160A0E3 		mov	r6, #1
  57 0068 18019FE5 		ldr	r0, .L5+4
  58 006c 0B10A0E3 		mov	r1, #11
  59 0070 FEFFFFEB 		bl	uart_transmit
  60 0074 0610A0E1 		mov	r1, r6
  61 0078 08019FE5 		ldr	r0, .L5+4
  62 007c 0060C4E5 		strb	r6, [r4, #0]
  63 0080 FEFFFFEB 		bl	uart_transmit
  64 0084 FC009FE5 		ldr	r0, .L5+4
  65 0088 0010A0E3 		mov	r1, #0
  66 008c FEFFFFEB 		bl	uart_transmit
  67 0090 0030D4E5 		ldrb	r3, [r4, #0]	@ zero_extendqisi2
  68 0094 0610A0E1 		mov	r1, r6
  69 0098 063083E0 		add	r3, r3, r6
  70 009c E4009FE5 		ldr	r0, .L5+4
  71 00a0 0030C4E5 		strb	r3, [r4, #0]
  72 00a4 FEFFFFEB 		bl	uart_transmit
  73 00a8 D8009FE5 		ldr	r0, .L5+4
  74 00ac 0010A0E3 		mov	r1, #0
  75 00b0 FEFFFFEB 		bl	uart_transmit
  76 00b4 CC009FE5 		ldr	r0, .L5+4
  77 00b8 0010A0E3 		mov	r1, #0
  78 00bc FEFFFFEB 		bl	uart_transmit
  79 00c0 0030D4E5 		ldrb	r3, [r4, #0]	@ zero_extendqisi2
  80 00c4 BC009FE5 		ldr	r0, .L5+4
  81 00c8 023083E2 		add	r3, r3, #2
  82 00cc 0210A0E3 		mov	r1, #2
  83 00d0 0030C4E5 		strb	r3, [r4, #0]
  84 00d4 FEFFFFEB 		bl	uart_transmit
  85 00d8 0030D4E5 		ldrb	r3, [r4, #0]	@ zero_extendqisi2
  86 00dc A4009FE5 		ldr	r0, .L5+4
  87 00e0 7F3043E2 		sub	r3, r3, #127
  88 00e4 8110A0E3 		mov	r1, #129
  89 00e8 0030C4E5 		strb	r3, [r4, #0]
  90 00ec FEFFFFEB 		bl	uart_transmit
  91 00f0 0010D5E5 		ldrb	r1, [r5, #0]	@ zero_extendqisi2
  92 00f4 0030D4E5 		ldrb	r3, [r4, #0]	@ zero_extendqisi2
  93 00f8 88009FE5 		ldr	r0, .L5+4
  94 00fc 033081E0 		add	r3, r1, r3
  95 0100 0030C4E5 		strb	r3, [r4, #0]
  96 0104 FEFFFFEB 		bl	uart_transmit
  97 0108 0110D5E5 		ldrb	r1, [r5, #1]	@ zero_extendqisi2
  98 010c 0030D4E5 		ldrb	r3, [r4, #0]	@ zero_extendqisi2
  99 0110 70009FE5 		ldr	r0, .L5+4
 100 0114 033081E0 		add	r3, r1, r3
 101 0118 0030C4E5 		strb	r3, [r4, #0]
 102 011c FEFFFFEB 		bl	uart_transmit
 103 0120 0210D5E5 		ldrb	r1, [r5, #2]	@ zero_extendqisi2
 104 0124 0030D4E5 		ldrb	r3, [r4, #0]	@ zero_extendqisi2
 105 0128 58009FE5 		ldr	r0, .L5+4
 106 012c 033081E0 		add	r3, r1, r3
 107 0130 0030C4E5 		strb	r3, [r4, #0]
 108 0134 FEFFFFEB 		bl	uart_transmit
 109 0138 0310D5E5 		ldrb	r1, [r5, #3]	@ zero_extendqisi2
 110 013c 0030D4E5 		ldrb	r3, [r4, #0]	@ zero_extendqisi2
 111 0140 40009FE5 		ldr	r0, .L5+4
 112 0144 033081E0 		add	r3, r1, r3
 113 0148 0030C4E5 		strb	r3, [r4, #0]
 114 014c FEFFFFEB 		bl	uart_transmit
 115 0150 0010D4E5 		ldrb	r1, [r4, #0]	@ zero_extendqisi2
 116 0154 0110E0E1 		mvn	r1, r1
 117 0158 FF1001E2 		and	r1, r1, #255
 118 015c 24009FE5 		ldr	r0, .L5+4
 119 0160 0010C4E5 		strb	r1, [r4, #0]
 120 0164 FEFFFFEB 		bl	uart_transmit
 121 0168 030000EA 		b	.L2
 122              	.L3:
 123 016c 24309FE5 		ldr	r3, .L5+20
 124 0170 0020D3E5 		ldrb	r2, [r3, #0]	@ zero_extendqisi2
 125 0174 012082E2 		add	r2, r2, #1
 126 0178 0020C3E5 		strb	r2, [r3, #0]
 127              	.L2:
 128 017c 7040BDE8 		ldmfd	sp!, {r4, r5, r6, lr}
 129 0180 1EFF2FE1 		bx	lr
 130              	.L6:
 131              		.align	2
 132              	.L5:
 133 0184 00000000 		.word	.LANCHOR0
 134 0188 00000000 		.word	uart0
 135 018c 00000000 		.word	downlink_nb_bytes
 136 0190 00000000 		.word	downlink_nb_msgs
 137 0194 00000000 		.word	xbee_cs
 138 0198 00000000 		.word	downlink_nb_ovrn
 140              		.global	timestamp
 141              		.section	.bss.timestamp,"aw",%nobits
 142              		.align	2
 143              		.set	.LANCHOR0,. + 0
 146              	timestamp:
 147 0000 00000000 		.space	4
 148              		.ident	"GCC: (Linaro GCC 4.6-2011.09-1) 4.6.2 20110908 (prerelease)"
DEFINED SYMBOLS
                            *ABS*:00000000 openlog.c
     /tmp/cchgK2xB.s:13     .text.init_openlog:00000000 $a
     /tmp/cchgK2xB.s:16     .text.init_openlog:00000000 init_openlog
     /tmp/cchgK2xB.s:24     .text.periodic_2Hz_openlog:00000000 $a
     /tmp/cchgK2xB.s:27     .text.periodic_2Hz_openlog:00000000 periodic_2Hz_openlog
     /tmp/cchgK2xB.s:133    .text.periodic_2Hz_openlog:00000184 $d
     /tmp/cchgK2xB.s:146    .bss.timestamp:00000000 timestamp
     /tmp/cchgK2xB.s:142    .bss.timestamp:00000000 $d

UNDEFINED SYMBOLS
uart_check_free_space
uart_transmit
uart0
downlink_nb_bytes
downlink_nb_msgs
xbee_cs
downlink_nb_ovrn
