   1              		.cpu arm7tdmi
   2              		.fpu softvfp
   3              		.eabi_attribute 20, 1
   4              		.eabi_attribute 21, 1
   5              		.eabi_attribute 23, 3
   6              		.eabi_attribute 24, 1
   7              		.eabi_attribute 25, 1
   8              		.eabi_attribute 26, 1
   9              		.eabi_attribute 30, 4
  10              		.eabi_attribute 18, 4
  11              		.file	"sys_time_arch.c"
  12              		.section	.text.TIMER0_ISR,"ax",%progbits
  13              		.align	2
  14              		.global	TIMER0_ISR
  16              	TIMER0_ISR:
  17              		@ Function supports interworking.
  18              		@ Naked Function: prologue and epilogue provided by programmer.
  19              		@ args = 0, pretend = 0, frame = 8
  20              		@ frame_needed = 0, uses_anonymous_args = 0
  21              	@ 155 "arch/lpc21/mcu_periph/sys_time_arch.c" 1
  22 0000 04E04EE2 		 sub   lr, lr,#4
  23 0004 FF5F2DE9 	 stmfd sp!,{r0-r12,lr}
  24 0008 00104FE1 	 mrs   r1, spsr
  25 000c 02002DE9 	 stmfd sp!,{r1}
  26              	@ 0 "" 2
  27 0010 A0429FE5 		ldr	r4, .L27
  28 0014 A0529FE5 		ldr	r5, .L27+4
  29 0018 A0929FE5 		ldr	r9, .L27+8
  30 001c A0829FE5 		ldr	r8, .L27+12
  31 0020 A0A29FE5 		ldr	sl, .L27+16
  32 0024 9B0000EA 		b	.L23
  33              	.L19:
  34 0028 003094E5 		ldr	r3, [r4, #0]
  35 002c 010013E3 		tst	r3, #1
  36 0030 3200000A 		beq	.L3
  37 0034 183094E5 		ldr	r3, [r4, #24]
  38 0038 3D3A83E2 		add	r3, r3, #249856
  39 003c 8F3083E2 		add	r3, r3, #143
  40 0040 183084E5 		str	r3, [r4, #24]
  41 0044 083095E5 		ldr	r3, [r5, #8]
  42 0048 013083E2 		add	r3, r3, #1
  43 004c 083085E5 		str	r3, [r5, #8]
  44 0050 043095E5 		ldr	r3, [r5, #4]
  45 0054 3D3A83E2 		add	r3, r3, #249856
  46 0058 903083E2 		add	r3, r3, #144
  47 005c 043085E5 		str	r3, [r5, #4]
  48 0060 043095E5 		ldr	r3, [r5, #4]
  49 0064 090053E1 		cmp	r3, r9
  50 0068 0600009A 		bls	.L4
  51 006c 042095E5 		ldr	r2, [r5, #4]
  52 0070 54329FE5 		ldr	r3, .L27+20
  53 0074 033082E0 		add	r3, r2, r3
  54 0078 043085E5 		str	r3, [r5, #4]
  55 007c 003095E5 		ldr	r3, [r5, #0]
  56 0080 013083E2 		add	r3, r3, #1
  57 0084 003085E5 		str	r3, [r5, #0]
  58              	.L4:
  59 0088 2C629FE5 		ldr	r6, .L27+4
  60 008c 0070A0E3 		mov	r7, #0
  61 0090 1420A0E3 		mov	r2, #20
  62 0094 01B0A0E3 		mov	fp, #1
  63              	.L6:
  64 0098 0C30D6E5 		ldrb	r3, [r6, #12]	@ zero_extendqisi2
  65 009c 000053E3 		cmp	r3, #0
  66 00a0 1000000A 		beq	.L5
  67 00a4 081095E5 		ldr	r1, [r5, #8]
  68 00a8 183096E5 		ldr	r3, [r6, #24]
  69 00ac 030051E1 		cmp	r1, r3
  70 00b0 0C00003A 		bcc	.L5
  71 00b4 1C1096E5 		ldr	r1, [r6, #28]
  72 00b8 033081E0 		add	r3, r1, r3
  73 00bc 183086E5 		str	r3, [r6, #24]
  74 00c0 925723E0 		mla	r3, r2, r7, r5
  75 00c4 14B0C3E5 		strb	fp, [r3, #20]
  76 00c8 103096E5 		ldr	r3, [r6, #16]
  77 00cc 000053E3 		cmp	r3, #0
  78 00d0 0400000A 		beq	.L5
  79 00d4 04208DE5 		str	r2, [sp, #4]
  80 00d8 FF0007E2 		and	r0, r7, #255
  81 00dc 0FE0A0E1 		mov	lr, pc
  82 00e0 13FF2FE1 		bx	r3
  83 00e4 04209DE5 		ldr	r2, [sp, #4]
  84              	.L5:
  85 00e8 017087E2 		add	r7, r7, #1
  86 00ec 080057E3 		cmp	r7, #8
  87 00f0 146086E2 		add	r6, r6, #20
  88 00f4 E7FFFF1A 		bne	.L6
  89 00f8 0130A0E3 		mov	r3, #1
  90 00fc 003084E5 		str	r3, [r4, #0]
  91              	.L3:
  92 0100 003094E5 		ldr	r3, [r4, #0]
  93 0104 020013E3 		tst	r3, #2
  94 0108 A8219FE5 		ldr	r2, .L27
  95 010c 2F00000A 		beq	.L7
  96 0110 0030D8E5 		ldrb	r3, [r8, #0]	@ zero_extendqisi2
  97 0114 000053E3 		cmp	r3, #0
  98 0118 0700001A 		bne	.L8
  99 011c AC019FE5 		ldr	r0, .L27+24
 100 0120 AC119FE5 		ldr	r1, .L27+28
 101 0124 000081E5 		str	r0, [r1, #0]
 102 0128 A8119FE5 		ldr	r1, .L27+32
 103 012c 1C0091E5 		ldr	r0, [r1, #28]
 104 0130 020580E3 		orr	r0, r0, #8388608
 105 0134 1C0081E5 		str	r0, [r1, #28]
 106 0138 010000EA 		b	.L9
 107              	.L8:
 108 013c 070053E3 		cmp	r3, #7
 109 0140 0B00008A 		bhi	.L10
 110              	.L9:
 111 0144 8310A0E1 		mov	r1, r3, asl #1
 112 0148 1C0092E5 		ldr	r0, [r2, #28]
 113 014c B1109AE1 		ldrh	r1, [sl, r1]
 114 0150 000081E0 		add	r0, r1, r0
 115 0154 1C0082E5 		str	r0, [r2, #28]
 116 0158 74219FE5 		ldr	r2, .L27+28
 117 015c 000092E5 		ldr	r0, [r2, #0]
 118 0160 013083E2 		add	r3, r3, #1
 119 0164 001061E0 		rsb	r1, r1, r0
 120 0168 001082E5 		str	r1, [r2, #0]
 121 016c 0030C8E5 		strb	r3, [r8, #0]
 122 0170 110000EA 		b	.L11
 123              	.L10:
 124 0174 080053E3 		cmp	r3, #8
 125 0178 58319FE5 		ldr	r3, .L27+32
 126 017c 142093E5 		ldr	r2, [r3, #20]
 127 0180 02258213 		orrne	r2, r2, #8388608
 128 0184 14208315 		strne	r2, [r3, #20]
 129 0188 1C209315 		ldrne	r2, [r3, #28]
 130 018c 01248203 		orreq	r2, r2, #16777216
 131 0190 01248213 		orrne	r2, r2, #16777216
 132 0194 14208305 		streq	r2, [r3, #20]
 133 0198 1C208315 		strne	r2, [r3, #28]
 134 019c 0930A003 		moveq	r3, #9
 135 01a0 0030A013 		movne	r3, #0
 136 01a4 0030C8E5 		strb	r3, [r8, #0]
 137 01a8 24219FE5 		ldr	r2, .L27+28
 138 01ac 1C3094E5 		ldr	r3, [r4, #28]
 139 01b0 002092E5 		ldr	r2, [r2, #0]
 140 01b4 A23083E0 		add	r3, r3, r2, lsr #1
 141 01b8 1C3084E5 		str	r3, [r4, #28]
 142              	.L11:
 143 01bc 3C3094E5 		ldr	r3, [r4, #60]
 144 01c0 0230C3E3 		bic	r3, r3, #2
 145 01c4 3C3084E5 		str	r3, [r4, #60]
 146 01c8 0230A0E3 		mov	r3, #2
 147 01cc 003084E5 		str	r3, [r4, #0]
 148              	.L7:
 149 01d0 003094E5 		ldr	r3, [r4, #0]
 150 01d4 400013E3 		tst	r3, #64
 151 01d8 2E00000A 		beq	.L23
 152 01dc 342094E5 		ldr	r2, [r4, #52]
 153 01e0 F4309FE5 		ldr	r3, .L27+36
 154 01e4 001093E5 		ldr	r1, [r3, #0]
 155 01e8 002083E5 		str	r2, [r3, #0]
 156 01ec EC309FE5 		ldr	r3, .L27+40
 157 01f0 021061E0 		rsb	r1, r1, r2
 158 01f4 0020D3E5 		ldrb	r2, [r3, #0]	@ zero_extendqisi2
 159 01f8 070052E3 		cmp	r2, #7
 160 01fc 1000001A 		bne	.L14
 161 0200 DC309FE5 		ldr	r3, .L27+44
 162 0204 491B41E2 		sub	r1, r1, #74752
 163 0208 F91041E2 		sub	r1, r1, #249
 164 020c 030051E1 		cmp	r1, r3
 165 0210 0020A083 		movhi	r2, #0
 166 0214 CC309FE5 		ldr	r3, .L27+48
 167 0218 1B00008A 		bhi	.L25
 168 021c 0020D3E5 		ldrb	r2, [r3, #0]	@ zero_extendqisi2
 169 0220 000052E3 		cmp	r2, #0
 170 0224 C0209F15 		ldrne	r2, .L27+52
 171 0228 0110A013 		movne	r1, #1
 172 022c 0010C215 		strneb	r1, [r2, #0]
 173 0230 0020A013 		movne	r2, #0
 174 0234 0020C315 		strneb	r2, [r3, #0]
 175 0238 0020A0E3 		mov	r2, #0
 176 023c 9C309FE5 		ldr	r3, .L27+40
 177 0240 110000EA 		b	.L25
 178              	.L14:
 179 0244 D20D41E2 		sub	r0, r1, #13440
 180 0248 A0C09FE5 		ldr	ip, .L27+56
 181 024c 3D0040E2 		sub	r0, r0, #61
 182 0250 0C0050E1 		cmp	r0, ip
 183 0254 0720A083 		movhi	r2, #7
 184 0258 0020C385 		strhib	r2, [r3, #0]
 185 025c 0020A083 		movhi	r2, #0
 186 0260 0800008A 		bhi	.L26
 187 0264 8200A0E1 		mov	r0, r2, asl #1
 188 0268 012082E2 		add	r2, r2, #1
 189 026c FF2002E2 		and	r2, r2, #255
 190 0270 7CC09FE5 		ldr	ip, .L27+60
 191 0274 070052E3 		cmp	r2, #7
 192 0278 0020C3E5 		strb	r2, [r3, #0]
 193 027c B0108CE1 		strh	r1, [ip, r0]	@ movhi
 194 0280 0120A003 		moveq	r2, #1
 195 0284 0100001A 		bne	.L17
 196              	.L26:
 197 0288 58309FE5 		ldr	r3, .L27+48
 198              	.L25:
 199 028c 0020C3E5 		strb	r2, [r3, #0]
 200              	.L17:
 201 0290 4030A0E3 		mov	r3, #64
 202 0294 003084E5 		str	r3, [r4, #0]
 203              	.L23:
 204 0298 003094E5 		ldr	r3, [r4, #0]
 205 029c 433013E2 		ands	r3, r3, #67
 206 02a0 60FFFF1A 		bne	.L19
 207 02a4 0020E0E3 		mvn	r2, #0
 208 02a8 CF3F02E5 		str	r3, [r2, #-4047]
 209              	@ 224 "arch/lpc21/mcu_periph/sys_time_arch.c" 1
 210 02ac 0200BDE8 		 ldmfd sp!,{r1}
 211 02b0 01F061E1 	 msr   spsr_c,r1
 212 02b4 FF9FFDE8 	 ldmfd sp!,{r0-r12,pc}^
 213              	@ 0 "" 2
 214              	.L28:
 215              		.align	2
 216              	.L27:
 217 02b8 004000E0 		.word	-536854528
 218 02bc 00000000 		.word	sys_time
 219 02c0 BFE1E400 		.word	14999999
 220 02c4 00000000 		.word	servos_4015_idx
 221 02c8 00000000 		.word	servos_values
 222 02cc 401E1BFF 		.word	-15000000
 223 02d0 E0930400 		.word	300000
 224 02d4 00000000 		.word	servos_delay
 225 02d8 008002E0 		.word	-536707072
 226 02dc 00000000 		.word	ppm_last_pulse_time
 227 02e0 00000000 		.word	ppm_cur_pulse
 228 02e4 EE490200 		.word	149998
 229 02e8 00000000 		.word	ppm_data_valid
 230 02ec 00000000 		.word	ppm_frame_available
 231 02f0 4E460000 		.word	17998
 232 02f4 00000000 		.word	ppm_pulses
 234              		.section	.text.sys_time_arch_init,"ax",%progbits
 235              		.align	2
 236              		.global	sys_time_arch_init
 238              	sys_time_arch_init:
 239              		@ Function supports interworking.
 240              		@ args = 0, pretend = 0, frame = 0
 241              		@ frame_needed = 0, uses_anonymous_args = 0
 242              		@ link register save eliminated.
 243 0000 54309FE5 		ldr	r3, .L30
 244 0004 0220A0E3 		mov	r2, #2
 245 0008 042083E5 		str	r2, [r3, #4]
 246 000c 0110A0E3 		mov	r1, #1
 247 0010 0020A0E3 		mov	r2, #0
 248 0014 0C2083E5 		str	r2, [r3, #12]
 249 0018 141083E5 		str	r1, [r3, #20]
 250 001c 282083E5 		str	r2, [r3, #40]
 251 0020 3C2083E5 		str	r2, [r3, #60]
 252 0024 34209FE5 		ldr	r2, .L30+4
 253 0028 182083E5 		str	r2, [r3, #24]
 254 002c 041083E5 		str	r1, [r3, #4]
 255 0030 0030E0E3 		mvn	r3, #0
 256 0034 F32F13E5 		ldr	r2, [r3, #-4083]
 257 0038 1020C2E3 		bic	r2, r2, #16
 258 003c F32F03E5 		str	r2, [r3, #-4083]
 259 0040 1020A0E3 		mov	r2, #16
 260 0044 EF2F03E5 		str	r2, [r3, #-4079]
 261 0048 2420A0E3 		mov	r2, #36
 262 004c FB2D03E5 		str	r2, [r3, #-3579]
 263 0050 0C209FE5 		ldr	r2, .L30+8
 264 0054 FB2E03E5 		str	r2, [r3, #-3835]
 265 0058 1EFF2FE1 		bx	lr
 266              	.L31:
 267              		.align	2
 268              	.L30:
 269 005c 004000E0 		.word	-536854528
 270 0060 90D00300 		.word	250000
 271 0064 00000000 		.word	TIMER0_ISR
 273              		.ident	"GCC: (Linaro GCC 4.6-2011.09-1) 4.6.2 20110908 (prerelease)"
DEFINED SYMBOLS
                            *ABS*:00000000 sys_time_arch.c
     /tmp/ccyqyTVA.s:13     .text.TIMER0_ISR:00000000 $a
     /tmp/ccyqyTVA.s:16     .text.TIMER0_ISR:00000000 TIMER0_ISR
     /tmp/ccyqyTVA.s:217    .text.TIMER0_ISR:000002b8 $d
     /tmp/ccyqyTVA.s:235    .text.sys_time_arch_init:00000000 $a
     /tmp/ccyqyTVA.s:238    .text.sys_time_arch_init:00000000 sys_time_arch_init
     /tmp/ccyqyTVA.s:269    .text.sys_time_arch_init:0000005c $d

UNDEFINED SYMBOLS
sys_time
servos_4015_idx
servos_values
servos_delay
ppm_last_pulse_time
ppm_cur_pulse
ppm_data_valid
ppm_frame_available
ppm_pulses
