   1              		.cpu arm7tdmi
   2              		.fpu softvfp
   3              		.eabi_attribute 20, 1
   4              		.eabi_attribute 21, 1
   5              		.eabi_attribute 23, 3
   6              		.eabi_attribute 24, 1
   7              		.eabi_attribute 25, 1
   8              		.eabi_attribute 26, 1
   9              		.eabi_attribute 30, 4
  10              		.eabi_attribute 18, 4
  11              		.file	"xbee.c"
  12              		.section	.text.sys_time_usleep.constprop.0,"ax",%progbits
  13              		.align	2
  15              	sys_time_usleep.constprop.0:
  16              		@ Function supports interworking.
  17              		@ args = 0, pretend = 0, frame = 0
  18              		@ frame_needed = 0, uses_anonymous_args = 0
  19              		@ link register save eliminated.
  20 0000 18309FE5 		ldr	r3, .L4
  21 0004 18209FE5 		ldr	r2, .L4+4
  22 0008 081093E5 		ldr	r1, [r3, #8]
  23              	.L2:
  24 000c 080093E5 		ldr	r0, [r3, #8]
  25 0010 000061E0 		rsb	r0, r1, r0
  26 0014 020050E1 		cmp	r0, r2
  27 0018 FBFFFF9A 		bls	.L2
  28 001c 1EFF2FE1 		bx	lr
  29              	.L5:
  30              		.align	2
  31              	.L4:
  32 0020 004000E0 		.word	-536854528
  33 0024 2F1A1E01 		.word	18749999
  35              		.section	.text.xbee_init,"ax",%progbits
  36              		.align	2
  37              		.global	xbee_init
  39              	xbee_init:
  40              		@ Function supports interworking.
  41              		@ args = 0, pretend = 0, frame = 0
  42              		@ frame_needed = 0, uses_anonymous_args = 0
  43 0000 34319FE5 		ldr	r3, .L19
  44 0004 70402DE9 		stmfd	sp!, {r4, r5, r6, lr}
  45 0008 0050A0E3 		mov	r5, #0
  46 000c 0451C3E5 		strb	r5, [r3, #260]
  47 0010 0151C3E5 		strb	r5, [r3, #257]
  48 0014 FEFFFFEB 		bl	sys_time_usleep.constprop.0
  49 0018 20619FE5 		ldr	r6, .L19+4
  50 001c 040000EA 		b	.L7
  51              	.L8:
  52 0020 1C019FE5 		ldr	r0, .L19+8
  53 0024 0410A0E1 		mov	r1, r4
  54 0028 FEFFFFEB 		bl	uart_transmit
  55 002c 015085E2 		add	r5, r5, #1
  56 0030 FF5005E2 		and	r5, r5, #255
  57              	.L7:
  58 0034 0540D6E7 		ldrb	r4, [r6, r5]	@ zero_extendqisi2
  59 0038 000054E3 		cmp	r4, #0
  60 003c F7FFFF1A 		bne	.L8
  61 0040 FEFFFFEB 		bl	sys_time_usleep.constprop.0
  62 0044 FC609FE5 		ldr	r6, .L19+12
  63 0048 030000EA 		b	.L9
  64              	.L10:
  65 004c 0510A0E1 		mov	r1, r5
  66 0050 FEFFFFEB 		bl	uart_transmit
  67 0054 014084E2 		add	r4, r4, #1
  68 0058 FF4004E2 		and	r4, r4, #255
  69              	.L9:
  70 005c 0450D6E7 		ldrb	r5, [r6, r4]	@ zero_extendqisi2
  71 0060 000055E3 		cmp	r5, #0
  72 0064 D8009FE5 		ldr	r0, .L19+8
  73 0068 F7FFFF1A 		bne	.L10
  74 006c 3010A0E3 		mov	r1, #48
  75 0070 FEFFFFEB 		bl	uart_transmit
  76 0074 C8009FE5 		ldr	r0, .L19+8
  77 0078 3010A0E3 		mov	r1, #48
  78 007c FEFFFFEB 		bl	uart_transmit
  79 0080 BC009FE5 		ldr	r0, .L19+8
  80 0084 3010A0E3 		mov	r1, #48
  81 0088 FEFFFFEB 		bl	uart_transmit
  82 008c B0009FE5 		ldr	r0, .L19+8
  83 0090 3210A0E3 		mov	r1, #50
  84 0094 FEFFFFEB 		bl	uart_transmit
  85 0098 AC609FE5 		ldr	r6, .L19+16
  86 009c 030000EA 		b	.L11
  87              	.L12:
  88 00a0 9C009FE5 		ldr	r0, .L19+8
  89 00a4 FEFFFFEB 		bl	uart_transmit
  90 00a8 015085E2 		add	r5, r5, #1
  91 00ac FF5005E2 		and	r5, r5, #255
  92              	.L11:
  93 00b0 0510D6E7 		ldrb	r1, [r6, r5]	@ zero_extendqisi2
  94 00b4 000051E3 		cmp	r1, #0
  95 00b8 F8FFFF1A 		bne	.L12
  96 00bc 0140A0E1 		mov	r4, r1
  97 00c0 88609FE5 		ldr	r6, .L19+20
  98 00c4 030000EA 		b	.L13
  99              	.L14:
 100 00c8 74009FE5 		ldr	r0, .L19+8
 101 00cc FEFFFFEB 		bl	uart_transmit
 102 00d0 014084E2 		add	r4, r4, #1
 103 00d4 FF4004E2 		and	r4, r4, #255
 104              	.L13:
 105 00d8 0410D6E7 		ldrb	r1, [r6, r4]	@ zero_extendqisi2
 106 00dc 000051E3 		cmp	r1, #0
 107 00e0 F8FFFF1A 		bne	.L14
 108 00e4 0150A0E1 		mov	r5, r1
 109 00e8 64609FE5 		ldr	r6, .L19+24
 110 00ec 030000EA 		b	.L15
 111              	.L16:
 112 00f0 4C009FE5 		ldr	r0, .L19+8
 113 00f4 FEFFFFEB 		bl	uart_transmit
 114 00f8 015085E2 		add	r5, r5, #1
 115 00fc FF5005E2 		and	r5, r5, #255
 116              	.L15:
 117 0100 0510D6E7 		ldrb	r1, [r6, r5]	@ zero_extendqisi2
 118 0104 000051E3 		cmp	r1, #0
 119 0108 F8FFFF1A 		bne	.L16
 120 010c 0140A0E1 		mov	r4, r1
 121 0110 40509FE5 		ldr	r5, .L19+28
 122 0114 030000EA 		b	.L17
 123              	.L18:
 124 0118 24009FE5 		ldr	r0, .L19+8
 125 011c FEFFFFEB 		bl	uart_transmit
 126 0120 014084E2 		add	r4, r4, #1
 127 0124 FF4004E2 		and	r4, r4, #255
 128              	.L17:
 129 0128 0410D5E7 		ldrb	r1, [r5, r4]	@ zero_extendqisi2
 130 012c 000051E3 		cmp	r1, #0
 131 0130 F8FFFF1A 		bne	.L18
 132 0134 7040BDE8 		ldmfd	sp!, {r4, r5, r6, lr}
 133 0138 1EFF2FE1 		bx	lr
 134              	.L20:
 135              		.align	2
 136              	.L19:
 137 013c 00000000 		.word	xbee_tp
 138 0140 00000000 		.word	.LC1
 139 0144 00000000 		.word	uart0
 140 0148 04000000 		.word	.LC2
 141 014c 09000000 		.word	.LC3
 142 0150 0B000000 		.word	.LC4
 143 0154 12000000 		.word	.LC5
 144 0158 26000000 		.word	.LC6
 146              		.comm	xbee_delay_time,4,4
 147              		.comm	xbee_tp,263,1
 148              		.comm	xbee_rssi,1,1
 149              		.comm	xbee_cs,1,1
 150              		.section	.rodata.str1.1,"aMS",%progbits,1
 151              	.LC1:
 152 0000 2B2B2B00 		.ascii	"+++\000"
 153              	.LC2:
 154 0004 41544D59 		.ascii	"ATMY\000"
 154      00
 155              	.LC3:
 156 0009 0D00     		.ascii	"\015\000"
 157              	.LC4:
 158 000b 41544150 		.ascii	"ATAP1\015\000"
 158      310D00
 159              	.LC5:
 160 0012 4154504C 		.ascii	"ATPL2\015ATRN5\015ATTT80\015\000"
 160      320D4154 
 160      524E350D 
 160      41545454 
 160      38300D00 
 161              	.LC6:
 162 0026 4154434E 		.ascii	"ATCN\015\000"
 162      0D00
 163              		.ident	"GCC: (Linaro GCC 4.6-2011.09-1) 4.6.2 20110908 (prerelease)"
DEFINED SYMBOLS
                            *ABS*:00000000 xbee.c
     /tmp/ccTUwpX6.s:13     .text.sys_time_usleep.constprop.0:00000000 $a
     /tmp/ccTUwpX6.s:15     .text.sys_time_usleep.constprop.0:00000000 sys_time_usleep.constprop.0
     /tmp/ccTUwpX6.s:32     .text.sys_time_usleep.constprop.0:00000020 $d
     /tmp/ccTUwpX6.s:36     .text.xbee_init:00000000 $a
     /tmp/ccTUwpX6.s:39     .text.xbee_init:00000000 xbee_init
     /tmp/ccTUwpX6.s:137    .text.xbee_init:0000013c $d
                            *COM*:00000107 xbee_tp
                            *COM*:00000004 xbee_delay_time
                            *COM*:00000001 xbee_rssi
                            *COM*:00000001 xbee_cs

UNDEFINED SYMBOLS
uart_transmit
uart0
