   1              		.cpu arm7tdmi
   2              		.fpu softvfp
   3              		.eabi_attribute 20, 1
   4              		.eabi_attribute 21, 1
   5              		.eabi_attribute 23, 3
   6              		.eabi_attribute 24, 1
   7              		.eabi_attribute 25, 1
   8              		.eabi_attribute 26, 1
   9              		.eabi_attribute 30, 4
  10              		.eabi_attribute 18, 4
  11              		.file	"ahrs_infrared.c"
  12              		.section	.text.ahrs_init,"ax",%progbits
  13              		.align	2
  14              		.global	ahrs_init
  16              	ahrs_init:
  17              		@ Function supports interworking.
  18              		@ args = 0, pretend = 0, frame = 0
  19              		@ frame_needed = 0, uses_anonymous_args = 0
  20              		@ link register save eliminated.
  21 0000 14309FE5 		ldr	r3, .L2
  22 0004 0020A0E3 		mov	r2, #0
  23 0008 0020C3E5 		strb	r2, [r3, #0]
  24 000c 0C309FE5 		ldr	r3, .L2+4
  25 0010 0020A0E3 		mov	r2, #0
  26 0014 002083E5 		str	r2, [r3, #0]	@ float
  27 0018 1EFF2FE1 		bx	lr
  28              	.L3:
  29              		.align	2
  30              	.L2:
  31 001c 00000000 		.word	ahrs
  32 0020 00000000 		.word	heading
  34              		.section	.text.ahrs_align,"ax",%progbits
  35              		.align	2
  36              		.global	ahrs_align
  38              	ahrs_align:
  39              		@ Function supports interworking.
  40              		@ args = 0, pretend = 0, frame = 0
  41              		@ frame_needed = 0, uses_anonymous_args = 0
  42              		@ link register save eliminated.
  43 0000 08309FE5 		ldr	r3, .L5
  44 0004 0120A0E3 		mov	r2, #1
  45 0008 0020C3E5 		strb	r2, [r3, #0]
  46 000c 1EFF2FE1 		bx	lr
  47              	.L6:
  48              		.align	2
  49              	.L5:
  50 0010 00000000 		.word	ahrs
  52              		.section	.text.ahrs_propagate,"ax",%progbits
  53              		.align	2
  54              		.global	ahrs_propagate
  56              	ahrs_propagate:
  57              		@ Function supports interworking.
  58              		@ args = 0, pretend = 0, frame = 0
  59              		@ frame_needed = 0, uses_anonymous_args = 0
  60              		@ link register save eliminated.
  61 0000 18309FE5 		ldr	r3, .L8
  62 0004 0020A0E3 		mov	r2, #0
  63 0008 382283E5 		str	r2, [r3, #568]	@ float
  64 000c 3C2283E5 		str	r2, [r3, #572]	@ float
  65 0010 402283E5 		str	r2, [r3, #576]	@ float
  66 0014 0220A0E3 		mov	r2, #2
  67 0018 2822C3E5 		strb	r2, [r3, #552]
  68 001c 1EFF2FE1 		bx	lr
  69              	.L9:
  70              		.align	2
  71              	.L8:
  72 0020 00000000 		.word	state
  74              		.section	.text.ahrs_update_accel,"ax",%progbits
  75              		.align	2
  76              		.global	ahrs_update_accel
  78              	ahrs_update_accel:
  79              		@ Function supports interworking.
  80              		@ args = 0, pretend = 0, frame = 0
  81              		@ frame_needed = 0, uses_anonymous_args = 0
  82              		@ link register save eliminated.
  83 0000 1EFF2FE1 		bx	lr
  85              		.section	.text.ahrs_update_mag,"ax",%progbits
  86              		.align	2
  87              		.global	ahrs_update_mag
  89              	ahrs_update_mag:
  90              		@ Function supports interworking.
  91              		@ args = 0, pretend = 0, frame = 0
  92              		@ frame_needed = 0, uses_anonymous_args = 0
  93              		@ link register save eliminated.
  94 0000 1EFF2FE1 		bx	lr
  96              		.global	__aeabi_i2d
  97              		.global	__aeabi_ddiv
  98              		.global	__aeabi_d2f
  99              		.global	__aeabi_fmul
 100              		.global	__aeabi_fsub
 101              		.global	__aeabi_fcmplt
 102              		.global	__aeabi_f2d
 103              		.global	__aeabi_dadd
 104              		.section	.text.ahrs_update_gps,"ax",%progbits
 105              		.align	2
 106              		.global	ahrs_update_gps
 108              	ahrs_update_gps:
 109              		@ Function supports interworking.
 110              		@ args = 0, pretend = 0, frame = 0
 111              		@ frame_needed = 0, uses_anonymous_args = 0
 112 0000 F8402DE9 		stmfd	sp!, {r3, r4, r5, r6, r7, lr}
 113 0004 DC509FE5 		ldr	r5, .L18
 114 0008 F404D5E1 		ldrsh	r0, [r5, #68]
 115 000c FEFFFFEB 		bl	__aeabi_i2d
 116 0010 0020A0E3 		mov	r2, #0
 117 0014 D0309FE5 		ldr	r3, .L18+4
 118 0018 FEFFFFEB 		bl	__aeabi_ddiv
 119 001c FEFFFFEB 		bl	__aeabi_d2f
 120 0020 0040A0E1 		mov	r4, r0
 121 0024 480095E5 		ldr	r0, [r5, #72]
 122 0028 FEFFFFEB 		bl	__aeabi_i2d
 123 002c BC309FE5 		ldr	r3, .L18+8
 124 0030 0020A0E3 		mov	r2, #0
 125 0034 FEFFFFEB 		bl	__aeabi_ddiv
 126 0038 FEFFFFEB 		bl	__aeabi_d2f
 127 003c 0070A0E1 		mov	r7, r0
 128 0040 FEFFFFEB 		bl	cosf
 129 0044 0410A0E1 		mov	r1, r4
 130 0048 FEFFFFEB 		bl	__aeabi_fmul
 131 004c A0509FE5 		ldr	r5, .L18+12
 132 0050 4432D5E5 		ldrb	r3, [r5, #580]	@ zero_extendqisi2
 133 0054 040013E3 		tst	r3, #4
 134 0058 0060A0E1 		mov	r6, r0
 135 005c FEFFFF0B 		bleq	stateCalcHorizontalWindspeed_f
 136              	.L13:
 137 0060 541295E5 		ldr	r1, [r5, #596]	@ float
 138 0064 0600A0E1 		mov	r0, r6
 139 0068 FEFFFFEB 		bl	__aeabi_fsub
 140 006c 0060A0E1 		mov	r6, r0
 141 0070 0700A0E1 		mov	r0, r7
 142 0074 FEFFFFEB 		bl	sinf
 143 0078 0410A0E1 		mov	r1, r4
 144 007c FEFFFFEB 		bl	__aeabi_fmul
 145 0080 4432D5E5 		ldrb	r3, [r5, #580]	@ zero_extendqisi2
 146 0084 040013E3 		tst	r3, #4
 147 0088 0040A0E1 		mov	r4, r0
 148 008c FEFFFF0B 		bleq	stateCalcHorizontalWindspeed_f
 149              	.L14:
 150 0090 5C309FE5 		ldr	r3, .L18+12
 151 0094 0400A0E1 		mov	r0, r4
 152 0098 581293E5 		ldr	r1, [r3, #600]	@ float
 153 009c FEFFFFEB 		bl	__aeabi_fsub
 154 00a0 0610A0E1 		mov	r1, r6
 155 00a4 FEFFFFEB 		bl	atan2f
 156 00a8 48409FE5 		ldr	r4, .L18+16
 157 00ac 0010A0E3 		mov	r1, #0
 158 00b0 000084E5 		str	r0, [r4, #0]	@ float
 159 00b4 0050A0E1 		mov	r5, r0
 160 00b8 FEFFFFEB 		bl	__aeabi_fcmplt
 161 00bc 000050E3 		cmp	r0, #0
 162 00c0 0600000A 		beq	.L12
 163 00c4 0500A0E1 		mov	r0, r5
 164 00c8 FEFFFFEB 		bl	__aeabi_f2d
 165 00cc 28209FE5 		ldr	r2, .L18+20
 166 00d0 28309FE5 		ldr	r3, .L18+24
 167 00d4 FEFFFFEB 		bl	__aeabi_dadd
 168 00d8 FEFFFFEB 		bl	__aeabi_d2f
 169 00dc 000084E5 		str	r0, [r4, #0]	@ float
 170              	.L12:
 171 00e0 F840BDE8 		ldmfd	sp!, {r3, r4, r5, r6, r7, lr}
 172 00e4 1EFF2FE1 		bx	lr
 173              	.L19:
 174              		.align	2
 175              	.L18:
 176 00e8 00000000 		.word	gps
 177 00ec 00005940 		.word	1079574528
 178 00f0 D0126341 		.word	1097011920
 179 00f4 00000000 		.word	state
 180 00f8 00000000 		.word	heading
 181 00fc 182D4454 		.word	1413754136
 182 0100 FB211940 		.word	1075388923
 184              		.global	__aeabi_dsub
 185              		.global	__aeabi_dcmplt
 186              		.global	__aeabi_dcmpgt
 187              		.global	__aeabi_fcmpge
 188              		.section	.text.ahrs_update_infrared,"ax",%progbits
 189              		.align	2
 190              		.global	ahrs_update_infrared
 192              	ahrs_update_infrared:
 193              		@ Function supports interworking.
 194              		@ args = 0, pretend = 0, frame = 0
 195              		@ frame_needed = 0, uses_anonymous_args = 0
 196 0000 F8402DE9 		stmfd	sp!, {r3, r4, r5, r6, r7, lr}
 197 0004 84419FE5 		ldr	r4, .L41
 198 0008 F401D4E1 		ldrsh	r0, [r4, #20]
 199 000c FEFFFFEB 		bl	__aeabi_i2d
 200 0010 0060A0E1 		mov	r6, r0
 201 0014 F801D4E1 		ldrsh	r0, [r4, #24]
 202 0018 0170A0E1 		mov	r7, r1
 203 001c FEFFFFEB 		bl	__aeabi_i2d
 204 0020 0020A0E1 		mov	r2, r0
 205 0024 0130A0E1 		mov	r3, r1
 206 0028 0600A0E1 		mov	r0, r6
 207 002c 0710A0E1 		mov	r1, r7
 208 0030 FEFFFFEB 		bl	atan2
 209 0034 0060A0E1 		mov	r6, r0
 210 0038 080094E5 		ldr	r0, [r4, #8]	@ float
 211 003c 0170A0E1 		mov	r7, r1
 212 0040 FEFFFFEB 		bl	__aeabi_f2d
 213 0044 0020A0E1 		mov	r2, r0
 214 0048 0130A0E1 		mov	r3, r1
 215 004c 0600A0E1 		mov	r0, r6
 216 0050 0710A0E1 		mov	r1, r7
 217 0054 FEFFFFEB 		bl	__aeabi_dsub
 218 0058 FEFFFFEB 		bl	__aeabi_d2f
 219 005c 0050A0E1 		mov	r5, r0
 220 0060 F601D4E1 		ldrsh	r0, [r4, #22]
 221 0064 FEFFFFEB 		bl	__aeabi_i2d
 222 0068 0060A0E1 		mov	r6, r0
 223 006c F801D4E1 		ldrsh	r0, [r4, #24]
 224 0070 0170A0E1 		mov	r7, r1
 225 0074 FEFFFFEB 		bl	__aeabi_i2d
 226 0078 0020A0E1 		mov	r2, r0
 227 007c 0130A0E1 		mov	r3, r1
 228 0080 0600A0E1 		mov	r0, r6
 229 0084 0710A0E1 		mov	r1, r7
 230 0088 FEFFFFEB 		bl	atan2
 231 008c 0060A0E1 		mov	r6, r0
 232 0090 0C0094E5 		ldr	r0, [r4, #12]	@ float
 233 0094 0170A0E1 		mov	r7, r1
 234 0098 FEFFFFEB 		bl	__aeabi_f2d
 235 009c 0020A0E1 		mov	r2, r0
 236 00a0 0130A0E1 		mov	r3, r1
 237 00a4 0600A0E1 		mov	r0, r6
 238 00a8 0710A0E1 		mov	r1, r7
 239 00ac FEFFFFEB 		bl	__aeabi_dsub
 240 00b0 FEFFFFEB 		bl	__aeabi_d2f
 241 00b4 0040A0E1 		mov	r4, r0
 242 00b8 FEFFFFEB 		bl	__aeabi_f2d
 243 00bc D0209FE5 		ldr	r2, .L41+4
 244 00c0 D0309FE5 		ldr	r3, .L41+8
 245 00c4 0060A0E1 		mov	r6, r0
 246 00c8 0170A0E1 		mov	r7, r1
 247 00cc FEFFFFEB 		bl	__aeabi_dcmplt
 248 00d0 000050E3 		cmp	r0, #0
 249 00d4 0710A0E1 		mov	r1, r7
 250 00d8 0600A0E1 		mov	r0, r6
 251 00dc B0209FE5 		ldr	r2, .L41+4
 252 00e0 0200000A 		beq	.L35
 253 00e4 B0309FE5 		ldr	r3, .L41+12
 254 00e8 FEFFFFEB 		bl	__aeabi_dadd
 255 00ec 080000EA 		b	.L38
 256              	.L35:
 257 00f0 A8309FE5 		ldr	r3, .L41+16
 258 00f4 FEFFFFEB 		bl	__aeabi_dcmpgt
 259 00f8 000050E3 		cmp	r0, #0
 260 00fc 0600000A 		beq	.L23
 261 0100 0600A0E1 		mov	r0, r6
 262 0104 0710A0E1 		mov	r1, r7
 263 0108 84209FE5 		ldr	r2, .L41+4
 264 010c 88309FE5 		ldr	r3, .L41+12
 265 0110 FEFFFFEB 		bl	__aeabi_dsub
 266              	.L38:
 267 0114 FEFFFFEB 		bl	__aeabi_d2f
 268 0118 0040A0E1 		mov	r4, r0
 269              	.L23:
 270 011c 0010A0E3 		mov	r1, #0
 271 0120 0500A0E1 		mov	r0, r5
 272 0124 FEFFFFEB 		bl	__aeabi_fcmpge
 273 0128 60309FE5 		ldr	r3, .L41
 274 012c 000050E3 		cmp	r0, #0
 275 0130 2C109315 		ldrne	r1, [r3, #44]	@ float
 276 0134 28109305 		ldreq	r1, [r3, #40]	@ float
 277 0138 0500A0E1 		mov	r0, r5
 278 013c FEFFFFEB 		bl	__aeabi_fmul
 279 0140 0010A0E3 		mov	r1, #0
 280 0144 0050A0E1 		mov	r5, r0
 281 0148 0400A0E1 		mov	r0, r4
 282 014c FEFFFFEB 		bl	__aeabi_fcmpge
 283 0150 38309FE5 		ldr	r3, .L41
 284 0154 000050E3 		cmp	r0, #0
 285 0158 30109315 		ldrne	r1, [r3, #48]	@ float
 286 015c 34109305 		ldreq	r1, [r3, #52]	@ float
 287 0160 0400A0E1 		mov	r0, r4
 288 0164 FEFFFFEB 		bl	__aeabi_fmul
 289 0168 34309FE5 		ldr	r3, .L41+20
 290 016c 002093E5 		ldr	r2, [r3, #0]	@ float
 291 0170 30309FE5 		ldr	r3, .L41+24
 292 0174 002283E5 		str	r2, [r3, #512]	@ float
 293 0178 1020A0E3 		mov	r2, #16
 294 017c F85183E5 		str	r5, [r3, #504]	@ float
 295 0180 FC0183E5 		str	r0, [r3, #508]	@ float
 296 0184 A421C3E5 		strb	r2, [r3, #420]
 297 0188 F840BDE8 		ldmfd	sp!, {r3, r4, r5, r6, r7, lr}
 298 018c 1EFF2FE1 		bx	lr
 299              	.L42:
 300              		.align	2
 301              	.L41:
 302 0190 00000000 		.word	infrared
 303 0194 182D4454 		.word	1413754136
 304 0198 FB21F9BF 		.word	-1074191877
 305 019c FB210940 		.word	1074340347
 306 01a0 FB21F93F 		.word	1073291771
 307 01a4 00000000 		.word	heading
 308 01a8 00000000 		.word	state
 310              		.comm	heading,4,4
 311              		.ident	"GCC: (Linaro GCC 4.6-2011.09-1) 4.6.2 20110908 (prerelease)"