   1              		.cpu arm7tdmi
   2              		.fpu softvfp
   3              		.eabi_attribute 20, 1
   4              		.eabi_attribute 21, 1
   5              		.eabi_attribute 23, 3
   6              		.eabi_attribute 24, 1
   7              		.eabi_attribute 25, 1
   8              		.eabi_attribute 26, 1
   9              		.eabi_attribute 30, 4
  10              		.eabi_attribute 18, 4
  11              		.file	"discsurvey.c"
  12              		.section	.text.stateGetPositionEnu_f,"ax",%progbits
  13              		.align	2
  15              	stateGetPositionEnu_f:
  16              		@ Function supports interworking.
  17              		@ args = 0, pretend = 0, frame = 0
  18              		@ frame_needed = 0, uses_anonymous_args = 0
  19 0000 08402DE9 		stmfd	sp!, {r3, lr}
  20 0004 14309FE5 		ldr	r3, .L3
  21 0008 B030D3E1 		ldrh	r3, [r3, #0]
  22 000c 800013E3 		tst	r3, #128
  23 0010 FEFFFF0B 		bleq	stateCalcPositionEnu_f
  24              	.L2:
  25 0014 08009FE5 		ldr	r0, .L3+4
  26 0018 0840BDE8 		ldmfd	sp!, {r3, lr}
  27 001c 1EFF2FE1 		bx	lr
  28              	.L4:
  29              		.align	2
  30              	.L3:
  31 0020 00000000 		.word	state
  32 0024 08010000 		.word	state+264
  34              		.section	.text.disc_survey_init,"ax",%progbits
  35              		.align	2
  36              		.global	disc_survey_init
  38              	disc_survey_init:
  39              		@ Function supports interworking.
  40              		@ args = 0, pretend = 0, frame = 0
  41              		@ frame_needed = 0, uses_anonymous_args = 0
  42 0000 44309FE5 		ldr	r3, .L6
  43 0004 10402DE9 		stmfd	sp!, {r4, lr}
  44 0008 000083E5 		str	r0, [r3, #0]	@ float
  45 000c 3C309FE5 		ldr	r3, .L6+4
  46 0010 0220A0E3 		mov	r2, #2
  47 0014 0020C3E5 		strb	r2, [r3, #0]
  48 0018 34309FE5 		ldr	r3, .L6+8
  49 001c 0120A0E3 		mov	r2, #1
  50 0020 0020C3E5 		strb	r2, [r3, #0]
  51 0024 FEFFFFEB 		bl	stateGetPositionEnu_f
  52 0028 28409FE5 		ldr	r4, .L6+12
  53 002c 003090E5 		ldr	r3, [r0, #0]	@ float
  54 0030 003084E5 		str	r3, [r4, #0]	@ float
  55 0034 FEFFFFEB 		bl	stateGetPositionEnu_f
  56 0038 043090E5 		ldr	r3, [r0, #4]	@ float
  57 003c 0000A0E3 		mov	r0, #0
  58 0040 043084E5 		str	r3, [r4, #4]	@ float
  59 0044 1040BDE8 		ldmfd	sp!, {r4, lr}
  60 0048 1EFF2FE1 		bx	lr
  61              	.L7:
  62              		.align	2
  63              	.L6:
  64 004c 00000000 		.word	nav_survey_shift
  65 0050 00000000 		.word	.LANCHOR0
  66 0054 00000000 		.word	.LANCHOR1
  67 0058 00000000 		.word	.LANCHOR2
  69              		.global	__aeabi_f2d
  70              		.global	__aeabi_dadd
  71              		.global	__aeabi_d2f
  72              		.global	__aeabi_fmul
  73              		.global	__aeabi_i2f
  74              		.global	__aeabi_dsub
  75              		.global	__aeabi_dmul
  76              		.global	__aeabi_fadd
  77              		.global	__aeabi_fcmplt
  78              		.global	__aeabi_fsub
  79              		.global	__aeabi_fcmpge
  80              		.global	__aeabi_fcmpgt
  81              		.section	.text.disc_survey,"ax",%progbits
  82              		.align	2
  83              		.global	disc_survey
  85              	disc_survey:
  86              		@ Function supports interworking.
  87              		@ args = 0, pretend = 0, frame = 16
  88              		@ frame_needed = 0, uses_anonymous_args = 0
  89 0000 F04F2DE9 		stmfd	sp!, {r4, r5, r6, r7, r8, r9, sl, fp, lr}
  90 0004 38659FE5 		ldr	r6, .L45
  91 0008 4432D6E5 		ldrb	r3, [r6, #580]	@ zero_extendqisi2
  92 000c 1CD04DE2 		sub	sp, sp, #28
  93 0010 040013E3 		tst	r3, #4
  94 0014 0C008DE5 		str	r0, [sp, #12]
  95 0018 01A0A0E1 		mov	sl, r1
  96 001c FEFFFF0B 		bleq	stateCalcHorizontalWindspeed_f
  97              	.L9:
  98 0020 540296E5 		ldr	r0, [r6, #596]	@ float
  99 0024 FEFFFFEB 		bl	__aeabi_f2d
 100 0028 0040A0E1 		mov	r4, r0
 101 002c 580296E5 		ldr	r0, [r6, #600]	@ float
 102 0030 0150A0E1 		mov	r5, r1
 103 0034 FEFFFFEB 		bl	__aeabi_f2d
 104 0038 0020A0E1 		mov	r2, r0
 105 003c 0130A0E1 		mov	r3, r1
 106 0040 0400A0E1 		mov	r0, r4
 107 0044 0510A0E1 		mov	r1, r5
 108 0048 FEFFFFEB 		bl	atan2
 109 004c F4249FE5 		ldr	r2, .L45+4
 110 0050 F4349FE5 		ldr	r3, .L45+8
 111 0054 FEFFFFEB 		bl	__aeabi_dadd
 112 0058 FEFFFFEB 		bl	__aeabi_d2f
 113 005c FEFFFFEB 		bl	__aeabi_f2d
 114 0060 0050A0E1 		mov	r5, r0
 115 0064 0160A0E1 		mov	r6, r1
 116 0068 FEFFFFEB 		bl	cos
 117 006c FEFFFFEB 		bl	__aeabi_d2f
 118 0070 0610A0E1 		mov	r1, r6
 119 0074 0070A0E1 		mov	r7, r0
 120 0078 0500A0E1 		mov	r0, r5
 121 007c FEFFFFEB 		bl	sin
 122 0080 FEFFFFEB 		bl	__aeabi_d2f
 123 0084 C4349FE5 		ldr	r3, .L45+12
 124 0088 0080A0E1 		mov	r8, r0
 125 008c 3F14A0E3 		mov	r1, #1056964608
 126 0090 000093E5 		ldr	r0, [r3, #0]	@ float
 127 0094 FEFFFFEB 		bl	__aeabi_fmul
 128 0098 B4449FE5 		ldr	r4, .L45+16
 129 009c 0030D4E5 		ldrb	r3, [r4, #0]	@ zero_extendqisi2
 130 00a0 010053E3 		cmp	r3, #1
 131 00a4 08008DE5 		str	r0, [sp, #8]	@ float
 132 00a8 E800000A 		beq	.L12
 133 00ac 0200003A 		bcc	.L11
 134 00b0 020053E3 		cmp	r3, #2
 135 00b4 0C01001A 		bne	.L10
 136 00b8 CE0000EA 		b	.L44
 137              	.L11:
 138 00bc 94349FE5 		ldr	r3, .L45+20
 139 00c0 D000D3E1 		ldrsb	r0, [r3, #0]
 140 00c4 FEFFFFEB 		bl	__aeabi_i2f
 141 00c8 0010A0E1 		mov	r1, r0
 142 00cc 08009DE5 		ldr	r0, [sp, #8]	@ float
 143 00d0 FEFFFFEB 		bl	__aeabi_fmul
 144 00d4 80449FE5 		ldr	r4, .L45+24
 145 00d8 0020A0E1 		mov	r2, r0
 146 00dc 041094E5 		ldr	r1, [r4, #4]	@ float
 147 00e0 000094E5 		ldr	r0, [r4, #0]	@ float
 148 00e4 FEFFFFEB 		bl	nav_circle_XY
 149 00e8 0520A0E1 		mov	r2, r5
 150 00ec 0630A0E1 		mov	r3, r6
 151 00f0 50049FE5 		ldr	r0, .L45+4
 152 00f4 64149FE5 		ldr	r1, .L45+28
 153 00f8 FEFFFFEB 		bl	__aeabi_dsub
 154 00fc 60249FE5 		ldr	r2, .L45+32
 155 0100 60349FE5 		ldr	r3, .L45+36
 156 0104 FEFFFFEB 		bl	__aeabi_dmul
 157 0108 5C349FE5 		ldr	r3, .L45+40
 158 010c 10008DE5 		str	r0, [sp, #16]
 159 0110 14108DE5 		str	r1, [sp, #20]
 160 0114 000093E5 		ldr	r0, [r3, #0]	@ float
 161 0118 FEFFFFEB 		bl	__aeabi_f2d
 162 011c 0020A0E1 		mov	r2, r0
 163 0120 0130A0E1 		mov	r3, r1
 164 0124 1C049FE5 		ldr	r0, .L45+4
 165 0128 30149FE5 		ldr	r1, .L45+28
 166 012c FEFFFFEB 		bl	__aeabi_dsub
 167 0130 2C249FE5 		ldr	r2, .L45+32
 168 0134 2C349FE5 		ldr	r3, .L45+36
 169 0138 FEFFFFEB 		bl	__aeabi_dmul
 170 013c FEFFFFEB 		bl	__aeabi_d2f
 171 0140 0050A0E3 		mov	r5, #0
 172 0144 0040A0E1 		mov	r4, r0
 173 0148 030000EA 		b	.L14
 174              	.L17:
 175 014c 0400A0E1 		mov	r0, r4
 176 0150 18149FE5 		ldr	r1, .L45+44
 177 0154 FEFFFFEB 		bl	__aeabi_fadd
 178 0158 0040A0E1 		mov	r4, r0
 179              	.L14:
 180 015c 0400A0E1 		mov	r0, r4
 181 0160 0010A0E3 		mov	r1, #0
 182 0164 FEFFFFEB 		bl	__aeabi_fcmplt
 183 0168 000050E3 		cmp	r0, #0
 184 016c FF6005E2 		and	r6, r5, #255
 185 0170 0700000A 		beq	.L38
 186 0174 015085E2 		add	r5, r5, #1
 187 0178 010C55E3 		cmp	r5, #256
 188 017c F2FFFF1A 		bne	.L17
 189 0180 0060A0E3 		mov	r6, #0
 190 0184 020000EA 		b	.L38
 191              	.L21:
 192 0188 E0139FE5 		ldr	r1, .L45+44
 193 018c FEFFFFEB 		bl	__aeabi_fsub
 194 0190 0040A0E1 		mov	r4, r0
 195              	.L38:
 196 0194 0400A0E1 		mov	r0, r4
 197 0198 D0139FE5 		ldr	r1, .L45+44
 198 019c FEFFFFEB 		bl	__aeabi_fcmpge
 199 01a0 000050E3 		cmp	r0, #0
 200 01a4 0400A0E1 		mov	r0, r4
 201 01a8 0200000A 		beq	.L19
 202 01ac 016086E2 		add	r6, r6, #1
 203 01b0 FF6016E2 		ands	r6, r6, #255
 204 01b4 F3FFFF1A 		bne	.L21
 205              	.L19:
 206 01b8 FEFFFFEB 		bl	__aeabi_f2d
 207 01bc 0020A0E1 		mov	r2, r0
 208 01c0 0130A0E1 		mov	r3, r1
 209 01c4 10108DE2 		add	r1, sp, #16
 210 01c8 030091E8 		ldmia	r1, {r0-r1}
 211 01cc FEFFFFEB 		bl	__aeabi_dsub
 212 01d0 FEFFFFEB 		bl	__aeabi_d2f
 213 01d4 0050A0E3 		mov	r5, #0
 214 01d8 0040A0E1 		mov	r4, r0
 215 01dc 030000EA 		b	.L22
 216              	.L25:
 217 01e0 0400A0E1 		mov	r0, r4
 218 01e4 84139FE5 		ldr	r1, .L45+44
 219 01e8 FEFFFFEB 		bl	__aeabi_fadd
 220 01ec 0040A0E1 		mov	r4, r0
 221              	.L22:
 222 01f0 0400A0E1 		mov	r0, r4
 223 01f4 0010A0E3 		mov	r1, #0
 224 01f8 FEFFFFEB 		bl	__aeabi_fcmplt
 225 01fc 000050E3 		cmp	r0, #0
 226 0200 FF6005E2 		and	r6, r5, #255
 227 0204 0700000A 		beq	.L39
 228 0208 015085E2 		add	r5, r5, #1
 229 020c 010C55E3 		cmp	r5, #256
 230 0210 F2FFFF1A 		bne	.L25
 231 0214 0060A0E3 		mov	r6, #0
 232 0218 020000EA 		b	.L39
 233              	.L29:
 234 021c 4C139FE5 		ldr	r1, .L45+44
 235 0220 FEFFFFEB 		bl	__aeabi_fsub
 236 0224 0040A0E1 		mov	r4, r0
 237              	.L39:
 238 0228 0400A0E1 		mov	r0, r4
 239 022c 3C139FE5 		ldr	r1, .L45+44
 240 0230 FEFFFFEB 		bl	__aeabi_fcmpge
 241 0234 000050E3 		cmp	r0, #0
 242 0238 0400A0E1 		mov	r0, r4
 243 023c 0200000A 		beq	.L27
 244 0240 016086E2 		add	r6, r6, #1
 245 0244 FF6016E2 		ands	r6, r6, #255
 246 0248 F3FFFF1A 		bne	.L29
 247              	.L27:
 248 024c 20139FE5 		ldr	r1, .L45+48
 249 0250 FEFFFFEB 		bl	__aeabi_fcmpgt
 250 0254 000050E3 		cmp	r0, #0
 251 0258 0400001A 		bne	.L30
 252 025c 0400A0E1 		mov	r0, r4
 253 0260 10139FE5 		ldr	r1, .L45+52
 254 0264 FEFFFFEB 		bl	__aeabi_fcmplt
 255 0268 000050E3 		cmp	r0, #0
 256 026c 9E00000A 		beq	.L10
 257              	.L30:
 258 0270 FEFFFFEB 		bl	stateGetPositionEnu_f
 259 0274 00439FE5 		ldr	r4, .L45+56
 260 0278 003090E5 		ldr	r3, [r0, #0]	@ float
 261 027c 003084E5 		str	r3, [r4, #0]	@ float
 262 0280 FEFFFFEB 		bl	stateGetPositionEnu_f
 263 0284 043090E5 		ldr	r3, [r0, #4]	@ float
 264 0288 043084E5 		str	r3, [r4, #4]	@ float
 265 028c FEFFFFEB 		bl	stateGetPositionEnu_f
 266 0290 0C309DE5 		ldr	r3, [sp, #12]
 267 0294 0C60A0E3 		mov	r6, #12
 268 0298 930606E0 		mul	r6, r3, r6
 269 029c DC529FE5 		ldr	r5, .L45+60
 270 02a0 000090E5 		ldr	r0, [r0, #0]	@ float
 271 02a4 061095E7 		ldr	r1, [r5, r6]	@ float
 272 02a8 FEFFFFEB 		bl	__aeabi_fsub
 273 02ac 0010A0E1 		mov	r1, r0
 274 02b0 0700A0E1 		mov	r0, r7
 275 02b4 FEFFFFEB 		bl	__aeabi_fmul
 276 02b8 0040A0E1 		mov	r4, r0
 277 02bc FEFFFFEB 		bl	stateGetPositionEnu_f
 278 02c0 069085E0 		add	r9, r5, r6
 279 02c4 041099E5 		ldr	r1, [r9, #4]	@ float
 280 02c8 040090E5 		ldr	r0, [r0, #4]	@ float
 281 02cc FEFFFFEB 		bl	__aeabi_fsub
 282 02d0 0010A0E1 		mov	r1, r0
 283 02d4 0800A0E1 		mov	r0, r8
 284 02d8 FEFFFFEB 		bl	__aeabi_fmul
 285 02dc 0010A0E1 		mov	r1, r0
 286 02e0 0400A0E1 		mov	r0, r4
 287 02e4 FEFFFFEB 		bl	__aeabi_fadd
 288 02e8 0A10A0E1 		mov	r1, sl
 289 02ec 0040A0E1 		mov	r4, r0
 290 02f0 FEFFFFEB 		bl	__aeabi_fcmpgt
 291 02f4 000050E3 		cmp	r0, #0
 292 02f8 0220A013 		movne	r2, #2
 293 02fc 7700001A 		bne	.L43
 294 0300 0A10A0E1 		mov	r1, sl
 295 0304 0A00A0E1 		mov	r0, sl
 296 0308 FEFFFFEB 		bl	__aeabi_fmul
 297 030c 0410A0E1 		mov	r1, r4
 298 0310 00A0A0E1 		mov	sl, r0
 299 0314 0400A0E1 		mov	r0, r4
 300 0318 FEFFFFEB 		bl	__aeabi_fmul
 301 031c 0010A0E1 		mov	r1, r0
 302 0320 0A00A0E1 		mov	r0, sl
 303 0324 FEFFFFEB 		bl	__aeabi_fsub
 304 0328 FEFFFFEB 		bl	__aeabi_f2d
 305 032c FEFFFFEB 		bl	sqrt
 306 0330 00A0A0E1 		mov	sl, r0
 307 0334 08009DE5 		ldr	r0, [sp, #8]	@ float
 308 0338 01B0A0E1 		mov	fp, r1
 309 033c FEFFFFEB 		bl	__aeabi_f2d
 310 0340 0020A0E3 		mov	r2, #0
 311 0344 38329FE5 		ldr	r3, .L45+64
 312 0348 FEFFFFEB 		bl	__aeabi_dmul
 313 034c 0020A0E1 		mov	r2, r0
 314 0350 0130A0E1 		mov	r3, r1
 315 0354 0A00A0E1 		mov	r0, sl
 316 0358 0B10A0E1 		mov	r1, fp
 317 035c FEFFFFEB 		bl	__aeabi_dsub
 318 0360 FEFFFFEB 		bl	__aeabi_d2f
 319 0364 EC319FE5 		ldr	r3, .L45+20
 320 0368 00A0A0E1 		mov	sl, r0
 321 036c D000D3E1 		ldrsb	r0, [r3, #0]
 322 0370 FEFFFFEB 		bl	__aeabi_i2f
 323 0374 0010A0E1 		mov	r1, r0
 324 0378 0A00A0E1 		mov	r0, sl
 325 037c FEFFFFEB 		bl	__aeabi_fmul
 326 0380 0710A0E1 		mov	r1, r7
 327 0384 00B0A0E1 		mov	fp, r0
 328 0388 0400A0E1 		mov	r0, r4
 329 038c FEFFFFEB 		bl	__aeabi_fmul
 330 0390 061095E7 		ldr	r1, [r5, r6]	@ float
 331 0394 FEFFFFEB 		bl	__aeabi_fadd
 332 0398 021188E2 		add	r1, r8, #-2147483648
 333 039c 0050A0E1 		mov	r5, r0
 334 03a0 0B00A0E1 		mov	r0, fp
 335 03a4 FEFFFFEB 		bl	__aeabi_fmul
 336 03a8 0010A0E1 		mov	r1, r0
 337 03ac 0500A0E1 		mov	r0, r5
 338 03b0 FEFFFFEB 		bl	__aeabi_fsub
 339 03b4 CCA19FE5 		ldr	sl, .L45+68
 340 03b8 0810A0E1 		mov	r1, r8
 341 03bc 00008AE5 		str	r0, [sl, #0]	@ float
 342 03c0 0400A0E1 		mov	r0, r4
 343 03c4 FEFFFFEB 		bl	__aeabi_fmul
 344 03c8 041099E5 		ldr	r1, [r9, #4]	@ float
 345 03cc FEFFFFEB 		bl	__aeabi_fadd
 346 03d0 0710A0E1 		mov	r1, r7
 347 03d4 0040A0E1 		mov	r4, r0
 348 03d8 0B00A0E1 		mov	r0, fp
 349 03dc FEFFFFEB 		bl	__aeabi_fmul
 350 03e0 0010A0E1 		mov	r1, r0
 351 03e4 0400A0E1 		mov	r0, r4
 352 03e8 FEFFFFEB 		bl	__aeabi_fsub
 353 03ec 0120A0E3 		mov	r2, #1
 354 03f0 04008AE5 		str	r0, [sl, #4]	@ float
 355 03f4 390000EA 		b	.L43
 356              	.L44:
 357 03f8 0C009DE5 		ldr	r0, [sp, #12]
 358 03fc 0C60A0E3 		mov	r6, #12
 359 0400 900606E0 		mul	r6, r0, r6
 360 0404 0A10A0E1 		mov	r1, sl
 361 0408 0700A0E1 		mov	r0, r7
 362 040c FEFFFFEB 		bl	__aeabi_fmul
 363 0410 68919FE5 		ldr	r9, .L45+60
 364 0414 0010A0E1 		mov	r1, r0
 365 0418 060099E7 		ldr	r0, [r9, r6]	@ float
 366 041c FEFFFFEB 		bl	__aeabi_fsub
 367 0420 60519FE5 		ldr	r5, .L45+68
 368 0424 0A10A0E1 		mov	r1, sl
 369 0428 000085E5 		str	r0, [r5, #0]	@ float
 370 042c 0800A0E1 		mov	r0, r8
 371 0430 FEFFFFEB 		bl	__aeabi_fmul
 372 0434 06B089E0 		add	fp, r9, r6
 373 0438 0010A0E1 		mov	r1, r0
 374 043c 04009BE5 		ldr	r0, [fp, #4]	@ float
 375 0440 FEFFFFEB 		bl	__aeabi_fsub
 376 0444 0130A0E3 		mov	r3, #1
 377 0448 040085E5 		str	r0, [r5, #4]	@ float
 378 044c 0030C4E5 		strb	r3, [r4, #0]
 379              	.L12:
 380 0450 24519FE5 		ldr	r5, .L45+56
 381 0454 2C419FE5 		ldr	r4, .L45+68
 382 0458 000095E5 		ldr	r0, [r5, #0]	@ float
 383 045c 041095E5 		ldr	r1, [r5, #4]	@ float
 384 0460 002094E5 		ldr	r2, [r4, #0]	@ float
 385 0464 043094E5 		ldr	r3, [r4, #4]	@ float
 386 0468 FEFFFFEB 		bl	nav_route_xy
 387 046c 18319FE5 		ldr	r3, .L45+72
 388 0470 00308DE5 		str	r3, [sp, #0]	@ float
 389 0474 000094E5 		ldr	r0, [r4, #0]	@ float
 390 0478 041094E5 		ldr	r1, [r4, #4]	@ float
 391 047c 002095E5 		ldr	r2, [r5, #0]	@ float
 392 0480 043095E5 		ldr	r3, [r5, #4]	@ float
 393 0484 FEFFFFEB 		bl	nav_approaching_xy
 394 0488 000050E3 		cmp	r0, #0
 395 048c 1600000A 		beq	.L10
 396 0490 0710A0E1 		mov	r1, r7
 397 0494 08009DE5 		ldr	r0, [sp, #8]	@ float
 398 0498 FEFFFFEB 		bl	__aeabi_fmul
 399 049c 0010A0E1 		mov	r1, r0
 400 04a0 000094E5 		ldr	r0, [r4, #0]	@ float
 401 04a4 FEFFFFEB 		bl	__aeabi_fadd
 402 04a8 AC509FE5 		ldr	r5, .L45+24
 403 04ac 0810A0E1 		mov	r1, r8
 404 04b0 000085E5 		str	r0, [r5, #0]	@ float
 405 04b4 08009DE5 		ldr	r0, [sp, #8]	@ float
 406 04b8 FEFFFFEB 		bl	__aeabi_fmul
 407 04bc 0010A0E1 		mov	r1, r0
 408 04c0 040094E5 		ldr	r0, [r4, #4]	@ float
 409 04c4 FEFFFFEB 		bl	__aeabi_fadd
 410 04c8 88309FE5 		ldr	r3, .L45+20
 411 04cc 0020D3E5 		ldrb	r2, [r3, #0]	@ zero_extendqisi2
 412 04d0 040085E5 		str	r0, [r5, #4]	@ float
 413 04d4 002062E2 		rsb	r2, r2, #0
 414 04d8 0020C3E5 		strb	r2, [r3, #0]
 415 04dc 0020A0E3 		mov	r2, #0
 416              	.L43:
 417 04e0 6C309FE5 		ldr	r3, .L45+16
 418 04e4 0020C3E5 		strb	r2, [r3, #0]
 419 04e8 FEFFFFEB 		bl	nav_init_stage
 420              	.L10:
 421 04ec 9C309FE5 		ldr	r3, .L45+76
 422 04f0 0020A0E3 		mov	r2, #0
 423 04f4 0020C3E5 		strb	r2, [r3, #0]
 424 04f8 94209FE5 		ldr	r2, .L45+80
 425 04fc 0030A0E3 		mov	r3, #0
 426 0500 003082E5 		str	r3, [r2, #0]	@ float
 427 0504 8C209FE5 		ldr	r2, .L45+84
 428 0508 0310A0E3 		mov	r1, #3
 429 050c 0010C2E5 		strb	r1, [r2, #0]
 430 0510 0C009DE5 		ldr	r0, [sp, #12]
 431 0514 64209FE5 		ldr	r2, .L45+60
 432 0518 0C10A0E3 		mov	r1, #12
 433 051c 912022E0 		mla	r2, r1, r0, r2
 434 0520 081092E5 		ldr	r1, [r2, #8]	@ float
 435 0524 70209FE5 		ldr	r2, .L45+88
 436 0528 001082E5 		str	r1, [r2, #0]	@ float
 437 052c 6C209FE5 		ldr	r2, .L45+92
 438 0530 0100A0E3 		mov	r0, #1
 439 0534 003082E5 		str	r3, [r2, #0]	@ float
 440 0538 1CD08DE2 		add	sp, sp, #28
 441 053c F04FBDE8 		ldmfd	sp!, {r4, r5, r6, r7, r8, r9, sl, fp, lr}
 442 0540 1EFF2FE1 		bx	lr
 443              	.L46:
 444              		.align	2
 445              	.L45:
 446 0544 00000000 		.word	state
 447 0548 182D4454 		.word	1413754136
 448 054c FB210940 		.word	1074340347
 449 0550 00000000 		.word	nav_survey_shift
 450 0554 00000000 		.word	.LANCHOR0
 451 0558 00000000 		.word	.LANCHOR1
 452 055c 00000000 		.word	.LANCHOR3
 453 0560 FB21F93F 		.word	1073291771
 454 0564 F8C1631A 		.word	442745336
 455 0568 DCA54C40 		.word	1078765020
 456 056c 00000000 		.word	nav_circle_trigo_qdr
 457 0570 0000B443 		.word	1135869952
 458 0574 0000AF43 		.word	1135542272
 459 0578 00002041 		.word	1092616192
 460 057c 00000000 		.word	.LANCHOR2
 461 0580 00000000 		.word	waypoints
 462 0584 0000F83F 		.word	1073217536
 463 0588 00000000 		.word	.LANCHOR4
 464 058c 0000A040 		.word	1084227584
 465 0590 00000000 		.word	v_ctl_climb_mode
 466 0594 00000000 		.word	nav_pitch
 467 0598 00000000 		.word	v_ctl_mode
 468 059c 00000000 		.word	nav_altitude
 469 05a0 00000000 		.word	v_ctl_altitude_pre_climb
 471              		.section	.bss.c1,"aw",%nobits
 472              		.align	2
 473              		.set	.LANCHOR2,. + 0
 476              	c1:
 477 0000 00000000 		.space	12
 477      00000000 
 477      00000000 
 478              		.section	.bss.c2,"aw",%nobits
 479              		.align	2
 480              		.set	.LANCHOR4,. + 0
 483              	c2:
 484 0000 00000000 		.space	12
 484      00000000 
 484      00000000 
 485              		.section	.bss.c,"aw",%nobits
 486              		.align	2
 487              		.set	.LANCHOR3,. + 0
 490              	c:
 491 0000 00000000 		.space	12
 491      00000000 
 491      00000000 
 492              		.section	.bss.sign,"aw",%nobits
 493              		.set	.LANCHOR1,. + 0
 496              	sign:
 497 0000 00       		.space	1
 498              		.section	.bss.status,"aw",%nobits
 499              		.set	.LANCHOR0,. + 0
 502              	status:
 503 0000 00       		.space	1
 504              		.ident	"GCC: (Linaro GCC 4.6-2011.09-1) 4.6.2 20110908 (prerelease)"