   1              		.cpu arm7tdmi
   2              		.fpu softvfp
   3              		.eabi_attribute 20, 1
   4              		.eabi_attribute 21, 1
   5              		.eabi_attribute 23, 3
   6              		.eabi_attribute 24, 1
   7              		.eabi_attribute 25, 1
   8              		.eabi_attribute 26, 1
   9              		.eabi_attribute 30, 4
  10              		.eabi_attribute 18, 4
  11              		.file	"gls.c"
  12              		.global	__aeabi_fcmpeq
  13              		.global	__aeabi_fsub
  14              		.global	__aeabi_fmul
  15              		.global	__aeabi_fadd
  16              		.global	__aeabi_f2d
  17              		.global	__aeabi_d2f
  18              		.global	__aeabi_ddiv
  19              		.global	__aeabi_fdiv
  20              		.global	__aeabi_fcmpgt
  21              		.section	.text.gls_init,"ax",%progbits
  22              		.align	2
  23              		.global	gls_init
  25              	gls_init:
  26              		@ Function supports interworking.
  27              		@ args = 0, pretend = 0, frame = 24
  28              		@ frame_needed = 0, uses_anonymous_args = 0
  29 0000 14329FE5 		ldr	r3, .L10
  30 0004 F04F2DE9 		stmfd	sp!, {r4, r5, r6, r7, r8, r9, sl, fp, lr}
  31 0008 0280A0E1 		mov	r8, r2
  32 000c 0120A0E3 		mov	r2, #1
  33 0010 0020C3E5 		strb	r2, [r3, #0]
  34 0014 04229FE5 		ldr	r2, .L10+4
  35 0018 04329FE5 		ldr	r3, .L10+8
  36 001c 002083E5 		str	r2, [r3, #0]	@ float
  37 0020 00229FE5 		ldr	r2, .L10+12
  38 0024 00329FE5 		ldr	r3, .L10+16
  39 0028 0C60A0E3 		mov	r6, #12
  40 002c 002083E5 		str	r2, [r3, #0]	@ float
  41 0030 960803E0 		mul	r3, r6, r8
  42 0034 900606E0 		mul	r6, r0, r6
  43 0038 F0419FE5 		ldr	r4, .L10+20
  44 003c 037094E7 		ldr	r7, [r4, r3]	@ float
  45 0040 1CD04DE2 		sub	sp, sp, #28
  46 0044 14108DE5 		str	r1, [sp, #20]
  47 0048 0050A0E1 		mov	r5, r0
  48 004c 0710A0E1 		mov	r1, r7
  49 0050 060094E7 		ldr	r0, [r4, r6]	@ float
  50 0054 03A084E0 		add	sl, r4, r3
  51 0058 FEFFFFEB 		bl	__aeabi_fcmpeq
  52 005c 000050E3 		cmp	r0, #0
  53 0060 069084E0 		add	r9, r4, r6
  54 0064 0800000A 		beq	.L2
  55 0068 040099E5 		ldr	r0, [r9, #4]	@ float
  56 006c 04109AE5 		ldr	r1, [sl, #4]	@ float
  57 0070 FEFFFFEB 		bl	__aeabi_fcmpeq
  58 0074 000050E3 		cmp	r0, #0
  59 0078 0300000A 		beq	.L2
  60 007c 0700A0E1 		mov	r0, r7
  61 0080 FE15A0E3 		mov	r1, #1065353216
  62 0084 FEFFFFEB 		bl	__aeabi_fsub
  63 0088 060084E7 		str	r0, [r4, r6]	@ float
  64              	.L2:
  65 008c 0C70A0E3 		mov	r7, #12
  66 0090 97050CE0 		mul	ip, r7, r5
  67 0094 970808E0 		mul	r8, r7, r8
  68 0098 90419FE5 		ldr	r4, .L10+20
  69 009c 0C0094E7 		ldr	r0, [r4, ip]	@ float
  70 00a0 081094E7 		ldr	r1, [r4, r8]	@ float
  71 00a4 0C5084E0 		add	r5, r4, ip
  72 00a8 04C08DE5 		str	ip, [sp, #4]
  73 00ac FEFFFFEB 		bl	__aeabi_fsub
  74 00b0 089084E0 		add	r9, r4, r8
  75 00b4 0060A0E1 		mov	r6, r0
  76 00b8 041099E5 		ldr	r1, [r9, #4]	@ float
  77 00bc 040095E5 		ldr	r0, [r5, #4]	@ float
  78 00c0 FEFFFFEB 		bl	__aeabi_fsub
  79 00c4 0610A0E1 		mov	r1, r6
  80 00c8 00A0A0E1 		mov	sl, r0
  81 00cc 0600A0E1 		mov	r0, r6
  82 00d0 FEFFFFEB 		bl	__aeabi_fmul
  83 00d4 0A10A0E1 		mov	r1, sl
  84 00d8 00B0A0E1 		mov	fp, r0
  85 00dc 0A00A0E1 		mov	r0, sl
  86 00e0 FEFFFFEB 		bl	__aeabi_fmul
  87 00e4 0010A0E1 		mov	r1, r0
  88 00e8 0B00A0E1 		mov	r0, fp
  89 00ec FEFFFFEB 		bl	__aeabi_fadd
  90 00f0 FEFFFFEB 		bl	__aeabi_f2d
  91 00f4 FEFFFFEB 		bl	sqrt
  92 00f8 FEFFFFEB 		bl	__aeabi_d2f
  93 00fc 20319FE5 		ldr	r3, .L10+8
  94 0100 10008DE5 		str	r0, [sp, #16]	@ float
  95 0104 000093E5 		ldr	r0, [r3, #0]	@ float
  96 0108 FEFFFFEB 		bl	__aeabi_f2d
  97 010c FEFFFFEB 		bl	tan
  98 0110 0020A0E1 		mov	r2, r0
  99 0114 0130A0E1 		mov	r3, r1
 100 0118 080095E5 		ldr	r0, [r5, #8]	@ float
 101 011c 081099E5 		ldr	r1, [r9, #8]	@ float
 102 0120 0C208DE5 		str	r2, [sp, #12]
 103 0124 08308DE5 		str	r3, [sp, #8]
 104 0128 FEFFFFEB 		bl	__aeabi_fsub
 105 012c FEFFFFEB 		bl	__aeabi_f2d
 106 0130 08309DE5 		ldr	r3, [sp, #8]
 107 0134 0C209DE5 		ldr	r2, [sp, #12]
 108 0138 FEFFFFEB 		bl	__aeabi_ddiv
 109 013c FEFFFFEB 		bl	__aeabi_d2f
 110 0140 10109DE5 		ldr	r1, [sp, #16]	@ float
 111 0144 00B0A0E1 		mov	fp, r0
 112 0148 0600A0E1 		mov	r0, r6
 113 014c FEFFFFEB 		bl	__aeabi_fdiv
 114 0150 14209DE5 		ldr	r2, [sp, #20]
 115 0154 0B10A0E1 		mov	r1, fp
 116 0158 920707E0 		mul	r7, r2, r7
 117 015c 08008DE5 		str	r0, [sp, #8]
 118 0160 FEFFFFEB 		bl	__aeabi_fmul
 119 0164 0010A0E1 		mov	r1, r0
 120 0168 080094E7 		ldr	r0, [r4, r8]	@ float
 121 016c FEFFFFEB 		bl	__aeabi_fadd
 122 0170 10109DE5 		ldr	r1, [sp, #16]	@ float
 123 0174 070084E7 		str	r0, [r4, r7]	@ float
 124 0178 0080A0E1 		mov	r8, r0
 125 017c 0A00A0E1 		mov	r0, sl
 126 0180 FEFFFFEB 		bl	__aeabi_fdiv
 127 0184 0B10A0E1 		mov	r1, fp
 128 0188 00A0A0E1 		mov	sl, r0
 129 018c FEFFFFEB 		bl	__aeabi_fmul
 130 0190 0010A0E1 		mov	r1, r0
 131 0194 040099E5 		ldr	r0, [r9, #4]	@ float
 132 0198 FEFFFFEB 		bl	__aeabi_fadd
 133 019c 082095E5 		ldr	r2, [r5, #8]	@ float
 134 01a0 076084E0 		add	r6, r4, r7
 135 01a4 040086E5 		str	r0, [r6, #4]	@ float
 136 01a8 0070A0E1 		mov	r7, r0
 137 01ac 082086E5 		str	r2, [r6, #8]	@ float
 138 01b0 0B00A0E1 		mov	r0, fp
 139 01b4 10109DE5 		ldr	r1, [sp, #16]	@ float
 140 01b8 FEFFFFEB 		bl	__aeabi_fcmpgt
 141 01bc 000050E3 		cmp	r0, #0
 142 01c0 08309DE5 		ldr	r3, [sp, #8]
 143 01c4 1000000A 		beq	.L5
 144 01c8 5C209FE5 		ldr	r2, .L10+16
 145 01cc 006092E5 		ldr	r6, [r2, #0]	@ float
 146 01d0 0300A0E1 		mov	r0, r3
 147 01d4 0610A0E1 		mov	r1, r6
 148 01d8 FEFFFFEB 		bl	__aeabi_fmul
 149 01dc 0010A0E1 		mov	r1, r0
 150 01e0 0800A0E1 		mov	r0, r8
 151 01e4 FEFFFFEB 		bl	__aeabi_fadd
 152 01e8 04C09DE5 		ldr	ip, [sp, #4]
 153 01ec 0610A0E1 		mov	r1, r6
 154 01f0 0C0084E7 		str	r0, [r4, ip]	@ float
 155 01f4 0A00A0E1 		mov	r0, sl
 156 01f8 FEFFFFEB 		bl	__aeabi_fmul
 157 01fc 0010A0E1 		mov	r1, r0
 158 0200 0700A0E1 		mov	r0, r7
 159 0204 FEFFFFEB 		bl	__aeabi_fadd
 160 0208 040085E5 		str	r0, [r5, #4]	@ float
 161              	.L5:
 162 020c 0000A0E3 		mov	r0, #0
 163 0210 1CD08DE2 		add	sp, sp, #28
 164 0214 F04FBDE8 		ldmfd	sp!, {r4, r5, r6, r7, r8, r9, sl, fp, lr}
 165 0218 1EFF2FE1 		bx	lr
 166              	.L11:
 167              		.align	2
 168              	.L10:
 169 021c 00000000 		.word	.LANCHOR0
 170 0220 C2B8B23D 		.word	1035122882
 171 0224 00000000 		.word	app_angle
 172 0228 0000C842 		.word	1120403456
 173 022c 00000000 		.word	app_intercept_af_tod
 174 0230 00000000 		.word	waypoints
 176              		.global	__aeabi_fcmplt
 177              		.section	.text.gls,"ax",%progbits
 178              		.align	2
 179              		.global	gls
 181              	gls:
 182              		@ Function supports interworking.
 183              		@ args = 0, pretend = 0, frame = 8
 184              		@ frame_needed = 0, uses_anonymous_args = 0
 185 0000 F74F2DE9 		stmfd	sp!, {r0, r1, r2, r4, r5, r6, r7, r8, r9, sl, fp, lr}
 186 0004 C4329FE5 		ldr	r3, .L32
 187 0008 0250A0E1 		mov	r5, r2
 188 000c 0020D3E5 		ldrb	r2, [r3, #0]	@ zero_extendqisi2
 189 0010 000052E3 		cmp	r2, #0
 190 0014 0020A013 		movne	r2, #0
 191 0018 0020C315 		strneb	r2, [r3, #0]
 192 001c 0140A0E1 		mov	r4, r1
 193 0020 0C20A0E3 		mov	r2, #12
 194 0024 920501E0 		mul	r1, r2, r5
 195 0028 940202E0 		mul	r2, r4, r2
 196 002c A0329FE5 		ldr	r3, .L32+4
 197 0030 04008DE5 		str	r0, [sp, #4]
 198 0034 017083E0 		add	r7, r3, r1
 199 0038 010093E7 		ldr	r0, [r3, r1]	@ float
 200 003c 021093E7 		ldr	r1, [r3, r2]	@ float
 201 0040 026083E0 		add	r6, r3, r2
 202 0044 FEFFFFEB 		bl	__aeabi_fsub
 203 0048 041096E5 		ldr	r1, [r6, #4]	@ float
 204 004c 0080A0E1 		mov	r8, r0
 205 0050 040097E5 		ldr	r0, [r7, #4]	@ float
 206 0054 FEFFFFEB 		bl	__aeabi_fsub
 207 0058 0810A0E1 		mov	r1, r8
 208 005c 0070A0E1 		mov	r7, r0
 209 0060 0800A0E1 		mov	r0, r8
 210 0064 FEFFFFEB 		bl	__aeabi_fmul
 211 0068 0710A0E1 		mov	r1, r7
 212 006c 0060A0E1 		mov	r6, r0
 213 0070 0700A0E1 		mov	r0, r7
 214 0074 FEFFFFEB 		bl	__aeabi_fmul
 215 0078 0010A0E1 		mov	r1, r0
 216 007c 0600A0E1 		mov	r0, r6
 217 0080 FEFFFFEB 		bl	__aeabi_fadd
 218 0084 FE15A0E3 		mov	r1, #1065353216
 219 0088 0060A0E1 		mov	r6, r0
 220 008c FEFFFFEB 		bl	__aeabi_fcmpgt
 221 0090 40B29FE5 		ldr	fp, .L32+8
 222 0094 B030DBE1 		ldrh	r3, [fp, #0]
 223 0098 000050E3 		cmp	r0, #0
 224 009c FE65A003 		moveq	r6, #1065353216
 225 00a0 800013E3 		tst	r3, #128
 226 00a4 FEFFFF0B 		bleq	stateCalcPositionEnu_f
 227              	.L15:
 228 00a8 0CA0A0E3 		mov	sl, #12
 229 00ac 9A0403E0 		mul	r3, sl, r4
 230 00b0 1C929FE5 		ldr	r9, .L32+4
 231 00b4 08019BE5 		ldr	r0, [fp, #264]	@ float
 232 00b8 031099E7 		ldr	r1, [r9, r3]	@ float
 233 00bc FEFFFFEB 		bl	__aeabi_fsub
 234 00c0 0810A0E1 		mov	r1, r8
 235 00c4 FEFFFFEB 		bl	__aeabi_fmul
 236 00c8 B030DBE1 		ldrh	r3, [fp, #0]
 237 00cc 800013E3 		tst	r3, #128
 238 00d0 0080A0E1 		mov	r8, r0
 239 00d4 FEFFFF0B 		bleq	stateCalcPositionEnu_f
 240              	.L16:
 241 00d8 949A2AE0 		mla	sl, r4, sl, r9
 242 00dc F4319FE5 		ldr	r3, .L32+8
 243 00e0 04109AE5 		ldr	r1, [sl, #4]	@ float
 244 00e4 0C0193E5 		ldr	r0, [r3, #268]	@ float
 245 00e8 FEFFFFEB 		bl	__aeabi_fsub
 246 00ec 0710A0E1 		mov	r1, r7
 247 00f0 FEFFFFEB 		bl	__aeabi_fmul
 248 00f4 0010A0E1 		mov	r1, r0
 249 00f8 0800A0E1 		mov	r0, r8
 250 00fc FEFFFFEB 		bl	__aeabi_fadd
 251 0100 0610A0E1 		mov	r1, r6
 252 0104 FEFFFFEB 		bl	__aeabi_fdiv
 253 0108 FE15A0E3 		mov	r1, #1065353216
 254 010c 0070A0E1 		mov	r7, r0
 255 0110 FEFFFFEB 		bl	__aeabi_fcmpgt
 256 0114 000050E3 		cmp	r0, #0
 257 0118 FE75A013 		movne	r7, #1065353216
 258 011c 0400001A 		bne	.L17
 259 0120 0700A0E1 		mov	r0, r7
 260 0124 B0119FE5 		ldr	r1, .L32+12
 261 0128 FEFFFFEB 		bl	__aeabi_fcmplt
 262 012c 000050E3 		cmp	r0, #0
 263 0130 A4719F15 		ldrne	r7, .L32+12
 264              	.L17:
 265 0134 0600A0E1 		mov	r0, r6
 266 0138 FEFFFFEB 		bl	__aeabi_f2d
 267 013c FEFFFFEB 		bl	sqrt
 268 0140 FEFFFFEB 		bl	__aeabi_d2f
 269 0144 88319FE5 		ldr	r3, .L32+4
 270 0148 0C20A0E3 		mov	r2, #12
 271 014c 923421E0 		mla	r1, r2, r4, r3
 272 0150 923523E0 		mla	r3, r2, r5, r3
 273 0154 0080A0E1 		mov	r8, r0
 274 0158 080091E5 		ldr	r0, [r1, #8]	@ float
 275 015c 081093E5 		ldr	r1, [r3, #8]	@ float
 276 0160 FEFFFFEB 		bl	__aeabi_fsub
 277 0164 6CA19FE5 		ldr	sl, .L32+8
 278 0168 1531DAE5 		ldrb	r3, [sl, #277]	@ zero_extendqisi2
 279 016c 010013E3 		tst	r3, #1
 280 0170 026180E2 		add	r6, r0, #-2147483648
 281 0174 FEFFFF0B 		bleq	stateCalcHorizontalSpeedNorm_f
 282              	.L18:
 283 0178 0800A0E1 		mov	r0, r8
 284 017c 68119AE5 		ldr	r1, [sl, #360]	@ float
 285 0180 FEFFFFEB 		bl	__aeabi_fdiv
 286 0184 0010A0E1 		mov	r1, r0
 287 0188 0600A0E1 		mov	r0, r6
 288 018c FEFFFFEB 		bl	__aeabi_fdiv
 289 0190 0010A0E3 		mov	r1, #0
 290 0194 0060A0E1 		mov	r6, r0
 291 0198 FEFFFFEB 		bl	__aeabi_fcmpgt
 292 019c 0080A0E3 		mov	r8, #0
 293 01a0 000050E3 		cmp	r0, #0
 294 01a4 0860A011 		movne	r6, r8
 295 01a8 0400001A 		bne	.L19
 296 01ac 0600A0E1 		mov	r0, r6
 297 01b0 28119FE5 		ldr	r1, .L32+16
 298 01b4 FEFFFFEB 		bl	__aeabi_fcmplt
 299 01b8 000050E3 		cmp	r0, #0
 300 01bc 1C619F15 		ldrne	r6, .L32+16
 301              	.L19:
 302 01c0 0C319FE5 		ldr	r3, .L32+4
 303 01c4 0C20A0E3 		mov	r2, #12
 304 01c8 923424E0 		mla	r4, r2, r4, r3
 305 01cc 923523E0 		mla	r3, r2, r5, r3
 306 01d0 08A094E5 		ldr	sl, [r4, #8]	@ float
 307 01d4 084093E5 		ldr	r4, [r3, #8]	@ float
 308 01d8 0A10A0E1 		mov	r1, sl
 309 01dc 0400A0E1 		mov	r0, r4
 310 01e0 FEFFFFEB 		bl	__aeabi_fsub
 311 01e4 0010A0E1 		mov	r1, r0
 312 01e8 0700A0E1 		mov	r0, r7
 313 01ec FEFFFFEB 		bl	__aeabi_fmul
 314 01f0 0010A0E1 		mov	r1, r0
 315 01f4 0A00A0E1 		mov	r0, sl
 316 01f8 FEFFFFEB 		bl	__aeabi_fadd
 317 01fc E0309FE5 		ldr	r3, .L32+20
 318 0200 0090A0E1 		mov	r9, r0
 319 0204 001093E5 		ldr	r1, [r3, #0]	@ float
 320 0208 0600A0E1 		mov	r0, r6
 321 020c FEFFFFEB 		bl	__aeabi_fdiv
 322 0210 0010A0E1 		mov	r1, r0
 323 0214 0A00A0E1 		mov	r0, sl
 324 0218 FEFFFFEB 		bl	__aeabi_fadd
 325 021c 00B0A0E1 		mov	fp, r0
 326 0220 0B10A0E1 		mov	r1, fp
 327 0224 0900A0E1 		mov	r0, r9
 328 0228 FEFFFFEB 		bl	__aeabi_fcmpgt
 329 022c 000050E3 		cmp	r0, #0
 330 0230 0B40A011 		movne	r4, fp
 331 0234 0400001A 		bne	.L20
 332 0238 0410A0E1 		mov	r1, r4
 333 023c 0900A0E1 		mov	r0, r9
 334 0240 FEFFFFEB 		bl	__aeabi_fcmplt
 335 0244 000050E3 		cmp	r0, #0
 336 0248 0940A001 		moveq	r4, r9
 337              	.L20:
 338 024c 0700A0E1 		mov	r0, r7
 339 0250 BF14A0E3 		mov	r1, #-1090519040
 340 0254 FEFFFFEB 		bl	__aeabi_fcmplt
 341 0258 88309FE5 		ldr	r3, .L32+24
 342 025c 000050E3 		cmp	r0, #0
 343 0260 84209FE5 		ldr	r2, .L32+28
 344 0264 00808315 		strne	r8, [r3, #0]	@ float
 345 0268 00608305 		streq	r6, [r3, #0]	@ float
 346 026c 7C309FE5 		ldr	r3, .L32+32
 347 0270 00A08215 		strne	sl, [r2, #0]	@ float
 348 0274 00408205 		streq	r4, [r2, #0]	@ float
 349 0278 74109FE5 		ldr	r1, .L32+36
 350 027c 0020A0E3 		mov	r2, #0
 351 0280 0020C3E5 		strb	r2, [r3, #0]
 352 0284 0300A0E3 		mov	r0, #3
 353 0288 68309FE5 		ldr	r3, .L32+40
 354 028c 0000C1E5 		strb	r0, [r1, #0]
 355 0290 04009DE5 		ldr	r0, [sp, #4]
 356 0294 008083E5 		str	r8, [r3, #0]	@ float
 357 0298 0C30A0E3 		mov	r3, #12
 358 029c 930000E0 		mul	r0, r3, r0
 359 02a0 930505E0 		mul	r5, r3, r5
 360 02a4 28209FE5 		ldr	r2, .L32+4
 361 02a8 001082E0 		add	r1, r2, r0
 362 02ac 053082E0 		add	r3, r2, r5
 363 02b0 000092E7 		ldr	r0, [r2, r0]	@ float
 364 02b4 041091E5 		ldr	r1, [r1, #4]	@ float
 365 02b8 052092E7 		ldr	r2, [r2, r5]	@ float
 366 02bc 043093E5 		ldr	r3, [r3, #4]	@ float
 367 02c0 FEFFFFEB 		bl	nav_route_xy
 368 02c4 0100A0E3 		mov	r0, #1
 369 02c8 FE4FBDE8 		ldmfd	sp!, {r1, r2, r3, r4, r5, r6, r7, r8, r9, sl, fp, lr}
 370 02cc 1EFF2FE1 		bx	lr
 371              	.L33:
 372              		.align	2
 373              	.L32:
 374 02d0 00000000 		.word	.LANCHOR0
 375 02d4 00000000 		.word	waypoints
 376 02d8 00000000 		.word	state
 377 02dc 000080BF 		.word	-1082130432
 378 02e0 0000A0C0 		.word	-1063256064
 379 02e4 00000000 		.word	v_ctl_altitude_pgain
 380 02e8 00000000 		.word	v_ctl_altitude_pre_climb
 381 02ec 00000000 		.word	nav_altitude
 382 02f0 00000000 		.word	v_ctl_climb_mode
 383 02f4 00000000 		.word	v_ctl_mode
 384 02f8 00000000 		.word	nav_pitch
 386              		.global	init
 387              		.comm	app_intercept_af_tod,4,4
 388              		.comm	app_angle,4,4
 389              		.comm	target_speed,4,4
 390              		.section	.data.init,"aw",%progbits
 391              		.set	.LANCHOR0,. + 0
 394              	init:
 395 0000 01       		.byte	1
 396              		.ident	"GCC: (Linaro GCC 4.6-2011.09-1) 4.6.2 20110908 (prerelease)"
DEFINED SYMBOLS
                            *ABS*:00000000 gls.c
     /tmp/cc4OkfUp.s:22     .text.gls_init:00000000 $a
     /tmp/cc4OkfUp.s:25     .text.gls_init:00000000 gls_init
     /tmp/cc4OkfUp.s:169    .text.gls_init:0000021c $d
                            *COM*:00000004 app_angle
                            *COM*:00000004 app_intercept_af_tod
     /tmp/cc4OkfUp.s:178    .text.gls:00000000 $a
     /tmp/cc4OkfUp.s:181    .text.gls:00000000 gls
     /tmp/cc4OkfUp.s:374    .text.gls:000002d0 $d
     /tmp/cc4OkfUp.s:394    .data.init:00000000 init
                            *COM*:00000004 target_speed

UNDEFINED SYMBOLS
__aeabi_fcmpeq
__aeabi_fsub
__aeabi_fmul
__aeabi_fadd
__aeabi_f2d
__aeabi_d2f
__aeabi_ddiv
__aeabi_fdiv
__aeabi_fcmpgt
sqrt
tan
waypoints
__aeabi_fcmplt
stateCalcPositionEnu_f
stateCalcHorizontalSpeedNorm_f
nav_route_xy
state
v_ctl_altitude_pgain
v_ctl_altitude_pre_climb
nav_altitude
v_ctl_climb_mode
v_ctl_mode
nav_pitch
