   1              		.cpu arm7tdmi
   2              		.fpu softvfp
   3              		.eabi_attribute 20, 1
   4              		.eabi_attribute 21, 1
   5              		.eabi_attribute 23, 3
   6              		.eabi_attribute 24, 1
   7              		.eabi_attribute 25, 1
   8              		.eabi_attribute 26, 1
   9              		.eabi_attribute 30, 4
  10              		.eabi_attribute 18, 4
  11              		.file	"ins_alt_float.c"
  12              		.section	.text.ins_periodic,"ax",%progbits
  13              		.align	2
  14              		.global	ins_periodic
  16              	ins_periodic:
  17              		@ Function supports interworking.
  18              		@ args = 0, pretend = 0, frame = 0
  19              		@ frame_needed = 0, uses_anonymous_args = 0
  20              		@ link register save eliminated.
  21 0000 1EFF2FE1 		bx	lr
  23              		.section	.text.ins_realign_h,"ax",%progbits
  24              		.align	2
  25              		.global	ins_realign_h
  27              	ins_realign_h:
  28              		@ Function supports interworking.
  29              		@ args = 0, pretend = 0, frame = 16
  30              		@ frame_needed = 0, uses_anonymous_args = 0
  31              		@ link register save eliminated.
  32 0000 10D04DE2 		sub	sp, sp, #16
  33 0004 10C08DE2 		add	ip, sp, #16
  34 0008 03000CE9 		stmdb	ip, {r0, r1}
  35 000c 0C008DE8 		stmia	sp, {r2, r3}
  36 0010 10D08DE2 		add	sp, sp, #16
  37 0014 1EFF2FE1 		bx	lr
  39              		.section	.text.ins_realign_v,"ax",%progbits
  40              		.align	2
  41              		.global	ins_realign_v
  43              	ins_realign_v:
  44              		@ Function supports interworking.
  45              		@ args = 0, pretend = 0, frame = 0
  46              		@ frame_needed = 0, uses_anonymous_args = 0
  47              		@ link register save eliminated.
  48 0000 1EFF2FE1 		bx	lr
  50              		.section	.text.ins_propagate,"ax",%progbits
  51              		.align	2
  52              		.global	ins_propagate
  54              	ins_propagate:
  55              		@ Function supports interworking.
  56              		@ args = 0, pretend = 0, frame = 0
  57              		@ frame_needed = 0, uses_anonymous_args = 0
  58              		@ link register save eliminated.
  59 0000 1EFF2FE1 		bx	lr
  61              		.section	.text.ins_update_baro,"ax",%progbits
  62              		.align	2
  63              		.global	ins_update_baro
  65              	ins_update_baro:
  66              		@ Function supports interworking.
  67              		@ args = 0, pretend = 0, frame = 0
  68              		@ frame_needed = 0, uses_anonymous_args = 0
  69              		@ link register save eliminated.
  70 0000 1EFF2FE1 		bx	lr
  72              		.section	.text.ins_update_sonar,"ax",%progbits
  73              		.align	2
  74              		.global	ins_update_sonar
  76              	ins_update_sonar:
  77              		@ Function supports interworking.
  78              		@ args = 0, pretend = 0, frame = 0
  79              		@ frame_needed = 0, uses_anonymous_args = 0
  80              		@ link register save eliminated.
  81 0000 1EFF2FE1 		bx	lr
  83              		.section	.text.alt_kalman_reset,"ax",%progbits
  84              		.align	2
  85              		.global	alt_kalman_reset
  87              	alt_kalman_reset:
  88              		@ Function supports interworking.
  89              		@ args = 0, pretend = 0, frame = 0
  90              		@ frame_needed = 0, uses_anonymous_args = 0
  91              		@ link register save eliminated.
  92 0000 18309FE5 		ldr	r3, .L8
  93 0004 FE25A0E3 		mov	r2, #1065353216
  94 0008 0010A0E3 		mov	r1, #0
  95 000c 002083E5 		str	r2, [r3, #0]	@ float
  96 0010 041083E5 		str	r1, [r3, #4]	@ float
  97 0014 081083E5 		str	r1, [r3, #8]	@ float
  98 0018 0C2083E5 		str	r2, [r3, #12]	@ float
  99 001c 1EFF2FE1 		bx	lr
 100              	.L9:
 101              		.align	2
 102              	.L8:
 103 0020 00000000 		.word	.LANCHOR0
 105              		.section	.text.alt_kalman_init,"ax",%progbits
 106              		.align	2
 107              		.global	alt_kalman_init
 109              	alt_kalman_init:
 110              		@ Function supports interworking.
 111              		@ args = 0, pretend = 0, frame = 0
 112              		@ frame_needed = 0, uses_anonymous_args = 0
 113              		@ link register save eliminated.
 114 0000 08309FE5 		ldr	r3, .L11
 115 0004 0020A0E3 		mov	r2, #0
 116 0008 0020C3E5 		strb	r2, [r3, #0]
 117 000c FEFFFFEA 		b	alt_kalman_reset
 118              	.L12:
 119              		.align	2
 120              	.L11:
 121 0010 00000000 		.word	alt_kalman_enabled
 123              		.global	__aeabi_fmul
 124              		.global	__aeabi_fadd
 125              		.global	__aeabi_f2d
 126              		.global	__aeabi_dcmpgt
 127              		.global	__aeabi_fdiv
 128              		.global	__aeabi_fsub
 129              		.section	.text.alt_kalman,"ax",%progbits
 130              		.align	2
 131              		.global	alt_kalman
 133              	alt_kalman:
 134              		@ Function supports interworking.
 135              		@ args = 0, pretend = 0, frame = 16
 136              		@ frame_needed = 0, uses_anonymous_args = 0
 137 0000 F04F2DE9 		stmfd	sp!, {r4, r5, r6, r7, r8, r9, sl, fp, lr}
 138 0004 DC319FE5 		ldr	r3, .L17
 139 0008 003093E5 		ldr	r3, [r3, #0]	@ float
 140 000c 14D04DE2 		sub	sp, sp, #20
 141 0010 D4819FE5 		ldr	r8, .L17+4
 142 0014 0C008DE5 		str	r0, [sp, #12]	@ float
 143 0018 FA15A0E3 		mov	r1, #1048576000
 144 001c 0300A0E1 		mov	r0, r3
 145 0020 00308DE5 		str	r3, [sp, #0]	@ float
 146 0024 FEFFFFEB 		bl	__aeabi_fmul
 147 0028 001098E5 		ldr	r1, [r8, #0]	@ float
 148 002c FEFFFFEB 		bl	__aeabi_fadd
 149 0030 B8419FE5 		ldr	r4, .L17+8
 150 0034 0C7094E5 		ldr	r7, [r4, #12]	@ float
 151 0038 000088E5 		str	r0, [r8, #0]	@ float
 152 003c FA15A0E3 		mov	r1, #1048576000
 153 0040 0060A0E1 		mov	r6, r0
 154 0044 0700A0E1 		mov	r0, r7
 155 0048 FEFFFFEB 		bl	__aeabi_fmul
 156 004c 041094E5 		ldr	r1, [r4, #4]	@ float
 157 0050 00B0A0E1 		mov	fp, r0
 158 0054 FEFFFFEB 		bl	__aeabi_fadd
 159 0058 08A094E5 		ldr	sl, [r4, #8]	@ float
 160 005c 0090A0E1 		mov	r9, r0
 161 0060 FA15A0E3 		mov	r1, #1048576000
 162 0064 0A00A0E1 		mov	r0, sl
 163 0068 FEFFFFEB 		bl	__aeabi_fmul
 164 006c 001094E5 		ldr	r1, [r4, #0]	@ float
 165 0070 FEFFFFEB 		bl	__aeabi_fadd
 166 0074 FA15A0E3 		mov	r1, #1048576000
 167 0078 0050A0E1 		mov	r5, r0
 168 007c 0900A0E1 		mov	r0, r9
 169 0080 FEFFFFEB 		bl	__aeabi_fmul
 170 0084 0010A0E1 		mov	r1, r0
 171 0088 0500A0E1 		mov	r0, r5
 172 008c FEFFFFEB 		bl	__aeabi_fadd
 173 0090 EA15A0E3 		mov	r1, #981467136
 174 0094 FEFFFFEB 		bl	__aeabi_fadd
 175 0098 0F13A0E3 		mov	r1, #1006632960
 176 009c 0050A0E1 		mov	r5, r0
 177 00a0 000084E5 		str	r0, [r4, #0]	@ float
 178 00a4 0900A0E1 		mov	r0, r9
 179 00a8 FEFFFFEB 		bl	__aeabi_fadd
 180 00ac 0B10A0E1 		mov	r1, fp
 181 00b0 040084E5 		str	r0, [r4, #4]	@ float
 182 00b4 0090A0E1 		mov	r9, r0
 183 00b8 0A00A0E1 		mov	r0, sl
 184 00bc FEFFFFEB 		bl	__aeabi_fadd
 185 00c0 0F13A0E3 		mov	r1, #1006632960
 186 00c4 FEFFFFEB 		bl	__aeabi_fadd
 187 00c8 F615A0E3 		mov	r1, #1031798784
 188 00cc 080084E5 		str	r0, [r4, #8]	@ float
 189 00d0 00A0A0E1 		mov	sl, r0
 190 00d4 0700A0E1 		mov	r0, r7
 191 00d8 FEFFFFEB 		bl	__aeabi_fadd
 192 00dc 0111A0E3 		mov	r1, #1073741824
 193 00e0 04008DE5 		str	r0, [sp, #4]	@ float
 194 00e4 0C0084E5 		str	r0, [r4, #12]	@ float
 195 00e8 0500A0E1 		mov	r0, r5
 196 00ec FEFFFFEB 		bl	__aeabi_fadd
 197 00f0 0070A0E1 		mov	r7, r0
 198 00f4 0201C0E3 		bic	r0, r0, #-2147483648
 199 00f8 FEFFFFEB 		bl	__aeabi_f2d
 200 00fc F0209FE5 		ldr	r2, .L17+12
 201 0100 F0309FE5 		ldr	r3, .L17+16
 202 0104 FEFFFFEB 		bl	__aeabi_dcmpgt
 203 0108 000050E3 		cmp	r0, #0
 204 010c 3200000A 		beq	.L13
 205 0110 0710A0E1 		mov	r1, r7
 206 0114 0500A0E1 		mov	r0, r5
 207 0118 FEFFFFEB 		bl	__aeabi_fdiv
 208 011c 0710A0E1 		mov	r1, r7
 209 0120 08008DE5 		str	r0, [sp, #8]	@ float
 210 0124 0A00A0E1 		mov	r0, sl
 211 0128 FEFFFFEB 		bl	__aeabi_fdiv
 212 012c 0610A0E1 		mov	r1, r6
 213 0130 0070A0E1 		mov	r7, r0
 214 0134 0C009DE5 		ldr	r0, [sp, #12]	@ float
 215 0138 FEFFFFEB 		bl	__aeabi_fsub
 216 013c 00B0A0E1 		mov	fp, r0
 217 0140 0B10A0E1 		mov	r1, fp
 218 0144 08009DE5 		ldr	r0, [sp, #8]	@ float
 219 0148 FEFFFFEB 		bl	__aeabi_fmul
 220 014c 0010A0E1 		mov	r1, r0
 221 0150 0600A0E1 		mov	r0, r6
 222 0154 FEFFFFEB 		bl	__aeabi_fadd
 223 0158 0B10A0E1 		mov	r1, fp
 224 015c 000088E5 		str	r0, [r8, #0]	@ float
 225 0160 0700A0E1 		mov	r0, r7
 226 0164 FEFFFFEB 		bl	__aeabi_fmul
 227 0168 0010A0E1 		mov	r1, r0
 228 016c 00009DE5 		ldr	r0, [sp, #0]	@ float
 229 0170 FEFFFFEB 		bl	__aeabi_fadd
 230 0174 6C309FE5 		ldr	r3, .L17
 231 0178 0710A0E1 		mov	r1, r7
 232 017c 000083E5 		str	r0, [r3, #0]	@ float
 233 0180 020185E2 		add	r0, r5, #-2147483648
 234 0184 FEFFFFEB 		bl	__aeabi_fmul
 235 0188 0A10A0E1 		mov	r1, sl
 236 018c FEFFFFEB 		bl	__aeabi_fadd
 237 0190 0710A0E1 		mov	r1, r7
 238 0194 080084E5 		str	r0, [r4, #8]	@ float
 239 0198 020189E2 		add	r0, r9, #-2147483648
 240 019c FEFFFFEB 		bl	__aeabi_fmul
 241 01a0 04109DE5 		ldr	r1, [sp, #4]	@ float
 242 01a4 FEFFFFEB 		bl	__aeabi_fadd
 243 01a8 08109DE5 		ldr	r1, [sp, #8]	@ float
 244 01ac 0C0084E5 		str	r0, [r4, #12]	@ float
 245 01b0 FE05A0E3 		mov	r0, #1065353216
 246 01b4 FEFFFFEB 		bl	__aeabi_fsub
 247 01b8 0060A0E1 		mov	r6, r0
 248 01bc 0610A0E1 		mov	r1, r6
 249 01c0 0500A0E1 		mov	r0, r5
 250 01c4 FEFFFFEB 		bl	__aeabi_fmul
 251 01c8 0610A0E1 		mov	r1, r6
 252 01cc 000084E5 		str	r0, [r4, #0]	@ float
 253 01d0 0900A0E1 		mov	r0, r9
 254 01d4 FEFFFFEB 		bl	__aeabi_fmul
 255 01d8 040084E5 		str	r0, [r4, #4]	@ float
 256              	.L13:
 257 01dc 14D08DE2 		add	sp, sp, #20
 258 01e0 F04FBDE8 		ldmfd	sp!, {r4, r5, r6, r7, r8, r9, sl, fp, lr}
 259 01e4 1EFF2FE1 		bx	lr
 260              	.L18:
 261              		.align	2
 262              	.L17:
 263 01e8 00000000 		.word	estimator_z_dot
 264 01ec 00000000 		.word	estimator_z
 265 01f0 00000000 		.word	.LANCHOR0
 266 01f4 F168E388 		.word	-1998362383
 267 01f8 B5F8E43E 		.word	1055193269
 269              		.global	__aeabi_i2d
 270              		.global	__aeabi_ddiv
 271              		.global	__aeabi_d2f
 272              		.section	.text.ins_update_gps,"ax",%progbits
 273              		.align	2
 274              		.global	ins_update_gps
 276              	ins_update_gps:
 277              		@ Function supports interworking.
 278              		@ args = 0, pretend = 0, frame = 0
 279              		@ frame_needed = 0, uses_anonymous_args = 0
 280 0000 F8402DE9 		stmfd	sp!, {r3, r4, r5, r6, r7, lr}
 281 0004 00419FE5 		ldr	r4, .L22
 282 0008 1C0094E5 		ldr	r0, [r4, #28]
 283 000c FEFFFFEB 		bl	__aeabi_i2d
 284 0010 0020A0E3 		mov	r2, #0
 285 0014 F4309FE5 		ldr	r3, .L22+4
 286 0018 FEFFFFEB 		bl	__aeabi_ddiv
 287 001c FEFFFFEB 		bl	__aeabi_d2f
 288 0020 0060A0E1 		mov	r6, r0
 289 0024 180094E5 		ldr	r0, [r4, #24]
 290 0028 FEFFFFEB 		bl	__aeabi_i2d
 291 002c 0020A0E3 		mov	r2, #0
 292 0030 D8309FE5 		ldr	r3, .L22+4
 293 0034 FEFFFFEB 		bl	__aeabi_ddiv
 294 0038 FEFFFFEB 		bl	__aeabi_d2f
 295 003c D0309FE5 		ldr	r3, .L22+8
 296 0040 0070A0E1 		mov	r7, r0
 297 0044 280094E5 		ldr	r0, [r4, #40]
 298 0048 0050D3E5 		ldrb	r5, [r3, #0]	@ zero_extendqisi2
 299 004c FEFFFFEB 		bl	__aeabi_i2d
 300 0050 0020A0E3 		mov	r2, #0
 301 0054 BC309FE5 		ldr	r3, .L22+12
 302 0058 FEFFFFEB 		bl	__aeabi_ddiv
 303 005c FEFFFFEB 		bl	__aeabi_d2f
 304 0060 B4209FE5 		ldr	r2, .L22+16
 305 0064 0020D2E5 		ldrb	r2, [r2, #0]	@ zero_extendqisi2
 306 0068 B0409FE5 		ldr	r4, .L22+20
 307 006c 000052E3 		cmp	r2, #0
 308 0070 00008405 		streq	r0, [r4, #0]	@ float
 309 0074 FEFFFF1B 		blne	alt_kalman
 310              	.L21:
 311 0078 003094E5 		ldr	r3, [r4, #0]	@ float
 312 007c A0409FE5 		ldr	r4, .L22+24
 313 0080 8450C4E5 		strb	r5, [r4, #132]
 314 0084 80509FE5 		ldr	r5, .L22
 315 0088 803084E5 		str	r3, [r4, #128]	@ float
 316 008c 023CA0E3 		mov	r3, #512
 317 0090 787084E5 		str	r7, [r4, #120]	@ float
 318 0094 7C6084E5 		str	r6, [r4, #124]	@ float
 319 0098 B030C4E1 		strh	r3, [r4, #0]	@ movhi
 320 009c 3C0095E5 		ldr	r0, [r5, #60]
 321 00a0 FEFFFFEB 		bl	__aeabi_i2d
 322 00a4 0020A0E3 		mov	r2, #0
 323 00a8 60309FE5 		ldr	r3, .L22+4
 324 00ac FEFFFFEB 		bl	__aeabi_ddiv
 325 00b0 FEFFFFEB 		bl	__aeabi_d2f
 326 00b4 0070A0E1 		mov	r7, r0
 327 00b8 400095E5 		ldr	r0, [r5, #64]
 328 00bc FEFFFFEB 		bl	__aeabi_i2d
 329 00c0 0020A0E3 		mov	r2, #0
 330 00c4 44309FE5 		ldr	r3, .L22+4
 331 00c8 FEFFFFEB 		bl	__aeabi_ddiv
 332 00cc FEFFFFEB 		bl	__aeabi_d2f
 333 00d0 0060A0E1 		mov	r6, r0
 334 00d4 380095E5 		ldr	r0, [r5, #56]
 335 00d8 FEFFFFEB 		bl	__aeabi_i2d
 336 00dc 0020A0E3 		mov	r2, #0
 337 00e0 28309FE5 		ldr	r3, .L22+4
 338 00e4 FEFFFFEB 		bl	__aeabi_ddiv
 339 00e8 FEFFFFEB 		bl	__aeabi_d2f
 340 00ec 4020A0E3 		mov	r2, #64
 341 00f0 453FA0E3 		mov	r3, #276
 342 00f4 500184E5 		str	r0, [r4, #336]	@ float
 343 00f8 547184E5 		str	r7, [r4, #340]	@ float
 344 00fc 586184E5 		str	r6, [r4, #344]	@ float
 345 0100 B32084E1 		strh	r2, [r4, r3]	@ movhi
 346 0104 F840BDE8 		ldmfd	sp!, {r3, r4, r5, r6, r7, lr}
 347 0108 1EFF2FE1 		bx	lr
 348              	.L23:
 349              		.align	2
 350              	.L22:
 351 010c 00000000 		.word	gps
 352 0110 00005940 		.word	1079574528
 353 0114 00000000 		.word	nav_utm_zone0
 354 0118 00408F40 		.word	1083129856
 355 011c 00000000 		.word	alt_kalman_enabled
 356 0120 00000000 		.word	estimator_z
 357 0124 00000000 		.word	state
 359              		.global	__aeabi_i2f
 360              		.section	.text.ins_init,"ax",%progbits
 361              		.align	2
 362              		.global	ins_init
 364              	ins_init:
 365              		@ Function supports interworking.
 366              		@ args = 0, pretend = 0, frame = 0
 367              		@ frame_needed = 0, uses_anonymous_args = 0
 368 0000 38402DE9 		stmfd	sp!, {r3, r4, r5, lr}
 369 0004 AC309FE5 		ldr	r3, .L27
 370 0008 000093E5 		ldr	r0, [r3, #0]
 371 000c FEFFFFEB 		bl	__aeabi_i2f
 372 0010 A4309FE5 		ldr	r3, .L27+4
 373 0014 0040A0E1 		mov	r4, r0
 374 0018 000093E5 		ldr	r0, [r3, #0]
 375 001c FEFFFFEB 		bl	__aeabi_i2f
 376 0020 98309FE5 		ldr	r3, .L27+8
 377 0024 0020D3E5 		ldrb	r2, [r3, #0]	@ zero_extendqisi2
 378 0028 94309FE5 		ldr	r3, .L27+12
 379 002c 0110A0E3 		mov	r1, #1
 380 0030 F810C3E5 		strb	r1, [r3, #248]
 381 0034 451FA0E3 		mov	r1, #276
 382 0038 B1C093E1 		ldrh	ip, [r3, r1]
 383 003c C6C0CCE3 		bic	ip, ip, #198
 384 0040 B1C083E1 		strh	ip, [r3, r1]	@ movhi
 385 0044 7011D3E5 		ldrb	r1, [r3, #368]	@ zero_extendqisi2
 386 0048 F420C3E5 		strb	r2, [r3, #244]
 387 004c 8420C3E5 		strb	r2, [r3, #132]
 388 0050 0050A0E3 		mov	r5, #0
 389 0054 022CA0E3 		mov	r2, #512
 390 0058 0A10C1E3 		bic	r1, r1, #10
 391 005c B020C3E1 		strh	r2, [r3, #0]	@ movhi
 392 0060 E84083E5 		str	r4, [r3, #232]	@ float
 393 0064 EC0083E5 		str	r0, [r3, #236]	@ float
 394 0068 F05083E5 		str	r5, [r3, #240]	@ float
 395 006c 7011C3E5 		strb	r1, [r3, #368]
 396 0070 784083E5 		str	r4, [r3, #120]	@ float
 397 0074 7C0083E5 		str	r0, [r3, #124]	@ float
 398 0078 805083E5 		str	r5, [r3, #128]	@ float
 399 007c FEFFFFEB 		bl	alt_kalman_init
 400 0080 40309FE5 		ldr	r3, .L27+16
 401 0084 0020A0E3 		mov	r2, #0
 402 0088 0220C3E5 		strb	r2, [r3, #2]
 403 008c 38309FE5 		ldr	r3, .L27+20
 404 0090 0030D3E5 		ldrb	r3, [r3, #0]	@ zero_extendqisi2
 405 0094 020053E1 		cmp	r3, r2
 406 0098 0300001A 		bne	.L25
 407 009c 2C309FE5 		ldr	r3, .L27+24
 408 00a0 005083E5 		str	r5, [r3, #0]	@ float
 409 00a4 3840BDE8 		ldmfd	sp!, {r3, r4, r5, lr}
 410 00a8 1EFF2FE1 		bx	lr
 411              	.L25:
 412 00ac 0500A0E1 		mov	r0, r5
 413 00b0 3840BDE8 		ldmfd	sp!, {r3, r4, r5, lr}
 414 00b4 FEFFFFEA 		b	alt_kalman
 415              	.L28:
 416              		.align	2
 417              	.L27:
 418 00b8 00000000 		.word	nav_utm_north0
 419 00bc 00000000 		.word	nav_utm_east0
 420 00c0 00000000 		.word	nav_utm_zone0
 421 00c4 00000000 		.word	state
 422 00c8 00000000 		.word	ins
 423 00cc 00000000 		.word	alt_kalman_enabled
 424 00d0 00000000 		.word	estimator_z
 426              		.comm	alt_kalman_enabled,1,1
 427              		.comm	estimator_z_dot,4,4
 428              		.comm	estimator_z,4,4
 429              		.section	.bss.p,"aw",%nobits
 430              		.align	2
 431              		.set	.LANCHOR0,. + 0
 434              	p:
 435 0000 00000000 		.space	16
 435      00000000 
 435      00000000 
 435      00000000 
 436              		.ident	"GCC: (Linaro GCC 4.6-2011.09-1) 4.6.2 20110908 (prerelease)"