   1              		.cpu arm7tdmi
   2              		.fpu softvfp
   3              		.eabi_attribute 20, 1
   4              		.eabi_attribute 21, 1
   5              		.eabi_attribute 23, 3
   6              		.eabi_attribute 24, 1
   7              		.eabi_attribute 25, 1
   8              		.eabi_attribute 26, 1
   9              		.eabi_attribute 30, 4
  10              		.eabi_attribute 18, 4
  11              		.file	"main_ap.c"
  12              		.section	.text.stateGetPositionEnu_f,"ax",%progbits
  13              		.align	2
  15              	stateGetPositionEnu_f:
  16              		@ Function supports interworking.
  17              		@ args = 0, pretend = 0, frame = 0
  18              		@ frame_needed = 0, uses_anonymous_args = 0
  19 0000 08402DE9 		stmfd	sp!, {r3, lr}
  20 0004 14309FE5 		ldr	r3, .L3
  21 0008 B030D3E1 		ldrh	r3, [r3, #0]
  22 000c 800013E3 		tst	r3, #128
  23 0010 FEFFFF0B 		bleq	stateCalcPositionEnu_f
  24              	.L2:
  25 0014 08009FE5 		ldr	r0, .L3+4
  26 0018 0840BDE8 		ldmfd	sp!, {r3, lr}
  27 001c 1EFF2FE1 		bx	lr
  28              	.L4:
  29              		.align	2
  30              	.L3:
  31 0020 00000000 		.word	state
  32 0024 08010000 		.word	state+264
  34              		.section	.text.stateGetPositionUtm_f,"ax",%progbits
  35              		.align	2
  37              	stateGetPositionUtm_f:
  38              		@ Function supports interworking.
  39              		@ args = 0, pretend = 0, frame = 0
  40              		@ frame_needed = 0, uses_anonymous_args = 0
  41 0000 08402DE9 		stmfd	sp!, {r3, lr}
  42 0004 14309FE5 		ldr	r3, .L7
  43 0008 B030D3E1 		ldrh	r3, [r3, #0]
  44 000c 020C13E3 		tst	r3, #512
  45 0010 FEFFFF0B 		bleq	stateCalcPositionUtm_f
  46              	.L6:
  47 0014 08009FE5 		ldr	r0, .L7+4
  48 0018 0840BDE8 		ldmfd	sp!, {r3, lr}
  49 001c 1EFF2FE1 		bx	lr
  50              	.L8:
  51              		.align	2
  52              	.L7:
  53 0020 00000000 		.word	state
  54 0024 78000000 		.word	state+120
  56              		.section	.text.stateGetSpeedEnu_f,"ax",%progbits
  57              		.align	2
  59              	stateGetSpeedEnu_f:
  60              		@ Function supports interworking.
  61              		@ args = 0, pretend = 0, frame = 0
  62              		@ frame_needed = 0, uses_anonymous_args = 0
  63 0000 08402DE9 		stmfd	sp!, {r3, lr}
  64 0004 14309FE5 		ldr	r3, .L11
  65 0008 1431D3E5 		ldrb	r3, [r3, #276]	@ zero_extendqisi2
  66 000c A333B0E1 		movs	r3, r3, lsr #7
  67 0010 FEFFFF0B 		bleq	stateCalcSpeedEnu_f
  68              	.L10:
  69 0014 08009FE5 		ldr	r0, .L11+4
  70 0018 0840BDE8 		ldmfd	sp!, {r3, lr}
  71 001c 1EFF2FE1 		bx	lr
  72              	.L12:
  73              		.align	2
  74              	.L11:
  75 0020 00000000 		.word	state
  76 0024 5C010000 		.word	state+348
  78              		.section	.text.init_ap,"ax",%progbits
  79              		.align	2
  80              		.global	init_ap
  82              	init_ap:
  83              		@ Function supports interworking.
  84              		@ args = 0, pretend = 0, frame = 0
  85              		@ frame_needed = 0, uses_anonymous_args = 0
  86 0000 10402DE9 		stmfd	sp!, {r4, lr}
  87 0004 B4409FE5 		ldr	r4, .L14
  88 0008 FEFFFFEB 		bl	gps_init
  89 000c FEFFFFEB 		bl	ahrs_init
  90 0010 FEFFFFEB 		bl	ins_init
  91 0014 FEFFFFEB 		bl	stateInit
  92 0018 FEFFFFEB 		bl	h_ctl_init
  93 001c FEFFFFEB 		bl	v_ctl_init
  94 0020 FEFFFFEB 		bl	nav_init
  95 0024 FEFFFFEB 		bl	infrared_adc_init
  96 0028 FEFFFFEB 		bl	settings_init
  97 002c 0400A0E1 		mov	r0, r4
  98 0030 0010A0E3 		mov	r1, #0
  99 0034 FEFFFFEB 		bl	sys_time_register_timer
 100 0038 84309FE5 		ldr	r3, .L14+4
 101 003c 0010A0E3 		mov	r1, #0
 102 0040 0000C3E5 		strb	r0, [r3, #0]
 103 0044 FA05A0E3 		mov	r0, #1048576000
 104 0048 FEFFFFEB 		bl	sys_time_register_timer
 105 004c 74309FE5 		ldr	r3, .L14+8
 106 0050 0010A0E3 		mov	r1, #0
 107 0054 0000C3E5 		strb	r0, [r3, #0]
 108 0058 0400A0E1 		mov	r0, r4
 109 005c FEFFFFEB 		bl	sys_time_register_timer
 110 0060 64309FE5 		ldr	r3, .L14+12
 111 0064 0010A0E3 		mov	r1, #0
 112 0068 0000C3E5 		strb	r0, [r3, #0]
 113 006c 0400A0E1 		mov	r0, r4
 114 0070 FEFFFFEB 		bl	sys_time_register_timer
 115 0074 54309FE5 		ldr	r3, .L14+16
 116 0078 0010A0E3 		mov	r1, #0
 117 007c 0000C3E5 		strb	r0, [r3, #0]
 118 0080 0400A0E1 		mov	r0, r4
 119 0084 FEFFFFEB 		bl	sys_time_register_timer
 120 0088 44309FE5 		ldr	r3, .L14+20
 121 008c 0010A0E3 		mov	r1, #0
 122 0090 0000C3E5 		strb	r0, [r3, #0]
 123 0094 FE05A0E3 		mov	r0, #1065353216
 124 0098 FEFFFFEB 		bl	sys_time_register_timer
 125 009c 34309FE5 		ldr	r3, .L14+24
 126 00a0 0000C3E5 		strb	r0, [r3, #0]
 127 00a4 FEFFFFEB 		bl	enableIRQ
 128 00a8 2C309FE5 		ldr	r3, .L14+28
 129 00ac 0020A0E3 		mov	r2, #0
 130 00b0 0020C3E5 		strb	r2, [r3, #0]
 131 00b4 FEFFFFEB 		bl	traffic_info_init
 132 00b8 1040BDE8 		ldmfd	sp!, {r4, lr}
 133 00bc 1EFF2FE1 		bx	lr
 134              	.L15:
 135              		.align	2
 136              	.L14:
 137 00c0 8988883C 		.word	1015580809
 138 00c4 00000000 		.word	sensors_tid
 139 00c8 00000000 		.word	navigation_tid
 140 00cc 00000000 		.word	attitude_tid
 141 00d0 00000000 		.word	modules_tid
 142 00d4 00000000 		.word	telemetry_tid
 143 00d8 00000000 		.word	monitor_tid
 144 00dc 00000000 		.word	power_switch
 146              		.global	__aeabi_i2d
 147              		.global	__aeabi_dmul
 148              		.global	__aeabi_ddiv
 149              		.global	__aeabi_d2iz
 150              		.global	__aeabi_i2f
 151              		.global	__aeabi_fadd
 152              		.global	__aeabi_f2d
 153              		.global	__aeabi_d2uiz
 154              		.global	__aeabi_idiv
 155              		.global	__aeabi_f2iz
 156              		.global	__aeabi_ui2f
 157              		.global	__aeabi_fdiv
 158              		.global	__aeabi_fmul
 159              		.section	.text.reporting_task,"ax",%progbits
 160              		.align	2
 161              		.global	reporting_task
 163              	reporting_task:
 164              		@ Function supports interworking.
 165              		@ args = 0, pretend = 0, frame = 16
 166              		@ frame_needed = 0, uses_anonymous_args = 0
 167 0000 FF412DE9 		stmfd	sp!, {r0, r1, r2, r3, r4, r5, r6, r7, r8, lr}
 168 0004 803F9FE5 		ldr	r3, .L267
 169 0008 0030D3E5 		ldrb	r3, [r3, #0]	@ zero_extendqisi2
 170 000c 000053E3 		cmp	r3, #0
 171 0010 4800000A 		beq	.L17
 172 0014 740F9FE5 		ldr	r0, .L267+4
 173 0018 0810A0E3 		mov	r1, #8
 174 001c FEFFFFEB 		bl	uart_check_free_space
 175 0020 000050E3 		cmp	r0, #0
 176 0024 3C00000A 		beq	.L18
 177 0028 C83F9FE5 		ldr	r3, .L267+108
 178 002c B020D3E1 		ldrh	r2, [r3, #0]
 179 0030 082082E2 		add	r2, r2, #8
 180 0034 B020C3E1 		strh	r2, [r3, #0]	@ movhi
 181 0038 D03F9FE5 		ldr	r3, .L267+132
 182 003c B020D3E1 		ldrh	r2, [r3, #0]
 183 0040 012082E2 		add	r2, r2, #1
 184 0044 B020C3E1 		strh	r2, [r3, #0]	@ movhi
 185 0048 400F9FE5 		ldr	r0, .L267+4
 186 004c 9910A0E3 		mov	r1, #153
 187 0050 DC5F9FE5 		ldr	r5, .L267+168
 188 0054 FEFFFFEB 		bl	uart_transmit
 189 0058 300F9FE5 		ldr	r0, .L267+4
 190 005c 0810A0E3 		mov	r1, #8
 191 0060 D04F9FE5 		ldr	r4, .L267+172
 192 0064 FEFFFFEB 		bl	uart_transmit
 193 0068 0930A0E3 		mov	r3, #9
 194 006c 0030C5E5 		strb	r3, [r5, #0]
 195 0070 1130A0E3 		mov	r3, #17
 196 0074 0030C4E5 		strb	r3, [r4, #0]
 197 0078 100F9FE5 		ldr	r0, .L267+4
 198 007c 0110A0E3 		mov	r1, #1
 199 0080 FEFFFFEB 		bl	uart_transmit
 200 0084 0030D5E5 		ldrb	r3, [r5, #0]	@ zero_extendqisi2
 201 0088 0020D4E5 		ldrb	r2, [r4, #0]	@ zero_extendqisi2
 202 008c 013083E2 		add	r3, r3, #1
 203 0090 FF3003E2 		and	r3, r3, #255
 204 0094 0030C5E5 		strb	r3, [r5, #0]
 205 0098 F46E9FE5 		ldr	r6, .L267+8
 206 009c 023083E0 		add	r3, r3, r2
 207 00a0 0030C4E5 		strb	r3, [r4, #0]
 208 00a4 E40E9FE5 		ldr	r0, .L267+4
 209 00a8 0110A0E3 		mov	r1, #1
 210 00ac FEFFFFEB 		bl	uart_transmit
 211 00b0 0010D6E5 		ldrb	r1, [r6, #0]	@ zero_extendqisi2
 212 00b4 0030D5E5 		ldrb	r3, [r5, #0]	@ zero_extendqisi2
 213 00b8 0020D4E5 		ldrb	r2, [r4, #0]	@ zero_extendqisi2
 214 00bc 033081E0 		add	r3, r1, r3
 215 00c0 FF3003E2 		and	r3, r3, #255
 216 00c4 0030C5E5 		strb	r3, [r5, #0]
 217 00c8 023083E0 		add	r3, r3, r2
 218 00cc 0030C4E5 		strb	r3, [r4, #0]
 219 00d0 B80E9FE5 		ldr	r0, .L267+4
 220 00d4 FEFFFFEB 		bl	uart_transmit
 221 00d8 0110D6E5 		ldrb	r1, [r6, #1]	@ zero_extendqisi2
 222 00dc 0030D5E5 		ldrb	r3, [r5, #0]	@ zero_extendqisi2
 223 00e0 0020D4E5 		ldrb	r2, [r4, #0]	@ zero_extendqisi2
 224 00e4 033081E0 		add	r3, r1, r3
 225 00e8 FF3003E2 		and	r3, r3, #255
 226 00ec 0030C5E5 		strb	r3, [r5, #0]
 227 00f0 023083E0 		add	r3, r3, r2
 228 00f4 0030C4E5 		strb	r3, [r4, #0]
 229 00f8 900E9FE5 		ldr	r0, .L267+4
 230 00fc FEFFFFEB 		bl	uart_transmit
 231 0100 0010D5E5 		ldrb	r1, [r5, #0]	@ zero_extendqisi2
 232 0104 840E9FE5 		ldr	r0, .L267+4
 233 0108 FEFFFFEB 		bl	uart_transmit
 234 010c 7C0E9FE5 		ldr	r0, .L267+4
 235 0110 0010D4E5 		ldrb	r1, [r4, #0]	@ zero_extendqisi2
 236 0114 FEFFFFEB 		bl	uart_transmit
 237 0118 030000EA 		b	.L19
 238              	.L18:
 239 011c 043F9FE5 		ldr	r3, .L267+156
 240 0120 0020D3E5 		ldrb	r2, [r3, #0]	@ zero_extendqisi2
 241 0124 012082E2 		add	r2, r2, #1
 242 0128 0020C3E5 		strb	r2, [r3, #0]
 243              	.L19:
 244 012c 0020A0E3 		mov	r2, #0
 245 0130 543E9FE5 		ldr	r3, .L267
 246 0134 832800EA 		b	.L260
 247              	.L17:
 248 0138 583E9FE5 		ldr	r3, .L267+12
 249 013c 0020D3E5 		ldrb	r2, [r3, #0]	@ zero_extendqisi2
 250 0140 000052E3 		cmp	r2, #0
 251 0144 9E0F001A 		bne	.L21
 252 0148 4C3E9FE5 		ldr	r3, .L267+16
 253 014c 0010D3E5 		ldrb	r1, [r3, #0]	@ zero_extendqisi2
 254 0150 011081E2 		add	r1, r1, #1
 255 0154 FF1001E2 		and	r1, r1, #255
 256 0158 0E0051E3 		cmp	r1, #14
 257 015c 0010C3E5 		strb	r1, [r3, #0]
 258 0160 0020C385 		strhib	r2, [r3, #0]
 259 0164 343E9FE5 		ldr	r3, .L267+20
 260 0168 0020D3E5 		ldrb	r2, [r3, #0]	@ zero_extendqisi2
 261 016c 012082E2 		add	r2, r2, #1
 262 0170 FF2002E2 		and	r2, r2, #255
 263 0174 1D0052E3 		cmp	r2, #29
 264 0178 0020C3E5 		strb	r2, [r3, #0]
 265 017c 0020A083 		movhi	r2, #0
 266 0180 0020C385 		strhib	r2, [r3, #0]
 267 0184 743E9FE5 		ldr	r3, .L267+116
 268 0188 0020D3E5 		ldrb	r2, [r3, #0]	@ zero_extendqisi2
 269 018c 012082E2 		add	r2, r2, #1
 270 0190 FF2002E2 		and	r2, r2, #255
 271 0194 3B0052E3 		cmp	r2, #59
 272 0198 0020C3E5 		strb	r2, [r3, #0]
 273 019c 0020A083 		movhi	r2, #0
 274 01a0 0020C385 		strhib	r2, [r3, #0]
 275 01a4 803E9FE5 		ldr	r3, .L267+160
 276 01a8 0020D3E5 		ldrb	r2, [r3, #0]	@ zero_extendqisi2
 277 01ac 012082E2 		add	r2, r2, #1
 278 01b0 FF2002E2 		and	r2, r2, #255
 279 01b4 3E0052E3 		cmp	r2, #62
 280 01b8 0020C3E5 		strb	r2, [r3, #0]
 281 01bc 0020A083 		movhi	r2, #0
 282 01c0 0020C385 		strhib	r2, [r3, #0]
 283 01c4 D83D9FE5 		ldr	r3, .L267+24
 284 01c8 0020D3E5 		ldrb	r2, [r3, #0]	@ zero_extendqisi2
 285 01cc 012082E2 		add	r2, r2, #1
 286 01d0 FF2002E2 		and	r2, r2, #255
 287 01d4 410052E3 		cmp	r2, #65
 288 01d8 0020C3E5 		strb	r2, [r3, #0]
 289 01dc 0020A083 		movhi	r2, #0
 290 01e0 0020C385 		strhib	r2, [r3, #0]
 291 01e4 BC3D9FE5 		ldr	r3, .L267+28
 292 01e8 0020D3E5 		ldrb	r2, [r3, #0]	@ zero_extendqisi2
 293 01ec 012082E2 		add	r2, r2, #1
 294 01f0 FF2002E2 		and	r2, r2, #255
 295 01f4 470052E3 		cmp	r2, #71
 296 01f8 0020C3E5 		strb	r2, [r3, #0]
 297 01fc 0020A083 		movhi	r2, #0
 298 0200 0020C385 		strhib	r2, [r3, #0]
 299 0204 A03D9FE5 		ldr	r3, .L267+32
 300 0208 0020D3E5 		ldrb	r2, [r3, #0]	@ zero_extendqisi2
 301 020c 012082E2 		add	r2, r2, #1
 302 0210 FF2002E2 		and	r2, r2, #255
 303 0214 590052E3 		cmp	r2, #89
 304 0218 0020C3E5 		strb	r2, [r3, #0]
 305 021c 0020A083 		movhi	r2, #0
 306 0220 0020C385 		strhib	r2, [r3, #0]
 307 0224 843D9FE5 		ldr	r3, .L267+36
 308 0228 0020D3E5 		ldrb	r2, [r3, #0]	@ zero_extendqisi2
 309 022c 012082E2 		add	r2, r2, #1
 310 0230 FF2002E2 		and	r2, r2, #255
 311 0234 770052E3 		cmp	r2, #119
 312 0238 0020C3E5 		strb	r2, [r3, #0]
 313 023c 0020A083 		movhi	r2, #0
 314 0240 0020C385 		strhib	r2, [r3, #0]
 315 0244 683D9FE5 		ldr	r3, .L267+40
 316 0248 0020D3E5 		ldrb	r2, [r3, #0]	@ zero_extendqisi2
 317 024c 012082E2 		add	r2, r2, #1
 318 0250 FF2002E2 		and	r2, r2, #255
 319 0254 7D0052E3 		cmp	r2, #125
 320 0258 0020C3E5 		strb	r2, [r3, #0]
 321 025c 0020A083 		movhi	r2, #0
 322 0260 0020C385 		strhib	r2, [r3, #0]
 323 0264 4C3D9FE5 		ldr	r3, .L267+44
 324 0268 0020D3E5 		ldrb	r2, [r3, #0]	@ zero_extendqisi2
 325 026c 012082E2 		add	r2, r2, #1
 326 0270 FF2002E2 		and	r2, r2, #255
 327 0274 950052E3 		cmp	r2, #149
 328 0278 0020C3E5 		strb	r2, [r3, #0]
 329 027c 0020A083 		movhi	r2, #0
 330 0280 0020C385 		strhib	r2, [r3, #0]
 331 0284 303D9FE5 		ldr	r3, .L267+48
 332 0288 B020D3E1 		ldrh	r2, [r3, #0]
 333 028c 012082E2 		add	r2, r2, #1
 334 0290 0228A0E1 		mov	r2, r2, asl #16
 335 0294 2228A0E1 		mov	r2, r2, lsr #16
 336 0298 4B0F52E3 		cmp	r2, #300
 337 029c B020C3E1 		strh	r2, [r3, #0]	@ movhi
 338 02a0 0020A023 		movcs	r2, #0
 339 02a4 B020C321 		strcsh	r2, [r3, #0]	@ movhi
 340 02a8 103D9FE5 		ldr	r3, .L267+52
 341 02ac B020D3E1 		ldrh	r2, [r3, #0]
 342 02b0 012082E2 		add	r2, r2, #1
 343 02b4 0228A0E1 		mov	r2, r2, asl #16
 344 02b8 041D9FE5 		ldr	r1, .L267+56
 345 02bc 2228A0E1 		mov	r2, r2, lsr #16
 346 02c0 010052E1 		cmp	r2, r1
 347 02c4 B020C3E1 		strh	r2, [r3, #0]	@ movhi
 348 02c8 0020A083 		movhi	r2, #0
 349 02cc B020C381 		strhih	r2, [r3, #0]	@ movhi
 350 02d0 F03C9FE5 		ldr	r3, .L267+60
 351 02d4 B020D3E1 		ldrh	r2, [r3, #0]
 352 02d8 012082E2 		add	r2, r2, #1
 353 02dc 0228A0E1 		mov	r2, r2, asl #16
 354 02e0 2228A0E1 		mov	r2, r2, lsr #16
 355 02e4 870F52E3 		cmp	r2, #540
 356 02e8 B020C3E1 		strh	r2, [r3, #0]	@ movhi
 357 02ec 0020A023 		movcs	r2, #0
 358 02f0 B020C321 		strcsh	r2, [r3, #0]	@ movhi
 359 02f4 A03C9FE5 		ldr	r3, .L267+16
 360 02f8 0030D3E5 		ldrb	r3, [r3, #0]	@ zero_extendqisi2
 361 02fc 000053E3 		cmp	r3, #0
 362 0300 FA01001A 		bne	.L35
 363 0304 C04C9FE5 		ldr	r4, .L267+64
 364 0308 403094E5 		ldr	r3, [r4, #64]
 365 030c 480094E5 		ldr	r0, [r4, #72]
 366 0310 003063E2 		rsb	r3, r3, #0
 367 0314 BC30CDE1 		strh	r3, [sp, #12]	@ movhi
 368 0318 FEFFFFEB 		bl	__aeabi_i2d
 369 031c AC2C9FE5 		ldr	r2, .L267+68
 370 0320 AC3C9FE5 		ldr	r3, .L267+72
 371 0324 FEFFFFEB 		bl	__aeabi_dmul
 372 0328 0020A0E3 		mov	r2, #0
 373 032c A43C9FE5 		ldr	r3, .L267+76
 374 0330 FEFFFFEB 		bl	__aeabi_ddiv
 375 0334 FEFFFFEB 		bl	__aeabi_d2iz
 376 0338 2110A0E3 		mov	r1, #33
 377 033c BE00CDE1 		strh	r0, [sp, #14]	@ movhi
 378 0340 480C9FE5 		ldr	r0, .L267+4
 379 0344 FEFFFFEB 		bl	uart_check_free_space
 380 0348 000050E3 		cmp	r0, #0
 381 034c 3601000A 		beq	.L36
 382 0350 A03C9FE5 		ldr	r3, .L267+108
 383 0354 B020D3E1 		ldrh	r2, [r3, #0]
 384 0358 212082E2 		add	r2, r2, #33
 385 035c B020C3E1 		strh	r2, [r3, #0]	@ movhi
 386 0360 A83C9FE5 		ldr	r3, .L267+132
 387 0364 B020D3E1 		ldrh	r2, [r3, #0]
 388 0368 012082E2 		add	r2, r2, #1
 389 036c B020C3E1 		strh	r2, [r3, #0]	@ movhi
 390 0370 180C9FE5 		ldr	r0, .L267+4
 391 0374 9910A0E3 		mov	r1, #153
 392 0378 B46C9FE5 		ldr	r6, .L267+168
 393 037c FEFFFFEB 		bl	uart_transmit
 394 0380 080C9FE5 		ldr	r0, .L267+4
 395 0384 2110A0E3 		mov	r1, #33
 396 0388 A85C9FE5 		ldr	r5, .L267+172
 397 038c FEFFFFEB 		bl	uart_transmit
 398 0390 2230A0E3 		mov	r3, #34
 399 0394 0030C6E5 		strb	r3, [r6, #0]
 400 0398 4330A0E3 		mov	r3, #67
 401 039c 0030C5E5 		strb	r3, [r5, #0]
 402 03a0 E80B9FE5 		ldr	r0, .L267+4
 403 03a4 0110A0E3 		mov	r1, #1
 404 03a8 FEFFFFEB 		bl	uart_transmit
 405 03ac 0030D6E5 		ldrb	r3, [r6, #0]	@ zero_extendqisi2
 406 03b0 0020D5E5 		ldrb	r2, [r5, #0]	@ zero_extendqisi2
 407 03b4 083083E2 		add	r3, r3, #8
 408 03b8 FF3003E2 		and	r3, r3, #255
 409 03bc 0030C6E5 		strb	r3, [r6, #0]
 410 03c0 023083E0 		add	r3, r3, r2
 411 03c4 0030C5E5 		strb	r3, [r5, #0]
 412 03c8 C00B9FE5 		ldr	r0, .L267+4
 413 03cc 0810A0E3 		mov	r1, #8
 414 03d0 FEFFFFEB 		bl	uart_transmit
 415 03d4 5B10D4E5 		ldrb	r1, [r4, #91]	@ zero_extendqisi2
 416 03d8 0030D6E5 		ldrb	r3, [r6, #0]	@ zero_extendqisi2
 417 03dc 0020D5E5 		ldrb	r2, [r5, #0]	@ zero_extendqisi2
 418 03e0 033081E0 		add	r3, r1, r3
 419 03e4 FF3003E2 		and	r3, r3, #255
 420 03e8 0030C6E5 		strb	r3, [r6, #0]
 421 03ec 023083E0 		add	r3, r3, r2
 422 03f0 0030C5E5 		strb	r3, [r5, #0]
 423 03f4 940B9FE5 		ldr	r0, .L267+4
 424 03f8 FEFFFFEB 		bl	uart_transmit
 425 03fc 1C10D4E5 		ldrb	r1, [r4, #28]	@ zero_extendqisi2
 426 0400 0030D6E5 		ldrb	r3, [r6, #0]	@ zero_extendqisi2
 427 0404 0020D5E5 		ldrb	r2, [r5, #0]	@ zero_extendqisi2
 428 0408 033081E0 		add	r3, r1, r3
 429 040c FF3003E2 		and	r3, r3, #255
 430 0410 0030C6E5 		strb	r3, [r6, #0]
 431 0414 023083E0 		add	r3, r3, r2
 432 0418 0030C5E5 		strb	r3, [r5, #0]
 433 041c 6C0B9FE5 		ldr	r0, .L267+4
 434 0420 FEFFFFEB 		bl	uart_transmit
 435 0424 1D10D4E5 		ldrb	r1, [r4, #29]	@ zero_extendqisi2
 436 0428 0030D6E5 		ldrb	r3, [r6, #0]	@ zero_extendqisi2
 437 042c 0020D5E5 		ldrb	r2, [r5, #0]	@ zero_extendqisi2
 438 0430 033081E0 		add	r3, r1, r3
 439 0434 FF3003E2 		and	r3, r3, #255
 440 0438 0030C6E5 		strb	r3, [r6, #0]
 441 043c 023083E0 		add	r3, r3, r2
 442 0440 0030C5E5 		strb	r3, [r5, #0]
 443 0444 440B9FE5 		ldr	r0, .L267+4
 444 0448 FEFFFFEB 		bl	uart_transmit
 445 044c 1E10D4E5 		ldrb	r1, [r4, #30]	@ zero_extendqisi2
 446 0450 0030D6E5 		ldrb	r3, [r6, #0]	@ zero_extendqisi2
 447 0454 0020D5E5 		ldrb	r2, [r5, #0]	@ zero_extendqisi2
 448 0458 033081E0 		add	r3, r1, r3
 449 045c FF3003E2 		and	r3, r3, #255
 450 0460 0030C6E5 		strb	r3, [r6, #0]
 451 0464 023083E0 		add	r3, r3, r2
 452 0468 0030C5E5 		strb	r3, [r5, #0]
 453 046c 1C0B9FE5 		ldr	r0, .L267+4
 454 0470 FEFFFFEB 		bl	uart_transmit
 455 0474 1F10D4E5 		ldrb	r1, [r4, #31]	@ zero_extendqisi2
 456 0478 0030D6E5 		ldrb	r3, [r6, #0]	@ zero_extendqisi2
 457 047c 0020D5E5 		ldrb	r2, [r5, #0]	@ zero_extendqisi2
 458 0480 033081E0 		add	r3, r1, r3
 459 0484 FF3003E2 		and	r3, r3, #255
 460 0488 0030C6E5 		strb	r3, [r6, #0]
 461 048c 023083E0 		add	r3, r3, r2
 462 0490 0030C5E5 		strb	r3, [r5, #0]
 463 0494 F40A9FE5 		ldr	r0, .L267+4
 464 0498 FEFFFFEB 		bl	uart_transmit
 465 049c 1810D4E5 		ldrb	r1, [r4, #24]	@ zero_extendqisi2
 466 04a0 0030D6E5 		ldrb	r3, [r6, #0]	@ zero_extendqisi2
 467 04a4 0020D5E5 		ldrb	r2, [r5, #0]	@ zero_extendqisi2
 468 04a8 033081E0 		add	r3, r1, r3
 469 04ac FF3003E2 		and	r3, r3, #255
 470 04b0 0030C6E5 		strb	r3, [r6, #0]
 471 04b4 023083E0 		add	r3, r3, r2
 472 04b8 0030C5E5 		strb	r3, [r5, #0]
 473 04bc CC0A9FE5 		ldr	r0, .L267+4
 474 04c0 FEFFFFEB 		bl	uart_transmit
 475 04c4 1910D4E5 		ldrb	r1, [r4, #25]	@ zero_extendqisi2
 476 04c8 0030D6E5 		ldrb	r3, [r6, #0]	@ zero_extendqisi2
 477 04cc 0020D5E5 		ldrb	r2, [r5, #0]	@ zero_extendqisi2
 478 04d0 033081E0 		add	r3, r1, r3
 479 04d4 FF3003E2 		and	r3, r3, #255
 480 04d8 0030C6E5 		strb	r3, [r6, #0]
 481 04dc 023083E0 		add	r3, r3, r2
 482 04e0 0030C5E5 		strb	r3, [r5, #0]
 483 04e4 A40A9FE5 		ldr	r0, .L267+4
 484 04e8 FEFFFFEB 		bl	uart_transmit
 485 04ec 1A10D4E5 		ldrb	r1, [r4, #26]	@ zero_extendqisi2
 486 04f0 0030D6E5 		ldrb	r3, [r6, #0]	@ zero_extendqisi2
 487 04f4 0020D5E5 		ldrb	r2, [r5, #0]	@ zero_extendqisi2
 488 04f8 033081E0 		add	r3, r1, r3
 489 04fc FF3003E2 		and	r3, r3, #255
 490 0500 0030C6E5 		strb	r3, [r6, #0]
 491 0504 023083E0 		add	r3, r3, r2
 492 0508 0030C5E5 		strb	r3, [r5, #0]
 493 050c 7C0A9FE5 		ldr	r0, .L267+4
 494 0510 FEFFFFEB 		bl	uart_transmit
 495 0514 1B10D4E5 		ldrb	r1, [r4, #27]	@ zero_extendqisi2
 496 0518 0030D6E5 		ldrb	r3, [r6, #0]	@ zero_extendqisi2
 497 051c 0020D5E5 		ldrb	r2, [r5, #0]	@ zero_extendqisi2
 498 0520 033081E0 		add	r3, r1, r3
 499 0524 FF3003E2 		and	r3, r3, #255
 500 0528 0030C6E5 		strb	r3, [r6, #0]
 501 052c 023083E0 		add	r3, r3, r2
 502 0530 0030C5E5 		strb	r3, [r5, #0]
 503 0534 540A9FE5 		ldr	r0, .L267+4
 504 0538 FEFFFFEB 		bl	uart_transmit
 505 053c 0E10DDE5 		ldrb	r1, [sp, #14]	@ zero_extendqisi2
 506 0540 0030D6E5 		ldrb	r3, [r6, #0]	@ zero_extendqisi2
 507 0544 0020D5E5 		ldrb	r2, [r5, #0]	@ zero_extendqisi2
 508 0548 033081E0 		add	r3, r1, r3
 509 054c FF3003E2 		and	r3, r3, #255
 510 0550 0030C6E5 		strb	r3, [r6, #0]
 511 0554 023083E0 		add	r3, r3, r2
 512 0558 0030C5E5 		strb	r3, [r5, #0]
 513 055c 2C0A9FE5 		ldr	r0, .L267+4
 514 0560 FEFFFFEB 		bl	uart_transmit
 515 0564 0F10DDE5 		ldrb	r1, [sp, #15]	@ zero_extendqisi2
 516 0568 0030D6E5 		ldrb	r3, [r6, #0]	@ zero_extendqisi2
 517 056c 0020D5E5 		ldrb	r2, [r5, #0]	@ zero_extendqisi2
 518 0570 033081E0 		add	r3, r1, r3
 519 0574 FF3003E2 		and	r3, r3, #255
 520 0578 0030C6E5 		strb	r3, [r6, #0]
 521 057c 023083E0 		add	r3, r3, r2
 522 0580 0030C5E5 		strb	r3, [r5, #0]
 523 0584 040A9FE5 		ldr	r0, .L267+4
 524 0588 FEFFFFEB 		bl	uart_transmit
 525 058c 2810D4E5 		ldrb	r1, [r4, #40]	@ zero_extendqisi2
 526 0590 0030D6E5 		ldrb	r3, [r6, #0]	@ zero_extendqisi2
 527 0594 0020D5E5 		ldrb	r2, [r5, #0]	@ zero_extendqisi2
 528 0598 033081E0 		add	r3, r1, r3
 529 059c FF3003E2 		and	r3, r3, #255
 530 05a0 0030C6E5 		strb	r3, [r6, #0]
 531 05a4 023083E0 		add	r3, r3, r2
 532 05a8 0030C5E5 		strb	r3, [r5, #0]
 533 05ac DC099FE5 		ldr	r0, .L267+4
 534 05b0 FEFFFFEB 		bl	uart_transmit
 535 05b4 2910D4E5 		ldrb	r1, [r4, #41]	@ zero_extendqisi2
 536 05b8 0030D6E5 		ldrb	r3, [r6, #0]	@ zero_extendqisi2
 537 05bc 0020D5E5 		ldrb	r2, [r5, #0]	@ zero_extendqisi2
 538 05c0 033081E0 		add	r3, r1, r3
 539 05c4 FF3003E2 		and	r3, r3, #255
 540 05c8 0030C6E5 		strb	r3, [r6, #0]
 541 05cc 023083E0 		add	r3, r3, r2
 542 05d0 0030C5E5 		strb	r3, [r5, #0]
 543 05d4 B4099FE5 		ldr	r0, .L267+4
 544 05d8 FEFFFFEB 		bl	uart_transmit
 545 05dc 2A10D4E5 		ldrb	r1, [r4, #42]	@ zero_extendqisi2
 546 05e0 0030D6E5 		ldrb	r3, [r6, #0]	@ zero_extendqisi2
 547 05e4 0020D5E5 		ldrb	r2, [r5, #0]	@ zero_extendqisi2
 548 05e8 033081E0 		add	r3, r1, r3
 549 05ec FF3003E2 		and	r3, r3, #255
 550 05f0 0030C6E5 		strb	r3, [r6, #0]
 551 05f4 023083E0 		add	r3, r3, r2
 552 05f8 0030C5E5 		strb	r3, [r5, #0]
 553 05fc 8C099FE5 		ldr	r0, .L267+4
 554 0600 FEFFFFEB 		bl	uart_transmit
 555 0604 2B10D4E5 		ldrb	r1, [r4, #43]	@ zero_extendqisi2
 556 0608 0030D6E5 		ldrb	r3, [r6, #0]	@ zero_extendqisi2
 557 060c 0020D5E5 		ldrb	r2, [r5, #0]	@ zero_extendqisi2
 558 0610 033081E0 		add	r3, r1, r3
 559 0614 FF3003E2 		and	r3, r3, #255
 560 0618 0030C6E5 		strb	r3, [r6, #0]
 561 061c 023083E0 		add	r3, r3, r2
 562 0620 0030C5E5 		strb	r3, [r5, #0]
 563 0624 64099FE5 		ldr	r0, .L267+4
 564 0628 FEFFFFEB 		bl	uart_transmit
 565 062c 4410D4E5 		ldrb	r1, [r4, #68]	@ zero_extendqisi2
 566 0630 0030D6E5 		ldrb	r3, [r6, #0]	@ zero_extendqisi2
 567 0634 0020D5E5 		ldrb	r2, [r5, #0]	@ zero_extendqisi2
 568 0638 033081E0 		add	r3, r1, r3
 569 063c FF3003E2 		and	r3, r3, #255
 570 0640 0030C6E5 		strb	r3, [r6, #0]
 571 0644 023083E0 		add	r3, r3, r2
 572 0648 0030C5E5 		strb	r3, [r5, #0]
 573 064c 3C099FE5 		ldr	r0, .L267+4
 574 0650 FEFFFFEB 		bl	uart_transmit
 575 0654 4510D4E5 		ldrb	r1, [r4, #69]	@ zero_extendqisi2
 576 0658 0030D6E5 		ldrb	r3, [r6, #0]	@ zero_extendqisi2
 577 065c 0020D5E5 		ldrb	r2, [r5, #0]	@ zero_extendqisi2
 578 0660 033081E0 		add	r3, r1, r3
 579 0664 FF3003E2 		and	r3, r3, #255
 580 0668 0030C6E5 		strb	r3, [r6, #0]
 581 066c 023083E0 		add	r3, r3, r2
 582 0670 0030C5E5 		strb	r3, [r5, #0]
 583 0674 14099FE5 		ldr	r0, .L267+4
 584 0678 FEFFFFEB 		bl	uart_transmit
 585 067c 0C10DDE5 		ldrb	r1, [sp, #12]	@ zero_extendqisi2
 586 0680 0030D6E5 		ldrb	r3, [r6, #0]	@ zero_extendqisi2
 587 0684 0020D5E5 		ldrb	r2, [r5, #0]	@ zero_extendqisi2
 588 0688 033081E0 		add	r3, r1, r3
 589 068c FF3003E2 		and	r3, r3, #255
 590 0690 0030C6E5 		strb	r3, [r6, #0]
 591 0694 023083E0 		add	r3, r3, r2
 592 0698 0030C5E5 		strb	r3, [r5, #0]
 593 069c EC089FE5 		ldr	r0, .L267+4
 594 06a0 FEFFFFEB 		bl	uart_transmit
 595 06a4 0D10DDE5 		ldrb	r1, [sp, #13]	@ zero_extendqisi2
 596 06a8 0030D6E5 		ldrb	r3, [r6, #0]	@ zero_extendqisi2
 597 06ac 0020D5E5 		ldrb	r2, [r5, #0]	@ zero_extendqisi2
 598 06b0 033081E0 		add	r3, r1, r3
 599 06b4 FF3003E2 		and	r3, r3, #255
 600 06b8 0030C6E5 		strb	r3, [r6, #0]
 601 06bc 023083E0 		add	r3, r3, r2
 602 06c0 0030C5E5 		strb	r3, [r5, #0]
 603 06c4 C4089FE5 		ldr	r0, .L267+4
 604 06c8 FEFFFFEB 		bl	uart_transmit
 605 06cc 5C10D4E5 		ldrb	r1, [r4, #92]	@ zero_extendqisi2
 606 06d0 0030D6E5 		ldrb	r3, [r6, #0]	@ zero_extendqisi2
 607 06d4 0020D5E5 		ldrb	r2, [r5, #0]	@ zero_extendqisi2
 608 06d8 033081E0 		add	r3, r1, r3
 609 06dc FF3003E2 		and	r3, r3, #255
 610 06e0 0030C6E5 		strb	r3, [r6, #0]
 611 06e4 023083E0 		add	r3, r3, r2
 612 06e8 0030C5E5 		strb	r3, [r5, #0]
 613 06ec 9C089FE5 		ldr	r0, .L267+4
 614 06f0 FEFFFFEB 		bl	uart_transmit
 615 06f4 5D10D4E5 		ldrb	r1, [r4, #93]	@ zero_extendqisi2
 616 06f8 0030D6E5 		ldrb	r3, [r6, #0]	@ zero_extendqisi2
 617 06fc 0020D5E5 		ldrb	r2, [r5, #0]	@ zero_extendqisi2
 618 0700 033081E0 		add	r3, r1, r3
 619 0704 FF3003E2 		and	r3, r3, #255
 620 0708 0030C6E5 		strb	r3, [r6, #0]
 621 070c 023083E0 		add	r3, r3, r2
 622 0710 0030C5E5 		strb	r3, [r5, #0]
 623 0714 74089FE5 		ldr	r0, .L267+4
 624 0718 FEFFFFEB 		bl	uart_transmit
 625 071c 6010D4E5 		ldrb	r1, [r4, #96]	@ zero_extendqisi2
 626 0720 0030D6E5 		ldrb	r3, [r6, #0]	@ zero_extendqisi2
 627 0724 0020D5E5 		ldrb	r2, [r5, #0]	@ zero_extendqisi2
 628 0728 033081E0 		add	r3, r1, r3
 629 072c FF3003E2 		and	r3, r3, #255
 630 0730 0030C6E5 		strb	r3, [r6, #0]
 631 0734 023083E0 		add	r3, r3, r2
 632 0738 0030C5E5 		strb	r3, [r5, #0]
 633 073c 4C089FE5 		ldr	r0, .L267+4
 634 0740 FEFFFFEB 		bl	uart_transmit
 635 0744 6110D4E5 		ldrb	r1, [r4, #97]	@ zero_extendqisi2
 636 0748 0030D6E5 		ldrb	r3, [r6, #0]	@ zero_extendqisi2
 637 074c 0020D5E5 		ldrb	r2, [r5, #0]	@ zero_extendqisi2
 638 0750 033081E0 		add	r3, r1, r3
 639 0754 FF3003E2 		and	r3, r3, #255
 640 0758 0030C6E5 		strb	r3, [r6, #0]
 641 075c 023083E0 		add	r3, r3, r2
 642 0760 0030C5E5 		strb	r3, [r5, #0]
 643 0764 24089FE5 		ldr	r0, .L267+4
 644 0768 FEFFFFEB 		bl	uart_transmit
 645 076c 6210D4E5 		ldrb	r1, [r4, #98]	@ zero_extendqisi2
 646 0770 0030D6E5 		ldrb	r3, [r6, #0]	@ zero_extendqisi2
 647 0774 0020D5E5 		ldrb	r2, [r5, #0]	@ zero_extendqisi2
 648 0778 033081E0 		add	r3, r1, r3
 649 077c FF3003E2 		and	r3, r3, #255
 650 0780 0030C6E5 		strb	r3, [r6, #0]
 651 0784 023083E0 		add	r3, r3, r2
 652 0788 0030C5E5 		strb	r3, [r5, #0]
 653 078c FC079FE5 		ldr	r0, .L267+4
 654 0790 FEFFFFEB 		bl	uart_transmit
 655 0794 6310D4E5 		ldrb	r1, [r4, #99]	@ zero_extendqisi2
 656 0798 0030D6E5 		ldrb	r3, [r6, #0]	@ zero_extendqisi2
 657 079c 0020D5E5 		ldrb	r2, [r5, #0]	@ zero_extendqisi2
 658 07a0 033081E0 		add	r3, r1, r3
 659 07a4 FF3003E2 		and	r3, r3, #255
 660 07a8 0030C6E5 		strb	r3, [r6, #0]
 661 07ac 023083E0 		add	r3, r3, r2
 662 07b0 0030C5E5 		strb	r3, [r5, #0]
 663 07b4 D4079FE5 		ldr	r0, .L267+4
 664 07b8 FEFFFFEB 		bl	uart_transmit
 665 07bc 2410D4E5 		ldrb	r1, [r4, #36]	@ zero_extendqisi2
 666 07c0 0030D6E5 		ldrb	r3, [r6, #0]	@ zero_extendqisi2
 667 07c4 0020D5E5 		ldrb	r2, [r5, #0]	@ zero_extendqisi2
 668 07c8 033081E0 		add	r3, r1, r3
 669 07cc FF3003E2 		and	r3, r3, #255
 670 07d0 0030C6E5 		strb	r3, [r6, #0]
 671 07d4 023083E0 		add	r3, r3, r2
 672 07d8 0030C5E5 		strb	r3, [r5, #0]
 673 07dc AC079FE5 		ldr	r0, .L267+4
 674 07e0 FEFFFFEB 		bl	uart_transmit
 675 07e4 F0379FE5 		ldr	r3, .L267+80
 676 07e8 0010D3E5 		ldrb	r1, [r3, #0]	@ zero_extendqisi2
 677 07ec 0030D6E5 		ldrb	r3, [r6, #0]	@ zero_extendqisi2
 678 07f0 0020D5E5 		ldrb	r2, [r5, #0]	@ zero_extendqisi2
 679 07f4 033081E0 		add	r3, r1, r3
 680 07f8 FF3003E2 		and	r3, r3, #255
 681 07fc 0030C6E5 		strb	r3, [r6, #0]
 682 0800 023083E0 		add	r3, r3, r2
 683 0804 0030C5E5 		strb	r3, [r5, #0]
 684 0808 80079FE5 		ldr	r0, .L267+4
 685 080c FEFFFFEB 		bl	uart_transmit
 686 0810 0010D6E5 		ldrb	r1, [r6, #0]	@ zero_extendqisi2
 687 0814 74079FE5 		ldr	r0, .L267+4
 688 0818 FEFFFFEB 		bl	uart_transmit
 689 081c 6C079FE5 		ldr	r0, .L267+4
 690 0820 0010D5E5 		ldrb	r1, [r5, #0]	@ zero_extendqisi2
 691 0824 FEFFFFEB 		bl	uart_transmit
 692 0828 030000EA 		b	.L37
 693              	.L36:
 694 082c F4379FE5 		ldr	r3, .L267+156
 695 0830 0020D3E5 		ldrb	r2, [r3, #0]	@ zero_extendqisi2
 696 0834 012082E2 		add	r2, r2, #1
 697 0838 0020C3E5 		strb	r2, [r3, #0]
 698              	.L37:
 699 083c 88279FE5 		ldr	r2, .L267+64
 700 0840 5B30D2E5 		ldrb	r3, [r2, #91]	@ zero_extendqisi2
 701 0844 030053E3 		cmp	r3, #3
 702 0848 8C379FE5 		ldr	r3, .L267+80
 703 084c 0400000A 		beq	.L38
 704 0850 6410D2E5 		ldrb	r1, [r2, #100]	@ zero_extendqisi2
 705 0854 0000D3E5 		ldrb	r0, [r3, #0]	@ zero_extendqisi2
 706 0858 010050E1 		cmp	r0, r1
 707 085c 0010A023 		movcs	r1, #0
 708 0860 0010C325 		strcsb	r1, [r3, #0]
 709              	.L38:
 710 0864 0030D3E5 		ldrb	r3, [r3, #0]	@ zero_extendqisi2
 711 0868 6420D2E5 		ldrb	r2, [r2, #100]	@ zero_extendqisi2
 712 086c 820053E1 		cmp	r3, r2, asl #1
 713 0870 64379FA5 		ldrge	r3, .L267+80
 714 0874 0010A0A3 		movge	r1, #0
 715 0878 0010C3A5 		strgeb	r1, [r3, #0]
 716 087c 58679FE5 		ldr	r6, .L267+80
 717 0880 0030D6E5 		ldrb	r3, [r6, #0]	@ zero_extendqisi2
 718 0884 020053E1 		cmp	r3, r2
 719 0888 9400002A 		bcs	.L40
 720 088c 38779FE5 		ldr	r7, .L267+64
 721 0890 833187E0 		add	r3, r7, r3, asl #3
 722 0894 6930D3E5 		ldrb	r3, [r3, #105]	@ zero_extendqisi2
 723 0898 000053E3 		cmp	r3, #0
 724 089c 8F00000A 		beq	.L40
 725 08a0 E8069FE5 		ldr	r0, .L267+4
 726 08a4 0E10A0E3 		mov	r1, #14
 727 08a8 FEFFFFEB 		bl	uart_check_free_space
 728 08ac 000050E3 		cmp	r0, #0
 729 08b0 8600000A 		beq	.L41
 730 08b4 3C379FE5 		ldr	r3, .L267+108
 731 08b8 B020D3E1 		ldrh	r2, [r3, #0]
 732 08bc 0E2082E2 		add	r2, r2, #14
 733 08c0 B020C3E1 		strh	r2, [r3, #0]	@ movhi
 734 08c4 44379FE5 		ldr	r3, .L267+132
 735 08c8 B020D3E1 		ldrh	r2, [r3, #0]
 736 08cc 012082E2 		add	r2, r2, #1
 737 08d0 B020C3E1 		strh	r2, [r3, #0]	@ movhi
 738 08d4 B4069FE5 		ldr	r0, .L267+4
 739 08d8 9910A0E3 		mov	r1, #153
 740 08dc 50579FE5 		ldr	r5, .L267+168
 741 08e0 FEFFFFEB 		bl	uart_transmit
 742 08e4 A4069FE5 		ldr	r0, .L267+4
 743 08e8 0E10A0E3 		mov	r1, #14
 744 08ec 44479FE5 		ldr	r4, .L267+172
 745 08f0 FEFFFFEB 		bl	uart_transmit
 746 08f4 0F30A0E3 		mov	r3, #15
 747 08f8 0030C5E5 		strb	r3, [r5, #0]
 748 08fc 1D30A0E3 		mov	r3, #29
 749 0900 0030C4E5 		strb	r3, [r4, #0]
 750 0904 84069FE5 		ldr	r0, .L267+4
 751 0908 0110A0E3 		mov	r1, #1
 752 090c FEFFFFEB 		bl	uart_transmit
 753 0910 0030D5E5 		ldrb	r3, [r5, #0]	@ zero_extendqisi2
 754 0914 0020D4E5 		ldrb	r2, [r4, #0]	@ zero_extendqisi2
 755 0918 193083E2 		add	r3, r3, #25
 756 091c FF3003E2 		and	r3, r3, #255
 757 0920 0030C5E5 		strb	r3, [r5, #0]
 758 0924 023083E0 		add	r3, r3, r2
 759 0928 0030C4E5 		strb	r3, [r4, #0]
 760 092c 5C069FE5 		ldr	r0, .L267+4
 761 0930 1910A0E3 		mov	r1, #25
 762 0934 FEFFFFEB 		bl	uart_transmit
 763 0938 0010D6E5 		ldrb	r1, [r6, #0]	@ zero_extendqisi2
 764 093c 0030D5E5 		ldrb	r3, [r5, #0]	@ zero_extendqisi2
 765 0940 0020D4E5 		ldrb	r2, [r4, #0]	@ zero_extendqisi2
 766 0944 033081E0 		add	r3, r1, r3
 767 0948 FF3003E2 		and	r3, r3, #255
 768 094c 0030C5E5 		strb	r3, [r5, #0]
 769 0950 023083E0 		add	r3, r3, r2
 770 0954 0030C4E5 		strb	r3, [r4, #0]
 771 0958 30069FE5 		ldr	r0, .L267+4
 772 095c FEFFFFEB 		bl	uart_transmit
 773 0960 0030D6E5 		ldrb	r3, [r6, #0]	@ zero_extendqisi2
 774 0964 833187E0 		add	r3, r7, r3, asl #3
 775 0968 6610D3E5 		ldrb	r1, [r3, #102]	@ zero_extendqisi2
 776 096c 0030D5E5 		ldrb	r3, [r5, #0]	@ zero_extendqisi2
 777 0970 0020D4E5 		ldrb	r2, [r4, #0]	@ zero_extendqisi2
 778 0974 033081E0 		add	r3, r1, r3
 779 0978 FF3003E2 		and	r3, r3, #255
 780 097c 0030C5E5 		strb	r3, [r5, #0]
 781 0980 023083E0 		add	r3, r3, r2
 782 0984 0030C4E5 		strb	r3, [r4, #0]
 783 0988 00069FE5 		ldr	r0, .L267+4
 784 098c FEFFFFEB 		bl	uart_transmit
 785 0990 0030D6E5 		ldrb	r3, [r6, #0]	@ zero_extendqisi2
 786 0994 833187E0 		add	r3, r7, r3, asl #3
 787 0998 6710D3E5 		ldrb	r1, [r3, #103]	@ zero_extendqisi2
 788 099c 0030D5E5 		ldrb	r3, [r5, #0]	@ zero_extendqisi2
 789 09a0 0020D4E5 		ldrb	r2, [r4, #0]	@ zero_extendqisi2
 790 09a4 033081E0 		add	r3, r1, r3
 791 09a8 FF3003E2 		and	r3, r3, #255
 792 09ac 0030C5E5 		strb	r3, [r5, #0]
 793 09b0 023083E0 		add	r3, r3, r2
 794 09b4 0030C4E5 		strb	r3, [r4, #0]
 795 09b8 D0059FE5 		ldr	r0, .L267+4
 796 09bc FEFFFFEB 		bl	uart_transmit
 797 09c0 0030D6E5 		ldrb	r3, [r6, #0]	@ zero_extendqisi2
 798 09c4 833187E0 		add	r3, r7, r3, asl #3
 799 09c8 6810D3E5 		ldrb	r1, [r3, #104]	@ zero_extendqisi2
 800 09cc 0030D5E5 		ldrb	r3, [r5, #0]	@ zero_extendqisi2
 801 09d0 0020D4E5 		ldrb	r2, [r4, #0]	@ zero_extendqisi2
 802 09d4 033081E0 		add	r3, r1, r3
 803 09d8 FF3003E2 		and	r3, r3, #255
 804 09dc 0030C5E5 		strb	r3, [r5, #0]
 805 09e0 023083E0 		add	r3, r3, r2
 806 09e4 0030C4E5 		strb	r3, [r4, #0]
 807 09e8 A0059FE5 		ldr	r0, .L267+4
 808 09ec FEFFFFEB 		bl	uart_transmit
 809 09f0 0030D6E5 		ldrb	r3, [r6, #0]	@ zero_extendqisi2
 810 09f4 833187E0 		add	r3, r7, r3, asl #3
 811 09f8 6910D3E5 		ldrb	r1, [r3, #105]	@ zero_extendqisi2
 812 09fc 0030D5E5 		ldrb	r3, [r5, #0]	@ zero_extendqisi2
 813 0a00 0020D4E5 		ldrb	r2, [r4, #0]	@ zero_extendqisi2
 814 0a04 033081E0 		add	r3, r1, r3
 815 0a08 FF3003E2 		and	r3, r3, #255
 816 0a0c 0030C5E5 		strb	r3, [r5, #0]
 817 0a10 023083E0 		add	r3, r3, r2
 818 0a14 0030C4E5 		strb	r3, [r4, #0]
 819 0a18 70059FE5 		ldr	r0, .L267+4
 820 0a1c FEFFFFEB 		bl	uart_transmit
 821 0a20 0030D6E5 		ldrb	r3, [r6, #0]	@ zero_extendqisi2
 822 0a24 833187E0 		add	r3, r7, r3, asl #3
 823 0a28 6A10D3E5 		ldrb	r1, [r3, #106]	@ zero_extendqisi2
 824 0a2c 0030D5E5 		ldrb	r3, [r5, #0]	@ zero_extendqisi2
 825 0a30 0020D4E5 		ldrb	r2, [r4, #0]	@ zero_extendqisi2
 826 0a34 033081E0 		add	r3, r1, r3
 827 0a38 FF3003E2 		and	r3, r3, #255
 828 0a3c 0030C5E5 		strb	r3, [r5, #0]
 829 0a40 023083E0 		add	r3, r3, r2
 830 0a44 0030C4E5 		strb	r3, [r4, #0]
 831 0a48 40059FE5 		ldr	r0, .L267+4
 832 0a4c FEFFFFEB 		bl	uart_transmit
 833 0a50 0030D6E5 		ldrb	r3, [r6, #0]	@ zero_extendqisi2
 834 0a54 0C7087E2 		add	r7, r7, #12
 835 0a58 0C3083E2 		add	r3, r3, #12
 836 0a5c 8311D7E7 		ldrb	r1, [r7, r3, asl #3]	@ zero_extendqisi2
 837 0a60 0030D5E5 		ldrb	r3, [r5, #0]	@ zero_extendqisi2
 838 0a64 0020D4E5 		ldrb	r2, [r4, #0]	@ zero_extendqisi2
 839 0a68 033081E0 		add	r3, r1, r3
 840 0a6c FF3003E2 		and	r3, r3, #255
 841 0a70 0030C5E5 		strb	r3, [r5, #0]
 842 0a74 023083E0 		add	r3, r3, r2
 843 0a78 0030C4E5 		strb	r3, [r4, #0]
 844 0a7c 0C059FE5 		ldr	r0, .L267+4
 845 0a80 FEFFFFEB 		bl	uart_transmit
 846 0a84 0030D6E5 		ldrb	r3, [r6, #0]	@ zero_extendqisi2
 847 0a88 837187E0 		add	r7, r7, r3, asl #3
 848 0a8c 6110D7E5 		ldrb	r1, [r7, #97]	@ zero_extendqisi2
 849 0a90 0030D5E5 		ldrb	r3, [r5, #0]	@ zero_extendqisi2
 850 0a94 0020D4E5 		ldrb	r2, [r4, #0]	@ zero_extendqisi2
 851 0a98 033081E0 		add	r3, r1, r3
 852 0a9c FF3003E2 		and	r3, r3, #255
 853 0aa0 0030C5E5 		strb	r3, [r5, #0]
 854 0aa4 023083E0 		add	r3, r3, r2
 855 0aa8 0030C4E5 		strb	r3, [r4, #0]
 856 0aac DC049FE5 		ldr	r0, .L267+4
 857 0ab0 FEFFFFEB 		bl	uart_transmit
 858 0ab4 0010D5E5 		ldrb	r1, [r5, #0]	@ zero_extendqisi2
 859 0ab8 D0049FE5 		ldr	r0, .L267+4
 860 0abc FEFFFFEB 		bl	uart_transmit
 861 0ac0 C8049FE5 		ldr	r0, .L267+4
 862 0ac4 0010D4E5 		ldrb	r1, [r4, #0]	@ zero_extendqisi2
 863 0ac8 FEFFFFEB 		bl	uart_transmit
 864 0acc 030000EA 		b	.L40
 865              	.L41:
 866 0ad0 50359FE5 		ldr	r3, .L267+156
 867 0ad4 0020D3E5 		ldrb	r2, [r3, #0]	@ zero_extendqisi2
 868 0ad8 012082E2 		add	r2, r2, #1
 869 0adc 0020C3E5 		strb	r2, [r3, #0]
 870              	.L40:
 871 0ae0 F4349FE5 		ldr	r3, .L267+80
 872 0ae4 0020D3E5 		ldrb	r2, [r3, #0]	@ zero_extendqisi2
 873 0ae8 012082E2 		add	r2, r2, #1
 874 0aec 0020C3E5 		strb	r2, [r3, #0]
 875              	.L35:
 876 0af0 A8349FE5 		ldr	r3, .L267+20
 877 0af4 0030D3E5 		ldrb	r3, [r3, #0]	@ zero_extendqisi2
 878 0af8 060053E3 		cmp	r3, #6
 879 0afc 9B00001A 		bne	.L42
 880 0b00 D8049FE5 		ldr	r0, .L267+84
 881 0b04 A431D0E5 		ldrb	r3, [r0, #420]	@ zero_extendqisi2
 882 0b08 100013E3 		tst	r3, #16
 883 0b0c 690F8002 		addeq	r0, r0, #420
 884 0b10 FEFFFF0B 		bleq	orientationCalcEulers_f
 885              	.L43:
 886 0b14 74049FE5 		ldr	r0, .L267+4
 887 0b18 1210A0E3 		mov	r1, #18
 888 0b1c FEFFFFEB 		bl	uart_check_free_space
 889 0b20 000050E3 		cmp	r0, #0
 890 0b24 2502000A 		beq	.L49
 891 0b28 C8349FE5 		ldr	r3, .L267+108
 892 0b2c B020D3E1 		ldrh	r2, [r3, #0]
 893 0b30 122082E2 		add	r2, r2, #18
 894 0b34 B020C3E1 		strh	r2, [r3, #0]	@ movhi
 895 0b38 D0349FE5 		ldr	r3, .L267+132
 896 0b3c B020D3E1 		ldrh	r2, [r3, #0]
 897 0b40 012082E2 		add	r2, r2, #1
 898 0b44 B020C3E1 		strh	r2, [r3, #0]	@ movhi
 899 0b48 40049FE5 		ldr	r0, .L267+4
 900 0b4c 9910A0E3 		mov	r1, #153
 901 0b50 DC549FE5 		ldr	r5, .L267+168
 902 0b54 FEFFFFEB 		bl	uart_transmit
 903 0b58 30049FE5 		ldr	r0, .L267+4
 904 0b5c 1210A0E3 		mov	r1, #18
 905 0b60 D0449FE5 		ldr	r4, .L267+172
 906 0b64 FEFFFFEB 		bl	uart_transmit
 907 0b68 1330A0E3 		mov	r3, #19
 908 0b6c 0030C5E5 		strb	r3, [r5, #0]
 909 0b70 2530A0E3 		mov	r3, #37
 910 0b74 0030C4E5 		strb	r3, [r4, #0]
 911 0b78 10049FE5 		ldr	r0, .L267+4
 912 0b7c 0110A0E3 		mov	r1, #1
 913 0b80 FEFFFFEB 		bl	uart_transmit
 914 0b84 0030D5E5 		ldrb	r3, [r5, #0]	@ zero_extendqisi2
 915 0b88 0020D4E5 		ldrb	r2, [r4, #0]	@ zero_extendqisi2
 916 0b8c 063083E2 		add	r3, r3, #6
 917 0b90 FF3003E2 		and	r3, r3, #255
 918 0b94 44649FE5 		ldr	r6, .L267+84
 919 0b98 0030C5E5 		strb	r3, [r5, #0]
 920 0b9c 023083E0 		add	r3, r3, r2
 921 0ba0 0030C4E5 		strb	r3, [r4, #0]
 922 0ba4 E4039FE5 		ldr	r0, .L267+4
 923 0ba8 0610A0E3 		mov	r1, #6
 924 0bac FEFFFFEB 		bl	uart_transmit
 925 0bb0 F811D6E5 		ldrb	r1, [r6, #504]	@ zero_extendqisi2
 926 0bb4 0030D5E5 		ldrb	r3, [r5, #0]	@ zero_extendqisi2
 927 0bb8 0020D4E5 		ldrb	r2, [r4, #0]	@ zero_extendqisi2
 928 0bbc 033081E0 		add	r3, r1, r3
 929 0bc0 FF3003E2 		and	r3, r3, #255
 930 0bc4 0030C5E5 		strb	r3, [r5, #0]
 931 0bc8 023083E0 		add	r3, r3, r2
 932 0bcc 0030C4E5 		strb	r3, [r4, #0]
 933 0bd0 B8039FE5 		ldr	r0, .L267+4
 934 0bd4 FEFFFFEB 		bl	uart_transmit
 935 0bd8 F911D6E5 		ldrb	r1, [r6, #505]	@ zero_extendqisi2
 936 0bdc 0030D5E5 		ldrb	r3, [r5, #0]	@ zero_extendqisi2
 937 0be0 0020D4E5 		ldrb	r2, [r4, #0]	@ zero_extendqisi2
 938 0be4 033081E0 		add	r3, r1, r3
 939 0be8 FF3003E2 		and	r3, r3, #255
 940 0bec 0030C5E5 		strb	r3, [r5, #0]
 941 0bf0 023083E0 		add	r3, r3, r2
 942 0bf4 0030C4E5 		strb	r3, [r4, #0]
 943 0bf8 90039FE5 		ldr	r0, .L267+4
 944 0bfc FEFFFFEB 		bl	uart_transmit
 945 0c00 FA11D6E5 		ldrb	r1, [r6, #506]	@ zero_extendqisi2
 946 0c04 0030D5E5 		ldrb	r3, [r5, #0]	@ zero_extendqisi2
 947 0c08 0020D4E5 		ldrb	r2, [r4, #0]	@ zero_extendqisi2
 948 0c0c 033081E0 		add	r3, r1, r3
 949 0c10 FF3003E2 		and	r3, r3, #255
 950 0c14 0030C5E5 		strb	r3, [r5, #0]
 951 0c18 023083E0 		add	r3, r3, r2
 952 0c1c 0030C4E5 		strb	r3, [r4, #0]
 953 0c20 68039FE5 		ldr	r0, .L267+4
 954 0c24 FEFFFFEB 		bl	uart_transmit
 955 0c28 FB11D6E5 		ldrb	r1, [r6, #507]	@ zero_extendqisi2
 956 0c2c 0030D5E5 		ldrb	r3, [r5, #0]	@ zero_extendqisi2
 957 0c30 0020D4E5 		ldrb	r2, [r4, #0]	@ zero_extendqisi2
 958 0c34 033081E0 		add	r3, r1, r3
 959 0c38 FF3003E2 		and	r3, r3, #255
 960 0c3c 0030C5E5 		strb	r3, [r5, #0]
 961 0c40 023083E0 		add	r3, r3, r2
 962 0c44 0030C4E5 		strb	r3, [r4, #0]
 963 0c48 40039FE5 		ldr	r0, .L267+4
 964 0c4c FEFFFFEB 		bl	uart_transmit
 965 0c50 0012D6E5 		ldrb	r1, [r6, #512]	@ zero_extendqisi2
 966 0c54 0030D5E5 		ldrb	r3, [r5, #0]	@ zero_extendqisi2
 967 0c58 0020D4E5 		ldrb	r2, [r4, #0]	@ zero_extendqisi2
 968 0c5c 033081E0 		add	r3, r1, r3
 969 0c60 FF3003E2 		and	r3, r3, #255
 970 0c64 0030C5E5 		strb	r3, [r5, #0]
 971 0c68 023083E0 		add	r3, r3, r2
 972 0c6c 0030C4E5 		strb	r3, [r4, #0]
 973 0c70 18039FE5 		ldr	r0, .L267+4
 974 0c74 FEFFFFEB 		bl	uart_transmit
 975 0c78 0112D6E5 		ldrb	r1, [r6, #513]	@ zero_extendqisi2
 976 0c7c 0030D5E5 		ldrb	r3, [r5, #0]	@ zero_extendqisi2
 977 0c80 0020D4E5 		ldrb	r2, [r4, #0]	@ zero_extendqisi2
 978 0c84 033081E0 		add	r3, r1, r3
 979 0c88 FF3003E2 		and	r3, r3, #255
 980 0c8c 0030C5E5 		strb	r3, [r5, #0]
 981 0c90 023083E0 		add	r3, r3, r2
 982 0c94 0030C4E5 		strb	r3, [r4, #0]
 983 0c98 F0029FE5 		ldr	r0, .L267+4
 984 0c9c FEFFFFEB 		bl	uart_transmit
 985 0ca0 0212D6E5 		ldrb	r1, [r6, #514]	@ zero_extendqisi2
 986 0ca4 0030D5E5 		ldrb	r3, [r5, #0]	@ zero_extendqisi2
 987 0ca8 0020D4E5 		ldrb	r2, [r4, #0]	@ zero_extendqisi2
 988 0cac 033081E0 		add	r3, r1, r3
 989 0cb0 FF3003E2 		and	r3, r3, #255
 990 0cb4 0030C5E5 		strb	r3, [r5, #0]
 991 0cb8 023083E0 		add	r3, r3, r2
 992 0cbc 0030C4E5 		strb	r3, [r4, #0]
 993 0cc0 C8029FE5 		ldr	r0, .L267+4
 994 0cc4 FEFFFFEB 		bl	uart_transmit
 995 0cc8 0312D6E5 		ldrb	r1, [r6, #515]	@ zero_extendqisi2
 996 0ccc 0030D5E5 		ldrb	r3, [r5, #0]	@ zero_extendqisi2
 997 0cd0 0020D4E5 		ldrb	r2, [r4, #0]	@ zero_extendqisi2
 998 0cd4 033081E0 		add	r3, r1, r3
 999 0cd8 FF3003E2 		and	r3, r3, #255
 1000 0cdc 0030C5E5 		strb	r3, [r5, #0]
 1001 0ce0 023083E0 		add	r3, r3, r2
 1002 0ce4 0030C4E5 		strb	r3, [r4, #0]
 1003 0ce8 A0029FE5 		ldr	r0, .L267+4
 1004 0cec FEFFFFEB 		bl	uart_transmit
 1005 0cf0 FC11D6E5 		ldrb	r1, [r6, #508]	@ zero_extendqisi2
 1006 0cf4 0030D5E5 		ldrb	r3, [r5, #0]	@ zero_extendqisi2
 1007 0cf8 0020D4E5 		ldrb	r2, [r4, #0]	@ zero_extendqisi2
 1008 0cfc 033081E0 		add	r3, r1, r3
 1009 0d00 FF3003E2 		and	r3, r3, #255
 1010 0d04 0030C5E5 		strb	r3, [r5, #0]
 1011 0d08 023083E0 		add	r3, r3, r2
 1012 0d0c 0030C4E5 		strb	r3, [r4, #0]
 1013 0d10 78029FE5 		ldr	r0, .L267+4
 1014 0d14 FEFFFFEB 		bl	uart_transmit
 1015 0d18 FD11D6E5 		ldrb	r1, [r6, #509]	@ zero_extendqisi2
 1016 0d1c 0030D5E5 		ldrb	r3, [r5, #0]	@ zero_extendqisi2
 1017 0d20 0020D4E5 		ldrb	r2, [r4, #0]	@ zero_extendqisi2
 1018 0d24 033081E0 		add	r3, r1, r3
 1019 0d28 FF3003E2 		and	r3, r3, #255
 1020 0d2c 0030C5E5 		strb	r3, [r5, #0]
 1021 0d30 023083E0 		add	r3, r3, r2
 1022 0d34 0030C4E5 		strb	r3, [r4, #0]
 1023 0d38 50029FE5 		ldr	r0, .L267+4
 1024 0d3c FEFFFFEB 		bl	uart_transmit
 1025 0d40 FE11D6E5 		ldrb	r1, [r6, #510]	@ zero_extendqisi2
 1026 0d44 0030D5E5 		ldrb	r3, [r5, #0]	@ zero_extendqisi2
 1027 0d48 0020D4E5 		ldrb	r2, [r4, #0]	@ zero_extendqisi2
 1028 0d4c 033081E0 		add	r3, r1, r3
 1029 0d50 FF3003E2 		and	r3, r3, #255
 1030 0d54 0030C5E5 		strb	r3, [r5, #0]
 1031 0d58 023083E0 		add	r3, r3, r2
 1032 0d5c 0030C4E5 		strb	r3, [r4, #0]
 1033 0d60 28029FE5 		ldr	r0, .L267+4
 1034 0d64 FEFFFFEB 		bl	uart_transmit
 1035 0d68 FF11D6E5 		ldrb	r1, [r6, #511]	@ zero_extendqisi2
 1036 0d6c 760000EA 		b	.L244
 1037              	.L42:
 1038 0d70 0C0053E3 		cmp	r3, #12
 1039 0d74 C000001A 		bne	.L46
 1040 0d78 10029FE5 		ldr	r0, .L267+4
 1041 0d7c 0E10A0E3 		mov	r1, #14
 1042 0d80 FEFFFFEB 		bl	uart_check_free_space
 1043 0d84 000050E3 		cmp	r0, #0
 1044 0d88 8C01000A 		beq	.L49
 1045 0d8c 64329FE5 		ldr	r3, .L267+108
 1046 0d90 B020D3E1 		ldrh	r2, [r3, #0]
 1047 0d94 0E2082E2 		add	r2, r2, #14
 1048 0d98 B020C3E1 		strh	r2, [r3, #0]	@ movhi
 1049 0d9c 6C329FE5 		ldr	r3, .L267+132
 1050 0da0 B020D3E1 		ldrh	r2, [r3, #0]
 1051 0da4 012082E2 		add	r2, r2, #1
 1052 0da8 B020C3E1 		strh	r2, [r3, #0]	@ movhi
 1053 0dac DC019FE5 		ldr	r0, .L267+4
 1054 0db0 9910A0E3 		mov	r1, #153
 1055 0db4 78529FE5 		ldr	r5, .L267+168
 1056 0db8 FEFFFFEB 		bl	uart_transmit
 1057 0dbc CC019FE5 		ldr	r0, .L267+4
 1058 0dc0 0E10A0E3 		mov	r1, #14
 1059 0dc4 6C429FE5 		ldr	r4, .L267+172
 1060 0dc8 FEFFFFEB 		bl	uart_transmit
 1061 0dcc 0F30A0E3 		mov	r3, #15
 1062 0dd0 0030C5E5 		strb	r3, [r5, #0]
 1063 0dd4 1D30A0E3 		mov	r3, #29
 1064 0dd8 0030C4E5 		strb	r3, [r4, #0]
 1065 0ddc AC019FE5 		ldr	r0, .L267+4
 1066 0de0 0110A0E3 		mov	r1, #1
 1067 0de4 FEFFFFEB 		bl	uart_transmit
 1068 0de8 0030D5E5 		ldrb	r3, [r5, #0]	@ zero_extendqisi2
 1069 0dec 0020D4E5 		ldrb	r2, [r4, #0]	@ zero_extendqisi2
 1070 0df0 2A3083E2 		add	r3, r3, #42
 1071 0df4 FF3003E2 		and	r3, r3, #255
 1072 0df8 0030C5E5 		strb	r3, [r5, #0]
 1073 0dfc 023083E0 		add	r3, r3, r2
 1074 0e00 0030C4E5 		strb	r3, [r4, #0]
 1075 0e04 2A10A0E3 		mov	r1, #42
 1076 0e08 80019FE5 		ldr	r0, .L267+4
 1077 0e0c FEFFFFEB 		bl	uart_transmit
 1078 0e10 FEFFFFEB 		bl	stateGetPositionUtm_f
 1079 0e14 0030D5E5 		ldrb	r3, [r5, #0]	@ zero_extendqisi2
 1080 0e18 0810D0E5 		ldrb	r1, [r0, #8]	@ zero_extendqisi2
 1081 0e1c 0020D4E5 		ldrb	r2, [r4, #0]	@ zero_extendqisi2
 1082 0e20 033081E0 		add	r3, r1, r3
 1083 0e24 FF3003E2 		and	r3, r3, #255
 1084 0e28 0030C5E5 		strb	r3, [r5, #0]
 1085 0e2c 023083E0 		add	r3, r3, r2
 1086 0e30 0030C4E5 		strb	r3, [r4, #0]
 1087 0e34 54019FE5 		ldr	r0, .L267+4
 1088 0e38 FEFFFFEB 		bl	uart_transmit
 1089 0e3c FEFFFFEB 		bl	stateGetPositionUtm_f
 1090 0e40 0030D5E5 		ldrb	r3, [r5, #0]	@ zero_extendqisi2
 1091 0e44 0910D0E5 		ldrb	r1, [r0, #9]	@ zero_extendqisi2
 1092 0e48 0020D4E5 		ldrb	r2, [r4, #0]	@ zero_extendqisi2
 1093 0e4c 033081E0 		add	r3, r1, r3
 1094 0e50 FF3003E2 		and	r3, r3, #255
 1095 0e54 0030C5E5 		strb	r3, [r5, #0]
 1096 0e58 023083E0 		add	r3, r3, r2
 1097 0e5c 0030C4E5 		strb	r3, [r4, #0]
 1098 0e60 28019FE5 		ldr	r0, .L267+4
 1099 0e64 FEFFFFEB 		bl	uart_transmit
 1100 0e68 FEFFFFEB 		bl	stateGetPositionUtm_f
 1101 0e6c 0030D5E5 		ldrb	r3, [r5, #0]	@ zero_extendqisi2
 1102 0e70 0A10D0E5 		ldrb	r1, [r0, #10]	@ zero_extendqisi2
 1103 0e74 0020D4E5 		ldrb	r2, [r4, #0]	@ zero_extendqisi2
 1104 0e78 033081E0 		add	r3, r1, r3
 1105 0e7c FF3003E2 		and	r3, r3, #255
 1106 0e80 0030C5E5 		strb	r3, [r5, #0]
 1107 0e84 023083E0 		add	r3, r3, r2
 1108 0e88 0030C4E5 		strb	r3, [r4, #0]
 1109 0e8c FC009FE5 		ldr	r0, .L267+4
 1110 0e90 FEFFFFEB 		bl	uart_transmit
 1111 0e94 FEFFFFEB 		bl	stateGetPositionUtm_f
 1112 0e98 0030D5E5 		ldrb	r3, [r5, #0]	@ zero_extendqisi2
 1113 0e9c 0B10D0E5 		ldrb	r1, [r0, #11]	@ zero_extendqisi2
 1114 0ea0 0020D4E5 		ldrb	r2, [r4, #0]	@ zero_extendqisi2
 1115 0ea4 033081E0 		add	r3, r1, r3
 1116 0ea8 FF3003E2 		and	r3, r3, #255
 1117 0eac 0030C5E5 		strb	r3, [r5, #0]
 1118 0eb0 023083E0 		add	r3, r3, r2
 1119 0eb4 0030C4E5 		strb	r3, [r4, #0]
 1120 0eb8 D0009FE5 		ldr	r0, .L267+4
 1121 0ebc FEFFFFEB 		bl	uart_transmit
 1122 0ec0 FEFFFFEB 		bl	stateGetSpeedEnu_f
 1123 0ec4 0030D5E5 		ldrb	r3, [r5, #0]	@ zero_extendqisi2
 1124 0ec8 0810D0E5 		ldrb	r1, [r0, #8]	@ zero_extendqisi2
 1125 0ecc 0020D4E5 		ldrb	r2, [r4, #0]	@ zero_extendqisi2
 1126 0ed0 033081E0 		add	r3, r1, r3
 1127 0ed4 FF3003E2 		and	r3, r3, #255
 1128 0ed8 0030C5E5 		strb	r3, [r5, #0]
 1129 0edc 023083E0 		add	r3, r3, r2
 1130 0ee0 0030C4E5 		strb	r3, [r4, #0]
 1131 0ee4 A4009FE5 		ldr	r0, .L267+4
 1132 0ee8 FEFFFFEB 		bl	uart_transmit
 1133 0eec FEFFFFEB 		bl	stateGetSpeedEnu_f
 1134 0ef0 0030D5E5 		ldrb	r3, [r5, #0]	@ zero_extendqisi2
 1135 0ef4 0910D0E5 		ldrb	r1, [r0, #9]	@ zero_extendqisi2
 1136 0ef8 0020D4E5 		ldrb	r2, [r4, #0]	@ zero_extendqisi2
 1137 0efc 033081E0 		add	r3, r1, r3
 1138 0f00 FF3003E2 		and	r3, r3, #255
 1139 0f04 0030C5E5 		strb	r3, [r5, #0]
 1140 0f08 023083E0 		add	r3, r3, r2
 1141 0f0c 0030C4E5 		strb	r3, [r4, #0]
 1142 0f10 78009FE5 		ldr	r0, .L267+4
 1143 0f14 FEFFFFEB 		bl	uart_transmit
 1144 0f18 FEFFFFEB 		bl	stateGetSpeedEnu_f
 1145 0f1c 0030D5E5 		ldrb	r3, [r5, #0]	@ zero_extendqisi2
 1146 0f20 0A10D0E5 		ldrb	r1, [r0, #10]	@ zero_extendqisi2
 1147 0f24 0020D4E5 		ldrb	r2, [r4, #0]	@ zero_extendqisi2
 1148 0f28 033081E0 		add	r3, r1, r3
 1149 0f2c FF3003E2 		and	r3, r3, #255
 1150 0f30 0030C5E5 		strb	r3, [r5, #0]
 1151 0f34 023083E0 		add	r3, r3, r2
 1152 0f38 0030C4E5 		strb	r3, [r4, #0]
 1153 0f3c 4C009FE5 		ldr	r0, .L267+4
 1154 0f40 FEFFFFEB 		bl	uart_transmit
 1155 0f44 FEFFFFEB 		bl	stateGetSpeedEnu_f
 1156 0f48 0B10D0E5 		ldrb	r1, [r0, #11]	@ zero_extendqisi2
 1157              	.L244:
 1158 0f4c 0030D5E5 		ldrb	r3, [r5, #0]	@ zero_extendqisi2
 1159 0f50 0020D4E5 		ldrb	r2, [r4, #0]	@ zero_extendqisi2
 1160 0f54 033081E0 		add	r3, r1, r3
 1161 0f58 FF3003E2 		and	r3, r3, #255
 1162 0f5c 0030C5E5 		strb	r3, [r5, #0]
 1163 0f60 023083E0 		add	r3, r3, r2
 1164 0f64 0030C4E5 		strb	r3, [r4, #0]
 1165 0f68 20009FE5 		ldr	r0, .L267+4
 1166 0f6c FEFFFFEB 		bl	uart_transmit
 1167 0f70 0010D5E5 		ldrb	r1, [r5, #0]	@ zero_extendqisi2
 1168 0f74 14009FE5 		ldr	r0, .L267+4
 1169 0f78 FEFFFFEB 		bl	uart_transmit
 1170 0f7c 0C009FE5 		ldr	r0, .L267+4
 1171 0f80 0010D4E5 		ldrb	r1, [r4, #0]	@ zero_extendqisi2
 1172 0f84 FEFFFFEB 		bl	uart_transmit
 1173 0f88 100100EA 		b	.L45
 1174              	.L268:
 1175              		.align	2
 1176              	.L267:
 1177 0f8c 00000000 		.word	.LANCHOR0
 1178 0f90 00000000 		.word	uart1
 1179 0f94 00000000 		.word	.LANCHOR1
 1180 0f98 00000000 		.word	telemetry_mode_Ap
 1181 0f9c 00000000 		.word	.LANCHOR2
 1182 0fa0 00000000 		.word	.LANCHOR3
 1183 0fa4 00000000 		.word	.LANCHOR6
 1184 0fa8 00000000 		.word	.LANCHOR7
 1185 0fac 00000000 		.word	.LANCHOR8
 1186 0fb0 00000000 		.word	.LANCHOR9
 1187 0fb4 00000000 		.word	.LANCHOR10
 1188 0fb8 00000000 		.word	.LANCHOR11
 1189 0fbc 00000000 		.word	.LANCHOR12
 1190 0fc0 00000000 		.word	.LANCHOR13
 1191 0fc4 31010000 		.word	305
 1192 0fc8 00000000 		.word	.LANCHOR14
 1193 0fcc 00000000 		.word	gps
 1194 0fd0 F8C1631A 		.word	442745336
 1195 0fd4 DCA54C40 		.word	1078765020
 1196 0fd8 80842E41 		.word	1093567616
 1197 0fdc 00000000 		.word	.LANCHOR15
 1198 0fe0 00000000 		.word	state
 1199 0fe4 00000000 		.word	nb_waypoint
 1200 0fe8 00000000 		.word	nav_utm_east0
 1201 0fec 00000000 		.word	waypoints
 1202 0ff0 00000000 		.word	nav_utm_north0
 1203 0ff4 00000000 		.word	.LANCHOR16
 1204 0ff8 00000000 		.word	downlink_nb_bytes
 1205 0ffc 00000000 		.word	nav_utm_zone0
 1206 1000 00000000 		.word	.LANCHOR4
 1207 1004 00000000 		.word	nav_circle_radians
 1208 1008 182D4454 		.word	1413754136
 1209 100c FB211940 		.word	1075388923
 1210 1010 00000000 		.word	downlink_nb_msgs
 1211 1014 00000000 		.word	nav_block
 1212 1018 00000000 		.word	nav_stage
 1213 101c 00000000 		.word	dist2_to_wp
 1214 1020 00000000 		.word	dist2_to_home
 1215 1024 00000000 		.word	nav_oval_count
 1216 1028 00000000 		.word	downlink_nb_ovrn
 1217 102c 00000000 		.word	.LANCHOR5
 1218 1030 00000000 		.word	nav_in_circle
 1219 1034 00000000 		.word	ck_a
 1220 1038 00000000 		.word	ck_b
 1221 103c 00000000 		.word	nav_circle_x
 1222 1040 00000000 		.word	nav_circle_y
 1223 1044 00000000 		.word	nav_circle_radius
 1224 1048 00009041 		.word	1099956224
 1225 104c 00000000 		.word	downlink_nb_bytes
 1226 1050 00000000 		.word	downlink_nb_msgs
 1227 1054 00000000 		.word	ck_a
 1228 1058 00000000 		.word	ck_b
 1229 105c 00000000 		.word	h_ctl_roll_setpoint
 1230 1060 00000000 		.word	h_ctl_pitch_loop_setpoint
 1231 1064 00000000 		.word	h_ctl_course_setpoint
 1232 1068 00000000 		.word	desired_x
 1233 106c 00000000 		.word	desired_y
 1234 1070 00000000 		.word	v_ctl_altitude_setpoint
 1235 1074 00000000 		.word	v_ctl_climb_setpoint
 1236 1078 00000000 		.word	uart1
 1237              	.L46:
 1238 107c 120053E3 		cmp	r3, #18
 1239 1080 D200001A 		bne	.L45
 1240 1084 98301FE5 		ldr	r3, .L267+104
 1241 1088 AC101FE5 		ldr	r1, .L267+88
 1242 108c 0020D3E5 		ldrb	r2, [r3, #0]	@ zero_extendqisi2
 1243 1090 0010D1E5 		ldrb	r1, [r1, #0]	@ zero_extendqisi2
 1244 1094 012082E2 		add	r2, r2, #1
 1245 1098 FF2002E2 		and	r2, r2, #255
 1246 109c 020051E1 		cmp	r1, r2
 1247 10a0 0020C3E5 		strb	r2, [r3, #0]
 1248 10a4 0020A093 		movls	r2, #0
 1249 10a8 0020C395 		strlsb	r2, [r3, #0]
 1250 10ac 0040D3E5 		ldrb	r4, [r3, #0]	@ zero_extendqisi2
 1251 10b0 D0301FE5 		ldr	r3, .L267+92
 1252 10b4 0C70A0E3 		mov	r7, #12
 1253 10b8 000093E5 		ldr	r0, [r3, #0]
 1254 10bc FEFFFFEB 		bl	__aeabi_i2f
 1255 10c0 970403E0 		mul	r3, r7, r4
 1256 10c4 E0601FE5 		ldr	r6, .L267+96
 1257 10c8 031096E7 		ldr	r1, [r6, r3]	@ float
 1258 10cc 034086E0 		add	r4, r6, r3
 1259 10d0 FEFFFFEB 		bl	__aeabi_fadd
 1260 10d4 EC301FE5 		ldr	r3, .L267+100
 1261 10d8 00008DE5 		str	r0, [sp, #0]	@ float
 1262 10dc 000093E5 		ldr	r0, [r3, #0]
 1263 10e0 FEFFFFEB 		bl	__aeabi_i2f
 1264 10e4 041094E5 		ldr	r1, [r4, #4]	@ float
 1265 10e8 FEFFFFEB 		bl	__aeabi_fadd
 1266 10ec 1410A0E3 		mov	r1, #20
 1267 10f0 04008DE5 		str	r0, [sp, #4]	@ float
 1268 10f4 84001FE5 		ldr	r0, .L267+236
 1269 10f8 FEFFFFEB 		bl	uart_check_free_space
 1270 10fc 000050E3 		cmp	r0, #0
 1271 1100 14811FE5 		ldr	r8, .L267+104
 1272 1104 AD00000A 		beq	.L49
 1273 1108 18311FE5 		ldr	r3, .L267+108
 1274 110c B020D3E1 		ldrh	r2, [r3, #0]
 1275 1110 142082E2 		add	r2, r2, #20
 1276 1114 B020C3E1 		strh	r2, [r3, #0]	@ movhi
 1277 1118 10311FE5 		ldr	r3, .L267+132
 1278 111c B020D3E1 		ldrh	r2, [r3, #0]
 1279 1120 012082E2 		add	r2, r2, #1
 1280 1124 B020C3E1 		strh	r2, [r3, #0]	@ movhi
 1281 1128 B8001FE5 		ldr	r0, .L267+236
 1282 112c 9910A0E3 		mov	r1, #153
 1283 1130 04511FE5 		ldr	r5, .L267+168
 1284 1134 FEFFFFEB 		bl	uart_transmit
 1285 1138 C8001FE5 		ldr	r0, .L267+236
 1286 113c 1410A0E3 		mov	r1, #20
 1287 1140 10411FE5 		ldr	r4, .L267+172
 1288 1144 FEFFFFEB 		bl	uart_transmit
 1289 1148 1530A0E3 		mov	r3, #21
 1290 114c 0030C5E5 		strb	r3, [r5, #0]
 1291 1150 2930A0E3 		mov	r3, #41
 1292 1154 0030C4E5 		strb	r3, [r4, #0]
 1293 1158 E8001FE5 		ldr	r0, .L267+236
 1294 115c 0110A0E3 		mov	r1, #1
 1295 1160 FEFFFFEB 		bl	uart_transmit
 1296 1164 0030D5E5 		ldrb	r3, [r5, #0]	@ zero_extendqisi2
 1297 1168 0020D4E5 		ldrb	r2, [r4, #0]	@ zero_extendqisi2
 1298 116c 233083E2 		add	r3, r3, #35
 1299 1170 FF3003E2 		and	r3, r3, #255
 1300 1174 0030C5E5 		strb	r3, [r5, #0]
 1301 1178 023083E0 		add	r3, r3, r2
 1302 117c 0030C4E5 		strb	r3, [r4, #0]
 1303 1180 10011FE5 		ldr	r0, .L267+236
 1304 1184 2310A0E3 		mov	r1, #35
 1305 1188 FEFFFFEB 		bl	uart_transmit
 1306 118c 0010D8E5 		ldrb	r1, [r8, #0]	@ zero_extendqisi2
 1307 1190 0030D5E5 		ldrb	r3, [r5, #0]	@ zero_extendqisi2
 1308 1194 0020D4E5 		ldrb	r2, [r4, #0]	@ zero_extendqisi2
 1309 1198 033081E0 		add	r3, r1, r3
 1310 119c FF3003E2 		and	r3, r3, #255
 1311 11a0 0030C5E5 		strb	r3, [r5, #0]
 1312 11a4 023083E0 		add	r3, r3, r2
 1313 11a8 0030C4E5 		strb	r3, [r4, #0]
 1314 11ac 3C011FE5 		ldr	r0, .L267+236
 1315 11b0 FEFFFFEB 		bl	uart_transmit
 1316 11b4 0010DDE5 		ldrb	r1, [sp, #0]	@ zero_extendqisi2
 1317 11b8 0030D5E5 		ldrb	r3, [r5, #0]	@ zero_extendqisi2
 1318 11bc 0020D4E5 		ldrb	r2, [r4, #0]	@ zero_extendqisi2
 1319 11c0 033081E0 		add	r3, r1, r3
 1320 11c4 FF3003E2 		and	r3, r3, #255
 1321 11c8 0030C5E5 		strb	r3, [r5, #0]
 1322 11cc 023083E0 		add	r3, r3, r2
 1323 11d0 0030C4E5 		strb	r3, [r4, #0]
 1324 11d4 64011FE5 		ldr	r0, .L267+236
 1325 11d8 FEFFFFEB 		bl	uart_transmit
 1326 11dc 0110DDE5 		ldrb	r1, [sp, #1]	@ zero_extendqisi2
 1327 11e0 0030D5E5 		ldrb	r3, [r5, #0]	@ zero_extendqisi2
 1328 11e4 0020D4E5 		ldrb	r2, [r4, #0]	@ zero_extendqisi2
 1329 11e8 033081E0 		add	r3, r1, r3
 1330 11ec FF3003E2 		and	r3, r3, #255
 1331 11f0 0030C5E5 		strb	r3, [r5, #0]
 1332 11f4 023083E0 		add	r3, r3, r2
 1333 11f8 0030C4E5 		strb	r3, [r4, #0]
 1334 11fc 8C011FE5 		ldr	r0, .L267+236
 1335 1200 FEFFFFEB 		bl	uart_transmit
 1336 1204 0210DDE5 		ldrb	r1, [sp, #2]	@ zero_extendqisi2
 1337 1208 0030D5E5 		ldrb	r3, [r5, #0]	@ zero_extendqisi2
 1338 120c 0020D4E5 		ldrb	r2, [r4, #0]	@ zero_extendqisi2
 1339 1210 033081E0 		add	r3, r1, r3
 1340 1214 FF3003E2 		and	r3, r3, #255
 1341 1218 0030C5E5 		strb	r3, [r5, #0]
 1342 121c 023083E0 		add	r3, r3, r2
 1343 1220 0030C4E5 		strb	r3, [r4, #0]
 1344 1224 B4011FE5 		ldr	r0, .L267+236
 1345 1228 FEFFFFEB 		bl	uart_transmit
 1346 122c 0310DDE5 		ldrb	r1, [sp, #3]	@ zero_extendqisi2
 1347 1230 0030D5E5 		ldrb	r3, [r5, #0]	@ zero_extendqisi2
 1348 1234 0020D4E5 		ldrb	r2, [r4, #0]	@ zero_extendqisi2
 1349 1238 033081E0 		add	r3, r1, r3
 1350 123c FF3003E2 		and	r3, r3, #255
 1351 1240 0030C5E5 		strb	r3, [r5, #0]
 1352 1244 023083E0 		add	r3, r3, r2
 1353 1248 0030C4E5 		strb	r3, [r4, #0]
 1354 124c DC011FE5 		ldr	r0, .L267+236
 1355 1250 FEFFFFEB 		bl	uart_transmit
 1356 1254 0410DDE5 		ldrb	r1, [sp, #4]	@ zero_extendqisi2
 1357 1258 0030D5E5 		ldrb	r3, [r5, #0]	@ zero_extendqisi2
 1358 125c 0020D4E5 		ldrb	r2, [r4, #0]	@ zero_extendqisi2
 1359 1260 033081E0 		add	r3, r1, r3
 1360 1264 FF3003E2 		and	r3, r3, #255
 1361 1268 0030C5E5 		strb	r3, [r5, #0]
 1362 126c 023083E0 		add	r3, r3, r2
 1363 1270 0030C4E5 		strb	r3, [r4, #0]
 1364 1274 04021FE5 		ldr	r0, .L267+236
 1365 1278 FEFFFFEB 		bl	uart_transmit
 1366 127c 0510DDE5 		ldrb	r1, [sp, #5]	@ zero_extendqisi2
 1367 1280 0030D5E5 		ldrb	r3, [r5, #0]	@ zero_extendqisi2
 1368 1284 0020D4E5 		ldrb	r2, [r4, #0]	@ zero_extendqisi2
 1369 1288 033081E0 		add	r3, r1, r3
 1370 128c FF3003E2 		and	r3, r3, #255
 1371 1290 0030C5E5 		strb	r3, [r5, #0]
 1372 1294 023083E0 		add	r3, r3, r2
 1373 1298 0030C4E5 		strb	r3, [r4, #0]
 1374 129c 2C021FE5 		ldr	r0, .L267+236
 1375 12a0 FEFFFFEB 		bl	uart_transmit
 1376 12a4 0610DDE5 		ldrb	r1, [sp, #6]	@ zero_extendqisi2
 1377 12a8 0030D5E5 		ldrb	r3, [r5, #0]	@ zero_extendqisi2
 1378 12ac 0020D4E5 		ldrb	r2, [r4, #0]	@ zero_extendqisi2
 1379 12b0 033081E0 		add	r3, r1, r3
 1380 12b4 FF3003E2 		and	r3, r3, #255
 1381 12b8 0030C5E5 		strb	r3, [r5, #0]
 1382 12bc 023083E0 		add	r3, r3, r2
 1383 12c0 0030C4E5 		strb	r3, [r4, #0]
 1384 12c4 54021FE5 		ldr	r0, .L267+236
 1385 12c8 FEFFFFEB 		bl	uart_transmit
 1386 12cc 0710DDE5 		ldrb	r1, [sp, #7]	@ zero_extendqisi2
 1387 12d0 0030D5E5 		ldrb	r3, [r5, #0]	@ zero_extendqisi2
 1388 12d4 0020D4E5 		ldrb	r2, [r4, #0]	@ zero_extendqisi2
 1389 12d8 033081E0 		add	r3, r1, r3
 1390 12dc FF3003E2 		and	r3, r3, #255
 1391 12e0 0030C5E5 		strb	r3, [r5, #0]
 1392 12e4 023083E0 		add	r3, r3, r2
 1393 12e8 0030C4E5 		strb	r3, [r4, #0]
 1394 12ec 7C021FE5 		ldr	r0, .L267+236
 1395 12f0 FEFFFFEB 		bl	uart_transmit
 1396 12f4 0030D8E5 		ldrb	r3, [r8, #0]	@ zero_extendqisi2
 1397 12f8 976323E0 		mla	r3, r7, r3, r6
 1398 12fc 0810D3E5 		ldrb	r1, [r3, #8]	@ zero_extendqisi2
 1399 1300 0030D5E5 		ldrb	r3, [r5, #0]	@ zero_extendqisi2
 1400 1304 0020D4E5 		ldrb	r2, [r4, #0]	@ zero_extendqisi2
 1401 1308 033081E0 		add	r3, r1, r3
 1402 130c FF3003E2 		and	r3, r3, #255
 1403 1310 0030C5E5 		strb	r3, [r5, #0]
 1404 1314 023083E0 		add	r3, r3, r2
 1405 1318 0030C4E5 		strb	r3, [r4, #0]
 1406 131c AC021FE5 		ldr	r0, .L267+236
 1407 1320 FEFFFFEB 		bl	uart_transmit
 1408 1324 0030D8E5 		ldrb	r3, [r8, #0]	@ zero_extendqisi2
 1409 1328 976323E0 		mla	r3, r7, r3, r6
 1410 132c 0910D3E5 		ldrb	r1, [r3, #9]	@ zero_extendqisi2
 1411 1330 0030D5E5 		ldrb	r3, [r5, #0]	@ zero_extendqisi2
 1412 1334 0020D4E5 		ldrb	r2, [r4, #0]	@ zero_extendqisi2
 1413 1338 033081E0 		add	r3, r1, r3
 1414 133c FF3003E2 		and	r3, r3, #255
 1415 1340 0030C5E5 		strb	r3, [r5, #0]
 1416 1344 023083E0 		add	r3, r3, r2
 1417 1348 0030C4E5 		strb	r3, [r4, #0]
 1418 134c DC021FE5 		ldr	r0, .L267+236
 1419 1350 FEFFFFEB 		bl	uart_transmit
 1420 1354 0030D8E5 		ldrb	r3, [r8, #0]	@ zero_extendqisi2
 1421 1358 976323E0 		mla	r3, r7, r3, r6
 1422 135c 0A10D3E5 		ldrb	r1, [r3, #10]	@ zero_extendqisi2
 1423 1360 0030D5E5 		ldrb	r3, [r5, #0]	@ zero_extendqisi2
 1424 1364 0020D4E5 		ldrb	r2, [r4, #0]	@ zero_extendqisi2
 1425 1368 033081E0 		add	r3, r1, r3
 1426 136c FF3003E2 		and	r3, r3, #255
 1427 1370 0030C5E5 		strb	r3, [r5, #0]
 1428 1374 023083E0 		add	r3, r3, r2
 1429 1378 0030C4E5 		strb	r3, [r4, #0]
 1430 137c 0C031FE5 		ldr	r0, .L267+236
 1431 1380 FEFFFFEB 		bl	uart_transmit
 1432 1384 0030D8E5 		ldrb	r3, [r8, #0]	@ zero_extendqisi2
 1433 1388 976326E0 		mla	r6, r7, r3, r6
 1434 138c 0030D5E5 		ldrb	r3, [r5, #0]	@ zero_extendqisi2
 1435 1390 0B10D6E5 		ldrb	r1, [r6, #11]	@ zero_extendqisi2
 1436 1394 0020D4E5 		ldrb	r2, [r4, #0]	@ zero_extendqisi2
 1437 1398 033081E0 		add	r3, r1, r3
 1438 139c FF3003E2 		and	r3, r3, #255
 1439 13a0 0030C5E5 		strb	r3, [r5, #0]
 1440 13a4 023083E0 		add	r3, r3, r2
 1441 13a8 0030C4E5 		strb	r3, [r4, #0]
 1442 13ac 3C031FE5 		ldr	r0, .L267+236
 1443 13b0 FEFFFFEB 		bl	uart_transmit
 1444 13b4 C0331FE5 		ldr	r3, .L267+112
 1445 13b8 0010D3E5 		ldrb	r1, [r3, #0]	@ zero_extendqisi2
 1446 13bc E2FEFFEA 		b	.L244
 1447              	.L49:
 1448 13c0 A0331FE5 		ldr	r3, .L267+156
 1449 13c4 0020D3E5 		ldrb	r2, [r3, #0]	@ zero_extendqisi2
 1450 13c8 012082E2 		add	r2, r2, #1
 1451 13cc 0020C3E5 		strb	r2, [r3, #0]
 1452              	.L45:
 1453 13d0 D8331FE5 		ldr	r3, .L267+116
 1454 13d4 0030D3E5 		ldrb	r3, [r3, #0]	@ zero_extendqisi2
 1455 13d8 180053E3 		cmp	r3, #24
 1456 13dc 0A01000A 		beq	.L50
 1457 13e0 1E0053E3 		cmp	r3, #30
 1458 13e4 0801001A 		bne	.L50
 1459 13e8 EC331FE5 		ldr	r3, .L267+120
 1460 13ec 005093E5 		ldr	r5, [r3, #0]	@ float
 1461 13f0 FEFFFFEB 		bl	stateGetPositionEnu_f
 1462 13f4 1A10A0E3 		mov	r1, #26
 1463 13f8 0040A0E1 		mov	r4, r0
 1464 13fc 8C031FE5 		ldr	r0, .L267+236
 1465 1400 FEFFFFEB 		bl	uart_check_free_space
 1466 1404 000050E3 		cmp	r0, #0
 1467 1408 FB00000A 		beq	.L51
 1468 140c 0201C5E3 		bic	r0, r5, #-2147483648
 1469 1410 FEFFFFEB 		bl	__aeabi_f2d
 1470 1414 14241FE5 		ldr	r2, .L267+124
 1471 1418 14341FE5 		ldr	r3, .L267+128
 1472 141c FEFFFFEB 		bl	__aeabi_ddiv
 1473 1420 FEFFFFEB 		bl	__aeabi_d2uiz
 1474 1424 E0331FE5 		ldr	r3, .L267+192
 1475 1428 B020D3E1 		ldrh	r2, [r3, #0]
 1476 142c 1A2082E2 		add	r2, r2, #26
 1477 1430 B020C3E1 		strh	r2, [r3, #0]	@ movhi
 1478 1434 2C341FE5 		ldr	r3, .L267+132
 1479 1438 B020D3E1 		ldrh	r2, [r3, #0]
 1480 143c 012082E2 		add	r2, r2, #1
 1481 1440 B020C3E1 		strh	r2, [r3, #0]	@ movhi
 1482 1444 FF7000E2 		and	r7, r0, #255
 1483 1448 9910A0E3 		mov	r1, #153
 1484 144c DC031FE5 		ldr	r0, .L267+236
 1485 1450 24641FE5 		ldr	r6, .L267+168
 1486 1454 FEFFFFEB 		bl	uart_transmit
 1487 1458 E8031FE5 		ldr	r0, .L267+236
 1488 145c 1A10A0E3 		mov	r1, #26
 1489 1460 30541FE5 		ldr	r5, .L267+172
 1490 1464 FEFFFFEB 		bl	uart_transmit
 1491 1468 1B30A0E3 		mov	r3, #27
 1492 146c 0030C6E5 		strb	r3, [r6, #0]
 1493 1470 3530A0E3 		mov	r3, #53
 1494 1474 0030C5E5 		strb	r3, [r5, #0]
 1495 1478 08041FE5 		ldr	r0, .L267+236
 1496 147c 0110A0E3 		mov	r1, #1
 1497 1480 FEFFFFEB 		bl	uart_transmit
 1498 1484 0030D6E5 		ldrb	r3, [r6, #0]	@ zero_extendqisi2
 1499 1488 0020D5E5 		ldrb	r2, [r5, #0]	@ zero_extendqisi2
 1500 148c 0A3083E2 		add	r3, r3, #10
 1501 1490 FF3003E2 		and	r3, r3, #255
 1502 1494 0030C6E5 		strb	r3, [r6, #0]
 1503 1498 023083E0 		add	r3, r3, r2
 1504 149c 0030C5E5 		strb	r3, [r5, #0]
 1505 14a0 30041FE5 		ldr	r0, .L267+236
 1506 14a4 0A10A0E3 		mov	r1, #10
 1507 14a8 FEFFFFEB 		bl	uart_transmit
 1508 14ac A0341FE5 		ldr	r3, .L267+136
 1509 14b0 0010D3E5 		ldrb	r1, [r3, #0]	@ zero_extendqisi2
 1510 14b4 0030D6E5 		ldrb	r3, [r6, #0]	@ zero_extendqisi2
 1511 14b8 0020D5E5 		ldrb	r2, [r5, #0]	@ zero_extendqisi2
 1512 14bc 033081E0 		add	r3, r1, r3
 1513 14c0 FF3003E2 		and	r3, r3, #255
 1514 14c4 0030C6E5 		strb	r3, [r6, #0]
 1515 14c8 023083E0 		add	r3, r3, r2
 1516 14cc 0030C5E5 		strb	r3, [r5, #0]
 1517 14d0 60041FE5 		ldr	r0, .L267+236
 1518 14d4 FEFFFFEB 		bl	uart_transmit
 1519 14d8 C8341FE5 		ldr	r3, .L267+140
 1520 14dc 0010D3E5 		ldrb	r1, [r3, #0]	@ zero_extendqisi2
 1521 14e0 0030D6E5 		ldrb	r3, [r6, #0]	@ zero_extendqisi2
 1522 14e4 0020D5E5 		ldrb	r2, [r5, #0]	@ zero_extendqisi2
 1523 14e8 033081E0 		add	r3, r1, r3
 1524 14ec FF3003E2 		and	r3, r3, #255
 1525 14f0 0030C6E5 		strb	r3, [r6, #0]
 1526 14f4 023083E0 		add	r3, r3, r2
 1527 14f8 0030C5E5 		strb	r3, [r5, #0]
 1528 14fc 8C041FE5 		ldr	r0, .L267+236
 1529 1500 FEFFFFEB 		bl	uart_transmit
 1530 1504 0010D4E5 		ldrb	r1, [r4, #0]	@ zero_extendqisi2
 1531 1508 0030D6E5 		ldrb	r3, [r6, #0]	@ zero_extendqisi2
 1532 150c 0020D5E5 		ldrb	r2, [r5, #0]	@ zero_extendqisi2
 1533 1510 033081E0 		add	r3, r1, r3
 1534 1514 FF3003E2 		and	r3, r3, #255
 1535 1518 0030C6E5 		strb	r3, [r6, #0]
 1536 151c 023083E0 		add	r3, r3, r2
 1537 1520 0030C5E5 		strb	r3, [r5, #0]
 1538 1524 B4041FE5 		ldr	r0, .L267+236
 1539 1528 FEFFFFEB 		bl	uart_transmit
 1540 152c 0110D4E5 		ldrb	r1, [r4, #1]	@ zero_extendqisi2
 1541 1530 0030D6E5 		ldrb	r3, [r6, #0]	@ zero_extendqisi2
 1542 1534 0020D5E5 		ldrb	r2, [r5, #0]	@ zero_extendqisi2
 1543 1538 033081E0 		add	r3, r1, r3
 1544 153c FF3003E2 		and	r3, r3, #255
 1545 1540 0030C6E5 		strb	r3, [r6, #0]
 1546 1544 023083E0 		add	r3, r3, r2
 1547 1548 0030C5E5 		strb	r3, [r5, #0]
 1548 154c DC041FE5 		ldr	r0, .L267+236
 1549 1550 FEFFFFEB 		bl	uart_transmit
 1550 1554 0210D4E5 		ldrb	r1, [r4, #2]	@ zero_extendqisi2
 1551 1558 0030D6E5 		ldrb	r3, [r6, #0]	@ zero_extendqisi2
 1552 155c 0020D5E5 		ldrb	r2, [r5, #0]	@ zero_extendqisi2
 1553 1560 033081E0 		add	r3, r1, r3
 1554 1564 FF3003E2 		and	r3, r3, #255
 1555 1568 0030C6E5 		strb	r3, [r6, #0]
 1556 156c 023083E0 		add	r3, r3, r2
 1557 1570 0030C5E5 		strb	r3, [r5, #0]
 1558 1574 04051FE5 		ldr	r0, .L267+236
 1559 1578 FEFFFFEB 		bl	uart_transmit
 1560 157c 0310D4E5 		ldrb	r1, [r4, #3]	@ zero_extendqisi2
 1561 1580 0030D6E5 		ldrb	r3, [r6, #0]	@ zero_extendqisi2
 1562 1584 0020D5E5 		ldrb	r2, [r5, #0]	@ zero_extendqisi2
 1563 1588 033081E0 		add	r3, r1, r3
 1564 158c FF3003E2 		and	r3, r3, #255
 1565 1590 0030C6E5 		strb	r3, [r6, #0]
 1566 1594 023083E0 		add	r3, r3, r2
 1567 1598 0030C5E5 		strb	r3, [r5, #0]
 1568 159c 2C051FE5 		ldr	r0, .L267+236
 1569 15a0 FEFFFFEB 		bl	uart_transmit
 1570 15a4 0410D4E5 		ldrb	r1, [r4, #4]	@ zero_extendqisi2
 1571 15a8 0030D6E5 		ldrb	r3, [r6, #0]	@ zero_extendqisi2
 1572 15ac 0020D5E5 		ldrb	r2, [r5, #0]	@ zero_extendqisi2
 1573 15b0 033081E0 		add	r3, r1, r3
 1574 15b4 FF3003E2 		and	r3, r3, #255
 1575 15b8 0030C6E5 		strb	r3, [r6, #0]
 1576 15bc 023083E0 		add	r3, r3, r2
 1577 15c0 0030C5E5 		strb	r3, [r5, #0]
 1578 15c4 54051FE5 		ldr	r0, .L267+236
 1579 15c8 FEFFFFEB 		bl	uart_transmit
 1580 15cc 0510D4E5 		ldrb	r1, [r4, #5]	@ zero_extendqisi2
 1581 15d0 0030D6E5 		ldrb	r3, [r6, #0]	@ zero_extendqisi2
 1582 15d4 0020D5E5 		ldrb	r2, [r5, #0]	@ zero_extendqisi2
 1583 15d8 033081E0 		add	r3, r1, r3
 1584 15dc FF3003E2 		and	r3, r3, #255
 1585 15e0 0030C6E5 		strb	r3, [r6, #0]
 1586 15e4 023083E0 		add	r3, r3, r2
 1587 15e8 0030C5E5 		strb	r3, [r5, #0]
 1588 15ec 7C051FE5 		ldr	r0, .L267+236
 1589 15f0 FEFFFFEB 		bl	uart_transmit
 1590 15f4 0610D4E5 		ldrb	r1, [r4, #6]	@ zero_extendqisi2
 1591 15f8 0030D6E5 		ldrb	r3, [r6, #0]	@ zero_extendqisi2
 1592 15fc 0020D5E5 		ldrb	r2, [r5, #0]	@ zero_extendqisi2
 1593 1600 033081E0 		add	r3, r1, r3
 1594 1604 FF3003E2 		and	r3, r3, #255
 1595 1608 0030C6E5 		strb	r3, [r6, #0]
 1596 160c 023083E0 		add	r3, r3, r2
 1597 1610 0030C5E5 		strb	r3, [r5, #0]
 1598 1614 A4051FE5 		ldr	r0, .L267+236
 1599 1618 FEFFFFEB 		bl	uart_transmit
 1600 161c 0710D4E5 		ldrb	r1, [r4, #7]	@ zero_extendqisi2
 1601 1620 0030D6E5 		ldrb	r3, [r6, #0]	@ zero_extendqisi2
 1602 1624 0020D5E5 		ldrb	r2, [r5, #0]	@ zero_extendqisi2
 1603 1628 033081E0 		add	r3, r1, r3
 1604 162c FF3003E2 		and	r3, r3, #255
 1605 1630 1C461FE5 		ldr	r4, .L267+144
 1606 1634 0030C6E5 		strb	r3, [r6, #0]
 1607 1638 023083E0 		add	r3, r3, r2
 1608 163c 0030C5E5 		strb	r3, [r5, #0]
 1609 1640 D0051FE5 		ldr	r0, .L267+236
 1610 1644 FEFFFFEB 		bl	uart_transmit
 1611 1648 0010D4E5 		ldrb	r1, [r4, #0]	@ zero_extendqisi2
 1612 164c 0030D6E5 		ldrb	r3, [r6, #0]	@ zero_extendqisi2
 1613 1650 0020D5E5 		ldrb	r2, [r5, #0]	@ zero_extendqisi2
 1614 1654 033081E0 		add	r3, r1, r3
 1615 1658 FF3003E2 		and	r3, r3, #255
 1616 165c 0030C6E5 		strb	r3, [r6, #0]
 1617 1660 023083E0 		add	r3, r3, r2
 1618 1664 0030C5E5 		strb	r3, [r5, #0]
 1619 1668 F8051FE5 		ldr	r0, .L267+236
 1620 166c FEFFFFEB 		bl	uart_transmit
 1621 1670 0110D4E5 		ldrb	r1, [r4, #1]	@ zero_extendqisi2
 1622 1674 0030D6E5 		ldrb	r3, [r6, #0]	@ zero_extendqisi2
 1623 1678 0020D5E5 		ldrb	r2, [r5, #0]	@ zero_extendqisi2
 1624 167c 033081E0 		add	r3, r1, r3
 1625 1680 FF3003E2 		and	r3, r3, #255
 1626 1684 0030C6E5 		strb	r3, [r6, #0]
 1627 1688 023083E0 		add	r3, r3, r2
 1628 168c 0030C5E5 		strb	r3, [r5, #0]
 1629 1690 20061FE5 		ldr	r0, .L267+236
 1630 1694 FEFFFFEB 		bl	uart_transmit
 1631 1698 0210D4E5 		ldrb	r1, [r4, #2]	@ zero_extendqisi2
 1632 169c 0030D6E5 		ldrb	r3, [r6, #0]	@ zero_extendqisi2
 1633 16a0 0020D5E5 		ldrb	r2, [r5, #0]	@ zero_extendqisi2
 1634 16a4 033081E0 		add	r3, r1, r3
 1635 16a8 FF3003E2 		and	r3, r3, #255
 1636 16ac 0030C6E5 		strb	r3, [r6, #0]
 1637 16b0 023083E0 		add	r3, r3, r2
 1638 16b4 0030C5E5 		strb	r3, [r5, #0]
 1639 16b8 48061FE5 		ldr	r0, .L267+236
 1640 16bc FEFFFFEB 		bl	uart_transmit
 1641 16c0 0310D4E5 		ldrb	r1, [r4, #3]	@ zero_extendqisi2
 1642 16c4 0030D6E5 		ldrb	r3, [r6, #0]	@ zero_extendqisi2
 1643 16c8 0020D5E5 		ldrb	r2, [r5, #0]	@ zero_extendqisi2
 1644 16cc 033081E0 		add	r3, r1, r3
 1645 16d0 FF3003E2 		and	r3, r3, #255
 1646 16d4 BC461FE5 		ldr	r4, .L267+148
 1647 16d8 0030C6E5 		strb	r3, [r6, #0]
 1648 16dc 023083E0 		add	r3, r3, r2
 1649 16e0 0030C5E5 		strb	r3, [r5, #0]
 1650 16e4 74061FE5 		ldr	r0, .L267+236
 1651 16e8 FEFFFFEB 		bl	uart_transmit
 1652 16ec 0010D4E5 		ldrb	r1, [r4, #0]	@ zero_extendqisi2
 1653 16f0 0030D6E5 		ldrb	r3, [r6, #0]	@ zero_extendqisi2
 1654 16f4 0020D5E5 		ldrb	r2, [r5, #0]	@ zero_extendqisi2
 1655 16f8 033081E0 		add	r3, r1, r3
 1656 16fc FF3003E2 		and	r3, r3, #255
 1657 1700 0030C6E5 		strb	r3, [r6, #0]
 1658 1704 023083E0 		add	r3, r3, r2
 1659 1708 0030C5E5 		strb	r3, [r5, #0]
 1660 170c 9C061FE5 		ldr	r0, .L267+236
 1661 1710 FEFFFFEB 		bl	uart_transmit
 1662 1714 0110D4E5 		ldrb	r1, [r4, #1]	@ zero_extendqisi2
 1663 1718 0030D6E5 		ldrb	r3, [r6, #0]	@ zero_extendqisi2
 1664 171c 0020D5E5 		ldrb	r2, [r5, #0]	@ zero_extendqisi2
 1665 1720 033081E0 		add	r3, r1, r3
 1666 1724 FF3003E2 		and	r3, r3, #255
 1667 1728 0030C6E5 		strb	r3, [r6, #0]
 1668 172c 023083E0 		add	r3, r3, r2
 1669 1730 0030C5E5 		strb	r3, [r5, #0]
 1670 1734 C4061FE5 		ldr	r0, .L267+236
 1671 1738 FEFFFFEB 		bl	uart_transmit
 1672 173c 0210D4E5 		ldrb	r1, [r4, #2]	@ zero_extendqisi2
 1673 1740 0030D6E5 		ldrb	r3, [r6, #0]	@ zero_extendqisi2
 1674 1744 0020D5E5 		ldrb	r2, [r5, #0]	@ zero_extendqisi2
 1675 1748 033081E0 		add	r3, r1, r3
 1676 174c FF3003E2 		and	r3, r3, #255
 1677 1750 0030C6E5 		strb	r3, [r6, #0]
 1678 1754 023083E0 		add	r3, r3, r2
 1679 1758 0030C5E5 		strb	r3, [r5, #0]
 1680 175c EC061FE5 		ldr	r0, .L267+236
 1681 1760 FEFFFFEB 		bl	uart_transmit
 1682 1764 0310D4E5 		ldrb	r1, [r4, #3]	@ zero_extendqisi2
 1683 1768 0030D6E5 		ldrb	r3, [r6, #0]	@ zero_extendqisi2
 1684 176c 0020D5E5 		ldrb	r2, [r5, #0]	@ zero_extendqisi2
 1685 1770 033081E0 		add	r3, r1, r3
 1686 1774 FF3003E2 		and	r3, r3, #255
 1687 1778 0030C6E5 		strb	r3, [r6, #0]
 1688 177c 023083E0 		add	r3, r3, r2
 1689 1780 0030C5E5 		strb	r3, [r5, #0]
 1690 1784 14071FE5 		ldr	r0, .L267+236
 1691 1788 FEFFFFEB 		bl	uart_transmit
 1692 178c 0030D6E5 		ldrb	r3, [r6, #0]	@ zero_extendqisi2
 1693 1790 0020D5E5 		ldrb	r2, [r5, #0]	@ zero_extendqisi2
 1694 1794 033087E0 		add	r3, r7, r3
 1695 1798 FF3003E2 		and	r3, r3, #255
 1696 179c 0030C6E5 		strb	r3, [r6, #0]
 1697 17a0 023083E0 		add	r3, r3, r2
 1698 17a4 0030C5E5 		strb	r3, [r5, #0]
 1699 17a8 0710A0E1 		mov	r1, r7
 1700 17ac 3C071FE5 		ldr	r0, .L267+236
 1701 17b0 FEFFFFEB 		bl	uart_transmit
 1702 17b4 98371FE5 		ldr	r3, .L267+152
 1703 17b8 0010D3E5 		ldrb	r1, [r3, #0]	@ zero_extendqisi2
 1704 17bc 0030D6E5 		ldrb	r3, [r6, #0]	@ zero_extendqisi2
 1705 17c0 0020D5E5 		ldrb	r2, [r5, #0]	@ zero_extendqisi2
 1706 17c4 033081E0 		add	r3, r1, r3
 1707 17c8 FF3003E2 		and	r3, r3, #255
 1708 17cc 0030C6E5 		strb	r3, [r6, #0]
 1709 17d0 023083E0 		add	r3, r3, r2
 1710 17d4 0030C5E5 		strb	r3, [r5, #0]
 1711 17d8 68071FE5 		ldr	r0, .L267+236
 1712 17dc FEFFFFEB 		bl	uart_transmit
 1713 17e0 0010D6E5 		ldrb	r1, [r6, #0]	@ zero_extendqisi2
 1714 17e4 74071FE5 		ldr	r0, .L267+236
 1715 17e8 FEFFFFEB 		bl	uart_transmit
 1716 17ec 7C071FE5 		ldr	r0, .L267+236
 1717 17f0 0010D5E5 		ldrb	r1, [r5, #0]	@ zero_extendqisi2
 1718 17f4 FEFFFFEB 		bl	uart_transmit
 1719 17f8 030000EA 		b	.L50
 1720              	.L51:
 1721 17fc DC371FE5 		ldr	r3, .L267+156
 1722 1800 0020D3E5 		ldrb	r2, [r3, #0]	@ zero_extendqisi2
 1723 1804 012082E2 		add	r2, r2, #1
 1724 1808 0020C3E5 		strb	r2, [r3, #0]
 1725              	.L50:
 1726 180c E8371FE5 		ldr	r3, .L267+160
 1727 1810 0030D3E5 		ldrb	r3, [r3, #0]	@ zero_extendqisi2
 1728 1814 300053E3 		cmp	r3, #48
 1729 1818 9C00001A 		bne	.L52
 1730 181c F4371FE5 		ldr	r3, .L267+164
 1731 1820 0030D3E5 		ldrb	r3, [r3, #0]	@ zero_extendqisi2
 1732 1824 000053E3 		cmp	r3, #0
 1733 1828 1402000A 		beq	.L53
 1734 182c BC071FE5 		ldr	r0, .L267+236
 1735 1830 1210A0E3 		mov	r1, #18
 1736 1834 FEFFFFEB 		bl	uart_check_free_space
 1737 1838 000050E3 		cmp	r0, #0
 1738 183c 0B02000A 		beq	.L55
 1739 1840 FC371FE5 		ldr	r3, .L267+192
 1740 1844 B020D3E1 		ldrh	r2, [r3, #0]
 1741 1848 122082E2 		add	r2, r2, #18
 1742 184c B020C3E1 		strh	r2, [r3, #0]	@ movhi
 1743 1850 08381FE5 		ldr	r3, .L267+196
 1744 1854 B020D3E1 		ldrh	r2, [r3, #0]
 1745 1858 012082E2 		add	r2, r2, #1
 1746 185c B020C3E1 		strh	r2, [r3, #0]	@ movhi
 1747 1860 F0071FE5 		ldr	r0, .L267+236
 1748 1864 9910A0E3 		mov	r1, #153
 1749 1868 3C581FE5 		ldr	r5, .L267+168
 1750 186c FEFFFFEB 		bl	uart_transmit
 1751 1870 00081FE5 		ldr	r0, .L267+236
 1752 1874 1210A0E3 		mov	r1, #18
 1753 1878 48481FE5 		ldr	r4, .L267+172
 1754 187c FEFFFFEB 		bl	uart_transmit
 1755 1880 1330A0E3 		mov	r3, #19
 1756 1884 0030C5E5 		strb	r3, [r5, #0]
 1757 1888 2530A0E3 		mov	r3, #37
 1758 188c 0030C4E5 		strb	r3, [r4, #0]
 1759 1890 20081FE5 		ldr	r0, .L267+236
 1760 1894 0110A0E3 		mov	r1, #1
 1761 1898 FEFFFFEB 		bl	uart_transmit
 1762 189c 0030D5E5 		ldrb	r3, [r5, #0]	@ zero_extendqisi2
 1763 18a0 0020D4E5 		ldrb	r2, [r4, #0]	@ zero_extendqisi2
 1764 18a4 153083E2 		add	r3, r3, #21
 1765 18a8 FF3003E2 		and	r3, r3, #255
 1766 18ac 78681FE5 		ldr	r6, .L267+176
 1767 18b0 0030C5E5 		strb	r3, [r5, #0]
 1768 18b4 023083E0 		add	r3, r3, r2
 1769 18b8 0030C4E5 		strb	r3, [r4, #0]
 1770 18bc 4C081FE5 		ldr	r0, .L267+236
 1771 18c0 1510A0E3 		mov	r1, #21
 1772 18c4 FEFFFFEB 		bl	uart_transmit
 1773 18c8 0010D6E5 		ldrb	r1, [r6, #0]	@ zero_extendqisi2
 1774 18cc 0030D5E5 		ldrb	r3, [r5, #0]	@ zero_extendqisi2
 1775 18d0 0020D4E5 		ldrb	r2, [r4, #0]	@ zero_extendqisi2
 1776 18d4 033081E0 		add	r3, r1, r3
 1777 18d8 FF3003E2 		and	r3, r3, #255
 1778 18dc 0030C5E5 		strb	r3, [r5, #0]
 1779 18e0 023083E0 		add	r3, r3, r2
 1780 18e4 0030C4E5 		strb	r3, [r4, #0]
 1781 18e8 78081FE5 		ldr	r0, .L267+236
 1782 18ec FEFFFFEB 		bl	uart_transmit
 1783 18f0 0110D6E5 		ldrb	r1, [r6, #1]	@ zero_extendqisi2
 1784 18f4 0030D5E5 		ldrb	r3, [r5, #0]	@ zero_extendqisi2
 1785 18f8 0020D4E5 		ldrb	r2, [r4, #0]	@ zero_extendqisi2
 1786 18fc 033081E0 		add	r3, r1, r3
 1787 1900 FF3003E2 		and	r3, r3, #255
 1788 1904 0030C5E5 		strb	r3, [r5, #0]
 1789 1908 023083E0 		add	r3, r3, r2
 1790 190c 0030C4E5 		strb	r3, [r4, #0]
 1791 1910 A0081FE5 		ldr	r0, .L267+236
 1792 1914 FEFFFFEB 		bl	uart_transmit
 1793 1918 0210D6E5 		ldrb	r1, [r6, #2]	@ zero_extendqisi2
 1794 191c 0030D5E5 		ldrb	r3, [r5, #0]	@ zero_extendqisi2
 1795 1920 0020D4E5 		ldrb	r2, [r4, #0]	@ zero_extendqisi2
 1796 1924 033081E0 		add	r3, r1, r3
 1797 1928 FF3003E2 		and	r3, r3, #255
 1798 192c 0030C5E5 		strb	r3, [r5, #0]
 1799 1930 023083E0 		add	r3, r3, r2
 1800 1934 0030C4E5 		strb	r3, [r4, #0]
 1801 1938 C8081FE5 		ldr	r0, .L267+236
 1802 193c FEFFFFEB 		bl	uart_transmit
 1803 1940 0310D6E5 		ldrb	r1, [r6, #3]	@ zero_extendqisi2
 1804 1944 0030D5E5 		ldrb	r3, [r5, #0]	@ zero_extendqisi2
 1805 1948 0020D4E5 		ldrb	r2, [r4, #0]	@ zero_extendqisi2
 1806 194c 033081E0 		add	r3, r1, r3
 1807 1950 FF3003E2 		and	r3, r3, #255
 1808 1954 1C691FE5 		ldr	r6, .L267+180
 1809 1958 0030C5E5 		strb	r3, [r5, #0]
 1810 195c 023083E0 		add	r3, r3, r2
 1811 1960 0030C4E5 		strb	r3, [r4, #0]
 1812 1964 F4081FE5 		ldr	r0, .L267+236
 1813 1968 FEFFFFEB 		bl	uart_transmit
 1814 196c 0010D6E5 		ldrb	r1, [r6, #0]	@ zero_extendqisi2
 1815 1970 0030D5E5 		ldrb	r3, [r5, #0]	@ zero_extendqisi2
 1816 1974 0020D4E5 		ldrb	r2, [r4, #0]	@ zero_extendqisi2
 1817 1978 033081E0 		add	r3, r1, r3
 1818 197c FF3003E2 		and	r3, r3, #255
 1819 1980 0030C5E5 		strb	r3, [r5, #0]
 1820 1984 023083E0 		add	r3, r3, r2
 1821 1988 0030C4E5 		strb	r3, [r4, #0]
 1822 198c 1C091FE5 		ldr	r0, .L267+236
 1823 1990 FEFFFFEB 		bl	uart_transmit
 1824 1994 0110D6E5 		ldrb	r1, [r6, #1]	@ zero_extendqisi2
 1825 1998 0030D5E5 		ldrb	r3, [r5, #0]	@ zero_extendqisi2
 1826 199c 0020D4E5 		ldrb	r2, [r4, #0]	@ zero_extendqisi2
 1827 19a0 033081E0 		add	r3, r1, r3
 1828 19a4 FF3003E2 		and	r3, r3, #255
 1829 19a8 0030C5E5 		strb	r3, [r5, #0]
 1830 19ac 023083E0 		add	r3, r3, r2
 1831 19b0 0030C4E5 		strb	r3, [r4, #0]
 1832 19b4 44091FE5 		ldr	r0, .L267+236
 1833 19b8 FEFFFFEB 		bl	uart_transmit
 1834 19bc 0210D6E5 		ldrb	r1, [r6, #2]	@ zero_extendqisi2
 1835 19c0 0030D5E5 		ldrb	r3, [r5, #0]	@ zero_extendqisi2
 1836 19c4 0020D4E5 		ldrb	r2, [r4, #0]	@ zero_extendqisi2
 1837 19c8 033081E0 		add	r3, r1, r3
 1838 19cc FF3003E2 		and	r3, r3, #255
 1839 19d0 0030C5E5 		strb	r3, [r5, #0]
 1840 19d4 023083E0 		add	r3, r3, r2
 1841 19d8 0030C4E5 		strb	r3, [r4, #0]
 1842 19dc 6C091FE5 		ldr	r0, .L267+236
 1843 19e0 FEFFFFEB 		bl	uart_transmit
 1844 19e4 0310D6E5 		ldrb	r1, [r6, #3]	@ zero_extendqisi2
 1845 19e8 0030D5E5 		ldrb	r3, [r5, #0]	@ zero_extendqisi2
 1846 19ec 0020D4E5 		ldrb	r2, [r4, #0]	@ zero_extendqisi2
 1847 19f0 033081E0 		add	r3, r1, r3
 1848 19f4 FF3003E2 		and	r3, r3, #255
 1849 19f8 BC691FE5 		ldr	r6, .L267+184
 1850 19fc 0030C5E5 		strb	r3, [r5, #0]
 1851 1a00 023083E0 		add	r3, r3, r2
 1852 1a04 0030C4E5 		strb	r3, [r4, #0]
 1853 1a08 98091FE5 		ldr	r0, .L267+236
 1854 1a0c FEFFFFEB 		bl	uart_transmit
 1855 1a10 0010D6E5 		ldrb	r1, [r6, #0]	@ zero_extendqisi2
 1856 1a14 0030D5E5 		ldrb	r3, [r5, #0]	@ zero_extendqisi2
 1857 1a18 0020D4E5 		ldrb	r2, [r4, #0]	@ zero_extendqisi2
 1858 1a1c 033081E0 		add	r3, r1, r3
 1859 1a20 FF3003E2 		and	r3, r3, #255
 1860 1a24 0030C5E5 		strb	r3, [r5, #0]
 1861 1a28 023083E0 		add	r3, r3, r2
 1862 1a2c 0030C4E5 		strb	r3, [r4, #0]
 1863 1a30 C0091FE5 		ldr	r0, .L267+236
 1864 1a34 FEFFFFEB 		bl	uart_transmit
 1865 1a38 0110D6E5 		ldrb	r1, [r6, #1]	@ zero_extendqisi2
 1866 1a3c 0030D5E5 		ldrb	r3, [r5, #0]	@ zero_extendqisi2
 1867 1a40 0020D4E5 		ldrb	r2, [r4, #0]	@ zero_extendqisi2
 1868 1a44 033081E0 		add	r3, r1, r3
 1869 1a48 FF3003E2 		and	r3, r3, #255
 1870 1a4c 0030C5E5 		strb	r3, [r5, #0]
 1871 1a50 023083E0 		add	r3, r3, r2
 1872 1a54 0030C4E5 		strb	r3, [r4, #0]
 1873 1a58 E8091FE5 		ldr	r0, .L267+236
 1874 1a5c FEFFFFEB 		bl	uart_transmit
 1875 1a60 0210D6E5 		ldrb	r1, [r6, #2]	@ zero_extendqisi2
 1876 1a64 0030D5E5 		ldrb	r3, [r5, #0]	@ zero_extendqisi2
 1877 1a68 0020D4E5 		ldrb	r2, [r4, #0]	@ zero_extendqisi2
 1878 1a6c 033081E0 		add	r3, r1, r3
 1879 1a70 FF3003E2 		and	r3, r3, #255
 1880 1a74 0030C5E5 		strb	r3, [r5, #0]
 1881 1a78 023083E0 		add	r3, r3, r2
 1882 1a7c 0030C4E5 		strb	r3, [r4, #0]
 1883 1a80 100A1FE5 		ldr	r0, .L267+236
 1884 1a84 FEFFFFEB 		bl	uart_transmit
 1885 1a88 0310D6E5 		ldrb	r1, [r6, #3]	@ zero_extendqisi2
 1886 1a8c 670100EA 		b	.L245
 1887              	.L52:
 1888 1a90 360053E3 		cmp	r3, #54
 1889 1a94 7901001A 		bne	.L53
 1890 1a98 583A1FE5 		ldr	r3, .L267+188
 1891 1a9c 2C0A1FE5 		ldr	r0, .L267+236
 1892 1aa0 2610A0E3 		mov	r1, #38
 1893 1aa4 04308DE5 		str	r3, [sp, #4]	@ float
 1894 1aa8 FEFFFFEB 		bl	uart_check_free_space
 1895 1aac 000050E3 		cmp	r0, #0
 1896 1ab0 6E01000A 		beq	.L55
 1897 1ab4 703A1FE5 		ldr	r3, .L267+192
 1898 1ab8 B020D3E1 		ldrh	r2, [r3, #0]
 1899 1abc 262082E2 		add	r2, r2, #38
 1900 1ac0 B020C3E1 		strh	r2, [r3, #0]	@ movhi
 1901 1ac4 7C3A1FE5 		ldr	r3, .L267+196
 1902 1ac8 B020D3E1 		ldrh	r2, [r3, #0]
 1903 1acc 012082E2 		add	r2, r2, #1
 1904 1ad0 B020C3E1 		strh	r2, [r3, #0]	@ movhi
 1905 1ad4 640A1FE5 		ldr	r0, .L267+236
 1906 1ad8 9910A0E3 		mov	r1, #153
 1907 1adc 905A1FE5 		ldr	r5, .L267+200
 1908 1ae0 FEFFFFEB 		bl	uart_transmit
 1909 1ae4 740A1FE5 		ldr	r0, .L267+236
 1910 1ae8 2610A0E3 		mov	r1, #38
 1911 1aec 9C4A1FE5 		ldr	r4, .L267+204
 1912 1af0 FEFFFFEB 		bl	uart_transmit
 1913 1af4 2730A0E3 		mov	r3, #39
 1914 1af8 0030C5E5 		strb	r3, [r5, #0]
 1915 1afc 4D30A0E3 		mov	r3, #77
 1916 1b00 0030C4E5 		strb	r3, [r4, #0]
 1917 1b04 940A1FE5 		ldr	r0, .L267+236
 1918 1b08 0110A0E3 		mov	r1, #1
 1919 1b0c FEFFFFEB 		bl	uart_transmit
 1920 1b10 0030D5E5 		ldrb	r3, [r5, #0]	@ zero_extendqisi2
 1921 1b14 0020D4E5 		ldrb	r2, [r4, #0]	@ zero_extendqisi2
 1922 1b18 103083E2 		add	r3, r3, #16
 1923 1b1c FF3003E2 		and	r3, r3, #255
 1924 1b20 CC6A1FE5 		ldr	r6, .L267+208
 1925 1b24 0030C5E5 		strb	r3, [r5, #0]
 1926 1b28 023083E0 		add	r3, r3, r2
 1927 1b2c 0030C4E5 		strb	r3, [r4, #0]
 1928 1b30 C00A1FE5 		ldr	r0, .L267+236
 1929 1b34 1010A0E3 		mov	r1, #16
 1930 1b38 FEFFFFEB 		bl	uart_transmit
 1931 1b3c 0010D6E5 		ldrb	r1, [r6, #0]	@ zero_extendqisi2
 1932 1b40 0030D5E5 		ldrb	r3, [r5, #0]	@ zero_extendqisi2
 1933 1b44 0020D4E5 		ldrb	r2, [r4, #0]	@ zero_extendqisi2
 1934 1b48 033081E0 		add	r3, r1, r3
 1935 1b4c FF3003E2 		and	r3, r3, #255
 1936 1b50 0030C5E5 		strb	r3, [r5, #0]
 1937 1b54 023083E0 		add	r3, r3, r2
 1938 1b58 0030C4E5 		strb	r3, [r4, #0]
 1939 1b5c EC0A1FE5 		ldr	r0, .L267+236
 1940 1b60 FEFFFFEB 		bl	uart_transmit
 1941 1b64 0110D6E5 		ldrb	r1, [r6, #1]	@ zero_extendqisi2
 1942 1b68 0030D5E5 		ldrb	r3, [r5, #0]	@ zero_extendqisi2
 1943 1b6c 0020D4E5 		ldrb	r2, [r4, #0]	@ zero_extendqisi2
 1944 1b70 033081E0 		add	r3, r1, r3
 1945 1b74 FF3003E2 		and	r3, r3, #255
 1946 1b78 0030C5E5 		strb	r3, [r5, #0]
 1947 1b7c 023083E0 		add	r3, r3, r2
 1948 1b80 0030C4E5 		strb	r3, [r4, #0]
 1949 1b84 140B1FE5 		ldr	r0, .L267+236
 1950 1b88 FEFFFFEB 		bl	uart_transmit
 1951 1b8c 0210D6E5 		ldrb	r1, [r6, #2]	@ zero_extendqisi2
 1952 1b90 0030D5E5 		ldrb	r3, [r5, #0]	@ zero_extendqisi2
 1953 1b94 0020D4E5 		ldrb	r2, [r4, #0]	@ zero_extendqisi2
 1954 1b98 033081E0 		add	r3, r1, r3
 1955 1b9c FF3003E2 		and	r3, r3, #255
 1956 1ba0 0030C5E5 		strb	r3, [r5, #0]
 1957 1ba4 023083E0 		add	r3, r3, r2
 1958 1ba8 0030C4E5 		strb	r3, [r4, #0]
 1959 1bac 3C0B1FE5 		ldr	r0, .L267+236
 1960 1bb0 FEFFFFEB 		bl	uart_transmit
 1961 1bb4 0310D6E5 		ldrb	r1, [r6, #3]	@ zero_extendqisi2
 1962 1bb8 0030D5E5 		ldrb	r3, [r5, #0]	@ zero_extendqisi2
 1963 1bbc 0020D4E5 		ldrb	r2, [r4, #0]	@ zero_extendqisi2
 1964 1bc0 033081E0 		add	r3, r1, r3
 1965 1bc4 FF3003E2 		and	r3, r3, #255
 1966 1bc8 706B1FE5 		ldr	r6, .L267+212
 1967 1bcc 0030C5E5 		strb	r3, [r5, #0]
 1968 1bd0 023083E0 		add	r3, r3, r2
 1969 1bd4 0030C4E5 		strb	r3, [r4, #0]
 1970 1bd8 680B1FE5 		ldr	r0, .L267+236
 1971 1bdc FEFFFFEB 		bl	uart_transmit
 1972 1be0 0010D6E5 		ldrb	r1, [r6, #0]	@ zero_extendqisi2
 1973 1be4 0030D5E5 		ldrb	r3, [r5, #0]	@ zero_extendqisi2
 1974 1be8 0020D4E5 		ldrb	r2, [r4, #0]	@ zero_extendqisi2
 1975 1bec 033081E0 		add	r3, r1, r3
 1976 1bf0 FF3003E2 		and	r3, r3, #255
 1977 1bf4 0030C5E5 		strb	r3, [r5, #0]
 1978 1bf8 023083E0 		add	r3, r3, r2
 1979 1bfc 0030C4E5 		strb	r3, [r4, #0]
 1980 1c00 900B1FE5 		ldr	r0, .L267+236
 1981 1c04 FEFFFFEB 		bl	uart_transmit
 1982 1c08 0110D6E5 		ldrb	r1, [r6, #1]	@ zero_extendqisi2
 1983 1c0c 0030D5E5 		ldrb	r3, [r5, #0]	@ zero_extendqisi2
 1984 1c10 0020D4E5 		ldrb	r2, [r4, #0]	@ zero_extendqisi2
 1985 1c14 033081E0 		add	r3, r1, r3
 1986 1c18 FF3003E2 		and	r3, r3, #255
 1987 1c1c 0030C5E5 		strb	r3, [r5, #0]
 1988 1c20 023083E0 		add	r3, r3, r2
 1989 1c24 0030C4E5 		strb	r3, [r4, #0]
 1990 1c28 B80B1FE5 		ldr	r0, .L267+236
 1991 1c2c FEFFFFEB 		bl	uart_transmit
 1992 1c30 0210D6E5 		ldrb	r1, [r6, #2]	@ zero_extendqisi2
 1993 1c34 0030D5E5 		ldrb	r3, [r5, #0]	@ zero_extendqisi2
 1994 1c38 0020D4E5 		ldrb	r2, [r4, #0]	@ zero_extendqisi2
 1995 1c3c 033081E0 		add	r3, r1, r3
 1996 1c40 FF3003E2 		and	r3, r3, #255
 1997 1c44 0030C5E5 		strb	r3, [r5, #0]
 1998 1c48 023083E0 		add	r3, r3, r2
 1999 1c4c 0030C4E5 		strb	r3, [r4, #0]
 2000 1c50 E00B1FE5 		ldr	r0, .L267+236
 2001 1c54 FEFFFFEB 		bl	uart_transmit
 2002 1c58 0310D6E5 		ldrb	r1, [r6, #3]	@ zero_extendqisi2
 2003 1c5c 0030D5E5 		ldrb	r3, [r5, #0]	@ zero_extendqisi2
 2004 1c60 0020D4E5 		ldrb	r2, [r4, #0]	@ zero_extendqisi2
 2005 1c64 033081E0 		add	r3, r1, r3
 2006 1c68 FF3003E2 		and	r3, r3, #255
 2007 1c6c 106C1FE5 		ldr	r6, .L267+216
 2008 1c70 0030C5E5 		strb	r3, [r5, #0]
 2009 1c74 023083E0 		add	r3, r3, r2
 2010 1c78 0030C4E5 		strb	r3, [r4, #0]
 2011 1c7c 0C0C1FE5 		ldr	r0, .L267+236
 2012 1c80 FEFFFFEB 		bl	uart_transmit
 2013 1c84 0010D6E5 		ldrb	r1, [r6, #0]	@ zero_extendqisi2
 2014 1c88 0030D5E5 		ldrb	r3, [r5, #0]	@ zero_extendqisi2
 2015 1c8c 0020D4E5 		ldrb	r2, [r4, #0]	@ zero_extendqisi2
 2016 1c90 033081E0 		add	r3, r1, r3
 2017 1c94 FF3003E2 		and	r3, r3, #255
 2018 1c98 0030C5E5 		strb	r3, [r5, #0]
 2019 1c9c 023083E0 		add	r3, r3, r2
 2020 1ca0 0030C4E5 		strb	r3, [r4, #0]
 2021 1ca4 340C1FE5 		ldr	r0, .L267+236
 2022 1ca8 FEFFFFEB 		bl	uart_transmit
 2023 1cac 0110D6E5 		ldrb	r1, [r6, #1]	@ zero_extendqisi2
 2024 1cb0 0030D5E5 		ldrb	r3, [r5, #0]	@ zero_extendqisi2
 2025 1cb4 0020D4E5 		ldrb	r2, [r4, #0]	@ zero_extendqisi2
 2026 1cb8 033081E0 		add	r3, r1, r3
 2027 1cbc FF3003E2 		and	r3, r3, #255
 2028 1cc0 0030C5E5 		strb	r3, [r5, #0]
 2029 1cc4 023083E0 		add	r3, r3, r2
 2030 1cc8 0030C4E5 		strb	r3, [r4, #0]
 2031 1ccc 5C0C1FE5 		ldr	r0, .L267+236
 2032 1cd0 FEFFFFEB 		bl	uart_transmit
 2033 1cd4 0210D6E5 		ldrb	r1, [r6, #2]	@ zero_extendqisi2
 2034 1cd8 0030D5E5 		ldrb	r3, [r5, #0]	@ zero_extendqisi2
 2035 1cdc 0020D4E5 		ldrb	r2, [r4, #0]	@ zero_extendqisi2
 2036 1ce0 033081E0 		add	r3, r1, r3
 2037 1ce4 FF3003E2 		and	r3, r3, #255
 2038 1ce8 0030C5E5 		strb	r3, [r5, #0]
 2039 1cec 023083E0 		add	r3, r3, r2
 2040 1cf0 0030C4E5 		strb	r3, [r4, #0]
 2041 1cf4 840C1FE5 		ldr	r0, .L267+236
 2042 1cf8 FEFFFFEB 		bl	uart_transmit
 2043 1cfc 0310D6E5 		ldrb	r1, [r6, #3]	@ zero_extendqisi2
 2044 1d00 0030D5E5 		ldrb	r3, [r5, #0]	@ zero_extendqisi2
 2045 1d04 0020D4E5 		ldrb	r2, [r4, #0]	@ zero_extendqisi2
 2046 1d08 033081E0 		add	r3, r1, r3
 2047 1d0c FF3003E2 		and	r3, r3, #255
 2048 1d10 B06C1FE5 		ldr	r6, .L267+220
 2049 1d14 0030C5E5 		strb	r3, [r5, #0]
 2050 1d18 023083E0 		add	r3, r3, r2
 2051 1d1c 0030C4E5 		strb	r3, [r4, #0]
 2052 1d20 B00C1FE5 		ldr	r0, .L267+236
 2053 1d24 FEFFFFEB 		bl	uart_transmit
 2054 1d28 0010D6E5 		ldrb	r1, [r6, #0]	@ zero_extendqisi2
 2055 1d2c 0030D5E5 		ldrb	r3, [r5, #0]	@ zero_extendqisi2
 2056 1d30 0020D4E5 		ldrb	r2, [r4, #0]	@ zero_extendqisi2
 2057 1d34 033081E0 		add	r3, r1, r3
 2058 1d38 FF3003E2 		and	r3, r3, #255
 2059 1d3c 0030C5E5 		strb	r3, [r5, #0]
 2060 1d40 023083E0 		add	r3, r3, r2
 2061 1d44 0030C4E5 		strb	r3, [r4, #0]
 2062 1d48 D80C1FE5 		ldr	r0, .L267+236
 2063 1d4c FEFFFFEB 		bl	uart_transmit
 2064 1d50 0110D6E5 		ldrb	r1, [r6, #1]	@ zero_extendqisi2
 2065 1d54 0030D5E5 		ldrb	r3, [r5, #0]	@ zero_extendqisi2
 2066 1d58 0020D4E5 		ldrb	r2, [r4, #0]	@ zero_extendqisi2
 2067 1d5c 033081E0 		add	r3, r1, r3
 2068 1d60 FF3003E2 		and	r3, r3, #255
 2069 1d64 0030C5E5 		strb	r3, [r5, #0]
 2070 1d68 023083E0 		add	r3, r3, r2
 2071 1d6c 0030C4E5 		strb	r3, [r4, #0]
 2072 1d70 000D1FE5 		ldr	r0, .L267+236
 2073 1d74 FEFFFFEB 		bl	uart_transmit
 2074 1d78 0210D6E5 		ldrb	r1, [r6, #2]	@ zero_extendqisi2
 2075 1d7c 0030D5E5 		ldrb	r3, [r5, #0]	@ zero_extendqisi2
 2076 1d80 0020D4E5 		ldrb	r2, [r4, #0]	@ zero_extendqisi2
 2077 1d84 033081E0 		add	r3, r1, r3
 2078 1d88 FF3003E2 		and	r3, r3, #255
 2079 1d8c 0030C5E5 		strb	r3, [r5, #0]
 2080 1d90 023083E0 		add	r3, r3, r2
 2081 1d94 0030C4E5 		strb	r3, [r4, #0]
 2082 1d98 280D1FE5 		ldr	r0, .L267+236
 2083 1d9c FEFFFFEB 		bl	uart_transmit
 2084 1da0 0310D6E5 		ldrb	r1, [r6, #3]	@ zero_extendqisi2
 2085 1da4 0030D5E5 		ldrb	r3, [r5, #0]	@ zero_extendqisi2
 2086 1da8 0020D4E5 		ldrb	r2, [r4, #0]	@ zero_extendqisi2
 2087 1dac 033081E0 		add	r3, r1, r3
 2088 1db0 FF3003E2 		and	r3, r3, #255
 2089 1db4 506D1FE5 		ldr	r6, .L267+224
 2090 1db8 0030C5E5 		strb	r3, [r5, #0]
 2091 1dbc 023083E0 		add	r3, r3, r2
 2092 1dc0 0030C4E5 		strb	r3, [r4, #0]
 2093 1dc4 540D1FE5 		ldr	r0, .L267+236
 2094 1dc8 FEFFFFEB 		bl	uart_transmit
 2095 1dcc 0010D6E5 		ldrb	r1, [r6, #0]	@ zero_extendqisi2
 2096 1dd0 0030D5E5 		ldrb	r3, [r5, #0]	@ zero_extendqisi2
 2097 1dd4 0020D4E5 		ldrb	r2, [r4, #0]	@ zero_extendqisi2
 2098 1dd8 033081E0 		add	r3, r1, r3
 2099 1ddc FF3003E2 		and	r3, r3, #255
 2100 1de0 0030C5E5 		strb	r3, [r5, #0]
 2101 1de4 023083E0 		add	r3, r3, r2
 2102 1de8 0030C4E5 		strb	r3, [r4, #0]
 2103 1dec 7C0D1FE5 		ldr	r0, .L267+236
 2104 1df0 FEFFFFEB 		bl	uart_transmit
 2105 1df4 0110D6E5 		ldrb	r1, [r6, #1]	@ zero_extendqisi2
 2106 1df8 0030D5E5 		ldrb	r3, [r5, #0]	@ zero_extendqisi2
 2107 1dfc 0020D4E5 		ldrb	r2, [r4, #0]	@ zero_extendqisi2
 2108 1e00 033081E0 		add	r3, r1, r3
 2109 1e04 FF3003E2 		and	r3, r3, #255
 2110 1e08 0030C5E5 		strb	r3, [r5, #0]
 2111 1e0c 023083E0 		add	r3, r3, r2
 2112 1e10 0030C4E5 		strb	r3, [r4, #0]
 2113 1e14 A40D1FE5 		ldr	r0, .L267+236
 2114 1e18 FEFFFFEB 		bl	uart_transmit
 2115 1e1c 0210D6E5 		ldrb	r1, [r6, #2]	@ zero_extendqisi2
 2116 1e20 0030D5E5 		ldrb	r3, [r5, #0]	@ zero_extendqisi2
 2117 1e24 0020D4E5 		ldrb	r2, [r4, #0]	@ zero_extendqisi2
 2118 1e28 033081E0 		add	r3, r1, r3
 2119 1e2c FF3003E2 		and	r3, r3, #255
 2120 1e30 0030C5E5 		strb	r3, [r5, #0]
 2121 1e34 023083E0 		add	r3, r3, r2
 2122 1e38 0030C4E5 		strb	r3, [r4, #0]
 2123 1e3c CC0D1FE5 		ldr	r0, .L267+236
 2124 1e40 FEFFFFEB 		bl	uart_transmit
 2125 1e44 0310D6E5 		ldrb	r1, [r6, #3]	@ zero_extendqisi2
 2126 1e48 0030D5E5 		ldrb	r3, [r5, #0]	@ zero_extendqisi2
 2127 1e4c 0020D4E5 		ldrb	r2, [r4, #0]	@ zero_extendqisi2
 2128 1e50 033081E0 		add	r3, r1, r3
 2129 1e54 FF3003E2 		and	r3, r3, #255
 2130 1e58 F06D1FE5 		ldr	r6, .L267+228
 2131 1e5c 0030C5E5 		strb	r3, [r5, #0]
 2132 1e60 023083E0 		add	r3, r3, r2
 2133 1e64 0030C4E5 		strb	r3, [r4, #0]
 2134 1e68 F80D1FE5 		ldr	r0, .L267+236
 2135 1e6c FEFFFFEB 		bl	uart_transmit
 2136 1e70 0010D6E5 		ldrb	r1, [r6, #0]	@ zero_extendqisi2
 2137 1e74 0030D5E5 		ldrb	r3, [r5, #0]	@ zero_extendqisi2
 2138 1e78 0020D4E5 		ldrb	r2, [r4, #0]	@ zero_extendqisi2
 2139 1e7c 033081E0 		add	r3, r1, r3
 2140 1e80 FF3003E2 		and	r3, r3, #255
 2141 1e84 0030C5E5 		strb	r3, [r5, #0]
 2142 1e88 023083E0 		add	r3, r3, r2
 2143 1e8c 0030C4E5 		strb	r3, [r4, #0]
 2144 1e90 200E1FE5 		ldr	r0, .L267+236
 2145 1e94 FEFFFFEB 		bl	uart_transmit
 2146 1e98 0110D6E5 		ldrb	r1, [r6, #1]	@ zero_extendqisi2
 2147 1e9c 0030D5E5 		ldrb	r3, [r5, #0]	@ zero_extendqisi2
 2148 1ea0 0020D4E5 		ldrb	r2, [r4, #0]	@ zero_extendqisi2
 2149 1ea4 033081E0 		add	r3, r1, r3
 2150 1ea8 FF3003E2 		and	r3, r3, #255
 2151 1eac 0030C5E5 		strb	r3, [r5, #0]
 2152 1eb0 023083E0 		add	r3, r3, r2
 2153 1eb4 0030C4E5 		strb	r3, [r4, #0]
 2154 1eb8 480E1FE5 		ldr	r0, .L267+236
 2155 1ebc FEFFFFEB 		bl	uart_transmit
 2156 1ec0 0210D6E5 		ldrb	r1, [r6, #2]	@ zero_extendqisi2
 2157 1ec4 0030D5E5 		ldrb	r3, [r5, #0]	@ zero_extendqisi2
 2158 1ec8 0020D4E5 		ldrb	r2, [r4, #0]	@ zero_extendqisi2
 2159 1ecc 033081E0 		add	r3, r1, r3
 2160 1ed0 FF3003E2 		and	r3, r3, #255
 2161 1ed4 0030C5E5 		strb	r3, [r5, #0]
 2162 1ed8 023083E0 		add	r3, r3, r2
 2163 1edc 0030C4E5 		strb	r3, [r4, #0]
 2164 1ee0 700E1FE5 		ldr	r0, .L267+236
 2165 1ee4 FEFFFFEB 		bl	uart_transmit
 2166 1ee8 0310D6E5 		ldrb	r1, [r6, #3]	@ zero_extendqisi2
 2167 1eec 0030D5E5 		ldrb	r3, [r5, #0]	@ zero_extendqisi2
 2168 1ef0 0020D4E5 		ldrb	r2, [r4, #0]	@ zero_extendqisi2
 2169 1ef4 033081E0 		add	r3, r1, r3
 2170 1ef8 FF3003E2 		and	r3, r3, #255
 2171 1efc 906E1FE5 		ldr	r6, .L267+232
 2172 1f00 0030C5E5 		strb	r3, [r5, #0]
 2173 1f04 023083E0 		add	r3, r3, r2
 2174 1f08 0030C4E5 		strb	r3, [r4, #0]
 2175 1f0c 9C0E1FE5 		ldr	r0, .L267+236
 2176 1f10 FEFFFFEB 		bl	uart_transmit
 2177 1f14 0010D6E5 		ldrb	r1, [r6, #0]	@ zero_extendqisi2
 2178 1f18 0030D5E5 		ldrb	r3, [r5, #0]	@ zero_extendqisi2
 2179 1f1c 0020D4E5 		ldrb	r2, [r4, #0]	@ zero_extendqisi2
 2180 1f20 033081E0 		add	r3, r1, r3
 2181 1f24 FF3003E2 		and	r3, r3, #255
 2182 1f28 0030C5E5 		strb	r3, [r5, #0]
 2183 1f2c 023083E0 		add	r3, r3, r2
 2184 1f30 0030C4E5 		strb	r3, [r4, #0]
 2185 1f34 C40E1FE5 		ldr	r0, .L267+236
 2186 1f38 FEFFFFEB 		bl	uart_transmit
 2187 1f3c 0110D6E5 		ldrb	r1, [r6, #1]	@ zero_extendqisi2
 2188 1f40 0030D5E5 		ldrb	r3, [r5, #0]	@ zero_extendqisi2
 2189 1f44 0020D4E5 		ldrb	r2, [r4, #0]	@ zero_extendqisi2
 2190 1f48 033081E0 		add	r3, r1, r3
 2191 1f4c FF3003E2 		and	r3, r3, #255
 2192 1f50 0030C5E5 		strb	r3, [r5, #0]
 2193 1f54 023083E0 		add	r3, r3, r2
 2194 1f58 0030C4E5 		strb	r3, [r4, #0]
 2195 1f5c EC0E1FE5 		ldr	r0, .L267+236
 2196 1f60 FEFFFFEB 		bl	uart_transmit
 2197 1f64 0210D6E5 		ldrb	r1, [r6, #2]	@ zero_extendqisi2
 2198 1f68 0030D5E5 		ldrb	r3, [r5, #0]	@ zero_extendqisi2
 2199 1f6c 0020D4E5 		ldrb	r2, [r4, #0]	@ zero_extendqisi2
 2200 1f70 033081E0 		add	r3, r1, r3
 2201 1f74 FF3003E2 		and	r3, r3, #255
 2202 1f78 0030C5E5 		strb	r3, [r5, #0]
 2203 1f7c 023083E0 		add	r3, r3, r2
 2204 1f80 0030C4E5 		strb	r3, [r4, #0]
 2205 1f84 140F1FE5 		ldr	r0, .L267+236
 2206 1f88 FEFFFFEB 		bl	uart_transmit
 2207 1f8c 0310D6E5 		ldrb	r1, [r6, #3]	@ zero_extendqisi2
 2208 1f90 0030D5E5 		ldrb	r3, [r5, #0]	@ zero_extendqisi2
 2209 1f94 0020D4E5 		ldrb	r2, [r4, #0]	@ zero_extendqisi2
 2210 1f98 033081E0 		add	r3, r1, r3
 2211 1f9c FF3003E2 		and	r3, r3, #255
 2212 1fa0 0030C5E5 		strb	r3, [r5, #0]
 2213 1fa4 023083E0 		add	r3, r3, r2
 2214 1fa8 0030C4E5 		strb	r3, [r4, #0]
 2215 1fac 3C0F1FE5 		ldr	r0, .L267+236
 2216 1fb0 FEFFFFEB 		bl	uart_transmit
 2217 1fb4 0410DDE5 		ldrb	r1, [sp, #4]	@ zero_extendqisi2
 2218 1fb8 0030D5E5 		ldrb	r3, [r5, #0]	@ zero_extendqisi2
 2219 1fbc 0020D4E5 		ldrb	r2, [r4, #0]	@ zero_extendqisi2
 2220 1fc0 033081E0 		add	r3, r1, r3
 2221 1fc4 FF3003E2 		and	r3, r3, #255
 2222 1fc8 0030C5E5 		strb	r3, [r5, #0]
 2223 1fcc 023083E0 		add	r3, r3, r2
 2224 1fd0 0030C4E5 		strb	r3, [r4, #0]
 2225 1fd4 640F1FE5 		ldr	r0, .L267+236
 2226 1fd8 FEFFFFEB 		bl	uart_transmit
 2227 1fdc 0510DDE5 		ldrb	r1, [sp, #5]	@ zero_extendqisi2
 2228 1fe0 0030D5E5 		ldrb	r3, [r5, #0]	@ zero_extendqisi2
 2229 1fe4 0020D4E5 		ldrb	r2, [r4, #0]	@ zero_extendqisi2
 2230 1fe8 033081E0 		add	r3, r1, r3
 2231 1fec FF3003E2 		and	r3, r3, #255
 2232 1ff0 0030C5E5 		strb	r3, [r5, #0]
 2233 1ff4 023083E0 		add	r3, r3, r2
 2234 1ff8 0030C4E5 		strb	r3, [r4, #0]
 2235 1ffc 8C0F1FE5 		ldr	r0, .L267+236
 2236 2000 FEFFFFEB 		bl	uart_transmit
 2237 2004 0610DDE5 		ldrb	r1, [sp, #6]	@ zero_extendqisi2
 2238 2008 0030D5E5 		ldrb	r3, [r5, #0]	@ zero_extendqisi2
 2239 200c 0020D4E5 		ldrb	r2, [r4, #0]	@ zero_extendqisi2
 2240 2010 033081E0 		add	r3, r1, r3
 2241 2014 FF3003E2 		and	r3, r3, #255
 2242 2018 0030C5E5 		strb	r3, [r5, #0]
 2243 201c 023083E0 		add	r3, r3, r2
 2244 2020 0030C4E5 		strb	r3, [r4, #0]
 2245 2024 B40F1FE5 		ldr	r0, .L267+236
 2246 2028 FEFFFFEB 		bl	uart_transmit
 2247 202c 0710DDE5 		ldrb	r1, [sp, #7]	@ zero_extendqisi2
 2248              	.L245:
 2249 2030 0030D5E5 		ldrb	r3, [r5, #0]	@ zero_extendqisi2
 2250 2034 0020D4E5 		ldrb	r2, [r4, #0]	@ zero_extendqisi2
 2251 2038 033081E0 		add	r3, r1, r3
 2252 203c FF3003E2 		and	r3, r3, #255
 2253 2040 0030C5E5 		strb	r3, [r5, #0]
 2254 2044 023083E0 		add	r3, r3, r2
 2255 2048 0030C4E5 		strb	r3, [r4, #0]
 2256 204c DC0F1FE5 		ldr	r0, .L267+236
 2257 2050 FEFFFFEB 		bl	uart_transmit
 2258 2054 0010D5E5 		ldrb	r1, [r5, #0]	@ zero_extendqisi2
 2259 2058 E80F1FE5 		ldr	r0, .L267+236
 2260 205c FEFFFFEB 		bl	uart_transmit
 2261 2060 F00F1FE5 		ldr	r0, .L267+236
 2262 2064 0010D4E5 		ldrb	r1, [r4, #0]	@ zero_extendqisi2
 2263 2068 FEFFFFEB 		bl	uart_transmit
 2264 206c 030000EA 		b	.L53
 2265              	.L55:
 2266 2070 C03F9FE5 		ldr	r3, .L269+144
 2267 2074 0020D3E5 		ldrb	r2, [r3, #0]	@ zero_extendqisi2
 2268 2078 012082E2 		add	r2, r2, #1
 2269 207c 0020C3E5 		strb	r2, [r3, #0]
 2270              	.L53:
 2271 2080 203F9FE5 		ldr	r3, .L269
 2272 2084 0030D3E5 		ldrb	r3, [r3, #0]	@ zero_extendqisi2
 2273 2088 3C0053E3 		cmp	r3, #60
 2274 208c CB00001A 		bne	.L56
 2275 2090 983F9FE5 		ldr	r3, .L269+136
 2276 2094 0A10A0E3 		mov	r1, #10
 2277 2098 000093E5 		ldr	r0, [r3, #0]
 2278 209c FEFFFFEB 		bl	__aeabi_idiv
 2279 20a0 7C3F9FE5 		ldr	r3, .L269+124
 2280 20a4 BE00CDE1 		strh	r0, [sp, #14]	@ movhi
 2281 20a8 000093E5 		ldr	r0, [r3, #0]	@ float
 2282 20ac FEFFFFEB 		bl	__aeabi_f2iz
 2283 20b0 1410A0E3 		mov	r1, #20
 2284 20b4 BC00CDE1 		strh	r0, [sp, #12]	@ movhi
 2285 20b8 CC0F9FE5 		ldr	r0, .L269+228
 2286 20bc FEFFFFEB 		bl	uart_check_free_space
 2287 20c0 000050E3 		cmp	r0, #0
 2288 20c4 B900000A 		beq	.L57
 2289 20c8 A03F9FE5 		ldr	r3, .L269+200
 2290 20cc B020D3E1 		ldrh	r2, [r3, #0]
 2291 20d0 142082E2 		add	r2, r2, #20
 2292 20d4 B020C3E1 		strh	r2, [r3, #0]	@ movhi
 2293 20d8 943F9FE5 		ldr	r3, .L269+204
 2294 20dc B020D3E1 		ldrh	r2, [r3, #0]
 2295 20e0 012082E2 		add	r2, r2, #1
 2296 20e4 B020C3E1 		strh	r2, [r3, #0]	@ movhi
 2297 20e8 9C0F9FE5 		ldr	r0, .L269+228
 2298 20ec 9910A0E3 		mov	r1, #153
 2299 20f0 805F9FE5 		ldr	r5, .L269+208
 2300 20f4 FEFFFFEB 		bl	uart_transmit
 2301 20f8 8C0F9FE5 		ldr	r0, .L269+228
 2302 20fc 1410A0E3 		mov	r1, #20
 2303 2100 744F9FE5 		ldr	r4, .L269+212
 2304 2104 FEFFFFEB 		bl	uart_transmit
 2305 2108 1530A0E3 		mov	r3, #21
 2306 210c 0030C5E5 		strb	r3, [r5, #0]
 2307 2110 2930A0E3 		mov	r3, #41
 2308 2114 0030C4E5 		strb	r3, [r4, #0]
 2309 2118 6C0F9FE5 		ldr	r0, .L269+228
 2310 211c 0110A0E3 		mov	r1, #1
 2311 2120 FEFFFFEB 		bl	uart_transmit
 2312 2124 0030D5E5 		ldrb	r3, [r5, #0]	@ zero_extendqisi2
 2313 2128 0020D4E5 		ldrb	r2, [r4, #0]	@ zero_extendqisi2
 2314 212c 0C3083E2 		add	r3, r3, #12
 2315 2130 FF3003E2 		and	r3, r3, #255
 2316 2134 0030C5E5 		strb	r3, [r5, #0]
 2317 2138 6C6E9FE5 		ldr	r6, .L269+4
 2318 213c 023083E0 		add	r3, r3, r2
 2319 2140 0030C4E5 		strb	r3, [r4, #0]
 2320 2144 400F9FE5 		ldr	r0, .L269+228
 2321 2148 0C10A0E3 		mov	r1, #12
 2322 214c FEFFFFEB 		bl	uart_transmit
 2323 2150 0010D6E5 		ldrb	r1, [r6, #0]	@ zero_extendqisi2
 2324 2154 0030D5E5 		ldrb	r3, [r5, #0]	@ zero_extendqisi2
 2325 2158 0020D4E5 		ldrb	r2, [r4, #0]	@ zero_extendqisi2
 2326 215c 033081E0 		add	r3, r1, r3
 2327 2160 FF3003E2 		and	r3, r3, #255
 2328 2164 0030C5E5 		strb	r3, [r5, #0]
 2329 2168 023083E0 		add	r3, r3, r2
 2330 216c 0030C4E5 		strb	r3, [r4, #0]
 2331 2170 140F9FE5 		ldr	r0, .L269+228
 2332 2174 FEFFFFEB 		bl	uart_transmit
 2333 2178 0110D6E5 		ldrb	r1, [r6, #1]	@ zero_extendqisi2
 2334 217c 0030D5E5 		ldrb	r3, [r5, #0]	@ zero_extendqisi2
 2335 2180 0020D4E5 		ldrb	r2, [r4, #0]	@ zero_extendqisi2
 2336 2184 033081E0 		add	r3, r1, r3
 2337 2188 FF3003E2 		and	r3, r3, #255
 2338 218c 0030C5E5 		strb	r3, [r5, #0]
 2339 2190 023083E0 		add	r3, r3, r2
 2340 2194 0030C4E5 		strb	r3, [r4, #0]
 2341 2198 EC0E9FE5 		ldr	r0, .L269+228
 2342 219c FEFFFFEB 		bl	uart_transmit
 2343 21a0 803E9FE5 		ldr	r3, .L269+128
 2344 21a4 0010D3E5 		ldrb	r1, [r3, #0]	@ zero_extendqisi2
 2345 21a8 0030D5E5 		ldrb	r3, [r5, #0]	@ zero_extendqisi2
 2346 21ac 0020D4E5 		ldrb	r2, [r4, #0]	@ zero_extendqisi2
 2347 21b0 033081E0 		add	r3, r1, r3
 2348 21b4 FF3003E2 		and	r3, r3, #255
 2349 21b8 0030C5E5 		strb	r3, [r5, #0]
 2350 21bc 023083E0 		add	r3, r3, r2
 2351 21c0 0030C4E5 		strb	r3, [r4, #0]
 2352 21c4 C00E9FE5 		ldr	r0, .L269+228
 2353 21c8 FEFFFFEB 		bl	uart_transmit
 2354 21cc 0E10DDE5 		ldrb	r1, [sp, #14]	@ zero_extendqisi2
 2355 21d0 0030D5E5 		ldrb	r3, [r5, #0]	@ zero_extendqisi2
 2356 21d4 0020D4E5 		ldrb	r2, [r4, #0]	@ zero_extendqisi2
 2357 21d8 033081E0 		add	r3, r1, r3
 2358 21dc FF3003E2 		and	r3, r3, #255
 2359 21e0 0030C5E5 		strb	r3, [r5, #0]
 2360 21e4 023083E0 		add	r3, r3, r2
 2361 21e8 0030C4E5 		strb	r3, [r4, #0]
 2362 21ec 980E9FE5 		ldr	r0, .L269+228
 2363 21f0 FEFFFFEB 		bl	uart_transmit
 2364 21f4 0F10DDE5 		ldrb	r1, [sp, #15]	@ zero_extendqisi2
 2365 21f8 0030D5E5 		ldrb	r3, [r5, #0]	@ zero_extendqisi2
 2366 21fc 0020D4E5 		ldrb	r2, [r4, #0]	@ zero_extendqisi2
 2367 2200 033081E0 		add	r3, r1, r3
 2368 2204 FF3003E2 		and	r3, r3, #255
 2369 2208 0030C5E5 		strb	r3, [r5, #0]
 2370 220c 9C6D9FE5 		ldr	r6, .L269+8
 2371 2210 023083E0 		add	r3, r3, r2
 2372 2214 0030C4E5 		strb	r3, [r4, #0]
 2373 2218 6C0E9FE5 		ldr	r0, .L269+228
 2374 221c FEFFFFEB 		bl	uart_transmit
 2375 2220 0010D6E5 		ldrb	r1, [r6, #0]	@ zero_extendqisi2
 2376 2224 0030D5E5 		ldrb	r3, [r5, #0]	@ zero_extendqisi2
 2377 2228 0020D4E5 		ldrb	r2, [r4, #0]	@ zero_extendqisi2
 2378 222c 033081E0 		add	r3, r1, r3
 2379 2230 FF3003E2 		and	r3, r3, #255
 2380 2234 0030C5E5 		strb	r3, [r5, #0]
 2381 2238 023083E0 		add	r3, r3, r2
 2382 223c 0030C4E5 		strb	r3, [r4, #0]
 2383 2240 440E9FE5 		ldr	r0, .L269+228
 2384 2244 FEFFFFEB 		bl	uart_transmit
 2385 2248 0110D6E5 		ldrb	r1, [r6, #1]	@ zero_extendqisi2
 2386 224c 0030D5E5 		ldrb	r3, [r5, #0]	@ zero_extendqisi2
 2387 2250 0020D4E5 		ldrb	r2, [r4, #0]	@ zero_extendqisi2
 2388 2254 033081E0 		add	r3, r1, r3
 2389 2258 FF3003E2 		and	r3, r3, #255
 2390 225c 0030C5E5 		strb	r3, [r5, #0]
 2391 2260 023083E0 		add	r3, r3, r2
 2392 2264 0030C4E5 		strb	r3, [r4, #0]
 2393 2268 1C0E9FE5 		ldr	r0, .L269+228
 2394 226c FEFFFFEB 		bl	uart_transmit
 2395 2270 3C3D9FE5 		ldr	r3, .L269+12
 2396 2274 0010D3E5 		ldrb	r1, [r3, #0]	@ zero_extendqisi2
 2397 2278 0030D5E5 		ldrb	r3, [r5, #0]	@ zero_extendqisi2
 2398 227c 0020D4E5 		ldrb	r2, [r4, #0]	@ zero_extendqisi2
 2399 2280 033081E0 		add	r3, r1, r3
 2400 2284 FF3003E2 		and	r3, r3, #255
 2401 2288 0030C5E5 		strb	r3, [r5, #0]
 2402 228c 246D9FE5 		ldr	r6, .L269+16
 2403 2290 023083E0 		add	r3, r3, r2
 2404 2294 0030C4E5 		strb	r3, [r4, #0]
 2405 2298 EC0D9FE5 		ldr	r0, .L269+228
 2406 229c FEFFFFEB 		bl	uart_transmit
 2407 22a0 0010D6E5 		ldrb	r1, [r6, #0]	@ zero_extendqisi2
 2408 22a4 0030D5E5 		ldrb	r3, [r5, #0]	@ zero_extendqisi2
 2409 22a8 0020D4E5 		ldrb	r2, [r4, #0]	@ zero_extendqisi2
 2410 22ac 033081E0 		add	r3, r1, r3
 2411 22b0 FF3003E2 		and	r3, r3, #255
 2412 22b4 0030C5E5 		strb	r3, [r5, #0]
 2413 22b8 023083E0 		add	r3, r3, r2
 2414 22bc 0030C4E5 		strb	r3, [r4, #0]
 2415 22c0 C40D9FE5 		ldr	r0, .L269+228
 2416 22c4 FEFFFFEB 		bl	uart_transmit
 2417 22c8 0110D6E5 		ldrb	r1, [r6, #1]	@ zero_extendqisi2
 2418 22cc 0030D5E5 		ldrb	r3, [r5, #0]	@ zero_extendqisi2
 2419 22d0 0020D4E5 		ldrb	r2, [r4, #0]	@ zero_extendqisi2
 2420 22d4 033081E0 		add	r3, r1, r3
 2421 22d8 FF3003E2 		and	r3, r3, #255
 2422 22dc 0030C5E5 		strb	r3, [r5, #0]
 2423 22e0 D46C9FE5 		ldr	r6, .L269+20
 2424 22e4 023083E0 		add	r3, r3, r2
 2425 22e8 0030C4E5 		strb	r3, [r4, #0]
 2426 22ec 980D9FE5 		ldr	r0, .L269+228
 2427 22f0 FEFFFFEB 		bl	uart_transmit
 2428 22f4 0010D6E5 		ldrb	r1, [r6, #0]	@ zero_extendqisi2
 2429 22f8 0030D5E5 		ldrb	r3, [r5, #0]	@ zero_extendqisi2
 2430 22fc 0020D4E5 		ldrb	r2, [r4, #0]	@ zero_extendqisi2
 2431 2300 033081E0 		add	r3, r1, r3
 2432 2304 FF3003E2 		and	r3, r3, #255
 2433 2308 0030C5E5 		strb	r3, [r5, #0]
 2434 230c 023083E0 		add	r3, r3, r2
 2435 2310 0030C4E5 		strb	r3, [r4, #0]
 2436 2314 700D9FE5 		ldr	r0, .L269+228
 2437 2318 FEFFFFEB 		bl	uart_transmit
 2438 231c 0110D6E5 		ldrb	r1, [r6, #1]	@ zero_extendqisi2
 2439 2320 0030D5E5 		ldrb	r3, [r5, #0]	@ zero_extendqisi2
 2440 2324 0020D4E5 		ldrb	r2, [r4, #0]	@ zero_extendqisi2
 2441 2328 033081E0 		add	r3, r1, r3
 2442 232c FF3003E2 		and	r3, r3, #255
 2443 2330 0030C5E5 		strb	r3, [r5, #0]
 2444 2334 023083E0 		add	r3, r3, r2
 2445 2338 0030C4E5 		strb	r3, [r4, #0]
 2446 233c 480D9FE5 		ldr	r0, .L269+228
 2447 2340 FEFFFFEB 		bl	uart_transmit
 2448 2344 0C10DDE5 		ldrb	r1, [sp, #12]	@ zero_extendqisi2
 2449 2348 0030D5E5 		ldrb	r3, [r5, #0]	@ zero_extendqisi2
 2450 234c 0020D4E5 		ldrb	r2, [r4, #0]	@ zero_extendqisi2
 2451 2350 033081E0 		add	r3, r1, r3
 2452 2354 FF3003E2 		and	r3, r3, #255
 2453 2358 0030C5E5 		strb	r3, [r5, #0]
 2454 235c 023083E0 		add	r3, r3, r2
 2455 2360 0030C4E5 		strb	r3, [r4, #0]
 2456 2364 200D9FE5 		ldr	r0, .L269+228
 2457 2368 FEFFFFEB 		bl	uart_transmit
 2458 236c 0D10DDE5 		ldrb	r1, [sp, #13]	@ zero_extendqisi2
 2459 2370 0030D5E5 		ldrb	r3, [r5, #0]	@ zero_extendqisi2
 2460 2374 0020D4E5 		ldrb	r2, [r4, #0]	@ zero_extendqisi2
 2461 2378 033081E0 		add	r3, r1, r3
 2462 237c FF3003E2 		and	r3, r3, #255
 2463 2380 0030C5E5 		strb	r3, [r5, #0]
 2464 2384 023083E0 		add	r3, r3, r2
 2465 2388 0030C4E5 		strb	r3, [r4, #0]
 2466 238c F80C9FE5 		ldr	r0, .L269+228
 2467 2390 FEFFFFEB 		bl	uart_transmit
 2468 2394 0010D5E5 		ldrb	r1, [r5, #0]	@ zero_extendqisi2
 2469 2398 EC0C9FE5 		ldr	r0, .L269+228
 2470 239c FEFFFFEB 		bl	uart_transmit
 2471 23a0 E40C9FE5 		ldr	r0, .L269+228
 2472 23a4 0010D4E5 		ldrb	r1, [r4, #0]	@ zero_extendqisi2
 2473 23a8 FEFFFFEB 		bl	uart_transmit
 2474 23ac 030000EA 		b	.L56
 2475              	.L57:
 2476 23b0 803C9FE5 		ldr	r3, .L269+144
 2477 23b4 0020D3E5 		ldrb	r2, [r3, #0]	@ zero_extendqisi2
 2478 23b8 012082E2 		add	r2, r2, #1
 2479 23bc 0020C3E5 		strb	r2, [r3, #0]
 2480              	.L56:
 2481 23c0 F83B9FE5 		ldr	r3, .L269+24
 2482 23c4 0030D3E5 		ldrb	r3, [r3, #0]	@ zero_extendqisi2
 2483 23c8 060053E3 		cmp	r3, #6
 2484 23cc C500001A 		bne	.L58
 2485 23d0 EC3B9FE5 		ldr	r3, .L269+28
 2486 23d4 0030D3E5 		ldrb	r3, [r3, #0]	@ zero_extendqisi2
 2487 23d8 000053E3 		cmp	r3, #0
 2488 23dc 5901000A 		beq	.L59
 2489 23e0 A40C9FE5 		ldr	r0, .L269+228
 2490 23e4 1610A0E3 		mov	r1, #22
 2491 23e8 FEFFFFEB 		bl	uart_check_free_space
 2492 23ec 000050E3 		cmp	r0, #0
 2493 23f0 5001000A 		beq	.L61
 2494 23f4 743C9FE5 		ldr	r3, .L269+200
 2495 23f8 B020D3E1 		ldrh	r2, [r3, #0]
 2496 23fc 162082E2 		add	r2, r2, #22
 2497 2400 B020C3E1 		strh	r2, [r3, #0]	@ movhi
 2498 2404 683C9FE5 		ldr	r3, .L269+204
 2499 2408 B020D3E1 		ldrh	r2, [r3, #0]
 2500 240c 012082E2 		add	r2, r2, #1
 2501 2410 B020C3E1 		strh	r2, [r3, #0]	@ movhi
 2502 2414 700C9FE5 		ldr	r0, .L269+228
 2503 2418 9910A0E3 		mov	r1, #153
 2504 241c 545C9FE5 		ldr	r5, .L269+208
 2505 2420 FEFFFFEB 		bl	uart_transmit
 2506 2424 600C9FE5 		ldr	r0, .L269+228
 2507 2428 1610A0E3 		mov	r1, #22
 2508 242c 484C9FE5 		ldr	r4, .L269+212
 2509 2430 FEFFFFEB 		bl	uart_transmit
 2510 2434 1730A0E3 		mov	r3, #23
 2511 2438 0030C5E5 		strb	r3, [r5, #0]
 2512 243c 2D30A0E3 		mov	r3, #45
 2513 2440 0030C4E5 		strb	r3, [r4, #0]
 2514 2444 400C9FE5 		ldr	r0, .L269+228
 2515 2448 0110A0E3 		mov	r1, #1
 2516 244c FEFFFFEB 		bl	uart_transmit
 2517 2450 0030D5E5 		ldrb	r3, [r5, #0]	@ zero_extendqisi2
 2518 2454 0020D4E5 		ldrb	r2, [r4, #0]	@ zero_extendqisi2
 2519 2458 163083E2 		add	r3, r3, #22
 2520 245c FF3003E2 		and	r3, r3, #255
 2521 2460 606B9FE5 		ldr	r6, .L269+32
 2522 2464 0030C5E5 		strb	r3, [r5, #0]
 2523 2468 023083E0 		add	r3, r3, r2
 2524 246c 0030C4E5 		strb	r3, [r4, #0]
 2525 2470 140C9FE5 		ldr	r0, .L269+228
 2526 2474 1610A0E3 		mov	r1, #22
 2527 2478 FEFFFFEB 		bl	uart_transmit
 2528 247c 0010D6E5 		ldrb	r1, [r6, #0]	@ zero_extendqisi2
 2529 2480 0030D5E5 		ldrb	r3, [r5, #0]	@ zero_extendqisi2
 2530 2484 0020D4E5 		ldrb	r2, [r4, #0]	@ zero_extendqisi2
 2531 2488 033081E0 		add	r3, r1, r3
 2532 248c FF3003E2 		and	r3, r3, #255
 2533 2490 0030C5E5 		strb	r3, [r5, #0]
 2534 2494 023083E0 		add	r3, r3, r2
 2535 2498 0030C4E5 		strb	r3, [r4, #0]
 2536 249c E80B9FE5 		ldr	r0, .L269+228
 2537 24a0 FEFFFFEB 		bl	uart_transmit
 2538 24a4 0110D6E5 		ldrb	r1, [r6, #1]	@ zero_extendqisi2
 2539 24a8 0030D5E5 		ldrb	r3, [r5, #0]	@ zero_extendqisi2
 2540 24ac 0020D4E5 		ldrb	r2, [r4, #0]	@ zero_extendqisi2
 2541 24b0 033081E0 		add	r3, r1, r3
 2542 24b4 FF3003E2 		and	r3, r3, #255
 2543 24b8 0030C5E5 		strb	r3, [r5, #0]
 2544 24bc 023083E0 		add	r3, r3, r2
 2545 24c0 0030C4E5 		strb	r3, [r4, #0]
 2546 24c4 C00B9FE5 		ldr	r0, .L269+228
 2547 24c8 FEFFFFEB 		bl	uart_transmit
 2548 24cc 0210D6E5 		ldrb	r1, [r6, #2]	@ zero_extendqisi2
 2549 24d0 0030D5E5 		ldrb	r3, [r5, #0]	@ zero_extendqisi2
 2550 24d4 0020D4E5 		ldrb	r2, [r4, #0]	@ zero_extendqisi2
 2551 24d8 033081E0 		add	r3, r1, r3
 2552 24dc FF3003E2 		and	r3, r3, #255
 2553 24e0 0030C5E5 		strb	r3, [r5, #0]
 2554 24e4 023083E0 		add	r3, r3, r2
 2555 24e8 0030C4E5 		strb	r3, [r4, #0]
 2556 24ec 980B9FE5 		ldr	r0, .L269+228
 2557 24f0 FEFFFFEB 		bl	uart_transmit
 2558 24f4 0310D6E5 		ldrb	r1, [r6, #3]	@ zero_extendqisi2
 2559 24f8 0030D5E5 		ldrb	r3, [r5, #0]	@ zero_extendqisi2
 2560 24fc 0020D4E5 		ldrb	r2, [r4, #0]	@ zero_extendqisi2
 2561 2500 033081E0 		add	r3, r1, r3
 2562 2504 FF3003E2 		and	r3, r3, #255
 2563 2508 BC6A9FE5 		ldr	r6, .L269+36
 2564 250c 0030C5E5 		strb	r3, [r5, #0]
 2565 2510 023083E0 		add	r3, r3, r2
 2566 2514 0030C4E5 		strb	r3, [r4, #0]
 2567 2518 6C0B9FE5 		ldr	r0, .L269+228
 2568 251c FEFFFFEB 		bl	uart_transmit
 2569 2520 0010D6E5 		ldrb	r1, [r6, #0]	@ zero_extendqisi2
 2570 2524 0030D5E5 		ldrb	r3, [r5, #0]	@ zero_extendqisi2
 2571 2528 0020D4E5 		ldrb	r2, [r4, #0]	@ zero_extendqisi2
 2572 252c 033081E0 		add	r3, r1, r3
 2573 2530 FF3003E2 		and	r3, r3, #255
 2574 2534 0030C5E5 		strb	r3, [r5, #0]
 2575 2538 023083E0 		add	r3, r3, r2
 2576 253c 0030C4E5 		strb	r3, [r4, #0]
 2577 2540 440B9FE5 		ldr	r0, .L269+228
 2578 2544 FEFFFFEB 		bl	uart_transmit
 2579 2548 0110D6E5 		ldrb	r1, [r6, #1]	@ zero_extendqisi2
 2580 254c 0030D5E5 		ldrb	r3, [r5, #0]	@ zero_extendqisi2
 2581 2550 0020D4E5 		ldrb	r2, [r4, #0]	@ zero_extendqisi2
 2582 2554 033081E0 		add	r3, r1, r3
 2583 2558 FF3003E2 		and	r3, r3, #255
 2584 255c 0030C5E5 		strb	r3, [r5, #0]
 2585 2560 023083E0 		add	r3, r3, r2
 2586 2564 0030C4E5 		strb	r3, [r4, #0]
 2587 2568 1C0B9FE5 		ldr	r0, .L269+228
 2588 256c FEFFFFEB 		bl	uart_transmit
 2589 2570 0210D6E5 		ldrb	r1, [r6, #2]	@ zero_extendqisi2
 2590 2574 0030D5E5 		ldrb	r3, [r5, #0]	@ zero_extendqisi2
 2591 2578 0020D4E5 		ldrb	r2, [r4, #0]	@ zero_extendqisi2
 2592 257c 033081E0 		add	r3, r1, r3
 2593 2580 FF3003E2 		and	r3, r3, #255
 2594 2584 0030C5E5 		strb	r3, [r5, #0]
 2595 2588 023083E0 		add	r3, r3, r2
 2596 258c 0030C4E5 		strb	r3, [r4, #0]
 2597 2590 F40A9FE5 		ldr	r0, .L269+228
 2598 2594 FEFFFFEB 		bl	uart_transmit
 2599 2598 0310D6E5 		ldrb	r1, [r6, #3]	@ zero_extendqisi2
 2600 259c 0030D5E5 		ldrb	r3, [r5, #0]	@ zero_extendqisi2
 2601 25a0 0020D4E5 		ldrb	r2, [r4, #0]	@ zero_extendqisi2
 2602 25a4 033081E0 		add	r3, r1, r3
 2603 25a8 FF3003E2 		and	r3, r3, #255
 2604 25ac 1C6A9FE5 		ldr	r6, .L269+40
 2605 25b0 0030C5E5 		strb	r3, [r5, #0]
 2606 25b4 023083E0 		add	r3, r3, r2
 2607 25b8 0030C4E5 		strb	r3, [r4, #0]
 2608 25bc C80A9FE5 		ldr	r0, .L269+228
 2609 25c0 FEFFFFEB 		bl	uart_transmit
 2610 25c4 0010D6E5 		ldrb	r1, [r6, #0]	@ zero_extendqisi2
 2611 25c8 0030D5E5 		ldrb	r3, [r5, #0]	@ zero_extendqisi2
 2612 25cc 0020D4E5 		ldrb	r2, [r4, #0]	@ zero_extendqisi2
 2613 25d0 033081E0 		add	r3, r1, r3
 2614 25d4 FF3003E2 		and	r3, r3, #255
 2615 25d8 0030C5E5 		strb	r3, [r5, #0]
 2616 25dc 023083E0 		add	r3, r3, r2
 2617 25e0 0030C4E5 		strb	r3, [r4, #0]
 2618 25e4 A00A9FE5 		ldr	r0, .L269+228
 2619 25e8 FEFFFFEB 		bl	uart_transmit
 2620 25ec 0110D6E5 		ldrb	r1, [r6, #1]	@ zero_extendqisi2
 2621 25f0 0030D5E5 		ldrb	r3, [r5, #0]	@ zero_extendqisi2
 2622 25f4 0020D4E5 		ldrb	r2, [r4, #0]	@ zero_extendqisi2
 2623 25f8 033081E0 		add	r3, r1, r3
 2624 25fc FF3003E2 		and	r3, r3, #255
 2625 2600 0030C5E5 		strb	r3, [r5, #0]
 2626 2604 023083E0 		add	r3, r3, r2
 2627 2608 0030C4E5 		strb	r3, [r4, #0]
 2628 260c 780A9FE5 		ldr	r0, .L269+228
 2629 2610 FEFFFFEB 		bl	uart_transmit
 2630 2614 0210D6E5 		ldrb	r1, [r6, #2]	@ zero_extendqisi2
 2631 2618 0030D5E5 		ldrb	r3, [r5, #0]	@ zero_extendqisi2
 2632 261c 0020D4E5 		ldrb	r2, [r4, #0]	@ zero_extendqisi2
 2633 2620 033081E0 		add	r3, r1, r3
 2634 2624 FF3003E2 		and	r3, r3, #255
 2635 2628 0030C5E5 		strb	r3, [r5, #0]
 2636 262c 023083E0 		add	r3, r3, r2
 2637 2630 0030C4E5 		strb	r3, [r4, #0]
 2638 2634 500A9FE5 		ldr	r0, .L269+228
 2639 2638 FEFFFFEB 		bl	uart_transmit
 2640 263c 0310D6E5 		ldrb	r1, [r6, #3]	@ zero_extendqisi2
 2641 2640 0030D5E5 		ldrb	r3, [r5, #0]	@ zero_extendqisi2
 2642 2644 0020D4E5 		ldrb	r2, [r4, #0]	@ zero_extendqisi2
 2643 2648 033081E0 		add	r3, r1, r3
 2644 264c FF3003E2 		and	r3, r3, #255
 2645 2650 7C699FE5 		ldr	r6, .L269+44
 2646 2654 0030C5E5 		strb	r3, [r5, #0]
 2647 2658 023083E0 		add	r3, r3, r2
 2648 265c 0030C4E5 		strb	r3, [r4, #0]
 2649 2660 240A9FE5 		ldr	r0, .L269+228
 2650 2664 FEFFFFEB 		bl	uart_transmit
 2651 2668 0010D6E5 		ldrb	r1, [r6, #0]	@ zero_extendqisi2
 2652 266c 0030D5E5 		ldrb	r3, [r5, #0]	@ zero_extendqisi2
 2653 2670 0020D4E5 		ldrb	r2, [r4, #0]	@ zero_extendqisi2
 2654 2674 033081E0 		add	r3, r1, r3
 2655 2678 FF3003E2 		and	r3, r3, #255
 2656 267c 0030C5E5 		strb	r3, [r5, #0]
 2657 2680 023083E0 		add	r3, r3, r2
 2658 2684 0030C4E5 		strb	r3, [r4, #0]
 2659 2688 FC099FE5 		ldr	r0, .L269+228
 2660 268c FEFFFFEB 		bl	uart_transmit
 2661 2690 0110D6E5 		ldrb	r1, [r6, #1]	@ zero_extendqisi2
 2662 2694 0030D5E5 		ldrb	r3, [r5, #0]	@ zero_extendqisi2
 2663 2698 0020D4E5 		ldrb	r2, [r4, #0]	@ zero_extendqisi2
 2664 269c 033081E0 		add	r3, r1, r3
 2665 26a0 FF3003E2 		and	r3, r3, #255
 2666 26a4 0030C5E5 		strb	r3, [r5, #0]
 2667 26a8 023083E0 		add	r3, r3, r2
 2668 26ac 0030C4E5 		strb	r3, [r4, #0]
 2669 26b0 D4099FE5 		ldr	r0, .L269+228
 2670 26b4 FEFFFFEB 		bl	uart_transmit
 2671 26b8 0210D6E5 		ldrb	r1, [r6, #2]	@ zero_extendqisi2
 2672 26bc 0030D5E5 		ldrb	r3, [r5, #0]	@ zero_extendqisi2
 2673 26c0 0020D4E5 		ldrb	r2, [r4, #0]	@ zero_extendqisi2
 2674 26c4 033081E0 		add	r3, r1, r3
 2675 26c8 FF3003E2 		and	r3, r3, #255
 2676 26cc 0030C5E5 		strb	r3, [r5, #0]
 2677 26d0 023083E0 		add	r3, r3, r2
 2678 26d4 0030C4E5 		strb	r3, [r4, #0]
 2679 26d8 AC099FE5 		ldr	r0, .L269+228
 2680 26dc FEFFFFEB 		bl	uart_transmit
 2681 26e0 0310D6E5 		ldrb	r1, [r6, #3]	@ zero_extendqisi2
 2682 26e4 830000EA 		b	.L246
 2683              	.L58:
 2684 26e8 0C0053E3 		cmp	r3, #12
 2685 26ec 9500001A 		bne	.L59
 2686 26f0 94099FE5 		ldr	r0, .L269+228
 2687 26f4 1010A0E3 		mov	r1, #16
 2688 26f8 FEFFFFEB 		bl	uart_check_free_space
 2689 26fc 000050E3 		cmp	r0, #0
 2690 2700 8C00000A 		beq	.L61
 2691 2704 64399FE5 		ldr	r3, .L269+200
 2692 2708 B020D3E1 		ldrh	r2, [r3, #0]
 2693 270c 102082E2 		add	r2, r2, #16
 2694 2710 B020C3E1 		strh	r2, [r3, #0]	@ movhi
 2695 2714 58399FE5 		ldr	r3, .L269+204
 2696 2718 B020D3E1 		ldrh	r2, [r3, #0]
 2697 271c 012082E2 		add	r2, r2, #1
 2698 2720 B020C3E1 		strh	r2, [r3, #0]	@ movhi
 2699 2724 60099FE5 		ldr	r0, .L269+228
 2700 2728 9910A0E3 		mov	r1, #153
 2701 272c 44599FE5 		ldr	r5, .L269+208
 2702 2730 FEFFFFEB 		bl	uart_transmit
 2703 2734 50099FE5 		ldr	r0, .L269+228
 2704 2738 1010A0E3 		mov	r1, #16
 2705 273c 38499FE5 		ldr	r4, .L269+212
 2706 2740 FEFFFFEB 		bl	uart_transmit
 2707 2744 1130A0E3 		mov	r3, #17
 2708 2748 0030C5E5 		strb	r3, [r5, #0]
 2709 274c 2130A0E3 		mov	r3, #33
 2710 2750 0030C4E5 		strb	r3, [r4, #0]
 2711 2754 30099FE5 		ldr	r0, .L269+228
 2712 2758 0110A0E3 		mov	r1, #1
 2713 275c FEFFFFEB 		bl	uart_transmit
 2714 2760 0030D5E5 		ldrb	r3, [r5, #0]	@ zero_extendqisi2
 2715 2764 0020D4E5 		ldrb	r2, [r4, #0]	@ zero_extendqisi2
 2716 2768 073083E2 		add	r3, r3, #7
 2717 276c FF3003E2 		and	r3, r3, #255
 2718 2770 E0689FE5 		ldr	r6, .L269+176
 2719 2774 0030C5E5 		strb	r3, [r5, #0]
 2720 2778 023083E0 		add	r3, r3, r2
 2721 277c 0030C4E5 		strb	r3, [r4, #0]
 2722 2780 04099FE5 		ldr	r0, .L269+228
 2723 2784 0710A0E3 		mov	r1, #7
 2724 2788 FEFFFFEB 		bl	uart_transmit
 2725 278c 0010D6E5 		ldrb	r1, [r6, #0]	@ zero_extendqisi2
 2726 2790 0030D5E5 		ldrb	r3, [r5, #0]	@ zero_extendqisi2
 2727 2794 0020D4E5 		ldrb	r2, [r4, #0]	@ zero_extendqisi2
 2728 2798 033081E0 		add	r3, r1, r3
 2729 279c FF3003E2 		and	r3, r3, #255
 2730 27a0 0030C5E5 		strb	r3, [r5, #0]
 2731 27a4 023083E0 		add	r3, r3, r2
 2732 27a8 0030C4E5 		strb	r3, [r4, #0]
 2733 27ac D8089FE5 		ldr	r0, .L269+228
 2734 27b0 FEFFFFEB 		bl	uart_transmit
 2735 27b4 0110D6E5 		ldrb	r1, [r6, #1]	@ zero_extendqisi2
 2736 27b8 0030D5E5 		ldrb	r3, [r5, #0]	@ zero_extendqisi2
 2737 27bc 0020D4E5 		ldrb	r2, [r4, #0]	@ zero_extendqisi2
 2738 27c0 033081E0 		add	r3, r1, r3
 2739 27c4 FF3003E2 		and	r3, r3, #255
 2740 27c8 0030C5E5 		strb	r3, [r5, #0]
 2741 27cc 023083E0 		add	r3, r3, r2
 2742 27d0 0030C4E5 		strb	r3, [r4, #0]
 2743 27d4 B0089FE5 		ldr	r0, .L269+228
 2744 27d8 FEFFFFEB 		bl	uart_transmit
 2745 27dc 0210D6E5 		ldrb	r1, [r6, #2]	@ zero_extendqisi2
 2746 27e0 0030D5E5 		ldrb	r3, [r5, #0]	@ zero_extendqisi2
 2747 27e4 0020D4E5 		ldrb	r2, [r4, #0]	@ zero_extendqisi2
 2748 27e8 033081E0 		add	r3, r1, r3
 2749 27ec FF3003E2 		and	r3, r3, #255
 2750 27f0 0030C5E5 		strb	r3, [r5, #0]
 2751 27f4 023083E0 		add	r3, r3, r2
 2752 27f8 0030C4E5 		strb	r3, [r4, #0]
 2753 27fc 88089FE5 		ldr	r0, .L269+228
 2754 2800 FEFFFFEB 		bl	uart_transmit
 2755 2804 0310D6E5 		ldrb	r1, [r6, #3]	@ zero_extendqisi2
 2756 2808 0030D5E5 		ldrb	r3, [r5, #0]	@ zero_extendqisi2
 2757 280c 0020D4E5 		ldrb	r2, [r4, #0]	@ zero_extendqisi2
 2758 2810 033081E0 		add	r3, r1, r3
 2759 2814 FF3003E2 		and	r3, r3, #255
 2760 2818 0030C5E5 		strb	r3, [r5, #0]
 2761 281c 023083E0 		add	r3, r3, r2
 2762 2820 0030C4E5 		strb	r3, [r4, #0]
 2763 2824 60089FE5 		ldr	r0, .L269+228
 2764 2828 FEFFFFEB 		bl	uart_transmit
 2765 282c 1610D6E5 		ldrb	r1, [r6, #22]	@ zero_extendqisi2
 2766 2830 0030D5E5 		ldrb	r3, [r5, #0]	@ zero_extendqisi2
 2767 2834 0020D4E5 		ldrb	r2, [r4, #0]	@ zero_extendqisi2
 2768 2838 033081E0 		add	r3, r1, r3
 2769 283c FF3003E2 		and	r3, r3, #255
 2770 2840 0030C5E5 		strb	r3, [r5, #0]
 2771 2844 023083E0 		add	r3, r3, r2
 2772 2848 0030C4E5 		strb	r3, [r4, #0]
 2773 284c 38089FE5 		ldr	r0, .L269+228
 2774 2850 FEFFFFEB 		bl	uart_transmit
 2775 2854 1710D6E5 		ldrb	r1, [r6, #23]	@ zero_extendqisi2
 2776 2858 0030D5E5 		ldrb	r3, [r5, #0]	@ zero_extendqisi2
 2777 285c 0020D4E5 		ldrb	r2, [r4, #0]	@ zero_extendqisi2
 2778 2860 033081E0 		add	r3, r1, r3
 2779 2864 FF3003E2 		and	r3, r3, #255
 2780 2868 0030C5E5 		strb	r3, [r5, #0]
 2781 286c 023083E0 		add	r3, r3, r2
 2782 2870 0030C4E5 		strb	r3, [r4, #0]
 2783 2874 10089FE5 		ldr	r0, .L269+228
 2784 2878 FEFFFFEB 		bl	uart_transmit
 2785 287c 1410D6E5 		ldrb	r1, [r6, #20]	@ zero_extendqisi2
 2786 2880 0030D5E5 		ldrb	r3, [r5, #0]	@ zero_extendqisi2
 2787 2884 0020D4E5 		ldrb	r2, [r4, #0]	@ zero_extendqisi2
 2788 2888 033081E0 		add	r3, r1, r3
 2789 288c FF3003E2 		and	r3, r3, #255
 2790 2890 0030C5E5 		strb	r3, [r5, #0]
 2791 2894 023083E0 		add	r3, r3, r2
 2792 2898 0030C4E5 		strb	r3, [r4, #0]
 2793 289c E8079FE5 		ldr	r0, .L269+228
 2794 28a0 FEFFFFEB 		bl	uart_transmit
 2795 28a4 1510D6E5 		ldrb	r1, [r6, #21]	@ zero_extendqisi2
 2796 28a8 0030D5E5 		ldrb	r3, [r5, #0]	@ zero_extendqisi2
 2797 28ac 0020D4E5 		ldrb	r2, [r4, #0]	@ zero_extendqisi2
 2798 28b0 033081E0 		add	r3, r1, r3
 2799 28b4 FF3003E2 		and	r3, r3, #255
 2800 28b8 0030C5E5 		strb	r3, [r5, #0]
 2801 28bc 023083E0 		add	r3, r3, r2
 2802 28c0 0030C4E5 		strb	r3, [r4, #0]
 2803 28c4 C0079FE5 		ldr	r0, .L269+228
 2804 28c8 FEFFFFEB 		bl	uart_transmit
 2805 28cc 1810D6E5 		ldrb	r1, [r6, #24]	@ zero_extendqisi2
 2806 28d0 0030D5E5 		ldrb	r3, [r5, #0]	@ zero_extendqisi2
 2807 28d4 0020D4E5 		ldrb	r2, [r4, #0]	@ zero_extendqisi2
 2808 28d8 033081E0 		add	r3, r1, r3
 2809 28dc FF3003E2 		and	r3, r3, #255
 2810 28e0 0030C5E5 		strb	r3, [r5, #0]
 2811 28e4 023083E0 		add	r3, r3, r2
 2812 28e8 0030C4E5 		strb	r3, [r4, #0]
 2813 28ec 98079FE5 		ldr	r0, .L269+228
 2814 28f0 FEFFFFEB 		bl	uart_transmit
 2815 28f4 1910D6E5 		ldrb	r1, [r6, #25]	@ zero_extendqisi2
 2816              	.L246:
 2817 28f8 0030D5E5 		ldrb	r3, [r5, #0]	@ zero_extendqisi2
 2818 28fc 0020D4E5 		ldrb	r2, [r4, #0]	@ zero_extendqisi2
 2819 2900 033081E0 		add	r3, r1, r3
 2820 2904 FF3003E2 		and	r3, r3, #255
 2821 2908 0030C5E5 		strb	r3, [r5, #0]
 2822 290c 023083E0 		add	r3, r3, r2
 2823 2910 0030C4E5 		strb	r3, [r4, #0]
 2824 2914 70079FE5 		ldr	r0, .L269+228
 2825 2918 FEFFFFEB 		bl	uart_transmit
 2826 291c 0010D5E5 		ldrb	r1, [r5, #0]	@ zero_extendqisi2
 2827 2920 64079FE5 		ldr	r0, .L269+228
 2828 2924 FEFFFFEB 		bl	uart_transmit
 2829 2928 5C079FE5 		ldr	r0, .L269+228
 2830 292c 0010D4E5 		ldrb	r1, [r4, #0]	@ zero_extendqisi2
 2831 2930 FEFFFFEB 		bl	uart_transmit
 2832 2934 030000EA 		b	.L59
 2833              	.L61:
 2834 2938 F8369FE5 		ldr	r3, .L269+144
 2835 293c 0020D3E5 		ldrb	r2, [r3, #0]	@ zero_extendqisi2
 2836 2940 012082E2 		add	r2, r2, #1
 2837 2944 0020C3E5 		strb	r2, [r3, #0]
 2838              	.L59:
 2839 2948 88369FE5 		ldr	r3, .L269+48
 2840 294c 0030D3E5 		ldrb	r3, [r3, #0]	@ zero_extendqisi2
 2841 2950 120053E3 		cmp	r3, #18
 2842 2954 9900001A 		bne	.L62
 2843 2958 7C369FE5 		ldr	r3, .L269+52
 2844 295c 0020D3E5 		ldrb	r2, [r3, #0]	@ zero_extendqisi2
 2845 2960 0A0052E3 		cmp	r2, #10
 2846 2964 0020A083 		movhi	r2, #0
 2847 2968 0020C385 		strhib	r2, [r3, #0]
 2848 296c 0030D3E5 		ldrb	r3, [r3, #0]	@ zero_extendqisi2
 2849 2970 0A0053E3 		cmp	r3, #10
 2850 2974 03F19F97 		ldrls	pc, [pc, r3, asl #2]
 2851 2978 260000EA 		b	.L64
 2852              	.L76:
 2853 297c A8290000 		.word	.L65
 2854 2980 B0290000 		.word	.L66
 2855 2984 C4290000 		.word	.L67
 2856 2988 CC290000 		.word	.L68
 2857 298c D4290000 		.word	.L69
 2858 2990 DC290000 		.word	.L70
 2859 2994 E8290000 		.word	.L71
 2860 2998 F4290000 		.word	.L72
 2861 299c FC290000 		.word	.L73
 2862 29a0 042A0000 		.word	.L74
 2863 29a4 0C2A0000 		.word	.L75
 2864              	.L65:
 2865 29a8 E4369FE5 		ldr	r3, .L269+236
 2866 29ac 000000EA 		b	.L247
 2867              	.L66:
 2868 29b0 28369FE5 		ldr	r3, .L269+56
 2869              	.L247:
 2870 29b4 0000D3E5 		ldrb	r0, [r3, #0]	@ zero_extendqisi2
 2871              	.L248:
 2872 29b8 FEFFFFEB 		bl	__aeabi_ui2f
 2873 29bc 04008DE5 		str	r0, [sp, #4]	@ float
 2874 29c0 160000EA 		b	.L77
 2875              	.L67:
 2876 29c4 18369FE5 		ldr	r3, .L269+60
 2877 29c8 070000EA 		b	.L261
 2878              	.L68:
 2879 29cc 14369FE5 		ldr	r3, .L269+64
 2880 29d0 050000EA 		b	.L261
 2881              	.L69:
 2882 29d4 10369FE5 		ldr	r3, .L269+68
 2883 29d8 030000EA 		b	.L261
 2884              	.L70:
 2885 29dc CC359FE5 		ldr	r3, .L269+8
 2886 29e0 B000D3E1 		ldrh	r0, [r3, #0]
 2887 29e4 F3FFFFEA 		b	.L248
 2888              	.L71:
 2889 29e8 00369FE5 		ldr	r3, .L269+72
 2890              	.L261:
 2891 29ec 003093E5 		ldr	r3, [r3, #0]	@ float
 2892 29f0 090000EA 		b	.L249
 2893              	.L72:
 2894 29f4 48369FE5 		ldr	r3, .L269+156
 2895 29f8 EDFFFFEA 		b	.L247
 2896              	.L73:
 2897 29fc F0359FE5 		ldr	r3, .L269+76
 2898 2a00 EBFFFFEA 		b	.L247
 2899              	.L74:
 2900 2a04 A8359FE5 		ldr	r3, .L269+12
 2901 2a08 E9FFFFEA 		b	.L247
 2902              	.L75:
 2903 2a0c E4359FE5 		ldr	r3, .L269+80
 2904 2a10 B00FD3E1 		ldrh	r0, [r3, #240]
 2905 2a14 E7FFFFEA 		b	.L248
 2906              	.L64:
 2907 2a18 0030A0E3 		mov	r3, #0
 2908              	.L249:
 2909 2a1c 04308DE5 		str	r3, [sp, #4]	@ float
 2910              	.L77:
 2911 2a20 64069FE5 		ldr	r0, .L269+228
 2912 2a24 0B10A0E3 		mov	r1, #11
 2913 2a28 FEFFFFEB 		bl	uart_check_free_space
 2914 2a2c 000050E3 		cmp	r0, #0
 2915 2a30 5A00000A 		beq	.L78
 2916 2a34 34369FE5 		ldr	r3, .L269+200
 2917 2a38 B020D3E1 		ldrh	r2, [r3, #0]
 2918 2a3c 0B2082E2 		add	r2, r2, #11
 2919 2a40 B020C3E1 		strh	r2, [r3, #0]	@ movhi
 2920 2a44 28369FE5 		ldr	r3, .L269+204
 2921 2a48 B020D3E1 		ldrh	r2, [r3, #0]
 2922 2a4c 012082E2 		add	r2, r2, #1
 2923 2a50 B020C3E1 		strh	r2, [r3, #0]	@ movhi
 2924 2a54 30069FE5 		ldr	r0, .L269+228
 2925 2a58 9910A0E3 		mov	r1, #153
 2926 2a5c 14569FE5 		ldr	r5, .L269+208
 2927 2a60 FEFFFFEB 		bl	uart_transmit
 2928 2a64 20069FE5 		ldr	r0, .L269+228
 2929 2a68 0B10A0E3 		mov	r1, #11
 2930 2a6c 08469FE5 		ldr	r4, .L269+212
 2931 2a70 FEFFFFEB 		bl	uart_transmit
 2932 2a74 0C30A0E3 		mov	r3, #12
 2933 2a78 0030C5E5 		strb	r3, [r5, #0]
 2934 2a7c 1730A0E3 		mov	r3, #23
 2935 2a80 0030C4E5 		strb	r3, [r4, #0]
 2936 2a84 00069FE5 		ldr	r0, .L269+228
 2937 2a88 0110A0E3 		mov	r1, #1
 2938 2a8c FEFFFFEB 		bl	uart_transmit
 2939 2a90 0030D5E5 		ldrb	r3, [r5, #0]	@ zero_extendqisi2
 2940 2a94 0020D4E5 		ldrb	r2, [r4, #0]	@ zero_extendqisi2
 2941 2a98 1F3083E2 		add	r3, r3, #31
 2942 2a9c FF3003E2 		and	r3, r3, #255
 2943 2aa0 0030C5E5 		strb	r3, [r5, #0]
 2944 2aa4 023083E0 		add	r3, r3, r2
 2945 2aa8 0030C4E5 		strb	r3, [r4, #0]
 2946 2aac D8059FE5 		ldr	r0, .L269+228
 2947 2ab0 1F10A0E3 		mov	r1, #31
 2948 2ab4 FEFFFFEB 		bl	uart_transmit
 2949 2ab8 1C359FE5 		ldr	r3, .L269+52
 2950 2abc 0010D3E5 		ldrb	r1, [r3, #0]	@ zero_extendqisi2
 2951 2ac0 0030D5E5 		ldrb	r3, [r5, #0]	@ zero_extendqisi2
 2952 2ac4 0020D4E5 		ldrb	r2, [r4, #0]	@ zero_extendqisi2
 2953 2ac8 033081E0 		add	r3, r1, r3
 2954 2acc FF3003E2 		and	r3, r3, #255
 2955 2ad0 0030C5E5 		strb	r3, [r5, #0]
 2956 2ad4 023083E0 		add	r3, r3, r2
 2957 2ad8 0030C4E5 		strb	r3, [r4, #0]
 2958 2adc A8059FE5 		ldr	r0, .L269+228
 2959 2ae0 FEFFFFEB 		bl	uart_transmit
 2960 2ae4 0410DDE5 		ldrb	r1, [sp, #4]	@ zero_extendqisi2
 2961 2ae8 0030D5E5 		ldrb	r3, [r5, #0]	@ zero_extendqisi2
 2962 2aec 0020D4E5 		ldrb	r2, [r4, #0]	@ zero_extendqisi2
 2963 2af0 033081E0 		add	r3, r1, r3
 2964 2af4 FF3003E2 		and	r3, r3, #255
 2965 2af8 0030C5E5 		strb	r3, [r5, #0]
 2966 2afc 023083E0 		add	r3, r3, r2
 2967 2b00 0030C4E5 		strb	r3, [r4, #0]
 2968 2b04 80059FE5 		ldr	r0, .L269+228
 2969 2b08 FEFFFFEB 		bl	uart_transmit
 2970 2b0c 0510DDE5 		ldrb	r1, [sp, #5]	@ zero_extendqisi2
 2971 2b10 0030D5E5 		ldrb	r3, [r5, #0]	@ zero_extendqisi2
 2972 2b14 0020D4E5 		ldrb	r2, [r4, #0]	@ zero_extendqisi2
 2973 2b18 033081E0 		add	r3, r1, r3
 2974 2b1c FF3003E2 		and	r3, r3, #255
 2975 2b20 0030C5E5 		strb	r3, [r5, #0]
 2976 2b24 023083E0 		add	r3, r3, r2
 2977 2b28 0030C4E5 		strb	r3, [r4, #0]
 2978 2b2c 58059FE5 		ldr	r0, .L269+228
 2979 2b30 FEFFFFEB 		bl	uart_transmit
 2980 2b34 0610DDE5 		ldrb	r1, [sp, #6]	@ zero_extendqisi2
 2981 2b38 0030D5E5 		ldrb	r3, [r5, #0]	@ zero_extendqisi2
 2982 2b3c 0020D4E5 		ldrb	r2, [r4, #0]	@ zero_extendqisi2
 2983 2b40 033081E0 		add	r3, r1, r3
 2984 2b44 FF3003E2 		and	r3, r3, #255
 2985 2b48 0030C5E5 		strb	r3, [r5, #0]
 2986 2b4c 023083E0 		add	r3, r3, r2
 2987 2b50 0030C4E5 		strb	r3, [r4, #0]
 2988 2b54 30059FE5 		ldr	r0, .L269+228
 2989 2b58 FEFFFFEB 		bl	uart_transmit
 2990 2b5c 0710DDE5 		ldrb	r1, [sp, #7]	@ zero_extendqisi2
 2991 2b60 0030D5E5 		ldrb	r3, [r5, #0]	@ zero_extendqisi2
 2992 2b64 0020D4E5 		ldrb	r2, [r4, #0]	@ zero_extendqisi2
 2993 2b68 033081E0 		add	r3, r1, r3
 2994 2b6c FF3003E2 		and	r3, r3, #255
 2995 2b70 0030C5E5 		strb	r3, [r5, #0]
 2996 2b74 023083E0 		add	r3, r3, r2
 2997 2b78 0030C4E5 		strb	r3, [r4, #0]
 2998 2b7c 08059FE5 		ldr	r0, .L269+228
 2999 2b80 FEFFFFEB 		bl	uart_transmit
 3000 2b84 0010D5E5 		ldrb	r1, [r5, #0]	@ zero_extendqisi2
 3001 2b88 FC049FE5 		ldr	r0, .L269+228
 3002 2b8c FEFFFFEB 		bl	uart_transmit
 3003 2b90 F4049FE5 		ldr	r0, .L269+228
 3004 2b94 0010D4E5 		ldrb	r1, [r4, #0]	@ zero_extendqisi2
 3005 2b98 FEFFFFEB 		bl	uart_transmit
 3006 2b9c 030000EA 		b	.L79
 3007              	.L78:
 3008 2ba0 90349FE5 		ldr	r3, .L269+144
 3009 2ba4 0020D3E5 		ldrb	r2, [r3, #0]	@ zero_extendqisi2
 3010 2ba8 012082E2 		add	r2, r2, #1
 3011 2bac 0020C3E5 		strb	r2, [r3, #0]
 3012              	.L79:
 3013 2bb0 24349FE5 		ldr	r3, .L269+52
 3014 2bb4 0020D3E5 		ldrb	r2, [r3, #0]	@ zero_extendqisi2
 3015 2bb8 012082E2 		add	r2, r2, #1
 3016 2bbc 0020C3E5 		strb	r2, [r3, #0]
 3017              	.L62:
 3018 2bc0 34349FE5 		ldr	r3, .L269+84
 3019 2bc4 0030D3E5 		ldrb	r3, [r3, #0]	@ zero_extendqisi2
 3020 2bc8 180053E3 		cmp	r3, #24
 3021 2bcc 9F00001A 		bne	.L80
 3022 2bd0 B4049FE5 		ldr	r0, .L269+228
 3023 2bd4 1110A0E3 		mov	r1, #17
 3024 2bd8 FEFFFFEB 		bl	uart_check_free_space
 3025 2bdc 000050E3 		cmp	r0, #0
 3026 2be0 9600000A 		beq	.L81
 3027 2be4 84349FE5 		ldr	r3, .L269+200
 3028 2be8 B020D3E1 		ldrh	r2, [r3, #0]
 3029 2bec 112082E2 		add	r2, r2, #17
 3030 2bf0 B020C3E1 		strh	r2, [r3, #0]	@ movhi
 3031 2bf4 78349FE5 		ldr	r3, .L269+204
 3032 2bf8 B020D3E1 		ldrh	r2, [r3, #0]
 3033 2bfc 012082E2 		add	r2, r2, #1
 3034 2c00 B020C3E1 		strh	r2, [r3, #0]	@ movhi
 3035 2c04 80049FE5 		ldr	r0, .L269+228
 3036 2c08 9910A0E3 		mov	r1, #153
 3037 2c0c 64549FE5 		ldr	r5, .L269+208
 3038 2c10 FEFFFFEB 		bl	uart_transmit
 3039 2c14 70049FE5 		ldr	r0, .L269+228
 3040 2c18 1110A0E3 		mov	r1, #17
 3041 2c1c 58449FE5 		ldr	r4, .L269+212
 3042 2c20 FEFFFFEB 		bl	uart_transmit
 3043 2c24 1230A0E3 		mov	r3, #18
 3044 2c28 0030C5E5 		strb	r3, [r5, #0]
 3045 2c2c 2330A0E3 		mov	r3, #35
 3046 2c30 0030C4E5 		strb	r3, [r4, #0]
 3047 2c34 50049FE5 		ldr	r0, .L269+228
 3048 2c38 0110A0E3 		mov	r1, #1
 3049 2c3c FEFFFFEB 		bl	uart_transmit
 3050 2c40 0030D5E5 		ldrb	r3, [r5, #0]	@ zero_extendqisi2
 3051 2c44 0020D4E5 		ldrb	r2, [r4, #0]	@ zero_extendqisi2
 3052 2c48 113083E2 		add	r3, r3, #17
 3053 2c4c FF3003E2 		and	r3, r3, #255
 3054 2c50 A0639FE5 		ldr	r6, .L269+80
 3055 2c54 0030C5E5 		strb	r3, [r5, #0]
 3056 2c58 023083E0 		add	r3, r3, r2
 3057 2c5c 0030C4E5 		strb	r3, [r4, #0]
 3058 2c60 24049FE5 		ldr	r0, .L269+228
 3059 2c64 1110A0E3 		mov	r1, #17
 3060 2c68 FEFFFFEB 		bl	uart_transmit
 3061 2c6c 4C10D6E5 		ldrb	r1, [r6, #76]	@ zero_extendqisi2
 3062 2c70 0030D5E5 		ldrb	r3, [r5, #0]	@ zero_extendqisi2
 3063 2c74 0020D4E5 		ldrb	r2, [r4, #0]	@ zero_extendqisi2
 3064 2c78 033081E0 		add	r3, r1, r3
 3065 2c7c FF3003E2 		and	r3, r3, #255
 3066 2c80 0030C5E5 		strb	r3, [r5, #0]
 3067 2c84 023083E0 		add	r3, r3, r2
 3068 2c88 0030C4E5 		strb	r3, [r4, #0]
 3069 2c8c F8039FE5 		ldr	r0, .L269+228
 3070 2c90 FEFFFFEB 		bl	uart_transmit
 3071 2c94 4D10D6E5 		ldrb	r1, [r6, #77]	@ zero_extendqisi2
 3072 2c98 0030D5E5 		ldrb	r3, [r5, #0]	@ zero_extendqisi2
 3073 2c9c 0020D4E5 		ldrb	r2, [r4, #0]	@ zero_extendqisi2
 3074 2ca0 033081E0 		add	r3, r1, r3
 3075 2ca4 FF3003E2 		and	r3, r3, #255
 3076 2ca8 0030C5E5 		strb	r3, [r5, #0]
 3077 2cac 023083E0 		add	r3, r3, r2
 3078 2cb0 0030C4E5 		strb	r3, [r4, #0]
 3079 2cb4 D0039FE5 		ldr	r0, .L269+228
 3080 2cb8 FEFFFFEB 		bl	uart_transmit
 3081 2cbc 4E10D6E5 		ldrb	r1, [r6, #78]	@ zero_extendqisi2
 3082 2cc0 0030D5E5 		ldrb	r3, [r5, #0]	@ zero_extendqisi2
 3083 2cc4 0020D4E5 		ldrb	r2, [r4, #0]	@ zero_extendqisi2
 3084 2cc8 033081E0 		add	r3, r1, r3
 3085 2ccc FF3003E2 		and	r3, r3, #255
 3086 2cd0 0030C5E5 		strb	r3, [r5, #0]
 3087 2cd4 023083E0 		add	r3, r3, r2
 3088 2cd8 0030C4E5 		strb	r3, [r4, #0]
 3089 2cdc A8039FE5 		ldr	r0, .L269+228
 3090 2ce0 FEFFFFEB 		bl	uart_transmit
 3091 2ce4 4F10D6E5 		ldrb	r1, [r6, #79]	@ zero_extendqisi2
 3092 2ce8 0030D5E5 		ldrb	r3, [r5, #0]	@ zero_extendqisi2
 3093 2cec 0020D4E5 		ldrb	r2, [r4, #0]	@ zero_extendqisi2
 3094 2cf0 033081E0 		add	r3, r1, r3
 3095 2cf4 FF3003E2 		and	r3, r3, #255
 3096 2cf8 0030C5E5 		strb	r3, [r5, #0]
 3097 2cfc 023083E0 		add	r3, r3, r2
 3098 2d00 0030C4E5 		strb	r3, [r4, #0]
 3099 2d04 80039FE5 		ldr	r0, .L269+228
 3100 2d08 FEFFFFEB 		bl	uart_transmit
 3101 2d0c 5010D6E5 		ldrb	r1, [r6, #80]	@ zero_extendqisi2
 3102 2d10 0030D5E5 		ldrb	r3, [r5, #0]	@ zero_extendqisi2
 3103 2d14 0020D4E5 		ldrb	r2, [r4, #0]	@ zero_extendqisi2
 3104 2d18 033081E0 		add	r3, r1, r3
 3105 2d1c FF3003E2 		and	r3, r3, #255
 3106 2d20 0030C5E5 		strb	r3, [r5, #0]
 3107 2d24 023083E0 		add	r3, r3, r2
 3108 2d28 0030C4E5 		strb	r3, [r4, #0]
 3109 2d2c 58039FE5 		ldr	r0, .L269+228
 3110 2d30 FEFFFFEB 		bl	uart_transmit
 3111 2d34 5110D6E5 		ldrb	r1, [r6, #81]	@ zero_extendqisi2
 3112 2d38 0030D5E5 		ldrb	r3, [r5, #0]	@ zero_extendqisi2
 3113 2d3c 0020D4E5 		ldrb	r2, [r4, #0]	@ zero_extendqisi2
 3114 2d40 033081E0 		add	r3, r1, r3
 3115 2d44 FF3003E2 		and	r3, r3, #255
 3116 2d48 0030C5E5 		strb	r3, [r5, #0]
 3117 2d4c 023083E0 		add	r3, r3, r2
 3118 2d50 0030C4E5 		strb	r3, [r4, #0]
 3119 2d54 30039FE5 		ldr	r0, .L269+228
 3120 2d58 FEFFFFEB 		bl	uart_transmit
 3121 2d5c 5210D6E5 		ldrb	r1, [r6, #82]	@ zero_extendqisi2
 3122 2d60 0030D5E5 		ldrb	r3, [r5, #0]	@ zero_extendqisi2
 3123 2d64 0020D4E5 		ldrb	r2, [r4, #0]	@ zero_extendqisi2
 3124 2d68 033081E0 		add	r3, r1, r3
 3125 2d6c FF3003E2 		and	r3, r3, #255
 3126 2d70 0030C5E5 		strb	r3, [r5, #0]
 3127 2d74 023083E0 		add	r3, r3, r2
 3128 2d78 0030C4E5 		strb	r3, [r4, #0]
 3129 2d7c 08039FE5 		ldr	r0, .L269+228
 3130 2d80 FEFFFFEB 		bl	uart_transmit
 3131 2d84 5310D6E5 		ldrb	r1, [r6, #83]	@ zero_extendqisi2
 3132 2d88 0030D5E5 		ldrb	r3, [r5, #0]	@ zero_extendqisi2
 3133 2d8c 0020D4E5 		ldrb	r2, [r4, #0]	@ zero_extendqisi2
 3134 2d90 033081E0 		add	r3, r1, r3
 3135 2d94 FF3003E2 		and	r3, r3, #255
 3136 2d98 0030C5E5 		strb	r3, [r5, #0]
 3137 2d9c 023083E0 		add	r3, r3, r2
 3138 2da0 0030C4E5 		strb	r3, [r4, #0]
 3139 2da4 E0029FE5 		ldr	r0, .L269+228
 3140 2da8 FEFFFFEB 		bl	uart_transmit
 3141 2dac 5810D6E5 		ldrb	r1, [r6, #88]	@ zero_extendqisi2
 3142 2db0 0030D5E5 		ldrb	r3, [r5, #0]	@ zero_extendqisi2
 3143 2db4 0020D4E5 		ldrb	r2, [r4, #0]	@ zero_extendqisi2
 3144 2db8 033081E0 		add	r3, r1, r3
 3145 2dbc FF3003E2 		and	r3, r3, #255
 3146 2dc0 0030C5E5 		strb	r3, [r5, #0]
 3147 2dc4 023083E0 		add	r3, r3, r2
 3148 2dc8 0030C4E5 		strb	r3, [r4, #0]
 3149 2dcc B8029FE5 		ldr	r0, .L269+228
 3150 2dd0 FEFFFFEB 		bl	uart_transmit
 3151 2dd4 5910D6E5 		ldrb	r1, [r6, #89]	@ zero_extendqisi2
 3152 2dd8 0030D5E5 		ldrb	r3, [r5, #0]	@ zero_extendqisi2
 3153 2ddc 0020D4E5 		ldrb	r2, [r4, #0]	@ zero_extendqisi2
 3154 2de0 033081E0 		add	r3, r1, r3
 3155 2de4 FF3003E2 		and	r3, r3, #255
 3156 2de8 0030C5E5 		strb	r3, [r5, #0]
 3157 2dec 023083E0 		add	r3, r3, r2
 3158 2df0 0030C4E5 		strb	r3, [r4, #0]
 3159 2df4 90029FE5 		ldr	r0, .L269+228
 3160 2df8 FEFFFFEB 		bl	uart_transmit
 3161 2dfc 5A10D6E5 		ldrb	r1, [r6, #90]	@ zero_extendqisi2
 3162 2e00 0030D5E5 		ldrb	r3, [r5, #0]	@ zero_extendqisi2
 3163 2e04 0020D4E5 		ldrb	r2, [r4, #0]	@ zero_extendqisi2
 3164 2e08 033081E0 		add	r3, r1, r3
 3165 2e0c FF3003E2 		and	r3, r3, #255
 3166 2e10 0030C5E5 		strb	r3, [r5, #0]
 3167 2e14 023083E0 		add	r3, r3, r2
 3168 2e18 0030C4E5 		strb	r3, [r4, #0]
 3169 2e1c 68029FE5 		ldr	r0, .L269+228
 3170 2e20 FEFFFFEB 		bl	uart_transmit
 3171 2e24 0010D5E5 		ldrb	r1, [r5, #0]	@ zero_extendqisi2
 3172 2e28 5C029FE5 		ldr	r0, .L269+228
 3173 2e2c FEFFFFEB 		bl	uart_transmit
 3174 2e30 54029FE5 		ldr	r0, .L269+228
 3175 2e34 0010D4E5 		ldrb	r1, [r4, #0]	@ zero_extendqisi2
 3176 2e38 FEFFFFEB 		bl	uart_transmit
 3177 2e3c 030000EA 		b	.L80
 3178              	.L81:
 3179 2e40 F0319FE5 		ldr	r3, .L269+144
 3180 2e44 0020D3E5 		ldrb	r2, [r3, #0]	@ zero_extendqisi2
 3181 2e48 012082E2 		add	r2, r2, #1
 3182 2e4c 0020C3E5 		strb	r2, [r3, #0]
 3183              	.L80:
 3184 2e50 A8319FE5 		ldr	r3, .L269+88
 3185 2e54 0030D3E5 		ldrb	r3, [r3, #0]	@ zero_extendqisi2
 3186 2e58 1E0053E3 		cmp	r3, #30
 3187 2e5c 9400001A 		bne	.L82
 3188 2e60 24029FE5 		ldr	r0, .L269+228
 3189 2e64 0B10A0E3 		mov	r1, #11
 3190 2e68 FEFFFFEB 		bl	uart_check_free_space
 3191 2e6c 000050E3 		cmp	r0, #0
 3192 2e70 6601000A 		beq	.L85
 3193 2e74 F4319FE5 		ldr	r3, .L269+200
 3194 2e78 B020D3E1 		ldrh	r2, [r3, #0]
 3195 2e7c 0B2082E2 		add	r2, r2, #11
 3196 2e80 B020C3E1 		strh	r2, [r3, #0]	@ movhi
 3197 2e84 E8319FE5 		ldr	r3, .L269+204
 3198 2e88 B020D3E1 		ldrh	r2, [r3, #0]
 3199 2e8c 012082E2 		add	r2, r2, #1
 3200 2e90 B020C3E1 		strh	r2, [r3, #0]	@ movhi
 3201 2e94 F0019FE5 		ldr	r0, .L269+228
 3202 2e98 9910A0E3 		mov	r1, #153
 3203 2e9c D4519FE5 		ldr	r5, .L269+208
 3204 2ea0 FEFFFFEB 		bl	uart_transmit
 3205 2ea4 E0019FE5 		ldr	r0, .L269+228
 3206 2ea8 0B10A0E3 		mov	r1, #11
 3207 2eac C8419FE5 		ldr	r4, .L269+212
 3208 2eb0 FEFFFFEB 		bl	uart_transmit
 3209 2eb4 0C30A0E3 		mov	r3, #12
 3210 2eb8 0030C5E5 		strb	r3, [r5, #0]
 3211 2ebc 1730A0E3 		mov	r3, #23
 3212 2ec0 0030C4E5 		strb	r3, [r4, #0]
 3213 2ec4 C0019FE5 		ldr	r0, .L269+228
 3214 2ec8 0110A0E3 		mov	r1, #1
 3215 2ecc FEFFFFEB 		bl	uart_transmit
 3216 2ed0 0030D5E5 		ldrb	r3, [r5, #0]	@ zero_extendqisi2
 3217 2ed4 0020D4E5 		ldrb	r2, [r4, #0]	@ zero_extendqisi2
 3218 2ed8 0E3083E2 		add	r3, r3, #14
 3219 2edc FF3003E2 		and	r3, r3, #255
 3220 2ee0 1C619FE5 		ldr	r6, .L269+92
 3221 2ee4 0030C5E5 		strb	r3, [r5, #0]
 3222 2ee8 023083E0 		add	r3, r3, r2
 3223 2eec 0030C4E5 		strb	r3, [r4, #0]
 3224 2ef0 94019FE5 		ldr	r0, .L269+228
 3225 2ef4 0E10A0E3 		mov	r1, #14
 3226 2ef8 FEFFFFEB 		bl	uart_transmit
 3227 2efc 0010D6E5 		ldrb	r1, [r6, #0]	@ zero_extendqisi2
 3228 2f00 0030D5E5 		ldrb	r3, [r5, #0]	@ zero_extendqisi2
 3229 2f04 0020D4E5 		ldrb	r2, [r4, #0]	@ zero_extendqisi2
 3230 2f08 033081E0 		add	r3, r1, r3
 3231 2f0c FF3003E2 		and	r3, r3, #255
 3232 2f10 0030C5E5 		strb	r3, [r5, #0]
 3233 2f14 023083E0 		add	r3, r3, r2
 3234 2f18 0030C4E5 		strb	r3, [r4, #0]
 3235 2f1c 68019FE5 		ldr	r0, .L269+228
 3236 2f20 FEFFFFEB 		bl	uart_transmit
 3237 2f24 0110D6E5 		ldrb	r1, [r6, #1]	@ zero_extendqisi2
 3238 2f28 0030D5E5 		ldrb	r3, [r5, #0]	@ zero_extendqisi2
 3239 2f2c 0020D4E5 		ldrb	r2, [r4, #0]	@ zero_extendqisi2
 3240 2f30 033081E0 		add	r3, r1, r3
 3241 2f34 FF3003E2 		and	r3, r3, #255
 3242 2f38 0030C5E5 		strb	r3, [r5, #0]
 3243 2f3c 023083E0 		add	r3, r3, r2
 3244 2f40 0030C4E5 		strb	r3, [r4, #0]
 3245 2f44 40019FE5 		ldr	r0, .L269+228
 3246 2f48 FEFFFFEB 		bl	uart_transmit
 3247 2f4c 0210D6E5 		ldrb	r1, [r6, #2]	@ zero_extendqisi2
 3248 2f50 0030D5E5 		ldrb	r3, [r5, #0]	@ zero_extendqisi2
 3249 2f54 0020D4E5 		ldrb	r2, [r4, #0]	@ zero_extendqisi2
 3250 2f58 033081E0 		add	r3, r1, r3
 3251 2f5c FF3003E2 		and	r3, r3, #255
 3252 2f60 0030C5E5 		strb	r3, [r5, #0]
 3253 2f64 023083E0 		add	r3, r3, r2
 3254 2f68 0030C4E5 		strb	r3, [r4, #0]
 3255 2f6c 18019FE5 		ldr	r0, .L269+228
 3256 2f70 FEFFFFEB 		bl	uart_transmit
 3257 2f74 0310D6E5 		ldrb	r1, [r6, #3]	@ zero_extendqisi2
 3258 2f78 0030D5E5 		ldrb	r3, [r5, #0]	@ zero_extendqisi2
 3259 2f7c 0020D4E5 		ldrb	r2, [r4, #0]	@ zero_extendqisi2
 3260 2f80 033081E0 		add	r3, r1, r3
 3261 2f84 FF3003E2 		and	r3, r3, #255
 3262 2f88 0030C5E5 		strb	r3, [r5, #0]
 3263 2f8c 023083E0 		add	r3, r3, r2
 3264 2f90 0030C4E5 		strb	r3, [r4, #0]
 3265 2f94 F0009FE5 		ldr	r0, .L269+228
 3266 2f98 FEFFFFEB 		bl	uart_transmit
 3267 2f9c 64309FE5 		ldr	r3, .L269+96
 3268 2fa0 0010D3E5 		ldrb	r1, [r3, #0]	@ zero_extendqisi2
 3269 2fa4 090100EA 		b	.L250
 3270              	.L270:
 3271              		.align	2
 3272              	.L269:
 3273 2fa8 00000000 		.word	.LANCHOR6
 3274 2fac 00000000 		.word	v_ctl_throttle_slewed
 3275 2fb0 00000000 		.word	.LANCHOR18
 3276 2fb4 00000000 		.word	.LANCHOR19
 3277 2fb8 00000000 		.word	block_time
 3278 2fbc 00000000 		.word	stage_time
 3279 2fc0 00000000 		.word	.LANCHOR7
 3280 2fc4 00000000 		.word	nav_in_segment
 3281 2fc8 00000000 		.word	nav_segment_x_1
 3282 2fcc 00000000 		.word	nav_segment_y_1
 3283 2fd0 00000000 		.word	nav_segment_x_2
 3284 2fd4 00000000 		.word	nav_segment_y_2
 3285 2fd8 00000000 		.word	.LANCHOR8
 3286 2fdc 00000000 		.word	.LANCHOR20
 3287 2fe0 00000000 		.word	telemetry_mode_Fbw
 3288 2fe4 00000000 		.word	flight_altitude
 3289 2fe8 00000000 		.word	nav_course
 3290 2fec 00000000 		.word	nav_shift
 3291 2ff0 00000000 		.word	nav_radius
 3292 2ff4 00000000 		.word	.LANCHOR22
 3293 2ff8 00000000 		.word	gps
 3294 2ffc 00000000 		.word	.LANCHOR9
 3295 3000 00000000 		.word	.LANCHOR10
 3296 3004 00000000 		.word	v_ctl_auto_throttle_sum_err
 3297 3008 00000000 		.word	v_ctl_auto_throttle_submode
 3298 300c 00000000 		.word	nav_survey_active
 3299 3010 00000000 		.word	nav_survey_east
 3300 3014 00000000 		.word	nav_survey_north
 3301 3018 00000000 		.word	nav_survey_west
 3302 301c 00000000 		.word	nav_survey_south
 3303 3020 00000000 		.word	.LANCHOR11
 3304 3024 00000000 		.word	energy
 3305 3028 00000000 		.word	vsupply
 3306 302c 00002041 		.word	1092616192
 3307 3030 00000000 		.word	.LANCHOR17
 3308 3034 00007A44 		.word	1148846080
 3309 3038 00000000 		.word	downlink_nb_ovrn
 3310 303c 00000000 		.word	.LANCHOR12
 3311 3040 00000000 		.word	.LC0
 3312 3044 00000000 		.word	.LANCHOR21
 3313 3048 00000000 		.word	v_ctl_mode
 3314 304c 00000000 		.word	.LANCHOR23
 3315 3050 00000000 		.word	horizontal_mode
 3316 3054 00000000 		.word	.LANCHOR24
 3317 3058 00000000 		.word	infrared
 3318 305c 00000000 		.word	.LANCHOR13
 3319 3060 00000000 		.word	.LANCHOR25
 3320 3064 66666666 		.word	1717986918
 3321 3068 66661440 		.word	1075078758
 3322 306c 00000000 		.word	.LANCHOR14
 3323 3070 00000000 		.word	downlink_nb_bytes
 3324 3074 00000000 		.word	downlink_nb_msgs
 3325 3078 00000000 		.word	ck_a
 3326 307c 00000000 		.word	ck_b
 3327 3080 00000000 		.word	nav_utm_east0
 3328 3084 00000000 		.word	nav_utm_north0
 3329 3088 00000000 		.word	nav_utm_zone0
 3330 308c 00000000 		.word	uart1
 3331 3090 00000000 		.word	downlink_nb_ovrn
 3332 3094 00000000 		.word	telemetry_mode_Ap
 3333 3098 00000000 		.word	.LANCHOR26
 3334 309c 00000000 		.word	.LANCHOR27
 3335 30a0 00000000 		.word	.LANCHOR28
 3336 30a4 00000000 		.word	.LANCHOR29
 3337 30a8 00000000 		.word	.LANCHOR30
 3338 30ac 00000000 		.word	.LANCHOR31
 3339 30b0 00000000 		.word	.LANCHOR32
 3340              	.L82:
 3341 30b4 240053E3 		cmp	r3, #36
 3342 30b8 D800001A 		bne	.L84
 3343 30bc B8301FE5 		ldr	r3, .L269+100
 3344 30c0 0030D3E5 		ldrb	r3, [r3, #0]	@ zero_extendqisi2
 3345 30c4 000053E3 		cmp	r3, #0
 3346 30c8 D400000A 		beq	.L84
 3347 30cc 48001FE5 		ldr	r0, .L269+228
 3348 30d0 1610A0E3 		mov	r1, #22
 3349 30d4 FEFFFFEB 		bl	uart_check_free_space
 3350 30d8 000050E3 		cmp	r0, #0
 3351 30dc CB00000A 		beq	.L85
 3352 30e0 78301FE5 		ldr	r3, .L269+200
 3353 30e4 B020D3E1 		ldrh	r2, [r3, #0]
 3354 30e8 162082E2 		add	r2, r2, #22
 3355 30ec B020C3E1 		strh	r2, [r3, #0]	@ movhi
 3356 30f0 84301FE5 		ldr	r3, .L269+204
 3357 30f4 B020D3E1 		ldrh	r2, [r3, #0]
 3358 30f8 012082E2 		add	r2, r2, #1
 3359 30fc B020C3E1 		strh	r2, [r3, #0]	@ movhi
 3360 3100 7C001FE5 		ldr	r0, .L269+228
 3361 3104 9910A0E3 		mov	r1, #153
 3362 3108 98501FE5 		ldr	r5, .L269+208
 3363 310c FEFFFFEB 		bl	uart_transmit
 3364 3110 8C001FE5 		ldr	r0, .L269+228
 3365 3114 1610A0E3 		mov	r1, #22
 3366 3118 A4401FE5 		ldr	r4, .L269+212
 3367 311c FEFFFFEB 		bl	uart_transmit
 3368 3120 1730A0E3 		mov	r3, #23
 3369 3124 0030C5E5 		strb	r3, [r5, #0]
 3370 3128 2D30A0E3 		mov	r3, #45
 3371 312c 0030C4E5 		strb	r3, [r4, #0]
 3372 3130 AC001FE5 		ldr	r0, .L269+228
 3373 3134 0110A0E3 		mov	r1, #1
 3374 3138 FEFFFFEB 		bl	uart_transmit
 3375 313c 0030D5E5 		ldrb	r3, [r5, #0]	@ zero_extendqisi2
 3376 3140 0020D4E5 		ldrb	r2, [r4, #0]	@ zero_extendqisi2
 3377 3144 1B3083E2 		add	r3, r3, #27
 3378 3148 FF3003E2 		and	r3, r3, #255
 3379 314c 44611FE5 		ldr	r6, .L269+104
 3380 3150 0030C5E5 		strb	r3, [r5, #0]
 3381 3154 023083E0 		add	r3, r3, r2
 3382 3158 0030C4E5 		strb	r3, [r4, #0]
 3383 315c D8001FE5 		ldr	r0, .L269+228
 3384 3160 1B10A0E3 		mov	r1, #27
 3385 3164 FEFFFFEB 		bl	uart_transmit
 3386 3168 0010D6E5 		ldrb	r1, [r6, #0]	@ zero_extendqisi2
 3387 316c 0030D5E5 		ldrb	r3, [r5, #0]	@ zero_extendqisi2
 3388 3170 0020D4E5 		ldrb	r2, [r4, #0]	@ zero_extendqisi2
 3389 3174 033081E0 		add	r3, r1, r3
 3390 3178 FF3003E2 		and	r3, r3, #255
 3391 317c 0030C5E5 		strb	r3, [r5, #0]
 3392 3180 023083E0 		add	r3, r3, r2
 3393 3184 0030C4E5 		strb	r3, [r4, #0]
 3394 3188 04011FE5 		ldr	r0, .L269+228
 3395 318c FEFFFFEB 		bl	uart_transmit
 3396 3190 0110D6E5 		ldrb	r1, [r6, #1]	@ zero_extendqisi2
 3397 3194 0030D5E5 		ldrb	r3, [r5, #0]	@ zero_extendqisi2
 3398 3198 0020D4E5 		ldrb	r2, [r4, #0]	@ zero_extendqisi2
 3399 319c 033081E0 		add	r3, r1, r3
 3400 31a0 FF3003E2 		and	r3, r3, #255
 3401 31a4 0030C5E5 		strb	r3, [r5, #0]
 3402 31a8 023083E0 		add	r3, r3, r2
 3403 31ac 0030C4E5 		strb	r3, [r4, #0]
 3404 31b0 2C011FE5 		ldr	r0, .L269+228
 3405 31b4 FEFFFFEB 		bl	uart_transmit
 3406 31b8 0210D6E5 		ldrb	r1, [r6, #2]	@ zero_extendqisi2
 3407 31bc 0030D5E5 		ldrb	r3, [r5, #0]	@ zero_extendqisi2
 3408 31c0 0020D4E5 		ldrb	r2, [r4, #0]	@ zero_extendqisi2
 3409 31c4 033081E0 		add	r3, r1, r3
 3410 31c8 FF3003E2 		and	r3, r3, #255
 3411 31cc 0030C5E5 		strb	r3, [r5, #0]
 3412 31d0 023083E0 		add	r3, r3, r2
 3413 31d4 0030C4E5 		strb	r3, [r4, #0]
 3414 31d8 54011FE5 		ldr	r0, .L269+228
 3415 31dc FEFFFFEB 		bl	uart_transmit
 3416 31e0 0310D6E5 		ldrb	r1, [r6, #3]	@ zero_extendqisi2
 3417 31e4 0030D5E5 		ldrb	r3, [r5, #0]	@ zero_extendqisi2
 3418 31e8 0020D4E5 		ldrb	r2, [r4, #0]	@ zero_extendqisi2
 3419 31ec 033081E0 		add	r3, r1, r3
 3420 31f0 FF3003E2 		and	r3, r3, #255
 3421 31f4 E8611FE5 		ldr	r6, .L269+108
 3422 31f8 0030C5E5 		strb	r3, [r5, #0]
 3423 31fc 023083E0 		add	r3, r3, r2
 3424 3200 0030C4E5 		strb	r3, [r4, #0]
 3425 3204 80011FE5 		ldr	r0, .L269+228
 3426 3208 FEFFFFEB 		bl	uart_transmit
 3427 320c 0010D6E5 		ldrb	r1, [r6, #0]	@ zero_extendqisi2
 3428 3210 0030D5E5 		ldrb	r3, [r5, #0]	@ zero_extendqisi2
 3429 3214 0020D4E5 		ldrb	r2, [r4, #0]	@ zero_extendqisi2
 3430 3218 033081E0 		add	r3, r1, r3
 3431 321c FF3003E2 		and	r3, r3, #255
 3432 3220 0030C5E5 		strb	r3, [r5, #0]
 3433 3224 023083E0 		add	r3, r3, r2
 3434 3228 0030C4E5 		strb	r3, [r4, #0]
 3435 322c A8011FE5 		ldr	r0, .L269+228
 3436 3230 FEFFFFEB 		bl	uart_transmit
 3437 3234 0110D6E5 		ldrb	r1, [r6, #1]	@ zero_extendqisi2
 3438 3238 0030D5E5 		ldrb	r3, [r5, #0]	@ zero_extendqisi2
 3439 323c 0020D4E5 		ldrb	r2, [r4, #0]	@ zero_extendqisi2
 3440 3240 033081E0 		add	r3, r1, r3
 3441 3244 FF3003E2 		and	r3, r3, #255
 3442 3248 0030C5E5 		strb	r3, [r5, #0]
 3443 324c 023083E0 		add	r3, r3, r2
 3444 3250 0030C4E5 		strb	r3, [r4, #0]
 3445 3254 D0011FE5 		ldr	r0, .L269+228
 3446 3258 FEFFFFEB 		bl	uart_transmit
 3447 325c 0210D6E5 		ldrb	r1, [r6, #2]	@ zero_extendqisi2
 3448 3260 0030D5E5 		ldrb	r3, [r5, #0]	@ zero_extendqisi2
 3449 3264 0020D4E5 		ldrb	r2, [r4, #0]	@ zero_extendqisi2
 3450 3268 033081E0 		add	r3, r1, r3
 3451 326c FF3003E2 		and	r3, r3, #255
 3452 3270 0030C5E5 		strb	r3, [r5, #0]
 3453 3274 023083E0 		add	r3, r3, r2
 3454 3278 0030C4E5 		strb	r3, [r4, #0]
 3455 327c F8011FE5 		ldr	r0, .L269+228
 3456 3280 FEFFFFEB 		bl	uart_transmit
 3457 3284 0310D6E5 		ldrb	r1, [r6, #3]	@ zero_extendqisi2
 3458 3288 0030D5E5 		ldrb	r3, [r5, #0]	@ zero_extendqisi2
 3459 328c 0020D4E5 		ldrb	r2, [r4, #0]	@ zero_extendqisi2
 3460 3290 033081E0 		add	r3, r1, r3
 3461 3294 FF3003E2 		and	r3, r3, #255
 3462 3298 88621FE5 		ldr	r6, .L269+112
 3463 329c 0030C5E5 		strb	r3, [r5, #0]
 3464 32a0 023083E0 		add	r3, r3, r2
 3465 32a4 0030C4E5 		strb	r3, [r4, #0]
 3466 32a8 24021FE5 		ldr	r0, .L269+228
 3467 32ac FEFFFFEB 		bl	uart_transmit
 3468 32b0 0010D6E5 		ldrb	r1, [r6, #0]	@ zero_extendqisi2
 3469 32b4 0030D5E5 		ldrb	r3, [r5, #0]	@ zero_extendqisi2
 3470 32b8 0020D4E5 		ldrb	r2, [r4, #0]	@ zero_extendqisi2
 3471 32bc 033081E0 		add	r3, r1, r3
 3472 32c0 FF3003E2 		and	r3, r3, #255
 3473 32c4 0030C5E5 		strb	r3, [r5, #0]
 3474 32c8 023083E0 		add	r3, r3, r2
 3475 32cc 0030C4E5 		strb	r3, [r4, #0]
 3476 32d0 4C021FE5 		ldr	r0, .L269+228
 3477 32d4 FEFFFFEB 		bl	uart_transmit
 3478 32d8 0110D6E5 		ldrb	r1, [r6, #1]	@ zero_extendqisi2
 3479 32dc 0030D5E5 		ldrb	r3, [r5, #0]	@ zero_extendqisi2
 3480 32e0 0020D4E5 		ldrb	r2, [r4, #0]	@ zero_extendqisi2
 3481 32e4 033081E0 		add	r3, r1, r3
 3482 32e8 FF3003E2 		and	r3, r3, #255
 3483 32ec 0030C5E5 		strb	r3, [r5, #0]
 3484 32f0 023083E0 		add	r3, r3, r2
 3485 32f4 0030C4E5 		strb	r3, [r4, #0]
 3486 32f8 74021FE5 		ldr	r0, .L269+228
 3487 32fc FEFFFFEB 		bl	uart_transmit
 3488 3300 0210D6E5 		ldrb	r1, [r6, #2]	@ zero_extendqisi2
 3489 3304 0030D5E5 		ldrb	r3, [r5, #0]	@ zero_extendqisi2
 3490 3308 0020D4E5 		ldrb	r2, [r4, #0]	@ zero_extendqisi2
 3491 330c 033081E0 		add	r3, r1, r3
 3492 3310 FF3003E2 		and	r3, r3, #255
 3493 3314 0030C5E5 		strb	r3, [r5, #0]
 3494 3318 023083E0 		add	r3, r3, r2
 3495 331c 0030C4E5 		strb	r3, [r4, #0]
 3496 3320 9C021FE5 		ldr	r0, .L269+228
 3497 3324 FEFFFFEB 		bl	uart_transmit
 3498 3328 0310D6E5 		ldrb	r1, [r6, #3]	@ zero_extendqisi2
 3499 332c 0030D5E5 		ldrb	r3, [r5, #0]	@ zero_extendqisi2
 3500 3330 0020D4E5 		ldrb	r2, [r4, #0]	@ zero_extendqisi2
 3501 3334 033081E0 		add	r3, r1, r3
 3502 3338 FF3003E2 		and	r3, r3, #255
 3503 333c 28631FE5 		ldr	r6, .L269+116
 3504 3340 0030C5E5 		strb	r3, [r5, #0]
 3505 3344 023083E0 		add	r3, r3, r2
 3506 3348 0030C4E5 		strb	r3, [r4, #0]
 3507 334c C8021FE5 		ldr	r0, .L269+228
 3508 3350 FEFFFFEB 		bl	uart_transmit
 3509 3354 0010D6E5 		ldrb	r1, [r6, #0]	@ zero_extendqisi2
 3510 3358 0030D5E5 		ldrb	r3, [r5, #0]	@ zero_extendqisi2
 3511 335c 0020D4E5 		ldrb	r2, [r4, #0]	@ zero_extendqisi2
 3512 3360 033081E0 		add	r3, r1, r3
 3513 3364 FF3003E2 		and	r3, r3, #255
 3514 3368 0030C5E5 		strb	r3, [r5, #0]
 3515 336c 023083E0 		add	r3, r3, r2
 3516 3370 0030C4E5 		strb	r3, [r4, #0]
 3517 3374 F0021FE5 		ldr	r0, .L269+228
 3518 3378 FEFFFFEB 		bl	uart_transmit
 3519 337c 0110D6E5 		ldrb	r1, [r6, #1]	@ zero_extendqisi2
 3520 3380 0030D5E5 		ldrb	r3, [r5, #0]	@ zero_extendqisi2
 3521 3384 0020D4E5 		ldrb	r2, [r4, #0]	@ zero_extendqisi2
 3522 3388 033081E0 		add	r3, r1, r3
 3523 338c FF3003E2 		and	r3, r3, #255
 3524 3390 0030C5E5 		strb	r3, [r5, #0]
 3525 3394 023083E0 		add	r3, r3, r2
 3526 3398 0030C4E5 		strb	r3, [r4, #0]
 3527 339c 18031FE5 		ldr	r0, .L269+228
 3528 33a0 FEFFFFEB 		bl	uart_transmit
 3529 33a4 0210D6E5 		ldrb	r1, [r6, #2]	@ zero_extendqisi2
 3530 33a8 0030D5E5 		ldrb	r3, [r5, #0]	@ zero_extendqisi2
 3531 33ac 0020D4E5 		ldrb	r2, [r4, #0]	@ zero_extendqisi2
 3532 33b0 033081E0 		add	r3, r1, r3
 3533 33b4 FF3003E2 		and	r3, r3, #255
 3534 33b8 0030C5E5 		strb	r3, [r5, #0]
 3535 33bc 023083E0 		add	r3, r3, r2
 3536 33c0 0030C4E5 		strb	r3, [r4, #0]
 3537 33c4 40031FE5 		ldr	r0, .L269+228
 3538 33c8 FEFFFFEB 		bl	uart_transmit
 3539 33cc 0310D6E5 		ldrb	r1, [r6, #3]	@ zero_extendqisi2
 3540              	.L250:
 3541 33d0 0030D5E5 		ldrb	r3, [r5, #0]	@ zero_extendqisi2
 3542 33d4 0020D4E5 		ldrb	r2, [r4, #0]	@ zero_extendqisi2
 3543 33d8 033081E0 		add	r3, r1, r3
 3544 33dc FF3003E2 		and	r3, r3, #255
 3545 33e0 0030C5E5 		strb	r3, [r5, #0]
 3546 33e4 023083E0 		add	r3, r3, r2
 3547 33e8 0030C4E5 		strb	r3, [r4, #0]
 3548 33ec 68031FE5 		ldr	r0, .L269+228
 3549 33f0 FEFFFFEB 		bl	uart_transmit
 3550 33f4 0010D5E5 		ldrb	r1, [r5, #0]	@ zero_extendqisi2
 3551 33f8 74031FE5 		ldr	r0, .L269+228
 3552 33fc FEFFFFEB 		bl	uart_transmit
 3553 3400 7C031FE5 		ldr	r0, .L269+228
 3554 3404 0010D4E5 		ldrb	r1, [r4, #0]	@ zero_extendqisi2
 3555 3408 FEFFFFEB 		bl	uart_transmit
 3556 340c 030000EA 		b	.L84
 3557              	.L85:
 3558 3410 E0331FE5 		ldr	r3, .L269+144
 3559 3414 0020D3E5 		ldrb	r2, [r3, #0]	@ zero_extendqisi2
 3560 3418 012082E2 		add	r2, r2, #1
 3561 341c 0020C3E5 		strb	r2, [r3, #0]
 3562              	.L84:
 3563 3420 08341FE5 		ldr	r3, .L269+120
 3564 3424 0030D3E5 		ldrb	r3, [r3, #0]	@ zero_extendqisi2
 3565 3428 2A0053E3 		cmp	r3, #42
 3566 342c D100001A 		bne	.L86
 3567 3430 14341FE5 		ldr	r3, .L269+124
 3568 3434 000093E5 		ldr	r0, [r3, #0]	@ float
 3569 3438 FEFFFFEB 		bl	__aeabi_f2iz
 3570 343c 1C341FE5 		ldr	r3, .L269+128
 3571 3440 BC00CDE1 		strh	r0, [sp, #12]	@ movhi
 3572 3444 0000D3E5 		ldrb	r0, [r3, #0]	@ zero_extendqisi2
 3573 3448 FEFFFFEB 		bl	__aeabi_ui2f
 3574 344c 28141FE5 		ldr	r1, .L269+132
 3575 3450 FEFFFFEB 		bl	__aeabi_fdiv
 3576 3454 2C341FE5 		ldr	r3, .L269+136
 3577 3458 0040A0E1 		mov	r4, r0
 3578 345c 04008DE5 		str	r0, [sp, #4]	@ float
 3579 3460 000093E5 		ldr	r0, [r3, #0]
 3580 3464 FEFFFFEB 		bl	__aeabi_i2f
 3581 3468 3C141FE5 		ldr	r1, .L269+140
 3582 346c FEFFFFEB 		bl	__aeabi_fdiv
 3583 3470 0010A0E1 		mov	r1, r0
 3584 3474 00008DE5 		str	r0, [sp, #0]	@ float
 3585 3478 0400A0E1 		mov	r0, r4
 3586 347c FEFFFFEB 		bl	__aeabi_fmul
 3587 3480 1410A0E3 		mov	r1, #20
 3588 3484 08008DE5 		str	r0, [sp, #8]	@ float
 3589 3488 04041FE5 		ldr	r0, .L269+228
 3590 348c FEFFFFEB 		bl	uart_check_free_space
 3591 3490 000050E3 		cmp	r0, #0
 3592 3494 B300000A 		beq	.L87
 3593 3498 30341FE5 		ldr	r3, .L269+200
 3594 349c B020D3E1 		ldrh	r2, [r3, #0]
 3595 34a0 142082E2 		add	r2, r2, #20
 3596 34a4 B020C3E1 		strh	r2, [r3, #0]	@ movhi
 3597 34a8 3C341FE5 		ldr	r3, .L269+204
 3598 34ac B020D3E1 		ldrh	r2, [r3, #0]
 3599 34b0 012082E2 		add	r2, r2, #1
 3600 34b4 B020C3E1 		strh	r2, [r3, #0]	@ movhi
 3601 34b8 34041FE5 		ldr	r0, .L269+228
 3602 34bc 9910A0E3 		mov	r1, #153
 3603 34c0 50541FE5 		ldr	r5, .L269+208
 3604 34c4 FEFFFFEB 		bl	uart_transmit
 3605 34c8 44041FE5 		ldr	r0, .L269+228
 3606 34cc 1410A0E3 		mov	r1, #20
 3607 34d0 5C441FE5 		ldr	r4, .L269+212
 3608 34d4 FEFFFFEB 		bl	uart_transmit
 3609 34d8 1530A0E3 		mov	r3, #21
 3610 34dc 0030C5E5 		strb	r3, [r5, #0]
 3611 34e0 2930A0E3 		mov	r3, #41
 3612 34e4 0030C4E5 		strb	r3, [r4, #0]
 3613 34e8 64041FE5 		ldr	r0, .L269+228
 3614 34ec 0110A0E3 		mov	r1, #1
 3615 34f0 FEFFFFEB 		bl	uart_transmit
 3616 34f4 0030D5E5 		ldrb	r3, [r5, #0]	@ zero_extendqisi2
 3617 34f8 0020D4E5 		ldrb	r2, [r4, #0]	@ zero_extendqisi2
 3618 34fc 253083E2 		add	r3, r3, #37
 3619 3500 FF3003E2 		and	r3, r3, #255
 3620 3504 0030C5E5 		strb	r3, [r5, #0]
 3621 3508 023083E0 		add	r3, r3, r2
 3622 350c 0030C4E5 		strb	r3, [r4, #0]
 3623 3510 8C041FE5 		ldr	r0, .L269+228
 3624 3514 2510A0E3 		mov	r1, #37
 3625 3518 FEFFFFEB 		bl	uart_transmit
 3626 351c 0410DDE5 		ldrb	r1, [sp, #4]	@ zero_extendqisi2
 3627 3520 0030D5E5 		ldrb	r3, [r5, #0]	@ zero_extendqisi2
 3628 3524 0020D4E5 		ldrb	r2, [r4, #0]	@ zero_extendqisi2
 3629 3528 033081E0 		add	r3, r1, r3
 3630 352c FF3003E2 		and	r3, r3, #255
 3631 3530 0030C5E5 		strb	r3, [r5, #0]
 3632 3534 023083E0 		add	r3, r3, r2
 3633 3538 0030C4E5 		strb	r3, [r4, #0]
 3634 353c B8041FE5 		ldr	r0, .L269+228
 3635 3540 FEFFFFEB 		bl	uart_transmit
 3636 3544 0510DDE5 		ldrb	r1, [sp, #5]	@ zero_extendqisi2
 3637 3548 0030D5E5 		ldrb	r3, [r5, #0]	@ zero_extendqisi2
 3638 354c 0020D4E5 		ldrb	r2, [r4, #0]	@ zero_extendqisi2
 3639 3550 033081E0 		add	r3, r1, r3
 3640 3554 FF3003E2 		and	r3, r3, #255
 3641 3558 0030C5E5 		strb	r3, [r5, #0]
 3642 355c 023083E0 		add	r3, r3, r2
 3643 3560 0030C4E5 		strb	r3, [r4, #0]
 3644 3564 E0041FE5 		ldr	r0, .L269+228
 3645 3568 FEFFFFEB 		bl	uart_transmit
 3646 356c 0610DDE5 		ldrb	r1, [sp, #6]	@ zero_extendqisi2
 3647 3570 0030D5E5 		ldrb	r3, [r5, #0]	@ zero_extendqisi2
 3648 3574 0020D4E5 		ldrb	r2, [r4, #0]	@ zero_extendqisi2
 3649 3578 033081E0 		add	r3, r1, r3
 3650 357c FF3003E2 		and	r3, r3, #255
 3651 3580 0030C5E5 		strb	r3, [r5, #0]
 3652 3584 023083E0 		add	r3, r3, r2
 3653 3588 0030C4E5 		strb	r3, [r4, #0]
 3654 358c 08051FE5 		ldr	r0, .L269+228
 3655 3590 FEFFFFEB 		bl	uart_transmit
 3656 3594 0710DDE5 		ldrb	r1, [sp, #7]	@ zero_extendqisi2
 3657 3598 0030D5E5 		ldrb	r3, [r5, #0]	@ zero_extendqisi2
 3658 359c 0020D4E5 		ldrb	r2, [r4, #0]	@ zero_extendqisi2
 3659 35a0 033081E0 		add	r3, r1, r3
 3660 35a4 FF3003E2 		and	r3, r3, #255
 3661 35a8 0030C5E5 		strb	r3, [r5, #0]
 3662 35ac 023083E0 		add	r3, r3, r2
 3663 35b0 0030C4E5 		strb	r3, [r4, #0]
 3664 35b4 30051FE5 		ldr	r0, .L269+228
 3665 35b8 FEFFFFEB 		bl	uart_transmit
 3666 35bc 0010DDE5 		ldrb	r1, [sp, #0]	@ zero_extendqisi2
 3667 35c0 0030D5E5 		ldrb	r3, [r5, #0]	@ zero_extendqisi2
 3668 35c4 0020D4E5 		ldrb	r2, [r4, #0]	@ zero_extendqisi2
 3669 35c8 033081E0 		add	r3, r1, r3
 3670 35cc FF3003E2 		and	r3, r3, #255
 3671 35d0 0030C5E5 		strb	r3, [r5, #0]
 3672 35d4 023083E0 		add	r3, r3, r2
 3673 35d8 0030C4E5 		strb	r3, [r4, #0]
 3674 35dc 58051FE5 		ldr	r0, .L269+228
 3675 35e0 FEFFFFEB 		bl	uart_transmit
 3676 35e4 0110DDE5 		ldrb	r1, [sp, #1]	@ zero_extendqisi2
 3677 35e8 0030D5E5 		ldrb	r3, [r5, #0]	@ zero_extendqisi2
 3678 35ec 0020D4E5 		ldrb	r2, [r4, #0]	@ zero_extendqisi2
 3679 35f0 033081E0 		add	r3, r1, r3
 3680 35f4 FF3003E2 		and	r3, r3, #255
 3681 35f8 0030C5E5 		strb	r3, [r5, #0]
 3682 35fc 023083E0 		add	r3, r3, r2
 3683 3600 0030C4E5 		strb	r3, [r4, #0]
 3684 3604 80051FE5 		ldr	r0, .L269+228
 3685 3608 FEFFFFEB 		bl	uart_transmit
 3686 360c 0210DDE5 		ldrb	r1, [sp, #2]	@ zero_extendqisi2
 3687 3610 0030D5E5 		ldrb	r3, [r5, #0]	@ zero_extendqisi2
 3688 3614 0020D4E5 		ldrb	r2, [r4, #0]	@ zero_extendqisi2
 3689 3618 033081E0 		add	r3, r1, r3
 3690 361c FF3003E2 		and	r3, r3, #255
 3691 3620 0030C5E5 		strb	r3, [r5, #0]
 3692 3624 023083E0 		add	r3, r3, r2
 3693 3628 0030C4E5 		strb	r3, [r4, #0]
 3694 362c A8051FE5 		ldr	r0, .L269+228
 3695 3630 FEFFFFEB 		bl	uart_transmit
 3696 3634 0310DDE5 		ldrb	r1, [sp, #3]	@ zero_extendqisi2
 3697 3638 0030D5E5 		ldrb	r3, [r5, #0]	@ zero_extendqisi2
 3698 363c 0020D4E5 		ldrb	r2, [r4, #0]	@ zero_extendqisi2
 3699 3640 033081E0 		add	r3, r1, r3
 3700 3644 FF3003E2 		and	r3, r3, #255
 3701 3648 0030C5E5 		strb	r3, [r5, #0]
 3702 364c 023083E0 		add	r3, r3, r2
 3703 3650 0030C4E5 		strb	r3, [r4, #0]
 3704 3654 D0051FE5 		ldr	r0, .L269+228
 3705 3658 FEFFFFEB 		bl	uart_transmit
 3706 365c 0C10DDE5 		ldrb	r1, [sp, #12]	@ zero_extendqisi2
 3707 3660 0030D5E5 		ldrb	r3, [r5, #0]	@ zero_extendqisi2
 3708 3664 0020D4E5 		ldrb	r2, [r4, #0]	@ zero_extendqisi2
 3709 3668 033081E0 		add	r3, r1, r3
 3710 366c FF3003E2 		and	r3, r3, #255
 3711 3670 0030C5E5 		strb	r3, [r5, #0]
 3712 3674 023083E0 		add	r3, r3, r2
 3713 3678 0030C4E5 		strb	r3, [r4, #0]
 3714 367c F8051FE5 		ldr	r0, .L269+228
 3715 3680 FEFFFFEB 		bl	uart_transmit
 3716 3684 0D10DDE5 		ldrb	r1, [sp, #13]	@ zero_extendqisi2
 3717 3688 0030D5E5 		ldrb	r3, [r5, #0]	@ zero_extendqisi2
 3718 368c 0020D4E5 		ldrb	r2, [r4, #0]	@ zero_extendqisi2
 3719 3690 033081E0 		add	r3, r1, r3
 3720 3694 FF3003E2 		and	r3, r3, #255
 3721 3698 0030C5E5 		strb	r3, [r5, #0]
 3722 369c 023083E0 		add	r3, r3, r2
 3723 36a0 0030C4E5 		strb	r3, [r4, #0]
 3724 36a4 20061FE5 		ldr	r0, .L269+228
 3725 36a8 FEFFFFEB 		bl	uart_transmit
 3726 36ac 0810DDE5 		ldrb	r1, [sp, #8]	@ zero_extendqisi2
 3727 36b0 0030D5E5 		ldrb	r3, [r5, #0]	@ zero_extendqisi2
 3728 36b4 0020D4E5 		ldrb	r2, [r4, #0]	@ zero_extendqisi2
 3729 36b8 033081E0 		add	r3, r1, r3
 3730 36bc FF3003E2 		and	r3, r3, #255
 3731 36c0 0030C5E5 		strb	r3, [r5, #0]
 3732 36c4 023083E0 		add	r3, r3, r2
 3733 36c8 0030C4E5 		strb	r3, [r4, #0]
 3734 36cc 48061FE5 		ldr	r0, .L269+228
 3735 36d0 FEFFFFEB 		bl	uart_transmit
 3736 36d4 0910DDE5 		ldrb	r1, [sp, #9]	@ zero_extendqisi2
 3737 36d8 0030D5E5 		ldrb	r3, [r5, #0]	@ zero_extendqisi2
 3738 36dc 0020D4E5 		ldrb	r2, [r4, #0]	@ zero_extendqisi2
 3739 36e0 033081E0 		add	r3, r1, r3
 3740 36e4 FF3003E2 		and	r3, r3, #255
 3741 36e8 0030C5E5 		strb	r3, [r5, #0]
 3742 36ec 023083E0 		add	r3, r3, r2
 3743 36f0 0030C4E5 		strb	r3, [r4, #0]
 3744 36f4 70061FE5 		ldr	r0, .L269+228
 3745 36f8 FEFFFFEB 		bl	uart_transmit
 3746 36fc 0A10DDE5 		ldrb	r1, [sp, #10]	@ zero_extendqisi2
 3747 3700 0030D5E5 		ldrb	r3, [r5, #0]	@ zero_extendqisi2
 3748 3704 0020D4E5 		ldrb	r2, [r4, #0]	@ zero_extendqisi2
 3749 3708 033081E0 		add	r3, r1, r3
 3750 370c FF3003E2 		and	r3, r3, #255
 3751 3710 0030C5E5 		strb	r3, [r5, #0]
 3752 3714 023083E0 		add	r3, r3, r2
 3753 3718 0030C4E5 		strb	r3, [r4, #0]
 3754 371c 98061FE5 		ldr	r0, .L269+228
 3755 3720 FEFFFFEB 		bl	uart_transmit
 3756 3724 0B10DDE5 		ldrb	r1, [sp, #11]	@ zero_extendqisi2
 3757 3728 0030D5E5 		ldrb	r3, [r5, #0]	@ zero_extendqisi2
 3758 372c 0020D4E5 		ldrb	r2, [r4, #0]	@ zero_extendqisi2
 3759 3730 033081E0 		add	r3, r1, r3
 3760 3734 FF3003E2 		and	r3, r3, #255
 3761 3738 0030C5E5 		strb	r3, [r5, #0]
 3762 373c 023083E0 		add	r3, r3, r2
 3763 3740 0030C4E5 		strb	r3, [r4, #0]
 3764 3744 C0061FE5 		ldr	r0, .L269+228
 3765 3748 FEFFFFEB 		bl	uart_transmit
 3766 374c 0010D5E5 		ldrb	r1, [r5, #0]	@ zero_extendqisi2
 3767 3750 CC061FE5 		ldr	r0, .L269+228
 3768 3754 FEFFFFEB 		bl	uart_transmit
 3769 3758 D4061FE5 		ldr	r0, .L269+228
 3770 375c 0010D4E5 		ldrb	r1, [r4, #0]	@ zero_extendqisi2
 3771 3760 FEFFFFEB 		bl	uart_transmit
 3772 3764 030000EA 		b	.L86
 3773              	.L87:
 3774 3768 38371FE5 		ldr	r3, .L269+144
 3775 376c 0020D3E5 		ldrb	r2, [r3, #0]	@ zero_extendqisi2
 3776 3770 012082E2 		add	r2, r2, #1
 3777 3774 0020C3E5 		strb	r2, [r3, #0]
 3778              	.L86:
 3779 3778 44371FE5 		ldr	r3, .L269+148
 3780 377c B030D3E1 		ldrh	r3, [r3, #0]
 3781 3780 300053E3 		cmp	r3, #48
 3782 3784 4600001A 		bne	.L88
 3783 3788 04071FE5 		ldr	r0, .L269+228
 3784 378c 1710A0E3 		mov	r1, #23
 3785 3790 FEFFFFEB 		bl	uart_check_free_space
 3786 3794 000050E3 		cmp	r0, #0
 3787 3798 0001000A 		beq	.L95
 3788 379c 34371FE5 		ldr	r3, .L269+200
 3789 37a0 B020D3E1 		ldrh	r2, [r3, #0]
 3790 37a4 172082E2 		add	r2, r2, #23
 3791 37a8 B020C3E1 		strh	r2, [r3, #0]	@ movhi
 3792 37ac 40371FE5 		ldr	r3, .L269+204
 3793 37b0 B020D3E1 		ldrh	r2, [r3, #0]
 3794 37b4 012082E2 		add	r2, r2, #1
 3795 37b8 B020C3E1 		strh	r2, [r3, #0]	@ movhi
 3796 37bc 38071FE5 		ldr	r0, .L269+228
 3797 37c0 9910A0E3 		mov	r1, #153
 3798 37c4 FEFFFFEB 		bl	uart_transmit
 3799 37c8 58571FE5 		ldr	r5, .L269+208
 3800 37cc 48071FE5 		ldr	r0, .L269+228
 3801 37d0 1710A0E3 		mov	r1, #23
 3802 37d4 FEFFFFEB 		bl	uart_transmit
 3803 37d8 64471FE5 		ldr	r4, .L269+212
 3804 37dc 1830A0E3 		mov	r3, #24
 3805 37e0 0030C5E5 		strb	r3, [r5, #0]
 3806 37e4 2F30A0E3 		mov	r3, #47
 3807 37e8 0030C4E5 		strb	r3, [r4, #0]
 3808 37ec 68071FE5 		ldr	r0, .L269+228
 3809 37f0 0110A0E3 		mov	r1, #1
 3810 37f4 FEFFFFEB 		bl	uart_transmit
 3811 37f8 0030D5E5 		ldrb	r3, [r5, #0]	@ zero_extendqisi2
 3812 37fc 0020D4E5 		ldrb	r2, [r4, #0]	@ zero_extendqisi2
 3813 3800 023083E2 		add	r3, r3, #2
 3814 3804 FF3003E2 		and	r3, r3, #255
 3815 3808 0030C5E5 		strb	r3, [r5, #0]
 3816 380c 023083E0 		add	r3, r3, r2
 3817 3810 0030C4E5 		strb	r3, [r4, #0]
 3818 3814 90071FE5 		ldr	r0, .L269+228
 3819 3818 0210A0E3 		mov	r1, #2
 3820 381c FEFFFFEB 		bl	uart_transmit
 3821 3820 0030D5E5 		ldrb	r3, [r5, #0]	@ zero_extendqisi2
 3822 3824 0020D4E5 		ldrb	r2, [r4, #0]	@ zero_extendqisi2
 3823 3828 103083E2 		add	r3, r3, #16
 3824 382c FF3003E2 		and	r3, r3, #255
 3825 3830 0030C5E5 		strb	r3, [r5, #0]
 3826 3834 023083E0 		add	r3, r3, r2
 3827 3838 0030C4E5 		strb	r3, [r4, #0]
 3828 383c B8071FE5 		ldr	r0, .L269+228
 3829 3840 1010A0E3 		mov	r1, #16
 3830 3844 FEFFFFEB 		bl	uart_transmit
 3831 3848 10781FE5 		ldr	r7, .L269+152
 3832 384c 0060A0E3 		mov	r6, #0
 3833              	.L90:
 3834 3850 0610D7E7 		ldrb	r1, [r7, r6]	@ zero_extendqisi2
 3835 3854 0030D5E5 		ldrb	r3, [r5, #0]	@ zero_extendqisi2
 3836 3858 0020D4E5 		ldrb	r2, [r4, #0]	@ zero_extendqisi2
 3837 385c 033081E0 		add	r3, r1, r3
 3838 3860 FF3003E2 		and	r3, r3, #255
 3839 3864 0030C5E5 		strb	r3, [r5, #0]
 3840 3868 023083E0 		add	r3, r3, r2
 3841 386c 0030C4E5 		strb	r3, [r4, #0]
 3842 3870 EC071FE5 		ldr	r0, .L269+228
 3843 3874 016086E2 		add	r6, r6, #1
 3844 3878 FEFFFFEB 		bl	uart_transmit
 3845 387c 100056E3 		cmp	r6, #16
 3846 3880 F2FFFF1A 		bne	.L90
 3847 3884 14381FE5 		ldr	r3, .L269+208
 3848 3888 04081FE5 		ldr	r0, .L269+228
 3849 388c 0010D3E5 		ldrb	r1, [r3, #0]	@ zero_extendqisi2
 3850 3890 FEFFFFEB 		bl	uart_transmit
 3851 3894 20381FE5 		ldr	r3, .L269+212
 3852 3898 14081FE5 		ldr	r0, .L269+228
 3853 389c 0010D3E5 		ldrb	r1, [r3, #0]	@ zero_extendqisi2
 3854 38a0 6A0000EA 		b	.L251
 3855              	.L88:
 3856 38a4 360053E3 		cmp	r3, #54
 3857 38a8 6A00001A 		bne	.L92
 3858 38ac 28081FE5 		ldr	r0, .L269+228
 3859 38b0 0C10A0E3 		mov	r1, #12
 3860 38b4 FEFFFFEB 		bl	uart_check_free_space
 3861 38b8 000050E3 		cmp	r0, #0
 3862 38bc B700000A 		beq	.L95
 3863 38c0 58381FE5 		ldr	r3, .L269+200
 3864 38c4 B020D3E1 		ldrh	r2, [r3, #0]
 3865 38c8 0C2082E2 		add	r2, r2, #12
 3866 38cc B020C3E1 		strh	r2, [r3, #0]	@ movhi
 3867 38d0 64381FE5 		ldr	r3, .L269+204
 3868 38d4 B020D3E1 		ldrh	r2, [r3, #0]
 3869 38d8 012082E2 		add	r2, r2, #1
 3870 38dc B020C3E1 		strh	r2, [r3, #0]	@ movhi
 3871 38e0 5C081FE5 		ldr	r0, .L269+228
 3872 38e4 9910A0E3 		mov	r1, #153
 3873 38e8 78581FE5 		ldr	r5, .L269+208
 3874 38ec FEFFFFEB 		bl	uart_transmit
 3875 38f0 6C081FE5 		ldr	r0, .L269+228
 3876 38f4 0C10A0E3 		mov	r1, #12
 3877 38f8 84481FE5 		ldr	r4, .L269+212
 3878 38fc FEFFFFEB 		bl	uart_transmit
 3879 3900 0D30A0E3 		mov	r3, #13
 3880 3904 0030C5E5 		strb	r3, [r5, #0]
 3881 3908 1930A0E3 		mov	r3, #25
 3882 390c 0030C4E5 		strb	r3, [r4, #0]
 3883 3910 8C081FE5 		ldr	r0, .L269+228
 3884 3914 0110A0E3 		mov	r1, #1
 3885 3918 FEFFFFEB 		bl	uart_transmit
 3886 391c 0030D5E5 		ldrb	r3, [r5, #0]	@ zero_extendqisi2
 3887 3920 0020D4E5 		ldrb	r2, [r4, #0]	@ zero_extendqisi2
 3888 3924 0B3083E2 		add	r3, r3, #11
 3889 3928 FF3003E2 		and	r3, r3, #255
 3890 392c 0030C5E5 		strb	r3, [r5, #0]
 3891 3930 023083E0 		add	r3, r3, r2
 3892 3934 0030C4E5 		strb	r3, [r4, #0]
 3893 3938 B4081FE5 		ldr	r0, .L269+228
 3894 393c 0B10A0E3 		mov	r1, #11
 3895 3940 FEFFFFEB 		bl	uart_transmit
 3896 3944 08391FE5 		ldr	r3, .L269+156
 3897 3948 0010D3E5 		ldrb	r1, [r3, #0]	@ zero_extendqisi2
 3898 394c 0030D5E5 		ldrb	r3, [r5, #0]	@ zero_extendqisi2
 3899 3950 0020D4E5 		ldrb	r2, [r4, #0]	@ zero_extendqisi2
 3900 3954 033081E0 		add	r3, r1, r3
 3901 3958 FF3003E2 		and	r3, r3, #255
 3902 395c 0030C5E5 		strb	r3, [r5, #0]
 3903 3960 023083E0 		add	r3, r3, r2
 3904 3964 0030C4E5 		strb	r3, [r4, #0]
 3905 3968 E4081FE5 		ldr	r0, .L269+228
 3906 396c FEFFFFEB 		bl	uart_transmit
 3907 3970 30391FE5 		ldr	r3, .L269+160
 3908 3974 0010D3E5 		ldrb	r1, [r3, #0]	@ zero_extendqisi2
 3909 3978 0030D5E5 		ldrb	r3, [r5, #0]	@ zero_extendqisi2
 3910 397c 0020D4E5 		ldrb	r2, [r4, #0]	@ zero_extendqisi2
 3911 3980 033081E0 		add	r3, r1, r3
 3912 3984 FF3003E2 		and	r3, r3, #255
 3913 3988 0030C5E5 		strb	r3, [r5, #0]
 3914 398c 023083E0 		add	r3, r3, r2
 3915 3990 0030C4E5 		strb	r3, [r4, #0]
 3916 3994 10091FE5 		ldr	r0, .L269+228
 3917 3998 FEFFFFEB 		bl	uart_transmit
 3918 399c 58391FE5 		ldr	r3, .L269+164
 3919 39a0 0010D3E5 		ldrb	r1, [r3, #0]	@ zero_extendqisi2
 3920 39a4 0030D5E5 		ldrb	r3, [r5, #0]	@ zero_extendqisi2
 3921 39a8 0020D4E5 		ldrb	r2, [r4, #0]	@ zero_extendqisi2
 3922 39ac 033081E0 		add	r3, r1, r3
 3923 39b0 FF3003E2 		and	r3, r3, #255
 3924 39b4 0030C5E5 		strb	r3, [r5, #0]
 3925 39b8 023083E0 		add	r3, r3, r2
 3926 39bc 0030C4E5 		strb	r3, [r4, #0]
 3927 39c0 3C091FE5 		ldr	r0, .L269+228
 3928 39c4 FEFFFFEB 		bl	uart_transmit
 3929 39c8 80391FE5 		ldr	r3, .L269+168
 3930 39cc 0010D3E5 		ldrb	r1, [r3, #0]	@ zero_extendqisi2
 3931 39d0 0030D5E5 		ldrb	r3, [r5, #0]	@ zero_extendqisi2
 3932 39d4 0020D4E5 		ldrb	r2, [r4, #0]	@ zero_extendqisi2
 3933 39d8 033081E0 		add	r3, r1, r3
 3934 39dc FF3003E2 		and	r3, r3, #255
 3935 39e0 0030C5E5 		strb	r3, [r5, #0]
 3936 39e4 023083E0 		add	r3, r3, r2
 3937 39e8 0030C4E5 		strb	r3, [r4, #0]
 3938 39ec 68091FE5 		ldr	r0, .L269+228
 3939 39f0 FEFFFFEB 		bl	uart_transmit
 3940 39f4 0020D4E5 		ldrb	r2, [r4, #0]	@ zero_extendqisi2
 3941 39f8 0030D5E5 		ldrb	r3, [r5, #0]	@ zero_extendqisi2
 3942 39fc 033082E0 		add	r3, r2, r3
 3943 3a00 0030C4E5 		strb	r3, [r4, #0]
 3944 3a04 0010A0E3 		mov	r1, #0
 3945 3a08 84091FE5 		ldr	r0, .L269+228
 3946 3a0c FEFFFFEB 		bl	uart_transmit
 3947 3a10 C4391FE5 		ldr	r3, .L269+172
 3948 3a14 0010D3E5 		ldrb	r1, [r3, #0]	@ zero_extendqisi2
 3949              	.L262:
 3950 3a18 0030D5E5 		ldrb	r3, [r5, #0]	@ zero_extendqisi2
 3951 3a1c 0020D4E5 		ldrb	r2, [r4, #0]	@ zero_extendqisi2
 3952 3a20 033081E0 		add	r3, r1, r3
 3953 3a24 FF3003E2 		and	r3, r3, #255
 3954 3a28 0030C5E5 		strb	r3, [r5, #0]
 3955 3a2c 023083E0 		add	r3, r3, r2
 3956 3a30 0030C4E5 		strb	r3, [r4, #0]
 3957 3a34 B0091FE5 		ldr	r0, .L269+228
 3958 3a38 FEFFFFEB 		bl	uart_transmit
 3959 3a3c B8091FE5 		ldr	r0, .L269+228
 3960 3a40 0010D5E5 		ldrb	r1, [r5, #0]	@ zero_extendqisi2
 3961 3a44 FEFFFFEB 		bl	uart_transmit
 3962 3a48 C4091FE5 		ldr	r0, .L269+228
 3963 3a4c 0010D4E5 		ldrb	r1, [r4, #0]	@ zero_extendqisi2
 3964              	.L251:
 3965 3a50 FEFFFFEB 		bl	uart_transmit
 3966 3a54 550000EA 		b	.L91
 3967              	.L92:
 3968 3a58 3C0053E3 		cmp	r3, #60
 3969 3a5c 5300000A 		beq	.L91
 3970 3a60 420053E3 		cmp	r3, #66
 3971 3a64 5100001A 		bne	.L91
 3972 3a68 183A1FE5 		ldr	r3, .L269+176
 3973 3a6c F661D3E1 		ldrsh	r6, [r3, #22]
 3974 3a70 F421D3E1 		ldrsh	r2, [r3, #20]
 3975 3a74 F831D3E1 		ldrsh	r3, [r3, #24]
 3976 3a78 000052E3 		cmp	r2, #0
 3977 3a7c 002062B2 		rsblt	r2, r2, #0
 3978 3a80 000056E3 		cmp	r6, #0
 3979 3a84 006066B2 		rsblt	r6, r6, #0
 3980 3a88 000053E3 		cmp	r3, #0
 3981 3a8c 003063B2 		rsblt	r3, r3, #0
 3982 3a90 026086E0 		add	r6, r6, r2
 3983 3a94 036086E0 		add	r6, r6, r3
 3984 3a98 0668A0E1 		mov	r6, r6, asl #16
 3985 3a9c 2668A0E1 		mov	r6, r6, lsr #16
 3986 3aa0 310056E3 		cmp	r6, #49
 3987 3aa4 200A1FE5 		ldr	r0, .L269+228
 3988 3aa8 0910A0E3 		mov	r1, #9
 3989 3aac BC60CDE1 		strh	r6, [sp, #12]	@ movhi
 3990 3ab0 0760A093 		movls	r6, #7
 3991 3ab4 0360A083 		movhi	r6, #3
 3992 3ab8 FEFFFFEB 		bl	uart_check_free_space
 3993 3abc 000050E3 		cmp	r0, #0
 3994 3ac0 3600000A 		beq	.L95
 3995 3ac4 5C3A1FE5 		ldr	r3, .L269+200
 3996 3ac8 B020D3E1 		ldrh	r2, [r3, #0]
 3997 3acc 092082E2 		add	r2, r2, #9
 3998 3ad0 B020C3E1 		strh	r2, [r3, #0]	@ movhi
 3999 3ad4 683A1FE5 		ldr	r3, .L269+204
 4000 3ad8 B020D3E1 		ldrh	r2, [r3, #0]
 4001 3adc 012082E2 		add	r2, r2, #1
 4002 3ae0 B020C3E1 		strh	r2, [r3, #0]	@ movhi
 4003 3ae4 600A1FE5 		ldr	r0, .L269+228
 4004 3ae8 9910A0E3 		mov	r1, #153
 4005 3aec 7C5A1FE5 		ldr	r5, .L269+208
 4006 3af0 FEFFFFEB 		bl	uart_transmit
 4007 3af4 700A1FE5 		ldr	r0, .L269+228
 4008 3af8 0910A0E3 		mov	r1, #9
 4009 3afc FEFFFFEB 		bl	uart_transmit
 4010 3b00 8C4A1FE5 		ldr	r4, .L269+212
 4011 3b04 0A30A0E3 		mov	r3, #10
 4012 3b08 0030C5E5 		strb	r3, [r5, #0]
 4013 3b0c 1330A0E3 		mov	r3, #19
 4014 3b10 0030C4E5 		strb	r3, [r4, #0]
 4015 3b14 900A1FE5 		ldr	r0, .L269+228
 4016 3b18 0110A0E3 		mov	r1, #1
 4017 3b1c FEFFFFEB 		bl	uart_transmit
 4018 3b20 0030D5E5 		ldrb	r3, [r5, #0]	@ zero_extendqisi2
 4019 3b24 0020D4E5 		ldrb	r2, [r4, #0]	@ zero_extendqisi2
 4020 3b28 183043E2 		sub	r3, r3, #24
 4021 3b2c FF3003E2 		and	r3, r3, #255
 4022 3b30 0030C5E5 		strb	r3, [r5, #0]
 4023 3b34 023083E0 		add	r3, r3, r2
 4024 3b38 0030C4E5 		strb	r3, [r4, #0]
 4025 3b3c B80A1FE5 		ldr	r0, .L269+228
 4026 3b40 E810A0E3 		mov	r1, #232
 4027 3b44 FEFFFFEB 		bl	uart_transmit
 4028 3b48 0030D5E5 		ldrb	r3, [r5, #0]	@ zero_extendqisi2
 4029 3b4c 0020D4E5 		ldrb	r2, [r4, #0]	@ zero_extendqisi2
 4030 3b50 033086E0 		add	r3, r6, r3
 4031 3b54 FF3003E2 		and	r3, r3, #255
 4032 3b58 0030C5E5 		strb	r3, [r5, #0]
 4033 3b5c 023083E0 		add	r3, r3, r2
 4034 3b60 0030C4E5 		strb	r3, [r4, #0]
 4035 3b64 E00A1FE5 		ldr	r0, .L269+228
 4036 3b68 0610A0E1 		mov	r1, r6
 4037 3b6c FEFFFFEB 		bl	uart_transmit
 4038 3b70 0C10DDE5 		ldrb	r1, [sp, #12]	@ zero_extendqisi2
 4039 3b74 0030D5E5 		ldrb	r3, [r5, #0]	@ zero_extendqisi2
 4040 3b78 0020D4E5 		ldrb	r2, [r4, #0]	@ zero_extendqisi2
 4041 3b7c 033081E0 		add	r3, r1, r3
 4042 3b80 FF3003E2 		and	r3, r3, #255
 4043 3b84 0030C5E5 		strb	r3, [r5, #0]
 4044 3b88 023083E0 		add	r3, r3, r2
 4045 3b8c 0030C4E5 		strb	r3, [r4, #0]
 4046 3b90 0C0B1FE5 		ldr	r0, .L269+228
 4047 3b94 FEFFFFEB 		bl	uart_transmit
 4048 3b98 0D10DDE5 		ldrb	r1, [sp, #13]	@ zero_extendqisi2
 4049 3b9c 9DFFFFEA 		b	.L262
 4050              	.L95:
 4051 3ba0 183B1FE5 		ldr	r3, .L269+232
 4052 3ba4 0020D3E5 		ldrb	r2, [r3, #0]	@ zero_extendqisi2
 4053 3ba8 012082E2 		add	r2, r2, #1
 4054 3bac 0020C3E5 		strb	r2, [r3, #0]
 4055              	.L91:
 4056 3bb0 5C3B1FE5 		ldr	r3, .L269+180
 4057 3bb4 B030D3E1 		ldrh	r3, [r3, #0]
 4058 3bb8 480053E3 		cmp	r3, #72
 4059 3bbc 6E00001A 		bne	.L96
 4060 3bc0 685B1FE5 		ldr	r5, .L269+184
 4061 3bc4 5C4B1FE5 		ldr	r4, .L269+200
 4062 3bc8 B000D5E1 		ldrh	r0, [r5, #0]
 4063 3bcc B060D4E1 		ldrh	r6, [r4, #0]
 4064 3bd0 060060E0 		rsb	r0, r0, r6
 4065 3bd4 FEFFFFEB 		bl	__aeabi_i2d
 4066 3bd8 7C2B1FE5 		ldr	r2, .L269+188
 4067 3bdc 7C3B1FE5 		ldr	r3, .L269+192
 4068 3be0 FEFFFFEB 		bl	__aeabi_ddiv
 4069 3be4 FEFFFFEB 		bl	__aeabi_d2uiz
 4070 3be8 B060C5E1 		strh	r6, [r5, #0]	@ movhi
 4071 3bec BC00CDE1 		strh	r0, [sp, #12]	@ movhi
 4072 3bf0 0B10A0E3 		mov	r1, #11
 4073 3bf4 700B1FE5 		ldr	r0, .L269+228
 4074 3bf8 FEFFFFEB 		bl	uart_check_free_space
 4075 3bfc 000050E3 		cmp	r0, #0
 4076 3c00 5900000A 		beq	.L97
 4077 3c04 B030D4E1 		ldrh	r3, [r4, #0]
 4078 3c08 9C6B1FE5 		ldr	r6, .L269+204
 4079 3c0c 0B3083E2 		add	r3, r3, #11
 4080 3c10 B030C4E1 		strh	r3, [r4, #0]	@ movhi
 4081 3c14 B030D6E1 		ldrh	r3, [r6, #0]
 4082 3c18 013083E2 		add	r3, r3, #1
 4083 3c1c B030C6E1 		strh	r3, [r6, #0]	@ movhi
 4084 3c20 9C0B1FE5 		ldr	r0, .L269+228
 4085 3c24 9910A0E3 		mov	r1, #153
 4086 3c28 B85B1FE5 		ldr	r5, .L269+208
 4087 3c2c FEFFFFEB 		bl	uart_transmit
 4088 3c30 AC0B1FE5 		ldr	r0, .L269+228
 4089 3c34 0B10A0E3 		mov	r1, #11
 4090 3c38 C44B1FE5 		ldr	r4, .L269+212
 4091 3c3c FEFFFFEB 		bl	uart_transmit
 4092 3c40 0C30A0E3 		mov	r3, #12
 4093 3c44 0030C5E5 		strb	r3, [r5, #0]
 4094 3c48 1730A0E3 		mov	r3, #23
 4095 3c4c 0030C4E5 		strb	r3, [r4, #0]
 4096 3c50 CC0B1FE5 		ldr	r0, .L269+228
 4097 3c54 0110A0E3 		mov	r1, #1
 4098 3c58 FEFFFFEB 		bl	uart_transmit
 4099 3c5c 0030D5E5 		ldrb	r3, [r5, #0]	@ zero_extendqisi2
 4100 3c60 0020D4E5 		ldrb	r2, [r4, #0]	@ zero_extendqisi2
 4101 3c64 1E3083E2 		add	r3, r3, #30
 4102 3c68 FF3003E2 		and	r3, r3, #255
 4103 3c6c 0030C5E5 		strb	r3, [r5, #0]
 4104 3c70 023083E0 		add	r3, r3, r2
 4105 3c74 0030C4E5 		strb	r3, [r4, #0]
 4106 3c78 F40B1FE5 		ldr	r0, .L269+228
 4107 3c7c 1E10A0E3 		mov	r1, #30
 4108 3c80 FEFFFFEB 		bl	uart_transmit
 4109 3c84 FC3B1FE5 		ldr	r3, .L269+232
 4110 3c88 0010D3E5 		ldrb	r1, [r3, #0]	@ zero_extendqisi2
 4111 3c8c 0030D5E5 		ldrb	r3, [r5, #0]	@ zero_extendqisi2
 4112 3c90 0020D4E5 		ldrb	r2, [r4, #0]	@ zero_extendqisi2
 4113 3c94 033081E0 		add	r3, r1, r3
 4114 3c98 FF3003E2 		and	r3, r3, #255
 4115 3c9c 0030C5E5 		strb	r3, [r5, #0]
 4116 3ca0 023083E0 		add	r3, r3, r2
 4117 3ca4 0030C4E5 		strb	r3, [r4, #0]
 4118 3ca8 240C1FE5 		ldr	r0, .L269+228
 4119 3cac FEFFFFEB 		bl	uart_transmit
 4120 3cb0 0C10DDE5 		ldrb	r1, [sp, #12]	@ zero_extendqisi2
 4121 3cb4 0030D5E5 		ldrb	r3, [r5, #0]	@ zero_extendqisi2
 4122 3cb8 0020D4E5 		ldrb	r2, [r4, #0]	@ zero_extendqisi2
 4123 3cbc 033081E0 		add	r3, r1, r3
 4124 3cc0 FF3003E2 		and	r3, r3, #255
 4125 3cc4 0030C5E5 		strb	r3, [r5, #0]
 4126 3cc8 023083E0 		add	r3, r3, r2
 4127 3ccc 0030C4E5 		strb	r3, [r4, #0]
 4128 3cd0 4C0C1FE5 		ldr	r0, .L269+228
 4129 3cd4 FEFFFFEB 		bl	uart_transmit
 4130 3cd8 0D10DDE5 		ldrb	r1, [sp, #13]	@ zero_extendqisi2
 4131 3cdc 0030D5E5 		ldrb	r3, [r5, #0]	@ zero_extendqisi2
 4132 3ce0 0020D4E5 		ldrb	r2, [r4, #0]	@ zero_extendqisi2
 4133 3ce4 033081E0 		add	r3, r1, r3
 4134 3ce8 FF3003E2 		and	r3, r3, #255
 4135 3cec 0030C5E5 		strb	r3, [r5, #0]
 4136 3cf0 023083E0 		add	r3, r3, r2
 4137 3cf4 0030C4E5 		strb	r3, [r4, #0]
 4138 3cf8 740C1FE5 		ldr	r0, .L269+228
 4139 3cfc FEFFFFEB 		bl	uart_transmit
 4140 3d00 0010D6E5 		ldrb	r1, [r6, #0]	@ zero_extendqisi2
 4141 3d04 0030D5E5 		ldrb	r3, [r5, #0]	@ zero_extendqisi2
 4142 3d08 0020D4E5 		ldrb	r2, [r4, #0]	@ zero_extendqisi2
 4143 3d0c 033081E0 		add	r3, r1, r3
 4144 3d10 FF3003E2 		and	r3, r3, #255
 4145 3d14 0030C5E5 		strb	r3, [r5, #0]
 4146 3d18 023083E0 		add	r3, r3, r2
 4147 3d1c 0030C4E5 		strb	r3, [r4, #0]
 4148 3d20 9C0C1FE5 		ldr	r0, .L269+228
 4149 3d24 FEFFFFEB 		bl	uart_transmit
 4150 3d28 0110D6E5 		ldrb	r1, [r6, #1]	@ zero_extendqisi2
 4151 3d2c 0030D5E5 		ldrb	r3, [r5, #0]	@ zero_extendqisi2
 4152 3d30 0020D4E5 		ldrb	r2, [r4, #0]	@ zero_extendqisi2
 4153 3d34 033081E0 		add	r3, r1, r3
 4154 3d38 FF3003E2 		and	r3, r3, #255
 4155 3d3c 0030C5E5 		strb	r3, [r5, #0]
 4156 3d40 023083E0 		add	r3, r3, r2
 4157 3d44 0030C4E5 		strb	r3, [r4, #0]
 4158 3d48 C40C1FE5 		ldr	r0, .L269+228
 4159 3d4c FEFFFFEB 		bl	uart_transmit
 4160 3d50 0010D5E5 		ldrb	r1, [r5, #0]	@ zero_extendqisi2
 4161 3d54 D00C1FE5 		ldr	r0, .L269+228
 4162 3d58 FEFFFFEB 		bl	uart_transmit
 4163 3d5c D80C1FE5 		ldr	r0, .L269+228
 4164 3d60 0010D4E5 		ldrb	r1, [r4, #0]	@ zero_extendqisi2
 4165 3d64 FEFFFFEB 		bl	uart_transmit
 4166 3d68 030000EA 		b	.L96
 4167              	.L97:
 4168 3d6c E43C1FE5 		ldr	r3, .L269+232
 4169 3d70 0020D3E5 		ldrb	r2, [r3, #0]	@ zero_extendqisi2
 4170 3d74 012082E2 		add	r2, r2, #1
 4171 3d78 0020C3E5 		strb	r2, [r3, #0]
 4172              	.L96:
 4173 3d7c 183D1FE5 		ldr	r3, .L269+196
 4174 3d80 B030D3E1 		ldrh	r3, [r3, #0]
 4175 3d84 4E0053E3 		cmp	r3, #78
 4176 3d88 8D00001A 		bne	.L21
 4177 3d8c 080D1FE5 		ldr	r0, .L269+228
 4178 3d90 0F10A0E3 		mov	r1, #15
 4179 3d94 FEFFFFEB 		bl	uart_check_free_space
 4180 3d98 000050E3 		cmp	r0, #0
 4181 3d9c 8400000A 		beq	.L98
 4182 3da0 383D1FE5 		ldr	r3, .L269+200
 4183 3da4 B020D3E1 		ldrh	r2, [r3, #0]
 4184 3da8 0F2082E2 		add	r2, r2, #15
 4185 3dac B020C3E1 		strh	r2, [r3, #0]	@ movhi
 4186 3db0 443D1FE5 		ldr	r3, .L269+204
 4187 3db4 B020D3E1 		ldrh	r2, [r3, #0]
 4188 3db8 012082E2 		add	r2, r2, #1
 4189 3dbc B020C3E1 		strh	r2, [r3, #0]	@ movhi
 4190 3dc0 3C0D1FE5 		ldr	r0, .L269+228
 4191 3dc4 9910A0E3 		mov	r1, #153
 4192 3dc8 585D1FE5 		ldr	r5, .L269+208
 4193 3dcc FEFFFFEB 		bl	uart_transmit
 4194 3dd0 4C0D1FE5 		ldr	r0, .L269+228
 4195 3dd4 0F10A0E3 		mov	r1, #15
 4196 3dd8 644D1FE5 		ldr	r4, .L269+212
 4197 3ddc FEFFFFEB 		bl	uart_transmit
 4198 3de0 1030A0E3 		mov	r3, #16
 4199 3de4 0030C5E5 		strb	r3, [r5, #0]
 4200 3de8 1F30A0E3 		mov	r3, #31
 4201 3dec 0030C4E5 		strb	r3, [r4, #0]
 4202 3df0 6C0D1FE5 		ldr	r0, .L269+228
 4203 3df4 0110A0E3 		mov	r1, #1
 4204 3df8 FEFFFFEB 		bl	uart_transmit
 4205 3dfc 0030D5E5 		ldrb	r3, [r5, #0]	@ zero_extendqisi2
 4206 3e00 0020D4E5 		ldrb	r2, [r4, #0]	@ zero_extendqisi2
 4207 3e04 093083E2 		add	r3, r3, #9
 4208 3e08 FF3003E2 		and	r3, r3, #255
 4209 3e0c 946D1FE5 		ldr	r6, .L269+216
 4210 3e10 0030C5E5 		strb	r3, [r5, #0]
 4211 3e14 023083E0 		add	r3, r3, r2
 4212 3e18 0030C4E5 		strb	r3, [r4, #0]
 4213 3e1c 980D1FE5 		ldr	r0, .L269+228
 4214 3e20 0910A0E3 		mov	r1, #9
 4215 3e24 FEFFFFEB 		bl	uart_transmit
 4216 3e28 0010D6E5 		ldrb	r1, [r6, #0]	@ zero_extendqisi2
 4217 3e2c 0030D5E5 		ldrb	r3, [r5, #0]	@ zero_extendqisi2
 4218 3e30 0020D4E5 		ldrb	r2, [r4, #0]	@ zero_extendqisi2
 4219 3e34 033081E0 		add	r3, r1, r3
 4220 3e38 FF3003E2 		and	r3, r3, #255
 4221 3e3c 0030C5E5 		strb	r3, [r5, #0]
 4222 3e40 023083E0 		add	r3, r3, r2
 4223 3e44 0030C4E5 		strb	r3, [r4, #0]
 4224 3e48 C40D1FE5 		ldr	r0, .L269+228
 4225 3e4c FEFFFFEB 		bl	uart_transmit
 4226 3e50 0110D6E5 		ldrb	r1, [r6, #1]	@ zero_extendqisi2
 4227 3e54 0030D5E5 		ldrb	r3, [r5, #0]	@ zero_extendqisi2
 4228 3e58 0020D4E5 		ldrb	r2, [r4, #0]	@ zero_extendqisi2
 4229 3e5c 033081E0 		add	r3, r1, r3
 4230 3e60 FF3003E2 		and	r3, r3, #255
 4231 3e64 0030C5E5 		strb	r3, [r5, #0]
 4232 3e68 023083E0 		add	r3, r3, r2
 4233 3e6c 0030C4E5 		strb	r3, [r4, #0]
 4234 3e70 EC0D1FE5 		ldr	r0, .L269+228
 4235 3e74 FEFFFFEB 		bl	uart_transmit
 4236 3e78 0210D6E5 		ldrb	r1, [r6, #2]	@ zero_extendqisi2
 4237 3e7c 0030D5E5 		ldrb	r3, [r5, #0]	@ zero_extendqisi2
 4238 3e80 0020D4E5 		ldrb	r2, [r4, #0]	@ zero_extendqisi2
 4239 3e84 033081E0 		add	r3, r1, r3
 4240 3e88 FF3003E2 		and	r3, r3, #255
 4241 3e8c 0030C5E5 		strb	r3, [r5, #0]
 4242 3e90 023083E0 		add	r3, r3, r2
 4243 3e94 0030C4E5 		strb	r3, [r4, #0]
 4244 3e98 140E1FE5 		ldr	r0, .L269+228
 4245 3e9c FEFFFFEB 		bl	uart_transmit
 4246 3ea0 0310D6E5 		ldrb	r1, [r6, #3]	@ zero_extendqisi2
 4247 3ea4 0030D5E5 		ldrb	r3, [r5, #0]	@ zero_extendqisi2
 4248 3ea8 0020D4E5 		ldrb	r2, [r4, #0]	@ zero_extendqisi2
 4249 3eac 033081E0 		add	r3, r1, r3
 4250 3eb0 FF3003E2 		and	r3, r3, #255
 4251 3eb4 386E1FE5 		ldr	r6, .L269+220
 4252 3eb8 0030C5E5 		strb	r3, [r5, #0]
 4253 3ebc 023083E0 		add	r3, r3, r2
 4254 3ec0 0030C4E5 		strb	r3, [r4, #0]
 4255 3ec4 400E1FE5 		ldr	r0, .L269+228
 4256 3ec8 FEFFFFEB 		bl	uart_transmit
 4257 3ecc 0010D6E5 		ldrb	r1, [r6, #0]	@ zero_extendqisi2
 4258 3ed0 0030D5E5 		ldrb	r3, [r5, #0]	@ zero_extendqisi2
 4259 3ed4 0020D4E5 		ldrb	r2, [r4, #0]	@ zero_extendqisi2
 4260 3ed8 033081E0 		add	r3, r1, r3
 4261 3edc FF3003E2 		and	r3, r3, #255
 4262 3ee0 0030C5E5 		strb	r3, [r5, #0]
 4263 3ee4 023083E0 		add	r3, r3, r2
 4264 3ee8 0030C4E5 		strb	r3, [r4, #0]
 4265 3eec 680E1FE5 		ldr	r0, .L269+228
 4266 3ef0 FEFFFFEB 		bl	uart_transmit
 4267 3ef4 0110D6E5 		ldrb	r1, [r6, #1]	@ zero_extendqisi2
 4268 3ef8 0030D5E5 		ldrb	r3, [r5, #0]	@ zero_extendqisi2
 4269 3efc 0020D4E5 		ldrb	r2, [r4, #0]	@ zero_extendqisi2
 4270 3f00 033081E0 		add	r3, r1, r3
 4271 3f04 FF3003E2 		and	r3, r3, #255
 4272 3f08 0030C5E5 		strb	r3, [r5, #0]
 4273 3f0c 023083E0 		add	r3, r3, r2
 4274 3f10 0030C4E5 		strb	r3, [r4, #0]
 4275 3f14 900E1FE5 		ldr	r0, .L269+228
 4276 3f18 FEFFFFEB 		bl	uart_transmit
 4277 3f1c 0210D6E5 		ldrb	r1, [r6, #2]	@ zero_extendqisi2
 4278 3f20 0030D5E5 		ldrb	r3, [r5, #0]	@ zero_extendqisi2
 4279 3f24 0020D4E5 		ldrb	r2, [r4, #0]	@ zero_extendqisi2
 4280 3f28 033081E0 		add	r3, r1, r3
 4281 3f2c FF3003E2 		and	r3, r3, #255
 4282 3f30 0030C5E5 		strb	r3, [r5, #0]
 4283 3f34 023083E0 		add	r3, r3, r2
 4284 3f38 0030C4E5 		strb	r3, [r4, #0]
 4285 3f3c B80E1FE5 		ldr	r0, .L269+228
 4286 3f40 FEFFFFEB 		bl	uart_transmit
 4287 3f44 0310D6E5 		ldrb	r1, [r6, #3]	@ zero_extendqisi2
 4288 3f48 0030D5E5 		ldrb	r3, [r5, #0]	@ zero_extendqisi2
 4289 3f4c 0020D4E5 		ldrb	r2, [r4, #0]	@ zero_extendqisi2
 4290 3f50 033081E0 		add	r3, r1, r3
 4291 3f54 FF3003E2 		and	r3, r3, #255
 4292 3f58 0030C5E5 		strb	r3, [r5, #0]
 4293 3f5c 023083E0 		add	r3, r3, r2
 4294 3f60 0030C4E5 		strb	r3, [r4, #0]
 4295 3f64 E00E1FE5 		ldr	r0, .L269+228
 4296 3f68 FEFFFFEB 		bl	uart_transmit
 4297 3f6c EC3E1FE5 		ldr	r3, .L269+224
 4298 3f70 0010D3E5 		ldrb	r1, [r3, #0]	@ zero_extendqisi2
 4299 3f74 0030D5E5 		ldrb	r3, [r5, #0]	@ zero_extendqisi2
 4300 3f78 0020D4E5 		ldrb	r2, [r4, #0]	@ zero_extendqisi2
 4301 3f7c 033081E0 		add	r3, r1, r3
 4302 3f80 FF3003E2 		and	r3, r3, #255
 4303 3f84 0030C5E5 		strb	r3, [r5, #0]
 4304 3f88 023083E0 		add	r3, r3, r2
 4305 3f8c 0030C4E5 		strb	r3, [r4, #0]
 4306 3f90 0C0F1FE5 		ldr	r0, .L269+228
 4307 3f94 FEFFFFEB 		bl	uart_transmit
 4308 3f98 0010D5E5 		ldrb	r1, [r5, #0]	@ zero_extendqisi2
 4309 3f9c 180F1FE5 		ldr	r0, .L269+228
 4310 3fa0 FEFFFFEB 		bl	uart_transmit
 4311 3fa4 200F1FE5 		ldr	r0, .L269+228
 4312 3fa8 0010D4E5 		ldrb	r1, [r4, #0]	@ zero_extendqisi2
 4313 3fac FEFFFFEB 		bl	uart_transmit
 4314 3fb0 030000EA 		b	.L21
 4315              	.L98:
 4316 3fb4 2C3F1FE5 		ldr	r3, .L269+232
 4317 3fb8 0020D3E5 		ldrb	r2, [r3, #0]	@ zero_extendqisi2
 4318 3fbc 012082E2 		add	r2, r2, #1
 4319 3fc0 0020C3E5 		strb	r2, [r3, #0]
 4320              	.L21:
 4321 3fc4 383F1FE5 		ldr	r3, .L269+236
 4322 3fc8 0030D3E5 		ldrb	r3, [r3, #0]	@ zero_extendqisi2
 4323 3fcc 010053E3 		cmp	r3, #1
 4324 3fd0 240F001A 		bne	.L99
 4325 3fd4 443F1FE5 		ldr	r3, .L269+240
 4326 3fd8 0020D3E5 		ldrb	r2, [r3, #0]	@ zero_extendqisi2
 4327 3fdc 012082E2 		add	r2, r2, #1
 4328 3fe0 FF2002E2 		and	r2, r2, #255
 4329 3fe4 3E0052E3 		cmp	r2, #62
 4330 3fe8 0020C3E5 		strb	r2, [r3, #0]
 4331 3fec 0020A083 		movhi	r2, #0
 4332 3ff0 0020C385 		strhib	r2, [r3, #0]
 4333 3ff4 603F1FE5 		ldr	r3, .L269+244
 4334 3ff8 0020D3E5 		ldrb	r2, [r3, #0]	@ zero_extendqisi2
 4335 3ffc 012082E2 		add	r2, r2, #1
 4336 4000 FF2002E2 		and	r2, r2, #255
 4337 4004 410052E3 		cmp	r2, #65
 4338 4008 0020C3E5 		strb	r2, [r3, #0]
 4339 400c 0020A083 		movhi	r2, #0
 4340 4010 0020C385 		strhib	r2, [r3, #0]
 4341 4014 7C3F1FE5 		ldr	r3, .L269+248
 4342 4018 0020D3E5 		ldrb	r2, [r3, #0]	@ zero_extendqisi2
 4343 401c 012082E2 		add	r2, r2, #1
 4344 4020 FF2002E2 		and	r2, r2, #255
 4345 4024 4D0052E3 		cmp	r2, #77
 4346 4028 0020C3E5 		strb	r2, [r3, #0]
 4347 402c 0020A083 		movhi	r2, #0
 4348 4030 0020C385 		strhib	r2, [r3, #0]
 4349 4034 983F1FE5 		ldr	r3, .L269+252
 4350 4038 0020D3E5 		ldrb	r2, [r3, #0]	@ zero_extendqisi2
 4351 403c 012082E2 		add	r2, r2, #1
 4352 4040 FF2002E2 		and	r2, r2, #255
 4353 4044 530052E3 		cmp	r2, #83
 4354 4048 0020C3E5 		strb	r2, [r3, #0]
 4355 404c 0020A083 		movhi	r2, #0
 4356 4050 0020C385 		strhib	r2, [r3, #0]
 4357 4054 B43F1FE5 		ldr	r3, .L269+256
 4358 4058 0020D3E5 		ldrb	r2, [r3, #0]	@ zero_extendqisi2
 4359 405c 012082E2 		add	r2, r2, #1
 4360 4060 FF2002E2 		and	r2, r2, #255
 4361 4064 590052E3 		cmp	r2, #89
 4362 4068 0020C3E5 		strb	r2, [r3, #0]
 4363 406c 0020A083 		movhi	r2, #0
 4364 4070 0020C385 		strhib	r2, [r3, #0]
 4365 4074 D03F1FE5 		ldr	r3, .L269+260
 4366 4078 0020D3E5 		ldrb	r2, [r3, #0]	@ zero_extendqisi2
 4367 407c 012082E2 		add	r2, r2, #1
 4368 4080 FF2002E2 		and	r2, r2, #255
 4369 4084 7D0052E3 		cmp	r2, #125
 4370 4088 0020C3E5 		strb	r2, [r3, #0]
 4371 408c 0020A083 		movhi	r2, #0
 4372 4090 0020C385 		strhib	r2, [r3, #0]
 4373 4094 EC3F1FE5 		ldr	r3, .L269+264
 4374 4098 0020D3E5 		ldrb	r2, [r3, #0]	@ zero_extendqisi2
 4375 409c 012082E2 		add	r2, r2, #1
 4376 40a0 FF2002E2 		and	r2, r2, #255
 4377 40a4 B30052E3 		cmp	r2, #179
 4378 40a8 0020C3E5 		strb	r2, [r3, #0]
 4379 40ac 0020A083 		movhi	r2, #0
 4380 40b0 0020C385 		strhib	r2, [r3, #0]
 4381 40b4 803F9FE5 		ldr	r3, .L271+236
 4382 40b8 0020D3E5 		ldrb	r2, [r3, #0]	@ zero_extendqisi2
 4383 40bc 012082E2 		add	r2, r2, #1
 4384 40c0 FF2002E2 		and	r2, r2, #255
 4385 40c4 B60052E3 		cmp	r2, #182
 4386 40c8 0020C3E5 		strb	r2, [r3, #0]
 4387 40cc 0020A083 		movhi	r2, #0
 4388 40d0 0020C385 		strhib	r2, [r3, #0]
 4389 40d4 743E9FE5 		ldr	r3, .L271
 4390 40d8 0020D3E5 		ldrb	r2, [r3, #0]	@ zero_extendqisi2
 4391 40dc 012082E2 		add	r2, r2, #1
 4392 40e0 FF2002E2 		and	r2, r2, #255
 4393 40e4 BF0052E3 		cmp	r2, #191
 4394 40e8 0020C3E5 		strb	r2, [r3, #0]
 4395 40ec 0020A083 		movhi	r2, #0
 4396 40f0 0020C385 		strhib	r2, [r3, #0]
 4397 40f4 583E9FE5 		ldr	r3, .L271+4
 4398 40f8 0020D3E5 		ldrb	r2, [r3, #0]	@ zero_extendqisi2
 4399 40fc 012082E2 		add	r2, r2, #1
 4400 4100 FF2002E2 		and	r2, r2, #255
 4401 4104 EF0052E3 		cmp	r2, #239
 4402 4108 0020C3E5 		strb	r2, [r3, #0]
 4403 410c 0020A083 		movhi	r2, #0
 4404 4110 0020C385 		strhib	r2, [r3, #0]
 4405 4114 3C3E9FE5 		ldr	r3, .L271+8
 4406 4118 0020D3E5 		ldrb	r2, [r3, #0]	@ zero_extendqisi2
 4407 411c 012082E2 		add	r2, r2, #1
 4408 4120 FF2002E2 		and	r2, r2, #255
 4409 4124 F20052E3 		cmp	r2, #242
 4410 4128 0020C3E5 		strb	r2, [r3, #0]
 4411 412c 0020A083 		movhi	r2, #0
 4412 4130 0020C385 		strhib	r2, [r3, #0]
 4413 4134 203E9FE5 		ldr	r3, .L271+12
 4414 4138 B020D3E1 		ldrh	r2, [r3, #0]
 4415 413c 012082E2 		add	r2, r2, #1
 4416 4140 0228A0E1 		mov	r2, r2, asl #16
 4417 4144 2228A0E1 		mov	r2, r2, lsr #16
 4418 4148 4B0F52E3 		cmp	r2, #300
 4419 414c B020C3E1 		strh	r2, [r3, #0]	@ movhi
 4420 4150 0020A023 		movcs	r2, #0
 4421 4154 B020C321 		strcsh	r2, [r3, #0]	@ movhi
 4422 4158 003E9FE5 		ldr	r3, .L271+16
 4423 415c B020D3E1 		ldrh	r2, [r3, #0]
 4424 4160 012082E2 		add	r2, r2, #1
 4425 4164 F81D9FE5 		ldr	r1, .L271+20
 4426 4168 0228A0E1 		mov	r2, r2, asl #16
 4427 416c 2228A0E1 		mov	r2, r2, lsr #16
 4428 4170 010052E1 		cmp	r2, r1
 4429 4174 B020C3E1 		strh	r2, [r3, #0]	@ movhi
 4430 4178 0020A083 		movhi	r2, #0
 4431 417c B020C381 		strhih	r2, [r3, #0]	@ movhi
 4432 4180 E03D9FE5 		ldr	r3, .L271+24
 4433 4184 B020D3E1 		ldrh	r2, [r3, #0]
 4434 4188 012082E2 		add	r2, r2, #1
 4435 418c 0228A0E1 		mov	r2, r2, asl #16
 4436 4190 2228A0E1 		mov	r2, r2, lsr #16
 4437 4194 4E0F52E3 		cmp	r2, #312
 4438 4198 B020C3E1 		strh	r2, [r3, #0]	@ movhi
 4439 419c 0020A023 		movcs	r2, #0
 4440 41a0 B020C321 		strcsh	r2, [r3, #0]	@ movhi
 4441 41a4 C03D9FE5 		ldr	r3, .L271+28
 4442 41a8 B020D3E1 		ldrh	r2, [r3, #0]
 4443 41ac 012082E2 		add	r2, r2, #1
 4444 41b0 0228A0E1 		mov	r2, r2, asl #16
 4445 41b4 2228A0E1 		mov	r2, r2, lsr #16
 4446 41b8 870F52E3 		cmp	r2, #540
 4447 41bc B020C3E1 		strh	r2, [r3, #0]	@ movhi
 4448 41c0 0020A023 		movcs	r2, #0
 4449 41c4 B020C321 		strcsh	r2, [r3, #0]	@ movhi
 4450 41c8 A03D9FE5 		ldr	r3, .L271+32
 4451 41cc B020D3E1 		ldrh	r2, [r3, #0]
 4452 41d0 012082E2 		add	r2, r2, #1
 4453 41d4 0228A0E1 		mov	r2, r2, asl #16
 4454 41d8 941D9FE5 		ldr	r1, .L271+36
 4455 41dc 2228A0E1 		mov	r2, r2, lsr #16
 4456 41e0 010052E1 		cmp	r2, r1
 4457 41e4 B020C3E1 		strh	r2, [r3, #0]	@ movhi
 4458 41e8 0020A083 		movhi	r2, #0
 4459 41ec B020C381 		strhih	r2, [r3, #0]	@ movhi
 4460 41f0 803D9FE5 		ldr	r3, .L271+40
 4461 41f4 0030D3E5 		ldrb	r3, [r3, #0]	@ zero_extendqisi2
 4462 41f8 000053E3 		cmp	r3, #0
 4463 41fc FA01001A 		bne	.L116
 4464 4200 EC4D9FE5 		ldr	r4, .L271+164
 4465 4204 403094E5 		ldr	r3, [r4, #64]
 4466 4208 480094E5 		ldr	r0, [r4, #72]
 4467 420c 003063E2 		rsb	r3, r3, #0
 4468 4210 BC30CDE1 		strh	r3, [sp, #12]	@ movhi
 4469 4214 FEFFFFEB 		bl	__aeabi_i2d
 4470 4218 5C2D9FE5 		ldr	r2, .L271+44
 4471 421c 5C3D9FE5 		ldr	r3, .L271+48
 4472 4220 FEFFFFEB 		bl	__aeabi_dmul
 4473 4224 0020A0E3 		mov	r2, #0
 4474 4228 543D9FE5 		ldr	r3, .L271+52
 4475 422c FEFFFFEB 		bl	__aeabi_ddiv
 4476 4230 FEFFFFEB 		bl	__aeabi_d2iz
 4477 4234 2110A0E3 		mov	r1, #33
 4478 4238 BE00CDE1 		strh	r0, [sp, #14]	@ movhi
 4479 423c 1C0E9FE5 		ldr	r0, .L271+272
 4480 4240 FEFFFFEB 		bl	uart_check_free_space
 4481 4244 000050E3 		cmp	r0, #0
 4482 4248 3601000A 		beq	.L117
 4483 424c F03D9FE5 		ldr	r3, .L271+244
 4484 4250 B020D3E1 		ldrh	r2, [r3, #0]
 4485 4254 212082E2 		add	r2, r2, #33
 4486 4258 B020C3E1 		strh	r2, [r3, #0]	@ movhi
 4487 425c E43D9FE5 		ldr	r3, .L271+248
 4488 4260 B020D3E1 		ldrh	r2, [r3, #0]
 4489 4264 012082E2 		add	r2, r2, #1
 4490 4268 B020C3E1 		strh	r2, [r3, #0]	@ movhi
 4491 426c EC0D9FE5 		ldr	r0, .L271+272
 4492 4270 9910A0E3 		mov	r1, #153
 4493 4274 D06D9FE5 		ldr	r6, .L271+252
 4494 4278 FEFFFFEB 		bl	uart_transmit
 4495 427c DC0D9FE5 		ldr	r0, .L271+272
 4496 4280 2110A0E3 		mov	r1, #33
 4497 4284 C45D9FE5 		ldr	r5, .L271+256
 4498 4288 FEFFFFEB 		bl	uart_transmit
 4499 428c 2230A0E3 		mov	r3, #34
 4500 4290 0030C6E5 		strb	r3, [r6, #0]
 4501 4294 4330A0E3 		mov	r3, #67
 4502 4298 0030C5E5 		strb	r3, [r5, #0]
 4503 429c BC0D9FE5 		ldr	r0, .L271+272
 4504 42a0 0110A0E3 		mov	r1, #1
 4505 42a4 FEFFFFEB 		bl	uart_transmit
 4506 42a8 0030D6E5 		ldrb	r3, [r6, #0]	@ zero_extendqisi2
 4507 42ac 0020D5E5 		ldrb	r2, [r5, #0]	@ zero_extendqisi2
 4508 42b0 083083E2 		add	r3, r3, #8
 4509 42b4 FF3003E2 		and	r3, r3, #255
 4510 42b8 0030C6E5 		strb	r3, [r6, #0]
 4511 42bc 023083E0 		add	r3, r3, r2
 4512 42c0 0030C5E5 		strb	r3, [r5, #0]
 4513 42c4 940D9FE5 		ldr	r0, .L271+272
 4514 42c8 0810A0E3 		mov	r1, #8
 4515 42cc FEFFFFEB 		bl	uart_transmit
 4516 42d0 5B10D4E5 		ldrb	r1, [r4, #91]	@ zero_extendqisi2
 4517 42d4 0030D6E5 		ldrb	r3, [r6, #0]	@ zero_extendqisi2
 4518 42d8 0020D5E5 		ldrb	r2, [r5, #0]	@ zero_extendqisi2
 4519 42dc 033081E0 		add	r3, r1, r3
 4520 42e0 FF3003E2 		and	r3, r3, #255
 4521 42e4 0030C6E5 		strb	r3, [r6, #0]
 4522 42e8 023083E0 		add	r3, r3, r2
 4523 42ec 0030C5E5 		strb	r3, [r5, #0]
 4524 42f0 680D9FE5 		ldr	r0, .L271+272
 4525 42f4 FEFFFFEB 		bl	uart_transmit
 4526 42f8 1C10D4E5 		ldrb	r1, [r4, #28]	@ zero_extendqisi2
 4527 42fc 0030D6E5 		ldrb	r3, [r6, #0]	@ zero_extendqisi2
 4528 4300 0020D5E5 		ldrb	r2, [r5, #0]	@ zero_extendqisi2
 4529 4304 033081E0 		add	r3, r1, r3
 4530 4308 FF3003E2 		and	r3, r3, #255
 4531 430c 0030C6E5 		strb	r3, [r6, #0]
 4532 4310 023083E0 		add	r3, r3, r2
 4533 4314 0030C5E5 		strb	r3, [r5, #0]
 4534 4318 400D9FE5 		ldr	r0, .L271+272
 4535 431c FEFFFFEB 		bl	uart_transmit
 4536 4320 1D10D4E5 		ldrb	r1, [r4, #29]	@ zero_extendqisi2
 4537 4324 0030D6E5 		ldrb	r3, [r6, #0]	@ zero_extendqisi2
 4538 4328 0020D5E5 		ldrb	r2, [r5, #0]	@ zero_extendqisi2
 4539 432c 033081E0 		add	r3, r1, r3
 4540 4330 FF3003E2 		and	r3, r3, #255
 4541 4334 0030C6E5 		strb	r3, [r6, #0]
 4542 4338 023083E0 		add	r3, r3, r2
 4543 433c 0030C5E5 		strb	r3, [r5, #0]
 4544 4340 180D9FE5 		ldr	r0, .L271+272
 4545 4344 FEFFFFEB 		bl	uart_transmit
 4546 4348 1E10D4E5 		ldrb	r1, [r4, #30]	@ zero_extendqisi2
 4547 434c 0030D6E5 		ldrb	r3, [r6, #0]	@ zero_extendqisi2
 4548 4350 0020D5E5 		ldrb	r2, [r5, #0]	@ zero_extendqisi2
 4549 4354 033081E0 		add	r3, r1, r3
 4550 4358 FF3003E2 		and	r3, r3, #255
 4551 435c 0030C6E5 		strb	r3, [r6, #0]
 4552 4360 023083E0 		add	r3, r3, r2
 4553 4364 0030C5E5 		strb	r3, [r5, #0]
 4554 4368 F00C9FE5 		ldr	r0, .L271+272
 4555 436c FEFFFFEB 		bl	uart_transmit
 4556 4370 1F10D4E5 		ldrb	r1, [r4, #31]	@ zero_extendqisi2
 4557 4374 0030D6E5 		ldrb	r3, [r6, #0]	@ zero_extendqisi2
 4558 4378 0020D5E5 		ldrb	r2, [r5, #0]	@ zero_extendqisi2
 4559 437c 033081E0 		add	r3, r1, r3
 4560 4380 FF3003E2 		and	r3, r3, #255
 4561 4384 0030C6E5 		strb	r3, [r6, #0]
 4562 4388 023083E0 		add	r3, r3, r2
 4563 438c 0030C5E5 		strb	r3, [r5, #0]
 4564 4390 C80C9FE5 		ldr	r0, .L271+272
 4565 4394 FEFFFFEB 		bl	uart_transmit
 4566 4398 1810D4E5 		ldrb	r1, [r4, #24]	@ zero_extendqisi2
 4567 439c 0030D6E5 		ldrb	r3, [r6, #0]	@ zero_extendqisi2
 4568 43a0 0020D5E5 		ldrb	r2, [r5, #0]	@ zero_extendqisi2
 4569 43a4 033081E0 		add	r3, r1, r3
 4570 43a8 FF3003E2 		and	r3, r3, #255
 4571 43ac 0030C6E5 		strb	r3, [r6, #0]
 4572 43b0 023083E0 		add	r3, r3, r2
 4573 43b4 0030C5E5 		strb	r3, [r5, #0]
 4574 43b8 A00C9FE5 		ldr	r0, .L271+272
 4575 43bc FEFFFFEB 		bl	uart_transmit
 4576 43c0 1910D4E5 		ldrb	r1, [r4, #25]	@ zero_extendqisi2
 4577 43c4 0030D6E5 		ldrb	r3, [r6, #0]	@ zero_extendqisi2
 4578 43c8 0020D5E5 		ldrb	r2, [r5, #0]	@ zero_extendqisi2
 4579 43cc 033081E0 		add	r3, r1, r3
 4580 43d0 FF3003E2 		and	r3, r3, #255
 4581 43d4 0030C6E5 		strb	r3, [r6, #0]
 4582 43d8 023083E0 		add	r3, r3, r2
 4583 43dc 0030C5E5 		strb	r3, [r5, #0]
 4584 43e0 780C9FE5 		ldr	r0, .L271+272
 4585 43e4 FEFFFFEB 		bl	uart_transmit
 4586 43e8 1A10D4E5 		ldrb	r1, [r4, #26]	@ zero_extendqisi2
 4587 43ec 0030D6E5 		ldrb	r3, [r6, #0]	@ zero_extendqisi2
 4588 43f0 0020D5E5 		ldrb	r2, [r5, #0]	@ zero_extendqisi2
 4589 43f4 033081E0 		add	r3, r1, r3
 4590 43f8 FF3003E2 		and	r3, r3, #255
 4591 43fc 0030C6E5 		strb	r3, [r6, #0]
 4592 4400 023083E0 		add	r3, r3, r2
 4593 4404 0030C5E5 		strb	r3, [r5, #0]
 4594 4408 500C9FE5 		ldr	r0, .L271+272
 4595 440c FEFFFFEB 		bl	uart_transmit
 4596 4410 1B10D4E5 		ldrb	r1, [r4, #27]	@ zero_extendqisi2
 4597 4414 0030D6E5 		ldrb	r3, [r6, #0]	@ zero_extendqisi2
 4598 4418 0020D5E5 		ldrb	r2, [r5, #0]	@ zero_extendqisi2
 4599 441c 033081E0 		add	r3, r1, r3
 4600 4420 FF3003E2 		and	r3, r3, #255
 4601 4424 0030C6E5 		strb	r3, [r6, #0]
 4602 4428 023083E0 		add	r3, r3, r2
 4603 442c 0030C5E5 		strb	r3, [r5, #0]
 4604 4430 280C9FE5 		ldr	r0, .L271+272
 4605 4434 FEFFFFEB 		bl	uart_transmit
 4606 4438 0E10DDE5 		ldrb	r1, [sp, #14]	@ zero_extendqisi2
 4607 443c 0030D6E5 		ldrb	r3, [r6, #0]	@ zero_extendqisi2
 4608 4440 0020D5E5 		ldrb	r2, [r5, #0]	@ zero_extendqisi2
 4609 4444 033081E0 		add	r3, r1, r3
 4610 4448 FF3003E2 		and	r3, r3, #255
 4611 444c 0030C6E5 		strb	r3, [r6, #0]
 4612 4450 023083E0 		add	r3, r3, r2
 4613 4454 0030C5E5 		strb	r3, [r5, #0]
 4614 4458 000C9FE5 		ldr	r0, .L271+272
 4615 445c FEFFFFEB 		bl	uart_transmit
 4616 4460 0F10DDE5 		ldrb	r1, [sp, #15]	@ zero_extendqisi2
 4617 4464 0030D6E5 		ldrb	r3, [r6, #0]	@ zero_extendqisi2
 4618 4468 0020D5E5 		ldrb	r2, [r5, #0]	@ zero_extendqisi2
 4619 446c 033081E0 		add	r3, r1, r3
 4620 4470 FF3003E2 		and	r3, r3, #255
 4621 4474 0030C6E5 		strb	r3, [r6, #0]
 4622 4478 023083E0 		add	r3, r3, r2
 4623 447c 0030C5E5 		strb	r3, [r5, #0]
 4624 4480 D80B9FE5 		ldr	r0, .L271+272
 4625 4484 FEFFFFEB 		bl	uart_transmit
 4626 4488 2810D4E5 		ldrb	r1, [r4, #40]	@ zero_extendqisi2
 4627 448c 0030D6E5 		ldrb	r3, [r6, #0]	@ zero_extendqisi2
 4628 4490 0020D5E5 		ldrb	r2, [r5, #0]	@ zero_extendqisi2
 4629 4494 033081E0 		add	r3, r1, r3
 4630 4498 FF3003E2 		and	r3, r3, #255
 4631 449c 0030C6E5 		strb	r3, [r6, #0]
 4632 44a0 023083E0 		add	r3, r3, r2
 4633 44a4 0030C5E5 		strb	r3, [r5, #0]
 4634 44a8 B00B9FE5 		ldr	r0, .L271+272
 4635 44ac FEFFFFEB 		bl	uart_transmit
 4636 44b0 2910D4E5 		ldrb	r1, [r4, #41]	@ zero_extendqisi2
 4637 44b4 0030D6E5 		ldrb	r3, [r6, #0]	@ zero_extendqisi2
 4638 44b8 0020D5E5 		ldrb	r2, [r5, #0]	@ zero_extendqisi2
 4639 44bc 033081E0 		add	r3, r1, r3
 4640 44c0 FF3003E2 		and	r3, r3, #255
 4641 44c4 0030C6E5 		strb	r3, [r6, #0]
 4642 44c8 023083E0 		add	r3, r3, r2
 4643 44cc 0030C5E5 		strb	r3, [r5, #0]
 4644 44d0 880B9FE5 		ldr	r0, .L271+272
 4645 44d4 FEFFFFEB 		bl	uart_transmit
 4646 44d8 2A10D4E5 		ldrb	r1, [r4, #42]	@ zero_extendqisi2
 4647 44dc 0030D6E5 		ldrb	r3, [r6, #0]	@ zero_extendqisi2
 4648 44e0 0020D5E5 		ldrb	r2, [r5, #0]	@ zero_extendqisi2
 4649 44e4 033081E0 		add	r3, r1, r3
 4650 44e8 FF3003E2 		and	r3, r3, #255
 4651 44ec 0030C6E5 		strb	r3, [r6, #0]
 4652 44f0 023083E0 		add	r3, r3, r2
 4653 44f4 0030C5E5 		strb	r3, [r5, #0]
 4654 44f8 600B9FE5 		ldr	r0, .L271+272
 4655 44fc FEFFFFEB 		bl	uart_transmit
 4656 4500 2B10D4E5 		ldrb	r1, [r4, #43]	@ zero_extendqisi2
 4657 4504 0030D6E5 		ldrb	r3, [r6, #0]	@ zero_extendqisi2
 4658 4508 0020D5E5 		ldrb	r2, [r5, #0]	@ zero_extendqisi2
 4659 450c 033081E0 		add	r3, r1, r3
 4660 4510 FF3003E2 		and	r3, r3, #255
 4661 4514 0030C6E5 		strb	r3, [r6, #0]
 4662 4518 023083E0 		add	r3, r3, r2
 4663 451c 0030C5E5 		strb	r3, [r5, #0]
 4664 4520 380B9FE5 		ldr	r0, .L271+272
 4665 4524 FEFFFFEB 		bl	uart_transmit
 4666 4528 4410D4E5 		ldrb	r1, [r4, #68]	@ zero_extendqisi2
 4667 452c 0030D6E5 		ldrb	r3, [r6, #0]	@ zero_extendqisi2
 4668 4530 0020D5E5 		ldrb	r2, [r5, #0]	@ zero_extendqisi2
 4669 4534 033081E0 		add	r3, r1, r3
 4670 4538 FF3003E2 		and	r3, r3, #255
 4671 453c 0030C6E5 		strb	r3, [r6, #0]
 4672 4540 023083E0 		add	r3, r3, r2
 4673 4544 0030C5E5 		strb	r3, [r5, #0]
 4674 4548 100B9FE5 		ldr	r0, .L271+272
 4675 454c FEFFFFEB 		bl	uart_transmit
 4676 4550 4510D4E5 		ldrb	r1, [r4, #69]	@ zero_extendqisi2
 4677 4554 0030D6E5 		ldrb	r3, [r6, #0]	@ zero_extendqisi2
 4678 4558 0020D5E5 		ldrb	r2, [r5, #0]	@ zero_extendqisi2
 4679 455c 033081E0 		add	r3, r1, r3
 4680 4560 FF3003E2 		and	r3, r3, #255
 4681 4564 0030C6E5 		strb	r3, [r6, #0]
 4682 4568 023083E0 		add	r3, r3, r2
 4683 456c 0030C5E5 		strb	r3, [r5, #0]
 4684 4570 E80A9FE5 		ldr	r0, .L271+272
 4685 4574 FEFFFFEB 		bl	uart_transmit
 4686 4578 0C10DDE5 		ldrb	r1, [sp, #12]	@ zero_extendqisi2
 4687 457c 0030D6E5 		ldrb	r3, [r6, #0]	@ zero_extendqisi2
 4688 4580 0020D5E5 		ldrb	r2, [r5, #0]	@ zero_extendqisi2
 4689 4584 033081E0 		add	r3, r1, r3
 4690 4588 FF3003E2 		and	r3, r3, #255
 4691 458c 0030C6E5 		strb	r3, [r6, #0]
 4692 4590 023083E0 		add	r3, r3, r2
 4693 4594 0030C5E5 		strb	r3, [r5, #0]
 4694 4598 C00A9FE5 		ldr	r0, .L271+272
 4695 459c FEFFFFEB 		bl	uart_transmit
 4696 45a0 0D10DDE5 		ldrb	r1, [sp, #13]	@ zero_extendqisi2
 4697 45a4 0030D6E5 		ldrb	r3, [r6, #0]	@ zero_extendqisi2
 4698 45a8 0020D5E5 		ldrb	r2, [r5, #0]	@ zero_extendqisi2
 4699 45ac 033081E0 		add	r3, r1, r3
 4700 45b0 FF3003E2 		and	r3, r3, #255
 4701 45b4 0030C6E5 		strb	r3, [r6, #0]
 4702 45b8 023083E0 		add	r3, r3, r2
 4703 45bc 0030C5E5 		strb	r3, [r5, #0]
 4704 45c0 980A9FE5 		ldr	r0, .L271+272
 4705 45c4 FEFFFFEB 		bl	uart_transmit
 4706 45c8 5C10D4E5 		ldrb	r1, [r4, #92]	@ zero_extendqisi2
 4707 45cc 0030D6E5 		ldrb	r3, [r6, #0]	@ zero_extendqisi2
 4708 45d0 0020D5E5 		ldrb	r2, [r5, #0]	@ zero_extendqisi2
 4709 45d4 033081E0 		add	r3, r1, r3
 4710 45d8 FF3003E2 		and	r3, r3, #255
 4711 45dc 0030C6E5 		strb	r3, [r6, #0]
 4712 45e0 023083E0 		add	r3, r3, r2
 4713 45e4 0030C5E5 		strb	r3, [r5, #0]
 4714 45e8 700A9FE5 		ldr	r0, .L271+272
 4715 45ec FEFFFFEB 		bl	uart_transmit
 4716 45f0 5D10D4E5 		ldrb	r1, [r4, #93]	@ zero_extendqisi2
 4717 45f4 0030D6E5 		ldrb	r3, [r6, #0]	@ zero_extendqisi2
 4718 45f8 0020D5E5 		ldrb	r2, [r5, #0]	@ zero_extendqisi2
 4719 45fc 033081E0 		add	r3, r1, r3
 4720 4600 FF3003E2 		and	r3, r3, #255
 4721 4604 0030C6E5 		strb	r3, [r6, #0]
 4722 4608 023083E0 		add	r3, r3, r2
 4723 460c 0030C5E5 		strb	r3, [r5, #0]
 4724 4610 480A9FE5 		ldr	r0, .L271+272
 4725 4614 FEFFFFEB 		bl	uart_transmit
 4726 4618 6010D4E5 		ldrb	r1, [r4, #96]	@ zero_extendqisi2
 4727 461c 0030D6E5 		ldrb	r3, [r6, #0]	@ zero_extendqisi2
 4728 4620 0020D5E5 		ldrb	r2, [r5, #0]	@ zero_extendqisi2
 4729 4624 033081E0 		add	r3, r1, r3
 4730 4628 FF3003E2 		and	r3, r3, #255
 4731 462c 0030C6E5 		strb	r3, [r6, #0]
 4732 4630 023083E0 		add	r3, r3, r2
 4733 4634 0030C5E5 		strb	r3, [r5, #0]
 4734 4638 200A9FE5 		ldr	r0, .L271+272
 4735 463c FEFFFFEB 		bl	uart_transmit
 4736 4640 6110D4E5 		ldrb	r1, [r4, #97]	@ zero_extendqisi2
 4737 4644 0030D6E5 		ldrb	r3, [r6, #0]	@ zero_extendqisi2
 4738 4648 0020D5E5 		ldrb	r2, [r5, #0]	@ zero_extendqisi2
 4739 464c 033081E0 		add	r3, r1, r3
 4740 4650 FF3003E2 		and	r3, r3, #255
 4741 4654 0030C6E5 		strb	r3, [r6, #0]
 4742 4658 023083E0 		add	r3, r3, r2
 4743 465c 0030C5E5 		strb	r3, [r5, #0]
 4744 4660 F8099FE5 		ldr	r0, .L271+272
 4745 4664 FEFFFFEB 		bl	uart_transmit
 4746 4668 6210D4E5 		ldrb	r1, [r4, #98]	@ zero_extendqisi2
 4747 466c 0030D6E5 		ldrb	r3, [r6, #0]	@ zero_extendqisi2
 4748 4670 0020D5E5 		ldrb	r2, [r5, #0]	@ zero_extendqisi2
 4749 4674 033081E0 		add	r3, r1, r3
 4750 4678 FF3003E2 		and	r3, r3, #255
 4751 467c 0030C6E5 		strb	r3, [r6, #0]
 4752 4680 023083E0 		add	r3, r3, r2
 4753 4684 0030C5E5 		strb	r3, [r5, #0]
 4754 4688 D0099FE5 		ldr	r0, .L271+272
 4755 468c FEFFFFEB 		bl	uart_transmit
 4756 4690 6310D4E5 		ldrb	r1, [r4, #99]	@ zero_extendqisi2
 4757 4694 0030D6E5 		ldrb	r3, [r6, #0]	@ zero_extendqisi2
 4758 4698 0020D5E5 		ldrb	r2, [r5, #0]	@ zero_extendqisi2
 4759 469c 033081E0 		add	r3, r1, r3
 4760 46a0 FF3003E2 		and	r3, r3, #255
 4761 46a4 0030C6E5 		strb	r3, [r6, #0]
 4762 46a8 023083E0 		add	r3, r3, r2
 4763 46ac 0030C5E5 		strb	r3, [r5, #0]
 4764 46b0 A8099FE5 		ldr	r0, .L271+272
 4765 46b4 FEFFFFEB 		bl	uart_transmit
 4766 46b8 2410D4E5 		ldrb	r1, [r4, #36]	@ zero_extendqisi2
 4767 46bc 0030D6E5 		ldrb	r3, [r6, #0]	@ zero_extendqisi2
 4768 46c0 0020D5E5 		ldrb	r2, [r5, #0]	@ zero_extendqisi2
 4769 46c4 033081E0 		add	r3, r1, r3
 4770 46c8 FF3003E2 		and	r3, r3, #255
 4771 46cc 0030C6E5 		strb	r3, [r6, #0]
 4772 46d0 023083E0 		add	r3, r3, r2
 4773 46d4 0030C5E5 		strb	r3, [r5, #0]
 4774 46d8 80099FE5 		ldr	r0, .L271+272
 4775 46dc FEFFFFEB 		bl	uart_transmit
 4776 46e0 A0389FE5 		ldr	r3, .L271+56
 4777 46e4 0010D3E5 		ldrb	r1, [r3, #0]	@ zero_extendqisi2
 4778 46e8 0030D6E5 		ldrb	r3, [r6, #0]	@ zero_extendqisi2
 4779 46ec 0020D5E5 		ldrb	r2, [r5, #0]	@ zero_extendqisi2
 4780 46f0 033081E0 		add	r3, r1, r3
 4781 46f4 FF3003E2 		and	r3, r3, #255
 4782 46f8 0030C6E5 		strb	r3, [r6, #0]
 4783 46fc 023083E0 		add	r3, r3, r2
 4784 4700 0030C5E5 		strb	r3, [r5, #0]
 4785 4704 54099FE5 		ldr	r0, .L271+272
 4786 4708 FEFFFFEB 		bl	uart_transmit
 4787 470c 0010D6E5 		ldrb	r1, [r6, #0]	@ zero_extendqisi2
 4788 4710 48099FE5 		ldr	r0, .L271+272
 4789 4714 FEFFFFEB 		bl	uart_transmit
 4790 4718 40099FE5 		ldr	r0, .L271+272
 4791 471c 0010D5E5 		ldrb	r1, [r5, #0]	@ zero_extendqisi2
 4792 4720 FEFFFFEB 		bl	uart_transmit
 4793 4724 030000EA 		b	.L118
 4794              	.L117:
 4795 4728 08399FE5 		ldr	r3, .L271+232
 4796 472c 0020D3E5 		ldrb	r2, [r3, #0]	@ zero_extendqisi2
 4797 4730 012082E2 		add	r2, r2, #1
 4798 4734 0020C3E5 		strb	r2, [r3, #0]
 4799              	.L118:
 4800 4738 B4289FE5 		ldr	r2, .L271+164
 4801 473c 5B30D2E5 		ldrb	r3, [r2, #91]	@ zero_extendqisi2
 4802 4740 030053E3 		cmp	r3, #3
 4803 4744 3C389FE5 		ldr	r3, .L271+56
 4804 4748 0400000A 		beq	.L119
 4805 474c 6410D2E5 		ldrb	r1, [r2, #100]	@ zero_extendqisi2
 4806 4750 0000D3E5 		ldrb	r0, [r3, #0]	@ zero_extendqisi2
 4807 4754 010050E1 		cmp	r0, r1
 4808 4758 0010A023 		movcs	r1, #0
 4809 475c 0010C325 		strcsb	r1, [r3, #0]
 4810              	.L119:
 4811 4760 0030D3E5 		ldrb	r3, [r3, #0]	@ zero_extendqisi2
 4812 4764 6420D2E5 		ldrb	r2, [r2, #100]	@ zero_extendqisi2
 4813 4768 820053E1 		cmp	r3, r2, asl #1
 4814 476c 14389FA5 		ldrge	r3, .L271+56
 4815 4770 0010A0A3 		movge	r1, #0
 4816 4774 0010C3A5 		strgeb	r1, [r3, #0]
 4817 4778 08689FE5 		ldr	r6, .L271+56
 4818 477c 0030D6E5 		ldrb	r3, [r6, #0]	@ zero_extendqisi2
 4819 4780 020053E1 		cmp	r3, r2
 4820 4784 9400002A 		bcs	.L121
 4821 4788 64789FE5 		ldr	r7, .L271+164
 4822 478c 833187E0 		add	r3, r7, r3, asl #3
 4823 4790 6930D3E5 		ldrb	r3, [r3, #105]	@ zero_extendqisi2
 4824 4794 000053E3 		cmp	r3, #0
 4825 4798 8F00000A 		beq	.L121
 4826 479c BC089FE5 		ldr	r0, .L271+272
 4827 47a0 0E10A0E3 		mov	r1, #14
 4828 47a4 FEFFFFEB 		bl	uart_check_free_space
 4829 47a8 000050E3 		cmp	r0, #0
 4830 47ac 8600000A 		beq	.L122
 4831 47b0 8C389FE5 		ldr	r3, .L271+244
 4832 47b4 B020D3E1 		ldrh	r2, [r3, #0]
 4833 47b8 0E2082E2 		add	r2, r2, #14
 4834 47bc B020C3E1 		strh	r2, [r3, #0]	@ movhi
 4835 47c0 80389FE5 		ldr	r3, .L271+248
 4836 47c4 B020D3E1 		ldrh	r2, [r3, #0]
 4837 47c8 012082E2 		add	r2, r2, #1
 4838 47cc B020C3E1 		strh	r2, [r3, #0]	@ movhi
 4839 47d0 88089FE5 		ldr	r0, .L271+272
 4840 47d4 9910A0E3 		mov	r1, #153
 4841 47d8 6C589FE5 		ldr	r5, .L271+252
 4842 47dc FEFFFFEB 		bl	uart_transmit
 4843 47e0 78089FE5 		ldr	r0, .L271+272
 4844 47e4 0E10A0E3 		mov	r1, #14
 4845 47e8 60489FE5 		ldr	r4, .L271+256
 4846 47ec FEFFFFEB 		bl	uart_transmit
 4847 47f0 0F30A0E3 		mov	r3, #15
 4848 47f4 0030C5E5 		strb	r3, [r5, #0]
 4849 47f8 1D30A0E3 		mov	r3, #29
 4850 47fc 0030C4E5 		strb	r3, [r4, #0]
 4851 4800 58089FE5 		ldr	r0, .L271+272
 4852 4804 0110A0E3 		mov	r1, #1
 4853 4808 FEFFFFEB 		bl	uart_transmit
 4854 480c 0030D5E5 		ldrb	r3, [r5, #0]	@ zero_extendqisi2
 4855 4810 0020D4E5 		ldrb	r2, [r4, #0]	@ zero_extendqisi2
 4856 4814 193083E2 		add	r3, r3, #25
 4857 4818 FF3003E2 		and	r3, r3, #255
 4858 481c 0030C5E5 		strb	r3, [r5, #0]
 4859 4820 023083E0 		add	r3, r3, r2
 4860 4824 0030C4E5 		strb	r3, [r4, #0]
 4861 4828 30089FE5 		ldr	r0, .L271+272
 4862 482c 1910A0E3 		mov	r1, #25
 4863 4830 FEFFFFEB 		bl	uart_transmit
 4864 4834 0010D6E5 		ldrb	r1, [r6, #0]	@ zero_extendqisi2
 4865 4838 0030D5E5 		ldrb	r3, [r5, #0]	@ zero_extendqisi2
 4866 483c 0020D4E5 		ldrb	r2, [r4, #0]	@ zero_extendqisi2
 4867 4840 033081E0 		add	r3, r1, r3
 4868 4844 FF3003E2 		and	r3, r3, #255
 4869 4848 0030C5E5 		strb	r3, [r5, #0]
 4870 484c 023083E0 		add	r3, r3, r2
 4871 4850 0030C4E5 		strb	r3, [r4, #0]
 4872 4854 04089FE5 		ldr	r0, .L271+272
 4873 4858 FEFFFFEB 		bl	uart_transmit
 4874 485c 0030D6E5 		ldrb	r3, [r6, #0]	@ zero_extendqisi2
 4875 4860 833187E0 		add	r3, r7, r3, asl #3
 4876 4864 6610D3E5 		ldrb	r1, [r3, #102]	@ zero_extendqisi2
 4877 4868 0030D5E5 		ldrb	r3, [r5, #0]	@ zero_extendqisi2
 4878 486c 0020D4E5 		ldrb	r2, [r4, #0]	@ zero_extendqisi2
 4879 4870 033081E0 		add	r3, r1, r3
 4880 4874 FF3003E2 		and	r3, r3, #255
 4881 4878 0030C5E5 		strb	r3, [r5, #0]
 4882 487c 023083E0 		add	r3, r3, r2
 4883 4880 0030C4E5 		strb	r3, [r4, #0]
 4884 4884 D4079FE5 		ldr	r0, .L271+272
 4885 4888 FEFFFFEB 		bl	uart_transmit
 4886 488c 0030D6E5 		ldrb	r3, [r6, #0]	@ zero_extendqisi2
 4887 4890 833187E0 		add	r3, r7, r3, asl #3
 4888 4894 6710D3E5 		ldrb	r1, [r3, #103]	@ zero_extendqisi2
 4889 4898 0030D5E5 		ldrb	r3, [r5, #0]	@ zero_extendqisi2
 4890 489c 0020D4E5 		ldrb	r2, [r4, #0]	@ zero_extendqisi2
 4891 48a0 033081E0 		add	r3, r1, r3
 4892 48a4 FF3003E2 		and	r3, r3, #255
 4893 48a8 0030C5E5 		strb	r3, [r5, #0]
 4894 48ac 023083E0 		add	r3, r3, r2
 4895 48b0 0030C4E5 		strb	r3, [r4, #0]
 4896 48b4 A4079FE5 		ldr	r0, .L271+272
 4897 48b8 FEFFFFEB 		bl	uart_transmit
 4898 48bc 0030D6E5 		ldrb	r3, [r6, #0]	@ zero_extendqisi2
 4899 48c0 833187E0 		add	r3, r7, r3, asl #3
 4900 48c4 6810D3E5 		ldrb	r1, [r3, #104]	@ zero_extendqisi2
 4901 48c8 0030D5E5 		ldrb	r3, [r5, #0]	@ zero_extendqisi2
 4902 48cc 0020D4E5 		ldrb	r2, [r4, #0]	@ zero_extendqisi2
 4903 48d0 033081E0 		add	r3, r1, r3
 4904 48d4 FF3003E2 		and	r3, r3, #255
 4905 48d8 0030C5E5 		strb	r3, [r5, #0]
 4906 48dc 023083E0 		add	r3, r3, r2
 4907 48e0 0030C4E5 		strb	r3, [r4, #0]
 4908 48e4 74079FE5 		ldr	r0, .L271+272
 4909 48e8 FEFFFFEB 		bl	uart_transmit
 4910 48ec 0030D6E5 		ldrb	r3, [r6, #0]	@ zero_extendqisi2
 4911 48f0 833187E0 		add	r3, r7, r3, asl #3
 4912 48f4 6910D3E5 		ldrb	r1, [r3, #105]	@ zero_extendqisi2
 4913 48f8 0030D5E5 		ldrb	r3, [r5, #0]	@ zero_extendqisi2
 4914 48fc 0020D4E5 		ldrb	r2, [r4, #0]	@ zero_extendqisi2
 4915 4900 033081E0 		add	r3, r1, r3
 4916 4904 FF3003E2 		and	r3, r3, #255
 4917 4908 0030C5E5 		strb	r3, [r5, #0]
 4918 490c 023083E0 		add	r3, r3, r2
 4919 4910 0030C4E5 		strb	r3, [r4, #0]
 4920 4914 44079FE5 		ldr	r0, .L271+272
 4921 4918 FEFFFFEB 		bl	uart_transmit
 4922 491c 0030D6E5 		ldrb	r3, [r6, #0]	@ zero_extendqisi2
 4923 4920 833187E0 		add	r3, r7, r3, asl #3
 4924 4924 6A10D3E5 		ldrb	r1, [r3, #106]	@ zero_extendqisi2
 4925 4928 0030D5E5 		ldrb	r3, [r5, #0]	@ zero_extendqisi2
 4926 492c 0020D4E5 		ldrb	r2, [r4, #0]	@ zero_extendqisi2
 4927 4930 033081E0 		add	r3, r1, r3
 4928 4934 FF3003E2 		and	r3, r3, #255
 4929 4938 0030C5E5 		strb	r3, [r5, #0]
 4930 493c 023083E0 		add	r3, r3, r2
 4931 4940 0030C4E5 		strb	r3, [r4, #0]
 4932 4944 14079FE5 		ldr	r0, .L271+272
 4933 4948 FEFFFFEB 		bl	uart_transmit
 4934 494c 0030D6E5 		ldrb	r3, [r6, #0]	@ zero_extendqisi2
 4935 4950 0C7087E2 		add	r7, r7, #12
 4936 4954 0C3083E2 		add	r3, r3, #12
 4937 4958 8311D7E7 		ldrb	r1, [r7, r3, asl #3]	@ zero_extendqisi2
 4938 495c 0030D5E5 		ldrb	r3, [r5, #0]	@ zero_extendqisi2
 4939 4960 0020D4E5 		ldrb	r2, [r4, #0]	@ zero_extendqisi2
 4940 4964 033081E0 		add	r3, r1, r3
 4941 4968 FF3003E2 		and	r3, r3, #255
 4942 496c 0030C5E5 		strb	r3, [r5, #0]
 4943 4970 023083E0 		add	r3, r3, r2
 4944 4974 0030C4E5 		strb	r3, [r4, #0]
 4945 4978 E0069FE5 		ldr	r0, .L271+272
 4946 497c FEFFFFEB 		bl	uart_transmit
 4947 4980 0030D6E5 		ldrb	r3, [r6, #0]	@ zero_extendqisi2
 4948 4984 837187E0 		add	r7, r7, r3, asl #3
 4949 4988 6110D7E5 		ldrb	r1, [r7, #97]	@ zero_extendqisi2
 4950 498c 0030D5E5 		ldrb	r3, [r5, #0]	@ zero_extendqisi2
 4951 4990 0020D4E5 		ldrb	r2, [r4, #0]	@ zero_extendqisi2
 4952 4994 033081E0 		add	r3, r1, r3
 4953 4998 FF3003E2 		and	r3, r3, #255
 4954 499c 0030C5E5 		strb	r3, [r5, #0]
 4955 49a0 023083E0 		add	r3, r3, r2
 4956 49a4 0030C4E5 		strb	r3, [r4, #0]
 4957 49a8 B0069FE5 		ldr	r0, .L271+272
 4958 49ac FEFFFFEB 		bl	uart_transmit
 4959 49b0 0010D5E5 		ldrb	r1, [r5, #0]	@ zero_extendqisi2
 4960 49b4 A4069FE5 		ldr	r0, .L271+272
 4961 49b8 FEFFFFEB 		bl	uart_transmit
 4962 49bc 9C069FE5 		ldr	r0, .L271+272
 4963 49c0 0010D4E5 		ldrb	r1, [r4, #0]	@ zero_extendqisi2
 4964 49c4 FEFFFFEB 		bl	uart_transmit
 4965 49c8 030000EA 		b	.L121
 4966              	.L122:
 4967 49cc 64369FE5 		ldr	r3, .L271+232
 4968 49d0 0020D3E5 		ldrb	r2, [r3, #0]	@ zero_extendqisi2
 4969 49d4 012082E2 		add	r2, r2, #1
 4970 49d8 0020C3E5 		strb	r2, [r3, #0]
 4971              	.L121:
 4972 49dc A4359FE5 		ldr	r3, .L271+56
 4973 49e0 0020D3E5 		ldrb	r2, [r3, #0]	@ zero_extendqisi2
 4974 49e4 012082E2 		add	r2, r2, #1
 4975 49e8 0020C3E5 		strb	r2, [r3, #0]
 4976              	.L116:
 4977 49ec 98359FE5 		ldr	r3, .L271+60
 4978 49f0 0030D3E5 		ldrb	r3, [r3, #0]	@ zero_extendqisi2
 4979 49f4 060053E3 		cmp	r3, #6
 4980 49f8 CB00001A 		bne	.L123
 4981 49fc 8C359FE5 		ldr	r3, .L271+64
 4982 4a00 0A10A0E3 		mov	r1, #10
 4983 4a04 000093E5 		ldr	r0, [r3, #0]
 4984 4a08 FEFFFFEB 		bl	__aeabi_idiv
 4985 4a0c 80359FE5 		ldr	r3, .L271+68
 4986 4a10 BE00CDE1 		strh	r0, [sp, #14]	@ movhi
 4987 4a14 000093E5 		ldr	r0, [r3, #0]	@ float
 4988 4a18 FEFFFFEB 		bl	__aeabi_f2iz
 4989 4a1c 1410A0E3 		mov	r1, #20
 4990 4a20 BC00CDE1 		strh	r0, [sp, #12]	@ movhi
 4991 4a24 34069FE5 		ldr	r0, .L271+272
 4992 4a28 FEFFFFEB 		bl	uart_check_free_space
 4993 4a2c 000050E3 		cmp	r0, #0
 4994 4a30 B900000A 		beq	.L124
 4995 4a34 08369FE5 		ldr	r3, .L271+244
 4996 4a38 B020D3E1 		ldrh	r2, [r3, #0]
 4997 4a3c 142082E2 		add	r2, r2, #20
 4998 4a40 B020C3E1 		strh	r2, [r3, #0]	@ movhi
 4999 4a44 FC359FE5 		ldr	r3, .L271+248
 5000 4a48 B020D3E1 		ldrh	r2, [r3, #0]
 5001 4a4c 012082E2 		add	r2, r2, #1
 5002 4a50 B020C3E1 		strh	r2, [r3, #0]	@ movhi
 5003 4a54 04069FE5 		ldr	r0, .L271+272
 5004 4a58 9910A0E3 		mov	r1, #153
 5005 4a5c E8559FE5 		ldr	r5, .L271+252
 5006 4a60 FEFFFFEB 		bl	uart_transmit
 5007 4a64 F4059FE5 		ldr	r0, .L271+272
 5008 4a68 1410A0E3 		mov	r1, #20
 5009 4a6c DC459FE5 		ldr	r4, .L271+256
 5010 4a70 FEFFFFEB 		bl	uart_transmit
 5011 4a74 1530A0E3 		mov	r3, #21
 5012 4a78 0030C5E5 		strb	r3, [r5, #0]
 5013 4a7c 2930A0E3 		mov	r3, #41
 5014 4a80 0030C4E5 		strb	r3, [r4, #0]
 5015 4a84 D4059FE5 		ldr	r0, .L271+272
 5016 4a88 0110A0E3 		mov	r1, #1
 5017 4a8c FEFFFFEB 		bl	uart_transmit
 5018 4a90 0030D5E5 		ldrb	r3, [r5, #0]	@ zero_extendqisi2
 5019 4a94 0020D4E5 		ldrb	r2, [r4, #0]	@ zero_extendqisi2
 5020 4a98 0C3083E2 		add	r3, r3, #12
 5021 4a9c FF3003E2 		and	r3, r3, #255
 5022 4aa0 0030C5E5 		strb	r3, [r5, #0]
 5023 4aa4 EC649FE5 		ldr	r6, .L271+72
 5024 4aa8 023083E0 		add	r3, r3, r2
 5025 4aac 0030C4E5 		strb	r3, [r4, #0]
 5026 4ab0 A8059FE5 		ldr	r0, .L271+272
 5027 4ab4 0C10A0E3 		mov	r1, #12
 5028 4ab8 FEFFFFEB 		bl	uart_transmit
 5029 4abc 0010D6E5 		ldrb	r1, [r6, #0]	@ zero_extendqisi2
 5030 4ac0 0030D5E5 		ldrb	r3, [r5, #0]	@ zero_extendqisi2
 5031 4ac4 0020D4E5 		ldrb	r2, [r4, #0]	@ zero_extendqisi2
 5032 4ac8 033081E0 		add	r3, r1, r3
 5033 4acc FF3003E2 		and	r3, r3, #255
 5034 4ad0 0030C5E5 		strb	r3, [r5, #0]
 5035 4ad4 023083E0 		add	r3, r3, r2
 5036 4ad8 0030C4E5 		strb	r3, [r4, #0]
 5037 4adc 7C059FE5 		ldr	r0, .L271+272
 5038 4ae0 FEFFFFEB 		bl	uart_transmit
 5039 4ae4 0110D6E5 		ldrb	r1, [r6, #1]	@ zero_extendqisi2
 5040 4ae8 0030D5E5 		ldrb	r3, [r5, #0]	@ zero_extendqisi2
 5041 4aec 0020D4E5 		ldrb	r2, [r4, #0]	@ zero_extendqisi2
 5042 4af0 033081E0 		add	r3, r1, r3
 5043 4af4 FF3003E2 		and	r3, r3, #255
 5044 4af8 0030C5E5 		strb	r3, [r5, #0]
 5045 4afc 023083E0 		add	r3, r3, r2
 5046 4b00 0030C4E5 		strb	r3, [r4, #0]
 5047 4b04 54059FE5 		ldr	r0, .L271+272
 5048 4b08 FEFFFFEB 		bl	uart_transmit
 5049 4b0c 88349FE5 		ldr	r3, .L271+76
 5050 4b10 0010D3E5 		ldrb	r1, [r3, #0]	@ zero_extendqisi2
 5051 4b14 0030D5E5 		ldrb	r3, [r5, #0]	@ zero_extendqisi2
 5052 4b18 0020D4E5 		ldrb	r2, [r4, #0]	@ zero_extendqisi2
 5053 4b1c 033081E0 		add	r3, r1, r3
 5054 4b20 FF3003E2 		and	r3, r3, #255
 5055 4b24 0030C5E5 		strb	r3, [r5, #0]
 5056 4b28 023083E0 		add	r3, r3, r2
 5057 4b2c 0030C4E5 		strb	r3, [r4, #0]
 5058 4b30 28059FE5 		ldr	r0, .L271+272
 5059 4b34 FEFFFFEB 		bl	uart_transmit
 5060 4b38 0E10DDE5 		ldrb	r1, [sp, #14]	@ zero_extendqisi2
 5061 4b3c 0030D5E5 		ldrb	r3, [r5, #0]	@ zero_extendqisi2
 5062 4b40 0020D4E5 		ldrb	r2, [r4, #0]	@ zero_extendqisi2
 5063 4b44 033081E0 		add	r3, r1, r3
 5064 4b48 FF3003E2 		and	r3, r3, #255
 5065 4b4c 0030C5E5 		strb	r3, [r5, #0]
 5066 4b50 023083E0 		add	r3, r3, r2
 5067 4b54 0030C4E5 		strb	r3, [r4, #0]
 5068 4b58 00059FE5 		ldr	r0, .L271+272
 5069 4b5c FEFFFFEB 		bl	uart_transmit
 5070 4b60 0F10DDE5 		ldrb	r1, [sp, #15]	@ zero_extendqisi2
 5071 4b64 0030D5E5 		ldrb	r3, [r5, #0]	@ zero_extendqisi2
 5072 4b68 0020D4E5 		ldrb	r2, [r4, #0]	@ zero_extendqisi2
 5073 4b6c 033081E0 		add	r3, r1, r3
 5074 4b70 FF3003E2 		and	r3, r3, #255
 5075 4b74 0030C5E5 		strb	r3, [r5, #0]
 5076 4b78 60649FE5 		ldr	r6, .L271+144
 5077 4b7c 023083E0 		add	r3, r3, r2
 5078 4b80 0030C4E5 		strb	r3, [r4, #0]
 5079 4b84 D4049FE5 		ldr	r0, .L271+272
 5080 4b88 FEFFFFEB 		bl	uart_transmit
 5081 4b8c 0010D6E5 		ldrb	r1, [r6, #0]	@ zero_extendqisi2
 5082 4b90 0030D5E5 		ldrb	r3, [r5, #0]	@ zero_extendqisi2
 5083 4b94 0020D4E5 		ldrb	r2, [r4, #0]	@ zero_extendqisi2
 5084 4b98 033081E0 		add	r3, r1, r3
 5085 4b9c FF3003E2 		and	r3, r3, #255
 5086 4ba0 0030C5E5 		strb	r3, [r5, #0]
 5087 4ba4 023083E0 		add	r3, r3, r2
 5088 4ba8 0030C4E5 		strb	r3, [r4, #0]
 5089 4bac AC049FE5 		ldr	r0, .L271+272
 5090 4bb0 FEFFFFEB 		bl	uart_transmit
 5091 4bb4 0110D6E5 		ldrb	r1, [r6, #1]	@ zero_extendqisi2
 5092 4bb8 0030D5E5 		ldrb	r3, [r5, #0]	@ zero_extendqisi2
 5093 4bbc 0020D4E5 		ldrb	r2, [r4, #0]	@ zero_extendqisi2
 5094 4bc0 033081E0 		add	r3, r1, r3
 5095 4bc4 FF3003E2 		and	r3, r3, #255
 5096 4bc8 0030C5E5 		strb	r3, [r5, #0]
 5097 4bcc 023083E0 		add	r3, r3, r2
 5098 4bd0 0030C4E5 		strb	r3, [r4, #0]
 5099 4bd4 84049FE5 		ldr	r0, .L271+272
 5100 4bd8 FEFFFFEB 		bl	uart_transmit
 5101 4bdc 0C349FE5 		ldr	r3, .L271+160
 5102 4be0 0010D3E5 		ldrb	r1, [r3, #0]	@ zero_extendqisi2
 5103 4be4 0030D5E5 		ldrb	r3, [r5, #0]	@ zero_extendqisi2
 5104 4be8 0020D4E5 		ldrb	r2, [r4, #0]	@ zero_extendqisi2
 5105 4bec 033081E0 		add	r3, r1, r3
 5106 4bf0 FF3003E2 		and	r3, r3, #255
 5107 4bf4 0030C5E5 		strb	r3, [r5, #0]
 5108 4bf8 A0639FE5 		ldr	r6, .L271+80
 5109 4bfc 023083E0 		add	r3, r3, r2
 5110 4c00 0030C4E5 		strb	r3, [r4, #0]
 5111 4c04 54049FE5 		ldr	r0, .L271+272
 5112 4c08 FEFFFFEB 		bl	uart_transmit
 5113 4c0c 0010D6E5 		ldrb	r1, [r6, #0]	@ zero_extendqisi2
 5114 4c10 0030D5E5 		ldrb	r3, [r5, #0]	@ zero_extendqisi2
 5115 4c14 0020D4E5 		ldrb	r2, [r4, #0]	@ zero_extendqisi2
 5116 4c18 033081E0 		add	r3, r1, r3
 5117 4c1c FF3003E2 		and	r3, r3, #255
 5118 4c20 0030C5E5 		strb	r3, [r5, #0]
 5119 4c24 023083E0 		add	r3, r3, r2
 5120 4c28 0030C4E5 		strb	r3, [r4, #0]
 5121 4c2c 2C049FE5 		ldr	r0, .L271+272
 5122 4c30 FEFFFFEB 		bl	uart_transmit
 5123 4c34 0110D6E5 		ldrb	r1, [r6, #1]	@ zero_extendqisi2
 5124 4c38 0030D5E5 		ldrb	r3, [r5, #0]	@ zero_extendqisi2
 5125 4c3c 0020D4E5 		ldrb	r2, [r4, #0]	@ zero_extendqisi2
 5126 4c40 033081E0 		add	r3, r1, r3
 5127 4c44 FF3003E2 		and	r3, r3, #255
 5128 4c48 0030C5E5 		strb	r3, [r5, #0]
 5129 4c4c 50639FE5 		ldr	r6, .L271+84
 5130 4c50 023083E0 		add	r3, r3, r2
 5131 4c54 0030C4E5 		strb	r3, [r4, #0]
 5132 4c58 00049FE5 		ldr	r0, .L271+272
 5133 4c5c FEFFFFEB 		bl	uart_transmit
 5134 4c60 0010D6E5 		ldrb	r1, [r6, #0]	@ zero_extendqisi2
 5135 4c64 0030D5E5 		ldrb	r3, [r5, #0]	@ zero_extendqisi2
 5136 4c68 0020D4E5 		ldrb	r2, [r4, #0]	@ zero_extendqisi2
 5137 4c6c 033081E0 		add	r3, r1, r3
 5138 4c70 FF3003E2 		and	r3, r3, #255
 5139 4c74 0030C5E5 		strb	r3, [r5, #0]
 5140 4c78 023083E0 		add	r3, r3, r2
 5141 4c7c 0030C4E5 		strb	r3, [r4, #0]
 5142 4c80 D8039FE5 		ldr	r0, .L271+272
 5143 4c84 FEFFFFEB 		bl	uart_transmit
 5144 4c88 0110D6E5 		ldrb	r1, [r6, #1]	@ zero_extendqisi2
 5145 4c8c 0030D5E5 		ldrb	r3, [r5, #0]	@ zero_extendqisi2
 5146 4c90 0020D4E5 		ldrb	r2, [r4, #0]	@ zero_extendqisi2
 5147 4c94 033081E0 		add	r3, r1, r3
 5148 4c98 FF3003E2 		and	r3, r3, #255
 5149 4c9c 0030C5E5 		strb	r3, [r5, #0]
 5150 4ca0 023083E0 		add	r3, r3, r2
 5151 4ca4 0030C4E5 		strb	r3, [r4, #0]
 5152 4ca8 B0039FE5 		ldr	r0, .L271+272
 5153 4cac FEFFFFEB 		bl	uart_transmit
 5154 4cb0 0C10DDE5 		ldrb	r1, [sp, #12]	@ zero_extendqisi2
 5155 4cb4 0030D5E5 		ldrb	r3, [r5, #0]	@ zero_extendqisi2
 5156 4cb8 0020D4E5 		ldrb	r2, [r4, #0]	@ zero_extendqisi2
 5157 4cbc 033081E0 		add	r3, r1, r3
 5158 4cc0 FF3003E2 		and	r3, r3, #255
 5159 4cc4 0030C5E5 		strb	r3, [r5, #0]
 5160 4cc8 023083E0 		add	r3, r3, r2
 5161 4ccc 0030C4E5 		strb	r3, [r4, #0]
 5162 4cd0 88039FE5 		ldr	r0, .L271+272
 5163 4cd4 FEFFFFEB 		bl	uart_transmit
 5164 4cd8 0D10DDE5 		ldrb	r1, [sp, #13]	@ zero_extendqisi2
 5165 4cdc 0030D5E5 		ldrb	r3, [r5, #0]	@ zero_extendqisi2
 5166 4ce0 0020D4E5 		ldrb	r2, [r4, #0]	@ zero_extendqisi2
 5167 4ce4 033081E0 		add	r3, r1, r3
 5168 4ce8 FF3003E2 		and	r3, r3, #255
 5169 4cec 0030C5E5 		strb	r3, [r5, #0]
 5170 4cf0 023083E0 		add	r3, r3, r2
 5171 4cf4 0030C4E5 		strb	r3, [r4, #0]
 5172 4cf8 60039FE5 		ldr	r0, .L271+272
 5173 4cfc FEFFFFEB 		bl	uart_transmit
 5174 4d00 0010D5E5 		ldrb	r1, [r5, #0]	@ zero_extendqisi2
 5175 4d04 54039FE5 		ldr	r0, .L271+272
 5176 4d08 FEFFFFEB 		bl	uart_transmit
 5177 4d0c 4C039FE5 		ldr	r0, .L271+272
 5178 4d10 0010D4E5 		ldrb	r1, [r4, #0]	@ zero_extendqisi2
 5179 4d14 FEFFFFEB 		bl	uart_transmit
 5180 4d18 030000EA 		b	.L123
 5181              	.L124:
 5182 4d1c 14339FE5 		ldr	r3, .L271+232
 5183 4d20 0020D3E5 		ldrb	r2, [r3, #0]	@ zero_extendqisi2
 5184 4d24 012082E2 		add	r2, r2, #1
 5185 4d28 0020C3E5 		strb	r2, [r3, #0]
 5186              	.L123:
 5187 4d2c 74329FE5 		ldr	r3, .L271+88
 5188 4d30 0030D3E5 		ldrb	r3, [r3, #0]	@ zero_extendqisi2
 5189 4d34 0C0053E3 		cmp	r3, #12
 5190 4d38 CD00001A 		bne	.L125
 5191 4d3c 1C039FE5 		ldr	r0, .L271+272
 5192 4d40 0E10A0E3 		mov	r1, #14
 5193 4d44 FEFFFFEB 		bl	uart_check_free_space
 5194 4d48 000050E3 		cmp	r0, #0
 5195 4d4c C400000A 		beq	.L126
 5196 4d50 EC329FE5 		ldr	r3, .L271+244
 5197 4d54 B020D3E1 		ldrh	r2, [r3, #0]
 5198 4d58 0E2082E2 		add	r2, r2, #14
 5199 4d5c B020C3E1 		strh	r2, [r3, #0]	@ movhi
 5200 4d60 E0329FE5 		ldr	r3, .L271+248
 5201 4d64 B020D3E1 		ldrh	r2, [r3, #0]
 5202 4d68 012082E2 		add	r2, r2, #1
 5203 4d6c B020C3E1 		strh	r2, [r3, #0]	@ movhi
 5204 4d70 E8029FE5 		ldr	r0, .L271+272
 5205 4d74 9910A0E3 		mov	r1, #153
 5206 4d78 CC529FE5 		ldr	r5, .L271+252
 5207 4d7c FEFFFFEB 		bl	uart_transmit
 5208 4d80 D8029FE5 		ldr	r0, .L271+272
 5209 4d84 0E10A0E3 		mov	r1, #14
 5210 4d88 C0429FE5 		ldr	r4, .L271+256
 5211 4d8c FEFFFFEB 		bl	uart_transmit
 5212 4d90 0F30A0E3 		mov	r3, #15
 5213 4d94 0030C5E5 		strb	r3, [r5, #0]
 5214 4d98 1D30A0E3 		mov	r3, #29
 5215 4d9c 0030C4E5 		strb	r3, [r4, #0]
 5216 4da0 B8029FE5 		ldr	r0, .L271+272
 5217 4da4 0110A0E3 		mov	r1, #1
 5218 4da8 FEFFFFEB 		bl	uart_transmit
 5219 4dac 0030D5E5 		ldrb	r3, [r5, #0]	@ zero_extendqisi2
 5220 4db0 0020D4E5 		ldrb	r2, [r4, #0]	@ zero_extendqisi2
 5221 4db4 2A3083E2 		add	r3, r3, #42
 5222 4db8 FF3003E2 		and	r3, r3, #255
 5223 4dbc 0030C5E5 		strb	r3, [r5, #0]
 5224 4dc0 023083E0 		add	r3, r3, r2
 5225 4dc4 0030C4E5 		strb	r3, [r4, #0]
 5226 4dc8 2A10A0E3 		mov	r1, #42
 5227 4dcc 8C029FE5 		ldr	r0, .L271+272
 5228 4dd0 FEFFFFEB 		bl	uart_transmit
 5229 4dd4 FEFFFFEB 		bl	stateGetPositionUtm_f
 5230 4dd8 0030D5E5 		ldrb	r3, [r5, #0]	@ zero_extendqisi2
 5231 4ddc 0810D0E5 		ldrb	r1, [r0, #8]	@ zero_extendqisi2
 5232 4de0 0020D4E5 		ldrb	r2, [r4, #0]	@ zero_extendqisi2
 5233 4de4 033081E0 		add	r3, r1, r3
 5234 4de8 FF3003E2 		and	r3, r3, #255
 5235 4dec 0030C5E5 		strb	r3, [r5, #0]
 5236 4df0 023083E0 		add	r3, r3, r2
 5237 4df4 0030C4E5 		strb	r3, [r4, #0]
 5238 4df8 60029FE5 		ldr	r0, .L271+272
 5239 4dfc FEFFFFEB 		bl	uart_transmit
 5240 4e00 FEFFFFEB 		bl	stateGetPositionUtm_f
 5241 4e04 0030D5E5 		ldrb	r3, [r5, #0]	@ zero_extendqisi2
 5242 4e08 0910D0E5 		ldrb	r1, [r0, #9]	@ zero_extendqisi2
 5243 4e0c 0020D4E5 		ldrb	r2, [r4, #0]	@ zero_extendqisi2
 5244 4e10 033081E0 		add	r3, r1, r3
 5245 4e14 FF3003E2 		and	r3, r3, #255
 5246 4e18 0030C5E5 		strb	r3, [r5, #0]
 5247 4e1c 023083E0 		add	r3, r3, r2
 5248 4e20 0030C4E5 		strb	r3, [r4, #0]
 5249 4e24 34029FE5 		ldr	r0, .L271+272
 5250 4e28 FEFFFFEB 		bl	uart_transmit
 5251 4e2c FEFFFFEB 		bl	stateGetPositionUtm_f
 5252 4e30 0030D5E5 		ldrb	r3, [r5, #0]	@ zero_extendqisi2
 5253 4e34 0A10D0E5 		ldrb	r1, [r0, #10]	@ zero_extendqisi2
 5254 4e38 0020D4E5 		ldrb	r2, [r4, #0]	@ zero_extendqisi2
 5255 4e3c 033081E0 		add	r3, r1, r3
 5256 4e40 FF3003E2 		and	r3, r3, #255
 5257 4e44 0030C5E5 		strb	r3, [r5, #0]
 5258 4e48 023083E0 		add	r3, r3, r2
 5259 4e4c 0030C4E5 		strb	r3, [r4, #0]
 5260 4e50 08029FE5 		ldr	r0, .L271+272
 5261 4e54 FEFFFFEB 		bl	uart_transmit
 5262 4e58 FEFFFFEB 		bl	stateGetPositionUtm_f
 5263 4e5c 0030D5E5 		ldrb	r3, [r5, #0]	@ zero_extendqisi2
 5264 4e60 0B10D0E5 		ldrb	r1, [r0, #11]	@ zero_extendqisi2
 5265 4e64 0020D4E5 		ldrb	r2, [r4, #0]	@ zero_extendqisi2
 5266 4e68 033081E0 		add	r3, r1, r3
 5267 4e6c FF3003E2 		and	r3, r3, #255
 5268 4e70 0030C5E5 		strb	r3, [r5, #0]
 5269 4e74 023083E0 		add	r3, r3, r2
 5270 4e78 0030C4E5 		strb	r3, [r4, #0]
 5271 4e7c DC019FE5 		ldr	r0, .L271+272
 5272 4e80 FEFFFFEB 		bl	uart_transmit
 5273 4e84 FEFFFFEB 		bl	stateGetSpeedEnu_f
 5274 4e88 0030D5E5 		ldrb	r3, [r5, #0]	@ zero_extendqisi2
 5275 4e8c 0810D0E5 		ldrb	r1, [r0, #8]	@ zero_extendqisi2
 5276 4e90 0020D4E5 		ldrb	r2, [r4, #0]	@ zero_extendqisi2
 5277 4e94 033081E0 		add	r3, r1, r3
 5278 4e98 FF3003E2 		and	r3, r3, #255
 5279 4e9c 0030C5E5 		strb	r3, [r5, #0]
 5280 4ea0 023083E0 		add	r3, r3, r2
 5281 4ea4 0030C4E5 		strb	r3, [r4, #0]
 5282 4ea8 B0019FE5 		ldr	r0, .L271+272
 5283 4eac FEFFFFEB 		bl	uart_transmit
 5284 4eb0 FEFFFFEB 		bl	stateGetSpeedEnu_f
 5285 4eb4 0030D5E5 		ldrb	r3, [r5, #0]	@ zero_extendqisi2
 5286 4eb8 0910D0E5 		ldrb	r1, [r0, #9]	@ zero_extendqisi2
 5287 4ebc 0020D4E5 		ldrb	r2, [r4, #0]	@ zero_extendqisi2
 5288 4ec0 033081E0 		add	r3, r1, r3
 5289 4ec4 FF3003E2 		and	r3, r3, #255
 5290 4ec8 0030C5E5 		strb	r3, [r5, #0]
 5291 4ecc 023083E0 		add	r3, r3, r2
 5292 4ed0 0030C4E5 		strb	r3, [r4, #0]
 5293 4ed4 84019FE5 		ldr	r0, .L271+272
 5294 4ed8 FEFFFFEB 		bl	uart_transmit
 5295 4edc FEFFFFEB 		bl	stateGetSpeedEnu_f
 5296 4ee0 0030D5E5 		ldrb	r3, [r5, #0]	@ zero_extendqisi2
 5297 4ee4 0A10D0E5 		ldrb	r1, [r0, #10]	@ zero_extendqisi2
 5298 4ee8 0020D4E5 		ldrb	r2, [r4, #0]	@ zero_extendqisi2
 5299 4eec 033081E0 		add	r3, r1, r3
 5300 4ef0 FF3003E2 		and	r3, r3, #255
 5301 4ef4 0030C5E5 		strb	r3, [r5, #0]
 5302 4ef8 023083E0 		add	r3, r3, r2
 5303 4efc 0030C4E5 		strb	r3, [r4, #0]
 5304 4f00 58019FE5 		ldr	r0, .L271+272
 5305 4f04 FEFFFFEB 		bl	uart_transmit
 5306 4f08 FEFFFFEB 		bl	stateGetSpeedEnu_f
 5307 4f0c 0030D5E5 		ldrb	r3, [r5, #0]	@ zero_extendqisi2
 5308 4f10 0B10D0E5 		ldrb	r1, [r0, #11]	@ zero_extendqisi2
 5309 4f14 0020D4E5 		ldrb	r2, [r4, #0]	@ zero_extendqisi2
 5310 4f18 033081E0 		add	r3, r1, r3
 5311 4f1c FF3003E2 		and	r3, r3, #255
 5312 4f20 0030C5E5 		strb	r3, [r5, #0]
 5313 4f24 023083E0 		add	r3, r3, r2
 5314 4f28 0030C4E5 		strb	r3, [r4, #0]
 5315 4f2c 2C019FE5 		ldr	r0, .L271+272
 5316 4f30 FEFFFFEB 		bl	uart_transmit
 5317 4f34 0010D5E5 		ldrb	r1, [r5, #0]	@ zero_extendqisi2
 5318 4f38 20019FE5 		ldr	r0, .L271+272
 5319 4f3c FEFFFFEB 		bl	uart_transmit
 5320 4f40 18019FE5 		ldr	r0, .L271+272
 5321 4f44 0010D4E5 		ldrb	r1, [r4, #0]	@ zero_extendqisi2
 5322 4f48 FEFFFFEB 		bl	uart_transmit
 5323 4f4c 480000EA 		b	.L125
 5324              	.L272:
 5325              		.align	2
 5326              	.L271:
 5327 4f50 00000000 		.word	.LANCHOR34
 5328 4f54 00000000 		.word	.LANCHOR35
 5329 4f58 00000000 		.word	.LANCHOR36
 5330 4f5c 00000000 		.word	.LANCHOR37
 5331 4f60 00000000 		.word	.LANCHOR38
 5332 4f64 31010000 		.word	305
 5333 4f68 00000000 		.word	.LANCHOR39
 5334 4f6c 00000000 		.word	.LANCHOR40
 5335 4f70 00000000 		.word	.LANCHOR41
 5336 4f74 5D020000 		.word	605
 5337 4f78 00000000 		.word	.LANCHOR26
 5338 4f7c F8C1631A 		.word	442745336
 5339 4f80 DCA54C40 		.word	1078765020
 5340 4f84 80842E41 		.word	1093567616
 5341 4f88 00000000 		.word	.LANCHOR42
 5342 4f8c 00000000 		.word	.LANCHOR27
 5343 4f90 00000000 		.word	.LANCHOR17
 5344 4f94 00000000 		.word	energy
 5345 4f98 00000000 		.word	v_ctl_throttle_slewed
 5346 4f9c 00000000 		.word	vsupply
 5347 4fa0 00000000 		.word	block_time
 5348 4fa4 00000000 		.word	stage_time
 5349 4fa8 00000000 		.word	.LANCHOR28
 5350 4fac 00000000 		.word	.LANCHOR29
 5351 4fb0 00000000 		.word	nb_waypoint
 5352 4fb4 00000000 		.word	nav_utm_east0
 5353 4fb8 00000000 		.word	waypoints
 5354 4fbc 00000000 		.word	nav_utm_north0
 5355 4fc0 00000000 		.word	.LANCHOR43
 5356 4fc4 00000000 		.word	nav_utm_zone0
 5357 4fc8 00000000 		.word	.LANCHOR30
 5358 4fcc 00000000 		.word	telemetry_mode_Ap
 5359 4fd0 00000000 		.word	telemetry_mode_Fbw
 5360 4fd4 00000000 		.word	flight_altitude
 5361 4fd8 00000000 		.word	nav_course
 5362 4fdc 00000000 		.word	nav_shift
 5363 4fe0 00000000 		.word	.LANCHOR18
 5364 4fe4 00000000 		.word	nav_radius
 5365 4fe8 00000000 		.word	.LANCHOR21
 5366 4fec 00000000 		.word	.LANCHOR22
 5367 4ff0 00000000 		.word	.LANCHOR19
 5368 4ff4 00000000 		.word	gps
 5369 4ff8 00000000 		.word	.LANCHOR44
 5370 4ffc 00000000 		.word	.LANCHOR31
 5371 5000 00000000 		.word	nav_survey_active
 5372 5004 00000000 		.word	nav_survey_east
 5373 5008 00000000 		.word	nav_survey_north
 5374 500c 00000000 		.word	nav_survey_west
 5375 5010 00000000 		.word	nav_survey_south
 5376 5014 00000000 		.word	.LANCHOR32
 5377 5018 00000000 		.word	nav_circle_radians
 5378 501c 182D4454 		.word	1413754136
 5379 5020 FB211940 		.word	1075388923
 5380 5024 00000000 		.word	nav_block
 5381 5028 00000000 		.word	nav_stage
 5382 502c 00000000 		.word	dist2_to_wp
 5383 5030 00000000 		.word	dist2_to_home
 5384 5034 00000000 		.word	nav_oval_count
 5385 5038 00000000 		.word	downlink_nb_ovrn
 5386 503c 00000000 		.word	.LANCHOR33
 5387 5040 00000000 		.word	nav_in_circle
 5388 5044 00000000 		.word	downlink_nb_bytes
 5389 5048 00000000 		.word	downlink_nb_msgs
 5390 504c 00000000 		.word	ck_a
 5391 5050 00000000 		.word	ck_b
 5392 5054 00000000 		.word	nav_circle_x
 5393 5058 00000000 		.word	nav_circle_y
 5394 505c 00000000 		.word	nav_circle_radius
 5395 5060 00000000 		.word	uart1
 5396              	.L126:
 5397 5064 34301FE5 		ldr	r3, .L271+232
 5398 5068 0020D3E5 		ldrb	r2, [r3, #0]	@ zero_extendqisi2
 5399 506c 012082E2 		add	r2, r2, #1
 5400 5070 0020C3E5 		strb	r2, [r3, #0]
 5401              	.L125:
 5402 5074 D0301FE5 		ldr	r3, .L271+92
 5403 5078 0030D3E5 		ldrb	r3, [r3, #0]	@ zero_extendqisi2
 5404 507c 120053E3 		cmp	r3, #18
 5405 5080 E100001A 		bne	.L127
 5406 5084 CC301FE5 		ldr	r3, .L271+112
 5407 5088 E0101FE5 		ldr	r1, .L271+96
 5408 508c 0020D3E5 		ldrb	r2, [r3, #0]	@ zero_extendqisi2
 5409 5090 0010D1E5 		ldrb	r1, [r1, #0]	@ zero_extendqisi2
 5410 5094 012082E2 		add	r2, r2, #1
 5411 5098 FF2002E2 		and	r2, r2, #255
 5412 509c 020051E1 		cmp	r1, r2
 5413 50a0 0020C3E5 		strb	r2, [r3, #0]
 5414 50a4 0020A093 		movls	r2, #0
 5415 50a8 0020C395 		strlsb	r2, [r3, #0]
 5416 50ac 0040D3E5 		ldrb	r4, [r3, #0]	@ zero_extendqisi2
 5417 50b0 04311FE5 		ldr	r3, .L271+100
 5418 50b4 0C70A0E3 		mov	r7, #12
 5419 50b8 000093E5 		ldr	r0, [r3, #0]
 5420 50bc FEFFFFEB 		bl	__aeabi_i2f
 5421 50c0 970403E0 		mul	r3, r7, r4
 5422 50c4 14611FE5 		ldr	r6, .L271+104
 5423 50c8 031096E7 		ldr	r1, [r6, r3]	@ float
 5424 50cc 034086E0 		add	r4, r6, r3
 5425 50d0 FEFFFFEB 		bl	__aeabi_fadd
 5426 50d4 20311FE5 		ldr	r3, .L271+108
 5427 50d8 08008DE5 		str	r0, [sp, #8]	@ float
 5428 50dc 000093E5 		ldr	r0, [r3, #0]
 5429 50e0 FEFFFFEB 		bl	__aeabi_i2f
 5430 50e4 041094E5 		ldr	r1, [r4, #4]	@ float
 5431 50e8 FEFFFFEB 		bl	__aeabi_fadd
 5432 50ec 1410A0E3 		mov	r1, #20
 5433 50f0 00008DE5 		str	r0, [sp, #0]	@ float
 5434 50f4 9C001FE5 		ldr	r0, .L271+272
 5435 50f8 FEFFFFEB 		bl	uart_check_free_space
 5436 50fc 000050E3 		cmp	r0, #0
 5437 5100 48811FE5 		ldr	r8, .L271+112
 5438 5104 BC00000A 		beq	.L129
 5439 5108 CC301FE5 		ldr	r3, .L271+244
 5440 510c B020D3E1 		ldrh	r2, [r3, #0]
 5441 5110 142082E2 		add	r2, r2, #20
 5442 5114 B020C3E1 		strh	r2, [r3, #0]	@ movhi
 5443 5118 D8301FE5 		ldr	r3, .L271+248
 5444 511c B020D3E1 		ldrh	r2, [r3, #0]
 5445 5120 012082E2 		add	r2, r2, #1
 5446 5124 B020C3E1 		strh	r2, [r3, #0]	@ movhi
 5447 5128 D0001FE5 		ldr	r0, .L271+272
 5448 512c 9910A0E3 		mov	r1, #153
 5449 5130 EC501FE5 		ldr	r5, .L271+252
 5450 5134 FEFFFFEB 		bl	uart_transmit
 5451 5138 E0001FE5 		ldr	r0, .L271+272
 5452 513c 1410A0E3 		mov	r1, #20
 5453 5140 F8401FE5 		ldr	r4, .L271+256
 5454 5144 FEFFFFEB 		bl	uart_transmit
 5455 5148 1530A0E3 		mov	r3, #21
 5456 514c 0030C5E5 		strb	r3, [r5, #0]
 5457 5150 2930A0E3 		mov	r3, #41
 5458 5154 0030C4E5 		strb	r3, [r4, #0]
 5459 5158 00011FE5 		ldr	r0, .L271+272
 5460 515c 0110A0E3 		mov	r1, #1
 5461 5160 FEFFFFEB 		bl	uart_transmit
 5462 5164 0030D5E5 		ldrb	r3, [r5, #0]	@ zero_extendqisi2
 5463 5168 0020D4E5 		ldrb	r2, [r4, #0]	@ zero_extendqisi2
 5464 516c 233083E2 		add	r3, r3, #35
 5465 5170 FF3003E2 		and	r3, r3, #255
 5466 5174 0030C5E5 		strb	r3, [r5, #0]
 5467 5178 023083E0 		add	r3, r3, r2
 5468 517c 0030C4E5 		strb	r3, [r4, #0]
 5469 5180 28011FE5 		ldr	r0, .L271+272
 5470 5184 2310A0E3 		mov	r1, #35
 5471 5188 FEFFFFEB 		bl	uart_transmit
 5472 518c 0010D8E5 		ldrb	r1, [r8, #0]	@ zero_extendqisi2
 5473 5190 0030D5E5 		ldrb	r3, [r5, #0]	@ zero_extendqisi2
 5474 5194 0020D4E5 		ldrb	r2, [r4, #0]	@ zero_extendqisi2
 5475 5198 033081E0 		add	r3, r1, r3
 5476 519c FF3003E2 		and	r3, r3, #255
 5477 51a0 0030C5E5 		strb	r3, [r5, #0]
 5478 51a4 023083E0 		add	r3, r3, r2
 5479 51a8 0030C4E5 		strb	r3, [r4, #0]
 5480 51ac 54011FE5 		ldr	r0, .L271+272
 5481 51b0 FEFFFFEB 		bl	uart_transmit
 5482 51b4 0810DDE5 		ldrb	r1, [sp, #8]	@ zero_extendqisi2
 5483 51b8 0030D5E5 		ldrb	r3, [r5, #0]	@ zero_extendqisi2
 5484 51bc 0020D4E5 		ldrb	r2, [r4, #0]	@ zero_extendqisi2
 5485 51c0 033081E0 		add	r3, r1, r3
 5486 51c4 FF3003E2 		and	r3, r3, #255
 5487 51c8 0030C5E5 		strb	r3, [r5, #0]
 5488 51cc 023083E0 		add	r3, r3, r2
 5489 51d0 0030C4E5 		strb	r3, [r4, #0]
 5490 51d4 7C011FE5 		ldr	r0, .L271+272
 5491 51d8 FEFFFFEB 		bl	uart_transmit
 5492 51dc 0910DDE5 		ldrb	r1, [sp, #9]	@ zero_extendqisi2
 5493 51e0 0030D5E5 		ldrb	r3, [r5, #0]	@ zero_extendqisi2
 5494 51e4 0020D4E5 		ldrb	r2, [r4, #0]	@ zero_extendqisi2
 5495 51e8 033081E0 		add	r3, r1, r3
 5496 51ec FF3003E2 		and	r3, r3, #255
 5497 51f0 0030C5E5 		strb	r3, [r5, #0]
 5498 51f4 023083E0 		add	r3, r3, r2
 5499 51f8 0030C4E5 		strb	r3, [r4, #0]
 5500 51fc A4011FE5 		ldr	r0, .L271+272
 5501 5200 FEFFFFEB 		bl	uart_transmit
 5502 5204 0A10DDE5 		ldrb	r1, [sp, #10]	@ zero_extendqisi2
 5503 5208 0030D5E5 		ldrb	r3, [r5, #0]	@ zero_extendqisi2
 5504 520c 0020D4E5 		ldrb	r2, [r4, #0]	@ zero_extendqisi2
 5505 5210 033081E0 		add	r3, r1, r3
 5506 5214 FF3003E2 		and	r3, r3, #255
 5507 5218 0030C5E5 		strb	r3, [r5, #0]
 5508 521c 023083E0 		add	r3, r3, r2
 5509 5220 0030C4E5 		strb	r3, [r4, #0]
 5510 5224 CC011FE5 		ldr	r0, .L271+272
 5511 5228 FEFFFFEB 		bl	uart_transmit
 5512 522c 0B10DDE5 		ldrb	r1, [sp, #11]	@ zero_extendqisi2
 5513 5230 0030D5E5 		ldrb	r3, [r5, #0]	@ zero_extendqisi2
 5514 5234 0020D4E5 		ldrb	r2, [r4, #0]	@ zero_extendqisi2
 5515 5238 033081E0 		add	r3, r1, r3
 5516 523c FF3003E2 		and	r3, r3, #255
 5517 5240 0030C5E5 		strb	r3, [r5, #0]
 5518 5244 023083E0 		add	r3, r3, r2
 5519 5248 0030C4E5 		strb	r3, [r4, #0]
 5520 524c F4011FE5 		ldr	r0, .L271+272
 5521 5250 FEFFFFEB 		bl	uart_transmit
 5522 5254 0010DDE5 		ldrb	r1, [sp, #0]	@ zero_extendqisi2
 5523 5258 0030D5E5 		ldrb	r3, [r5, #0]	@ zero_extendqisi2
 5524 525c 0020D4E5 		ldrb	r2, [r4, #0]	@ zero_extendqisi2
 5525 5260 033081E0 		add	r3, r1, r3
 5526 5264 FF3003E2 		and	r3, r3, #255
 5527 5268 0030C5E5 		strb	r3, [r5, #0]
 5528 526c 023083E0 		add	r3, r3, r2
 5529 5270 0030C4E5 		strb	r3, [r4, #0]
 5530 5274 1C021FE5 		ldr	r0, .L271+272
 5531 5278 FEFFFFEB 		bl	uart_transmit
 5532 527c 0110DDE5 		ldrb	r1, [sp, #1]	@ zero_extendqisi2
 5533 5280 0030D5E5 		ldrb	r3, [r5, #0]	@ zero_extendqisi2
 5534 5284 0020D4E5 		ldrb	r2, [r4, #0]	@ zero_extendqisi2
 5535 5288 033081E0 		add	r3, r1, r3
 5536 528c FF3003E2 		and	r3, r3, #255
 5537 5290 0030C5E5 		strb	r3, [r5, #0]
 5538 5294 023083E0 		add	r3, r3, r2
 5539 5298 0030C4E5 		strb	r3, [r4, #0]
 5540 529c 44021FE5 		ldr	r0, .L271+272
 5541 52a0 FEFFFFEB 		bl	uart_transmit
 5542 52a4 0210DDE5 		ldrb	r1, [sp, #2]	@ zero_extendqisi2
 5543 52a8 0030D5E5 		ldrb	r3, [r5, #0]	@ zero_extendqisi2
 5544 52ac 0020D4E5 		ldrb	r2, [r4, #0]	@ zero_extendqisi2
 5545 52b0 033081E0 		add	r3, r1, r3
 5546 52b4 FF3003E2 		and	r3, r3, #255
 5547 52b8 0030C5E5 		strb	r3, [r5, #0]
 5548 52bc 023083E0 		add	r3, r3, r2
 5549 52c0 0030C4E5 		strb	r3, [r4, #0]
 5550 52c4 6C021FE5 		ldr	r0, .L271+272
 5551 52c8 FEFFFFEB 		bl	uart_transmit
 5552 52cc 0310DDE5 		ldrb	r1, [sp, #3]	@ zero_extendqisi2
 5553 52d0 0030D5E5 		ldrb	r3, [r5, #0]	@ zero_extendqisi2
 5554 52d4 0020D4E5 		ldrb	r2, [r4, #0]	@ zero_extendqisi2
 5555 52d8 033081E0 		add	r3, r1, r3
 5556 52dc FF3003E2 		and	r3, r3, #255
 5557 52e0 0030C5E5 		strb	r3, [r5, #0]
 5558 52e4 023083E0 		add	r3, r3, r2
 5559 52e8 0030C4E5 		strb	r3, [r4, #0]
 5560 52ec 94021FE5 		ldr	r0, .L271+272
 5561 52f0 FEFFFFEB 		bl	uart_transmit
 5562 52f4 0030D8E5 		ldrb	r3, [r8, #0]	@ zero_extendqisi2
 5563 52f8 976323E0 		mla	r3, r7, r3, r6
 5564 52fc 0810D3E5 		ldrb	r1, [r3, #8]	@ zero_extendqisi2
 5565 5300 0030D5E5 		ldrb	r3, [r5, #0]	@ zero_extendqisi2
 5566 5304 0020D4E5 		ldrb	r2, [r4, #0]	@ zero_extendqisi2
 5567 5308 033081E0 		add	r3, r1, r3
 5568 530c FF3003E2 		and	r3, r3, #255
 5569 5310 0030C5E5 		strb	r3, [r5, #0]
 5570 5314 023083E0 		add	r3, r3, r2
 5571 5318 0030C4E5 		strb	r3, [r4, #0]
 5572 531c C4021FE5 		ldr	r0, .L271+272
 5573 5320 FEFFFFEB 		bl	uart_transmit
 5574 5324 0030D8E5 		ldrb	r3, [r8, #0]	@ zero_extendqisi2
 5575 5328 976323E0 		mla	r3, r7, r3, r6
 5576 532c 0910D3E5 		ldrb	r1, [r3, #9]	@ zero_extendqisi2
 5577 5330 0030D5E5 		ldrb	r3, [r5, #0]	@ zero_extendqisi2
 5578 5334 0020D4E5 		ldrb	r2, [r4, #0]	@ zero_extendqisi2
 5579 5338 033081E0 		add	r3, r1, r3
 5580 533c FF3003E2 		and	r3, r3, #255
 5581 5340 0030C5E5 		strb	r3, [r5, #0]
 5582 5344 023083E0 		add	r3, r3, r2
 5583 5348 0030C4E5 		strb	r3, [r4, #0]
 5584 534c F4021FE5 		ldr	r0, .L271+272
 5585 5350 FEFFFFEB 		bl	uart_transmit
 5586 5354 0030D8E5 		ldrb	r3, [r8, #0]	@ zero_extendqisi2
 5587 5358 976323E0 		mla	r3, r7, r3, r6
 5588 535c 0A10D3E5 		ldrb	r1, [r3, #10]	@ zero_extendqisi2
 5589 5360 0030D5E5 		ldrb	r3, [r5, #0]	@ zero_extendqisi2
 5590 5364 0020D4E5 		ldrb	r2, [r4, #0]	@ zero_extendqisi2
 5591 5368 033081E0 		add	r3, r1, r3
 5592 536c FF3003E2 		and	r3, r3, #255
 5593 5370 0030C5E5 		strb	r3, [r5, #0]
 5594 5374 023083E0 		add	r3, r3, r2
 5595 5378 0030C4E5 		strb	r3, [r4, #0]
 5596 537c 24031FE5 		ldr	r0, .L271+272
 5597 5380 FEFFFFEB 		bl	uart_transmit
 5598 5384 0030D8E5 		ldrb	r3, [r8, #0]	@ zero_extendqisi2
 5599 5388 976326E0 		mla	r6, r7, r3, r6
 5600 538c 0030D5E5 		ldrb	r3, [r5, #0]	@ zero_extendqisi2
 5601 5390 0B10D6E5 		ldrb	r1, [r6, #11]	@ zero_extendqisi2
 5602 5394 0020D4E5 		ldrb	r2, [r4, #0]	@ zero_extendqisi2
 5603 5398 033081E0 		add	r3, r1, r3
 5604 539c FF3003E2 		and	r3, r3, #255
 5605 53a0 0030C5E5 		strb	r3, [r5, #0]
 5606 53a4 023083E0 		add	r3, r3, r2
 5607 53a8 0030C4E5 		strb	r3, [r4, #0]
 5608 53ac 54031FE5 		ldr	r0, .L271+272
 5609 53b0 FEFFFFEB 		bl	uart_transmit
 5610 53b4 F8331FE5 		ldr	r3, .L271+116
 5611 53b8 0010D3E5 		ldrb	r1, [r3, #0]	@ zero_extendqisi2
 5612 53bc 0030D5E5 		ldrb	r3, [r5, #0]	@ zero_extendqisi2
 5613 53c0 0020D4E5 		ldrb	r2, [r4, #0]	@ zero_extendqisi2
 5614 53c4 033081E0 		add	r3, r1, r3
 5615 53c8 FF3003E2 		and	r3, r3, #255
 5616 53cc 0030C5E5 		strb	r3, [r5, #0]
 5617 53d0 023083E0 		add	r3, r3, r2
 5618 53d4 0030C4E5 		strb	r3, [r4, #0]
 5619 53d8 80031FE5 		ldr	r0, .L271+272
 5620 53dc FEFFFFEB 		bl	uart_transmit
 5621 53e0 0010D5E5 		ldrb	r1, [r5, #0]	@ zero_extendqisi2
 5622 53e4 8C031FE5 		ldr	r0, .L271+272
 5623 53e8 FEFFFFEB 		bl	uart_transmit
 5624 53ec 94031FE5 		ldr	r0, .L271+272
 5625 53f0 0010D4E5 		ldrb	r1, [r4, #0]	@ zero_extendqisi2
 5626 53f4 FEFFFFEB 		bl	uart_transmit
 5627 53f8 030000EA 		b	.L127
 5628              	.L129:
 5629 53fc CC331FE5 		ldr	r3, .L271+232
 5630 5400 0020D3E5 		ldrb	r2, [r3, #0]	@ zero_extendqisi2
 5631 5404 012082E2 		add	r2, r2, #1
 5632 5408 0020C3E5 		strb	r2, [r3, #0]
 5633              	.L127:
 5634 540c 4C341FE5 		ldr	r3, .L271+120
 5635 5410 0030D3E5 		ldrb	r3, [r3, #0]	@ zero_extendqisi2
 5636 5414 180053E3 		cmp	r3, #24
 5637 5418 9900001A 		bne	.L130
 5638 541c 2C341FE5 		ldr	r3, .L271+168
 5639 5420 0020D3E5 		ldrb	r2, [r3, #0]	@ zero_extendqisi2
 5640 5424 0A0052E3 		cmp	r2, #10
 5641 5428 0020A083 		movhi	r2, #0
 5642 542c 0020C385 		strhib	r2, [r3, #0]
 5643 5430 0030D3E5 		ldrb	r3, [r3, #0]	@ zero_extendqisi2
 5644 5434 0A0053E3 		cmp	r3, #10
 5645 5438 03F19F97 		ldrls	pc, [pc, r3, asl #2]
 5646 543c 260000EA 		b	.L132
 5647              	.L144:
 5648 5440 6C540000 		.word	.L133
 5649 5444 74540000 		.word	.L134
 5650 5448 88540000 		.word	.L135
 5651 544c 90540000 		.word	.L136
 5652 5450 98540000 		.word	.L137
 5653 5454 A0540000 		.word	.L138
 5654 5458 AC540000 		.word	.L139
 5655 545c B8540000 		.word	.L140
 5656 5460 C0540000 		.word	.L141
 5657 5464 C8540000 		.word	.L142
 5658 5468 D0540000 		.word	.L143
 5659              	.L133:
 5660 546c A8341FE5 		ldr	r3, .L271+124
 5661 5470 000000EA 		b	.L252
 5662              	.L134:
 5663 5474 AC341FE5 		ldr	r3, .L271+128
 5664              	.L252:
 5665 5478 0000D3E5 		ldrb	r0, [r3, #0]	@ zero_extendqisi2
 5666              	.L253:
 5667 547c FEFFFFEB 		bl	__aeabi_ui2f
 5668 5480 00008DE5 		str	r0, [sp, #0]	@ float
 5669 5484 160000EA 		b	.L145
 5670              	.L135:
 5671 5488 BC341FE5 		ldr	r3, .L271+132
 5672 548c 070000EA 		b	.L263
 5673              	.L136:
 5674 5490 C0341FE5 		ldr	r3, .L271+136
 5675 5494 050000EA 		b	.L263
 5676              	.L137:
 5677 5498 C4341FE5 		ldr	r3, .L271+140
 5678 549c 030000EA 		b	.L263
 5679              	.L138:
 5680 54a0 C8341FE5 		ldr	r3, .L271+144
 5681 54a4 B000D3E1 		ldrh	r0, [r3, #0]
 5682 54a8 F3FFFFEA 		b	.L253
 5683              	.L139:
 5684 54ac D0341FE5 		ldr	r3, .L271+148
 5685              	.L263:
 5686 54b0 003093E5 		ldr	r3, [r3, #0]	@ float
 5687 54b4 090000EA 		b	.L254
 5688              	.L140:
 5689 54b8 D8341FE5 		ldr	r3, .L271+152
 5690 54bc EDFFFFEA 		b	.L252
 5691              	.L141:
 5692 54c0 DC341FE5 		ldr	r3, .L271+156
 5693 54c4 EBFFFFEA 		b	.L252
 5694              	.L142:
 5695 54c8 E0341FE5 		ldr	r3, .L271+160
 5696 54cc E9FFFFEA 		b	.L252
 5697              	.L143:
 5698 54d0 E4341FE5 		ldr	r3, .L271+164
 5699 54d4 B00FD3E1 		ldrh	r0, [r3, #240]
 5700 54d8 E7FFFFEA 		b	.L253
 5701              	.L132:
 5702 54dc 0030A0E3 		mov	r3, #0
 5703              	.L254:
 5704 54e0 00308DE5 		str	r3, [sp, #0]	@ float
 5705              	.L145:
 5706 54e4 8C041FE5 		ldr	r0, .L271+272
 5707 54e8 0B10A0E3 		mov	r1, #11
 5708 54ec FEFFFFEB 		bl	uart_check_free_space
 5709 54f0 000050E3 		cmp	r0, #0
 5710 54f4 5A00000A 		beq	.L146
 5711 54f8 BC341FE5 		ldr	r3, .L271+244
 5712 54fc B020D3E1 		ldrh	r2, [r3, #0]
 5713 5500 0B2082E2 		add	r2, r2, #11
 5714 5504 B020C3E1 		strh	r2, [r3, #0]	@ movhi
 5715 5508 C8341FE5 		ldr	r3, .L271+248
 5716 550c B020D3E1 		ldrh	r2, [r3, #0]
 5717 5510 012082E2 		add	r2, r2, #1
 5718 5514 B020C3E1 		strh	r2, [r3, #0]	@ movhi
 5719 5518 C0041FE5 		ldr	r0, .L271+272
 5720 551c 9910A0E3 		mov	r1, #153
 5721 5520 DC541FE5 		ldr	r5, .L271+252
 5722 5524 FEFFFFEB 		bl	uart_transmit
 5723 5528 D0041FE5 		ldr	r0, .L271+272
 5724 552c 0B10A0E3 		mov	r1, #11
 5725 5530 E8441FE5 		ldr	r4, .L271+256
 5726 5534 FEFFFFEB 		bl	uart_transmit
 5727 5538 0C30A0E3 		mov	r3, #12
 5728 553c 0030C5E5 		strb	r3, [r5, #0]
 5729 5540 1730A0E3 		mov	r3, #23
 5730 5544 0030C4E5 		strb	r3, [r4, #0]
 5731 5548 F0041FE5 		ldr	r0, .L271+272
 5732 554c 0110A0E3 		mov	r1, #1
 5733 5550 FEFFFFEB 		bl	uart_transmit
 5734 5554 0030D5E5 		ldrb	r3, [r5, #0]	@ zero_extendqisi2
 5735 5558 0020D4E5 		ldrb	r2, [r4, #0]	@ zero_extendqisi2
 5736 555c 1F3083E2 		add	r3, r3, #31
 5737 5560 FF3003E2 		and	r3, r3, #255
 5738 5564 0030C5E5 		strb	r3, [r5, #0]
 5739 5568 023083E0 		add	r3, r3, r2
 5740 556c 0030C4E5 		strb	r3, [r4, #0]
 5741 5570 18051FE5 		ldr	r0, .L271+272
 5742 5574 1F10A0E3 		mov	r1, #31
 5743 5578 FEFFFFEB 		bl	uart_transmit
 5744 557c 8C351FE5 		ldr	r3, .L271+168
 5745 5580 0010D3E5 		ldrb	r1, [r3, #0]	@ zero_extendqisi2
 5746 5584 0030D5E5 		ldrb	r3, [r5, #0]	@ zero_extendqisi2
 5747 5588 0020D4E5 		ldrb	r2, [r4, #0]	@ zero_extendqisi2
 5748 558c 033081E0 		add	r3, r1, r3
 5749 5590 FF3003E2 		and	r3, r3, #255
 5750 5594 0030C5E5 		strb	r3, [r5, #0]
 5751 5598 023083E0 		add	r3, r3, r2
 5752 559c 0030C4E5 		strb	r3, [r4, #0]
 5753 55a0 48051FE5 		ldr	r0, .L271+272
 5754 55a4 FEFFFFEB 		bl	uart_transmit
 5755 55a8 0010DDE5 		ldrb	r1, [sp, #0]	@ zero_extendqisi2
 5756 55ac 0030D5E5 		ldrb	r3, [r5, #0]	@ zero_extendqisi2
 5757 55b0 0020D4E5 		ldrb	r2, [r4, #0]	@ zero_extendqisi2
 5758 55b4 033081E0 		add	r3, r1, r3
 5759 55b8 FF3003E2 		and	r3, r3, #255
 5760 55bc 0030C5E5 		strb	r3, [r5, #0]
 5761 55c0 023083E0 		add	r3, r3, r2
 5762 55c4 0030C4E5 		strb	r3, [r4, #0]
 5763 55c8 70051FE5 		ldr	r0, .L271+272
 5764 55cc FEFFFFEB 		bl	uart_transmit
 5765 55d0 0110DDE5 		ldrb	r1, [sp, #1]	@ zero_extendqisi2
 5766 55d4 0030D5E5 		ldrb	r3, [r5, #0]	@ zero_extendqisi2
 5767 55d8 0020D4E5 		ldrb	r2, [r4, #0]	@ zero_extendqisi2
 5768 55dc 033081E0 		add	r3, r1, r3
 5769 55e0 FF3003E2 		and	r3, r3, #255
 5770 55e4 0030C5E5 		strb	r3, [r5, #0]
 5771 55e8 023083E0 		add	r3, r3, r2
 5772 55ec 0030C4E5 		strb	r3, [r4, #0]
 5773 55f0 98051FE5 		ldr	r0, .L271+272
 5774 55f4 FEFFFFEB 		bl	uart_transmit
 5775 55f8 0210DDE5 		ldrb	r1, [sp, #2]	@ zero_extendqisi2
 5776 55fc 0030D5E5 		ldrb	r3, [r5, #0]	@ zero_extendqisi2
 5777 5600 0020D4E5 		ldrb	r2, [r4, #0]	@ zero_extendqisi2
 5778 5604 033081E0 		add	r3, r1, r3
 5779 5608 FF3003E2 		and	r3, r3, #255
 5780 560c 0030C5E5 		strb	r3, [r5, #0]
 5781 5610 023083E0 		add	r3, r3, r2
 5782 5614 0030C4E5 		strb	r3, [r4, #0]
 5783 5618 C0051FE5 		ldr	r0, .L271+272
 5784 561c FEFFFFEB 		bl	uart_transmit
 5785 5620 0310DDE5 		ldrb	r1, [sp, #3]	@ zero_extendqisi2
 5786 5624 0030D5E5 		ldrb	r3, [r5, #0]	@ zero_extendqisi2
 5787 5628 0020D4E5 		ldrb	r2, [r4, #0]	@ zero_extendqisi2
 5788 562c 033081E0 		add	r3, r1, r3
 5789 5630 FF3003E2 		and	r3, r3, #255
 5790 5634 0030C5E5 		strb	r3, [r5, #0]
 5791 5638 023083E0 		add	r3, r3, r2
 5792 563c 0030C4E5 		strb	r3, [r4, #0]
 5793 5640 E8051FE5 		ldr	r0, .L271+272
 5794 5644 FEFFFFEB 		bl	uart_transmit
 5795 5648 0010D5E5 		ldrb	r1, [r5, #0]	@ zero_extendqisi2
 5796 564c F4051FE5 		ldr	r0, .L271+272
 5797 5650 FEFFFFEB 		bl	uart_transmit
 5798 5654 FC051FE5 		ldr	r0, .L271+272
 5799 5658 0010D4E5 		ldrb	r1, [r4, #0]	@ zero_extendqisi2
 5800 565c FEFFFFEB 		bl	uart_transmit
 5801 5660 030000EA 		b	.L147
 5802              	.L146:
 5803 5664 34361FE5 		ldr	r3, .L271+232
 5804 5668 0020D3E5 		ldrb	r2, [r3, #0]	@ zero_extendqisi2
 5805 566c 012082E2 		add	r2, r2, #1
 5806 5670 0020C3E5 		strb	r2, [r3, #0]
 5807              	.L147:
 5808 5674 84361FE5 		ldr	r3, .L271+168
 5809 5678 0020D3E5 		ldrb	r2, [r3, #0]	@ zero_extendqisi2
 5810 567c 012082E2 		add	r2, r2, #1
 5811 5680 0020C3E5 		strb	r2, [r3, #0]
 5812              	.L130:
 5813 5684 90361FE5 		ldr	r3, .L271+172
 5814 5688 0030D3E5 		ldrb	r3, [r3, #0]	@ zero_extendqisi2
 5815 568c 1E0053E3 		cmp	r3, #30
 5816 5690 D800001A 		bne	.L148
 5817 5694 9C361FE5 		ldr	r3, .L271+176
 5818 5698 0030D3E5 		ldrb	r3, [r3, #0]	@ zero_extendqisi2
 5819 569c 000053E3 		cmp	r3, #0
 5820 56a0 D400000A 		beq	.L148
 5821 56a4 4C061FE5 		ldr	r0, .L271+272
 5822 56a8 1610A0E3 		mov	r1, #22
 5823 56ac FEFFFFEB 		bl	uart_check_free_space
 5824 56b0 000050E3 		cmp	r0, #0
 5825 56b4 CB00000A 		beq	.L149
 5826 56b8 7C361FE5 		ldr	r3, .L271+244
 5827 56bc B020D3E1 		ldrh	r2, [r3, #0]
 5828 56c0 162082E2 		add	r2, r2, #22
 5829 56c4 B020C3E1 		strh	r2, [r3, #0]	@ movhi
 5830 56c8 88361FE5 		ldr	r3, .L271+248
 5831 56cc B020D3E1 		ldrh	r2, [r3, #0]
 5832 56d0 012082E2 		add	r2, r2, #1
 5833 56d4 B020C3E1 		strh	r2, [r3, #0]	@ movhi
 5834 56d8 80061FE5 		ldr	r0, .L271+272
 5835 56dc 9910A0E3 		mov	r1, #153
 5836 56e0 9C561FE5 		ldr	r5, .L271+252
 5837 56e4 FEFFFFEB 		bl	uart_transmit
 5838 56e8 90061FE5 		ldr	r0, .L271+272
 5839 56ec 1610A0E3 		mov	r1, #22
 5840 56f0 A8461FE5 		ldr	r4, .L271+256
 5841 56f4 FEFFFFEB 		bl	uart_transmit
 5842 56f8 1730A0E3 		mov	r3, #23
 5843 56fc 0030C5E5 		strb	r3, [r5, #0]
 5844 5700 2D30A0E3 		mov	r3, #45
 5845 5704 0030C4E5 		strb	r3, [r4, #0]
 5846 5708 B0061FE5 		ldr	r0, .L271+272
 5847 570c 0110A0E3 		mov	r1, #1
 5848 5710 FEFFFFEB 		bl	uart_transmit
 5849 5714 0030D5E5 		ldrb	r3, [r5, #0]	@ zero_extendqisi2
 5850 5718 0020D4E5 		ldrb	r2, [r4, #0]	@ zero_extendqisi2
 5851 571c 1B3083E2 		add	r3, r3, #27
 5852 5720 FF3003E2 		and	r3, r3, #255
 5853 5724 28671FE5 		ldr	r6, .L271+180
 5854 5728 0030C5E5 		strb	r3, [r5, #0]
 5855 572c 023083E0 		add	r3, r3, r2
 5856 5730 0030C4E5 		strb	r3, [r4, #0]
 5857 5734 DC061FE5 		ldr	r0, .L271+272
 5858 5738 1B10A0E3 		mov	r1, #27
 5859 573c FEFFFFEB 		bl	uart_transmit
 5860 5740 0010D6E5 		ldrb	r1, [r6, #0]	@ zero_extendqisi2
 5861 5744 0030D5E5 		ldrb	r3, [r5, #0]	@ zero_extendqisi2
 5862 5748 0020D4E5 		ldrb	r2, [r4, #0]	@ zero_extendqisi2
 5863 574c 033081E0 		add	r3, r1, r3
 5864 5750 FF3003E2 		and	r3, r3, #255
 5865 5754 0030C5E5 		strb	r3, [r5, #0]
 5866 5758 023083E0 		add	r3, r3, r2
 5867 575c 0030C4E5 		strb	r3, [r4, #0]
 5868 5760 08071FE5 		ldr	r0, .L271+272
 5869 5764 FEFFFFEB 		bl	uart_transmit
 5870 5768 0110D6E5 		ldrb	r1, [r6, #1]	@ zero_extendqisi2
 5871 576c 0030D5E5 		ldrb	r3, [r5, #0]	@ zero_extendqisi2
 5872 5770 0020D4E5 		ldrb	r2, [r4, #0]	@ zero_extendqisi2
 5873 5774 033081E0 		add	r3, r1, r3
 5874 5778 FF3003E2 		and	r3, r3, #255
 5875 577c 0030C5E5 		strb	r3, [r5, #0]
 5876 5780 023083E0 		add	r3, r3, r2
 5877 5784 0030C4E5 		strb	r3, [r4, #0]
 5878 5788 30071FE5 		ldr	r0, .L271+272
 5879 578c FEFFFFEB 		bl	uart_transmit
 5880 5790 0210D6E5 		ldrb	r1, [r6, #2]	@ zero_extendqisi2
 5881 5794 0030D5E5 		ldrb	r3, [r5, #0]	@ zero_extendqisi2
 5882 5798 0020D4E5 		ldrb	r2, [r4, #0]	@ zero_extendqisi2
 5883 579c 033081E0 		add	r3, r1, r3
 5884 57a0 FF3003E2 		and	r3, r3, #255
 5885 57a4 0030C5E5 		strb	r3, [r5, #0]
 5886 57a8 023083E0 		add	r3, r3, r2
 5887 57ac 0030C4E5 		strb	r3, [r4, #0]
 5888 57b0 58071FE5 		ldr	r0, .L271+272
 5889 57b4 FEFFFFEB 		bl	uart_transmit
 5890 57b8 0310D6E5 		ldrb	r1, [r6, #3]	@ zero_extendqisi2
 5891 57bc 0030D5E5 		ldrb	r3, [r5, #0]	@ zero_extendqisi2
 5892 57c0 0020D4E5 		ldrb	r2, [r4, #0]	@ zero_extendqisi2
 5893 57c4 033081E0 		add	r3, r1, r3
 5894 57c8 FF3003E2 		and	r3, r3, #255
 5895 57cc CC671FE5 		ldr	r6, .L271+184
 5896 57d0 0030C5E5 		strb	r3, [r5, #0]
 5897 57d4 023083E0 		add	r3, r3, r2
 5898 57d8 0030C4E5 		strb	r3, [r4, #0]
 5899 57dc 84071FE5 		ldr	r0, .L271+272
 5900 57e0 FEFFFFEB 		bl	uart_transmit
 5901 57e4 0010D6E5 		ldrb	r1, [r6, #0]	@ zero_extendqisi2
 5902 57e8 0030D5E5 		ldrb	r3, [r5, #0]	@ zero_extendqisi2
 5903 57ec 0020D4E5 		ldrb	r2, [r4, #0]	@ zero_extendqisi2
 5904 57f0 033081E0 		add	r3, r1, r3
 5905 57f4 FF3003E2 		and	r3, r3, #255
 5906 57f8 0030C5E5 		strb	r3, [r5, #0]
 5907 57fc 023083E0 		add	r3, r3, r2
 5908 5800 0030C4E5 		strb	r3, [r4, #0]
 5909 5804 AC071FE5 		ldr	r0, .L271+272
 5910 5808 FEFFFFEB 		bl	uart_transmit
 5911 580c 0110D6E5 		ldrb	r1, [r6, #1]	@ zero_extendqisi2
 5912 5810 0030D5E5 		ldrb	r3, [r5, #0]	@ zero_extendqisi2
 5913 5814 0020D4E5 		ldrb	r2, [r4, #0]	@ zero_extendqisi2
 5914 5818 033081E0 		add	r3, r1, r3
 5915 581c FF3003E2 		and	r3, r3, #255
 5916 5820 0030C5E5 		strb	r3, [r5, #0]
 5917 5824 023083E0 		add	r3, r3, r2
 5918 5828 0030C4E5 		strb	r3, [r4, #0]
 5919 582c D4071FE5 		ldr	r0, .L271+272
 5920 5830 FEFFFFEB 		bl	uart_transmit
 5921 5834 0210D6E5 		ldrb	r1, [r6, #2]	@ zero_extendqisi2
 5922 5838 0030D5E5 		ldrb	r3, [r5, #0]	@ zero_extendqisi2
 5923 583c 0020D4E5 		ldrb	r2, [r4, #0]	@ zero_extendqisi2
 5924 5840 033081E0 		add	r3, r1, r3
 5925 5844 FF3003E2 		and	r3, r3, #255
 5926 5848 0030C5E5 		strb	r3, [r5, #0]
 5927 584c 023083E0 		add	r3, r3, r2
 5928 5850 0030C4E5 		strb	r3, [r4, #0]
 5929 5854 FC071FE5 		ldr	r0, .L271+272
 5930 5858 FEFFFFEB 		bl	uart_transmit
 5931 585c 0310D6E5 		ldrb	r1, [r6, #3]	@ zero_extendqisi2
 5932 5860 0030D5E5 		ldrb	r3, [r5, #0]	@ zero_extendqisi2
 5933 5864 0020D4E5 		ldrb	r2, [r4, #0]	@ zero_extendqisi2
 5934 5868 033081E0 		add	r3, r1, r3
 5935 586c FF3003E2 		and	r3, r3, #255
 5936 5870 6C681FE5 		ldr	r6, .L271+188
 5937 5874 0030C5E5 		strb	r3, [r5, #0]
 5938 5878 023083E0 		add	r3, r3, r2
 5939 587c 0030C4E5 		strb	r3, [r4, #0]
 5940 5880 28081FE5 		ldr	r0, .L271+272
 5941 5884 FEFFFFEB 		bl	uart_transmit
 5942 5888 0010D6E5 		ldrb	r1, [r6, #0]	@ zero_extendqisi2
 5943 588c 0030D5E5 		ldrb	r3, [r5, #0]	@ zero_extendqisi2
 5944 5890 0020D4E5 		ldrb	r2, [r4, #0]	@ zero_extendqisi2
 5945 5894 033081E0 		add	r3, r1, r3
 5946 5898 FF3003E2 		and	r3, r3, #255
 5947 589c 0030C5E5 		strb	r3, [r5, #0]
 5948 58a0 023083E0 		add	r3, r3, r2
 5949 58a4 0030C4E5 		strb	r3, [r4, #0]
 5950 58a8 50081FE5 		ldr	r0, .L271+272
 5951 58ac FEFFFFEB 		bl	uart_transmit
 5952 58b0 0110D6E5 		ldrb	r1, [r6, #1]	@ zero_extendqisi2
 5953 58b4 0030D5E5 		ldrb	r3, [r5, #0]	@ zero_extendqisi2
 5954 58b8 0020D4E5 		ldrb	r2, [r4, #0]	@ zero_extendqisi2
 5955 58bc 033081E0 		add	r3, r1, r3
 5956 58c0 FF3003E2 		and	r3, r3, #255
 5957 58c4 0030C5E5 		strb	r3, [r5, #0]
 5958 58c8 023083E0 		add	r3, r3, r2
 5959 58cc 0030C4E5 		strb	r3, [r4, #0]
 5960 58d0 78081FE5 		ldr	r0, .L271+272
 5961 58d4 FEFFFFEB 		bl	uart_transmit
 5962 58d8 0210D6E5 		ldrb	r1, [r6, #2]	@ zero_extendqisi2
 5963 58dc 0030D5E5 		ldrb	r3, [r5, #0]	@ zero_extendqisi2
 5964 58e0 0020D4E5 		ldrb	r2, [r4, #0]	@ zero_extendqisi2
 5965 58e4 033081E0 		add	r3, r1, r3
 5966 58e8 FF3003E2 		and	r3, r3, #255
 5967 58ec 0030C5E5 		strb	r3, [r5, #0]
 5968 58f0 023083E0 		add	r3, r3, r2
 5969 58f4 0030C4E5 		strb	r3, [r4, #0]
 5970 58f8 A0081FE5 		ldr	r0, .L271+272
 5971 58fc FEFFFFEB 		bl	uart_transmit
 5972 5900 0310D6E5 		ldrb	r1, [r6, #3]	@ zero_extendqisi2
 5973 5904 0030D5E5 		ldrb	r3, [r5, #0]	@ zero_extendqisi2
 5974 5908 0020D4E5 		ldrb	r2, [r4, #0]	@ zero_extendqisi2
 5975 590c 033081E0 		add	r3, r1, r3
 5976 5910 FF3003E2 		and	r3, r3, #255
 5977 5914 0C691FE5 		ldr	r6, .L271+192
 5978 5918 0030C5E5 		strb	r3, [r5, #0]
 5979 591c 023083E0 		add	r3, r3, r2
 5980 5920 0030C4E5 		strb	r3, [r4, #0]
 5981 5924 CC081FE5 		ldr	r0, .L271+272
 5982 5928 FEFFFFEB 		bl	uart_transmit
 5983 592c 0010D6E5 		ldrb	r1, [r6, #0]	@ zero_extendqisi2
 5984 5930 0030D5E5 		ldrb	r3, [r5, #0]	@ zero_extendqisi2
 5985 5934 0020D4E5 		ldrb	r2, [r4, #0]	@ zero_extendqisi2
 5986 5938 033081E0 		add	r3, r1, r3
 5987 593c FF3003E2 		and	r3, r3, #255
 5988 5940 0030C5E5 		strb	r3, [r5, #0]
 5989 5944 023083E0 		add	r3, r3, r2
 5990 5948 0030C4E5 		strb	r3, [r4, #0]
 5991 594c F4081FE5 		ldr	r0, .L271+272
 5992 5950 FEFFFFEB 		bl	uart_transmit
 5993 5954 0110D6E5 		ldrb	r1, [r6, #1]	@ zero_extendqisi2
 5994 5958 0030D5E5 		ldrb	r3, [r5, #0]	@ zero_extendqisi2
 5995 595c 0020D4E5 		ldrb	r2, [r4, #0]	@ zero_extendqisi2
 5996 5960 033081E0 		add	r3, r1, r3
 5997 5964 FF3003E2 		and	r3, r3, #255
 5998 5968 0030C5E5 		strb	r3, [r5, #0]
 5999 596c 023083E0 		add	r3, r3, r2
 6000 5970 0030C4E5 		strb	r3, [r4, #0]
 6001 5974 1C091FE5 		ldr	r0, .L271+272
 6002 5978 FEFFFFEB 		bl	uart_transmit
 6003 597c 0210D6E5 		ldrb	r1, [r6, #2]	@ zero_extendqisi2
 6004 5980 0030D5E5 		ldrb	r3, [r5, #0]	@ zero_extendqisi2
 6005 5984 0020D4E5 		ldrb	r2, [r4, #0]	@ zero_extendqisi2
 6006 5988 033081E0 		add	r3, r1, r3
 6007 598c FF3003E2 		and	r3, r3, #255
 6008 5990 0030C5E5 		strb	r3, [r5, #0]
 6009 5994 023083E0 		add	r3, r3, r2
 6010 5998 0030C4E5 		strb	r3, [r4, #0]
 6011 599c 44091FE5 		ldr	r0, .L271+272
 6012 59a0 FEFFFFEB 		bl	uart_transmit
 6013 59a4 0310D6E5 		ldrb	r1, [r6, #3]	@ zero_extendqisi2
 6014 59a8 0030D5E5 		ldrb	r3, [r5, #0]	@ zero_extendqisi2
 6015 59ac 0020D4E5 		ldrb	r2, [r4, #0]	@ zero_extendqisi2
 6016 59b0 033081E0 		add	r3, r1, r3
 6017 59b4 FF3003E2 		and	r3, r3, #255
 6018 59b8 0030C5E5 		strb	r3, [r5, #0]
 6019 59bc 023083E0 		add	r3, r3, r2
 6020 59c0 0030C4E5 		strb	r3, [r4, #0]
 6021 59c4 6C091FE5 		ldr	r0, .L271+272
 6022 59c8 FEFFFFEB 		bl	uart_transmit
 6023 59cc 0010D5E5 		ldrb	r1, [r5, #0]	@ zero_extendqisi2
 6024 59d0 78091FE5 		ldr	r0, .L271+272
 6025 59d4 FEFFFFEB 		bl	uart_transmit
 6026 59d8 80091FE5 		ldr	r0, .L271+272
 6027 59dc 0010D4E5 		ldrb	r1, [r4, #0]	@ zero_extendqisi2
 6028 59e0 FEFFFFEB 		bl	uart_transmit
 6029 59e4 030000EA 		b	.L148
 6030              	.L149:
 6031 59e8 B8391FE5 		ldr	r3, .L271+232
 6032 59ec 0020D3E5 		ldrb	r2, [r3, #0]	@ zero_extendqisi2
 6033 59f0 012082E2 		add	r2, r2, #1
 6034 59f4 0020C3E5 		strb	r2, [r3, #0]
 6035              	.L148:
 6036 59f8 EC391FE5 		ldr	r3, .L271+196
 6037 59fc 0030D3E5 		ldrb	r3, [r3, #0]	@ zero_extendqisi2
 6038 5a00 240053E3 		cmp	r3, #36
 6039 5a04 0801001A 		bne	.L150
 6040 5a08 F8391FE5 		ldr	r3, .L271+200
 6041 5a0c 005093E5 		ldr	r5, [r3, #0]	@ float
 6042 5a10 FEFFFFEB 		bl	stateGetPositionEnu_f
 6043 5a14 1A10A0E3 		mov	r1, #26
 6044 5a18 0040A0E1 		mov	r4, r0
 6045 5a1c C4091FE5 		ldr	r0, .L271+272
 6046 5a20 FEFFFFEB 		bl	uart_check_free_space
 6047 5a24 000050E3 		cmp	r0, #0
 6048 5a28 FB00000A 		beq	.L151
 6049 5a2c 0201C5E3 		bic	r0, r5, #-2147483648
 6050 5a30 FEFFFFEB 		bl	__aeabi_f2d
 6051 5a34 202A1FE5 		ldr	r2, .L271+204
 6052 5a38 203A1FE5 		ldr	r3, .L271+208
 6053 5a3c FEFFFFEB 		bl	__aeabi_ddiv
 6054 5a40 FEFFFFEB 		bl	__aeabi_d2uiz
 6055 5a44 083A1FE5 		ldr	r3, .L271+244
 6056 5a48 B020D3E1 		ldrh	r2, [r3, #0]
 6057 5a4c 1A2082E2 		add	r2, r2, #26
 6058 5a50 B020C3E1 		strh	r2, [r3, #0]	@ movhi
 6059 5a54 143A1FE5 		ldr	r3, .L271+248
 6060 5a58 B020D3E1 		ldrh	r2, [r3, #0]
 6061 5a5c 012082E2 		add	r2, r2, #1
 6062 5a60 B020C3E1 		strh	r2, [r3, #0]	@ movhi
 6063 5a64 FF7000E2 		and	r7, r0, #255
 6064 5a68 9910A0E3 		mov	r1, #153
 6065 5a6c 140A1FE5 		ldr	r0, .L271+272
 6066 5a70 2C6A1FE5 		ldr	r6, .L271+252
 6067 5a74 FEFFFFEB 		bl	uart_transmit
 6068 5a78 200A1FE5 		ldr	r0, .L271+272
 6069 5a7c 1A10A0E3 		mov	r1, #26
 6070 5a80 385A1FE5 		ldr	r5, .L271+256
 6071 5a84 FEFFFFEB 		bl	uart_transmit
 6072 5a88 1B30A0E3 		mov	r3, #27
 6073 5a8c 0030C6E5 		strb	r3, [r6, #0]
 6074 5a90 3530A0E3 		mov	r3, #53
 6075 5a94 0030C5E5 		strb	r3, [r5, #0]
 6076 5a98 400A1FE5 		ldr	r0, .L271+272
 6077 5a9c 0110A0E3 		mov	r1, #1
 6078 5aa0 FEFFFFEB 		bl	uart_transmit
 6079 5aa4 0030D6E5 		ldrb	r3, [r6, #0]	@ zero_extendqisi2
 6080 5aa8 0020D5E5 		ldrb	r2, [r5, #0]	@ zero_extendqisi2
 6081 5aac 0A3083E2 		add	r3, r3, #10
 6082 5ab0 FF3003E2 		and	r3, r3, #255
 6083 5ab4 0030C6E5 		strb	r3, [r6, #0]
 6084 5ab8 023083E0 		add	r3, r3, r2
 6085 5abc 0030C5E5 		strb	r3, [r5, #0]
 6086 5ac0 680A1FE5 		ldr	r0, .L271+272
 6087 5ac4 0A10A0E3 		mov	r1, #10
 6088 5ac8 FEFFFFEB 		bl	uart_transmit
 6089 5acc B03A1FE5 		ldr	r3, .L271+212
 6090 5ad0 0010D3E5 		ldrb	r1, [r3, #0]	@ zero_extendqisi2
 6091 5ad4 0030D6E5 		ldrb	r3, [r6, #0]	@ zero_extendqisi2
 6092 5ad8 0020D5E5 		ldrb	r2, [r5, #0]	@ zero_extendqisi2
 6093 5adc 033081E0 		add	r3, r1, r3
 6094 5ae0 FF3003E2 		and	r3, r3, #255
 6095 5ae4 0030C6E5 		strb	r3, [r6, #0]
 6096 5ae8 023083E0 		add	r3, r3, r2
 6097 5aec 0030C5E5 		strb	r3, [r5, #0]
 6098 5af0 980A1FE5 		ldr	r0, .L271+272
 6099 5af4 FEFFFFEB 		bl	uart_transmit
 6100 5af8 D83A1FE5 		ldr	r3, .L271+216
 6101 5afc 0010D3E5 		ldrb	r1, [r3, #0]	@ zero_extendqisi2
 6102 5b00 0030D6E5 		ldrb	r3, [r6, #0]	@ zero_extendqisi2
 6103 5b04 0020D5E5 		ldrb	r2, [r5, #0]	@ zero_extendqisi2
 6104 5b08 033081E0 		add	r3, r1, r3
 6105 5b0c FF3003E2 		and	r3, r3, #255
 6106 5b10 0030C6E5 		strb	r3, [r6, #0]
 6107 5b14 023083E0 		add	r3, r3, r2
 6108 5b18 0030C5E5 		strb	r3, [r5, #0]
 6109 5b1c C40A1FE5 		ldr	r0, .L271+272
 6110 5b20 FEFFFFEB 		bl	uart_transmit
 6111 5b24 0010D4E5 		ldrb	r1, [r4, #0]	@ zero_extendqisi2
 6112 5b28 0030D6E5 		ldrb	r3, [r6, #0]	@ zero_extendqisi2
 6113 5b2c 0020D5E5 		ldrb	r2, [r5, #0]	@ zero_extendqisi2
 6114 5b30 033081E0 		add	r3, r1, r3
 6115 5b34 FF3003E2 		and	r3, r3, #255
 6116 5b38 0030C6E5 		strb	r3, [r6, #0]
 6117 5b3c 023083E0 		add	r3, r3, r2
 6118 5b40 0030C5E5 		strb	r3, [r5, #0]
 6119 5b44 EC0A1FE5 		ldr	r0, .L271+272
 6120 5b48 FEFFFFEB 		bl	uart_transmit
 6121 5b4c 0110D4E5 		ldrb	r1, [r4, #1]	@ zero_extendqisi2
 6122 5b50 0030D6E5 		ldrb	r3, [r6, #0]	@ zero_extendqisi2
 6123 5b54 0020D5E5 		ldrb	r2, [r5, #0]	@ zero_extendqisi2
 6124 5b58 033081E0 		add	r3, r1, r3
 6125 5b5c FF3003E2 		and	r3, r3, #255
 6126 5b60 0030C6E5 		strb	r3, [r6, #0]
 6127 5b64 023083E0 		add	r3, r3, r2
 6128 5b68 0030C5E5 		strb	r3, [r5, #0]
 6129 5b6c 140B1FE5 		ldr	r0, .L271+272
 6130 5b70 FEFFFFEB 		bl	uart_transmit
 6131 5b74 0210D4E5 		ldrb	r1, [r4, #2]	@ zero_extendqisi2
 6132 5b78 0030D6E5 		ldrb	r3, [r6, #0]	@ zero_extendqisi2
 6133 5b7c 0020D5E5 		ldrb	r2, [r5, #0]	@ zero_extendqisi2
 6134 5b80 033081E0 		add	r3, r1, r3
 6135 5b84 FF3003E2 		and	r3, r3, #255
 6136 5b88 0030C6E5 		strb	r3, [r6, #0]
 6137 5b8c 023083E0 		add	r3, r3, r2
 6138 5b90 0030C5E5 		strb	r3, [r5, #0]
 6139 5b94 3C0B1FE5 		ldr	r0, .L271+272
 6140 5b98 FEFFFFEB 		bl	uart_transmit
 6141 5b9c 0310D4E5 		ldrb	r1, [r4, #3]	@ zero_extendqisi2
 6142 5ba0 0030D6E5 		ldrb	r3, [r6, #0]	@ zero_extendqisi2
 6143 5ba4 0020D5E5 		ldrb	r2, [r5, #0]	@ zero_extendqisi2
 6144 5ba8 033081E0 		add	r3, r1, r3
 6145 5bac FF3003E2 		and	r3, r3, #255
 6146 5bb0 0030C6E5 		strb	r3, [r6, #0]
 6147 5bb4 023083E0 		add	r3, r3, r2
 6148 5bb8 0030C5E5 		strb	r3, [r5, #0]
 6149 5bbc 640B1FE5 		ldr	r0, .L271+272
 6150 5bc0 FEFFFFEB 		bl	uart_transmit
 6151 5bc4 0410D4E5 		ldrb	r1, [r4, #4]	@ zero_extendqisi2
 6152 5bc8 0030D6E5 		ldrb	r3, [r6, #0]	@ zero_extendqisi2
 6153 5bcc 0020D5E5 		ldrb	r2, [r5, #0]	@ zero_extendqisi2
 6154 5bd0 033081E0 		add	r3, r1, r3
 6155 5bd4 FF3003E2 		and	r3, r3, #255
 6156 5bd8 0030C6E5 		strb	r3, [r6, #0]
 6157 5bdc 023083E0 		add	r3, r3, r2
 6158 5be0 0030C5E5 		strb	r3, [r5, #0]
 6159 5be4 8C0B1FE5 		ldr	r0, .L271+272
 6160 5be8 FEFFFFEB 		bl	uart_transmit
 6161 5bec 0510D4E5 		ldrb	r1, [r4, #5]	@ zero_extendqisi2
 6162 5bf0 0030D6E5 		ldrb	r3, [r6, #0]	@ zero_extendqisi2
 6163 5bf4 0020D5E5 		ldrb	r2, [r5, #0]	@ zero_extendqisi2
 6164 5bf8 033081E0 		add	r3, r1, r3
 6165 5bfc FF3003E2 		and	r3, r3, #255
 6166 5c00 0030C6E5 		strb	r3, [r6, #0]
 6167 5c04 023083E0 		add	r3, r3, r2
 6168 5c08 0030C5E5 		strb	r3, [r5, #0]
 6169 5c0c B40B1FE5 		ldr	r0, .L271+272
 6170 5c10 FEFFFFEB 		bl	uart_transmit
 6171 5c14 0610D4E5 		ldrb	r1, [r4, #6]	@ zero_extendqisi2
 6172 5c18 0030D6E5 		ldrb	r3, [r6, #0]	@ zero_extendqisi2
 6173 5c1c 0020D5E5 		ldrb	r2, [r5, #0]	@ zero_extendqisi2
 6174 5c20 033081E0 		add	r3, r1, r3
 6175 5c24 FF3003E2 		and	r3, r3, #255
 6176 5c28 0030C6E5 		strb	r3, [r6, #0]
 6177 5c2c 023083E0 		add	r3, r3, r2
 6178 5c30 0030C5E5 		strb	r3, [r5, #0]
 6179 5c34 DC0B1FE5 		ldr	r0, .L271+272
 6180 5c38 FEFFFFEB 		bl	uart_transmit
 6181 5c3c 0710D4E5 		ldrb	r1, [r4, #7]	@ zero_extendqisi2
 6182 5c40 0030D6E5 		ldrb	r3, [r6, #0]	@ zero_extendqisi2
 6183 5c44 0020D5E5 		ldrb	r2, [r5, #0]	@ zero_extendqisi2
 6184 5c48 033081E0 		add	r3, r1, r3
 6185 5c4c FF3003E2 		and	r3, r3, #255
 6186 5c50 2C4C1FE5 		ldr	r4, .L271+220
 6187 5c54 0030C6E5 		strb	r3, [r6, #0]
 6188 5c58 023083E0 		add	r3, r3, r2
 6189 5c5c 0030C5E5 		strb	r3, [r5, #0]
 6190 5c60 080C1FE5 		ldr	r0, .L271+272
 6191 5c64 FEFFFFEB 		bl	uart_transmit
 6192 5c68 0010D4E5 		ldrb	r1, [r4, #0]	@ zero_extendqisi2
 6193 5c6c 0030D6E5 		ldrb	r3, [r6, #0]	@ zero_extendqisi2
 6194 5c70 0020D5E5 		ldrb	r2, [r5, #0]	@ zero_extendqisi2
 6195 5c74 033081E0 		add	r3, r1, r3
 6196 5c78 FF3003E2 		and	r3, r3, #255
 6197 5c7c 0030C6E5 		strb	r3, [r6, #0]
 6198 5c80 023083E0 		add	r3, r3, r2
 6199 5c84 0030C5E5 		strb	r3, [r5, #0]
 6200 5c88 300C1FE5 		ldr	r0, .L271+272
 6201 5c8c FEFFFFEB 		bl	uart_transmit
 6202 5c90 0110D4E5 		ldrb	r1, [r4, #1]	@ zero_extendqisi2
 6203 5c94 0030D6E5 		ldrb	r3, [r6, #0]	@ zero_extendqisi2
 6204 5c98 0020D5E5 		ldrb	r2, [r5, #0]	@ zero_extendqisi2
 6205 5c9c 033081E0 		add	r3, r1, r3
 6206 5ca0 FF3003E2 		and	r3, r3, #255
 6207 5ca4 0030C6E5 		strb	r3, [r6, #0]
 6208 5ca8 023083E0 		add	r3, r3, r2
 6209 5cac 0030C5E5 		strb	r3, [r5, #0]
 6210 5cb0 580C1FE5 		ldr	r0, .L271+272
 6211 5cb4 FEFFFFEB 		bl	uart_transmit
 6212 5cb8 0210D4E5 		ldrb	r1, [r4, #2]	@ zero_extendqisi2
 6213 5cbc 0030D6E5 		ldrb	r3, [r6, #0]	@ zero_extendqisi2
 6214 5cc0 0020D5E5 		ldrb	r2, [r5, #0]	@ zero_extendqisi2
 6215 5cc4 033081E0 		add	r3, r1, r3
 6216 5cc8 FF3003E2 		and	r3, r3, #255
 6217 5ccc 0030C6E5 		strb	r3, [r6, #0]
 6218 5cd0 023083E0 		add	r3, r3, r2
 6219 5cd4 0030C5E5 		strb	r3, [r5, #0]
 6220 5cd8 800C1FE5 		ldr	r0, .L271+272
 6221 5cdc FEFFFFEB 		bl	uart_transmit
 6222 5ce0 0310D4E5 		ldrb	r1, [r4, #3]	@ zero_extendqisi2
 6223 5ce4 0030D6E5 		ldrb	r3, [r6, #0]	@ zero_extendqisi2
 6224 5ce8 0020D5E5 		ldrb	r2, [r5, #0]	@ zero_extendqisi2
 6225 5cec 033081E0 		add	r3, r1, r3
 6226 5cf0 FF3003E2 		and	r3, r3, #255
 6227 5cf4 CC4C1FE5 		ldr	r4, .L271+224
 6228 5cf8 0030C6E5 		strb	r3, [r6, #0]
 6229 5cfc 023083E0 		add	r3, r3, r2
 6230 5d00 0030C5E5 		strb	r3, [r5, #0]
 6231 5d04 AC0C1FE5 		ldr	r0, .L271+272
 6232 5d08 FEFFFFEB 		bl	uart_transmit
 6233 5d0c 0010D4E5 		ldrb	r1, [r4, #0]	@ zero_extendqisi2
 6234 5d10 0030D6E5 		ldrb	r3, [r6, #0]	@ zero_extendqisi2
 6235 5d14 0020D5E5 		ldrb	r2, [r5, #0]	@ zero_extendqisi2
 6236 5d18 033081E0 		add	r3, r1, r3
 6237 5d1c FF3003E2 		and	r3, r3, #255
 6238 5d20 0030C6E5 		strb	r3, [r6, #0]
 6239 5d24 023083E0 		add	r3, r3, r2
 6240 5d28 0030C5E5 		strb	r3, [r5, #0]
 6241 5d2c D40C1FE5 		ldr	r0, .L271+272
 6242 5d30 FEFFFFEB 		bl	uart_transmit
 6243 5d34 0110D4E5 		ldrb	r1, [r4, #1]	@ zero_extendqisi2
 6244 5d38 0030D6E5 		ldrb	r3, [r6, #0]	@ zero_extendqisi2
 6245 5d3c 0020D5E5 		ldrb	r2, [r5, #0]	@ zero_extendqisi2
 6246 5d40 033081E0 		add	r3, r1, r3
 6247 5d44 FF3003E2 		and	r3, r3, #255
 6248 5d48 0030C6E5 		strb	r3, [r6, #0]
 6249 5d4c 023083E0 		add	r3, r3, r2
 6250 5d50 0030C5E5 		strb	r3, [r5, #0]
 6251 5d54 FC0C1FE5 		ldr	r0, .L271+272
 6252 5d58 FEFFFFEB 		bl	uart_transmit
 6253 5d5c 0210D4E5 		ldrb	r1, [r4, #2]	@ zero_extendqisi2
 6254 5d60 0030D6E5 		ldrb	r3, [r6, #0]	@ zero_extendqisi2
 6255 5d64 0020D5E5 		ldrb	r2, [r5, #0]	@ zero_extendqisi2
 6256 5d68 033081E0 		add	r3, r1, r3
 6257 5d6c FF3003E2 		and	r3, r3, #255
 6258 5d70 0030C6E5 		strb	r3, [r6, #0]
 6259 5d74 023083E0 		add	r3, r3, r2
 6260 5d78 0030C5E5 		strb	r3, [r5, #0]
 6261 5d7c 240D1FE5 		ldr	r0, .L271+272
 6262 5d80 FEFFFFEB 		bl	uart_transmit
 6263 5d84 0310D4E5 		ldrb	r1, [r4, #3]	@ zero_extendqisi2
 6264 5d88 0030D6E5 		ldrb	r3, [r6, #0]	@ zero_extendqisi2
 6265 5d8c 0020D5E5 		ldrb	r2, [r5, #0]	@ zero_extendqisi2
 6266 5d90 033081E0 		add	r3, r1, r3
 6267 5d94 FF3003E2 		and	r3, r3, #255
 6268 5d98 0030C6E5 		strb	r3, [r6, #0]
 6269 5d9c 023083E0 		add	r3, r3, r2
 6270 5da0 0030C5E5 		strb	r3, [r5, #0]
 6271 5da4 4C0D1FE5 		ldr	r0, .L271+272
 6272 5da8 FEFFFFEB 		bl	uart_transmit
 6273 5dac 0030D6E5 		ldrb	r3, [r6, #0]	@ zero_extendqisi2
 6274 5db0 0020D5E5 		ldrb	r2, [r5, #0]	@ zero_extendqisi2
 6275 5db4 033087E0 		add	r3, r7, r3
 6276 5db8 FF3003E2 		and	r3, r3, #255
 6277 5dbc 0030C6E5 		strb	r3, [r6, #0]
 6278 5dc0 023083E0 		add	r3, r3, r2
 6279 5dc4 0030C5E5 		strb	r3, [r5, #0]
 6280 5dc8 0710A0E1 		mov	r1, r7
 6281 5dcc 740D1FE5 		ldr	r0, .L271+272
 6282 5dd0 FEFFFFEB 		bl	uart_transmit
 6283 5dd4 A83D1FE5 		ldr	r3, .L271+228
 6284 5dd8 0010D3E5 		ldrb	r1, [r3, #0]	@ zero_extendqisi2
 6285 5ddc 0030D6E5 		ldrb	r3, [r6, #0]	@ zero_extendqisi2
 6286 5de0 0020D5E5 		ldrb	r2, [r5, #0]	@ zero_extendqisi2
 6287 5de4 033081E0 		add	r3, r1, r3
 6288 5de8 FF3003E2 		and	r3, r3, #255
 6289 5dec 0030C6E5 		strb	r3, [r6, #0]
 6290 5df0 023083E0 		add	r3, r3, r2
 6291 5df4 0030C5E5 		strb	r3, [r5, #0]
 6292 5df8 A00D1FE5 		ldr	r0, .L271+272
 6293 5dfc FEFFFFEB 		bl	uart_transmit
 6294 5e00 0010D6E5 		ldrb	r1, [r6, #0]	@ zero_extendqisi2
 6295 5e04 AC0D1FE5 		ldr	r0, .L271+272
 6296 5e08 FEFFFFEB 		bl	uart_transmit
 6297 5e0c B40D1FE5 		ldr	r0, .L271+272
 6298 5e10 0010D5E5 		ldrb	r1, [r5, #0]	@ zero_extendqisi2
 6299 5e14 FEFFFFEB 		bl	uart_transmit
 6300 5e18 030000EA 		b	.L150
 6301              	.L151:
 6302 5e1c EC3D1FE5 		ldr	r3, .L271+232
 6303 5e20 0020D3E5 		ldrb	r2, [r3, #0]	@ zero_extendqisi2
 6304 5e24 012082E2 		add	r2, r2, #1
 6305 5e28 0020C3E5 		strb	r2, [r3, #0]
 6306              	.L150:
 6307 5e2c F83D1FE5 		ldr	r3, .L271+236
 6308 5e30 0030D3E5 		ldrb	r3, [r3, #0]	@ zero_extendqisi2
 6309 5e34 2A0053E3 		cmp	r3, #42
 6310 5e38 AF00001A 		bne	.L152
 6311 5e3c 043E1FE5 		ldr	r3, .L271+240
 6312 5e40 0030D3E5 		ldrb	r3, [r3, #0]	@ zero_extendqisi2
 6313 5e44 000053E3 		cmp	r3, #0
 6314 5e48 AB00000A 		beq	.L152
 6315 5e4c F40D1FE5 		ldr	r0, .L271+272
 6316 5e50 1210A0E3 		mov	r1, #18
 6317 5e54 FEFFFFEB 		bl	uart_check_free_space
 6318 5e58 000050E3 		cmp	r0, #0
 6319 5e5c A200000A 		beq	.L153
 6320 5e60 243E1FE5 		ldr	r3, .L271+244
 6321 5e64 B020D3E1 		ldrh	r2, [r3, #0]
 6322 5e68 122082E2 		add	r2, r2, #18
 6323 5e6c B020C3E1 		strh	r2, [r3, #0]	@ movhi
 6324 5e70 303E1FE5 		ldr	r3, .L271+248
 6325 5e74 B020D3E1 		ldrh	r2, [r3, #0]
 6326 5e78 012082E2 		add	r2, r2, #1
 6327 5e7c B020C3E1 		strh	r2, [r3, #0]	@ movhi
 6328 5e80 280E1FE5 		ldr	r0, .L271+272
 6329 5e84 9910A0E3 		mov	r1, #153
 6330 5e88 445E1FE5 		ldr	r5, .L271+252
 6331 5e8c FEFFFFEB 		bl	uart_transmit
 6332 5e90 380E1FE5 		ldr	r0, .L271+272
 6333 5e94 1210A0E3 		mov	r1, #18
 6334 5e98 504E1FE5 		ldr	r4, .L271+256
 6335 5e9c FEFFFFEB 		bl	uart_transmit
 6336 5ea0 1330A0E3 		mov	r3, #19
 6337 5ea4 0030C5E5 		strb	r3, [r5, #0]
 6338 5ea8 2530A0E3 		mov	r3, #37
 6339 5eac 0030C4E5 		strb	r3, [r4, #0]
 6340 5eb0 580E1FE5 		ldr	r0, .L271+272
 6341 5eb4 0110A0E3 		mov	r1, #1
 6342 5eb8 FEFFFFEB 		bl	uart_transmit
 6343 5ebc 0030D5E5 		ldrb	r3, [r5, #0]	@ zero_extendqisi2
 6344 5ec0 0020D4E5 		ldrb	r2, [r4, #0]	@ zero_extendqisi2
 6345 5ec4 153083E2 		add	r3, r3, #21
 6346 5ec8 FF3003E2 		and	r3, r3, #255
 6347 5ecc 806E1FE5 		ldr	r6, .L271+260
 6348 5ed0 0030C5E5 		strb	r3, [r5, #0]
 6349 5ed4 023083E0 		add	r3, r3, r2
 6350 5ed8 0030C4E5 		strb	r3, [r4, #0]
 6351 5edc 840E1FE5 		ldr	r0, .L271+272
 6352 5ee0 1510A0E3 		mov	r1, #21
 6353 5ee4 FEFFFFEB 		bl	uart_transmit
 6354 5ee8 0010D6E5 		ldrb	r1, [r6, #0]	@ zero_extendqisi2
 6355 5eec 0030D5E5 		ldrb	r3, [r5, #0]	@ zero_extendqisi2
 6356 5ef0 0020D4E5 		ldrb	r2, [r4, #0]	@ zero_extendqisi2
 6357 5ef4 033081E0 		add	r3, r1, r3
 6358 5ef8 FF3003E2 		and	r3, r3, #255
 6359 5efc 0030C5E5 		strb	r3, [r5, #0]
 6360 5f00 023083E0 		add	r3, r3, r2
 6361 5f04 0030C4E5 		strb	r3, [r4, #0]
 6362 5f08 B00E1FE5 		ldr	r0, .L271+272
 6363 5f0c FEFFFFEB 		bl	uart_transmit
 6364 5f10 0110D6E5 		ldrb	r1, [r6, #1]	@ zero_extendqisi2
 6365 5f14 0030D5E5 		ldrb	r3, [r5, #0]	@ zero_extendqisi2
 6366 5f18 0020D4E5 		ldrb	r2, [r4, #0]	@ zero_extendqisi2
 6367 5f1c 033081E0 		add	r3, r1, r3
 6368 5f20 FF3003E2 		and	r3, r3, #255
 6369 5f24 0030C5E5 		strb	r3, [r5, #0]
 6370 5f28 023083E0 		add	r3, r3, r2
 6371 5f2c 0030C4E5 		strb	r3, [r4, #0]
 6372 5f30 D80E1FE5 		ldr	r0, .L271+272
 6373 5f34 FEFFFFEB 		bl	uart_transmit
 6374 5f38 0210D6E5 		ldrb	r1, [r6, #2]	@ zero_extendqisi2
 6375 5f3c 0030D5E5 		ldrb	r3, [r5, #0]	@ zero_extendqisi2
 6376 5f40 0020D4E5 		ldrb	r2, [r4, #0]	@ zero_extendqisi2
 6377 5f44 033081E0 		add	r3, r1, r3
 6378 5f48 FF3003E2 		and	r3, r3, #255
 6379 5f4c 0030C5E5 		strb	r3, [r5, #0]
 6380 5f50 023083E0 		add	r3, r3, r2
 6381 5f54 0030C4E5 		strb	r3, [r4, #0]
 6382 5f58 000F1FE5 		ldr	r0, .L271+272
 6383 5f5c FEFFFFEB 		bl	uart_transmit
 6384 5f60 0310D6E5 		ldrb	r1, [r6, #3]	@ zero_extendqisi2
 6385 5f64 0030D5E5 		ldrb	r3, [r5, #0]	@ zero_extendqisi2
 6386 5f68 0020D4E5 		ldrb	r2, [r4, #0]	@ zero_extendqisi2
 6387 5f6c 033081E0 		add	r3, r1, r3
 6388 5f70 FF3003E2 		and	r3, r3, #255
 6389 5f74 246F1FE5 		ldr	r6, .L271+264
 6390 5f78 0030C5E5 		strb	r3, [r5, #0]
 6391 5f7c 023083E0 		add	r3, r3, r2
 6392 5f80 0030C4E5 		strb	r3, [r4, #0]
 6393 5f84 2C0F1FE5 		ldr	r0, .L271+272
 6394 5f88 FEFFFFEB 		bl	uart_transmit
 6395 5f8c 0010D6E5 		ldrb	r1, [r6, #0]	@ zero_extendqisi2
 6396 5f90 0030D5E5 		ldrb	r3, [r5, #0]	@ zero_extendqisi2
 6397 5f94 0020D4E5 		ldrb	r2, [r4, #0]	@ zero_extendqisi2
 6398 5f98 033081E0 		add	r3, r1, r3
 6399 5f9c FF3003E2 		and	r3, r3, #255
 6400 5fa0 0030C5E5 		strb	r3, [r5, #0]
 6401 5fa4 023083E0 		add	r3, r3, r2
 6402 5fa8 0030C4E5 		strb	r3, [r4, #0]
 6403 5fac 540F1FE5 		ldr	r0, .L271+272
 6404 5fb0 FEFFFFEB 		bl	uart_transmit
 6405 5fb4 0110D6E5 		ldrb	r1, [r6, #1]	@ zero_extendqisi2
 6406 5fb8 0030D5E5 		ldrb	r3, [r5, #0]	@ zero_extendqisi2
 6407 5fbc 0020D4E5 		ldrb	r2, [r4, #0]	@ zero_extendqisi2
 6408 5fc0 033081E0 		add	r3, r1, r3
 6409 5fc4 FF3003E2 		and	r3, r3, #255
 6410 5fc8 0030C5E5 		strb	r3, [r5, #0]
 6411 5fcc 023083E0 		add	r3, r3, r2
 6412 5fd0 0030C4E5 		strb	r3, [r4, #0]
 6413 5fd4 7C0F1FE5 		ldr	r0, .L271+272
 6414 5fd8 FEFFFFEB 		bl	uart_transmit
 6415 5fdc 0210D6E5 		ldrb	r1, [r6, #2]	@ zero_extendqisi2
 6416 5fe0 0030D5E5 		ldrb	r3, [r5, #0]	@ zero_extendqisi2
 6417 5fe4 0020D4E5 		ldrb	r2, [r4, #0]	@ zero_extendqisi2
 6418 5fe8 033081E0 		add	r3, r1, r3
 6419 5fec FF3003E2 		and	r3, r3, #255
 6420 5ff0 0030C5E5 		strb	r3, [r5, #0]
 6421 5ff4 023083E0 		add	r3, r3, r2
 6422 5ff8 0030C4E5 		strb	r3, [r4, #0]
 6423 5ffc A40F1FE5 		ldr	r0, .L271+272
 6424 6000 FEFFFFEB 		bl	uart_transmit
 6425 6004 0310D6E5 		ldrb	r1, [r6, #3]	@ zero_extendqisi2
 6426 6008 0030D5E5 		ldrb	r3, [r5, #0]	@ zero_extendqisi2
 6427 600c 0020D4E5 		ldrb	r2, [r4, #0]	@ zero_extendqisi2
 6428 6010 033081E0 		add	r3, r1, r3
 6429 6014 FF3003E2 		and	r3, r3, #255
 6430 6018 C46F1FE5 		ldr	r6, .L271+268
 6431 601c 0030C5E5 		strb	r3, [r5, #0]
 6432 6020 023083E0 		add	r3, r3, r2
 6433 6024 0030C4E5 		strb	r3, [r4, #0]
 6434 6028 D00F1FE5 		ldr	r0, .L271+272
 6435 602c FEFFFFEB 		bl	uart_transmit
 6436 6030 0010D6E5 		ldrb	r1, [r6, #0]	@ zero_extendqisi2
 6437 6034 0030D5E5 		ldrb	r3, [r5, #0]	@ zero_extendqisi2
 6438 6038 0020D4E5 		ldrb	r2, [r4, #0]	@ zero_extendqisi2
 6439 603c 033081E0 		add	r3, r1, r3
 6440 6040 FF3003E2 		and	r3, r3, #255
 6441 6044 0030C5E5 		strb	r3, [r5, #0]
 6442 6048 023083E0 		add	r3, r3, r2
 6443 604c 0030C4E5 		strb	r3, [r4, #0]
 6444 6050 F80F1FE5 		ldr	r0, .L271+272
 6445 6054 FEFFFFEB 		bl	uart_transmit
 6446 6058 0110D6E5 		ldrb	r1, [r6, #1]	@ zero_extendqisi2
 6447 605c 0030D5E5 		ldrb	r3, [r5, #0]	@ zero_extendqisi2
 6448 6060 0020D4E5 		ldrb	r2, [r4, #0]	@ zero_extendqisi2
 6449 6064 033081E0 		add	r3, r1, r3
 6450 6068 FF3003E2 		and	r3, r3, #255
 6451 606c 0030C5E5 		strb	r3, [r5, #0]
 6452 6070 023083E0 		add	r3, r3, r2
 6453 6074 0030C4E5 		strb	r3, [r4, #0]
 6454 6078 940F9FE5 		ldr	r0, .L273
 6455 607c FEFFFFEB 		bl	uart_transmit
 6456 6080 0210D6E5 		ldrb	r1, [r6, #2]	@ zero_extendqisi2
 6457 6084 0030D5E5 		ldrb	r3, [r5, #0]	@ zero_extendqisi2
 6458 6088 0020D4E5 		ldrb	r2, [r4, #0]	@ zero_extendqisi2
 6459 608c 033081E0 		add	r3, r1, r3
 6460 6090 FF3003E2 		and	r3, r3, #255
 6461 6094 0030C5E5 		strb	r3, [r5, #0]
 6462 6098 023083E0 		add	r3, r3, r2
 6463 609c 0030C4E5 		strb	r3, [r4, #0]
 6464 60a0 6C0F9FE5 		ldr	r0, .L273
 6465 60a4 FEFFFFEB 		bl	uart_transmit
 6466 60a8 0310D6E5 		ldrb	r1, [r6, #3]	@ zero_extendqisi2
 6467 60ac 0030D5E5 		ldrb	r3, [r5, #0]	@ zero_extendqisi2
 6468 60b0 0020D4E5 		ldrb	r2, [r4, #0]	@ zero_extendqisi2
 6469 60b4 033081E0 		add	r3, r1, r3
 6470 60b8 FF3003E2 		and	r3, r3, #255
 6471 60bc 0030C5E5 		strb	r3, [r5, #0]
 6472 60c0 023083E0 		add	r3, r3, r2
 6473 60c4 0030C4E5 		strb	r3, [r4, #0]
 6474 60c8 440F9FE5 		ldr	r0, .L273
 6475 60cc FEFFFFEB 		bl	uart_transmit
 6476 60d0 0010D5E5 		ldrb	r1, [r5, #0]	@ zero_extendqisi2
 6477 60d4 380F9FE5 		ldr	r0, .L273
 6478 60d8 FEFFFFEB 		bl	uart_transmit
 6479 60dc 300F9FE5 		ldr	r0, .L273
 6480 60e0 0010D4E5 		ldrb	r1, [r4, #0]	@ zero_extendqisi2
 6481 60e4 FEFFFFEB 		bl	uart_transmit
 6482 60e8 030000EA 		b	.L152
 6483              	.L153:
 6484 60ec B03F9FE5 		ldr	r3, .L273+144
 6485 60f0 0020D3E5 		ldrb	r2, [r3, #0]	@ zero_extendqisi2
 6486 60f4 012082E2 		add	r2, r2, #1
 6487 60f8 0020C3E5 		strb	r2, [r3, #0]
 6488              	.L152:
 6489 60fc 143F9FE5 		ldr	r3, .L273+4
 6490 6100 0030D3E5 		ldrb	r3, [r3, #0]	@ zero_extendqisi2
 6491 6104 300053E3 		cmp	r3, #48
 6492 6108 D800001A 		bne	.L154
 6493 610c 083F9FE5 		ldr	r3, .L273+8
 6494 6110 0030D3E5 		ldrb	r3, [r3, #0]	@ zero_extendqisi2
 6495 6114 000053E3 		cmp	r3, #0
 6496 6118 D400000A 		beq	.L154
 6497 611c F00E9FE5 		ldr	r0, .L273
 6498 6120 1610A0E3 		mov	r1, #22
 6499 6124 FEFFFFEB 		bl	uart_check_free_space
 6500 6128 000050E3 		cmp	r0, #0
 6501 612c CB00000A 		beq	.L155
 6502 6130 C43F9FE5 		ldr	r3, .L273+232
 6503 6134 B020D3E1 		ldrh	r2, [r3, #0]
 6504 6138 162082E2 		add	r2, r2, #22
 6505 613c B020C3E1 		strh	r2, [r3, #0]	@ movhi
 6506 6140 B83F9FE5 		ldr	r3, .L273+236
 6507 6144 B020D3E1 		ldrh	r2, [r3, #0]
 6508 6148 012082E2 		add	r2, r2, #1
 6509 614c B020C3E1 		strh	r2, [r3, #0]	@ movhi
 6510 6150 BC0E9FE5 		ldr	r0, .L273
 6511 6154 9910A0E3 		mov	r1, #153
 6512 6158 A45F9FE5 		ldr	r5, .L273+240
 6513 615c FEFFFFEB 		bl	uart_transmit
 6514 6160 AC0E9FE5 		ldr	r0, .L273
 6515 6164 1610A0E3 		mov	r1, #22
 6516 6168 984F9FE5 		ldr	r4, .L273+244
 6517 616c FEFFFFEB 		bl	uart_transmit
 6518 6170 1730A0E3 		mov	r3, #23
 6519 6174 0030C5E5 		strb	r3, [r5, #0]
 6520 6178 2D30A0E3 		mov	r3, #45
 6521 617c 0030C4E5 		strb	r3, [r4, #0]
 6522 6180 8C0E9FE5 		ldr	r0, .L273
 6523 6184 0110A0E3 		mov	r1, #1
 6524 6188 FEFFFFEB 		bl	uart_transmit
 6525 618c 0030D5E5 		ldrb	r3, [r5, #0]	@ zero_extendqisi2
 6526 6190 0020D4E5 		ldrb	r2, [r4, #0]	@ zero_extendqisi2
 6527 6194 163083E2 		add	r3, r3, #22
 6528 6198 FF3003E2 		and	r3, r3, #255
 6529 619c 7C6E9FE5 		ldr	r6, .L273+12
 6530 61a0 0030C5E5 		strb	r3, [r5, #0]
 6531 61a4 023083E0 		add	r3, r3, r2
 6532 61a8 0030C4E5 		strb	r3, [r4, #0]
 6533 61ac 600E9FE5 		ldr	r0, .L273
 6534 61b0 1610A0E3 		mov	r1, #22
 6535 61b4 FEFFFFEB 		bl	uart_transmit
 6536 61b8 0010D6E5 		ldrb	r1, [r6, #0]	@ zero_extendqisi2
 6537 61bc 0030D5E5 		ldrb	r3, [r5, #0]	@ zero_extendqisi2
 6538 61c0 0020D4E5 		ldrb	r2, [r4, #0]	@ zero_extendqisi2
 6539 61c4 033081E0 		add	r3, r1, r3
 6540 61c8 FF3003E2 		and	r3, r3, #255
 6541 61cc 0030C5E5 		strb	r3, [r5, #0]
 6542 61d0 023083E0 		add	r3, r3, r2
 6543 61d4 0030C4E5 		strb	r3, [r4, #0]
 6544 61d8 340E9FE5 		ldr	r0, .L273
 6545 61dc FEFFFFEB 		bl	uart_transmit
 6546 61e0 0110D6E5 		ldrb	r1, [r6, #1]	@ zero_extendqisi2
 6547 61e4 0030D5E5 		ldrb	r3, [r5, #0]	@ zero_extendqisi2
 6548 61e8 0020D4E5 		ldrb	r2, [r4, #0]	@ zero_extendqisi2
 6549 61ec 033081E0 		add	r3, r1, r3
 6550 61f0 FF3003E2 		and	r3, r3, #255
 6551 61f4 0030C5E5 		strb	r3, [r5, #0]
 6552 61f8 023083E0 		add	r3, r3, r2
 6553 61fc 0030C4E5 		strb	r3, [r4, #0]
 6554 6200 0C0E9FE5 		ldr	r0, .L273
 6555 6204 FEFFFFEB 		bl	uart_transmit
 6556 6208 0210D6E5 		ldrb	r1, [r6, #2]	@ zero_extendqisi2
 6557 620c 0030D5E5 		ldrb	r3, [r5, #0]	@ zero_extendqisi2
 6558 6210 0020D4E5 		ldrb	r2, [r4, #0]	@ zero_extendqisi2
 6559 6214 033081E0 		add	r3, r1, r3
 6560 6218 FF3003E2 		and	r3, r3, #255
 6561 621c 0030C5E5 		strb	r3, [r5, #0]
 6562 6220 023083E0 		add	r3, r3, r2
 6563 6224 0030C4E5 		strb	r3, [r4, #0]
 6564 6228 E40D9FE5 		ldr	r0, .L273
 6565 622c FEFFFFEB 		bl	uart_transmit
 6566 6230 0310D6E5 		ldrb	r1, [r6, #3]	@ zero_extendqisi2
 6567 6234 0030D5E5 		ldrb	r3, [r5, #0]	@ zero_extendqisi2
 6568 6238 0020D4E5 		ldrb	r2, [r4, #0]	@ zero_extendqisi2
 6569 623c 033081E0 		add	r3, r1, r3
 6570 6240 FF3003E2 		and	r3, r3, #255
 6571 6244 D86D9FE5 		ldr	r6, .L273+16
 6572 6248 0030C5E5 		strb	r3, [r5, #0]
 6573 624c 023083E0 		add	r3, r3, r2
 6574 6250 0030C4E5 		strb	r3, [r4, #0]
 6575 6254 B80D9FE5 		ldr	r0, .L273
 6576 6258 FEFFFFEB 		bl	uart_transmit
 6577 625c 0010D6E5 		ldrb	r1, [r6, #0]	@ zero_extendqisi2
 6578 6260 0030D5E5 		ldrb	r3, [r5, #0]	@ zero_extendqisi2
 6579 6264 0020D4E5 		ldrb	r2, [r4, #0]	@ zero_extendqisi2
 6580 6268 033081E0 		add	r3, r1, r3
 6581 626c FF3003E2 		and	r3, r3, #255
 6582 6270 0030C5E5 		strb	r3, [r5, #0]
 6583 6274 023083E0 		add	r3, r3, r2
 6584 6278 0030C4E5 		strb	r3, [r4, #0]
 6585 627c 900D9FE5 		ldr	r0, .L273
 6586 6280 FEFFFFEB 		bl	uart_transmit
 6587 6284 0110D6E5 		ldrb	r1, [r6, #1]	@ zero_extendqisi2
 6588 6288 0030D5E5 		ldrb	r3, [r5, #0]	@ zero_extendqisi2
 6589 628c 0020D4E5 		ldrb	r2, [r4, #0]	@ zero_extendqisi2
 6590 6290 033081E0 		add	r3, r1, r3
 6591 6294 FF3003E2 		and	r3, r3, #255
 6592 6298 0030C5E5 		strb	r3, [r5, #0]
 6593 629c 023083E0 		add	r3, r3, r2
 6594 62a0 0030C4E5 		strb	r3, [r4, #0]
 6595 62a4 680D9FE5 		ldr	r0, .L273
 6596 62a8 FEFFFFEB 		bl	uart_transmit
 6597 62ac 0210D6E5 		ldrb	r1, [r6, #2]	@ zero_extendqisi2
 6598 62b0 0030D5E5 		ldrb	r3, [r5, #0]	@ zero_extendqisi2
 6599 62b4 0020D4E5 		ldrb	r2, [r4, #0]	@ zero_extendqisi2
 6600 62b8 033081E0 		add	r3, r1, r3
 6601 62bc FF3003E2 		and	r3, r3, #255
 6602 62c0 0030C5E5 		strb	r3, [r5, #0]
 6603 62c4 023083E0 		add	r3, r3, r2
 6604 62c8 0030C4E5 		strb	r3, [r4, #0]
 6605 62cc 400D9FE5 		ldr	r0, .L273
 6606 62d0 FEFFFFEB 		bl	uart_transmit
 6607 62d4 0310D6E5 		ldrb	r1, [r6, #3]	@ zero_extendqisi2
 6608 62d8 0030D5E5 		ldrb	r3, [r5, #0]	@ zero_extendqisi2
 6609 62dc 0020D4E5 		ldrb	r2, [r4, #0]	@ zero_extendqisi2
 6610 62e0 033081E0 		add	r3, r1, r3
 6611 62e4 FF3003E2 		and	r3, r3, #255
 6612 62e8 386D9FE5 		ldr	r6, .L273+20
 6613 62ec 0030C5E5 		strb	r3, [r5, #0]
 6614 62f0 023083E0 		add	r3, r3, r2
 6615 62f4 0030C4E5 		strb	r3, [r4, #0]
 6616 62f8 140D9FE5 		ldr	r0, .L273
 6617 62fc FEFFFFEB 		bl	uart_transmit
 6618 6300 0010D6E5 		ldrb	r1, [r6, #0]	@ zero_extendqisi2
 6619 6304 0030D5E5 		ldrb	r3, [r5, #0]	@ zero_extendqisi2
 6620 6308 0020D4E5 		ldrb	r2, [r4, #0]	@ zero_extendqisi2
 6621 630c 033081E0 		add	r3, r1, r3
 6622 6310 FF3003E2 		and	r3, r3, #255
 6623 6314 0030C5E5 		strb	r3, [r5, #0]
 6624 6318 023083E0 		add	r3, r3, r2
 6625 631c 0030C4E5 		strb	r3, [r4, #0]
 6626 6320 EC0C9FE5 		ldr	r0, .L273
 6627 6324 FEFFFFEB 		bl	uart_transmit
 6628 6328 0110D6E5 		ldrb	r1, [r6, #1]	@ zero_extendqisi2
 6629 632c 0030D5E5 		ldrb	r3, [r5, #0]	@ zero_extendqisi2
 6630 6330 0020D4E5 		ldrb	r2, [r4, #0]	@ zero_extendqisi2
 6631 6334 033081E0 		add	r3, r1, r3
 6632 6338 FF3003E2 		and	r3, r3, #255
 6633 633c 0030C5E5 		strb	r3, [r5, #0]
 6634 6340 023083E0 		add	r3, r3, r2
 6635 6344 0030C4E5 		strb	r3, [r4, #0]
 6636 6348 C40C9FE5 		ldr	r0, .L273
 6637 634c FEFFFFEB 		bl	uart_transmit
 6638 6350 0210D6E5 		ldrb	r1, [r6, #2]	@ zero_extendqisi2
 6639 6354 0030D5E5 		ldrb	r3, [r5, #0]	@ zero_extendqisi2
 6640 6358 0020D4E5 		ldrb	r2, [r4, #0]	@ zero_extendqisi2
 6641 635c 033081E0 		add	r3, r1, r3
 6642 6360 FF3003E2 		and	r3, r3, #255
 6643 6364 0030C5E5 		strb	r3, [r5, #0]
 6644 6368 023083E0 		add	r3, r3, r2
 6645 636c 0030C4E5 		strb	r3, [r4, #0]
 6646 6370 9C0C9FE5 		ldr	r0, .L273
 6647 6374 FEFFFFEB 		bl	uart_transmit
 6648 6378 0310D6E5 		ldrb	r1, [r6, #3]	@ zero_extendqisi2
 6649 637c 0030D5E5 		ldrb	r3, [r5, #0]	@ zero_extendqisi2
 6650 6380 0020D4E5 		ldrb	r2, [r4, #0]	@ zero_extendqisi2
 6651 6384 033081E0 		add	r3, r1, r3
 6652 6388 FF3003E2 		and	r3, r3, #255
 6653 638c 986C9FE5 		ldr	r6, .L273+24
 6654 6390 0030C5E5 		strb	r3, [r5, #0]
 6655 6394 023083E0 		add	r3, r3, r2
 6656 6398 0030C4E5 		strb	r3, [r4, #0]
 6657 639c 700C9FE5 		ldr	r0, .L273
 6658 63a0 FEFFFFEB 		bl	uart_transmit
 6659 63a4 0010D6E5 		ldrb	r1, [r6, #0]	@ zero_extendqisi2
 6660 63a8 0030D5E5 		ldrb	r3, [r5, #0]	@ zero_extendqisi2
 6661 63ac 0020D4E5 		ldrb	r2, [r4, #0]	@ zero_extendqisi2
 6662 63b0 033081E0 		add	r3, r1, r3
 6663 63b4 FF3003E2 		and	r3, r3, #255
 6664 63b8 0030C5E5 		strb	r3, [r5, #0]
 6665 63bc 023083E0 		add	r3, r3, r2
 6666 63c0 0030C4E5 		strb	r3, [r4, #0]
 6667 63c4 480C9FE5 		ldr	r0, .L273
 6668 63c8 FEFFFFEB 		bl	uart_transmit
 6669 63cc 0110D6E5 		ldrb	r1, [r6, #1]	@ zero_extendqisi2
 6670 63d0 0030D5E5 		ldrb	r3, [r5, #0]	@ zero_extendqisi2
 6671 63d4 0020D4E5 		ldrb	r2, [r4, #0]	@ zero_extendqisi2
 6672 63d8 033081E0 		add	r3, r1, r3
 6673 63dc FF3003E2 		and	r3, r3, #255
 6674 63e0 0030C5E5 		strb	r3, [r5, #0]
 6675 63e4 023083E0 		add	r3, r3, r2
 6676 63e8 0030C4E5 		strb	r3, [r4, #0]
 6677 63ec 200C9FE5 		ldr	r0, .L273
 6678 63f0 FEFFFFEB 		bl	uart_transmit
 6679 63f4 0210D6E5 		ldrb	r1, [r6, #2]	@ zero_extendqisi2
 6680 63f8 0030D5E5 		ldrb	r3, [r5, #0]	@ zero_extendqisi2
 6681 63fc 0020D4E5 		ldrb	r2, [r4, #0]	@ zero_extendqisi2
 6682 6400 033081E0 		add	r3, r1, r3
 6683 6404 FF3003E2 		and	r3, r3, #255
 6684 6408 0030C5E5 		strb	r3, [r5, #0]
 6685 640c 023083E0 		add	r3, r3, r2
 6686 6410 0030C4E5 		strb	r3, [r4, #0]
 6687 6414 F80B9FE5 		ldr	r0, .L273
 6688 6418 FEFFFFEB 		bl	uart_transmit
 6689 641c 0310D6E5 		ldrb	r1, [r6, #3]	@ zero_extendqisi2
 6690 6420 0030D5E5 		ldrb	r3, [r5, #0]	@ zero_extendqisi2
 6691 6424 0020D4E5 		ldrb	r2, [r4, #0]	@ zero_extendqisi2
 6692 6428 033081E0 		add	r3, r1, r3
 6693 642c FF3003E2 		and	r3, r3, #255
 6694 6430 0030C5E5 		strb	r3, [r5, #0]
 6695 6434 023083E0 		add	r3, r3, r2
 6696 6438 0030C4E5 		strb	r3, [r4, #0]
 6697 643c D00B9FE5 		ldr	r0, .L273
 6698 6440 FEFFFFEB 		bl	uart_transmit
 6699 6444 0010D5E5 		ldrb	r1, [r5, #0]	@ zero_extendqisi2
 6700 6448 C40B9FE5 		ldr	r0, .L273
 6701 644c FEFFFFEB 		bl	uart_transmit
 6702 6450 BC0B9FE5 		ldr	r0, .L273
 6703 6454 0010D4E5 		ldrb	r1, [r4, #0]	@ zero_extendqisi2
 6704 6458 FEFFFFEB 		bl	uart_transmit
 6705 645c 030000EA 		b	.L154
 6706              	.L155:
 6707 6460 3C3C9FE5 		ldr	r3, .L273+144
 6708 6464 0020D3E5 		ldrb	r2, [r3, #0]	@ zero_extendqisi2
 6709 6468 012082E2 		add	r2, r2, #1
 6710 646c 0020C3E5 		strb	r2, [r3, #0]
 6711              	.L154:
 6712 6470 B83B9FE5 		ldr	r3, .L273+28
 6713 6474 0030D3E5 		ldrb	r3, [r3, #0]	@ zero_extendqisi2
 6714 6478 360053E3 		cmp	r3, #54
 6715 647c AE00001A 		bne	.L156
 6716 6480 AC0B9FE5 		ldr	r0, .L273+32
 6717 6484 A431D0E5 		ldrb	r3, [r0, #420]	@ zero_extendqisi2
 6718 6488 100013E3 		tst	r3, #16
 6719 648c 690F8002 		addeq	r0, r0, #420
 6720 6490 FEFFFF0B 		bleq	orientationCalcEulers_f
 6721              	.L157:
 6722 6494 780B9FE5 		ldr	r0, .L273
 6723 6498 1210A0E3 		mov	r1, #18
 6724 649c FEFFFFEB 		bl	uart_check_free_space
 6725 64a0 000050E3 		cmp	r0, #0
 6726 64a4 A000000A 		beq	.L158
 6727 64a8 4C3C9FE5 		ldr	r3, .L273+232
 6728 64ac B020D3E1 		ldrh	r2, [r3, #0]
 6729 64b0 122082E2 		add	r2, r2, #18
 6730 64b4 B020C3E1 		strh	r2, [r3, #0]	@ movhi
 6731 64b8 403C9FE5 		ldr	r3, .L273+236
 6732 64bc B020D3E1 		ldrh	r2, [r3, #0]
 6733 64c0 012082E2 		add	r2, r2, #1
 6734 64c4 B020C3E1 		strh	r2, [r3, #0]	@ movhi
 6735 64c8 440B9FE5 		ldr	r0, .L273
 6736 64cc 9910A0E3 		mov	r1, #153
 6737 64d0 2C5C9FE5 		ldr	r5, .L273+240
 6738 64d4 FEFFFFEB 		bl	uart_transmit
 6739 64d8 340B9FE5 		ldr	r0, .L273
 6740 64dc 1210A0E3 		mov	r1, #18
 6741 64e0 204C9FE5 		ldr	r4, .L273+244
 6742 64e4 FEFFFFEB 		bl	uart_transmit
 6743 64e8 1330A0E3 		mov	r3, #19
 6744 64ec 0030C5E5 		strb	r3, [r5, #0]
 6745 64f0 2530A0E3 		mov	r3, #37
 6746 64f4 0030C4E5 		strb	r3, [r4, #0]
 6747 64f8 140B9FE5 		ldr	r0, .L273
 6748 64fc 0110A0E3 		mov	r1, #1
 6749 6500 FEFFFFEB 		bl	uart_transmit
 6750 6504 0030D5E5 		ldrb	r3, [r5, #0]	@ zero_extendqisi2
 6751 6508 0020D4E5 		ldrb	r2, [r4, #0]	@ zero_extendqisi2
 6752 650c 063083E2 		add	r3, r3, #6
 6753 6510 FF3003E2 		and	r3, r3, #255
 6754 6514 186B9FE5 		ldr	r6, .L273+32
 6755 6518 0030C5E5 		strb	r3, [r5, #0]
 6756 651c 023083E0 		add	r3, r3, r2
 6757 6520 0030C4E5 		strb	r3, [r4, #0]
 6758 6524 E80A9FE5 		ldr	r0, .L273
 6759 6528 0610A0E3 		mov	r1, #6
 6760 652c FEFFFFEB 		bl	uart_transmit
 6761 6530 F811D6E5 		ldrb	r1, [r6, #504]	@ zero_extendqisi2
 6762 6534 0030D5E5 		ldrb	r3, [r5, #0]	@ zero_extendqisi2
 6763 6538 0020D4E5 		ldrb	r2, [r4, #0]	@ zero_extendqisi2
 6764 653c 033081E0 		add	r3, r1, r3
 6765 6540 FF3003E2 		and	r3, r3, #255
 6766 6544 0030C5E5 		strb	r3, [r5, #0]
 6767 6548 023083E0 		add	r3, r3, r2
 6768 654c 0030C4E5 		strb	r3, [r4, #0]
 6769 6550 BC0A9FE5 		ldr	r0, .L273
 6770 6554 FEFFFFEB 		bl	uart_transmit
 6771 6558 F911D6E5 		ldrb	r1, [r6, #505]	@ zero_extendqisi2
 6772 655c 0030D5E5 		ldrb	r3, [r5, #0]	@ zero_extendqisi2
 6773 6560 0020D4E5 		ldrb	r2, [r4, #0]	@ zero_extendqisi2
 6774 6564 033081E0 		add	r3, r1, r3
 6775 6568 FF3003E2 		and	r3, r3, #255
 6776 656c 0030C5E5 		strb	r3, [r5, #0]
 6777 6570 023083E0 		add	r3, r3, r2
 6778 6574 0030C4E5 		strb	r3, [r4, #0]
 6779 6578 940A9FE5 		ldr	r0, .L273
 6780 657c FEFFFFEB 		bl	uart_transmit
 6781 6580 FA11D6E5 		ldrb	r1, [r6, #506]	@ zero_extendqisi2
 6782 6584 0030D5E5 		ldrb	r3, [r5, #0]	@ zero_extendqisi2
 6783 6588 0020D4E5 		ldrb	r2, [r4, #0]	@ zero_extendqisi2
 6784 658c 033081E0 		add	r3, r1, r3
 6785 6590 FF3003E2 		and	r3, r3, #255
 6786 6594 0030C5E5 		strb	r3, [r5, #0]
 6787 6598 023083E0 		add	r3, r3, r2
 6788 659c 0030C4E5 		strb	r3, [r4, #0]
 6789 65a0 6C0A9FE5 		ldr	r0, .L273
 6790 65a4 FEFFFFEB 		bl	uart_transmit
 6791 65a8 FB11D6E5 		ldrb	r1, [r6, #507]	@ zero_extendqisi2
 6792 65ac 0030D5E5 		ldrb	r3, [r5, #0]	@ zero_extendqisi2
 6793 65b0 0020D4E5 		ldrb	r2, [r4, #0]	@ zero_extendqisi2
 6794 65b4 033081E0 		add	r3, r1, r3
 6795 65b8 FF3003E2 		and	r3, r3, #255
 6796 65bc 0030C5E5 		strb	r3, [r5, #0]
 6797 65c0 023083E0 		add	r3, r3, r2
 6798 65c4 0030C4E5 		strb	r3, [r4, #0]
 6799 65c8 440A9FE5 		ldr	r0, .L273
 6800 65cc FEFFFFEB 		bl	uart_transmit
 6801 65d0 0012D6E5 		ldrb	r1, [r6, #512]	@ zero_extendqisi2
 6802 65d4 0030D5E5 		ldrb	r3, [r5, #0]	@ zero_extendqisi2
 6803 65d8 0020D4E5 		ldrb	r2, [r4, #0]	@ zero_extendqisi2
 6804 65dc 033081E0 		add	r3, r1, r3
 6805 65e0 FF3003E2 		and	r3, r3, #255
 6806 65e4 0030C5E5 		strb	r3, [r5, #0]
 6807 65e8 023083E0 		add	r3, r3, r2
 6808 65ec 0030C4E5 		strb	r3, [r4, #0]
 6809 65f0 1C0A9FE5 		ldr	r0, .L273
 6810 65f4 FEFFFFEB 		bl	uart_transmit
 6811 65f8 0112D6E5 		ldrb	r1, [r6, #513]	@ zero_extendqisi2
 6812 65fc 0030D5E5 		ldrb	r3, [r5, #0]	@ zero_extendqisi2
 6813 6600 0020D4E5 		ldrb	r2, [r4, #0]	@ zero_extendqisi2
 6814 6604 033081E0 		add	r3, r1, r3
 6815 6608 FF3003E2 		and	r3, r3, #255
 6816 660c 0030C5E5 		strb	r3, [r5, #0]
 6817 6610 023083E0 		add	r3, r3, r2
 6818 6614 0030C4E5 		strb	r3, [r4, #0]
 6819 6618 F4099FE5 		ldr	r0, .L273
 6820 661c FEFFFFEB 		bl	uart_transmit
 6821 6620 0212D6E5 		ldrb	r1, [r6, #514]	@ zero_extendqisi2
 6822 6624 0030D5E5 		ldrb	r3, [r5, #0]	@ zero_extendqisi2
 6823 6628 0020D4E5 		ldrb	r2, [r4, #0]	@ zero_extendqisi2
 6824 662c 033081E0 		add	r3, r1, r3
 6825 6630 FF3003E2 		and	r3, r3, #255
 6826 6634 0030C5E5 		strb	r3, [r5, #0]
 6827 6638 023083E0 		add	r3, r3, r2
 6828 663c 0030C4E5 		strb	r3, [r4, #0]
 6829 6640 CC099FE5 		ldr	r0, .L273
 6830 6644 FEFFFFEB 		bl	uart_transmit
 6831 6648 0312D6E5 		ldrb	r1, [r6, #515]	@ zero_extendqisi2
 6832 664c 0030D5E5 		ldrb	r3, [r5, #0]	@ zero_extendqisi2
 6833 6650 0020D4E5 		ldrb	r2, [r4, #0]	@ zero_extendqisi2
 6834 6654 033081E0 		add	r3, r1, r3
 6835 6658 FF3003E2 		and	r3, r3, #255
 6836 665c 0030C5E5 		strb	r3, [r5, #0]
 6837 6660 023083E0 		add	r3, r3, r2
 6838 6664 0030C4E5 		strb	r3, [r4, #0]
 6839 6668 A4099FE5 		ldr	r0, .L273
 6840 666c FEFFFFEB 		bl	uart_transmit
 6841 6670 FC11D6E5 		ldrb	r1, [r6, #508]	@ zero_extendqisi2
 6842 6674 0030D5E5 		ldrb	r3, [r5, #0]	@ zero_extendqisi2
 6843 6678 0020D4E5 		ldrb	r2, [r4, #0]	@ zero_extendqisi2
 6844 667c 033081E0 		add	r3, r1, r3
 6845 6680 FF3003E2 		and	r3, r3, #255
 6846 6684 0030C5E5 		strb	r3, [r5, #0]
 6847 6688 023083E0 		add	r3, r3, r2
 6848 668c 0030C4E5 		strb	r3, [r4, #0]
 6849 6690 7C099FE5 		ldr	r0, .L273
 6850 6694 FEFFFFEB 		bl	uart_transmit
 6851 6698 FD11D6E5 		ldrb	r1, [r6, #509]	@ zero_extendqisi2
 6852 669c 0030D5E5 		ldrb	r3, [r5, #0]	@ zero_extendqisi2
 6853 66a0 0020D4E5 		ldrb	r2, [r4, #0]	@ zero_extendqisi2
 6854 66a4 033081E0 		add	r3, r1, r3
 6855 66a8 FF3003E2 		and	r3, r3, #255
 6856 66ac 0030C5E5 		strb	r3, [r5, #0]
 6857 66b0 023083E0 		add	r3, r3, r2
 6858 66b4 0030C4E5 		strb	r3, [r4, #0]
 6859 66b8 54099FE5 		ldr	r0, .L273
 6860 66bc FEFFFFEB 		bl	uart_transmit
 6861 66c0 FE11D6E5 		ldrb	r1, [r6, #510]	@ zero_extendqisi2
 6862 66c4 0030D5E5 		ldrb	r3, [r5, #0]	@ zero_extendqisi2
 6863 66c8 0020D4E5 		ldrb	r2, [r4, #0]	@ zero_extendqisi2
 6864 66cc 033081E0 		add	r3, r1, r3
 6865 66d0 FF3003E2 		and	r3, r3, #255
 6866 66d4 0030C5E5 		strb	r3, [r5, #0]
 6867 66d8 023083E0 		add	r3, r3, r2
 6868 66dc 0030C4E5 		strb	r3, [r4, #0]
 6869 66e0 2C099FE5 		ldr	r0, .L273
 6870 66e4 FEFFFFEB 		bl	uart_transmit
 6871 66e8 FF11D6E5 		ldrb	r1, [r6, #511]	@ zero_extendqisi2
 6872 66ec 0030D5E5 		ldrb	r3, [r5, #0]	@ zero_extendqisi2
 6873 66f0 0020D4E5 		ldrb	r2, [r4, #0]	@ zero_extendqisi2
 6874 66f4 033081E0 		add	r3, r1, r3
 6875 66f8 FF3003E2 		and	r3, r3, #255
 6876 66fc 0030C5E5 		strb	r3, [r5, #0]
 6877 6700 023083E0 		add	r3, r3, r2
 6878 6704 0030C4E5 		strb	r3, [r4, #0]
 6879 6708 04099FE5 		ldr	r0, .L273
 6880 670c FEFFFFEB 		bl	uart_transmit
 6881 6710 0010D5E5 		ldrb	r1, [r5, #0]	@ zero_extendqisi2
 6882 6714 F8089FE5 		ldr	r0, .L273
 6883 6718 FEFFFFEB 		bl	uart_transmit
 6884 671c F0089FE5 		ldr	r0, .L273
 6885 6720 0010D4E5 		ldrb	r1, [r4, #0]	@ zero_extendqisi2
 6886 6724 FEFFFFEB 		bl	uart_transmit
 6887 6728 030000EA 		b	.L156
 6888              	.L158:
 6889 672c 70399FE5 		ldr	r3, .L273+144
 6890 6730 0020D3E5 		ldrb	r2, [r3, #0]	@ zero_extendqisi2
 6891 6734 012082E2 		add	r2, r2, #1
 6892 6738 0020C3E5 		strb	r2, [r3, #0]
 6893              	.L156:
 6894 673c F4389FE5 		ldr	r3, .L273+36
 6895 6740 0030D3E5 		ldrb	r3, [r3, #0]	@ zero_extendqisi2
 6896 6744 3C0053E3 		cmp	r3, #60
 6897 6748 7901001A 		bne	.L159
 6898 674c E8389FE5 		ldr	r3, .L273+40
 6899 6750 BC089FE5 		ldr	r0, .L273
 6900 6754 2610A0E3 		mov	r1, #38
 6901 6758 00308DE5 		str	r3, [sp, #0]	@ float
 6902 675c FEFFFFEB 		bl	uart_check_free_space
 6903 6760 000050E3 		cmp	r0, #0
 6904 6764 6E01000A 		beq	.L160
 6905 6768 8C399FE5 		ldr	r3, .L273+232
 6906 676c B020D3E1 		ldrh	r2, [r3, #0]
 6907 6770 262082E2 		add	r2, r2, #38
 6908 6774 B020C3E1 		strh	r2, [r3, #0]	@ movhi
 6909 6778 80399FE5 		ldr	r3, .L273+236
 6910 677c B020D3E1 		ldrh	r2, [r3, #0]
 6911 6780 012082E2 		add	r2, r2, #1
 6912 6784 B020C3E1 		strh	r2, [r3, #0]	@ movhi
 6913 6788 84089FE5 		ldr	r0, .L273
 6914 678c 9910A0E3 		mov	r1, #153
 6915 6790 6C599FE5 		ldr	r5, .L273+240
 6916 6794 FEFFFFEB 		bl	uart_transmit
 6917 6798 74089FE5 		ldr	r0, .L273
 6918 679c 2610A0E3 		mov	r1, #38
 6919 67a0 60499FE5 		ldr	r4, .L273+244
 6920 67a4 FEFFFFEB 		bl	uart_transmit
 6921 67a8 2730A0E3 		mov	r3, #39
 6922 67ac 0030C5E5 		strb	r3, [r5, #0]
 6923 67b0 4D30A0E3 		mov	r3, #77
 6924 67b4 0030C4E5 		strb	r3, [r4, #0]
 6925 67b8 54089FE5 		ldr	r0, .L273
 6926 67bc 0110A0E3 		mov	r1, #1
 6927 67c0 FEFFFFEB 		bl	uart_transmit
 6928 67c4 0030D5E5 		ldrb	r3, [r5, #0]	@ zero_extendqisi2
 6929 67c8 0020D4E5 		ldrb	r2, [r4, #0]	@ zero_extendqisi2
 6930 67cc 103083E2 		add	r3, r3, #16
 6931 67d0 FF3003E2 		and	r3, r3, #255
 6932 67d4 64689FE5 		ldr	r6, .L273+44
 6933 67d8 0030C5E5 		strb	r3, [r5, #0]
 6934 67dc 023083E0 		add	r3, r3, r2
 6935 67e0 0030C4E5 		strb	r3, [r4, #0]
 6936 67e4 28089FE5 		ldr	r0, .L273
 6937 67e8 1010A0E3 		mov	r1, #16
 6938 67ec FEFFFFEB 		bl	uart_transmit
 6939 67f0 0010D6E5 		ldrb	r1, [r6, #0]	@ zero_extendqisi2
 6940 67f4 0030D5E5 		ldrb	r3, [r5, #0]	@ zero_extendqisi2
 6941 67f8 0020D4E5 		ldrb	r2, [r4, #0]	@ zero_extendqisi2
 6942 67fc 033081E0 		add	r3, r1, r3
 6943 6800 FF3003E2 		and	r3, r3, #255
 6944 6804 0030C5E5 		strb	r3, [r5, #0]
 6945 6808 023083E0 		add	r3, r3, r2
 6946 680c 0030C4E5 		strb	r3, [r4, #0]
 6947 6810 FC079FE5 		ldr	r0, .L273
 6948 6814 FEFFFFEB 		bl	uart_transmit
 6949 6818 0110D6E5 		ldrb	r1, [r6, #1]	@ zero_extendqisi2
 6950 681c 0030D5E5 		ldrb	r3, [r5, #0]	@ zero_extendqisi2
 6951 6820 0020D4E5 		ldrb	r2, [r4, #0]	@ zero_extendqisi2
 6952 6824 033081E0 		add	r3, r1, r3
 6953 6828 FF3003E2 		and	r3, r3, #255
 6954 682c 0030C5E5 		strb	r3, [r5, #0]
 6955 6830 023083E0 		add	r3, r3, r2
 6956 6834 0030C4E5 		strb	r3, [r4, #0]
 6957 6838 D4079FE5 		ldr	r0, .L273
 6958 683c FEFFFFEB 		bl	uart_transmit
 6959 6840 0210D6E5 		ldrb	r1, [r6, #2]	@ zero_extendqisi2
 6960 6844 0030D5E5 		ldrb	r3, [r5, #0]	@ zero_extendqisi2
 6961 6848 0020D4E5 		ldrb	r2, [r4, #0]	@ zero_extendqisi2
 6962 684c 033081E0 		add	r3, r1, r3
 6963 6850 FF3003E2 		and	r3, r3, #255
 6964 6854 0030C5E5 		strb	r3, [r5, #0]
 6965 6858 023083E0 		add	r3, r3, r2
 6966 685c 0030C4E5 		strb	r3, [r4, #0]
 6967 6860 AC079FE5 		ldr	r0, .L273
 6968 6864 FEFFFFEB 		bl	uart_transmit
 6969 6868 0310D6E5 		ldrb	r1, [r6, #3]	@ zero_extendqisi2
 6970 686c 0030D5E5 		ldrb	r3, [r5, #0]	@ zero_extendqisi2
 6971 6870 0020D4E5 		ldrb	r2, [r4, #0]	@ zero_extendqisi2
 6972 6874 033081E0 		add	r3, r1, r3
 6973 6878 FF3003E2 		and	r3, r3, #255
 6974 687c C0679FE5 		ldr	r6, .L273+48
 6975 6880 0030C5E5 		strb	r3, [r5, #0]
 6976 6884 023083E0 		add	r3, r3, r2
 6977 6888 0030C4E5 		strb	r3, [r4, #0]
 6978 688c 80079FE5 		ldr	r0, .L273
 6979 6890 FEFFFFEB 		bl	uart_transmit
 6980 6894 0010D6E5 		ldrb	r1, [r6, #0]	@ zero_extendqisi2
 6981 6898 0030D5E5 		ldrb	r3, [r5, #0]	@ zero_extendqisi2
 6982 689c 0020D4E5 		ldrb	r2, [r4, #0]	@ zero_extendqisi2
 6983 68a0 033081E0 		add	r3, r1, r3
 6984 68a4 FF3003E2 		and	r3, r3, #255
 6985 68a8 0030C5E5 		strb	r3, [r5, #0]
 6986 68ac 023083E0 		add	r3, r3, r2
 6987 68b0 0030C4E5 		strb	r3, [r4, #0]
 6988 68b4 58079FE5 		ldr	r0, .L273
 6989 68b8 FEFFFFEB 		bl	uart_transmit
 6990 68bc 0110D6E5 		ldrb	r1, [r6, #1]	@ zero_extendqisi2
 6991 68c0 0030D5E5 		ldrb	r3, [r5, #0]	@ zero_extendqisi2
 6992 68c4 0020D4E5 		ldrb	r2, [r4, #0]	@ zero_extendqisi2
 6993 68c8 033081E0 		add	r3, r1, r3
 6994 68cc FF3003E2 		and	r3, r3, #255
 6995 68d0 0030C5E5 		strb	r3, [r5, #0]
 6996 68d4 023083E0 		add	r3, r3, r2
 6997 68d8 0030C4E5 		strb	r3, [r4, #0]
 6998 68dc 30079FE5 		ldr	r0, .L273
 6999 68e0 FEFFFFEB 		bl	uart_transmit
 7000 68e4 0210D6E5 		ldrb	r1, [r6, #2]	@ zero_extendqisi2
 7001 68e8 0030D5E5 		ldrb	r3, [r5, #0]	@ zero_extendqisi2
 7002 68ec 0020D4E5 		ldrb	r2, [r4, #0]	@ zero_extendqisi2
 7003 68f0 033081E0 		add	r3, r1, r3
 7004 68f4 FF3003E2 		and	r3, r3, #255
 7005 68f8 0030C5E5 		strb	r3, [r5, #0]
 7006 68fc 023083E0 		add	r3, r3, r2
 7007 6900 0030C4E5 		strb	r3, [r4, #0]
 7008 6904 08079FE5 		ldr	r0, .L273
 7009 6908 FEFFFFEB 		bl	uart_transmit
 7010 690c 0310D6E5 		ldrb	r1, [r6, #3]	@ zero_extendqisi2
 7011 6910 0030D5E5 		ldrb	r3, [r5, #0]	@ zero_extendqisi2
 7012 6914 0020D4E5 		ldrb	r2, [r4, #0]	@ zero_extendqisi2
 7013 6918 033081E0 		add	r3, r1, r3
 7014 691c FF3003E2 		and	r3, r3, #255
 7015 6920 20679FE5 		ldr	r6, .L273+52
 7016 6924 0030C5E5 		strb	r3, [r5, #0]
 7017 6928 023083E0 		add	r3, r3, r2
 7018 692c 0030C4E5 		strb	r3, [r4, #0]
 7019 6930 DC069FE5 		ldr	r0, .L273
 7020 6934 FEFFFFEB 		bl	uart_transmit
 7021 6938 0010D6E5 		ldrb	r1, [r6, #0]	@ zero_extendqisi2
 7022 693c 0030D5E5 		ldrb	r3, [r5, #0]	@ zero_extendqisi2
 7023 6940 0020D4E5 		ldrb	r2, [r4, #0]	@ zero_extendqisi2
 7024 6944 033081E0 		add	r3, r1, r3
 7025 6948 FF3003E2 		and	r3, r3, #255
 7026 694c 0030C5E5 		strb	r3, [r5, #0]
 7027 6950 023083E0 		add	r3, r3, r2
 7028 6954 0030C4E5 		strb	r3, [r4, #0]
 7029 6958 B4069FE5 		ldr	r0, .L273
 7030 695c FEFFFFEB 		bl	uart_transmit
 7031 6960 0110D6E5 		ldrb	r1, [r6, #1]	@ zero_extendqisi2
 7032 6964 0030D5E5 		ldrb	r3, [r5, #0]	@ zero_extendqisi2
 7033 6968 0020D4E5 		ldrb	r2, [r4, #0]	@ zero_extendqisi2
 7034 696c 033081E0 		add	r3, r1, r3
 7035 6970 FF3003E2 		and	r3, r3, #255
 7036 6974 0030C5E5 		strb	r3, [r5, #0]
 7037 6978 023083E0 		add	r3, r3, r2
 7038 697c 0030C4E5 		strb	r3, [r4, #0]
 7039 6980 8C069FE5 		ldr	r0, .L273
 7040 6984 FEFFFFEB 		bl	uart_transmit
 7041 6988 0210D6E5 		ldrb	r1, [r6, #2]	@ zero_extendqisi2
 7042 698c 0030D5E5 		ldrb	r3, [r5, #0]	@ zero_extendqisi2
 7043 6990 0020D4E5 		ldrb	r2, [r4, #0]	@ zero_extendqisi2
 7044 6994 033081E0 		add	r3, r1, r3
 7045 6998 FF3003E2 		and	r3, r3, #255
 7046 699c 0030C5E5 		strb	r3, [r5, #0]
 7047 69a0 023083E0 		add	r3, r3, r2
 7048 69a4 0030C4E5 		strb	r3, [r4, #0]
 7049 69a8 64069FE5 		ldr	r0, .L273
 7050 69ac FEFFFFEB 		bl	uart_transmit
 7051 69b0 0310D6E5 		ldrb	r1, [r6, #3]	@ zero_extendqisi2
 7052 69b4 0030D5E5 		ldrb	r3, [r5, #0]	@ zero_extendqisi2
 7053 69b8 0020D4E5 		ldrb	r2, [r4, #0]	@ zero_extendqisi2
 7054 69bc 033081E0 		add	r3, r1, r3
 7055 69c0 FF3003E2 		and	r3, r3, #255
 7056 69c4 80669FE5 		ldr	r6, .L273+56
 7057 69c8 0030C5E5 		strb	r3, [r5, #0]
 7058 69cc 023083E0 		add	r3, r3, r2
 7059 69d0 0030C4E5 		strb	r3, [r4, #0]
 7060 69d4 38069FE5 		ldr	r0, .L273
 7061 69d8 FEFFFFEB 		bl	uart_transmit
 7062 69dc 0010D6E5 		ldrb	r1, [r6, #0]	@ zero_extendqisi2
 7063 69e0 0030D5E5 		ldrb	r3, [r5, #0]	@ zero_extendqisi2
 7064 69e4 0020D4E5 		ldrb	r2, [r4, #0]	@ zero_extendqisi2
 7065 69e8 033081E0 		add	r3, r1, r3
 7066 69ec FF3003E2 		and	r3, r3, #255
 7067 69f0 0030C5E5 		strb	r3, [r5, #0]
 7068 69f4 023083E0 		add	r3, r3, r2
 7069 69f8 0030C4E5 		strb	r3, [r4, #0]
 7070 69fc 10069FE5 		ldr	r0, .L273
 7071 6a00 FEFFFFEB 		bl	uart_transmit
 7072 6a04 0110D6E5 		ldrb	r1, [r6, #1]	@ zero_extendqisi2
 7073 6a08 0030D5E5 		ldrb	r3, [r5, #0]	@ zero_extendqisi2
 7074 6a0c 0020D4E5 		ldrb	r2, [r4, #0]	@ zero_extendqisi2
 7075 6a10 033081E0 		add	r3, r1, r3
 7076 6a14 FF3003E2 		and	r3, r3, #255
 7077 6a18 0030C5E5 		strb	r3, [r5, #0]
 7078 6a1c 023083E0 		add	r3, r3, r2
 7079 6a20 0030C4E5 		strb	r3, [r4, #0]
 7080 6a24 E8059FE5 		ldr	r0, .L273
 7081 6a28 FEFFFFEB 		bl	uart_transmit
 7082 6a2c 0210D6E5 		ldrb	r1, [r6, #2]	@ zero_extendqisi2
 7083 6a30 0030D5E5 		ldrb	r3, [r5, #0]	@ zero_extendqisi2
 7084 6a34 0020D4E5 		ldrb	r2, [r4, #0]	@ zero_extendqisi2
 7085 6a38 033081E0 		add	r3, r1, r3
 7086 6a3c FF3003E2 		and	r3, r3, #255
 7087 6a40 0030C5E5 		strb	r3, [r5, #0]
 7088 6a44 023083E0 		add	r3, r3, r2
 7089 6a48 0030C4E5 		strb	r3, [r4, #0]
 7090 6a4c C0059FE5 		ldr	r0, .L273
 7091 6a50 FEFFFFEB 		bl	uart_transmit
 7092 6a54 0310D6E5 		ldrb	r1, [r6, #3]	@ zero_extendqisi2
 7093 6a58 0030D5E5 		ldrb	r3, [r5, #0]	@ zero_extendqisi2
 7094 6a5c 0020D4E5 		ldrb	r2, [r4, #0]	@ zero_extendqisi2
 7095 6a60 033081E0 		add	r3, r1, r3
 7096 6a64 FF3003E2 		and	r3, r3, #255
 7097 6a68 E0659FE5 		ldr	r6, .L273+60
 7098 6a6c 0030C5E5 		strb	r3, [r5, #0]
 7099 6a70 023083E0 		add	r3, r3, r2
 7100 6a74 0030C4E5 		strb	r3, [r4, #0]
 7101 6a78 94059FE5 		ldr	r0, .L273
 7102 6a7c FEFFFFEB 		bl	uart_transmit
 7103 6a80 0010D6E5 		ldrb	r1, [r6, #0]	@ zero_extendqisi2
 7104 6a84 0030D5E5 		ldrb	r3, [r5, #0]	@ zero_extendqisi2
 7105 6a88 0020D4E5 		ldrb	r2, [r4, #0]	@ zero_extendqisi2
 7106 6a8c 033081E0 		add	r3, r1, r3
 7107 6a90 FF3003E2 		and	r3, r3, #255
 7108 6a94 0030C5E5 		strb	r3, [r5, #0]
 7109 6a98 023083E0 		add	r3, r3, r2
 7110 6a9c 0030C4E5 		strb	r3, [r4, #0]
 7111 6aa0 6C059FE5 		ldr	r0, .L273
 7112 6aa4 FEFFFFEB 		bl	uart_transmit
 7113 6aa8 0110D6E5 		ldrb	r1, [r6, #1]	@ zero_extendqisi2
 7114 6aac 0030D5E5 		ldrb	r3, [r5, #0]	@ zero_extendqisi2
 7115 6ab0 0020D4E5 		ldrb	r2, [r4, #0]	@ zero_extendqisi2
 7116 6ab4 033081E0 		add	r3, r1, r3
 7117 6ab8 FF3003E2 		and	r3, r3, #255
 7118 6abc 0030C5E5 		strb	r3, [r5, #0]
 7119 6ac0 023083E0 		add	r3, r3, r2
 7120 6ac4 0030C4E5 		strb	r3, [r4, #0]
 7121 6ac8 44059FE5 		ldr	r0, .L273
 7122 6acc FEFFFFEB 		bl	uart_transmit
 7123 6ad0 0210D6E5 		ldrb	r1, [r6, #2]	@ zero_extendqisi2
 7124 6ad4 0030D5E5 		ldrb	r3, [r5, #0]	@ zero_extendqisi2
 7125 6ad8 0020D4E5 		ldrb	r2, [r4, #0]	@ zero_extendqisi2
 7126 6adc 033081E0 		add	r3, r1, r3
 7127 6ae0 FF3003E2 		and	r3, r3, #255
 7128 6ae4 0030C5E5 		strb	r3, [r5, #0]
 7129 6ae8 023083E0 		add	r3, r3, r2
 7130 6aec 0030C4E5 		strb	r3, [r4, #0]
 7131 6af0 1C059FE5 		ldr	r0, .L273
 7132 6af4 FEFFFFEB 		bl	uart_transmit
 7133 6af8 0310D6E5 		ldrb	r1, [r6, #3]	@ zero_extendqisi2
 7134 6afc 0030D5E5 		ldrb	r3, [r5, #0]	@ zero_extendqisi2
 7135 6b00 0020D4E5 		ldrb	r2, [r4, #0]	@ zero_extendqisi2
 7136 6b04 033081E0 		add	r3, r1, r3
 7137 6b08 FF3003E2 		and	r3, r3, #255
 7138 6b0c 40659FE5 		ldr	r6, .L273+64
 7139 6b10 0030C5E5 		strb	r3, [r5, #0]
 7140 6b14 023083E0 		add	r3, r3, r2
 7141 6b18 0030C4E5 		strb	r3, [r4, #0]
 7142 6b1c F0049FE5 		ldr	r0, .L273
 7143 6b20 FEFFFFEB 		bl	uart_transmit
 7144 6b24 0010D6E5 		ldrb	r1, [r6, #0]	@ zero_extendqisi2
 7145 6b28 0030D5E5 		ldrb	r3, [r5, #0]	@ zero_extendqisi2
 7146 6b2c 0020D4E5 		ldrb	r2, [r4, #0]	@ zero_extendqisi2
 7147 6b30 033081E0 		add	r3, r1, r3
 7148 6b34 FF3003E2 		and	r3, r3, #255
 7149 6b38 0030C5E5 		strb	r3, [r5, #0]
 7150 6b3c 023083E0 		add	r3, r3, r2
 7151 6b40 0030C4E5 		strb	r3, [r4, #0]
 7152 6b44 C8049FE5 		ldr	r0, .L273
 7153 6b48 FEFFFFEB 		bl	uart_transmit
 7154 6b4c 0110D6E5 		ldrb	r1, [r6, #1]	@ zero_extendqisi2
 7155 6b50 0030D5E5 		ldrb	r3, [r5, #0]	@ zero_extendqisi2
 7156 6b54 0020D4E5 		ldrb	r2, [r4, #0]	@ zero_extendqisi2
 7157 6b58 033081E0 		add	r3, r1, r3
 7158 6b5c FF3003E2 		and	r3, r3, #255
 7159 6b60 0030C5E5 		strb	r3, [r5, #0]
 7160 6b64 023083E0 		add	r3, r3, r2
 7161 6b68 0030C4E5 		strb	r3, [r4, #0]
 7162 6b6c A0049FE5 		ldr	r0, .L273
 7163 6b70 FEFFFFEB 		bl	uart_transmit
 7164 6b74 0210D6E5 		ldrb	r1, [r6, #2]	@ zero_extendqisi2
 7165 6b78 0030D5E5 		ldrb	r3, [r5, #0]	@ zero_extendqisi2
 7166 6b7c 0020D4E5 		ldrb	r2, [r4, #0]	@ zero_extendqisi2
 7167 6b80 033081E0 		add	r3, r1, r3
 7168 6b84 FF3003E2 		and	r3, r3, #255
 7169 6b88 0030C5E5 		strb	r3, [r5, #0]
 7170 6b8c 023083E0 		add	r3, r3, r2
 7171 6b90 0030C4E5 		strb	r3, [r4, #0]
 7172 6b94 78049FE5 		ldr	r0, .L273
 7173 6b98 FEFFFFEB 		bl	uart_transmit
 7174 6b9c 0310D6E5 		ldrb	r1, [r6, #3]	@ zero_extendqisi2
 7175 6ba0 0030D5E5 		ldrb	r3, [r5, #0]	@ zero_extendqisi2
 7176 6ba4 0020D4E5 		ldrb	r2, [r4, #0]	@ zero_extendqisi2
 7177 6ba8 033081E0 		add	r3, r1, r3
 7178 6bac FF3003E2 		and	r3, r3, #255
 7179 6bb0 A0649FE5 		ldr	r6, .L273+68
 7180 6bb4 0030C5E5 		strb	r3, [r5, #0]
 7181 6bb8 023083E0 		add	r3, r3, r2
 7182 6bbc 0030C4E5 		strb	r3, [r4, #0]
 7183 6bc0 4C049FE5 		ldr	r0, .L273
 7184 6bc4 FEFFFFEB 		bl	uart_transmit
 7185 6bc8 0010D6E5 		ldrb	r1, [r6, #0]	@ zero_extendqisi2
 7186 6bcc 0030D5E5 		ldrb	r3, [r5, #0]	@ zero_extendqisi2
 7187 6bd0 0020D4E5 		ldrb	r2, [r4, #0]	@ zero_extendqisi2
 7188 6bd4 033081E0 		add	r3, r1, r3
 7189 6bd8 FF3003E2 		and	r3, r3, #255
 7190 6bdc 0030C5E5 		strb	r3, [r5, #0]
 7191 6be0 023083E0 		add	r3, r3, r2
 7192 6be4 0030C4E5 		strb	r3, [r4, #0]
 7193 6be8 24049FE5 		ldr	r0, .L273
 7194 6bec FEFFFFEB 		bl	uart_transmit
 7195 6bf0 0110D6E5 		ldrb	r1, [r6, #1]	@ zero_extendqisi2
 7196 6bf4 0030D5E5 		ldrb	r3, [r5, #0]	@ zero_extendqisi2
 7197 6bf8 0020D4E5 		ldrb	r2, [r4, #0]	@ zero_extendqisi2
 7198 6bfc 033081E0 		add	r3, r1, r3
 7199 6c00 FF3003E2 		and	r3, r3, #255
 7200 6c04 0030C5E5 		strb	r3, [r5, #0]
 7201 6c08 023083E0 		add	r3, r3, r2
 7202 6c0c 0030C4E5 		strb	r3, [r4, #0]
 7203 6c10 FC039FE5 		ldr	r0, .L273
 7204 6c14 FEFFFFEB 		bl	uart_transmit
 7205 6c18 0210D6E5 		ldrb	r1, [r6, #2]	@ zero_extendqisi2
 7206 6c1c 0030D5E5 		ldrb	r3, [r5, #0]	@ zero_extendqisi2
 7207 6c20 0020D4E5 		ldrb	r2, [r4, #0]	@ zero_extendqisi2
 7208 6c24 033081E0 		add	r3, r1, r3
 7209 6c28 FF3003E2 		and	r3, r3, #255
 7210 6c2c 0030C5E5 		strb	r3, [r5, #0]
 7211 6c30 023083E0 		add	r3, r3, r2
 7212 6c34 0030C4E5 		strb	r3, [r4, #0]
 7213 6c38 D4039FE5 		ldr	r0, .L273
 7214 6c3c FEFFFFEB 		bl	uart_transmit
 7215 6c40 0310D6E5 		ldrb	r1, [r6, #3]	@ zero_extendqisi2
 7216 6c44 0030D5E5 		ldrb	r3, [r5, #0]	@ zero_extendqisi2
 7217 6c48 0020D4E5 		ldrb	r2, [r4, #0]	@ zero_extendqisi2
 7218 6c4c 033081E0 		add	r3, r1, r3
 7219 6c50 FF3003E2 		and	r3, r3, #255
 7220 6c54 0030C5E5 		strb	r3, [r5, #0]
 7221 6c58 023083E0 		add	r3, r3, r2
 7222 6c5c 0030C4E5 		strb	r3, [r4, #0]
 7223 6c60 AC039FE5 		ldr	r0, .L273
 7224 6c64 FEFFFFEB 		bl	uart_transmit
 7225 6c68 0010DDE5 		ldrb	r1, [sp, #0]	@ zero_extendqisi2
 7226 6c6c 0030D5E5 		ldrb	r3, [r5, #0]	@ zero_extendqisi2
 7227 6c70 0020D4E5 		ldrb	r2, [r4, #0]	@ zero_extendqisi2
 7228 6c74 033081E0 		add	r3, r1, r3
 7229 6c78 FF3003E2 		and	r3, r3, #255
 7230 6c7c 0030C5E5 		strb	r3, [r5, #0]
 7231 6c80 023083E0 		add	r3, r3, r2
 7232 6c84 0030C4E5 		strb	r3, [r4, #0]
 7233 6c88 84039FE5 		ldr	r0, .L273
 7234 6c8c FEFFFFEB 		bl	uart_transmit
 7235 6c90 0110DDE5 		ldrb	r1, [sp, #1]	@ zero_extendqisi2
 7236 6c94 0030D5E5 		ldrb	r3, [r5, #0]	@ zero_extendqisi2
 7237 6c98 0020D4E5 		ldrb	r2, [r4, #0]	@ zero_extendqisi2
 7238 6c9c 033081E0 		add	r3, r1, r3
 7239 6ca0 FF3003E2 		and	r3, r3, #255
 7240 6ca4 0030C5E5 		strb	r3, [r5, #0]
 7241 6ca8 023083E0 		add	r3, r3, r2
 7242 6cac 0030C4E5 		strb	r3, [r4, #0]
 7243 6cb0 5C039FE5 		ldr	r0, .L273
 7244 6cb4 FEFFFFEB 		bl	uart_transmit
 7245 6cb8 0210DDE5 		ldrb	r1, [sp, #2]	@ zero_extendqisi2
 7246 6cbc 0030D5E5 		ldrb	r3, [r5, #0]	@ zero_extendqisi2
 7247 6cc0 0020D4E5 		ldrb	r2, [r4, #0]	@ zero_extendqisi2
 7248 6cc4 033081E0 		add	r3, r1, r3
 7249 6cc8 FF3003E2 		and	r3, r3, #255
 7250 6ccc 0030C5E5 		strb	r3, [r5, #0]
 7251 6cd0 023083E0 		add	r3, r3, r2
 7252 6cd4 0030C4E5 		strb	r3, [r4, #0]
 7253 6cd8 34039FE5 		ldr	r0, .L273
 7254 6cdc FEFFFFEB 		bl	uart_transmit
 7255 6ce0 0310DDE5 		ldrb	r1, [sp, #3]	@ zero_extendqisi2
 7256 6ce4 0030D5E5 		ldrb	r3, [r5, #0]	@ zero_extendqisi2
 7257 6ce8 0020D4E5 		ldrb	r2, [r4, #0]	@ zero_extendqisi2
 7258 6cec 033081E0 		add	r3, r1, r3
 7259 6cf0 FF3003E2 		and	r3, r3, #255
 7260 6cf4 0030C5E5 		strb	r3, [r5, #0]
 7261 6cf8 023083E0 		add	r3, r3, r2
 7262 6cfc 0030C4E5 		strb	r3, [r4, #0]
 7263 6d00 0C039FE5 		ldr	r0, .L273
 7264 6d04 FEFFFFEB 		bl	uart_transmit
 7265 6d08 0010D5E5 		ldrb	r1, [r5, #0]	@ zero_extendqisi2
 7266 6d0c 00039FE5 		ldr	r0, .L273
 7267 6d10 FEFFFFEB 		bl	uart_transmit
 7268 6d14 F8029FE5 		ldr	r0, .L273
 7269 6d18 0010D4E5 		ldrb	r1, [r4, #0]	@ zero_extendqisi2
 7270 6d1c FEFFFFEB 		bl	uart_transmit
 7271 6d20 030000EA 		b	.L159
 7272              	.L160:
 7273 6d24 78339FE5 		ldr	r3, .L273+144
 7274 6d28 0020D3E5 		ldrb	r2, [r3, #0]	@ zero_extendqisi2
 7275 6d2c 012082E2 		add	r2, r2, #1
 7276 6d30 0020C3E5 		strb	r2, [r3, #0]
 7277              	.L159:
 7278 6d34 20339FE5 		ldr	r3, .L273+72
 7279 6d38 B030D3E1 		ldrh	r3, [r3, #0]
 7280 6d3c 420053E3 		cmp	r3, #66
 7281 6d40 4600001A 		bne	.L161
 7282 6d44 C8029FE5 		ldr	r0, .L273
 7283 6d48 1710A0E3 		mov	r1, #23
 7284 6d4c FEFFFFEB 		bl	uart_check_free_space
 7285 6d50 000050E3 		cmp	r0, #0
 7286 6d54 CC01000A 		beq	.L170
 7287 6d58 9C339FE5 		ldr	r3, .L273+232
 7288 6d5c B020D3E1 		ldrh	r2, [r3, #0]
 7289 6d60 172082E2 		add	r2, r2, #23
 7290 6d64 B020C3E1 		strh	r2, [r3, #0]	@ movhi
 7291 6d68 90339FE5 		ldr	r3, .L273+236
 7292 6d6c B020D3E1 		ldrh	r2, [r3, #0]
 7293 6d70 012082E2 		add	r2, r2, #1
 7294 6d74 B020C3E1 		strh	r2, [r3, #0]	@ movhi
 7295 6d78 94029FE5 		ldr	r0, .L273
 7296 6d7c 9910A0E3 		mov	r1, #153
 7297 6d80 FEFFFFEB 		bl	uart_transmit
 7298 6d84 78539FE5 		ldr	r5, .L273+240
 7299 6d88 84029FE5 		ldr	r0, .L273
 7300 6d8c 1710A0E3 		mov	r1, #23
 7301 6d90 FEFFFFEB 		bl	uart_transmit
 7302 6d94 6C439FE5 		ldr	r4, .L273+244
 7303 6d98 1830A0E3 		mov	r3, #24
 7304 6d9c 0030C5E5 		strb	r3, [r5, #0]
 7305 6da0 2F30A0E3 		mov	r3, #47
 7306 6da4 0030C4E5 		strb	r3, [r4, #0]
 7307 6da8 64029FE5 		ldr	r0, .L273
 7308 6dac 0110A0E3 		mov	r1, #1
 7309 6db0 FEFFFFEB 		bl	uart_transmit
 7310 6db4 0030D5E5 		ldrb	r3, [r5, #0]	@ zero_extendqisi2
 7311 6db8 0020D4E5 		ldrb	r2, [r4, #0]	@ zero_extendqisi2
 7312 6dbc 023083E2 		add	r3, r3, #2
 7313 6dc0 FF3003E2 		and	r3, r3, #255
 7314 6dc4 0030C5E5 		strb	r3, [r5, #0]
 7315 6dc8 023083E0 		add	r3, r3, r2
 7316 6dcc 0030C4E5 		strb	r3, [r4, #0]
 7317 6dd0 3C029FE5 		ldr	r0, .L273
 7318 6dd4 0210A0E3 		mov	r1, #2
 7319 6dd8 FEFFFFEB 		bl	uart_transmit
 7320 6ddc 0030D5E5 		ldrb	r3, [r5, #0]	@ zero_extendqisi2
 7321 6de0 0020D4E5 		ldrb	r2, [r4, #0]	@ zero_extendqisi2
 7322 6de4 103083E2 		add	r3, r3, #16
 7323 6de8 FF3003E2 		and	r3, r3, #255
 7324 6dec 0030C5E5 		strb	r3, [r5, #0]
 7325 6df0 023083E0 		add	r3, r3, r2
 7326 6df4 0030C4E5 		strb	r3, [r4, #0]
 7327 6df8 14029FE5 		ldr	r0, .L273
 7328 6dfc 1010A0E3 		mov	r1, #16
 7329 6e00 FEFFFFEB 		bl	uart_transmit
 7330 6e04 D4729FE5 		ldr	r7, .L273+204
 7331 6e08 0060A0E3 		mov	r6, #0
 7332              	.L163:
 7333 6e0c 0610D7E7 		ldrb	r1, [r7, r6]	@ zero_extendqisi2
 7334 6e10 0030D5E5 		ldrb	r3, [r5, #0]	@ zero_extendqisi2
 7335 6e14 0020D4E5 		ldrb	r2, [r4, #0]	@ zero_extendqisi2
 7336 6e18 033081E0 		add	r3, r1, r3
 7337 6e1c FF3003E2 		and	r3, r3, #255
 7338 6e20 0030C5E5 		strb	r3, [r5, #0]
 7339 6e24 023083E0 		add	r3, r3, r2
 7340 6e28 0030C4E5 		strb	r3, [r4, #0]
 7341 6e2c E0019FE5 		ldr	r0, .L273
 7342 6e30 016086E2 		add	r6, r6, #1
 7343 6e34 FEFFFFEB 		bl	uart_transmit
 7344 6e38 100056E3 		cmp	r6, #16
 7345 6e3c F2FFFF1A 		bne	.L163
 7346 6e40 BC329FE5 		ldr	r3, .L273+240
 7347 6e44 C8019FE5 		ldr	r0, .L273
 7348 6e48 0010D3E5 		ldrb	r1, [r3, #0]	@ zero_extendqisi2
 7349 6e4c FEFFFFEB 		bl	uart_transmit
 7350 6e50 B0329FE5 		ldr	r3, .L273+244
 7351 6e54 B8019FE5 		ldr	r0, .L273
 7352 6e58 0010D3E5 		ldrb	r1, [r3, #0]	@ zero_extendqisi2
 7353 6e5c 6A0000EA 		b	.L255
 7354              	.L161:
 7355 6e60 480053E3 		cmp	r3, #72
 7356 6e64 A900001A 		bne	.L165
 7357 6e68 A4019FE5 		ldr	r0, .L273
 7358 6e6c 0C10A0E3 		mov	r1, #12
 7359 6e70 FEFFFFEB 		bl	uart_check_free_space
 7360 6e74 000050E3 		cmp	r0, #0
 7361 6e78 8301000A 		beq	.L170
 7362 6e7c 78329FE5 		ldr	r3, .L273+232
 7363 6e80 B020D3E1 		ldrh	r2, [r3, #0]
 7364 6e84 0C2082E2 		add	r2, r2, #12
 7365 6e88 B020C3E1 		strh	r2, [r3, #0]	@ movhi
 7366 6e8c 6C329FE5 		ldr	r3, .L273+236
 7367 6e90 B020D3E1 		ldrh	r2, [r3, #0]
 7368 6e94 012082E2 		add	r2, r2, #1
 7369 6e98 B020C3E1 		strh	r2, [r3, #0]	@ movhi
 7370 6e9c 70019FE5 		ldr	r0, .L273
 7371 6ea0 9910A0E3 		mov	r1, #153
 7372 6ea4 58529FE5 		ldr	r5, .L273+240
 7373 6ea8 FEFFFFEB 		bl	uart_transmit
 7374 6eac 60019FE5 		ldr	r0, .L273
 7375 6eb0 0C10A0E3 		mov	r1, #12
 7376 6eb4 4C429FE5 		ldr	r4, .L273+244
 7377 6eb8 FEFFFFEB 		bl	uart_transmit
 7378 6ebc 0D30A0E3 		mov	r3, #13
 7379 6ec0 0030C5E5 		strb	r3, [r5, #0]
 7380 6ec4 1930A0E3 		mov	r3, #25
 7381 6ec8 0030C4E5 		strb	r3, [r4, #0]
 7382 6ecc 40019FE5 		ldr	r0, .L273
 7383 6ed0 0110A0E3 		mov	r1, #1
 7384 6ed4 FEFFFFEB 		bl	uart_transmit
 7385 6ed8 0030D5E5 		ldrb	r3, [r5, #0]	@ zero_extendqisi2
 7386 6edc 0020D4E5 		ldrb	r2, [r4, #0]	@ zero_extendqisi2
 7387 6ee0 0B3083E2 		add	r3, r3, #11
 7388 6ee4 FF3003E2 		and	r3, r3, #255
 7389 6ee8 0030C5E5 		strb	r3, [r5, #0]
 7390 6eec 023083E0 		add	r3, r3, r2
 7391 6ef0 0030C4E5 		strb	r3, [r4, #0]
 7392 6ef4 18019FE5 		ldr	r0, .L273
 7393 6ef8 0B10A0E3 		mov	r1, #11
 7394 6efc FEFFFFEB 		bl	uart_transmit
 7395 6f00 58319FE5 		ldr	r3, .L273+76
 7396 6f04 0010D3E5 		ldrb	r1, [r3, #0]	@ zero_extendqisi2
 7397 6f08 0030D5E5 		ldrb	r3, [r5, #0]	@ zero_extendqisi2
 7398 6f0c 0020D4E5 		ldrb	r2, [r4, #0]	@ zero_extendqisi2
 7399 6f10 033081E0 		add	r3, r1, r3
 7400 6f14 FF3003E2 		and	r3, r3, #255
 7401 6f18 0030C5E5 		strb	r3, [r5, #0]
 7402 6f1c 023083E0 		add	r3, r3, r2
 7403 6f20 0030C4E5 		strb	r3, [r4, #0]
 7404 6f24 E8009FE5 		ldr	r0, .L273
 7405 6f28 FEFFFFEB 		bl	uart_transmit
 7406 6f2c 30319FE5 		ldr	r3, .L273+80
 7407 6f30 0010D3E5 		ldrb	r1, [r3, #0]	@ zero_extendqisi2
 7408 6f34 0030D5E5 		ldrb	r3, [r5, #0]	@ zero_extendqisi2
 7409 6f38 0020D4E5 		ldrb	r2, [r4, #0]	@ zero_extendqisi2
 7410 6f3c 033081E0 		add	r3, r1, r3
 7411 6f40 FF3003E2 		and	r3, r3, #255
 7412 6f44 0030C5E5 		strb	r3, [r5, #0]
 7413 6f48 023083E0 		add	r3, r3, r2
 7414 6f4c 0030C4E5 		strb	r3, [r4, #0]
 7415 6f50 BC009FE5 		ldr	r0, .L273
 7416 6f54 FEFFFFEB 		bl	uart_transmit
 7417 6f58 08319FE5 		ldr	r3, .L273+84
 7418 6f5c 0010D3E5 		ldrb	r1, [r3, #0]	@ zero_extendqisi2
 7419 6f60 0030D5E5 		ldrb	r3, [r5, #0]	@ zero_extendqisi2
 7420 6f64 0020D4E5 		ldrb	r2, [r4, #0]	@ zero_extendqisi2
 7421 6f68 033081E0 		add	r3, r1, r3
 7422 6f6c FF3003E2 		and	r3, r3, #255
 7423 6f70 0030C5E5 		strb	r3, [r5, #0]
 7424 6f74 023083E0 		add	r3, r3, r2
 7425 6f78 0030C4E5 		strb	r3, [r4, #0]
 7426 6f7c 90009FE5 		ldr	r0, .L273
 7427 6f80 FEFFFFEB 		bl	uart_transmit
 7428 6f84 E0309FE5 		ldr	r3, .L273+88
 7429 6f88 0010D3E5 		ldrb	r1, [r3, #0]	@ zero_extendqisi2
 7430 6f8c 0030D5E5 		ldrb	r3, [r5, #0]	@ zero_extendqisi2
 7431 6f90 0020D4E5 		ldrb	r2, [r4, #0]	@ zero_extendqisi2
 7432 6f94 033081E0 		add	r3, r1, r3
 7433 6f98 FF3003E2 		and	r3, r3, #255
 7434 6f9c 0030C5E5 		strb	r3, [r5, #0]
 7435 6fa0 023083E0 		add	r3, r3, r2
 7436 6fa4 0030C4E5 		strb	r3, [r4, #0]
 7437 6fa8 64009FE5 		ldr	r0, .L273
 7438 6fac FEFFFFEB 		bl	uart_transmit
 7439 6fb0 0020D4E5 		ldrb	r2, [r4, #0]	@ zero_extendqisi2
 7440 6fb4 0030D5E5 		ldrb	r3, [r5, #0]	@ zero_extendqisi2
 7441 6fb8 033082E0 		add	r3, r2, r3
 7442 6fbc 0030C4E5 		strb	r3, [r4, #0]
 7443 6fc0 0010A0E3 		mov	r1, #0
 7444 6fc4 48009FE5 		ldr	r0, .L273
 7445 6fc8 FEFFFFEB 		bl	uart_transmit
 7446 6fcc 9C309FE5 		ldr	r3, .L273+92
 7447 6fd0 0010D3E5 		ldrb	r1, [r3, #0]	@ zero_extendqisi2
 7448              	.L264:
 7449 6fd4 0030D5E5 		ldrb	r3, [r5, #0]	@ zero_extendqisi2
 7450 6fd8 0020D4E5 		ldrb	r2, [r4, #0]	@ zero_extendqisi2
 7451 6fdc 033081E0 		add	r3, r1, r3
 7452 6fe0 FF3003E2 		and	r3, r3, #255
 7453 6fe4 0030C5E5 		strb	r3, [r5, #0]
 7454 6fe8 023083E0 		add	r3, r3, r2
 7455 6fec 0030C4E5 		strb	r3, [r4, #0]
 7456 6ff0 1C009FE5 		ldr	r0, .L273
 7457 6ff4 FEFFFFEB 		bl	uart_transmit
 7458 6ff8 14009FE5 		ldr	r0, .L273
 7459 6ffc 0010D5E5 		ldrb	r1, [r5, #0]	@ zero_extendqisi2
 7460 7000 FEFFFFEB 		bl	uart_transmit
 7461 7004 08009FE5 		ldr	r0, .L273
 7462 7008 0010D4E5 		ldrb	r1, [r4, #0]	@ zero_extendqisi2
 7463              	.L255:
 7464 700c FEFFFFEB 		bl	uart_transmit
 7465 7010 210100EA 		b	.L164
 7466              	.L274:
 7467              		.align	2
 7468              	.L273:
 7469 7014 00000000 		.word	uart1
 7470 7018 00000000 		.word	.LANCHOR34
 7471 701c 00000000 		.word	nav_in_segment
 7472 7020 00000000 		.word	nav_segment_x_1
 7473 7024 00000000 		.word	nav_segment_y_1
 7474 7028 00000000 		.word	nav_segment_x_2
 7475 702c 00000000 		.word	nav_segment_y_2
 7476 7030 00000000 		.word	.LANCHOR35
 7477 7034 00000000 		.word	state
 7478 7038 00000000 		.word	.LANCHOR36
 7479 703c 00009041 		.word	1099956224
 7480 7040 00000000 		.word	h_ctl_roll_setpoint
 7481 7044 00000000 		.word	h_ctl_pitch_loop_setpoint
 7482 7048 00000000 		.word	h_ctl_course_setpoint
 7483 704c 00000000 		.word	desired_x
 7484 7050 00000000 		.word	desired_y
 7485 7054 00000000 		.word	v_ctl_altitude_setpoint
 7486 7058 00000000 		.word	v_ctl_climb_setpoint
 7487 705c 00000000 		.word	.LANCHOR37
 7488 7060 00000000 		.word	.LANCHOR21
 7489 7064 00000000 		.word	v_ctl_mode
 7490 7068 00000000 		.word	.LANCHOR23
 7491 706c 00000000 		.word	horizontal_mode
 7492 7070 00000000 		.word	.LANCHOR24
 7493 7074 00000000 		.word	.LANCHOR38
 7494 7078 00000000 		.word	v_ctl_auto_throttle_sum_err
 7495 707c 00000000 		.word	v_ctl_auto_throttle_submode
 7496 7080 00000000 		.word	.LANCHOR45
 7497 7084 66666666 		.word	1717986918
 7498 7088 66661440 		.word	1075078758
 7499 708c 00000000 		.word	.LANCHOR39
 7500 7090 00000000 		.word	infrared
 7501 7094 00000000 		.word	.LANCHOR40
 7502 7098 00000000 		.word	nav_utm_east0
 7503 709c 00000000 		.word	nav_utm_north0
 7504 70a0 00000000 		.word	nav_utm_zone0
 7505 70a4 00000000 		.word	downlink_nb_ovrn
 7506 70a8 00000000 		.word	telemetry_mode_Ap
 7507 70ac 31010000 		.word	305
 7508 70b0 00000000 		.word	.LANCHOR48
 7509 70b4 3D010000 		.word	317
 7510 70b8 00000000 		.word	.LANCHOR49
 7511 70bc 00000000 		.word	.LANCHOR50
 7512 70c0 49010000 		.word	329
 7513 70c4 00000000 		.word	.LANCHOR51
 7514 70c8 55010000 		.word	341
 7515 70cc 00000000 		.word	.LANCHOR52
 7516 70d0 00000000 		.word	.LANCHOR53
 7517 70d4 5D020000 		.word	605
 7518 70d8 00000000 		.word	.LANCHOR54
 7519 70dc 00000000 		.word	.LANCHOR46
 7520 70e0 00000000 		.word	.LC0
 7521 70e4 00000000 		.word	downlink_nb_ovrn
 7522 70e8 00000000 		.word	.LANCHOR47
 7523 70ec 00000000 		.word	gps
 7524 70f0 F8C1631A 		.word	442745336
 7525 70f4 DCA54C40 		.word	1078765020
 7526 70f8 80842E41 		.word	1093567616
 7527 70fc 00000000 		.word	downlink_nb_bytes
 7528 7100 00000000 		.word	downlink_nb_msgs
 7529 7104 00000000 		.word	ck_a
 7530 7108 00000000 		.word	ck_b
 7531 710c 00000000 		.word	uart1
 7532              	.L165:
 7533 7110 4E0053E3 		cmp	r3, #78
 7534 7114 4D00001A 		bne	.L167
 7535 7118 90301FE5 		ldr	r3, .L273+124
 7536 711c F661D3E1 		ldrsh	r6, [r3, #22]
 7537 7120 F421D3E1 		ldrsh	r2, [r3, #20]
 7538 7124 F831D3E1 		ldrsh	r3, [r3, #24]
 7539 7128 000052E3 		cmp	r2, #0
 7540 712c 002062B2 		rsblt	r2, r2, #0
 7541 7130 000056E3 		cmp	r6, #0
 7542 7134 006066B2 		rsblt	r6, r6, #0
 7543 7138 000053E3 		cmp	r3, #0
 7544 713c 003063B2 		rsblt	r3, r3, #0
 7545 7140 026086E0 		add	r6, r6, r2
 7546 7144 036086E0 		add	r6, r6, r3
 7547 7148 0668A0E1 		mov	r6, r6, asl #16
 7548 714c 2668A0E1 		mov	r6, r6, lsr #16
 7549 7150 310056E3 		cmp	r6, #49
 7550 7154 50001FE5 		ldr	r0, .L273+248
 7551 7158 0910A0E3 		mov	r1, #9
 7552 715c BC60CDE1 		strh	r6, [sp, #12]	@ movhi
 7553 7160 0760A093 		movls	r6, #7
 7554 7164 0360A083 		movhi	r6, #3
 7555 7168 FEFFFFEB 		bl	uart_check_free_space
 7556 716c 000050E3 		cmp	r0, #0
 7557 7170 C500000A 		beq	.L170
 7558 7174 80301FE5 		ldr	r3, .L273+232
 7559 7178 B020D3E1 		ldrh	r2, [r3, #0]
 7560 717c 092082E2 		add	r2, r2, #9
 7561 7180 B020C3E1 		strh	r2, [r3, #0]	@ movhi
 7562 7184 8C301FE5 		ldr	r3, .L273+236
 7563 7188 B020D3E1 		ldrh	r2, [r3, #0]
 7564 718c 012082E2 		add	r2, r2, #1
 7565 7190 B020C3E1 		strh	r2, [r3, #0]	@ movhi
 7566 7194 90001FE5 		ldr	r0, .L273+248
 7567 7198 9910A0E3 		mov	r1, #153
 7568 719c A0501FE5 		ldr	r5, .L273+240
 7569 71a0 FEFFFFEB 		bl	uart_transmit
 7570 71a4 A0001FE5 		ldr	r0, .L273+248
 7571 71a8 0910A0E3 		mov	r1, #9
 7572 71ac FEFFFFEB 		bl	uart_transmit
 7573 71b0 B0401FE5 		ldr	r4, .L273+244
 7574 71b4 0A30A0E3 		mov	r3, #10
 7575 71b8 0030C5E5 		strb	r3, [r5, #0]
 7576 71bc 1330A0E3 		mov	r3, #19
 7577 71c0 0030C4E5 		strb	r3, [r4, #0]
 7578 71c4 C0001FE5 		ldr	r0, .L273+248
 7579 71c8 0110A0E3 		mov	r1, #1
 7580 71cc FEFFFFEB 		bl	uart_transmit
 7581 71d0 0030D5E5 		ldrb	r3, [r5, #0]	@ zero_extendqisi2
 7582 71d4 0020D4E5 		ldrb	r2, [r4, #0]	@ zero_extendqisi2
 7583 71d8 183043E2 		sub	r3, r3, #24
 7584 71dc FF3003E2 		and	r3, r3, #255
 7585 71e0 0030C5E5 		strb	r3, [r5, #0]
 7586 71e4 023083E0 		add	r3, r3, r2
 7587 71e8 0030C4E5 		strb	r3, [r4, #0]
 7588 71ec E8001FE5 		ldr	r0, .L273+248
 7589 71f0 E810A0E3 		mov	r1, #232
 7590 71f4 FEFFFFEB 		bl	uart_transmit
 7591 71f8 0030D5E5 		ldrb	r3, [r5, #0]	@ zero_extendqisi2
 7592 71fc 0020D4E5 		ldrb	r2, [r4, #0]	@ zero_extendqisi2
 7593 7200 033086E0 		add	r3, r6, r3
 7594 7204 FF3003E2 		and	r3, r3, #255
 7595 7208 0030C5E5 		strb	r3, [r5, #0]
 7596 720c 023083E0 		add	r3, r3, r2
 7597 7210 0030C4E5 		strb	r3, [r4, #0]
 7598 7214 10011FE5 		ldr	r0, .L273+248
 7599 7218 0610A0E1 		mov	r1, r6
 7600 721c FEFFFFEB 		bl	uart_transmit
 7601 7220 0C10DDE5 		ldrb	r1, [sp, #12]	@ zero_extendqisi2
 7602 7224 0030D5E5 		ldrb	r3, [r5, #0]	@ zero_extendqisi2
 7603 7228 0020D4E5 		ldrb	r2, [r4, #0]	@ zero_extendqisi2
 7604 722c 033081E0 		add	r3, r1, r3
 7605 7230 FF3003E2 		and	r3, r3, #255
 7606 7234 0030C5E5 		strb	r3, [r5, #0]
 7607 7238 023083E0 		add	r3, r3, r2
 7608 723c 0030C4E5 		strb	r3, [r4, #0]
 7609 7240 3C011FE5 		ldr	r0, .L273+248
 7610 7244 FEFFFFEB 		bl	uart_transmit
 7611 7248 0D10DDE5 		ldrb	r1, [sp, #13]	@ zero_extendqisi2
 7612 724c 60FFFFEA 		b	.L264
 7613              	.L167:
 7614 7250 540053E3 		cmp	r3, #84
 7615 7254 9000001A 		bne	.L164
 7616 7258 54011FE5 		ldr	r0, .L273+248
 7617 725c 1110A0E3 		mov	r1, #17
 7618 7260 FEFFFFEB 		bl	uart_check_free_space
 7619 7264 000050E3 		cmp	r0, #0
 7620 7268 8700000A 		beq	.L170
 7621 726c 78311FE5 		ldr	r3, .L273+232
 7622 7270 B020D3E1 		ldrh	r2, [r3, #0]
 7623 7274 112082E2 		add	r2, r2, #17
 7624 7278 B020C3E1 		strh	r2, [r3, #0]	@ movhi
 7625 727c 84311FE5 		ldr	r3, .L273+236
 7626 7280 B020D3E1 		ldrh	r2, [r3, #0]
 7627 7284 012082E2 		add	r2, r2, #1
 7628 7288 B020C3E1 		strh	r2, [r3, #0]	@ movhi
 7629 728c 88011FE5 		ldr	r0, .L273+248
 7630 7290 9910A0E3 		mov	r1, #153
 7631 7294 98511FE5 		ldr	r5, .L273+240
 7632 7298 FEFFFFEB 		bl	uart_transmit
 7633 729c 98011FE5 		ldr	r0, .L273+248
 7634 72a0 1110A0E3 		mov	r1, #17
 7635 72a4 A4411FE5 		ldr	r4, .L273+244
 7636 72a8 FEFFFFEB 		bl	uart_transmit
 7637 72ac 1230A0E3 		mov	r3, #18
 7638 72b0 0030C5E5 		strb	r3, [r5, #0]
 7639 72b4 2330A0E3 		mov	r3, #35
 7640 72b8 0030C4E5 		strb	r3, [r4, #0]
 7641 72bc B8011FE5 		ldr	r0, .L273+248
 7642 72c0 0110A0E3 		mov	r1, #1
 7643 72c4 FEFFFFEB 		bl	uart_transmit
 7644 72c8 0030D5E5 		ldrb	r3, [r5, #0]	@ zero_extendqisi2
 7645 72cc 0020D4E5 		ldrb	r2, [r4, #0]	@ zero_extendqisi2
 7646 72d0 113083E2 		add	r3, r3, #17
 7647 72d4 FF3003E2 		and	r3, r3, #255
 7648 72d8 F4611FE5 		ldr	r6, .L273+216
 7649 72dc 0030C5E5 		strb	r3, [r5, #0]
 7650 72e0 023083E0 		add	r3, r3, r2
 7651 72e4 0030C4E5 		strb	r3, [r4, #0]
 7652 72e8 E4011FE5 		ldr	r0, .L273+248
 7653 72ec 1110A0E3 		mov	r1, #17
 7654 72f0 FEFFFFEB 		bl	uart_transmit
 7655 72f4 4C10D6E5 		ldrb	r1, [r6, #76]	@ zero_extendqisi2
 7656 72f8 0030D5E5 		ldrb	r3, [r5, #0]	@ zero_extendqisi2
 7657 72fc 0020D4E5 		ldrb	r2, [r4, #0]	@ zero_extendqisi2
 7658 7300 033081E0 		add	r3, r1, r3
 7659 7304 FF3003E2 		and	r3, r3, #255
 7660 7308 0030C5E5 		strb	r3, [r5, #0]
 7661 730c 023083E0 		add	r3, r3, r2
 7662 7310 0030C4E5 		strb	r3, [r4, #0]
 7663 7314 10021FE5 		ldr	r0, .L273+248
 7664 7318 FEFFFFEB 		bl	uart_transmit
 7665 731c 4D10D6E5 		ldrb	r1, [r6, #77]	@ zero_extendqisi2
 7666 7320 0030D5E5 		ldrb	r3, [r5, #0]	@ zero_extendqisi2
 7667 7324 0020D4E5 		ldrb	r2, [r4, #0]	@ zero_extendqisi2
 7668 7328 033081E0 		add	r3, r1, r3
 7669 732c FF3003E2 		and	r3, r3, #255
 7670 7330 0030C5E5 		strb	r3, [r5, #0]
 7671 7334 023083E0 		add	r3, r3, r2
 7672 7338 0030C4E5 		strb	r3, [r4, #0]
 7673 733c 38021FE5 		ldr	r0, .L273+248
 7674 7340 FEFFFFEB 		bl	uart_transmit
 7675 7344 4E10D6E5 		ldrb	r1, [r6, #78]	@ zero_extendqisi2
 7676 7348 0030D5E5 		ldrb	r3, [r5, #0]	@ zero_extendqisi2
 7677 734c 0020D4E5 		ldrb	r2, [r4, #0]	@ zero_extendqisi2
 7678 7350 033081E0 		add	r3, r1, r3
 7679 7354 FF3003E2 		and	r3, r3, #255
 7680 7358 0030C5E5 		strb	r3, [r5, #0]
 7681 735c 023083E0 		add	r3, r3, r2
 7682 7360 0030C4E5 		strb	r3, [r4, #0]
 7683 7364 60021FE5 		ldr	r0, .L273+248
 7684 7368 FEFFFFEB 		bl	uart_transmit
 7685 736c 4F10D6E5 		ldrb	r1, [r6, #79]	@ zero_extendqisi2
 7686 7370 0030D5E5 		ldrb	r3, [r5, #0]	@ zero_extendqisi2
 7687 7374 0020D4E5 		ldrb	r2, [r4, #0]	@ zero_extendqisi2
 7688 7378 033081E0 		add	r3, r1, r3
 7689 737c FF3003E2 		and	r3, r3, #255
 7690 7380 0030C5E5 		strb	r3, [r5, #0]
 7691 7384 023083E0 		add	r3, r3, r2
 7692 7388 0030C4E5 		strb	r3, [r4, #0]
 7693 738c 88021FE5 		ldr	r0, .L273+248
 7694 7390 FEFFFFEB 		bl	uart_transmit
 7695 7394 5010D6E5 		ldrb	r1, [r6, #80]	@ zero_extendqisi2
 7696 7398 0030D5E5 		ldrb	r3, [r5, #0]	@ zero_extendqisi2
 7697 739c 0020D4E5 		ldrb	r2, [r4, #0]	@ zero_extendqisi2
 7698 73a0 033081E0 		add	r3, r1, r3
 7699 73a4 FF3003E2 		and	r3, r3, #255
 7700 73a8 0030C5E5 		strb	r3, [r5, #0]
 7701 73ac 023083E0 		add	r3, r3, r2
 7702 73b0 0030C4E5 		strb	r3, [r4, #0]
 7703 73b4 B0021FE5 		ldr	r0, .L273+248
 7704 73b8 FEFFFFEB 		bl	uart_transmit
 7705 73bc 5110D6E5 		ldrb	r1, [r6, #81]	@ zero_extendqisi2
 7706 73c0 0030D5E5 		ldrb	r3, [r5, #0]	@ zero_extendqisi2
 7707 73c4 0020D4E5 		ldrb	r2, [r4, #0]	@ zero_extendqisi2
 7708 73c8 033081E0 		add	r3, r1, r3
 7709 73cc FF3003E2 		and	r3, r3, #255
 7710 73d0 0030C5E5 		strb	r3, [r5, #0]
 7711 73d4 023083E0 		add	r3, r3, r2
 7712 73d8 0030C4E5 		strb	r3, [r4, #0]
 7713 73dc D8021FE5 		ldr	r0, .L273+248
 7714 73e0 FEFFFFEB 		bl	uart_transmit
 7715 73e4 5210D6E5 		ldrb	r1, [r6, #82]	@ zero_extendqisi2
 7716 73e8 0030D5E5 		ldrb	r3, [r5, #0]	@ zero_extendqisi2
 7717 73ec 0020D4E5 		ldrb	r2, [r4, #0]	@ zero_extendqisi2
 7718 73f0 033081E0 		add	r3, r1, r3
 7719 73f4 FF3003E2 		and	r3, r3, #255
 7720 73f8 0030C5E5 		strb	r3, [r5, #0]
 7721 73fc 023083E0 		add	r3, r3, r2
 7722 7400 0030C4E5 		strb	r3, [r4, #0]
 7723 7404 00031FE5 		ldr	r0, .L273+248
 7724 7408 FEFFFFEB 		bl	uart_transmit
 7725 740c 5310D6E5 		ldrb	r1, [r6, #83]	@ zero_extendqisi2
 7726 7410 0030D5E5 		ldrb	r3, [r5, #0]	@ zero_extendqisi2
 7727 7414 0020D4E5 		ldrb	r2, [r4, #0]	@ zero_extendqisi2
 7728 7418 033081E0 		add	r3, r1, r3
 7729 741c FF3003E2 		and	r3, r3, #255
 7730 7420 0030C5E5 		strb	r3, [r5, #0]
 7731 7424 023083E0 		add	r3, r3, r2
 7732 7428 0030C4E5 		strb	r3, [r4, #0]
 7733 742c 28031FE5 		ldr	r0, .L273+248
 7734 7430 FEFFFFEB 		bl	uart_transmit
 7735 7434 5810D6E5 		ldrb	r1, [r6, #88]	@ zero_extendqisi2
 7736 7438 0030D5E5 		ldrb	r3, [r5, #0]	@ zero_extendqisi2
 7737 743c 0020D4E5 		ldrb	r2, [r4, #0]	@ zero_extendqisi2
 7738 7440 033081E0 		add	r3, r1, r3
 7739 7444 FF3003E2 		and	r3, r3, #255
 7740 7448 0030C5E5 		strb	r3, [r5, #0]
 7741 744c 023083E0 		add	r3, r3, r2
 7742 7450 0030C4E5 		strb	r3, [r4, #0]
 7743 7454 50031FE5 		ldr	r0, .L273+248
 7744 7458 FEFFFFEB 		bl	uart_transmit
 7745 745c 5910D6E5 		ldrb	r1, [r6, #89]	@ zero_extendqisi2
 7746 7460 0030D5E5 		ldrb	r3, [r5, #0]	@ zero_extendqisi2
 7747 7464 0020D4E5 		ldrb	r2, [r4, #0]	@ zero_extendqisi2
 7748 7468 033081E0 		add	r3, r1, r3
 7749 746c FF3003E2 		and	r3, r3, #255
 7750 7470 0030C5E5 		strb	r3, [r5, #0]
 7751 7474 023083E0 		add	r3, r3, r2
 7752 7478 0030C4E5 		strb	r3, [r4, #0]
 7753 747c 78031FE5 		ldr	r0, .L273+248
 7754 7480 FEFFFFEB 		bl	uart_transmit
 7755 7484 5A10D6E5 		ldrb	r1, [r6, #90]	@ zero_extendqisi2
 7756 7488 D1FEFFEA 		b	.L264
 7757              	.L170:
 7758 748c F0331FE5 		ldr	r3, .L273+144
 7759 7490 0020D3E5 		ldrb	r2, [r3, #0]	@ zero_extendqisi2
 7760 7494 012082E2 		add	r2, r2, #1
 7761 7498 0020C3E5 		strb	r2, [r3, #0]
 7762              	.L164:
 7763 749c 30341FE5 		ldr	r3, .L273+96
 7764 74a0 B030D3E1 		ldrh	r3, [r3, #0]
 7765 74a4 5A0053E3 		cmp	r3, #90
 7766 74a8 5100001A 		bne	.L171
 7767 74ac A8031FE5 		ldr	r0, .L273+248
 7768 74b0 0B10A0E3 		mov	r1, #11
 7769 74b4 FEFFFFEB 		bl	uart_check_free_space
 7770 74b8 000050E3 		cmp	r0, #0
 7771 74bc B900000A 		beq	.L174
 7772 74c0 CC331FE5 		ldr	r3, .L273+232
 7773 74c4 B020D3E1 		ldrh	r2, [r3, #0]
 7774 74c8 0B2082E2 		add	r2, r2, #11
 7775 74cc B020C3E1 		strh	r2, [r3, #0]	@ movhi
 7776 74d0 D8331FE5 		ldr	r3, .L273+236
 7777 74d4 B020D3E1 		ldrh	r2, [r3, #0]
 7778 74d8 012082E2 		add	r2, r2, #1
 7779 74dc B020C3E1 		strh	r2, [r3, #0]	@ movhi
 7780 74e0 DC031FE5 		ldr	r0, .L273+248
 7781 74e4 9910A0E3 		mov	r1, #153
 7782 74e8 EC531FE5 		ldr	r5, .L273+240
 7783 74ec FEFFFFEB 		bl	uart_transmit
 7784 74f0 EC031FE5 		ldr	r0, .L273+248
 7785 74f4 0B10A0E3 		mov	r1, #11
 7786 74f8 F8431FE5 		ldr	r4, .L273+244
 7787 74fc FEFFFFEB 		bl	uart_transmit
 7788 7500 0C30A0E3 		mov	r3, #12
 7789 7504 0030C5E5 		strb	r3, [r5, #0]
 7790 7508 1730A0E3 		mov	r3, #23
 7791 750c 0030C4E5 		strb	r3, [r4, #0]
 7792 7510 0C041FE5 		ldr	r0, .L273+248
 7793 7514 0110A0E3 		mov	r1, #1
 7794 7518 FEFFFFEB 		bl	uart_transmit
 7795 751c 0030D5E5 		ldrb	r3, [r5, #0]	@ zero_extendqisi2
 7796 7520 0020D4E5 		ldrb	r2, [r4, #0]	@ zero_extendqisi2
 7797 7524 0E3083E2 		add	r3, r3, #14
 7798 7528 FF3003E2 		and	r3, r3, #255
 7799 752c BC641FE5 		ldr	r6, .L273+100
 7800 7530 0030C5E5 		strb	r3, [r5, #0]
 7801 7534 023083E0 		add	r3, r3, r2
 7802 7538 0030C4E5 		strb	r3, [r4, #0]
 7803 753c 38041FE5 		ldr	r0, .L273+248
 7804 7540 0E10A0E3 		mov	r1, #14
 7805 7544 FEFFFFEB 		bl	uart_transmit
 7806 7548 0010D6E5 		ldrb	r1, [r6, #0]	@ zero_extendqisi2
 7807 754c 0030D5E5 		ldrb	r3, [r5, #0]	@ zero_extendqisi2
 7808 7550 0020D4E5 		ldrb	r2, [r4, #0]	@ zero_extendqisi2
 7809 7554 033081E0 		add	r3, r1, r3
 7810 7558 FF3003E2 		and	r3, r3, #255
 7811 755c 0030C5E5 		strb	r3, [r5, #0]
 7812 7560 023083E0 		add	r3, r3, r2
 7813 7564 0030C4E5 		strb	r3, [r4, #0]
 7814 7568 64041FE5 		ldr	r0, .L273+248
 7815 756c FEFFFFEB 		bl	uart_transmit
 7816 7570 0110D6E5 		ldrb	r1, [r6, #1]	@ zero_extendqisi2
 7817 7574 0030D5E5 		ldrb	r3, [r5, #0]	@ zero_extendqisi2
 7818 7578 0020D4E5 		ldrb	r2, [r4, #0]	@ zero_extendqisi2
 7819 757c 033081E0 		add	r3, r1, r3
 7820 7580 FF3003E2 		and	r3, r3, #255
 7821 7584 0030C5E5 		strb	r3, [r5, #0]
 7822 7588 023083E0 		add	r3, r3, r2
 7823 758c 0030C4E5 		strb	r3, [r4, #0]
 7824 7590 8C041FE5 		ldr	r0, .L273+248
 7825 7594 FEFFFFEB 		bl	uart_transmit
 7826 7598 0210D6E5 		ldrb	r1, [r6, #2]	@ zero_extendqisi2
 7827 759c 0030D5E5 		ldrb	r3, [r5, #0]	@ zero_extendqisi2
 7828 75a0 0020D4E5 		ldrb	r2, [r4, #0]	@ zero_extendqisi2
 7829 75a4 033081E0 		add	r3, r1, r3
 7830 75a8 FF3003E2 		and	r3, r3, #255
 7831 75ac 0030C5E5 		strb	r3, [r5, #0]
 7832 75b0 023083E0 		add	r3, r3, r2
 7833 75b4 0030C4E5 		strb	r3, [r4, #0]
 7834 75b8 B4041FE5 		ldr	r0, .L273+248
 7835 75bc FEFFFFEB 		bl	uart_transmit
 7836 75c0 0310D6E5 		ldrb	r1, [r6, #3]	@ zero_extendqisi2
 7837 75c4 0030D5E5 		ldrb	r3, [r5, #0]	@ zero_extendqisi2
 7838 75c8 0020D4E5 		ldrb	r2, [r4, #0]	@ zero_extendqisi2
 7839 75cc 033081E0 		add	r3, r1, r3
 7840 75d0 FF3003E2 		and	r3, r3, #255
 7841 75d4 0030C5E5 		strb	r3, [r5, #0]
 7842 75d8 023083E0 		add	r3, r3, r2
 7843 75dc 0030C4E5 		strb	r3, [r4, #0]
 7844 75e0 DC041FE5 		ldr	r0, .L273+248
 7845 75e4 FEFFFFEB 		bl	uart_transmit
 7846 75e8 74351FE5 		ldr	r3, .L273+104
 7847 75ec 0010D3E5 		ldrb	r1, [r3, #0]	@ zero_extendqisi2
 7848 75f0 5C0000EA 		b	.L256
 7849              	.L171:
 7850 75f4 600053E3 		cmp	r3, #96
 7851 75f8 6E00001A 		bne	.L173
 7852 75fc 84551FE5 		ldr	r5, .L273+108
 7853 7600 0C451FE5 		ldr	r4, .L273+232
 7854 7604 B000D5E1 		ldrh	r0, [r5, #0]
 7855 7608 B060D4E1 		ldrh	r6, [r4, #0]
 7856 760c 060060E0 		rsb	r0, r0, r6
 7857 7610 FEFFFFEB 		bl	__aeabi_i2d
 7858 7614 98251FE5 		ldr	r2, .L273+112
 7859 7618 98351FE5 		ldr	r3, .L273+116
 7860 761c FEFFFFEB 		bl	__aeabi_ddiv
 7861 7620 FEFFFFEB 		bl	__aeabi_d2uiz
 7862 7624 B060C5E1 		strh	r6, [r5, #0]	@ movhi
 7863 7628 BC00CDE1 		strh	r0, [sp, #12]	@ movhi
 7864 762c 0B10A0E3 		mov	r1, #11
 7865 7630 2C051FE5 		ldr	r0, .L273+248
 7866 7634 FEFFFFEB 		bl	uart_check_free_space
 7867 7638 000050E3 		cmp	r0, #0
 7868 763c 5900000A 		beq	.L174
 7869 7640 B030D4E1 		ldrh	r3, [r4, #0]
 7870 7644 4C651FE5 		ldr	r6, .L273+236
 7871 7648 0B3083E2 		add	r3, r3, #11
 7872 764c B030C4E1 		strh	r3, [r4, #0]	@ movhi
 7873 7650 B030D6E1 		ldrh	r3, [r6, #0]
 7874 7654 013083E2 		add	r3, r3, #1
 7875 7658 B030C6E1 		strh	r3, [r6, #0]	@ movhi
 7876 765c 58051FE5 		ldr	r0, .L273+248
 7877 7660 9910A0E3 		mov	r1, #153
 7878 7664 68551FE5 		ldr	r5, .L273+240
 7879 7668 FEFFFFEB 		bl	uart_transmit
 7880 766c 68051FE5 		ldr	r0, .L273+248
 7881 7670 0B10A0E3 		mov	r1, #11
 7882 7674 74451FE5 		ldr	r4, .L273+244
 7883 7678 FEFFFFEB 		bl	uart_transmit
 7884 767c 0C30A0E3 		mov	r3, #12
 7885 7680 0030C5E5 		strb	r3, [r5, #0]
 7886 7684 1730A0E3 		mov	r3, #23
 7887 7688 0030C4E5 		strb	r3, [r4, #0]
 7888 768c 88051FE5 		ldr	r0, .L273+248
 7889 7690 0110A0E3 		mov	r1, #1
 7890 7694 FEFFFFEB 		bl	uart_transmit
 7891 7698 0030D5E5 		ldrb	r3, [r5, #0]	@ zero_extendqisi2
 7892 769c 0020D4E5 		ldrb	r2, [r4, #0]	@ zero_extendqisi2
 7893 76a0 1E3083E2 		add	r3, r3, #30
 7894 76a4 FF3003E2 		and	r3, r3, #255
 7895 76a8 0030C5E5 		strb	r3, [r5, #0]
 7896 76ac 023083E0 		add	r3, r3, r2
 7897 76b0 0030C4E5 		strb	r3, [r4, #0]
 7898 76b4 B0051FE5 		ldr	r0, .L273+248
 7899 76b8 1E10A0E3 		mov	r1, #30
 7900 76bc FEFFFFEB 		bl	uart_transmit
 7901 76c0 24361FE5 		ldr	r3, .L273+144
 7902 76c4 0010D3E5 		ldrb	r1, [r3, #0]	@ zero_extendqisi2
 7903 76c8 0030D5E5 		ldrb	r3, [r5, #0]	@ zero_extendqisi2
 7904 76cc 0020D4E5 		ldrb	r2, [r4, #0]	@ zero_extendqisi2
 7905 76d0 033081E0 		add	r3, r1, r3
 7906 76d4 FF3003E2 		and	r3, r3, #255
 7907 76d8 0030C5E5 		strb	r3, [r5, #0]
 7908 76dc 023083E0 		add	r3, r3, r2
 7909 76e0 0030C4E5 		strb	r3, [r4, #0]
 7910 76e4 E0051FE5 		ldr	r0, .L273+248
 7911 76e8 FEFFFFEB 		bl	uart_transmit
 7912 76ec 0C10DDE5 		ldrb	r1, [sp, #12]	@ zero_extendqisi2
 7913 76f0 0030D5E5 		ldrb	r3, [r5, #0]	@ zero_extendqisi2
 7914 76f4 0020D4E5 		ldrb	r2, [r4, #0]	@ zero_extendqisi2
 7915 76f8 033081E0 		add	r3, r1, r3
 7916 76fc FF3003E2 		and	r3, r3, #255
 7917 7700 0030C5E5 		strb	r3, [r5, #0]
 7918 7704 023083E0 		add	r3, r3, r2
 7919 7708 0030C4E5 		strb	r3, [r4, #0]
 7920 770c 08061FE5 		ldr	r0, .L273+248
 7921 7710 FEFFFFEB 		bl	uart_transmit
 7922 7714 0D10DDE5 		ldrb	r1, [sp, #13]	@ zero_extendqisi2
 7923 7718 0030D5E5 		ldrb	r3, [r5, #0]	@ zero_extendqisi2
 7924 771c 0020D4E5 		ldrb	r2, [r4, #0]	@ zero_extendqisi2
 7925 7720 033081E0 		add	r3, r1, r3
 7926 7724 FF3003E2 		and	r3, r3, #255
 7927 7728 0030C5E5 		strb	r3, [r5, #0]
 7928 772c 023083E0 		add	r3, r3, r2
 7929 7730 0030C4E5 		strb	r3, [r4, #0]
 7930 7734 30061FE5 		ldr	r0, .L273+248
 7931 7738 FEFFFFEB 		bl	uart_transmit
 7932 773c 0010D6E5 		ldrb	r1, [r6, #0]	@ zero_extendqisi2
 7933 7740 0030D5E5 		ldrb	r3, [r5, #0]	@ zero_extendqisi2
 7934 7744 0020D4E5 		ldrb	r2, [r4, #0]	@ zero_extendqisi2
 7935 7748 033081E0 		add	r3, r1, r3
 7936 774c FF3003E2 		and	r3, r3, #255
 7937 7750 0030C5E5 		strb	r3, [r5, #0]
 7938 7754 023083E0 		add	r3, r3, r2
 7939 7758 0030C4E5 		strb	r3, [r4, #0]
 7940 775c 58061FE5 		ldr	r0, .L273+248
 7941 7760 FEFFFFEB 		bl	uart_transmit
 7942 7764 0110D6E5 		ldrb	r1, [r6, #1]	@ zero_extendqisi2
 7943              	.L256:
 7944 7768 0030D5E5 		ldrb	r3, [r5, #0]	@ zero_extendqisi2
 7945 776c 0020D4E5 		ldrb	r2, [r4, #0]	@ zero_extendqisi2
 7946 7770 033081E0 		add	r3, r1, r3
 7947 7774 FF3003E2 		and	r3, r3, #255
 7948 7778 0030C5E5 		strb	r3, [r5, #0]
 7949 777c 023083E0 		add	r3, r3, r2
 7950 7780 0030C4E5 		strb	r3, [r4, #0]
 7951 7784 80061FE5 		ldr	r0, .L273+248
 7952 7788 FEFFFFEB 		bl	uart_transmit
 7953 778c 0010D5E5 		ldrb	r1, [r5, #0]	@ zero_extendqisi2
 7954 7790 8C061FE5 		ldr	r0, .L273+248
 7955 7794 FEFFFFEB 		bl	uart_transmit
 7956 7798 94061FE5 		ldr	r0, .L273+248
 7957 779c 0010D4E5 		ldrb	r1, [r4, #0]	@ zero_extendqisi2
 7958 77a0 FEFFFFEB 		bl	uart_transmit
 7959 77a4 030000EA 		b	.L173
 7960              	.L174:
 7961 77a8 0C371FE5 		ldr	r3, .L273+144
 7962 77ac 0020D3E5 		ldrb	r2, [r3, #0]	@ zero_extendqisi2
 7963 77b0 012082E2 		add	r2, r2, #1
 7964 77b4 0020C3E5 		strb	r2, [r3, #0]
 7965              	.L173:
 7966 77b8 34371FE5 		ldr	r3, .L273+120
 7967 77bc B030D3E1 		ldrh	r3, [r3, #0]
 7968 77c0 660053E3 		cmp	r3, #102
 7969 77c4 9500001A 		bne	.L175
 7970 77c8 C4061FE5 		ldr	r0, .L273+248
 7971 77cc 1010A0E3 		mov	r1, #16
 7972 77d0 FEFFFFEB 		bl	uart_check_free_space
 7973 77d4 000050E3 		cmp	r0, #0
 7974 77d8 8C00000A 		beq	.L176
 7975 77dc E8361FE5 		ldr	r3, .L273+232
 7976 77e0 B020D3E1 		ldrh	r2, [r3, #0]
 7977 77e4 102082E2 		add	r2, r2, #16
 7978 77e8 B020C3E1 		strh	r2, [r3, #0]	@ movhi
 7979 77ec F4361FE5 		ldr	r3, .L273+236
 7980 77f0 B020D3E1 		ldrh	r2, [r3, #0]
 7981 77f4 012082E2 		add	r2, r2, #1
 7982 77f8 B020C3E1 		strh	r2, [r3, #0]	@ movhi
 7983 77fc F8061FE5 		ldr	r0, .L273+248
 7984 7800 9910A0E3 		mov	r1, #153
 7985 7804 08571FE5 		ldr	r5, .L273+240
 7986 7808 FEFFFFEB 		bl	uart_transmit
 7987 780c 08071FE5 		ldr	r0, .L273+248
 7988 7810 1010A0E3 		mov	r1, #16
 7989 7814 14471FE5 		ldr	r4, .L273+244
 7990 7818 FEFFFFEB 		bl	uart_transmit
 7991 781c 1130A0E3 		mov	r3, #17
 7992 7820 0030C5E5 		strb	r3, [r5, #0]
 7993 7824 2130A0E3 		mov	r3, #33
 7994 7828 0030C4E5 		strb	r3, [r4, #0]
 7995 782c 28071FE5 		ldr	r0, .L273+248
 7996 7830 0110A0E3 		mov	r1, #1
 7997 7834 FEFFFFEB 		bl	uart_transmit
 7998 7838 0030D5E5 		ldrb	r3, [r5, #0]	@ zero_extendqisi2
 7999 783c 0020D4E5 		ldrb	r2, [r4, #0]	@ zero_extendqisi2
 8000 7840 073083E2 		add	r3, r3, #7
 8001 7844 FF3003E2 		and	r3, r3, #255
 8002 7848 C0671FE5 		ldr	r6, .L273+124
 8003 784c 0030C5E5 		strb	r3, [r5, #0]
 8004 7850 023083E0 		add	r3, r3, r2
 8005 7854 0030C4E5 		strb	r3, [r4, #0]
 8006 7858 54071FE5 		ldr	r0, .L273+248
 8007 785c 0710A0E3 		mov	r1, #7
 8008 7860 FEFFFFEB 		bl	uart_transmit
 8009 7864 0010D6E5 		ldrb	r1, [r6, #0]	@ zero_extendqisi2
 8010 7868 0030D5E5 		ldrb	r3, [r5, #0]	@ zero_extendqisi2
 8011 786c 0020D4E5 		ldrb	r2, [r4, #0]	@ zero_extendqisi2
 8012 7870 033081E0 		add	r3, r1, r3
 8013 7874 FF3003E2 		and	r3, r3, #255
 8014 7878 0030C5E5 		strb	r3, [r5, #0]
 8015 787c 023083E0 		add	r3, r3, r2
 8016 7880 0030C4E5 		strb	r3, [r4, #0]
 8017 7884 80071FE5 		ldr	r0, .L273+248
 8018 7888 FEFFFFEB 		bl	uart_transmit
 8019 788c 0110D6E5 		ldrb	r1, [r6, #1]	@ zero_extendqisi2
 8020 7890 0030D5E5 		ldrb	r3, [r5, #0]	@ zero_extendqisi2
 8021 7894 0020D4E5 		ldrb	r2, [r4, #0]	@ zero_extendqisi2
 8022 7898 033081E0 		add	r3, r1, r3
 8023 789c FF3003E2 		and	r3, r3, #255
 8024 78a0 0030C5E5 		strb	r3, [r5, #0]
 8025 78a4 023083E0 		add	r3, r3, r2
 8026 78a8 0030C4E5 		strb	r3, [r4, #0]
 8027 78ac A8071FE5 		ldr	r0, .L273+248
 8028 78b0 FEFFFFEB 		bl	uart_transmit
 8029 78b4 0210D6E5 		ldrb	r1, [r6, #2]	@ zero_extendqisi2
 8030 78b8 0030D5E5 		ldrb	r3, [r5, #0]	@ zero_extendqisi2
 8031 78bc 0020D4E5 		ldrb	r2, [r4, #0]	@ zero_extendqisi2
 8032 78c0 033081E0 		add	r3, r1, r3
 8033 78c4 FF3003E2 		and	r3, r3, #255
 8034 78c8 0030C5E5 		strb	r3, [r5, #0]
 8035 78cc 023083E0 		add	r3, r3, r2
 8036 78d0 0030C4E5 		strb	r3, [r4, #0]
 8037 78d4 D0071FE5 		ldr	r0, .L273+248
 8038 78d8 FEFFFFEB 		bl	uart_transmit
 8039 78dc 0310D6E5 		ldrb	r1, [r6, #3]	@ zero_extendqisi2
 8040 78e0 0030D5E5 		ldrb	r3, [r5, #0]	@ zero_extendqisi2
 8041 78e4 0020D4E5 		ldrb	r2, [r4, #0]	@ zero_extendqisi2
 8042 78e8 033081E0 		add	r3, r1, r3
 8043 78ec FF3003E2 		and	r3, r3, #255
 8044 78f0 0030C5E5 		strb	r3, [r5, #0]
 8045 78f4 023083E0 		add	r3, r3, r2
 8046 78f8 0030C4E5 		strb	r3, [r4, #0]
 8047 78fc F8071FE5 		ldr	r0, .L273+248
 8048 7900 FEFFFFEB 		bl	uart_transmit
 8049 7904 1610D6E5 		ldrb	r1, [r6, #22]	@ zero_extendqisi2
 8050 7908 0030D5E5 		ldrb	r3, [r5, #0]	@ zero_extendqisi2
 8051 790c 0020D4E5 		ldrb	r2, [r4, #0]	@ zero_extendqisi2
 8052 7910 033081E0 		add	r3, r1, r3
 8053 7914 FF3003E2 		and	r3, r3, #255
 8054 7918 0030C5E5 		strb	r3, [r5, #0]
 8055 791c 023083E0 		add	r3, r3, r2
 8056 7920 0030C4E5 		strb	r3, [r4, #0]
 8057 7924 20081FE5 		ldr	r0, .L273+248
 8058 7928 FEFFFFEB 		bl	uart_transmit
 8059 792c 1710D6E5 		ldrb	r1, [r6, #23]	@ zero_extendqisi2
 8060 7930 0030D5E5 		ldrb	r3, [r5, #0]	@ zero_extendqisi2
 8061 7934 0020D4E5 		ldrb	r2, [r4, #0]	@ zero_extendqisi2
 8062 7938 033081E0 		add	r3, r1, r3
 8063 793c FF3003E2 		and	r3, r3, #255
 8064 7940 0030C5E5 		strb	r3, [r5, #0]
 8065 7944 023083E0 		add	r3, r3, r2
 8066 7948 0030C4E5 		strb	r3, [r4, #0]
 8067 794c 48081FE5 		ldr	r0, .L273+248
 8068 7950 FEFFFFEB 		bl	uart_transmit
 8069 7954 1410D6E5 		ldrb	r1, [r6, #20]	@ zero_extendqisi2
 8070 7958 0030D5E5 		ldrb	r3, [r5, #0]	@ zero_extendqisi2
 8071 795c 0020D4E5 		ldrb	r2, [r4, #0]	@ zero_extendqisi2
 8072 7960 033081E0 		add	r3, r1, r3
 8073 7964 FF3003E2 		and	r3, r3, #255
 8074 7968 0030C5E5 		strb	r3, [r5, #0]
 8075 796c 023083E0 		add	r3, r3, r2
 8076 7970 0030C4E5 		strb	r3, [r4, #0]
 8077 7974 70081FE5 		ldr	r0, .L273+248
 8078 7978 FEFFFFEB 		bl	uart_transmit
 8079 797c 1510D6E5 		ldrb	r1, [r6, #21]	@ zero_extendqisi2
 8080 7980 0030D5E5 		ldrb	r3, [r5, #0]	@ zero_extendqisi2
 8081 7984 0020D4E5 		ldrb	r2, [r4, #0]	@ zero_extendqisi2
 8082 7988 033081E0 		add	r3, r1, r3
 8083 798c FF3003E2 		and	r3, r3, #255
 8084 7990 0030C5E5 		strb	r3, [r5, #0]
 8085 7994 023083E0 		add	r3, r3, r2
 8086 7998 0030C4E5 		strb	r3, [r4, #0]
 8087 799c 98081FE5 		ldr	r0, .L273+248
 8088 79a0 FEFFFFEB 		bl	uart_transmit
 8089 79a4 1810D6E5 		ldrb	r1, [r6, #24]	@ zero_extendqisi2
 8090 79a8 0030D5E5 		ldrb	r3, [r5, #0]	@ zero_extendqisi2
 8091 79ac 0020D4E5 		ldrb	r2, [r4, #0]	@ zero_extendqisi2
 8092 79b0 033081E0 		add	r3, r1, r3
 8093 79b4 FF3003E2 		and	r3, r3, #255
 8094 79b8 0030C5E5 		strb	r3, [r5, #0]
 8095 79bc 023083E0 		add	r3, r3, r2
 8096 79c0 0030C4E5 		strb	r3, [r4, #0]
 8097 79c4 C0081FE5 		ldr	r0, .L273+248
 8098 79c8 FEFFFFEB 		bl	uart_transmit
 8099 79cc 1910D6E5 		ldrb	r1, [r6, #25]	@ zero_extendqisi2
 8100 79d0 0030D5E5 		ldrb	r3, [r5, #0]	@ zero_extendqisi2
 8101 79d4 0020D4E5 		ldrb	r2, [r4, #0]	@ zero_extendqisi2
 8102 79d8 033081E0 		add	r3, r1, r3
 8103 79dc FF3003E2 		and	r3, r3, #255
 8104 79e0 0030C5E5 		strb	r3, [r5, #0]
 8105 79e4 023083E0 		add	r3, r3, r2
 8106 79e8 0030C4E5 		strb	r3, [r4, #0]
 8107 79ec E8081FE5 		ldr	r0, .L273+248
 8108 79f0 FEFFFFEB 		bl	uart_transmit
 8109 79f4 0010D5E5 		ldrb	r1, [r5, #0]	@ zero_extendqisi2
 8110 79f8 F4081FE5 		ldr	r0, .L273+248
 8111 79fc FEFFFFEB 		bl	uart_transmit
 8112 7a00 FC081FE5 		ldr	r0, .L273+248
 8113 7a04 0010D4E5 		ldrb	r1, [r4, #0]	@ zero_extendqisi2
 8114 7a08 FEFFFFEB 		bl	uart_transmit
 8115 7a0c 030000EA 		b	.L175
 8116              	.L176:
 8117 7a10 74391FE5 		ldr	r3, .L273+144
 8118 7a14 0020D3E5 		ldrb	r2, [r3, #0]	@ zero_extendqisi2
 8119 7a18 012082E2 		add	r2, r2, #1
 8120 7a1c 0020C3E5 		strb	r2, [r3, #0]
 8121              	.L175:
 8122 7a20 94391FE5 		ldr	r3, .L273+128
 8123 7a24 B030D3E1 		ldrh	r3, [r3, #0]
 8124 7a28 6C0053E3 		cmp	r3, #108
 8125 7a2c 8D00001A 		bne	.L99
 8126 7a30 2C091FE5 		ldr	r0, .L273+248
 8127 7a34 0F10A0E3 		mov	r1, #15
 8128 7a38 FEFFFFEB 		bl	uart_check_free_space
 8129 7a3c 000050E3 		cmp	r0, #0
 8130 7a40 8400000A 		beq	.L177
 8131 7a44 50391FE5 		ldr	r3, .L273+232
 8132 7a48 B020D3E1 		ldrh	r2, [r3, #0]
 8133 7a4c 0F2082E2 		add	r2, r2, #15
 8134 7a50 B020C3E1 		strh	r2, [r3, #0]	@ movhi
 8135 7a54 5C391FE5 		ldr	r3, .L273+236
 8136 7a58 B020D3E1 		ldrh	r2, [r3, #0]
 8137 7a5c 012082E2 		add	r2, r2, #1
 8138 7a60 B020C3E1 		strh	r2, [r3, #0]	@ movhi
 8139 7a64 60091FE5 		ldr	r0, .L273+248
 8140 7a68 9910A0E3 		mov	r1, #153
 8141 7a6c 70591FE5 		ldr	r5, .L273+240
 8142 7a70 FEFFFFEB 		bl	uart_transmit
 8143 7a74 70091FE5 		ldr	r0, .L273+248
 8144 7a78 0F10A0E3 		mov	r1, #15
 8145 7a7c 7C491FE5 		ldr	r4, .L273+244
 8146 7a80 FEFFFFEB 		bl	uart_transmit
 8147 7a84 1030A0E3 		mov	r3, #16
 8148 7a88 0030C5E5 		strb	r3, [r5, #0]
 8149 7a8c 1F30A0E3 		mov	r3, #31
 8150 7a90 0030C4E5 		strb	r3, [r4, #0]
 8151 7a94 90091FE5 		ldr	r0, .L273+248
 8152 7a98 0110A0E3 		mov	r1, #1
 8153 7a9c FEFFFFEB 		bl	uart_transmit
 8154 7aa0 0030D5E5 		ldrb	r3, [r5, #0]	@ zero_extendqisi2
 8155 7aa4 0020D4E5 		ldrb	r2, [r4, #0]	@ zero_extendqisi2
 8156 7aa8 093083E2 		add	r3, r3, #9
 8157 7aac FF3003E2 		and	r3, r3, #255
 8158 7ab0 206A1FE5 		ldr	r6, .L273+132
 8159 7ab4 0030C5E5 		strb	r3, [r5, #0]
 8160 7ab8 023083E0 		add	r3, r3, r2
 8161 7abc 0030C4E5 		strb	r3, [r4, #0]
 8162 7ac0 BC091FE5 		ldr	r0, .L273+248
 8163 7ac4 0910A0E3 		mov	r1, #9
 8164 7ac8 FEFFFFEB 		bl	uart_transmit
 8165 7acc 0010D6E5 		ldrb	r1, [r6, #0]	@ zero_extendqisi2
 8166 7ad0 0030D5E5 		ldrb	r3, [r5, #0]	@ zero_extendqisi2
 8167 7ad4 0020D4E5 		ldrb	r2, [r4, #0]	@ zero_extendqisi2
 8168 7ad8 033081E0 		add	r3, r1, r3
 8169 7adc FF3003E2 		and	r3, r3, #255
 8170 7ae0 0030C5E5 		strb	r3, [r5, #0]
 8171 7ae4 023083E0 		add	r3, r3, r2
 8172 7ae8 0030C4E5 		strb	r3, [r4, #0]
 8173 7aec E8091FE5 		ldr	r0, .L273+248
 8174 7af0 FEFFFFEB 		bl	uart_transmit
 8175 7af4 0110D6E5 		ldrb	r1, [r6, #1]	@ zero_extendqisi2
 8176 7af8 0030D5E5 		ldrb	r3, [r5, #0]	@ zero_extendqisi2
 8177 7afc 0020D4E5 		ldrb	r2, [r4, #0]	@ zero_extendqisi2
 8178 7b00 033081E0 		add	r3, r1, r3
 8179 7b04 FF3003E2 		and	r3, r3, #255
 8180 7b08 0030C5E5 		strb	r3, [r5, #0]
 8181 7b0c 023083E0 		add	r3, r3, r2
 8182 7b10 0030C4E5 		strb	r3, [r4, #0]
 8183 7b14 100A1FE5 		ldr	r0, .L273+248
 8184 7b18 FEFFFFEB 		bl	uart_transmit
 8185 7b1c 0210D6E5 		ldrb	r1, [r6, #2]	@ zero_extendqisi2
 8186 7b20 0030D5E5 		ldrb	r3, [r5, #0]	@ zero_extendqisi2
 8187 7b24 0020D4E5 		ldrb	r2, [r4, #0]	@ zero_extendqisi2
 8188 7b28 033081E0 		add	r3, r1, r3
 8189 7b2c FF3003E2 		and	r3, r3, #255
 8190 7b30 0030C5E5 		strb	r3, [r5, #0]
 8191 7b34 023083E0 		add	r3, r3, r2
 8192 7b38 0030C4E5 		strb	r3, [r4, #0]
 8193 7b3c 380A1FE5 		ldr	r0, .L273+248
 8194 7b40 FEFFFFEB 		bl	uart_transmit
 8195 7b44 0310D6E5 		ldrb	r1, [r6, #3]	@ zero_extendqisi2
 8196 7b48 0030D5E5 		ldrb	r3, [r5, #0]	@ zero_extendqisi2
 8197 7b4c 0020D4E5 		ldrb	r2, [r4, #0]	@ zero_extendqisi2
 8198 7b50 033081E0 		add	r3, r1, r3
 8199 7b54 FF3003E2 		and	r3, r3, #255
 8200 7b58 C46A1FE5 		ldr	r6, .L273+136
 8201 7b5c 0030C5E5 		strb	r3, [r5, #0]
 8202 7b60 023083E0 		add	r3, r3, r2
 8203 7b64 0030C4E5 		strb	r3, [r4, #0]
 8204 7b68 640A1FE5 		ldr	r0, .L273+248
 8205 7b6c FEFFFFEB 		bl	uart_transmit
 8206 7b70 0010D6E5 		ldrb	r1, [r6, #0]	@ zero_extendqisi2
 8207 7b74 0030D5E5 		ldrb	r3, [r5, #0]	@ zero_extendqisi2
 8208 7b78 0020D4E5 		ldrb	r2, [r4, #0]	@ zero_extendqisi2
 8209 7b7c 033081E0 		add	r3, r1, r3
 8210 7b80 FF3003E2 		and	r3, r3, #255
 8211 7b84 0030C5E5 		strb	r3, [r5, #0]
 8212 7b88 023083E0 		add	r3, r3, r2
 8213 7b8c 0030C4E5 		strb	r3, [r4, #0]
 8214 7b90 8C0A1FE5 		ldr	r0, .L273+248
 8215 7b94 FEFFFFEB 		bl	uart_transmit
 8216 7b98 0110D6E5 		ldrb	r1, [r6, #1]	@ zero_extendqisi2
 8217 7b9c 0030D5E5 		ldrb	r3, [r5, #0]	@ zero_extendqisi2
 8218 7ba0 0020D4E5 		ldrb	r2, [r4, #0]	@ zero_extendqisi2
 8219 7ba4 033081E0 		add	r3, r1, r3
 8220 7ba8 FF3003E2 		and	r3, r3, #255
 8221 7bac 0030C5E5 		strb	r3, [r5, #0]
 8222 7bb0 023083E0 		add	r3, r3, r2
 8223 7bb4 0030C4E5 		strb	r3, [r4, #0]
 8224 7bb8 B40A1FE5 		ldr	r0, .L273+248
 8225 7bbc FEFFFFEB 		bl	uart_transmit
 8226 7bc0 0210D6E5 		ldrb	r1, [r6, #2]	@ zero_extendqisi2
 8227 7bc4 0030D5E5 		ldrb	r3, [r5, #0]	@ zero_extendqisi2
 8228 7bc8 0020D4E5 		ldrb	r2, [r4, #0]	@ zero_extendqisi2
 8229 7bcc 033081E0 		add	r3, r1, r3
 8230 7bd0 FF3003E2 		and	r3, r3, #255
 8231 7bd4 0030C5E5 		strb	r3, [r5, #0]
 8232 7bd8 023083E0 		add	r3, r3, r2
 8233 7bdc 0030C4E5 		strb	r3, [r4, #0]
 8234 7be0 DC0A1FE5 		ldr	r0, .L273+248
 8235 7be4 FEFFFFEB 		bl	uart_transmit
 8236 7be8 0310D6E5 		ldrb	r1, [r6, #3]	@ zero_extendqisi2
 8237 7bec 0030D5E5 		ldrb	r3, [r5, #0]	@ zero_extendqisi2
 8238 7bf0 0020D4E5 		ldrb	r2, [r4, #0]	@ zero_extendqisi2
 8239 7bf4 033081E0 		add	r3, r1, r3
 8240 7bf8 FF3003E2 		and	r3, r3, #255
 8241 7bfc 0030C5E5 		strb	r3, [r5, #0]
 8242 7c00 023083E0 		add	r3, r3, r2
 8243 7c04 0030C4E5 		strb	r3, [r4, #0]
 8244 7c08 040B1FE5 		ldr	r0, .L273+248
 8245 7c0c FEFFFFEB 		bl	uart_transmit
 8246 7c10 783B1FE5 		ldr	r3, .L273+140
 8247 7c14 0010D3E5 		ldrb	r1, [r3, #0]	@ zero_extendqisi2
 8248 7c18 0030D5E5 		ldrb	r3, [r5, #0]	@ zero_extendqisi2
 8249 7c1c 0020D4E5 		ldrb	r2, [r4, #0]	@ zero_extendqisi2
 8250 7c20 033081E0 		add	r3, r1, r3
 8251 7c24 FF3003E2 		and	r3, r3, #255
 8252 7c28 0030C5E5 		strb	r3, [r5, #0]
 8253 7c2c 023083E0 		add	r3, r3, r2
 8254 7c30 0030C4E5 		strb	r3, [r4, #0]
 8255 7c34 300B1FE5 		ldr	r0, .L273+248
 8256 7c38 FEFFFFEB 		bl	uart_transmit
 8257 7c3c 0010D5E5 		ldrb	r1, [r5, #0]	@ zero_extendqisi2
 8258 7c40 3C0B1FE5 		ldr	r0, .L273+248
 8259 7c44 FEFFFFEB 		bl	uart_transmit
 8260 7c48 440B1FE5 		ldr	r0, .L273+248
 8261 7c4c 0010D4E5 		ldrb	r1, [r4, #0]	@ zero_extendqisi2
 8262 7c50 FEFFFFEB 		bl	uart_transmit
 8263 7c54 030000EA 		b	.L99
 8264              	.L177:
 8265 7c58 BC3B1FE5 		ldr	r3, .L273+144
 8266 7c5c 0020D3E5 		ldrb	r2, [r3, #0]	@ zero_extendqisi2
 8267 7c60 012082E2 		add	r2, r2, #1
 8268 7c64 0020C3E5 		strb	r2, [r3, #0]
 8269              	.L99:
 8270 7c68 C83B1FE5 		ldr	r3, .L273+148
 8271 7c6c 0030D3E5 		ldrb	r3, [r3, #0]	@ zero_extendqisi2
 8272 7c70 020053E3 		cmp	r3, #2
 8273 7c74 1308001A 		bne	.L178
 8274 7c78 A43B1FE5 		ldr	r3, .L273+200
 8275 7c7c B020D3E1 		ldrh	r2, [r3, #0]
 8276 7c80 012082E2 		add	r2, r2, #1
 8277 7c84 0228A0E1 		mov	r2, r2, asl #16
 8278 7c88 2228A0E1 		mov	r2, r2, lsr #16
 8279 7c8c 4B0F52E3 		cmp	r2, #300
 8280 7c90 B020C3E1 		strh	r2, [r3, #0]	@ movhi
 8281 7c94 0020A023 		movcs	r2, #0
 8282 7c98 B020C321 		strcsh	r2, [r3, #0]	@ movhi
 8283 7c9c BC3B1FE5 		ldr	r3, .L273+212
 8284 7ca0 B020D3E1 		ldrh	r2, [r3, #0]
 8285 7ca4 012082E2 		add	r2, r2, #1
 8286 7ca8 041C1FE5 		ldr	r1, .L273+152
 8287 7cac 0228A0E1 		mov	r2, r2, asl #16
 8288 7cb0 2228A0E1 		mov	r2, r2, lsr #16
 8289 7cb4 010052E1 		cmp	r2, r1
 8290 7cb8 B020C3E1 		strh	r2, [r3, #0]	@ movhi
 8291 7cbc 0020A083 		movhi	r2, #0
 8292 7cc0 B020C381 		strhih	r2, [r3, #0]	@ movhi
 8293 7cc4 1C3C1FE5 		ldr	r3, .L273+156
 8294 7cc8 B020D3E1 		ldrh	r2, [r3, #0]
 8295 7ccc 012082E2 		add	r2, r2, #1
 8296 7cd0 241C1FE5 		ldr	r1, .L273+160
 8297 7cd4 0228A0E1 		mov	r2, r2, asl #16
 8298 7cd8 2228A0E1 		mov	r2, r2, lsr #16
 8299 7cdc 010052E1 		cmp	r2, r1
 8300 7ce0 B020C3E1 		strh	r2, [r3, #0]	@ movhi
 8301 7ce4 0020A083 		movhi	r2, #0
 8302 7ce8 B020C381 		strhih	r2, [r3, #0]	@ movhi
 8303 7cec 3C3C1FE5 		ldr	r3, .L273+164
 8304 7cf0 B020D3E1 		ldrh	r2, [r3, #0]
 8305 7cf4 012082E2 		add	r2, r2, #1
 8306 7cf8 0228A0E1 		mov	r2, r2, asl #16
 8307 7cfc 2228A0E1 		mov	r2, r2, lsr #16
 8308 7d00 510F52E3 		cmp	r2, #324
 8309 7d04 B020C3E1 		strh	r2, [r3, #0]	@ movhi
 8310 7d08 0020A023 		movcs	r2, #0
 8311 7d0c B020C321 		strcsh	r2, [r3, #0]	@ movhi
 8312 7d10 5C3C1FE5 		ldr	r3, .L273+168
 8313 7d14 B020D3E1 		ldrh	r2, [r3, #0]
 8314 7d18 012082E2 		add	r2, r2, #1
 8315 7d1c 641C1FE5 		ldr	r1, .L273+172
 8316 7d20 0228A0E1 		mov	r2, r2, asl #16
 8317 7d24 2228A0E1 		mov	r2, r2, lsr #16
 8318 7d28 010052E1 		cmp	r2, r1
 8319 7d2c B020C3E1 		strh	r2, [r3, #0]	@ movhi
 8320 7d30 0020A083 		movhi	r2, #0
 8321 7d34 B020C381 		strhih	r2, [r3, #0]	@ movhi
 8322 7d38 7C3C1FE5 		ldr	r3, .L273+176
 8323 7d3c B020D3E1 		ldrh	r2, [r3, #0]
 8324 7d40 012082E2 		add	r2, r2, #1
 8325 7d44 841C1FE5 		ldr	r1, .L273+180
 8326 7d48 0228A0E1 		mov	r2, r2, asl #16
 8327 7d4c 2228A0E1 		mov	r2, r2, lsr #16
 8328 7d50 010052E1 		cmp	r2, r1
 8329 7d54 B020C3E1 		strh	r2, [r3, #0]	@ movhi
 8330 7d58 0020A083 		movhi	r2, #0
 8331 7d5c B020C381 		strhih	r2, [r3, #0]	@ movhi
 8332 7d60 9C3C1FE5 		ldr	r3, .L273+184
 8333 7d64 B020D3E1 		ldrh	r2, [r3, #0]
 8334 7d68 012082E2 		add	r2, r2, #1
 8335 7d6c 0228A0E1 		mov	r2, r2, asl #16
 8336 7d70 2228A0E1 		mov	r2, r2, lsr #16
 8337 7d74 690F52E3 		cmp	r2, #420
 8338 7d78 B020C3E1 		strh	r2, [r3, #0]	@ movhi
 8339 7d7c 0020A023 		movcs	r2, #0
 8340 7d80 B020C321 		strcsh	r2, [r3, #0]	@ movhi
 8341 7d84 BC3C1FE5 		ldr	r3, .L273+188
 8342 7d88 B020D3E1 		ldrh	r2, [r3, #0]
 8343 7d8c 012082E2 		add	r2, r2, #1
 8344 7d90 0228A0E1 		mov	r2, r2, asl #16
 8345 7d94 C81C1FE5 		ldr	r1, .L273+192
 8346 7d98 2228A0E1 		mov	r2, r2, lsr #16
 8347 7d9c 010052E1 		cmp	r2, r1
 8348 7da0 B020C3E1 		strh	r2, [r3, #0]	@ movhi
 8349 7da4 0020A083 		movhi	r2, #0
 8350 7da8 B020C381 		strhih	r2, [r3, #0]	@ movhi
 8351 7dac DC3C1FE5 		ldr	r3, .L273+196
 8352 7db0 B020D3E1 		ldrh	r2, [r3, #0]
 8353 7db4 012082E2 		add	r2, r2, #1
 8354 7db8 0228A0E1 		mov	r2, r2, asl #16
 8355 7dbc 2228A0E1 		mov	r2, r2, lsr #16
 8356 7dc0 990F52E3 		cmp	r2, #612
 8357 7dc4 B020C3E1 		strh	r2, [r3, #0]	@ movhi
 8358 7dc8 0020A023 		movcs	r2, #0
 8359 7dcc B020C321 		strcsh	r2, [r3, #0]	@ movhi
 8360 7dd0 FC3C1FE5 		ldr	r3, .L273+200
 8361 7dd4 B060D3E1 		ldrh	r6, [r3, #0]
 8362 7dd8 000056E3 		cmp	r6, #0
 8363 7ddc 4A00001A 		bne	.L188
 8364 7de0 DC0C1FE5 		ldr	r0, .L273+248
 8365 7de4 1710A0E3 		mov	r1, #23
 8366 7de8 FEFFFFEB 		bl	uart_check_free_space
 8367 7dec 000050E3 		cmp	r0, #0
 8368 7df0 4100000A 		beq	.L189
 8369 7df4 003D1FE5 		ldr	r3, .L273+232
 8370 7df8 B020D3E1 		ldrh	r2, [r3, #0]
 8371 7dfc 172082E2 		add	r2, r2, #23
 8372 7e00 B020C3E1 		strh	r2, [r3, #0]	@ movhi
 8373 7e04 0C3D1FE5 		ldr	r3, .L273+236
 8374 7e08 B020D3E1 		ldrh	r2, [r3, #0]
 8375 7e0c 012082E2 		add	r2, r2, #1
 8376 7e10 B020C3E1 		strh	r2, [r3, #0]	@ movhi
 8377 7e14 100D1FE5 		ldr	r0, .L273+248
 8378 7e18 9910A0E3 		mov	r1, #153
 8379 7e1c FEFFFFEB 		bl	uart_transmit
 8380 7e20 245D1FE5 		ldr	r5, .L273+240
 8381 7e24 200D1FE5 		ldr	r0, .L273+248
 8382 7e28 1710A0E3 		mov	r1, #23
 8383 7e2c FEFFFFEB 		bl	uart_transmit
 8384 7e30 304D1FE5 		ldr	r4, .L273+244
 8385 7e34 1830A0E3 		mov	r3, #24
 8386 7e38 0030C5E5 		strb	r3, [r5, #0]
 8387 7e3c 2F30A0E3 		mov	r3, #47
 8388 7e40 0030C4E5 		strb	r3, [r4, #0]
 8389 7e44 400D1FE5 		ldr	r0, .L273+248
 8390 7e48 0110A0E3 		mov	r1, #1
 8391 7e4c FEFFFFEB 		bl	uart_transmit
 8392 7e50 0030D5E5 		ldrb	r3, [r5, #0]	@ zero_extendqisi2
 8393 7e54 0020D4E5 		ldrb	r2, [r4, #0]	@ zero_extendqisi2
 8394 7e58 023083E2 		add	r3, r3, #2
 8395 7e5c FF3003E2 		and	r3, r3, #255
 8396 7e60 0030C5E5 		strb	r3, [r5, #0]
 8397 7e64 023083E0 		add	r3, r3, r2
 8398 7e68 0030C4E5 		strb	r3, [r4, #0]
 8399 7e6c 680D1FE5 		ldr	r0, .L273+248
 8400 7e70 0210A0E3 		mov	r1, #2
 8401 7e74 FEFFFFEB 		bl	uart_transmit
 8402 7e78 0030D5E5 		ldrb	r3, [r5, #0]	@ zero_extendqisi2
 8403 7e7c 0020D4E5 		ldrb	r2, [r4, #0]	@ zero_extendqisi2
 8404 7e80 103083E2 		add	r3, r3, #16
 8405 7e84 FF3003E2 		and	r3, r3, #255
 8406 7e88 0030C5E5 		strb	r3, [r5, #0]
 8407 7e8c 023083E0 		add	r3, r3, r2
 8408 7e90 0030C4E5 		strb	r3, [r4, #0]
 8409 7e94 900D1FE5 		ldr	r0, .L273+248
 8410 7e98 1010A0E3 		mov	r1, #16
 8411 7e9c FEFFFFEB 		bl	uart_transmit
 8412 7ea0 C87D1FE5 		ldr	r7, .L273+204
 8413              	.L190:
 8414 7ea4 0610D7E7 		ldrb	r1, [r7, r6]	@ zero_extendqisi2
 8415 7ea8 0030D5E5 		ldrb	r3, [r5, #0]	@ zero_extendqisi2
 8416 7eac 0020D4E5 		ldrb	r2, [r4, #0]	@ zero_extendqisi2
 8417 7eb0 033081E0 		add	r3, r1, r3
 8418 7eb4 FF3003E2 		and	r3, r3, #255
 8419 7eb8 0030C5E5 		strb	r3, [r5, #0]
 8420 7ebc 023083E0 		add	r3, r3, r2
 8421 7ec0 0030C4E5 		strb	r3, [r4, #0]
 8422 7ec4 C00D1FE5 		ldr	r0, .L273+248
 8423 7ec8 016086E2 		add	r6, r6, #1
 8424 7ecc FEFFFFEB 		bl	uart_transmit
 8425 7ed0 100056E3 		cmp	r6, #16
 8426 7ed4 F2FFFF1A 		bne	.L190
 8427 7ed8 DC3D1FE5 		ldr	r3, .L273+240
 8428 7edc D80D1FE5 		ldr	r0, .L273+248
 8429 7ee0 0010D3E5 		ldrb	r1, [r3, #0]	@ zero_extendqisi2
 8430 7ee4 FEFFFFEB 		bl	uart_transmit
 8431 7ee8 E83D1FE5 		ldr	r3, .L273+244
 8432 7eec E80D1FE5 		ldr	r0, .L273+248
 8433 7ef0 0010D3E5 		ldrb	r1, [r3, #0]	@ zero_extendqisi2
 8434 7ef4 FEFFFFEB 		bl	uart_transmit
 8435 7ef8 030000EA 		b	.L188
 8436              	.L189:
 8437 7efc 203E1FE5 		ldr	r3, .L273+208
 8438 7f00 0020D3E5 		ldrb	r2, [r3, #0]	@ zero_extendqisi2
 8439 7f04 012082E2 		add	r2, r2, #1
 8440 7f08 0020C3E5 		strb	r2, [r3, #0]
 8441              	.L188:
 8442 7f0c 2C3E1FE5 		ldr	r3, .L273+212
 8443 7f10 B030D3E1 		ldrh	r3, [r3, #0]
 8444 7f14 060053E3 		cmp	r3, #6
 8445 7f18 FA01001A 		bne	.L191
 8446 7f1c 384E1FE5 		ldr	r4, .L273+216
 8447 7f20 403094E5 		ldr	r3, [r4, #64]
 8448 7f24 480094E5 		ldr	r0, [r4, #72]
 8449 7f28 003063E2 		rsb	r3, r3, #0
 8450 7f2c BC30CDE1 		strh	r3, [sp, #12]	@ movhi
 8451 7f30 FEFFFFEB 		bl	__aeabi_i2d
 8452 7f34 4C2E1FE5 		ldr	r2, .L273+220
 8453 7f38 4C3E1FE5 		ldr	r3, .L273+224
 8454 7f3c FEFFFFEB 		bl	__aeabi_dmul
 8455 7f40 0020A0E3 		mov	r2, #0
 8456 7f44 543E1FE5 		ldr	r3, .L273+228
 8457 7f48 FEFFFFEB 		bl	__aeabi_ddiv
 8458 7f4c FEFFFFEB 		bl	__aeabi_d2iz
 8459 7f50 2110A0E3 		mov	r1, #33
 8460 7f54 BE00CDE1 		strh	r0, [sp, #14]	@ movhi
 8461 7f58 540E1FE5 		ldr	r0, .L273+248
 8462 7f5c FEFFFFEB 		bl	uart_check_free_space
 8463 7f60 000050E3 		cmp	r0, #0
 8464 7f64 3601000A 		beq	.L192
 8465 7f68 743E1FE5 		ldr	r3, .L273+232
 8466 7f6c B020D3E1 		ldrh	r2, [r3, #0]
 8467 7f70 212082E2 		add	r2, r2, #33
 8468 7f74 B020C3E1 		strh	r2, [r3, #0]	@ movhi
 8469 7f78 803E1FE5 		ldr	r3, .L273+236
 8470 7f7c B020D3E1 		ldrh	r2, [r3, #0]
 8471 7f80 012082E2 		add	r2, r2, #1
 8472 7f84 B020C3E1 		strh	r2, [r3, #0]	@ movhi
 8473 7f88 840E1FE5 		ldr	r0, .L273+248
 8474 7f8c 9910A0E3 		mov	r1, #153
 8475 7f90 946E1FE5 		ldr	r6, .L273+240
 8476 7f94 FEFFFFEB 		bl	uart_transmit
 8477 7f98 940E1FE5 		ldr	r0, .L273+248
 8478 7f9c 2110A0E3 		mov	r1, #33
 8479 7fa0 A05E1FE5 		ldr	r5, .L273+244
 8480 7fa4 FEFFFFEB 		bl	uart_transmit
 8481 7fa8 2230A0E3 		mov	r3, #34
 8482 7fac 0030C6E5 		strb	r3, [r6, #0]
 8483 7fb0 4330A0E3 		mov	r3, #67
 8484 7fb4 0030C5E5 		strb	r3, [r5, #0]
 8485 7fb8 B40E1FE5 		ldr	r0, .L273+248
 8486 7fbc 0110A0E3 		mov	r1, #1
 8487 7fc0 FEFFFFEB 		bl	uart_transmit
 8488 7fc4 0030D6E5 		ldrb	r3, [r6, #0]	@ zero_extendqisi2
 8489 7fc8 0020D5E5 		ldrb	r2, [r5, #0]	@ zero_extendqisi2
 8490 7fcc 083083E2 		add	r3, r3, #8
 8491 7fd0 FF3003E2 		and	r3, r3, #255
 8492 7fd4 0030C6E5 		strb	r3, [r6, #0]
 8493 7fd8 023083E0 		add	r3, r3, r2
 8494 7fdc 0030C5E5 		strb	r3, [r5, #0]
 8495 7fe0 DC0E1FE5 		ldr	r0, .L273+248
 8496 7fe4 0810A0E3 		mov	r1, #8
 8497 7fe8 FEFFFFEB 		bl	uart_transmit
 8498 7fec 5B10D4E5 		ldrb	r1, [r4, #91]	@ zero_extendqisi2
 8499 7ff0 0030D6E5 		ldrb	r3, [r6, #0]	@ zero_extendqisi2
 8500 7ff4 0020D5E5 		ldrb	r2, [r5, #0]	@ zero_extendqisi2
 8501 7ff8 033081E0 		add	r3, r1, r3
 8502 7ffc FF3003E2 		and	r3, r3, #255
 8503 8000 0030C6E5 		strb	r3, [r6, #0]
 8504 8004 023083E0 		add	r3, r3, r2
 8505 8008 0030C5E5 		strb	r3, [r5, #0]
 8506 800c 080F1FE5 		ldr	r0, .L273+248
 8507 8010 FEFFFFEB 		bl	uart_transmit
 8508 8014 1C10D4E5 		ldrb	r1, [r4, #28]	@ zero_extendqisi2
 8509 8018 0030D6E5 		ldrb	r3, [r6, #0]	@ zero_extendqisi2
 8510 801c 0020D5E5 		ldrb	r2, [r5, #0]	@ zero_extendqisi2
 8511 8020 033081E0 		add	r3, r1, r3
 8512 8024 FF3003E2 		and	r3, r3, #255
 8513 8028 0030C6E5 		strb	r3, [r6, #0]
 8514 802c 023083E0 		add	r3, r3, r2
 8515 8030 0030C5E5 		strb	r3, [r5, #0]
 8516 8034 300F1FE5 		ldr	r0, .L273+248
 8517 8038 FEFFFFEB 		bl	uart_transmit
 8518 803c 1D10D4E5 		ldrb	r1, [r4, #29]	@ zero_extendqisi2
 8519 8040 0030D6E5 		ldrb	r3, [r6, #0]	@ zero_extendqisi2
 8520 8044 0020D5E5 		ldrb	r2, [r5, #0]	@ zero_extendqisi2
 8521 8048 033081E0 		add	r3, r1, r3
 8522 804c FF3003E2 		and	r3, r3, #255
 8523 8050 0030C6E5 		strb	r3, [r6, #0]
 8524 8054 023083E0 		add	r3, r3, r2
 8525 8058 0030C5E5 		strb	r3, [r5, #0]
 8526 805c 580F1FE5 		ldr	r0, .L273+248
 8527 8060 FEFFFFEB 		bl	uart_transmit
 8528 8064 1E10D4E5 		ldrb	r1, [r4, #30]	@ zero_extendqisi2
 8529 8068 0030D6E5 		ldrb	r3, [r6, #0]	@ zero_extendqisi2
 8530 806c 0020D5E5 		ldrb	r2, [r5, #0]	@ zero_extendqisi2
 8531 8070 033081E0 		add	r3, r1, r3
 8532 8074 FF3003E2 		and	r3, r3, #255
 8533 8078 0030C6E5 		strb	r3, [r6, #0]
 8534 807c 023083E0 		add	r3, r3, r2
 8535 8080 0030C5E5 		strb	r3, [r5, #0]
 8536 8084 800F1FE5 		ldr	r0, .L273+248
 8537 8088 FEFFFFEB 		bl	uart_transmit
 8538 808c 1F10D4E5 		ldrb	r1, [r4, #31]	@ zero_extendqisi2
 8539 8090 0030D6E5 		ldrb	r3, [r6, #0]	@ zero_extendqisi2
 8540 8094 0020D5E5 		ldrb	r2, [r5, #0]	@ zero_extendqisi2
 8541 8098 033081E0 		add	r3, r1, r3
 8542 809c FF3003E2 		and	r3, r3, #255
 8543 80a0 0030C6E5 		strb	r3, [r6, #0]
 8544 80a4 023083E0 		add	r3, r3, r2
 8545 80a8 0030C5E5 		strb	r3, [r5, #0]
 8546 80ac A80F1FE5 		ldr	r0, .L273+248
 8547 80b0 FEFFFFEB 		bl	uart_transmit
 8548 80b4 1810D4E5 		ldrb	r1, [r4, #24]	@ zero_extendqisi2
 8549 80b8 0030D6E5 		ldrb	r3, [r6, #0]	@ zero_extendqisi2
 8550 80bc 0020D5E5 		ldrb	r2, [r5, #0]	@ zero_extendqisi2
 8551 80c0 033081E0 		add	r3, r1, r3
 8552 80c4 FF3003E2 		and	r3, r3, #255
 8553 80c8 0030C6E5 		strb	r3, [r6, #0]
 8554 80cc 023083E0 		add	r3, r3, r2
 8555 80d0 0030C5E5 		strb	r3, [r5, #0]
 8556 80d4 D00F1FE5 		ldr	r0, .L273+248
 8557 80d8 FEFFFFEB 		bl	uart_transmit
 8558 80dc 1910D4E5 		ldrb	r1, [r4, #25]	@ zero_extendqisi2
 8559 80e0 0030D6E5 		ldrb	r3, [r6, #0]	@ zero_extendqisi2
 8560 80e4 0020D5E5 		ldrb	r2, [r5, #0]	@ zero_extendqisi2
 8561 80e8 033081E0 		add	r3, r1, r3
 8562 80ec FF3003E2 		and	r3, r3, #255
 8563 80f0 0030C6E5 		strb	r3, [r6, #0]
 8564 80f4 023083E0 		add	r3, r3, r2
 8565 80f8 0030C5E5 		strb	r3, [r5, #0]
 8566 80fc F80F1FE5 		ldr	r0, .L273+248
 8567 8100 FEFFFFEB 		bl	uart_transmit
 8568 8104 1A10D4E5 		ldrb	r1, [r4, #26]	@ zero_extendqisi2
 8569 8108 0030D6E5 		ldrb	r3, [r6, #0]	@ zero_extendqisi2
 8570 810c 0020D5E5 		ldrb	r2, [r5, #0]	@ zero_extendqisi2
 8571 8110 033081E0 		add	r3, r1, r3
 8572 8114 FF3003E2 		and	r3, r3, #255
 8573 8118 0030C6E5 		strb	r3, [r6, #0]
 8574 811c 023083E0 		add	r3, r3, r2
 8575 8120 0030C5E5 		strb	r3, [r5, #0]
 8576 8124 CC0F9FE5 		ldr	r0, .L275
 8577 8128 FEFFFFEB 		bl	uart_transmit
 8578 812c 1B10D4E5 		ldrb	r1, [r4, #27]	@ zero_extendqisi2
 8579 8130 0030D6E5 		ldrb	r3, [r6, #0]	@ zero_extendqisi2
 8580 8134 0020D5E5 		ldrb	r2, [r5, #0]	@ zero_extendqisi2
 8581 8138 033081E0 		add	r3, r1, r3
 8582 813c FF3003E2 		and	r3, r3, #255
 8583 8140 0030C6E5 		strb	r3, [r6, #0]
 8584 8144 023083E0 		add	r3, r3, r2
 8585 8148 0030C5E5 		strb	r3, [r5, #0]
 8586 814c A40F9FE5 		ldr	r0, .L275
 8587 8150 FEFFFFEB 		bl	uart_transmit
 8588 8154 0E10DDE5 		ldrb	r1, [sp, #14]	@ zero_extendqisi2
 8589 8158 0030D6E5 		ldrb	r3, [r6, #0]	@ zero_extendqisi2
 8590 815c 0020D5E5 		ldrb	r2, [r5, #0]	@ zero_extendqisi2
 8591 8160 033081E0 		add	r3, r1, r3
 8592 8164 FF3003E2 		and	r3, r3, #255
 8593 8168 0030C6E5 		strb	r3, [r6, #0]
 8594 816c 023083E0 		add	r3, r3, r2
 8595 8170 0030C5E5 		strb	r3, [r5, #0]
 8596 8174 7C0F9FE5 		ldr	r0, .L275
 8597 8178 FEFFFFEB 		bl	uart_transmit
 8598 817c 0F10DDE5 		ldrb	r1, [sp, #15]	@ zero_extendqisi2
 8599 8180 0030D6E5 		ldrb	r3, [r6, #0]	@ zero_extendqisi2
 8600 8184 0020D5E5 		ldrb	r2, [r5, #0]	@ zero_extendqisi2
 8601 8188 033081E0 		add	r3, r1, r3
 8602 818c FF3003E2 		and	r3, r3, #255
 8603 8190 0030C6E5 		strb	r3, [r6, #0]
 8604 8194 023083E0 		add	r3, r3, r2
 8605 8198 0030C5E5 		strb	r3, [r5, #0]
 8606 819c 540F9FE5 		ldr	r0, .L275
 8607 81a0 FEFFFFEB 		bl	uart_transmit
 8608 81a4 2810D4E5 		ldrb	r1, [r4, #40]	@ zero_extendqisi2
 8609 81a8 0030D6E5 		ldrb	r3, [r6, #0]	@ zero_extendqisi2
 8610 81ac 0020D5E5 		ldrb	r2, [r5, #0]	@ zero_extendqisi2
 8611 81b0 033081E0 		add	r3, r1, r3
 8612 81b4 FF3003E2 		and	r3, r3, #255
 8613 81b8 0030C6E5 		strb	r3, [r6, #0]
 8614 81bc 023083E0 		add	r3, r3, r2
 8615 81c0 0030C5E5 		strb	r3, [r5, #0]
 8616 81c4 2C0F9FE5 		ldr	r0, .L275
 8617 81c8 FEFFFFEB 		bl	uart_transmit
 8618 81cc 2910D4E5 		ldrb	r1, [r4, #41]	@ zero_extendqisi2
 8619 81d0 0030D6E5 		ldrb	r3, [r6, #0]	@ zero_extendqisi2
 8620 81d4 0020D5E5 		ldrb	r2, [r5, #0]	@ zero_extendqisi2
 8621 81d8 033081E0 		add	r3, r1, r3
 8622 81dc FF3003E2 		and	r3, r3, #255
 8623 81e0 0030C6E5 		strb	r3, [r6, #0]
 8624 81e4 023083E0 		add	r3, r3, r2
 8625 81e8 0030C5E5 		strb	r3, [r5, #0]
 8626 81ec 040F9FE5 		ldr	r0, .L275
 8627 81f0 FEFFFFEB 		bl	uart_transmit
 8628 81f4 2A10D4E5 		ldrb	r1, [r4, #42]	@ zero_extendqisi2
 8629 81f8 0030D6E5 		ldrb	r3, [r6, #0]	@ zero_extendqisi2
 8630 81fc 0020D5E5 		ldrb	r2, [r5, #0]	@ zero_extendqisi2
 8631 8200 033081E0 		add	r3, r1, r3
 8632 8204 FF3003E2 		and	r3, r3, #255
 8633 8208 0030C6E5 		strb	r3, [r6, #0]
 8634 820c 023083E0 		add	r3, r3, r2
 8635 8210 0030C5E5 		strb	r3, [r5, #0]
 8636 8214 DC0E9FE5 		ldr	r0, .L275
 8637 8218 FEFFFFEB 		bl	uart_transmit
 8638 821c 2B10D4E5 		ldrb	r1, [r4, #43]	@ zero_extendqisi2
 8639 8220 0030D6E5 		ldrb	r3, [r6, #0]	@ zero_extendqisi2
 8640 8224 0020D5E5 		ldrb	r2, [r5, #0]	@ zero_extendqisi2
 8641 8228 033081E0 		add	r3, r1, r3
 8642 822c FF3003E2 		and	r3, r3, #255
 8643 8230 0030C6E5 		strb	r3, [r6, #0]
 8644 8234 023083E0 		add	r3, r3, r2
 8645 8238 0030C5E5 		strb	r3, [r5, #0]
 8646 823c B40E9FE5 		ldr	r0, .L275
 8647 8240 FEFFFFEB 		bl	uart_transmit
 8648 8244 4410D4E5 		ldrb	r1, [r4, #68]	@ zero_extendqisi2
 8649 8248 0030D6E5 		ldrb	r3, [r6, #0]	@ zero_extendqisi2
 8650 824c 0020D5E5 		ldrb	r2, [r5, #0]	@ zero_extendqisi2
 8651 8250 033081E0 		add	r3, r1, r3
 8652 8254 FF3003E2 		and	r3, r3, #255
 8653 8258 0030C6E5 		strb	r3, [r6, #0]
 8654 825c 023083E0 		add	r3, r3, r2
 8655 8260 0030C5E5 		strb	r3, [r5, #0]
 8656 8264 8C0E9FE5 		ldr	r0, .L275
 8657 8268 FEFFFFEB 		bl	uart_transmit
 8658 826c 4510D4E5 		ldrb	r1, [r4, #69]	@ zero_extendqisi2
 8659 8270 0030D6E5 		ldrb	r3, [r6, #0]	@ zero_extendqisi2
 8660 8274 0020D5E5 		ldrb	r2, [r5, #0]	@ zero_extendqisi2
 8661 8278 033081E0 		add	r3, r1, r3
 8662 827c FF3003E2 		and	r3, r3, #255
 8663 8280 0030C6E5 		strb	r3, [r6, #0]
 8664 8284 023083E0 		add	r3, r3, r2
 8665 8288 0030C5E5 		strb	r3, [r5, #0]
 8666 828c 640E9FE5 		ldr	r0, .L275
 8667 8290 FEFFFFEB 		bl	uart_transmit
 8668 8294 0C10DDE5 		ldrb	r1, [sp, #12]	@ zero_extendqisi2
 8669 8298 0030D6E5 		ldrb	r3, [r6, #0]	@ zero_extendqisi2
 8670 829c 0020D5E5 		ldrb	r2, [r5, #0]	@ zero_extendqisi2
 8671 82a0 033081E0 		add	r3, r1, r3
 8672 82a4 FF3003E2 		and	r3, r3, #255
 8673 82a8 0030C6E5 		strb	r3, [r6, #0]
 8674 82ac 023083E0 		add	r3, r3, r2
 8675 82b0 0030C5E5 		strb	r3, [r5, #0]
 8676 82b4 3C0E9FE5 		ldr	r0, .L275
 8677 82b8 FEFFFFEB 		bl	uart_transmit
 8678 82bc 0D10DDE5 		ldrb	r1, [sp, #13]	@ zero_extendqisi2
 8679 82c0 0030D6E5 		ldrb	r3, [r6, #0]	@ zero_extendqisi2
 8680 82c4 0020D5E5 		ldrb	r2, [r5, #0]	@ zero_extendqisi2
 8681 82c8 033081E0 		add	r3, r1, r3
 8682 82cc FF3003E2 		and	r3, r3, #255
 8683 82d0 0030C6E5 		strb	r3, [r6, #0]
 8684 82d4 023083E0 		add	r3, r3, r2
 8685 82d8 0030C5E5 		strb	r3, [r5, #0]
 8686 82dc 140E9FE5 		ldr	r0, .L275
 8687 82e0 FEFFFFEB 		bl	uart_transmit
 8688 82e4 5C10D4E5 		ldrb	r1, [r4, #92]	@ zero_extendqisi2
 8689 82e8 0030D6E5 		ldrb	r3, [r6, #0]	@ zero_extendqisi2
 8690 82ec 0020D5E5 		ldrb	r2, [r5, #0]	@ zero_extendqisi2
 8691 82f0 033081E0 		add	r3, r1, r3
 8692 82f4 FF3003E2 		and	r3, r3, #255
 8693 82f8 0030C6E5 		strb	r3, [r6, #0]
 8694 82fc 023083E0 		add	r3, r3, r2
 8695 8300 0030C5E5 		strb	r3, [r5, #0]
 8696 8304 EC0D9FE5 		ldr	r0, .L275
 8697 8308 FEFFFFEB 		bl	uart_transmit
 8698 830c 5D10D4E5 		ldrb	r1, [r4, #93]	@ zero_extendqisi2
 8699 8310 0030D6E5 		ldrb	r3, [r6, #0]	@ zero_extendqisi2
 8700 8314 0020D5E5 		ldrb	r2, [r5, #0]	@ zero_extendqisi2
 8701 8318 033081E0 		add	r3, r1, r3
 8702 831c FF3003E2 		and	r3, r3, #255
 8703 8320 0030C6E5 		strb	r3, [r6, #0]
 8704 8324 023083E0 		add	r3, r3, r2
 8705 8328 0030C5E5 		strb	r3, [r5, #0]
 8706 832c C40D9FE5 		ldr	r0, .L275
 8707 8330 FEFFFFEB 		bl	uart_transmit
 8708 8334 6010D4E5 		ldrb	r1, [r4, #96]	@ zero_extendqisi2
 8709 8338 0030D6E5 		ldrb	r3, [r6, #0]	@ zero_extendqisi2
 8710 833c 0020D5E5 		ldrb	r2, [r5, #0]	@ zero_extendqisi2
 8711 8340 033081E0 		add	r3, r1, r3
 8712 8344 FF3003E2 		and	r3, r3, #255
 8713 8348 0030C6E5 		strb	r3, [r6, #0]
 8714 834c 023083E0 		add	r3, r3, r2
 8715 8350 0030C5E5 		strb	r3, [r5, #0]
 8716 8354 9C0D9FE5 		ldr	r0, .L275
 8717 8358 FEFFFFEB 		bl	uart_transmit
 8718 835c 6110D4E5 		ldrb	r1, [r4, #97]	@ zero_extendqisi2
 8719 8360 0030D6E5 		ldrb	r3, [r6, #0]	@ zero_extendqisi2
 8720 8364 0020D5E5 		ldrb	r2, [r5, #0]	@ zero_extendqisi2
 8721 8368 033081E0 		add	r3, r1, r3
 8722 836c FF3003E2 		and	r3, r3, #255
 8723 8370 0030C6E5 		strb	r3, [r6, #0]
 8724 8374 023083E0 		add	r3, r3, r2
 8725 8378 0030C5E5 		strb	r3, [r5, #0]
 8726 837c 740D9FE5 		ldr	r0, .L275
 8727 8380 FEFFFFEB 		bl	uart_transmit
 8728 8384 6210D4E5 		ldrb	r1, [r4, #98]	@ zero_extendqisi2
 8729 8388 0030D6E5 		ldrb	r3, [r6, #0]	@ zero_extendqisi2
 8730 838c 0020D5E5 		ldrb	r2, [r5, #0]	@ zero_extendqisi2
 8731 8390 033081E0 		add	r3, r1, r3
 8732 8394 FF3003E2 		and	r3, r3, #255
 8733 8398 0030C6E5 		strb	r3, [r6, #0]
 8734 839c 023083E0 		add	r3, r3, r2
 8735 83a0 0030C5E5 		strb	r3, [r5, #0]
 8736 83a4 4C0D9FE5 		ldr	r0, .L275
 8737 83a8 FEFFFFEB 		bl	uart_transmit
 8738 83ac 6310D4E5 		ldrb	r1, [r4, #99]	@ zero_extendqisi2
 8739 83b0 0030D6E5 		ldrb	r3, [r6, #0]	@ zero_extendqisi2
 8740 83b4 0020D5E5 		ldrb	r2, [r5, #0]	@ zero_extendqisi2
 8741 83b8 033081E0 		add	r3, r1, r3
 8742 83bc FF3003E2 		and	r3, r3, #255
 8743 83c0 0030C6E5 		strb	r3, [r6, #0]
 8744 83c4 023083E0 		add	r3, r3, r2
 8745 83c8 0030C5E5 		strb	r3, [r5, #0]
 8746 83cc 240D9FE5 		ldr	r0, .L275
 8747 83d0 FEFFFFEB 		bl	uart_transmit
 8748 83d4 2410D4E5 		ldrb	r1, [r4, #36]	@ zero_extendqisi2
 8749 83d8 0030D6E5 		ldrb	r3, [r6, #0]	@ zero_extendqisi2
 8750 83dc 0020D5E5 		ldrb	r2, [r5, #0]	@ zero_extendqisi2
 8751 83e0 033081E0 		add	r3, r1, r3
 8752 83e4 FF3003E2 		and	r3, r3, #255
 8753 83e8 0030C6E5 		strb	r3, [r6, #0]
 8754 83ec 023083E0 		add	r3, r3, r2
 8755 83f0 0030C5E5 		strb	r3, [r5, #0]
 8756 83f4 FC0C9FE5 		ldr	r0, .L275
 8757 83f8 FEFFFFEB 		bl	uart_transmit
 8758 83fc F83C9FE5 		ldr	r3, .L275+4
 8759 8400 0010D3E5 		ldrb	r1, [r3, #0]	@ zero_extendqisi2
 8760 8404 0030D6E5 		ldrb	r3, [r6, #0]	@ zero_extendqisi2
 8761 8408 0020D5E5 		ldrb	r2, [r5, #0]	@ zero_extendqisi2
 8762 840c 033081E0 		add	r3, r1, r3
 8763 8410 FF3003E2 		and	r3, r3, #255
 8764 8414 0030C6E5 		strb	r3, [r6, #0]
 8765 8418 023083E0 		add	r3, r3, r2
 8766 841c 0030C5E5 		strb	r3, [r5, #0]
 8767 8420 D00C9FE5 		ldr	r0, .L275
 8768 8424 FEFFFFEB 		bl	uart_transmit
 8769 8428 0010D6E5 		ldrb	r1, [r6, #0]	@ zero_extendqisi2
 8770 842c C40C9FE5 		ldr	r0, .L275
 8771 8430 FEFFFFEB 		bl	uart_transmit
 8772 8434 BC0C9FE5 		ldr	r0, .L275
 8773 8438 0010D5E5 		ldrb	r1, [r5, #0]	@ zero_extendqisi2
 8774 843c FEFFFFEB 		bl	uart_transmit
 8775 8440 030000EA 		b	.L193
 8776              	.L192:
 8777 8444 843D9FE5 		ldr	r3, .L275+216
 8778 8448 0020D3E5 		ldrb	r2, [r3, #0]	@ zero_extendqisi2
 8779 844c 012082E2 		add	r2, r2, #1
 8780 8450 0020C3E5 		strb	r2, [r3, #0]
 8781              	.L193:
 8782 8454 6C2D9FE5 		ldr	r2, .L275+208
 8783 8458 5B30D2E5 		ldrb	r3, [r2, #91]	@ zero_extendqisi2
 8784 845c 030053E3 		cmp	r3, #3
 8785 8460 943C9FE5 		ldr	r3, .L275+4
 8786 8464 0400000A 		beq	.L194
 8787 8468 6410D2E5 		ldrb	r1, [r2, #100]	@ zero_extendqisi2
 8788 846c 0000D3E5 		ldrb	r0, [r3, #0]	@ zero_extendqisi2
 8789 8470 010050E1 		cmp	r0, r1
 8790 8474 0010A023 		movcs	r1, #0
 8791 8478 0010C325 		strcsb	r1, [r3, #0]
 8792              	.L194:
 8793 847c 0030D3E5 		ldrb	r3, [r3, #0]	@ zero_extendqisi2
 8794 8480 6420D2E5 		ldrb	r2, [r2, #100]	@ zero_extendqisi2
 8795 8484 820053E1 		cmp	r3, r2, asl #1
 8796 8488 6C3C9FA5 		ldrge	r3, .L275+4
 8797 848c 0010A0A3 		movge	r1, #0
 8798 8490 0010C3A5 		strgeb	r1, [r3, #0]
 8799 8494 606C9FE5 		ldr	r6, .L275+4
 8800 8498 0030D6E5 		ldrb	r3, [r6, #0]	@ zero_extendqisi2
 8801 849c 020053E1 		cmp	r3, r2
 8802 84a0 9400002A 		bcs	.L196
 8803 84a4 1C7D9FE5 		ldr	r7, .L275+208
 8804 84a8 833187E0 		add	r3, r7, r3, asl #3
 8805 84ac 6930D3E5 		ldrb	r3, [r3, #105]	@ zero_extendqisi2
 8806 84b0 000053E3 		cmp	r3, #0
 8807 84b4 8F00000A 		beq	.L196
 8808 84b8 380C9FE5 		ldr	r0, .L275
 8809 84bc 0E10A0E3 		mov	r1, #14
 8810 84c0 FEFFFFEB 		bl	uart_check_free_space
 8811 84c4 000050E3 		cmp	r0, #0
 8812 84c8 8600000A 		beq	.L197
 8813 84cc 003D9FE5 		ldr	r3, .L275+220
 8814 84d0 B020D3E1 		ldrh	r2, [r3, #0]
 8815 84d4 0E2082E2 		add	r2, r2, #14
 8816 84d8 B020C3E1 		strh	r2, [r3, #0]	@ movhi
 8817 84dc F43C9FE5 		ldr	r3, .L275+224
 8818 84e0 B020D3E1 		ldrh	r2, [r3, #0]
 8819 84e4 012082E2 		add	r2, r2, #1
 8820 84e8 B020C3E1 		strh	r2, [r3, #0]	@ movhi
 8821 84ec 040C9FE5 		ldr	r0, .L275
 8822 84f0 9910A0E3 		mov	r1, #153
 8823 84f4 E05C9FE5 		ldr	r5, .L275+228
 8824 84f8 FEFFFFEB 		bl	uart_transmit
 8825 84fc F40B9FE5 		ldr	r0, .L275
 8826 8500 0E10A0E3 		mov	r1, #14
 8827 8504 D44C9FE5 		ldr	r4, .L275+232
 8828 8508 FEFFFFEB 		bl	uart_transmit
 8829 850c 0F30A0E3 		mov	r3, #15
 8830 8510 0030C5E5 		strb	r3, [r5, #0]
 8831 8514 1D30A0E3 		mov	r3, #29
 8832 8518 0030C4E5 		strb	r3, [r4, #0]
 8833 851c D40B9FE5 		ldr	r0, .L275
 8834 8520 0110A0E3 		mov	r1, #1
 8835 8524 FEFFFFEB 		bl	uart_transmit
 8836 8528 0030D5E5 		ldrb	r3, [r5, #0]	@ zero_extendqisi2
 8837 852c 0020D4E5 		ldrb	r2, [r4, #0]	@ zero_extendqisi2
 8838 8530 193083E2 		add	r3, r3, #25
 8839 8534 FF3003E2 		and	r3, r3, #255
 8840 8538 0030C5E5 		strb	r3, [r5, #0]
 8841 853c 023083E0 		add	r3, r3, r2
 8842 8540 0030C4E5 		strb	r3, [r4, #0]
 8843 8544 AC0B9FE5 		ldr	r0, .L275
 8844 8548 1910A0E3 		mov	r1, #25
 8845 854c FEFFFFEB 		bl	uart_transmit
 8846 8550 0010D6E5 		ldrb	r1, [r6, #0]	@ zero_extendqisi2
 8847 8554 0030D5E5 		ldrb	r3, [r5, #0]	@ zero_extendqisi2
 8848 8558 0020D4E5 		ldrb	r2, [r4, #0]	@ zero_extendqisi2
 8849 855c 033081E0 		add	r3, r1, r3
 8850 8560 FF3003E2 		and	r3, r3, #255
 8851 8564 0030C5E5 		strb	r3, [r5, #0]
 8852 8568 023083E0 		add	r3, r3, r2
 8853 856c 0030C4E5 		strb	r3, [r4, #0]
 8854 8570 800B9FE5 		ldr	r0, .L275
 8855 8574 FEFFFFEB 		bl	uart_transmit
 8856 8578 0030D6E5 		ldrb	r3, [r6, #0]	@ zero_extendqisi2
 8857 857c 833187E0 		add	r3, r7, r3, asl #3
 8858 8580 6610D3E5 		ldrb	r1, [r3, #102]	@ zero_extendqisi2
 8859 8584 0030D5E5 		ldrb	r3, [r5, #0]	@ zero_extendqisi2
 8860 8588 0020D4E5 		ldrb	r2, [r4, #0]	@ zero_extendqisi2
 8861 858c 033081E0 		add	r3, r1, r3
 8862 8590 FF3003E2 		and	r3, r3, #255
 8863 8594 0030C5E5 		strb	r3, [r5, #0]
 8864 8598 023083E0 		add	r3, r3, r2
 8865 859c 0030C4E5 		strb	r3, [r4, #0]
 8866 85a0 500B9FE5 		ldr	r0, .L275
 8867 85a4 FEFFFFEB 		bl	uart_transmit
 8868 85a8 0030D6E5 		ldrb	r3, [r6, #0]	@ zero_extendqisi2
 8869 85ac 833187E0 		add	r3, r7, r3, asl #3
 8870 85b0 6710D3E5 		ldrb	r1, [r3, #103]	@ zero_extendqisi2
 8871 85b4 0030D5E5 		ldrb	r3, [r5, #0]	@ zero_extendqisi2
 8872 85b8 0020D4E5 		ldrb	r2, [r4, #0]	@ zero_extendqisi2
 8873 85bc 033081E0 		add	r3, r1, r3
 8874 85c0 FF3003E2 		and	r3, r3, #255
 8875 85c4 0030C5E5 		strb	r3, [r5, #0]
 8876 85c8 023083E0 		add	r3, r3, r2
 8877 85cc 0030C4E5 		strb	r3, [r4, #0]
 8878 85d0 200B9FE5 		ldr	r0, .L275
 8879 85d4 FEFFFFEB 		bl	uart_transmit
 8880 85d8 0030D6E5 		ldrb	r3, [r6, #0]	@ zero_extendqisi2
 8881 85dc 833187E0 		add	r3, r7, r3, asl #3
 8882 85e0 6810D3E5 		ldrb	r1, [r3, #104]	@ zero_extendqisi2
 8883 85e4 0030D5E5 		ldrb	r3, [r5, #0]	@ zero_extendqisi2
 8884 85e8 0020D4E5 		ldrb	r2, [r4, #0]	@ zero_extendqisi2
 8885 85ec 033081E0 		add	r3, r1, r3
 8886 85f0 FF3003E2 		and	r3, r3, #255
 8887 85f4 0030C5E5 		strb	r3, [r5, #0]
 8888 85f8 023083E0 		add	r3, r3, r2
 8889 85fc 0030C4E5 		strb	r3, [r4, #0]
 8890 8600 F00A9FE5 		ldr	r0, .L275
 8891 8604 FEFFFFEB 		bl	uart_transmit
 8892 8608 0030D6E5 		ldrb	r3, [r6, #0]	@ zero_extendqisi2
 8893 860c 833187E0 		add	r3, r7, r3, asl #3
 8894 8610 6910D3E5 		ldrb	r1, [r3, #105]	@ zero_extendqisi2
 8895 8614 0030D5E5 		ldrb	r3, [r5, #0]	@ zero_extendqisi2
 8896 8618 0020D4E5 		ldrb	r2, [r4, #0]	@ zero_extendqisi2
 8897 861c 033081E0 		add	r3, r1, r3
 8898 8620 FF3003E2 		and	r3, r3, #255
 8899 8624 0030C5E5 		strb	r3, [r5, #0]
 8900 8628 023083E0 		add	r3, r3, r2
 8901 862c 0030C4E5 		strb	r3, [r4, #0]
 8902 8630 C00A9FE5 		ldr	r0, .L275
 8903 8634 FEFFFFEB 		bl	uart_transmit
 8904 8638 0030D6E5 		ldrb	r3, [r6, #0]	@ zero_extendqisi2
 8905 863c 833187E0 		add	r3, r7, r3, asl #3
 8906 8640 6A10D3E5 		ldrb	r1, [r3, #106]	@ zero_extendqisi2
 8907 8644 0030D5E5 		ldrb	r3, [r5, #0]	@ zero_extendqisi2
 8908 8648 0020D4E5 		ldrb	r2, [r4, #0]	@ zero_extendqisi2
 8909 864c 033081E0 		add	r3, r1, r3
 8910 8650 FF3003E2 		and	r3, r3, #255
 8911 8654 0030C5E5 		strb	r3, [r5, #0]
 8912 8658 023083E0 		add	r3, r3, r2
 8913 865c 0030C4E5 		strb	r3, [r4, #0]
 8914 8660 900A9FE5 		ldr	r0, .L275
 8915 8664 FEFFFFEB 		bl	uart_transmit
 8916 8668 0030D6E5 		ldrb	r3, [r6, #0]	@ zero_extendqisi2
 8917 866c 0C7087E2 		add	r7, r7, #12
 8918 8670 0C3083E2 		add	r3, r3, #12
 8919 8674 8311D7E7 		ldrb	r1, [r7, r3, asl #3]	@ zero_extendqisi2
 8920 8678 0030D5E5 		ldrb	r3, [r5, #0]	@ zero_extendqisi2
 8921 867c 0020D4E5 		ldrb	r2, [r4, #0]	@ zero_extendqisi2
 8922 8680 033081E0 		add	r3, r1, r3
 8923 8684 FF3003E2 		and	r3, r3, #255
 8924 8688 0030C5E5 		strb	r3, [r5, #0]
 8925 868c 023083E0 		add	r3, r3, r2
 8926 8690 0030C4E5 		strb	r3, [r4, #0]
 8927 8694 5C0A9FE5 		ldr	r0, .L275
 8928 8698 FEFFFFEB 		bl	uart_transmit
 8929 869c 0030D6E5 		ldrb	r3, [r6, #0]	@ zero_extendqisi2
 8930 86a0 837187E0 		add	r7, r7, r3, asl #3
 8931 86a4 6110D7E5 		ldrb	r1, [r7, #97]	@ zero_extendqisi2
 8932 86a8 0030D5E5 		ldrb	r3, [r5, #0]	@ zero_extendqisi2
 8933 86ac 0020D4E5 		ldrb	r2, [r4, #0]	@ zero_extendqisi2
 8934 86b0 033081E0 		add	r3, r1, r3
 8935 86b4 FF3003E2 		and	r3, r3, #255
 8936 86b8 0030C5E5 		strb	r3, [r5, #0]
 8937 86bc 023083E0 		add	r3, r3, r2
 8938 86c0 0030C4E5 		strb	r3, [r4, #0]
 8939 86c4 2C0A9FE5 		ldr	r0, .L275
 8940 86c8 FEFFFFEB 		bl	uart_transmit
 8941 86cc 0010D5E5 		ldrb	r1, [r5, #0]	@ zero_extendqisi2
 8942 86d0 200A9FE5 		ldr	r0, .L275
 8943 86d4 FEFFFFEB 		bl	uart_transmit
 8944 86d8 180A9FE5 		ldr	r0, .L275
 8945 86dc 0010D4E5 		ldrb	r1, [r4, #0]	@ zero_extendqisi2
 8946 86e0 FEFFFFEB 		bl	uart_transmit
 8947 86e4 030000EA 		b	.L196
 8948              	.L197:
 8949 86e8 E03A9FE5 		ldr	r3, .L275+216
 8950 86ec 0020D3E5 		ldrb	r2, [r3, #0]	@ zero_extendqisi2
 8951 86f0 012082E2 		add	r2, r2, #1
 8952 86f4 0020C3E5 		strb	r2, [r3, #0]
 8953              	.L196:
 8954 86f8 FC399FE5 		ldr	r3, .L275+4
 8955 86fc 0020D3E5 		ldrb	r2, [r3, #0]	@ zero_extendqisi2
 8956 8700 012082E2 		add	r2, r2, #1
 8957 8704 0020C3E5 		strb	r2, [r3, #0]
 8958              	.L191:
 8959 8708 F0399FE5 		ldr	r3, .L275+8
 8960 870c B030D3E1 		ldrh	r3, [r3, #0]
 8961 8710 0C0053E3 		cmp	r3, #12
 8962 8714 8800001A 		bne	.L198
 8963 8718 D8099FE5 		ldr	r0, .L275
 8964 871c 0E10A0E3 		mov	r1, #14
 8965 8720 FEFFFFEB 		bl	uart_check_free_space
 8966 8724 000050E3 		cmp	r0, #0
 8967 8728 7F00000A 		beq	.L199
 8968 872c A03A9FE5 		ldr	r3, .L275+220
 8969 8730 B020D3E1 		ldrh	r2, [r3, #0]
 8970 8734 0E2082E2 		add	r2, r2, #14
 8971 8738 B020C3E1 		strh	r2, [r3, #0]	@ movhi
 8972 873c 943A9FE5 		ldr	r3, .L275+224
 8973 8740 B020D3E1 		ldrh	r2, [r3, #0]
 8974 8744 012082E2 		add	r2, r2, #1
 8975 8748 B020C3E1 		strh	r2, [r3, #0]	@ movhi
 8976 874c A4099FE5 		ldr	r0, .L275
 8977 8750 9910A0E3 		mov	r1, #153
 8978 8754 805A9FE5 		ldr	r5, .L275+228
 8979 8758 FEFFFFEB 		bl	uart_transmit
 8980 875c 94099FE5 		ldr	r0, .L275
 8981 8760 0E10A0E3 		mov	r1, #14
 8982 8764 744A9FE5 		ldr	r4, .L275+232
 8983 8768 FEFFFFEB 		bl	uart_transmit
 8984 876c 0F30A0E3 		mov	r3, #15
 8985 8770 0030C5E5 		strb	r3, [r5, #0]
 8986 8774 1D30A0E3 		mov	r3, #29
 8987 8778 0030C4E5 		strb	r3, [r4, #0]
 8988 877c 74099FE5 		ldr	r0, .L275
 8989 8780 0110A0E3 		mov	r1, #1
 8990 8784 FEFFFFEB 		bl	uart_transmit
 8991 8788 0030D5E5 		ldrb	r3, [r5, #0]	@ zero_extendqisi2
 8992 878c 0020D4E5 		ldrb	r2, [r4, #0]	@ zero_extendqisi2
 8993 8790 2A3083E2 		add	r3, r3, #42
 8994 8794 FF3003E2 		and	r3, r3, #255
 8995 8798 0030C5E5 		strb	r3, [r5, #0]
 8996 879c 023083E0 		add	r3, r3, r2
 8997 87a0 0030C4E5 		strb	r3, [r4, #0]
 8998 87a4 2A10A0E3 		mov	r1, #42
 8999 87a8 48099FE5 		ldr	r0, .L275
 9000 87ac FEFFFFEB 		bl	uart_transmit
 9001 87b0 FEFFFFEB 		bl	stateGetPositionUtm_f
 9002 87b4 0030D5E5 		ldrb	r3, [r5, #0]	@ zero_extendqisi2
 9003 87b8 0810D0E5 		ldrb	r1, [r0, #8]	@ zero_extendqisi2
 9004 87bc 0020D4E5 		ldrb	r2, [r4, #0]	@ zero_extendqisi2
 9005 87c0 033081E0 		add	r3, r1, r3
 9006 87c4 FF3003E2 		and	r3, r3, #255
 9007 87c8 0030C5E5 		strb	r3, [r5, #0]
 9008 87cc 023083E0 		add	r3, r3, r2
 9009 87d0 0030C4E5 		strb	r3, [r4, #0]
 9010 87d4 1C099FE5 		ldr	r0, .L275
 9011 87d8 FEFFFFEB 		bl	uart_transmit
 9012 87dc FEFFFFEB 		bl	stateGetPositionUtm_f
 9013 87e0 0030D5E5 		ldrb	r3, [r5, #0]	@ zero_extendqisi2
 9014 87e4 0910D0E5 		ldrb	r1, [r0, #9]	@ zero_extendqisi2
 9015 87e8 0020D4E5 		ldrb	r2, [r4, #0]	@ zero_extendqisi2
 9016 87ec 033081E0 		add	r3, r1, r3
 9017 87f0 FF3003E2 		and	r3, r3, #255
 9018 87f4 0030C5E5 		strb	r3, [r5, #0]
 9019 87f8 023083E0 		add	r3, r3, r2
 9020 87fc 0030C4E5 		strb	r3, [r4, #0]
 9021 8800 F0089FE5 		ldr	r0, .L275
 9022 8804 FEFFFFEB 		bl	uart_transmit
 9023 8808 FEFFFFEB 		bl	stateGetPositionUtm_f
 9024 880c 0030D5E5 		ldrb	r3, [r5, #0]	@ zero_extendqisi2
 9025 8810 0A10D0E5 		ldrb	r1, [r0, #10]	@ zero_extendqisi2
 9026 8814 0020D4E5 		ldrb	r2, [r4, #0]	@ zero_extendqisi2
 9027 8818 033081E0 		add	r3, r1, r3
 9028 881c FF3003E2 		and	r3, r3, #255
 9029 8820 0030C5E5 		strb	r3, [r5, #0]
 9030 8824 023083E0 		add	r3, r3, r2
 9031 8828 0030C4E5 		strb	r3, [r4, #0]
 9032 882c C4089FE5 		ldr	r0, .L275
 9033 8830 FEFFFFEB 		bl	uart_transmit
 9034 8834 FEFFFFEB 		bl	stateGetPositionUtm_f
 9035 8838 0030D5E5 		ldrb	r3, [r5, #0]	@ zero_extendqisi2
 9036 883c 0B10D0E5 		ldrb	r1, [r0, #11]	@ zero_extendqisi2
 9037 8840 0020D4E5 		ldrb	r2, [r4, #0]	@ zero_extendqisi2
 9038 8844 033081E0 		add	r3, r1, r3
 9039 8848 FF3003E2 		and	r3, r3, #255
 9040 884c 0030C5E5 		strb	r3, [r5, #0]
 9041 8850 023083E0 		add	r3, r3, r2
 9042 8854 0030C4E5 		strb	r3, [r4, #0]
 9043 8858 98089FE5 		ldr	r0, .L275
 9044 885c FEFFFFEB 		bl	uart_transmit
 9045 8860 FEFFFFEB 		bl	stateGetSpeedEnu_f
 9046 8864 0030D5E5 		ldrb	r3, [r5, #0]	@ zero_extendqisi2
 9047 8868 0810D0E5 		ldrb	r1, [r0, #8]	@ zero_extendqisi2
 9048 886c 0020D4E5 		ldrb	r2, [r4, #0]	@ zero_extendqisi2
 9049 8870 033081E0 		add	r3, r1, r3
 9050 8874 FF3003E2 		and	r3, r3, #255
 9051 8878 0030C5E5 		strb	r3, [r5, #0]
 9052 887c 023083E0 		add	r3, r3, r2
 9053 8880 0030C4E5 		strb	r3, [r4, #0]
 9054 8884 6C089FE5 		ldr	r0, .L275
 9055 8888 FEFFFFEB 		bl	uart_transmit
 9056 888c FEFFFFEB 		bl	stateGetSpeedEnu_f
 9057 8890 0030D5E5 		ldrb	r3, [r5, #0]	@ zero_extendqisi2
 9058 8894 0910D0E5 		ldrb	r1, [r0, #9]	@ zero_extendqisi2
 9059 8898 0020D4E5 		ldrb	r2, [r4, #0]	@ zero_extendqisi2
 9060 889c 033081E0 		add	r3, r1, r3
 9061 88a0 FF3003E2 		and	r3, r3, #255
 9062 88a4 0030C5E5 		strb	r3, [r5, #0]
 9063 88a8 023083E0 		add	r3, r3, r2
 9064 88ac 0030C4E5 		strb	r3, [r4, #0]
 9065 88b0 40089FE5 		ldr	r0, .L275
 9066 88b4 FEFFFFEB 		bl	uart_transmit
 9067 88b8 FEFFFFEB 		bl	stateGetSpeedEnu_f
 9068 88bc 0030D5E5 		ldrb	r3, [r5, #0]	@ zero_extendqisi2
 9069 88c0 0A10D0E5 		ldrb	r1, [r0, #10]	@ zero_extendqisi2
 9070 88c4 0020D4E5 		ldrb	r2, [r4, #0]	@ zero_extendqisi2
 9071 88c8 033081E0 		add	r3, r1, r3
 9072 88cc FF3003E2 		and	r3, r3, #255
 9073 88d0 0030C5E5 		strb	r3, [r5, #0]
 9074 88d4 023083E0 		add	r3, r3, r2
 9075 88d8 0030C4E5 		strb	r3, [r4, #0]
 9076 88dc 14089FE5 		ldr	r0, .L275
 9077 88e0 FEFFFFEB 		bl	uart_transmit
 9078 88e4 FEFFFFEB 		bl	stateGetSpeedEnu_f
 9079 88e8 0030D5E5 		ldrb	r3, [r5, #0]	@ zero_extendqisi2
 9080 88ec 0B10D0E5 		ldrb	r1, [r0, #11]	@ zero_extendqisi2
 9081 88f0 0020D4E5 		ldrb	r2, [r4, #0]	@ zero_extendqisi2
 9082 88f4 033081E0 		add	r3, r1, r3
 9083 88f8 FF3003E2 		and	r3, r3, #255
 9084 88fc 0030C5E5 		strb	r3, [r5, #0]
 9085 8900 023083E0 		add	r3, r3, r2
 9086 8904 0030C4E5 		strb	r3, [r4, #0]
 9087 8908 E8079FE5 		ldr	r0, .L275
 9088 890c FEFFFFEB 		bl	uart_transmit
 9089 8910 0010D5E5 		ldrb	r1, [r5, #0]	@ zero_extendqisi2
 9090 8914 DC079FE5 		ldr	r0, .L275
 9091 8918 FEFFFFEB 		bl	uart_transmit
 9092 891c D4079FE5 		ldr	r0, .L275
 9093 8920 0010D4E5 		ldrb	r1, [r4, #0]	@ zero_extendqisi2
 9094 8924 FEFFFFEB 		bl	uart_transmit
 9095 8928 030000EA 		b	.L198
 9096              	.L199:
 9097 892c 9C389FE5 		ldr	r3, .L275+216
 9098 8930 0020D3E5 		ldrb	r2, [r3, #0]	@ zero_extendqisi2
 9099 8934 012082E2 		add	r2, r2, #1
 9100 8938 0020C3E5 		strb	r2, [r3, #0]
 9101              	.L198:
 9102 893c C0379FE5 		ldr	r3, .L275+12
 9103 8940 B030D3E1 		ldrh	r3, [r3, #0]
 9104 8944 120053E3 		cmp	r3, #18
 9105 8948 0801001A 		bne	.L200
 9106 894c B4379FE5 		ldr	r3, .L275+16
 9107 8950 005093E5 		ldr	r5, [r3, #0]	@ float
 9108 8954 FEFFFFEB 		bl	stateGetPositionEnu_f
 9109 8958 1A10A0E3 		mov	r1, #26
 9110 895c 0040A0E1 		mov	r4, r0
 9111 8960 90079FE5 		ldr	r0, .L275
 9112 8964 FEFFFFEB 		bl	uart_check_free_space
 9113 8968 000050E3 		cmp	r0, #0
 9114 896c FB00000A 		beq	.L201
 9115 8970 0201C5E3 		bic	r0, r5, #-2147483648
 9116 8974 FEFFFFEB 		bl	__aeabi_f2d
 9117 8978 8C279FE5 		ldr	r2, .L275+20
 9118 897c 8C379FE5 		ldr	r3, .L275+24
 9119 8980 FEFFFFEB 		bl	__aeabi_ddiv
 9120 8984 FEFFFFEB 		bl	__aeabi_d2uiz
 9121 8988 44389FE5 		ldr	r3, .L275+220
 9122 898c B020D3E1 		ldrh	r2, [r3, #0]
 9123 8990 1A2082E2 		add	r2, r2, #26
 9124 8994 B020C3E1 		strh	r2, [r3, #0]	@ movhi
 9125 8998 38389FE5 		ldr	r3, .L275+224
 9126 899c B020D3E1 		ldrh	r2, [r3, #0]
 9127 89a0 012082E2 		add	r2, r2, #1
 9128 89a4 B020C3E1 		strh	r2, [r3, #0]	@ movhi
 9129 89a8 FF7000E2 		and	r7, r0, #255
 9130 89ac 9910A0E3 		mov	r1, #153
 9131 89b0 40079FE5 		ldr	r0, .L275
 9132 89b4 20689FE5 		ldr	r6, .L275+228
 9133 89b8 FEFFFFEB 		bl	uart_transmit
 9134 89bc 34079FE5 		ldr	r0, .L275
 9135 89c0 1A10A0E3 		mov	r1, #26
 9136 89c4 14589FE5 		ldr	r5, .L275+232
 9137 89c8 FEFFFFEB 		bl	uart_transmit
 9138 89cc 1B30A0E3 		mov	r3, #27
 9139 89d0 0030C6E5 		strb	r3, [r6, #0]
 9140 89d4 3530A0E3 		mov	r3, #53
 9141 89d8 0030C5E5 		strb	r3, [r5, #0]
 9142 89dc 14079FE5 		ldr	r0, .L275
 9143 89e0 0110A0E3 		mov	r1, #1
 9144 89e4 FEFFFFEB 		bl	uart_transmit
 9145 89e8 0030D6E5 		ldrb	r3, [r6, #0]	@ zero_extendqisi2
 9146 89ec 0020D5E5 		ldrb	r2, [r5, #0]	@ zero_extendqisi2
 9147 89f0 0A3083E2 		add	r3, r3, #10
 9148 89f4 FF3003E2 		and	r3, r3, #255
 9149 89f8 0030C6E5 		strb	r3, [r6, #0]
 9150 89fc 023083E0 		add	r3, r3, r2
 9151 8a00 0030C5E5 		strb	r3, [r5, #0]
 9152 8a04 EC069FE5 		ldr	r0, .L275
 9153 8a08 0A10A0E3 		mov	r1, #10
 9154 8a0c FEFFFFEB 		bl	uart_transmit
 9155 8a10 FC369FE5 		ldr	r3, .L275+28
 9156 8a14 0010D3E5 		ldrb	r1, [r3, #0]	@ zero_extendqisi2
 9157 8a18 0030D6E5 		ldrb	r3, [r6, #0]	@ zero_extendqisi2
 9158 8a1c 0020D5E5 		ldrb	r2, [r5, #0]	@ zero_extendqisi2
 9159 8a20 033081E0 		add	r3, r1, r3
 9160 8a24 FF3003E2 		and	r3, r3, #255
 9161 8a28 0030C6E5 		strb	r3, [r6, #0]
 9162 8a2c 023083E0 		add	r3, r3, r2
 9163 8a30 0030C5E5 		strb	r3, [r5, #0]
 9164 8a34 BC069FE5 		ldr	r0, .L275
 9165 8a38 FEFFFFEB 		bl	uart_transmit
 9166 8a3c D4369FE5 		ldr	r3, .L275+32
 9167 8a40 0010D3E5 		ldrb	r1, [r3, #0]	@ zero_extendqisi2
 9168 8a44 0030D6E5 		ldrb	r3, [r6, #0]	@ zero_extendqisi2
 9169 8a48 0020D5E5 		ldrb	r2, [r5, #0]	@ zero_extendqisi2
 9170 8a4c 033081E0 		add	r3, r1, r3
 9171 8a50 FF3003E2 		and	r3, r3, #255
 9172 8a54 0030C6E5 		strb	r3, [r6, #0]
 9173 8a58 023083E0 		add	r3, r3, r2
 9174 8a5c 0030C5E5 		strb	r3, [r5, #0]
 9175 8a60 90069FE5 		ldr	r0, .L275
 9176 8a64 FEFFFFEB 		bl	uart_transmit
 9177 8a68 0010D4E5 		ldrb	r1, [r4, #0]	@ zero_extendqisi2
 9178 8a6c 0030D6E5 		ldrb	r3, [r6, #0]	@ zero_extendqisi2
 9179 8a70 0020D5E5 		ldrb	r2, [r5, #0]	@ zero_extendqisi2
 9180 8a74 033081E0 		add	r3, r1, r3
 9181 8a78 FF3003E2 		and	r3, r3, #255
 9182 8a7c 0030C6E5 		strb	r3, [r6, #0]
 9183 8a80 023083E0 		add	r3, r3, r2
 9184 8a84 0030C5E5 		strb	r3, [r5, #0]
 9185 8a88 68069FE5 		ldr	r0, .L275
 9186 8a8c FEFFFFEB 		bl	uart_transmit
 9187 8a90 0110D4E5 		ldrb	r1, [r4, #1]	@ zero_extendqisi2
 9188 8a94 0030D6E5 		ldrb	r3, [r6, #0]	@ zero_extendqisi2
 9189 8a98 0020D5E5 		ldrb	r2, [r5, #0]	@ zero_extendqisi2
 9190 8a9c 033081E0 		add	r3, r1, r3
 9191 8aa0 FF3003E2 		and	r3, r3, #255
 9192 8aa4 0030C6E5 		strb	r3, [r6, #0]
 9193 8aa8 023083E0 		add	r3, r3, r2
 9194 8aac 0030C5E5 		strb	r3, [r5, #0]
 9195 8ab0 40069FE5 		ldr	r0, .L275
 9196 8ab4 FEFFFFEB 		bl	uart_transmit
 9197 8ab8 0210D4E5 		ldrb	r1, [r4, #2]	@ zero_extendqisi2
 9198 8abc 0030D6E5 		ldrb	r3, [r6, #0]	@ zero_extendqisi2
 9199 8ac0 0020D5E5 		ldrb	r2, [r5, #0]	@ zero_extendqisi2
 9200 8ac4 033081E0 		add	r3, r1, r3
 9201 8ac8 FF3003E2 		and	r3, r3, #255
 9202 8acc 0030C6E5 		strb	r3, [r6, #0]
 9203 8ad0 023083E0 		add	r3, r3, r2
 9204 8ad4 0030C5E5 		strb	r3, [r5, #0]
 9205 8ad8 18069FE5 		ldr	r0, .L275
 9206 8adc FEFFFFEB 		bl	uart_transmit
 9207 8ae0 0310D4E5 		ldrb	r1, [r4, #3]	@ zero_extendqisi2
 9208 8ae4 0030D6E5 		ldrb	r3, [r6, #0]	@ zero_extendqisi2
 9209 8ae8 0020D5E5 		ldrb	r2, [r5, #0]	@ zero_extendqisi2
 9210 8aec 033081E0 		add	r3, r1, r3
 9211 8af0 FF3003E2 		and	r3, r3, #255
 9212 8af4 0030C6E5 		strb	r3, [r6, #0]
 9213 8af8 023083E0 		add	r3, r3, r2
 9214 8afc 0030C5E5 		strb	r3, [r5, #0]
 9215 8b00 F0059FE5 		ldr	r0, .L275
 9216 8b04 FEFFFFEB 		bl	uart_transmit
 9217 8b08 0410D4E5 		ldrb	r1, [r4, #4]	@ zero_extendqisi2
 9218 8b0c 0030D6E5 		ldrb	r3, [r6, #0]	@ zero_extendqisi2
 9219 8b10 0020D5E5 		ldrb	r2, [r5, #0]	@ zero_extendqisi2
 9220 8b14 033081E0 		add	r3, r1, r3
 9221 8b18 FF3003E2 		and	r3, r3, #255
 9222 8b1c 0030C6E5 		strb	r3, [r6, #0]
 9223 8b20 023083E0 		add	r3, r3, r2
 9224 8b24 0030C5E5 		strb	r3, [r5, #0]
 9225 8b28 C8059FE5 		ldr	r0, .L275
 9226 8b2c FEFFFFEB 		bl	uart_transmit
 9227 8b30 0510D4E5 		ldrb	r1, [r4, #5]	@ zero_extendqisi2
 9228 8b34 0030D6E5 		ldrb	r3, [r6, #0]	@ zero_extendqisi2
 9229 8b38 0020D5E5 		ldrb	r2, [r5, #0]	@ zero_extendqisi2
 9230 8b3c 033081E0 		add	r3, r1, r3
 9231 8b40 FF3003E2 		and	r3, r3, #255
 9232 8b44 0030C6E5 		strb	r3, [r6, #0]
 9233 8b48 023083E0 		add	r3, r3, r2
 9234 8b4c 0030C5E5 		strb	r3, [r5, #0]
 9235 8b50 A0059FE5 		ldr	r0, .L275
 9236 8b54 FEFFFFEB 		bl	uart_transmit
 9237 8b58 0610D4E5 		ldrb	r1, [r4, #6]	@ zero_extendqisi2
 9238 8b5c 0030D6E5 		ldrb	r3, [r6, #0]	@ zero_extendqisi2
 9239 8b60 0020D5E5 		ldrb	r2, [r5, #0]	@ zero_extendqisi2
 9240 8b64 033081E0 		add	r3, r1, r3
 9241 8b68 FF3003E2 		and	r3, r3, #255
 9242 8b6c 0030C6E5 		strb	r3, [r6, #0]
 9243 8b70 023083E0 		add	r3, r3, r2
 9244 8b74 0030C5E5 		strb	r3, [r5, #0]
 9245 8b78 78059FE5 		ldr	r0, .L275
 9246 8b7c FEFFFFEB 		bl	uart_transmit
 9247 8b80 0710D4E5 		ldrb	r1, [r4, #7]	@ zero_extendqisi2
 9248 8b84 0030D6E5 		ldrb	r3, [r6, #0]	@ zero_extendqisi2
 9249 8b88 0020D5E5 		ldrb	r2, [r5, #0]	@ zero_extendqisi2
 9250 8b8c 033081E0 		add	r3, r1, r3
 9251 8b90 FF3003E2 		and	r3, r3, #255
 9252 8b94 80459FE5 		ldr	r4, .L275+36
 9253 8b98 0030C6E5 		strb	r3, [r6, #0]
 9254 8b9c 023083E0 		add	r3, r3, r2
 9255 8ba0 0030C5E5 		strb	r3, [r5, #0]
 9256 8ba4 4C059FE5 		ldr	r0, .L275
 9257 8ba8 FEFFFFEB 		bl	uart_transmit
 9258 8bac 0010D4E5 		ldrb	r1, [r4, #0]	@ zero_extendqisi2
 9259 8bb0 0030D6E5 		ldrb	r3, [r6, #0]	@ zero_extendqisi2
 9260 8bb4 0020D5E5 		ldrb	r2, [r5, #0]	@ zero_extendqisi2
 9261 8bb8 033081E0 		add	r3, r1, r3
 9262 8bbc FF3003E2 		and	r3, r3, #255
 9263 8bc0 0030C6E5 		strb	r3, [r6, #0]
 9264 8bc4 023083E0 		add	r3, r3, r2
 9265 8bc8 0030C5E5 		strb	r3, [r5, #0]
 9266 8bcc 24059FE5 		ldr	r0, .L275
 9267 8bd0 FEFFFFEB 		bl	uart_transmit
 9268 8bd4 0110D4E5 		ldrb	r1, [r4, #1]	@ zero_extendqisi2
 9269 8bd8 0030D6E5 		ldrb	r3, [r6, #0]	@ zero_extendqisi2
 9270 8bdc 0020D5E5 		ldrb	r2, [r5, #0]	@ zero_extendqisi2
 9271 8be0 033081E0 		add	r3, r1, r3
 9272 8be4 FF3003E2 		and	r3, r3, #255
 9273 8be8 0030C6E5 		strb	r3, [r6, #0]
 9274 8bec 023083E0 		add	r3, r3, r2
 9275 8bf0 0030C5E5 		strb	r3, [r5, #0]
 9276 8bf4 FC049FE5 		ldr	r0, .L275
 9277 8bf8 FEFFFFEB 		bl	uart_transmit
 9278 8bfc 0210D4E5 		ldrb	r1, [r4, #2]	@ zero_extendqisi2
 9279 8c00 0030D6E5 		ldrb	r3, [r6, #0]	@ zero_extendqisi2
 9280 8c04 0020D5E5 		ldrb	r2, [r5, #0]	@ zero_extendqisi2
 9281 8c08 033081E0 		add	r3, r1, r3
 9282 8c0c FF3003E2 		and	r3, r3, #255
 9283 8c10 0030C6E5 		strb	r3, [r6, #0]
 9284 8c14 023083E0 		add	r3, r3, r2
 9285 8c18 0030C5E5 		strb	r3, [r5, #0]
 9286 8c1c D4049FE5 		ldr	r0, .L275
 9287 8c20 FEFFFFEB 		bl	uart_transmit
 9288 8c24 0310D4E5 		ldrb	r1, [r4, #3]	@ zero_extendqisi2
 9289 8c28 0030D6E5 		ldrb	r3, [r6, #0]	@ zero_extendqisi2
 9290 8c2c 0020D5E5 		ldrb	r2, [r5, #0]	@ zero_extendqisi2
 9291 8c30 033081E0 		add	r3, r1, r3
 9292 8c34 FF3003E2 		and	r3, r3, #255
 9293 8c38 E0449FE5 		ldr	r4, .L275+40
 9294 8c3c 0030C6E5 		strb	r3, [r6, #0]
 9295 8c40 023083E0 		add	r3, r3, r2
 9296 8c44 0030C5E5 		strb	r3, [r5, #0]
 9297 8c48 A8049FE5 		ldr	r0, .L275
 9298 8c4c FEFFFFEB 		bl	uart_transmit
 9299 8c50 0010D4E5 		ldrb	r1, [r4, #0]	@ zero_extendqisi2
 9300 8c54 0030D6E5 		ldrb	r3, [r6, #0]	@ zero_extendqisi2
 9301 8c58 0020D5E5 		ldrb	r2, [r5, #0]	@ zero_extendqisi2
 9302 8c5c 033081E0 		add	r3, r1, r3
 9303 8c60 FF3003E2 		and	r3, r3, #255
 9304 8c64 0030C6E5 		strb	r3, [r6, #0]
 9305 8c68 023083E0 		add	r3, r3, r2
 9306 8c6c 0030C5E5 		strb	r3, [r5, #0]
 9307 8c70 80049FE5 		ldr	r0, .L275
 9308 8c74 FEFFFFEB 		bl	uart_transmit
 9309 8c78 0110D4E5 		ldrb	r1, [r4, #1]	@ zero_extendqisi2
 9310 8c7c 0030D6E5 		ldrb	r3, [r6, #0]	@ zero_extendqisi2
 9311 8c80 0020D5E5 		ldrb	r2, [r5, #0]	@ zero_extendqisi2
 9312 8c84 033081E0 		add	r3, r1, r3
 9313 8c88 FF3003E2 		and	r3, r3, #255
 9314 8c8c 0030C6E5 		strb	r3, [r6, #0]
 9315 8c90 023083E0 		add	r3, r3, r2
 9316 8c94 0030C5E5 		strb	r3, [r5, #0]
 9317 8c98 58049FE5 		ldr	r0, .L275
 9318 8c9c FEFFFFEB 		bl	uart_transmit
 9319 8ca0 0210D4E5 		ldrb	r1, [r4, #2]	@ zero_extendqisi2
 9320 8ca4 0030D6E5 		ldrb	r3, [r6, #0]	@ zero_extendqisi2
 9321 8ca8 0020D5E5 		ldrb	r2, [r5, #0]	@ zero_extendqisi2
 9322 8cac 033081E0 		add	r3, r1, r3
 9323 8cb0 FF3003E2 		and	r3, r3, #255
 9324 8cb4 0030C6E5 		strb	r3, [r6, #0]
 9325 8cb8 023083E0 		add	r3, r3, r2
 9326 8cbc 0030C5E5 		strb	r3, [r5, #0]
 9327 8cc0 30049FE5 		ldr	r0, .L275
 9328 8cc4 FEFFFFEB 		bl	uart_transmit
 9329 8cc8 0310D4E5 		ldrb	r1, [r4, #3]	@ zero_extendqisi2
 9330 8ccc 0030D6E5 		ldrb	r3, [r6, #0]	@ zero_extendqisi2
 9331 8cd0 0020D5E5 		ldrb	r2, [r5, #0]	@ zero_extendqisi2
 9332 8cd4 033081E0 		add	r3, r1, r3
 9333 8cd8 FF3003E2 		and	r3, r3, #255
 9334 8cdc 0030C6E5 		strb	r3, [r6, #0]
 9335 8ce0 023083E0 		add	r3, r3, r2
 9336 8ce4 0030C5E5 		strb	r3, [r5, #0]
 9337 8ce8 08049FE5 		ldr	r0, .L275
 9338 8cec FEFFFFEB 		bl	uart_transmit
 9339 8cf0 0030D6E5 		ldrb	r3, [r6, #0]	@ zero_extendqisi2
 9340 8cf4 0020D5E5 		ldrb	r2, [r5, #0]	@ zero_extendqisi2
 9341 8cf8 033087E0 		add	r3, r7, r3
 9342 8cfc FF3003E2 		and	r3, r3, #255
 9343 8d00 0030C6E5 		strb	r3, [r6, #0]
 9344 8d04 023083E0 		add	r3, r3, r2
 9345 8d08 0030C5E5 		strb	r3, [r5, #0]
 9346 8d0c 0710A0E1 		mov	r1, r7
 9347 8d10 E0039FE5 		ldr	r0, .L275
 9348 8d14 FEFFFFEB 		bl	uart_transmit
 9349 8d18 04349FE5 		ldr	r3, .L275+44
 9350 8d1c 0010D3E5 		ldrb	r1, [r3, #0]	@ zero_extendqisi2
 9351 8d20 0030D6E5 		ldrb	r3, [r6, #0]	@ zero_extendqisi2
 9352 8d24 0020D5E5 		ldrb	r2, [r5, #0]	@ zero_extendqisi2
 9353 8d28 033081E0 		add	r3, r1, r3
 9354 8d2c FF3003E2 		and	r3, r3, #255
 9355 8d30 0030C6E5 		strb	r3, [r6, #0]
 9356 8d34 023083E0 		add	r3, r3, r2
 9357 8d38 0030C5E5 		strb	r3, [r5, #0]
 9358 8d3c B4039FE5 		ldr	r0, .L275
 9359 8d40 FEFFFFEB 		bl	uart_transmit
 9360 8d44 0010D6E5 		ldrb	r1, [r6, #0]	@ zero_extendqisi2
 9361 8d48 A8039FE5 		ldr	r0, .L275
 9362 8d4c FEFFFFEB 		bl	uart_transmit
 9363 8d50 A0039FE5 		ldr	r0, .L275
 9364 8d54 0010D5E5 		ldrb	r1, [r5, #0]	@ zero_extendqisi2
 9365 8d58 FEFFFFEB 		bl	uart_transmit
 9366 8d5c 030000EA 		b	.L200
 9367              	.L201:
 9368 8d60 68349FE5 		ldr	r3, .L275+216
 9369 8d64 0020D3E5 		ldrb	r2, [r3, #0]	@ zero_extendqisi2
 9370 8d68 012082E2 		add	r2, r2, #1
 9371 8d6c 0020C3E5 		strb	r2, [r3, #0]
 9372              	.L200:
 9373 8d70 B0339FE5 		ldr	r3, .L275+48
 9374 8d74 B030D3E1 		ldrh	r3, [r3, #0]
 9375 8d78 180053E3 		cmp	r3, #24
 9376 8d7c 6E00001A 		bne	.L202
 9377 8d80 70039FE5 		ldr	r0, .L275
 9378 8d84 0C10A0E3 		mov	r1, #12
 9379 8d88 FEFFFFEB 		bl	uart_check_free_space
 9380 8d8c 000050E3 		cmp	r0, #0
 9381 8d90 6500000A 		beq	.L203
 9382 8d94 38349FE5 		ldr	r3, .L275+220
 9383 8d98 B020D3E1 		ldrh	r2, [r3, #0]
 9384 8d9c 0C2082E2 		add	r2, r2, #12
 9385 8da0 B020C3E1 		strh	r2, [r3, #0]	@ movhi
 9386 8da4 2C349FE5 		ldr	r3, .L275+224
 9387 8da8 B020D3E1 		ldrh	r2, [r3, #0]
 9388 8dac 012082E2 		add	r2, r2, #1
 9389 8db0 B020C3E1 		strh	r2, [r3, #0]	@ movhi
 9390 8db4 3C039FE5 		ldr	r0, .L275
 9391 8db8 9910A0E3 		mov	r1, #153
 9392 8dbc 18549FE5 		ldr	r5, .L275+228
 9393 8dc0 FEFFFFEB 		bl	uart_transmit
 9394 8dc4 2C039FE5 		ldr	r0, .L275
 9395 8dc8 0C10A0E3 		mov	r1, #12
 9396 8dcc 0C449FE5 		ldr	r4, .L275+232
 9397 8dd0 FEFFFFEB 		bl	uart_transmit
 9398 8dd4 0D30A0E3 		mov	r3, #13
 9399 8dd8 0030C5E5 		strb	r3, [r5, #0]
 9400 8ddc 1930A0E3 		mov	r3, #25
 9401 8de0 0030C4E5 		strb	r3, [r4, #0]
 9402 8de4 0C039FE5 		ldr	r0, .L275
 9403 8de8 0110A0E3 		mov	r1, #1
 9404 8dec FEFFFFEB 		bl	uart_transmit
 9405 8df0 0030D5E5 		ldrb	r3, [r5, #0]	@ zero_extendqisi2
 9406 8df4 0020D4E5 		ldrb	r2, [r4, #0]	@ zero_extendqisi2
 9407 8df8 0B3083E2 		add	r3, r3, #11
 9408 8dfc FF3003E2 		and	r3, r3, #255
 9409 8e00 0030C5E5 		strb	r3, [r5, #0]
 9410 8e04 023083E0 		add	r3, r3, r2
 9411 8e08 0030C4E5 		strb	r3, [r4, #0]
 9412 8e0c E4029FE5 		ldr	r0, .L275
 9413 8e10 0B10A0E3 		mov	r1, #11
 9414 8e14 FEFFFFEB 		bl	uart_transmit
 9415 8e18 9C339FE5 		ldr	r3, .L275+196
 9416 8e1c 0010D3E5 		ldrb	r1, [r3, #0]	@ zero_extendqisi2
 9417 8e20 0030D5E5 		ldrb	r3, [r5, #0]	@ zero_extendqisi2
 9418 8e24 0020D4E5 		ldrb	r2, [r4, #0]	@ zero_extendqisi2
 9419 8e28 033081E0 		add	r3, r1, r3
 9420 8e2c FF3003E2 		and	r3, r3, #255
 9421 8e30 0030C5E5 		strb	r3, [r5, #0]
 9422 8e34 023083E0 		add	r3, r3, r2
 9423 8e38 0030C4E5 		strb	r3, [r4, #0]
 9424 8e3c B4029FE5 		ldr	r0, .L275
 9425 8e40 FEFFFFEB 		bl	uart_transmit
 9426 8e44 E0329FE5 		ldr	r3, .L275+52
 9427 8e48 0010D3E5 		ldrb	r1, [r3, #0]	@ zero_extendqisi2
 9428 8e4c 0030D5E5 		ldrb	r3, [r5, #0]	@ zero_extendqisi2
 9429 8e50 0020D4E5 		ldrb	r2, [r4, #0]	@ zero_extendqisi2
 9430 8e54 033081E0 		add	r3, r1, r3
 9431 8e58 FF3003E2 		and	r3, r3, #255
 9432 8e5c 0030C5E5 		strb	r3, [r5, #0]
 9433 8e60 023083E0 		add	r3, r3, r2
 9434 8e64 0030C4E5 		strb	r3, [r4, #0]
 9435 8e68 88029FE5 		ldr	r0, .L275
 9436 8e6c FEFFFFEB 		bl	uart_transmit
 9437 8e70 B8329FE5 		ldr	r3, .L275+56
 9438 8e74 0010D3E5 		ldrb	r1, [r3, #0]	@ zero_extendqisi2
 9439 8e78 0030D5E5 		ldrb	r3, [r5, #0]	@ zero_extendqisi2
 9440 8e7c 0020D4E5 		ldrb	r2, [r4, #0]	@ zero_extendqisi2
 9441 8e80 033081E0 		add	r3, r1, r3
 9442 8e84 FF3003E2 		and	r3, r3, #255
 9443 8e88 0030C5E5 		strb	r3, [r5, #0]
 9444 8e8c 023083E0 		add	r3, r3, r2
 9445 8e90 0030C4E5 		strb	r3, [r4, #0]
 9446 8e94 5C029FE5 		ldr	r0, .L275
 9447 8e98 FEFFFFEB 		bl	uart_transmit
 9448 8e9c 90329FE5 		ldr	r3, .L275+60
 9449 8ea0 0010D3E5 		ldrb	r1, [r3, #0]	@ zero_extendqisi2
 9450 8ea4 0030D5E5 		ldrb	r3, [r5, #0]	@ zero_extendqisi2
 9451 8ea8 0020D4E5 		ldrb	r2, [r4, #0]	@ zero_extendqisi2
 9452 8eac 033081E0 		add	r3, r1, r3
 9453 8eb0 FF3003E2 		and	r3, r3, #255
 9454 8eb4 0030C5E5 		strb	r3, [r5, #0]
 9455 8eb8 023083E0 		add	r3, r3, r2
 9456 8ebc 0030C4E5 		strb	r3, [r4, #0]
 9457 8ec0 30029FE5 		ldr	r0, .L275
 9458 8ec4 FEFFFFEB 		bl	uart_transmit
 9459 8ec8 0020D4E5 		ldrb	r2, [r4, #0]	@ zero_extendqisi2
 9460 8ecc 0030D5E5 		ldrb	r3, [r5, #0]	@ zero_extendqisi2
 9461 8ed0 033082E0 		add	r3, r2, r3
 9462 8ed4 0030C4E5 		strb	r3, [r4, #0]
 9463 8ed8 18029FE5 		ldr	r0, .L275
 9464 8edc 0010A0E3 		mov	r1, #0
 9465 8ee0 FEFFFFEB 		bl	uart_transmit
 9466 8ee4 4C329FE5 		ldr	r3, .L275+64
 9467 8ee8 0010D3E5 		ldrb	r1, [r3, #0]	@ zero_extendqisi2
 9468 8eec 0030D5E5 		ldrb	r3, [r5, #0]	@ zero_extendqisi2
 9469 8ef0 0020D4E5 		ldrb	r2, [r4, #0]	@ zero_extendqisi2
 9470 8ef4 033081E0 		add	r3, r1, r3
 9471 8ef8 FF3003E2 		and	r3, r3, #255
 9472 8efc 0030C5E5 		strb	r3, [r5, #0]
 9473 8f00 023083E0 		add	r3, r3, r2
 9474 8f04 0030C4E5 		strb	r3, [r4, #0]
 9475 8f08 E8019FE5 		ldr	r0, .L275
 9476 8f0c FEFFFFEB 		bl	uart_transmit
 9477 8f10 0010D5E5 		ldrb	r1, [r5, #0]	@ zero_extendqisi2
 9478 8f14 DC019FE5 		ldr	r0, .L275
 9479 8f18 FEFFFFEB 		bl	uart_transmit
 9480 8f1c D4019FE5 		ldr	r0, .L275
 9481 8f20 0010D4E5 		ldrb	r1, [r4, #0]	@ zero_extendqisi2
 9482 8f24 FEFFFFEB 		bl	uart_transmit
 9483 8f28 030000EA 		b	.L202
 9484              	.L203:
 9485 8f2c 9C329FE5 		ldr	r3, .L275+216
 9486 8f30 0020D3E5 		ldrb	r2, [r3, #0]	@ zero_extendqisi2
 9487 8f34 012082E2 		add	r2, r2, #1
 9488 8f38 0020C3E5 		strb	r2, [r3, #0]
 9489              	.L202:
 9490 8f3c F8319FE5 		ldr	r3, .L275+68
 9491 8f40 B050D3E1 		ldrh	r5, [r3, #0]
 9492 8f44 1E0055E3 		cmp	r5, #30
 9493 8f48 AB00001A 		bne	.L204
 9494 8f4c EC619FE5 		ldr	r6, .L275+72
 9495 8f50 7C429FE5 		ldr	r4, .L275+220
 9496 8f54 B000D6E1 		ldrh	r0, [r6, #0]
 9497 8f58 B070D4E1 		ldrh	r7, [r4, #0]
 9498 8f5c 070060E0 		rsb	r0, r0, r7
 9499 8f60 FEFFFFEB 		bl	__aeabi_i2d
 9500 8f64 D8219FE5 		ldr	r2, .L275+76
 9501 8f68 D8319FE5 		ldr	r3, .L275+80
 9502 8f6c FEFFFFEB 		bl	__aeabi_ddiv
 9503 8f70 FEFFFFEB 		bl	__aeabi_d2uiz
 9504 8f74 B070C6E1 		strh	r7, [r6, #0]	@ movhi
 9505 8f78 BE00CDE1 		strh	r0, [sp, #14]	@ movhi
 9506 8f7c 0B10A0E3 		mov	r1, #11
 9507 8f80 70019FE5 		ldr	r0, .L275
 9508 8f84 FEFFFFEB 		bl	uart_check_free_space
 9509 8f88 000050E3 		cmp	r0, #0
 9510 8f8c 9600000A 		beq	.L205
 9511 8f90 B030D4E1 		ldrh	r3, [r4, #0]
 9512 8f94 3C729FE5 		ldr	r7, .L275+224
 9513 8f98 0B3083E2 		add	r3, r3, #11
 9514 8f9c B030C4E1 		strh	r3, [r4, #0]	@ movhi
 9515 8fa0 B030D7E1 		ldrh	r3, [r7, #0]
 9516 8fa4 013083E2 		add	r3, r3, #1
 9517 8fa8 B030C7E1 		strh	r3, [r7, #0]	@ movhi
 9518 8fac 44019FE5 		ldr	r0, .L275
 9519 8fb0 9910A0E3 		mov	r1, #153
 9520 8fb4 20629FE5 		ldr	r6, .L275+228
 9521 8fb8 FEFFFFEB 		bl	uart_transmit
 9522 8fbc 34019FE5 		ldr	r0, .L275
 9523 8fc0 0B10A0E3 		mov	r1, #11
 9524 8fc4 14429FE5 		ldr	r4, .L275+232
 9525 8fc8 FEFFFFEB 		bl	uart_transmit
 9526 8fcc 0C30A0E3 		mov	r3, #12
 9527 8fd0 0030C6E5 		strb	r3, [r6, #0]
 9528 8fd4 1730A0E3 		mov	r3, #23
 9529 8fd8 0030C4E5 		strb	r3, [r4, #0]
 9530 8fdc 14019FE5 		ldr	r0, .L275
 9531 8fe0 0110A0E3 		mov	r1, #1
 9532 8fe4 FEFFFFEB 		bl	uart_transmit
 9533 8fe8 0030D6E5 		ldrb	r3, [r6, #0]	@ zero_extendqisi2
 9534 8fec 0020D4E5 		ldrb	r2, [r4, #0]	@ zero_extendqisi2
 9535 8ff0 1E3083E2 		add	r3, r3, #30
 9536 8ff4 FF3003E2 		and	r3, r3, #255
 9537 8ff8 0030C6E5 		strb	r3, [r6, #0]
 9538 8ffc 023083E0 		add	r3, r3, r2
 9539 9000 0030C4E5 		strb	r3, [r4, #0]
 9540 9004 0510A0E1 		mov	r1, r5
 9541 9008 E8009FE5 		ldr	r0, .L275
 9542 900c FEFFFFEB 		bl	uart_transmit
 9543 9010 B8319FE5 		ldr	r3, .L275+216
 9544 9014 0010D3E5 		ldrb	r1, [r3, #0]	@ zero_extendqisi2
 9545 9018 0030D6E5 		ldrb	r3, [r6, #0]	@ zero_extendqisi2
 9546 901c 0020D4E5 		ldrb	r2, [r4, #0]	@ zero_extendqisi2
 9547 9020 033081E0 		add	r3, r1, r3
 9548 9024 FF3003E2 		and	r3, r3, #255
 9549 9028 0030C6E5 		strb	r3, [r6, #0]
 9550 902c 023083E0 		add	r3, r3, r2
 9551 9030 0030C4E5 		strb	r3, [r4, #0]
 9552 9034 BC009FE5 		ldr	r0, .L275
 9553 9038 FEFFFFEB 		bl	uart_transmit
 9554 903c 0E10DDE5 		ldrb	r1, [sp, #14]	@ zero_extendqisi2
 9555 9040 0030D6E5 		ldrb	r3, [r6, #0]	@ zero_extendqisi2
 9556 9044 0020D4E5 		ldrb	r2, [r4, #0]	@ zero_extendqisi2
 9557 9048 033081E0 		add	r3, r1, r3
 9558 904c FF3003E2 		and	r3, r3, #255
 9559 9050 0030C6E5 		strb	r3, [r6, #0]
 9560 9054 023083E0 		add	r3, r3, r2
 9561 9058 0030C4E5 		strb	r3, [r4, #0]
 9562 905c 94009FE5 		ldr	r0, .L275
 9563 9060 FEFFFFEB 		bl	uart_transmit
 9564 9064 0F10DDE5 		ldrb	r1, [sp, #15]	@ zero_extendqisi2
 9565 9068 0030D6E5 		ldrb	r3, [r6, #0]	@ zero_extendqisi2
 9566 906c 0020D4E5 		ldrb	r2, [r4, #0]	@ zero_extendqisi2
 9567 9070 033081E0 		add	r3, r1, r3
 9568 9074 FF3003E2 		and	r3, r3, #255
 9569 9078 0030C6E5 		strb	r3, [r6, #0]
 9570 907c 023083E0 		add	r3, r3, r2
 9571 9080 0030C4E5 		strb	r3, [r4, #0]
 9572 9084 6C009FE5 		ldr	r0, .L275
 9573 9088 FEFFFFEB 		bl	uart_transmit
 9574 908c 0010D7E5 		ldrb	r1, [r7, #0]	@ zero_extendqisi2
 9575 9090 0030D6E5 		ldrb	r3, [r6, #0]	@ zero_extendqisi2
 9576 9094 0020D4E5 		ldrb	r2, [r4, #0]	@ zero_extendqisi2
 9577 9098 033081E0 		add	r3, r1, r3
 9578 909c FF3003E2 		and	r3, r3, #255
 9579 90a0 0030C6E5 		strb	r3, [r6, #0]
 9580 90a4 023083E0 		add	r3, r3, r2
 9581 90a8 0030C4E5 		strb	r3, [r4, #0]
 9582 90ac 44009FE5 		ldr	r0, .L275
 9583 90b0 FEFFFFEB 		bl	uart_transmit
 9584 90b4 0110D7E5 		ldrb	r1, [r7, #1]	@ zero_extendqisi2
 9585 90b8 0030D6E5 		ldrb	r3, [r6, #0]	@ zero_extendqisi2
 9586 90bc 0020D4E5 		ldrb	r2, [r4, #0]	@ zero_extendqisi2
 9587 90c0 033081E0 		add	r3, r1, r3
 9588 90c4 FF3003E2 		and	r3, r3, #255
 9589 90c8 0030C6E5 		strb	r3, [r6, #0]
 9590 90cc 023083E0 		add	r3, r3, r2
 9591 90d0 0030C4E5 		strb	r3, [r4, #0]
 9592 90d4 1C009FE5 		ldr	r0, .L275
 9593 90d8 FEFFFFEB 		bl	uart_transmit
 9594 90dc 0010D6E5 		ldrb	r1, [r6, #0]	@ zero_extendqisi2
 9595 90e0 10009FE5 		ldr	r0, .L275
 9596 90e4 FEFFFFEB 		bl	uart_transmit
 9597 90e8 08009FE5 		ldr	r0, .L275
 9598 90ec 0010D4E5 		ldrb	r1, [r4, #0]	@ zero_extendqisi2
 9599 90f0 FEFFFFEB 		bl	uart_transmit
 9600 90f4 400000EA 		b	.L204
 9601              	.L276:
 9602              		.align	2
 9603              	.L275:
 9604 90f8 00000000 		.word	uart1
 9605 90fc 00000000 		.word	.LANCHOR55
 9606 9100 00000000 		.word	.LANCHOR48
 9607 9104 00000000 		.word	.LANCHOR49
 9608 9108 00000000 		.word	nav_circle_radians
 9609 910c 182D4454 		.word	1413754136
 9610 9110 FB211940 		.word	1075388923
 9611 9114 00000000 		.word	nav_block
 9612 9118 00000000 		.word	nav_stage
 9613 911c 00000000 		.word	dist2_to_wp
 9614 9120 00000000 		.word	dist2_to_home
 9615 9124 00000000 		.word	nav_oval_count
 9616 9128 00000000 		.word	.LANCHOR50
 9617 912c 00000000 		.word	v_ctl_mode
 9618 9130 00000000 		.word	.LANCHOR23
 9619 9134 00000000 		.word	horizontal_mode
 9620 9138 00000000 		.word	.LANCHOR24
 9621 913c 00000000 		.word	.LANCHOR51
 9622 9140 00000000 		.word	.LANCHOR56
 9623 9144 66666666 		.word	1717986918
 9624 9148 66661440 		.word	1075078758
 9625 914c 00000000 		.word	.LANCHOR52
 9626 9150 00000000 		.word	.LANCHOR53
 9627 9154 00000000 		.word	.LANCHOR17
 9628 9158 00000000 		.word	energy
 9629 915c 00000000 		.word	v_ctl_throttle_slewed
 9630 9160 00000000 		.word	vsupply
 9631 9164 00000000 		.word	block_time
 9632 9168 00000000 		.word	stage_time
 9633 916c 00000000 		.word	.LANCHOR54
 9634 9170 00009041 		.word	1099956224
 9635 9174 00000000 		.word	h_ctl_roll_setpoint
 9636 9178 00000000 		.word	h_ctl_pitch_loop_setpoint
 9637 917c 00000000 		.word	h_ctl_course_setpoint
 9638 9180 00000000 		.word	desired_x
 9639 9184 00000000 		.word	desired_y
 9640 9188 00000000 		.word	v_ctl_altitude_setpoint
 9641 918c 00000000 		.word	v_ctl_climb_setpoint
 9642 9190 00000000 		.word	telemetry_mode_Ap
 9643 9194 00000000 		.word	.LANCHOR57
 9644 9198 00000000 		.word	.LANCHOR59
 9645 919c 00000000 		.word	.LANCHOR58
 9646 91a0 00004040 		.word	1077936128
 9647 91a4 00000000 		.word	telemetry_mode_Fbw
 9648 91a8 00000000 		.word	flight_altitude
 9649 91ac 00000000 		.word	nav_course
 9650 91b0 00000000 		.word	nav_shift
 9651 91b4 00000000 		.word	.LANCHOR18
 9652 91b8 00000000 		.word	nav_radius
 9653 91bc 00000000 		.word	.LANCHOR21
 9654 91c0 00000000 		.word	.LANCHOR22
 9655 91c4 00000000 		.word	.LANCHOR19
 9656 91c8 00000000 		.word	gps
 9657 91cc 00000000 		.word	.LANCHOR60
 9658 91d0 00000000 		.word	downlink_nb_ovrn
 9659 91d4 00000000 		.word	downlink_nb_bytes
 9660 91d8 00000000 		.word	downlink_nb_msgs
 9661 91dc 00000000 		.word	ck_a
 9662 91e0 00000000 		.word	ck_b
 9663 91e4 00000000 		.word	infrared
 9664 91e8 00000000 		.word	uart1
 9665              	.L205:
 9666 91ec 24301FE5 		ldr	r3, .L275+216
 9667 91f0 0020D3E5 		ldrb	r2, [r3, #0]	@ zero_extendqisi2
 9668 91f4 012082E2 		add	r2, r2, #1
 9669 91f8 0020C3E5 		strb	r2, [r3, #0]
 9670              	.L204:
 9671 91fc B8301FE5 		ldr	r3, .L275+84
 9672 9200 B030D3E1 		ldrh	r3, [r3, #0]
 9673 9204 240053E3 		cmp	r3, #36
 9674 9208 6000001A 		bne	.L206
 9675 920c 30301FE5 		ldr	r3, .L275+236
 9676 9210 F661D3E1 		ldrsh	r6, [r3, #22]
 9677 9214 F421D3E1 		ldrsh	r2, [r3, #20]
 9678 9218 F831D3E1 		ldrsh	r3, [r3, #24]
 9679 921c 000052E3 		cmp	r2, #0
 9680 9220 002062B2 		rsblt	r2, r2, #0
 9681 9224 000056E3 		cmp	r6, #0
 9682 9228 006066B2 		rsblt	r6, r6, #0
 9683 922c 000053E3 		cmp	r3, #0
 9684 9230 003063B2 		rsblt	r3, r3, #0
 9685 9234 026086E0 		add	r6, r6, r2
 9686 9238 036086E0 		add	r6, r6, r3
 9687 923c 0668A0E1 		mov	r6, r6, asl #16
 9688 9240 2668A0E1 		mov	r6, r6, lsr #16
 9689 9244 310056E3 		cmp	r6, #49
 9690 9248 68001FE5 		ldr	r0, .L275+240
 9691 924c 0910A0E3 		mov	r1, #9
 9692 9250 BE60CDE1 		strh	r6, [sp, #14]	@ movhi
 9693 9254 0760A093 		movls	r6, #7
 9694 9258 0360A083 		movhi	r6, #3
 9695 925c FEFFFFEB 		bl	uart_check_free_space
 9696 9260 000050E3 		cmp	r0, #0
 9697 9264 4500000A 		beq	.L208
 9698 9268 9C301FE5 		ldr	r3, .L275+220
 9699 926c B020D3E1 		ldrh	r2, [r3, #0]
 9700 9270 092082E2 		add	r2, r2, #9
 9701 9274 B020C3E1 		strh	r2, [r3, #0]	@ movhi
 9702 9278 A8301FE5 		ldr	r3, .L275+224
 9703 927c B020D3E1 		ldrh	r2, [r3, #0]
 9704 9280 012082E2 		add	r2, r2, #1
 9705 9284 B020C3E1 		strh	r2, [r3, #0]	@ movhi
 9706 9288 A8001FE5 		ldr	r0, .L275+240
 9707 928c 9910A0E3 		mov	r1, #153
 9708 9290 BC501FE5 		ldr	r5, .L275+228
 9709 9294 FEFFFFEB 		bl	uart_transmit
 9710 9298 B8001FE5 		ldr	r0, .L275+240
 9711 929c 0910A0E3 		mov	r1, #9
 9712 92a0 C8401FE5 		ldr	r4, .L275+232
 9713 92a4 FEFFFFEB 		bl	uart_transmit
 9714 92a8 0A30A0E3 		mov	r3, #10
 9715 92ac 0030C5E5 		strb	r3, [r5, #0]
 9716 92b0 1330A0E3 		mov	r3, #19
 9717 92b4 0030C4E5 		strb	r3, [r4, #0]
 9718 92b8 D8001FE5 		ldr	r0, .L275+240
 9719 92bc 0110A0E3 		mov	r1, #1
 9720 92c0 FEFFFFEB 		bl	uart_transmit
 9721 92c4 0030D5E5 		ldrb	r3, [r5, #0]	@ zero_extendqisi2
 9722 92c8 0020D4E5 		ldrb	r2, [r4, #0]	@ zero_extendqisi2
 9723 92cc 183043E2 		sub	r3, r3, #24
 9724 92d0 FF3003E2 		and	r3, r3, #255
 9725 92d4 0030C5E5 		strb	r3, [r5, #0]
 9726 92d8 023083E0 		add	r3, r3, r2
 9727 92dc 0030C4E5 		strb	r3, [r4, #0]
 9728 92e0 00011FE5 		ldr	r0, .L275+240
 9729 92e4 E810A0E3 		mov	r1, #232
 9730 92e8 FEFFFFEB 		bl	uart_transmit
 9731 92ec 0030D5E5 		ldrb	r3, [r5, #0]	@ zero_extendqisi2
 9732 92f0 0020D4E5 		ldrb	r2, [r4, #0]	@ zero_extendqisi2
 9733 92f4 033086E0 		add	r3, r6, r3
 9734 92f8 FF3003E2 		and	r3, r3, #255
 9735 92fc 0030C5E5 		strb	r3, [r5, #0]
 9736 9300 023083E0 		add	r3, r3, r2
 9737 9304 0030C4E5 		strb	r3, [r4, #0]
 9738 9308 0610A0E1 		mov	r1, r6
 9739 930c 2C011FE5 		ldr	r0, .L275+240
 9740 9310 FEFFFFEB 		bl	uart_transmit
 9741 9314 0E10DDE5 		ldrb	r1, [sp, #14]	@ zero_extendqisi2
 9742 9318 0030D5E5 		ldrb	r3, [r5, #0]	@ zero_extendqisi2
 9743 931c 0020D4E5 		ldrb	r2, [r4, #0]	@ zero_extendqisi2
 9744 9320 033081E0 		add	r3, r1, r3
 9745 9324 FF3003E2 		and	r3, r3, #255
 9746 9328 0030C5E5 		strb	r3, [r5, #0]
 9747 932c 023083E0 		add	r3, r3, r2
 9748 9330 0030C4E5 		strb	r3, [r4, #0]
 9749 9334 54011FE5 		ldr	r0, .L275+240
 9750 9338 FEFFFFEB 		bl	uart_transmit
 9751 933c 0F10DDE5 		ldrb	r1, [sp, #15]	@ zero_extendqisi2
 9752 9340 0030D5E5 		ldrb	r3, [r5, #0]	@ zero_extendqisi2
 9753 9344 0020D4E5 		ldrb	r2, [r4, #0]	@ zero_extendqisi2
 9754 9348 033081E0 		add	r3, r1, r3
 9755 934c FF3003E2 		and	r3, r3, #255
 9756 9350 0030C5E5 		strb	r3, [r5, #0]
 9757 9354 023083E0 		add	r3, r3, r2
 9758 9358 0030C4E5 		strb	r3, [r4, #0]
 9759 935c 7C011FE5 		ldr	r0, .L275+240
 9760 9360 FEFFFFEB 		bl	uart_transmit
 9761 9364 0010D5E5 		ldrb	r1, [r5, #0]	@ zero_extendqisi2
 9762 9368 88011FE5 		ldr	r0, .L275+240
 9763 936c FEFFFFEB 		bl	uart_transmit
 9764 9370 90011FE5 		ldr	r0, .L275+240
 9765 9374 0010D4E5 		ldrb	r1, [r4, #0]	@ zero_extendqisi2
 9766 9378 FEFFFFEB 		bl	uart_transmit
 9767 937c 030000EA 		b	.L206
 9768              	.L208:
 9769 9380 B8311FE5 		ldr	r3, .L275+216
 9770 9384 0020D3E5 		ldrb	r2, [r3, #0]	@ zero_extendqisi2
 9771 9388 012082E2 		add	r2, r2, #1
 9772 938c 0020C3E5 		strb	r2, [r3, #0]
 9773              	.L206:
 9774 9390 48321FE5 		ldr	r3, .L275+88
 9775 9394 B030D3E1 		ldrh	r3, [r3, #0]
 9776 9398 2A0053E3 		cmp	r3, #42
 9777 939c CB00001A 		bne	.L209
 9778 93a0 54321FE5 		ldr	r3, .L275+92
 9779 93a4 0A10A0E3 		mov	r1, #10
 9780 93a8 000093E5 		ldr	r0, [r3, #0]
 9781 93ac FEFFFFEB 		bl	__aeabi_idiv
 9782 93b0 60321FE5 		ldr	r3, .L275+96
 9783 93b4 BE00CDE1 		strh	r0, [sp, #14]	@ movhi
 9784 93b8 000093E5 		ldr	r0, [r3, #0]	@ float
 9785 93bc FEFFFFEB 		bl	__aeabi_f2iz
 9786 93c0 1410A0E3 		mov	r1, #20
 9787 93c4 BC00CDE1 		strh	r0, [sp, #12]	@ movhi
 9788 93c8 E8011FE5 		ldr	r0, .L275+240
 9789 93cc FEFFFFEB 		bl	uart_check_free_space
 9790 93d0 000050E3 		cmp	r0, #0
 9791 93d4 B900000A 		beq	.L210
 9792 93d8 0C321FE5 		ldr	r3, .L275+220
 9793 93dc B020D3E1 		ldrh	r2, [r3, #0]
 9794 93e0 142082E2 		add	r2, r2, #20
 9795 93e4 B020C3E1 		strh	r2, [r3, #0]	@ movhi
 9796 93e8 18321FE5 		ldr	r3, .L275+224
 9797 93ec B020D3E1 		ldrh	r2, [r3, #0]
 9798 93f0 012082E2 		add	r2, r2, #1
 9799 93f4 B020C3E1 		strh	r2, [r3, #0]	@ movhi
 9800 93f8 18021FE5 		ldr	r0, .L275+240
 9801 93fc 9910A0E3 		mov	r1, #153
 9802 9400 2C521FE5 		ldr	r5, .L275+228
 9803 9404 FEFFFFEB 		bl	uart_transmit
 9804 9408 28021FE5 		ldr	r0, .L275+240
 9805 940c 1410A0E3 		mov	r1, #20
 9806 9410 38421FE5 		ldr	r4, .L275+232
 9807 9414 FEFFFFEB 		bl	uart_transmit
 9808 9418 1530A0E3 		mov	r3, #21
 9809 941c 0030C5E5 		strb	r3, [r5, #0]
 9810 9420 2930A0E3 		mov	r3, #41
 9811 9424 0030C4E5 		strb	r3, [r4, #0]
 9812 9428 48021FE5 		ldr	r0, .L275+240
 9813 942c 0110A0E3 		mov	r1, #1
 9814 9430 FEFFFFEB 		bl	uart_transmit
 9815 9434 0030D5E5 		ldrb	r3, [r5, #0]	@ zero_extendqisi2
 9816 9438 0020D4E5 		ldrb	r2, [r4, #0]	@ zero_extendqisi2
 9817 943c 0C3083E2 		add	r3, r3, #12
 9818 9440 FF3003E2 		and	r3, r3, #255
 9819 9444 0030C5E5 		strb	r3, [r5, #0]
 9820 9448 F4621FE5 		ldr	r6, .L275+100
 9821 944c 023083E0 		add	r3, r3, r2
 9822 9450 0030C4E5 		strb	r3, [r4, #0]
 9823 9454 74021FE5 		ldr	r0, .L275+240
 9824 9458 0C10A0E3 		mov	r1, #12
 9825 945c FEFFFFEB 		bl	uart_transmit
 9826 9460 0010D6E5 		ldrb	r1, [r6, #0]	@ zero_extendqisi2
 9827 9464 0030D5E5 		ldrb	r3, [r5, #0]	@ zero_extendqisi2
 9828 9468 0020D4E5 		ldrb	r2, [r4, #0]	@ zero_extendqisi2
 9829 946c 033081E0 		add	r3, r1, r3
 9830 9470 FF3003E2 		and	r3, r3, #255
 9831 9474 0030C5E5 		strb	r3, [r5, #0]
 9832 9478 023083E0 		add	r3, r3, r2
 9833 947c 0030C4E5 		strb	r3, [r4, #0]
 9834 9480 A0021FE5 		ldr	r0, .L275+240
 9835 9484 FEFFFFEB 		bl	uart_transmit
 9836 9488 0110D6E5 		ldrb	r1, [r6, #1]	@ zero_extendqisi2
 9837 948c 0030D5E5 		ldrb	r3, [r5, #0]	@ zero_extendqisi2
 9838 9490 0020D4E5 		ldrb	r2, [r4, #0]	@ zero_extendqisi2
 9839 9494 033081E0 		add	r3, r1, r3
 9840 9498 FF3003E2 		and	r3, r3, #255
 9841 949c 0030C5E5 		strb	r3, [r5, #0]
 9842 94a0 023083E0 		add	r3, r3, r2
 9843 94a4 0030C4E5 		strb	r3, [r4, #0]
 9844 94a8 C8021FE5 		ldr	r0, .L275+240
 9845 94ac FEFFFFEB 		bl	uart_transmit
 9846 94b0 58331FE5 		ldr	r3, .L275+104
 9847 94b4 0010D3E5 		ldrb	r1, [r3, #0]	@ zero_extendqisi2
 9848 94b8 0030D5E5 		ldrb	r3, [r5, #0]	@ zero_extendqisi2
 9849 94bc 0020D4E5 		ldrb	r2, [r4, #0]	@ zero_extendqisi2
 9850 94c0 033081E0 		add	r3, r1, r3
 9851 94c4 FF3003E2 		and	r3, r3, #255
 9852 94c8 0030C5E5 		strb	r3, [r5, #0]
 9853 94cc 023083E0 		add	r3, r3, r2
 9854 94d0 0030C4E5 		strb	r3, [r4, #0]
 9855 94d4 F4021FE5 		ldr	r0, .L275+240
 9856 94d8 FEFFFFEB 		bl	uart_transmit
 9857 94dc 0E10DDE5 		ldrb	r1, [sp, #14]	@ zero_extendqisi2
 9858 94e0 0030D5E5 		ldrb	r3, [r5, #0]	@ zero_extendqisi2
 9859 94e4 0020D4E5 		ldrb	r2, [r4, #0]	@ zero_extendqisi2
 9860 94e8 033081E0 		add	r3, r1, r3
 9861 94ec FF3003E2 		and	r3, r3, #255
 9862 94f0 0030C5E5 		strb	r3, [r5, #0]
 9863 94f4 023083E0 		add	r3, r3, r2
 9864 94f8 0030C4E5 		strb	r3, [r4, #0]
 9865 94fc 1C031FE5 		ldr	r0, .L275+240
 9866 9500 FEFFFFEB 		bl	uart_transmit
 9867 9504 0F10DDE5 		ldrb	r1, [sp, #15]	@ zero_extendqisi2
 9868 9508 0030D5E5 		ldrb	r3, [r5, #0]	@ zero_extendqisi2
 9869 950c 0020D4E5 		ldrb	r2, [r4, #0]	@ zero_extendqisi2
 9870 9510 033081E0 		add	r3, r1, r3
 9871 9514 FF3003E2 		and	r3, r3, #255
 9872 9518 0030C5E5 		strb	r3, [r5, #0]
 9873 951c 70631FE5 		ldr	r6, .L275+188
 9874 9520 023083E0 		add	r3, r3, r2
 9875 9524 0030C4E5 		strb	r3, [r4, #0]
 9876 9528 48031FE5 		ldr	r0, .L275+240
 9877 952c FEFFFFEB 		bl	uart_transmit
 9878 9530 0010D6E5 		ldrb	r1, [r6, #0]	@ zero_extendqisi2
 9879 9534 0030D5E5 		ldrb	r3, [r5, #0]	@ zero_extendqisi2
 9880 9538 0020D4E5 		ldrb	r2, [r4, #0]	@ zero_extendqisi2
 9881 953c 033081E0 		add	r3, r1, r3
 9882 9540 FF3003E2 		and	r3, r3, #255
 9883 9544 0030C5E5 		strb	r3, [r5, #0]
 9884 9548 023083E0 		add	r3, r3, r2
 9885 954c 0030C4E5 		strb	r3, [r4, #0]
 9886 9550 70031FE5 		ldr	r0, .L275+240
 9887 9554 FEFFFFEB 		bl	uart_transmit
 9888 9558 0110D6E5 		ldrb	r1, [r6, #1]	@ zero_extendqisi2
 9889 955c 0030D5E5 		ldrb	r3, [r5, #0]	@ zero_extendqisi2
 9890 9560 0020D4E5 		ldrb	r2, [r4, #0]	@ zero_extendqisi2
 9891 9564 033081E0 		add	r3, r1, r3
 9892 9568 FF3003E2 		and	r3, r3, #255
 9893 956c 0030C5E5 		strb	r3, [r5, #0]
 9894 9570 023083E0 		add	r3, r3, r2
 9895 9574 0030C4E5 		strb	r3, [r4, #0]
 9896 9578 98031FE5 		ldr	r0, .L275+240
 9897 957c FEFFFFEB 		bl	uart_transmit
 9898 9580 C4331FE5 		ldr	r3, .L275+204
 9899 9584 0010D3E5 		ldrb	r1, [r3, #0]	@ zero_extendqisi2
 9900 9588 0030D5E5 		ldrb	r3, [r5, #0]	@ zero_extendqisi2
 9901 958c 0020D4E5 		ldrb	r2, [r4, #0]	@ zero_extendqisi2
 9902 9590 033081E0 		add	r3, r1, r3
 9903 9594 FF3003E2 		and	r3, r3, #255
 9904 9598 0030C5E5 		strb	r3, [r5, #0]
 9905 959c 40641FE5 		ldr	r6, .L275+108
 9906 95a0 023083E0 		add	r3, r3, r2
 9907 95a4 0030C4E5 		strb	r3, [r4, #0]
 9908 95a8 C8031FE5 		ldr	r0, .L275+240
 9909 95ac FEFFFFEB 		bl	uart_transmit
 9910 95b0 0010D6E5 		ldrb	r1, [r6, #0]	@ zero_extendqisi2
 9911 95b4 0030D5E5 		ldrb	r3, [r5, #0]	@ zero_extendqisi2
 9912 95b8 0020D4E5 		ldrb	r2, [r4, #0]	@ zero_extendqisi2
 9913 95bc 033081E0 		add	r3, r1, r3
 9914 95c0 FF3003E2 		and	r3, r3, #255
 9915 95c4 0030C5E5 		strb	r3, [r5, #0]
 9916 95c8 023083E0 		add	r3, r3, r2
 9917 95cc 0030C4E5 		strb	r3, [r4, #0]
 9918 95d0 F0031FE5 		ldr	r0, .L275+240
 9919 95d4 FEFFFFEB 		bl	uart_transmit
 9920 95d8 0110D6E5 		ldrb	r1, [r6, #1]	@ zero_extendqisi2
 9921 95dc 0030D5E5 		ldrb	r3, [r5, #0]	@ zero_extendqisi2
 9922 95e0 0020D4E5 		ldrb	r2, [r4, #0]	@ zero_extendqisi2
 9923 95e4 033081E0 		add	r3, r1, r3
 9924 95e8 FF3003E2 		and	r3, r3, #255
 9925 95ec 0030C5E5 		strb	r3, [r5, #0]
 9926 95f0 90641FE5 		ldr	r6, .L275+112
 9927 95f4 023083E0 		add	r3, r3, r2
 9928 95f8 0030C4E5 		strb	r3, [r4, #0]
 9929 95fc 1C041FE5 		ldr	r0, .L275+240
 9930 9600 FEFFFFEB 		bl	uart_transmit
 9931 9604 0010D6E5 		ldrb	r1, [r6, #0]	@ zero_extendqisi2
 9932 9608 0030D5E5 		ldrb	r3, [r5, #0]	@ zero_extendqisi2
 9933 960c 0020D4E5 		ldrb	r2, [r4, #0]	@ zero_extendqisi2
 9934 9610 033081E0 		add	r3, r1, r3
 9935 9614 FF3003E2 		and	r3, r3, #255
 9936 9618 0030C5E5 		strb	r3, [r5, #0]
 9937 961c 023083E0 		add	r3, r3, r2
 9938 9620 0030C4E5 		strb	r3, [r4, #0]
 9939 9624 44041FE5 		ldr	r0, .L275+240
 9940 9628 FEFFFFEB 		bl	uart_transmit
 9941 962c 0110D6E5 		ldrb	r1, [r6, #1]	@ zero_extendqisi2
 9942 9630 0030D5E5 		ldrb	r3, [r5, #0]	@ zero_extendqisi2
 9943 9634 0020D4E5 		ldrb	r2, [r4, #0]	@ zero_extendqisi2
 9944 9638 033081E0 		add	r3, r1, r3
 9945 963c FF3003E2 		and	r3, r3, #255
 9946 9640 0030C5E5 		strb	r3, [r5, #0]
 9947 9644 023083E0 		add	r3, r3, r2
 9948 9648 0030C4E5 		strb	r3, [r4, #0]
 9949 964c 6C041FE5 		ldr	r0, .L275+240
 9950 9650 FEFFFFEB 		bl	uart_transmit
 9951 9654 0C10DDE5 		ldrb	r1, [sp, #12]	@ zero_extendqisi2
 9952 9658 0030D5E5 		ldrb	r3, [r5, #0]	@ zero_extendqisi2
 9953 965c 0020D4E5 		ldrb	r2, [r4, #0]	@ zero_extendqisi2
 9954 9660 033081E0 		add	r3, r1, r3
 9955 9664 FF3003E2 		and	r3, r3, #255
 9956 9668 0030C5E5 		strb	r3, [r5, #0]
 9957 966c 023083E0 		add	r3, r3, r2
 9958 9670 0030C4E5 		strb	r3, [r4, #0]
 9959 9674 94041FE5 		ldr	r0, .L275+240
 9960 9678 FEFFFFEB 		bl	uart_transmit
 9961 967c 0D10DDE5 		ldrb	r1, [sp, #13]	@ zero_extendqisi2
 9962 9680 0030D5E5 		ldrb	r3, [r5, #0]	@ zero_extendqisi2
 9963 9684 0020D4E5 		ldrb	r2, [r4, #0]	@ zero_extendqisi2
 9964 9688 033081E0 		add	r3, r1, r3
 9965 968c FF3003E2 		and	r3, r3, #255
 9966 9690 0030C5E5 		strb	r3, [r5, #0]
 9967 9694 023083E0 		add	r3, r3, r2
 9968 9698 0030C4E5 		strb	r3, [r4, #0]
 9969 969c BC041FE5 		ldr	r0, .L275+240
 9970 96a0 FEFFFFEB 		bl	uart_transmit
 9971 96a4 0010D5E5 		ldrb	r1, [r5, #0]	@ zero_extendqisi2
 9972 96a8 C8041FE5 		ldr	r0, .L275+240
 9973 96ac FEFFFFEB 		bl	uart_transmit
 9974 96b0 D0041FE5 		ldr	r0, .L275+240
 9975 96b4 0010D4E5 		ldrb	r1, [r4, #0]	@ zero_extendqisi2
 9976 96b8 FEFFFFEB 		bl	uart_transmit
 9977 96bc 030000EA 		b	.L209
 9978              	.L210:
 9979 96c0 F8341FE5 		ldr	r3, .L275+216
 9980 96c4 0020D3E5 		ldrb	r2, [r3, #0]	@ zero_extendqisi2
 9981 96c8 012082E2 		add	r2, r2, #1
 9982 96cc 0020C3E5 		strb	r2, [r3, #0]
 9983              	.L209:
 9984 96d0 6C351FE5 		ldr	r3, .L275+116
 9985 96d4 B030D3E1 		ldrh	r3, [r3, #0]
 9986 96d8 300053E3 		cmp	r3, #48
 9987 96dc 7901001A 		bne	.L178
 9988 96e0 78351FE5 		ldr	r3, .L275+120
 9989 96e4 04051FE5 		ldr	r0, .L275+240
 9990 96e8 2610A0E3 		mov	r1, #38
 9991 96ec 00308DE5 		str	r3, [sp, #0]	@ float
 9992 96f0 FEFFFFEB 		bl	uart_check_free_space
 9993 96f4 000050E3 		cmp	r0, #0
 9994 96f8 6E01000A 		beq	.L211
 9995 96fc 30351FE5 		ldr	r3, .L275+220
 9996 9700 B020D3E1 		ldrh	r2, [r3, #0]
 9997 9704 262082E2 		add	r2, r2, #38
 9998 9708 B020C3E1 		strh	r2, [r3, #0]	@ movhi
 9999 970c 3C351FE5 		ldr	r3, .L275+224
 10000 9710 B020D3E1 		ldrh	r2, [r3, #0]
 10001 9714 012082E2 		add	r2, r2, #1
 10002 9718 B020C3E1 		strh	r2, [r3, #0]	@ movhi
 10003 971c 3C051FE5 		ldr	r0, .L275+240
 10004 9720 9910A0E3 		mov	r1, #153
 10005 9724 50551FE5 		ldr	r5, .L275+228
 10006 9728 FEFFFFEB 		bl	uart_transmit
 10007 972c 4C051FE5 		ldr	r0, .L275+240
 10008 9730 2610A0E3 		mov	r1, #38
 10009 9734 5C451FE5 		ldr	r4, .L275+232
 10010 9738 FEFFFFEB 		bl	uart_transmit
 10011 973c 2730A0E3 		mov	r3, #39
 10012 9740 0030C5E5 		strb	r3, [r5, #0]
 10013 9744 4D30A0E3 		mov	r3, #77
 10014 9748 0030C4E5 		strb	r3, [r4, #0]
 10015 974c 6C051FE5 		ldr	r0, .L275+240
 10016 9750 0110A0E3 		mov	r1, #1
 10017 9754 FEFFFFEB 		bl	uart_transmit
 10018 9758 0030D5E5 		ldrb	r3, [r5, #0]	@ zero_extendqisi2
 10019 975c 0020D4E5 		ldrb	r2, [r4, #0]	@ zero_extendqisi2
 10020 9760 103083E2 		add	r3, r3, #16
 10021 9764 FF3003E2 		and	r3, r3, #255
 10022 9768 FC651FE5 		ldr	r6, .L275+124
 10023 976c 0030C5E5 		strb	r3, [r5, #0]
 10024 9770 023083E0 		add	r3, r3, r2
 10025 9774 0030C4E5 		strb	r3, [r4, #0]
 10026 9778 98051FE5 		ldr	r0, .L275+240
 10027 977c 1010A0E3 		mov	r1, #16
 10028 9780 FEFFFFEB 		bl	uart_transmit
 10029 9784 0010D6E5 		ldrb	r1, [r6, #0]	@ zero_extendqisi2
 10030 9788 0030D5E5 		ldrb	r3, [r5, #0]	@ zero_extendqisi2
 10031 978c 0020D4E5 		ldrb	r2, [r4, #0]	@ zero_extendqisi2
 10032 9790 033081E0 		add	r3, r1, r3
 10033 9794 FF3003E2 		and	r3, r3, #255
 10034 9798 0030C5E5 		strb	r3, [r5, #0]
 10035 979c 023083E0 		add	r3, r3, r2
 10036 97a0 0030C4E5 		strb	r3, [r4, #0]
 10037 97a4 C4051FE5 		ldr	r0, .L275+240
 10038 97a8 FEFFFFEB 		bl	uart_transmit
 10039 97ac 0110D6E5 		ldrb	r1, [r6, #1]	@ zero_extendqisi2
 10040 97b0 0030D5E5 		ldrb	r3, [r5, #0]	@ zero_extendqisi2
 10041 97b4 0020D4E5 		ldrb	r2, [r4, #0]	@ zero_extendqisi2
 10042 97b8 033081E0 		add	r3, r1, r3
 10043 97bc FF3003E2 		and	r3, r3, #255
 10044 97c0 0030C5E5 		strb	r3, [r5, #0]
 10045 97c4 023083E0 		add	r3, r3, r2
 10046 97c8 0030C4E5 		strb	r3, [r4, #0]
 10047 97cc EC051FE5 		ldr	r0, .L275+240
 10048 97d0 FEFFFFEB 		bl	uart_transmit
 10049 97d4 0210D6E5 		ldrb	r1, [r6, #2]	@ zero_extendqisi2
 10050 97d8 0030D5E5 		ldrb	r3, [r5, #0]	@ zero_extendqisi2
 10051 97dc 0020D4E5 		ldrb	r2, [r4, #0]	@ zero_extendqisi2
 10052 97e0 033081E0 		add	r3, r1, r3
 10053 97e4 FF3003E2 		and	r3, r3, #255
 10054 97e8 0030C5E5 		strb	r3, [r5, #0]
 10055 97ec 023083E0 		add	r3, r3, r2
 10056 97f0 0030C4E5 		strb	r3, [r4, #0]
 10057 97f4 14061FE5 		ldr	r0, .L275+240
 10058 97f8 FEFFFFEB 		bl	uart_transmit
 10059 97fc 0310D6E5 		ldrb	r1, [r6, #3]	@ zero_extendqisi2
 10060 9800 0030D5E5 		ldrb	r3, [r5, #0]	@ zero_extendqisi2
 10061 9804 0020D4E5 		ldrb	r2, [r4, #0]	@ zero_extendqisi2
 10062 9808 033081E0 		add	r3, r1, r3
 10063 980c FF3003E2 		and	r3, r3, #255
 10064 9810 A0661FE5 		ldr	r6, .L275+128
 10065 9814 0030C5E5 		strb	r3, [r5, #0]
 10066 9818 023083E0 		add	r3, r3, r2
 10067 981c 0030C4E5 		strb	r3, [r4, #0]
 10068 9820 40061FE5 		ldr	r0, .L275+240
 10069 9824 FEFFFFEB 		bl	uart_transmit
 10070 9828 0010D6E5 		ldrb	r1, [r6, #0]	@ zero_extendqisi2
 10071 982c 0030D5E5 		ldrb	r3, [r5, #0]	@ zero_extendqisi2
 10072 9830 0020D4E5 		ldrb	r2, [r4, #0]	@ zero_extendqisi2
 10073 9834 033081E0 		add	r3, r1, r3
 10074 9838 FF3003E2 		and	r3, r3, #255
 10075 983c 0030C5E5 		strb	r3, [r5, #0]
 10076 9840 023083E0 		add	r3, r3, r2
 10077 9844 0030C4E5 		strb	r3, [r4, #0]
 10078 9848 68061FE5 		ldr	r0, .L275+240
 10079 984c FEFFFFEB 		bl	uart_transmit
 10080 9850 0110D6E5 		ldrb	r1, [r6, #1]	@ zero_extendqisi2
 10081 9854 0030D5E5 		ldrb	r3, [r5, #0]	@ zero_extendqisi2
 10082 9858 0020D4E5 		ldrb	r2, [r4, #0]	@ zero_extendqisi2
 10083 985c 033081E0 		add	r3, r1, r3
 10084 9860 FF3003E2 		and	r3, r3, #255
 10085 9864 0030C5E5 		strb	r3, [r5, #0]
 10086 9868 023083E0 		add	r3, r3, r2
 10087 986c 0030C4E5 		strb	r3, [r4, #0]
 10088 9870 90061FE5 		ldr	r0, .L275+240
 10089 9874 FEFFFFEB 		bl	uart_transmit
 10090 9878 0210D6E5 		ldrb	r1, [r6, #2]	@ zero_extendqisi2
 10091 987c 0030D5E5 		ldrb	r3, [r5, #0]	@ zero_extendqisi2
 10092 9880 0020D4E5 		ldrb	r2, [r4, #0]	@ zero_extendqisi2
 10093 9884 033081E0 		add	r3, r1, r3
 10094 9888 FF3003E2 		and	r3, r3, #255
 10095 988c 0030C5E5 		strb	r3, [r5, #0]
 10096 9890 023083E0 		add	r3, r3, r2
 10097 9894 0030C4E5 		strb	r3, [r4, #0]
 10098 9898 B8061FE5 		ldr	r0, .L275+240
 10099 989c FEFFFFEB 		bl	uart_transmit
 10100 98a0 0310D6E5 		ldrb	r1, [r6, #3]	@ zero_extendqisi2
 10101 98a4 0030D5E5 		ldrb	r3, [r5, #0]	@ zero_extendqisi2
 10102 98a8 0020D4E5 		ldrb	r2, [r4, #0]	@ zero_extendqisi2
 10103 98ac 033081E0 		add	r3, r1, r3
 10104 98b0 FF3003E2 		and	r3, r3, #255
 10105 98b4 40671FE5 		ldr	r6, .L275+132
 10106 98b8 0030C5E5 		strb	r3, [r5, #0]
 10107 98bc 023083E0 		add	r3, r3, r2
 10108 98c0 0030C4E5 		strb	r3, [r4, #0]
 10109 98c4 E4061FE5 		ldr	r0, .L275+240
 10110 98c8 FEFFFFEB 		bl	uart_transmit
 10111 98cc 0010D6E5 		ldrb	r1, [r6, #0]	@ zero_extendqisi2
 10112 98d0 0030D5E5 		ldrb	r3, [r5, #0]	@ zero_extendqisi2
 10113 98d4 0020D4E5 		ldrb	r2, [r4, #0]	@ zero_extendqisi2
 10114 98d8 033081E0 		add	r3, r1, r3
 10115 98dc FF3003E2 		and	r3, r3, #255
 10116 98e0 0030C5E5 		strb	r3, [r5, #0]
 10117 98e4 023083E0 		add	r3, r3, r2
 10118 98e8 0030C4E5 		strb	r3, [r4, #0]
 10119 98ec 0C071FE5 		ldr	r0, .L275+240
 10120 98f0 FEFFFFEB 		bl	uart_transmit
 10121 98f4 0110D6E5 		ldrb	r1, [r6, #1]	@ zero_extendqisi2
 10122 98f8 0030D5E5 		ldrb	r3, [r5, #0]	@ zero_extendqisi2
 10123 98fc 0020D4E5 		ldrb	r2, [r4, #0]	@ zero_extendqisi2
 10124 9900 033081E0 		add	r3, r1, r3
 10125 9904 FF3003E2 		and	r3, r3, #255
 10126 9908 0030C5E5 		strb	r3, [r5, #0]
 10127 990c 023083E0 		add	r3, r3, r2
 10128 9910 0030C4E5 		strb	r3, [r4, #0]
 10129 9914 34071FE5 		ldr	r0, .L275+240
 10130 9918 FEFFFFEB 		bl	uart_transmit
 10131 991c 0210D6E5 		ldrb	r1, [r6, #2]	@ zero_extendqisi2
 10132 9920 0030D5E5 		ldrb	r3, [r5, #0]	@ zero_extendqisi2
 10133 9924 0020D4E5 		ldrb	r2, [r4, #0]	@ zero_extendqisi2
 10134 9928 033081E0 		add	r3, r1, r3
 10135 992c FF3003E2 		and	r3, r3, #255
 10136 9930 0030C5E5 		strb	r3, [r5, #0]
 10137 9934 023083E0 		add	r3, r3, r2
 10138 9938 0030C4E5 		strb	r3, [r4, #0]
 10139 993c 5C071FE5 		ldr	r0, .L275+240
 10140 9940 FEFFFFEB 		bl	uart_transmit
 10141 9944 0310D6E5 		ldrb	r1, [r6, #3]	@ zero_extendqisi2
 10142 9948 0030D5E5 		ldrb	r3, [r5, #0]	@ zero_extendqisi2
 10143 994c 0020D4E5 		ldrb	r2, [r4, #0]	@ zero_extendqisi2
 10144 9950 033081E0 		add	r3, r1, r3
 10145 9954 FF3003E2 		and	r3, r3, #255
 10146 9958 E0671FE5 		ldr	r6, .L275+136
 10147 995c 0030C5E5 		strb	r3, [r5, #0]
 10148 9960 023083E0 		add	r3, r3, r2
 10149 9964 0030C4E5 		strb	r3, [r4, #0]
 10150 9968 88071FE5 		ldr	r0, .L275+240
 10151 996c FEFFFFEB 		bl	uart_transmit
 10152 9970 0010D6E5 		ldrb	r1, [r6, #0]	@ zero_extendqisi2
 10153 9974 0030D5E5 		ldrb	r3, [r5, #0]	@ zero_extendqisi2
 10154 9978 0020D4E5 		ldrb	r2, [r4, #0]	@ zero_extendqisi2
 10155 997c 033081E0 		add	r3, r1, r3
 10156 9980 FF3003E2 		and	r3, r3, #255
 10157 9984 0030C5E5 		strb	r3, [r5, #0]
 10158 9988 023083E0 		add	r3, r3, r2
 10159 998c 0030C4E5 		strb	r3, [r4, #0]
 10160 9990 B0071FE5 		ldr	r0, .L275+240
 10161 9994 FEFFFFEB 		bl	uart_transmit
 10162 9998 0110D6E5 		ldrb	r1, [r6, #1]	@ zero_extendqisi2
 10163 999c 0030D5E5 		ldrb	r3, [r5, #0]	@ zero_extendqisi2
 10164 99a0 0020D4E5 		ldrb	r2, [r4, #0]	@ zero_extendqisi2
 10165 99a4 033081E0 		add	r3, r1, r3
 10166 99a8 FF3003E2 		and	r3, r3, #255
 10167 99ac 0030C5E5 		strb	r3, [r5, #0]
 10168 99b0 023083E0 		add	r3, r3, r2
 10169 99b4 0030C4E5 		strb	r3, [r4, #0]
 10170 99b8 D8071FE5 		ldr	r0, .L275+240
 10171 99bc FEFFFFEB 		bl	uart_transmit
 10172 99c0 0210D6E5 		ldrb	r1, [r6, #2]	@ zero_extendqisi2
 10173 99c4 0030D5E5 		ldrb	r3, [r5, #0]	@ zero_extendqisi2
 10174 99c8 0020D4E5 		ldrb	r2, [r4, #0]	@ zero_extendqisi2
 10175 99cc 033081E0 		add	r3, r1, r3
 10176 99d0 FF3003E2 		and	r3, r3, #255
 10177 99d4 0030C5E5 		strb	r3, [r5, #0]
 10178 99d8 023083E0 		add	r3, r3, r2
 10179 99dc 0030C4E5 		strb	r3, [r4, #0]
 10180 99e0 00081FE5 		ldr	r0, .L275+240
 10181 99e4 FEFFFFEB 		bl	uart_transmit
 10182 99e8 0310D6E5 		ldrb	r1, [r6, #3]	@ zero_extendqisi2
 10183 99ec 0030D5E5 		ldrb	r3, [r5, #0]	@ zero_extendqisi2
 10184 99f0 0020D4E5 		ldrb	r2, [r4, #0]	@ zero_extendqisi2
 10185 99f4 033081E0 		add	r3, r1, r3
 10186 99f8 FF3003E2 		and	r3, r3, #255
 10187 99fc 80681FE5 		ldr	r6, .L275+140
 10188 9a00 0030C5E5 		strb	r3, [r5, #0]
 10189 9a04 023083E0 		add	r3, r3, r2
 10190 9a08 0030C4E5 		strb	r3, [r4, #0]
 10191 9a0c 2C081FE5 		ldr	r0, .L275+240
 10192 9a10 FEFFFFEB 		bl	uart_transmit
 10193 9a14 0010D6E5 		ldrb	r1, [r6, #0]	@ zero_extendqisi2
 10194 9a18 0030D5E5 		ldrb	r3, [r5, #0]	@ zero_extendqisi2
 10195 9a1c 0020D4E5 		ldrb	r2, [r4, #0]	@ zero_extendqisi2
 10196 9a20 033081E0 		add	r3, r1, r3
 10197 9a24 FF3003E2 		and	r3, r3, #255
 10198 9a28 0030C5E5 		strb	r3, [r5, #0]
 10199 9a2c 023083E0 		add	r3, r3, r2
 10200 9a30 0030C4E5 		strb	r3, [r4, #0]
 10201 9a34 54081FE5 		ldr	r0, .L275+240
 10202 9a38 FEFFFFEB 		bl	uart_transmit
 10203 9a3c 0110D6E5 		ldrb	r1, [r6, #1]	@ zero_extendqisi2
 10204 9a40 0030D5E5 		ldrb	r3, [r5, #0]	@ zero_extendqisi2
 10205 9a44 0020D4E5 		ldrb	r2, [r4, #0]	@ zero_extendqisi2
 10206 9a48 033081E0 		add	r3, r1, r3
 10207 9a4c FF3003E2 		and	r3, r3, #255
 10208 9a50 0030C5E5 		strb	r3, [r5, #0]
 10209 9a54 023083E0 		add	r3, r3, r2
 10210 9a58 0030C4E5 		strb	r3, [r4, #0]
 10211 9a5c 7C081FE5 		ldr	r0, .L275+240
 10212 9a60 FEFFFFEB 		bl	uart_transmit
 10213 9a64 0210D6E5 		ldrb	r1, [r6, #2]	@ zero_extendqisi2
 10214 9a68 0030D5E5 		ldrb	r3, [r5, #0]	@ zero_extendqisi2
 10215 9a6c 0020D4E5 		ldrb	r2, [r4, #0]	@ zero_extendqisi2
 10216 9a70 033081E0 		add	r3, r1, r3
 10217 9a74 FF3003E2 		and	r3, r3, #255
 10218 9a78 0030C5E5 		strb	r3, [r5, #0]
 10219 9a7c 023083E0 		add	r3, r3, r2
 10220 9a80 0030C4E5 		strb	r3, [r4, #0]
 10221 9a84 A4081FE5 		ldr	r0, .L275+240
 10222 9a88 FEFFFFEB 		bl	uart_transmit
 10223 9a8c 0310D6E5 		ldrb	r1, [r6, #3]	@ zero_extendqisi2
 10224 9a90 0030D5E5 		ldrb	r3, [r5, #0]	@ zero_extendqisi2
 10225 9a94 0020D4E5 		ldrb	r2, [r4, #0]	@ zero_extendqisi2
 10226 9a98 033081E0 		add	r3, r1, r3
 10227 9a9c FF3003E2 		and	r3, r3, #255
 10228 9aa0 20691FE5 		ldr	r6, .L275+144
 10229 9aa4 0030C5E5 		strb	r3, [r5, #0]
 10230 9aa8 023083E0 		add	r3, r3, r2
 10231 9aac 0030C4E5 		strb	r3, [r4, #0]
 10232 9ab0 D0081FE5 		ldr	r0, .L275+240
 10233 9ab4 FEFFFFEB 		bl	uart_transmit
 10234 9ab8 0010D6E5 		ldrb	r1, [r6, #0]	@ zero_extendqisi2
 10235 9abc 0030D5E5 		ldrb	r3, [r5, #0]	@ zero_extendqisi2
 10236 9ac0 0020D4E5 		ldrb	r2, [r4, #0]	@ zero_extendqisi2
 10237 9ac4 033081E0 		add	r3, r1, r3
 10238 9ac8 FF3003E2 		and	r3, r3, #255
 10239 9acc 0030C5E5 		strb	r3, [r5, #0]
 10240 9ad0 023083E0 		add	r3, r3, r2
 10241 9ad4 0030C4E5 		strb	r3, [r4, #0]
 10242 9ad8 F8081FE5 		ldr	r0, .L275+240
 10243 9adc FEFFFFEB 		bl	uart_transmit
 10244 9ae0 0110D6E5 		ldrb	r1, [r6, #1]	@ zero_extendqisi2
 10245 9ae4 0030D5E5 		ldrb	r3, [r5, #0]	@ zero_extendqisi2
 10246 9ae8 0020D4E5 		ldrb	r2, [r4, #0]	@ zero_extendqisi2
 10247 9aec 033081E0 		add	r3, r1, r3
 10248 9af0 FF3003E2 		and	r3, r3, #255
 10249 9af4 0030C5E5 		strb	r3, [r5, #0]
 10250 9af8 023083E0 		add	r3, r3, r2
 10251 9afc 0030C4E5 		strb	r3, [r4, #0]
 10252 9b00 20091FE5 		ldr	r0, .L275+240
 10253 9b04 FEFFFFEB 		bl	uart_transmit
 10254 9b08 0210D6E5 		ldrb	r1, [r6, #2]	@ zero_extendqisi2
 10255 9b0c 0030D5E5 		ldrb	r3, [r5, #0]	@ zero_extendqisi2
 10256 9b10 0020D4E5 		ldrb	r2, [r4, #0]	@ zero_extendqisi2
 10257 9b14 033081E0 		add	r3, r1, r3
 10258 9b18 FF3003E2 		and	r3, r3, #255
 10259 9b1c 0030C5E5 		strb	r3, [r5, #0]
 10260 9b20 023083E0 		add	r3, r3, r2
 10261 9b24 0030C4E5 		strb	r3, [r4, #0]
 10262 9b28 48091FE5 		ldr	r0, .L275+240
 10263 9b2c FEFFFFEB 		bl	uart_transmit
 10264 9b30 0310D6E5 		ldrb	r1, [r6, #3]	@ zero_extendqisi2
 10265 9b34 0030D5E5 		ldrb	r3, [r5, #0]	@ zero_extendqisi2
 10266 9b38 0020D4E5 		ldrb	r2, [r4, #0]	@ zero_extendqisi2
 10267 9b3c 033081E0 		add	r3, r1, r3
 10268 9b40 FF3003E2 		and	r3, r3, #255
 10269 9b44 C0691FE5 		ldr	r6, .L275+148
 10270 9b48 0030C5E5 		strb	r3, [r5, #0]
 10271 9b4c 023083E0 		add	r3, r3, r2
 10272 9b50 0030C4E5 		strb	r3, [r4, #0]
 10273 9b54 74091FE5 		ldr	r0, .L275+240
 10274 9b58 FEFFFFEB 		bl	uart_transmit
 10275 9b5c 0010D6E5 		ldrb	r1, [r6, #0]	@ zero_extendqisi2
 10276 9b60 0030D5E5 		ldrb	r3, [r5, #0]	@ zero_extendqisi2
 10277 9b64 0020D4E5 		ldrb	r2, [r4, #0]	@ zero_extendqisi2
 10278 9b68 033081E0 		add	r3, r1, r3
 10279 9b6c FF3003E2 		and	r3, r3, #255
 10280 9b70 0030C5E5 		strb	r3, [r5, #0]
 10281 9b74 023083E0 		add	r3, r3, r2
 10282 9b78 0030C4E5 		strb	r3, [r4, #0]
 10283 9b7c 9C091FE5 		ldr	r0, .L275+240
 10284 9b80 FEFFFFEB 		bl	uart_transmit
 10285 9b84 0110D6E5 		ldrb	r1, [r6, #1]	@ zero_extendqisi2
 10286 9b88 0030D5E5 		ldrb	r3, [r5, #0]	@ zero_extendqisi2
 10287 9b8c 0020D4E5 		ldrb	r2, [r4, #0]	@ zero_extendqisi2
 10288 9b90 033081E0 		add	r3, r1, r3
 10289 9b94 FF3003E2 		and	r3, r3, #255
 10290 9b98 0030C5E5 		strb	r3, [r5, #0]
 10291 9b9c 023083E0 		add	r3, r3, r2
 10292 9ba0 0030C4E5 		strb	r3, [r4, #0]
 10293 9ba4 C4091FE5 		ldr	r0, .L275+240
 10294 9ba8 FEFFFFEB 		bl	uart_transmit
 10295 9bac 0210D6E5 		ldrb	r1, [r6, #2]	@ zero_extendqisi2
 10296 9bb0 0030D5E5 		ldrb	r3, [r5, #0]	@ zero_extendqisi2
 10297 9bb4 0020D4E5 		ldrb	r2, [r4, #0]	@ zero_extendqisi2
 10298 9bb8 033081E0 		add	r3, r1, r3
 10299 9bbc FF3003E2 		and	r3, r3, #255
 10300 9bc0 0030C5E5 		strb	r3, [r5, #0]
 10301 9bc4 023083E0 		add	r3, r3, r2
 10302 9bc8 0030C4E5 		strb	r3, [r4, #0]
 10303 9bcc EC091FE5 		ldr	r0, .L275+240
 10304 9bd0 FEFFFFEB 		bl	uart_transmit
 10305 9bd4 0310D6E5 		ldrb	r1, [r6, #3]	@ zero_extendqisi2
 10306 9bd8 0030D5E5 		ldrb	r3, [r5, #0]	@ zero_extendqisi2
 10307 9bdc 0020D4E5 		ldrb	r2, [r4, #0]	@ zero_extendqisi2
 10308 9be0 033081E0 		add	r3, r1, r3
 10309 9be4 FF3003E2 		and	r3, r3, #255
 10310 9be8 0030C5E5 		strb	r3, [r5, #0]
 10311 9bec 023083E0 		add	r3, r3, r2
 10312 9bf0 0030C4E5 		strb	r3, [r4, #0]
 10313 9bf4 140A1FE5 		ldr	r0, .L275+240
 10314 9bf8 FEFFFFEB 		bl	uart_transmit
 10315 9bfc 0010DDE5 		ldrb	r1, [sp, #0]	@ zero_extendqisi2
 10316 9c00 0030D5E5 		ldrb	r3, [r5, #0]	@ zero_extendqisi2
 10317 9c04 0020D4E5 		ldrb	r2, [r4, #0]	@ zero_extendqisi2
 10318 9c08 033081E0 		add	r3, r1, r3
 10319 9c0c FF3003E2 		and	r3, r3, #255
 10320 9c10 0030C5E5 		strb	r3, [r5, #0]
 10321 9c14 023083E0 		add	r3, r3, r2
 10322 9c18 0030C4E5 		strb	r3, [r4, #0]
 10323 9c1c 3C0A1FE5 		ldr	r0, .L275+240
 10324 9c20 FEFFFFEB 		bl	uart_transmit
 10325 9c24 0110DDE5 		ldrb	r1, [sp, #1]	@ zero_extendqisi2
 10326 9c28 0030D5E5 		ldrb	r3, [r5, #0]	@ zero_extendqisi2
 10327 9c2c 0020D4E5 		ldrb	r2, [r4, #0]	@ zero_extendqisi2
 10328 9c30 033081E0 		add	r3, r1, r3
 10329 9c34 FF3003E2 		and	r3, r3, #255
 10330 9c38 0030C5E5 		strb	r3, [r5, #0]
 10331 9c3c 023083E0 		add	r3, r3, r2
 10332 9c40 0030C4E5 		strb	r3, [r4, #0]
 10333 9c44 640A1FE5 		ldr	r0, .L275+240
 10334 9c48 FEFFFFEB 		bl	uart_transmit
 10335 9c4c 0210DDE5 		ldrb	r1, [sp, #2]	@ zero_extendqisi2
 10336 9c50 0030D5E5 		ldrb	r3, [r5, #0]	@ zero_extendqisi2
 10337 9c54 0020D4E5 		ldrb	r2, [r4, #0]	@ zero_extendqisi2
 10338 9c58 033081E0 		add	r3, r1, r3
 10339 9c5c FF3003E2 		and	r3, r3, #255
 10340 9c60 0030C5E5 		strb	r3, [r5, #0]
 10341 9c64 023083E0 		add	r3, r3, r2
 10342 9c68 0030C4E5 		strb	r3, [r4, #0]
 10343 9c6c 8C0A1FE5 		ldr	r0, .L275+240
 10344 9c70 FEFFFFEB 		bl	uart_transmit
 10345 9c74 0310DDE5 		ldrb	r1, [sp, #3]	@ zero_extendqisi2
 10346 9c78 0030D5E5 		ldrb	r3, [r5, #0]	@ zero_extendqisi2
 10347 9c7c 0020D4E5 		ldrb	r2, [r4, #0]	@ zero_extendqisi2
 10348 9c80 033081E0 		add	r3, r1, r3
 10349 9c84 FF3003E2 		and	r3, r3, #255
 10350 9c88 0030C5E5 		strb	r3, [r5, #0]
 10351 9c8c 023083E0 		add	r3, r3, r2
 10352 9c90 0030C4E5 		strb	r3, [r4, #0]
 10353 9c94 B40A1FE5 		ldr	r0, .L275+240
 10354 9c98 FEFFFFEB 		bl	uart_transmit
 10355 9c9c 0010D5E5 		ldrb	r1, [r5, #0]	@ zero_extendqisi2
 10356 9ca0 C00A1FE5 		ldr	r0, .L275+240
 10357 9ca4 FEFFFFEB 		bl	uart_transmit
 10358 9ca8 C80A1FE5 		ldr	r0, .L275+240
 10359 9cac 0010D4E5 		ldrb	r1, [r4, #0]	@ zero_extendqisi2
 10360 9cb0 FEFFFFEB 		bl	uart_transmit
 10361 9cb4 030000EA 		b	.L178
 10362              	.L211:
 10363 9cb8 F03A1FE5 		ldr	r3, .L275+216
 10364 9cbc 0020D3E5 		ldrb	r2, [r3, #0]	@ zero_extendqisi2
 10365 9cc0 012082E2 		add	r2, r2, #1
 10366 9cc4 0020C3E5 		strb	r2, [r3, #0]
 10367              	.L178:
 10368 9cc8 403B1FE5 		ldr	r3, .L275+152
 10369 9ccc 0030D3E5 		ldrb	r3, [r3, #0]	@ zero_extendqisi2
 10370 9cd0 030053E3 		cmp	r3, #3
 10371 9cd4 9C01001A 		bne	.L16
 10372 9cd8 4C3B1FE5 		ldr	r3, .L275+156
 10373 9cdc 0020D3E5 		ldrb	r2, [r3, #0]	@ zero_extendqisi2
 10374 9ce0 012082E2 		add	r2, r2, #1
 10375 9ce4 FF2002E2 		and	r2, r2, #255
 10376 9ce8 050052E3 		cmp	r2, #5
 10377 9cec 0020C3E5 		strb	r2, [r3, #0]
 10378 9cf0 0020A083 		movhi	r2, #0
 10379 9cf4 0020C385 		strhib	r2, [r3, #0]
 10380 9cf8 643B1FE5 		ldr	r3, .L275+164
 10381 9cfc 0020D3E5 		ldrb	r2, [r3, #0]	@ zero_extendqisi2
 10382 9d00 012082E2 		add	r2, r2, #1
 10383 9d04 FF2002E2 		and	r2, r2, #255
 10384 9d08 1D0052E3 		cmp	r2, #29
 10385 9d0c 0020C3E5 		strb	r2, [r3, #0]
 10386 9d10 0020A083 		movhi	r2, #0
 10387 9d14 0020C385 		strhib	r2, [r3, #0]
 10388 9d18 883B1FE5 		ldr	r3, .L275+160
 10389 9d1c 0020D3E5 		ldrb	r2, [r3, #0]	@ zero_extendqisi2
 10390 9d20 012082E2 		add	r2, r2, #1
 10391 9d24 FF2002E2 		and	r2, r2, #255
 10392 9d28 7D0052E3 		cmp	r2, #125
 10393 9d2c 0020C3E5 		strb	r2, [r3, #0]
 10394 9d30 0020A083 		movhi	r2, #0
 10395 9d34 0020C385 		strhib	r2, [r3, #0]
 10396 9d38 A43B1FE5 		ldr	r3, .L275+164
 10397 9d3c 0030D3E5 		ldrb	r3, [r3, #0]	@ zero_extendqisi2
 10398 9d40 060053E3 		cmp	r3, #6
 10399 9d44 9700001A 		bne	.L215
 10400 9d48 843B1FE5 		ldr	r3, .L275+212
 10401 9d4c 0020D3E5 		ldrb	r2, [r3, #0]	@ zero_extendqisi2
 10402 9d50 0A0052E3 		cmp	r2, #10
 10403 9d54 0020A083 		movhi	r2, #0
 10404 9d58 0020C385 		strhib	r2, [r3, #0]
 10405 9d5c 0030D3E5 		ldrb	r3, [r3, #0]	@ zero_extendqisi2
 10406 9d60 0A0053E3 		cmp	r3, #10
 10407 9d64 03F19F97 		ldrls	pc, [pc, r3, asl #2]
 10408 9d68 260000EA 		b	.L217
 10409              	.L229:
 10410 9d6c 989D0000 		.word	.L218
 10411 9d70 A09D0000 		.word	.L219
 10412 9d74 A89D0000 		.word	.L220
 10413 9d78 B09D0000 		.word	.L221
 10414 9d7c B89D0000 		.word	.L222
 10415 9d80 C09D0000 		.word	.L223
 10416 9d84 CC9D0000 		.word	.L224
 10417 9d88 D89D0000 		.word	.L225
 10418 9d8c E09D0000 		.word	.L226
 10419 9d90 E89D0000 		.word	.L227
 10420 9d94 F49D0000 		.word	.L228
 10421              	.L218:
 10422 9d98 003C1FE5 		ldr	r3, .L275+168
 10423 9d9c 1A0000EA 		b	.L257
 10424              	.L219:
 10425 9da0 043C1FE5 		ldr	r3, .L275+172
 10426 9da4 100000EA 		b	.L265
 10427              	.L220:
 10428 9da8 083C1FE5 		ldr	r3, .L275+176
 10429 9dac 070000EA 		b	.L266
 10430              	.L221:
 10431 9db0 0C3C1FE5 		ldr	r3, .L275+180
 10432 9db4 050000EA 		b	.L266
 10433              	.L222:
 10434 9db8 103C1FE5 		ldr	r3, .L275+184
 10435 9dbc 030000EA 		b	.L266
 10436              	.L223:
 10437 9dc0 143C1FE5 		ldr	r3, .L275+188
 10438 9dc4 B000D3E1 		ldrh	r0, [r3, #0]
 10439 9dc8 0B0000EA 		b	.L258
 10440              	.L224:
 10441 9dcc 1C3C1FE5 		ldr	r3, .L275+192
 10442              	.L266:
 10443 9dd0 003093E5 		ldr	r3, [r3, #0]	@ float
 10444 9dd4 0C0000EA 		b	.L257
 10445              	.L225:
 10446 9dd8 243C1FE5 		ldr	r3, .L275+196
 10447 9ddc 020000EA 		b	.L265
 10448              	.L226:
 10449 9de0 283C1FE5 		ldr	r3, .L275+200
 10450 9de4 000000EA 		b	.L265
 10451              	.L227:
 10452 9de8 2C3C1FE5 		ldr	r3, .L275+204
 10453              	.L265:
 10454 9dec 0000D3E5 		ldrb	r0, [r3, #0]	@ zero_extendqisi2
 10455 9df0 010000EA 		b	.L258
 10456              	.L228:
 10457 9df4 343C1FE5 		ldr	r3, .L275+208
 10458 9df8 B00FD3E1 		ldrh	r0, [r3, #240]
 10459              	.L258:
 10460 9dfc FEFFFFEB 		bl	__aeabi_ui2f
 10461 9e00 00008DE5 		str	r0, [sp, #0]	@ float
 10462 9e04 010000EA 		b	.L230
 10463              	.L217:
 10464 9e08 0030A0E3 		mov	r3, #0
 10465              	.L257:
 10466 9e0c 00308DE5 		str	r3, [sp, #0]	@ float
 10467              	.L230:
 10468 9e10 300C1FE5 		ldr	r0, .L275+240
 10469 9e14 0B10A0E3 		mov	r1, #11
 10470 9e18 FEFFFFEB 		bl	uart_check_free_space
 10471 9e1c 000050E3 		cmp	r0, #0
 10472 9e20 5A00000A 		beq	.L231
 10473 9e24 583C1FE5 		ldr	r3, .L275+220
 10474 9e28 B020D3E1 		ldrh	r2, [r3, #0]
 10475 9e2c 0B2082E2 		add	r2, r2, #11
 10476 9e30 B020C3E1 		strh	r2, [r3, #0]	@ movhi
 10477 9e34 643C1FE5 		ldr	r3, .L275+224
 10478 9e38 B020D3E1 		ldrh	r2, [r3, #0]
 10479 9e3c 012082E2 		add	r2, r2, #1
 10480 9e40 B020C3E1 		strh	r2, [r3, #0]	@ movhi
 10481 9e44 640C1FE5 		ldr	r0, .L275+240
 10482 9e48 9910A0E3 		mov	r1, #153
 10483 9e4c 785C1FE5 		ldr	r5, .L275+228
 10484 9e50 FEFFFFEB 		bl	uart_transmit
 10485 9e54 740C1FE5 		ldr	r0, .L275+240
 10486 9e58 0B10A0E3 		mov	r1, #11
 10487 9e5c 844C1FE5 		ldr	r4, .L275+232
 10488 9e60 FEFFFFEB 		bl	uart_transmit
 10489 9e64 0C30A0E3 		mov	r3, #12
 10490 9e68 0030C5E5 		strb	r3, [r5, #0]
 10491 9e6c 1730A0E3 		mov	r3, #23
 10492 9e70 0030C4E5 		strb	r3, [r4, #0]
 10493 9e74 940C1FE5 		ldr	r0, .L275+240
 10494 9e78 0110A0E3 		mov	r1, #1
 10495 9e7c FEFFFFEB 		bl	uart_transmit
 10496 9e80 0030D5E5 		ldrb	r3, [r5, #0]	@ zero_extendqisi2
 10497 9e84 0020D4E5 		ldrb	r2, [r4, #0]	@ zero_extendqisi2
 10498 9e88 1F3083E2 		add	r3, r3, #31
 10499 9e8c FF3003E2 		and	r3, r3, #255
 10500 9e90 0030C5E5 		strb	r3, [r5, #0]
 10501 9e94 023083E0 		add	r3, r3, r2
 10502 9e98 0030C4E5 		strb	r3, [r4, #0]
 10503 9e9c BC0C1FE5 		ldr	r0, .L275+240
 10504 9ea0 1F10A0E3 		mov	r1, #31
 10505 9ea4 FEFFFFEB 		bl	uart_transmit
 10506 9ea8 E43C1FE5 		ldr	r3, .L275+212
 10507 9eac 0010D3E5 		ldrb	r1, [r3, #0]	@ zero_extendqisi2
 10508 9eb0 0030D5E5 		ldrb	r3, [r5, #0]	@ zero_extendqisi2
 10509 9eb4 0020D4E5 		ldrb	r2, [r4, #0]	@ zero_extendqisi2
 10510 9eb8 033081E0 		add	r3, r1, r3
 10511 9ebc FF3003E2 		and	r3, r3, #255
 10512 9ec0 0030C5E5 		strb	r3, [r5, #0]
 10513 9ec4 023083E0 		add	r3, r3, r2
 10514 9ec8 0030C4E5 		strb	r3, [r4, #0]
 10515 9ecc EC0C1FE5 		ldr	r0, .L275+240
 10516 9ed0 FEFFFFEB 		bl	uart_transmit
 10517 9ed4 0010DDE5 		ldrb	r1, [sp, #0]	@ zero_extendqisi2
 10518 9ed8 0030D5E5 		ldrb	r3, [r5, #0]	@ zero_extendqisi2
 10519 9edc 0020D4E5 		ldrb	r2, [r4, #0]	@ zero_extendqisi2
 10520 9ee0 033081E0 		add	r3, r1, r3
 10521 9ee4 FF3003E2 		and	r3, r3, #255
 10522 9ee8 0030C5E5 		strb	r3, [r5, #0]
 10523 9eec 023083E0 		add	r3, r3, r2
 10524 9ef0 0030C4E5 		strb	r3, [r4, #0]
 10525 9ef4 140D1FE5 		ldr	r0, .L275+240
 10526 9ef8 FEFFFFEB 		bl	uart_transmit
 10527 9efc 0110DDE5 		ldrb	r1, [sp, #1]	@ zero_extendqisi2
 10528 9f00 0030D5E5 		ldrb	r3, [r5, #0]	@ zero_extendqisi2
 10529 9f04 0020D4E5 		ldrb	r2, [r4, #0]	@ zero_extendqisi2
 10530 9f08 033081E0 		add	r3, r1, r3
 10531 9f0c FF3003E2 		and	r3, r3, #255
 10532 9f10 0030C5E5 		strb	r3, [r5, #0]
 10533 9f14 023083E0 		add	r3, r3, r2
 10534 9f18 0030C4E5 		strb	r3, [r4, #0]
 10535 9f1c 3C0D1FE5 		ldr	r0, .L275+240
 10536 9f20 FEFFFFEB 		bl	uart_transmit
 10537 9f24 0210DDE5 		ldrb	r1, [sp, #2]	@ zero_extendqisi2
 10538 9f28 0030D5E5 		ldrb	r3, [r5, #0]	@ zero_extendqisi2
 10539 9f2c 0020D4E5 		ldrb	r2, [r4, #0]	@ zero_extendqisi2
 10540 9f30 033081E0 		add	r3, r1, r3
 10541 9f34 FF3003E2 		and	r3, r3, #255
 10542 9f38 0030C5E5 		strb	r3, [r5, #0]
 10543 9f3c 023083E0 		add	r3, r3, r2
 10544 9f40 0030C4E5 		strb	r3, [r4, #0]
 10545 9f44 640D1FE5 		ldr	r0, .L275+240
 10546 9f48 FEFFFFEB 		bl	uart_transmit
 10547 9f4c 0310DDE5 		ldrb	r1, [sp, #3]	@ zero_extendqisi2
 10548 9f50 0030D5E5 		ldrb	r3, [r5, #0]	@ zero_extendqisi2
 10549 9f54 0020D4E5 		ldrb	r2, [r4, #0]	@ zero_extendqisi2
 10550 9f58 033081E0 		add	r3, r1, r3
 10551 9f5c FF3003E2 		and	r3, r3, #255
 10552 9f60 0030C5E5 		strb	r3, [r5, #0]
 10553 9f64 023083E0 		add	r3, r3, r2
 10554 9f68 0030C4E5 		strb	r3, [r4, #0]
 10555 9f6c 8C0D1FE5 		ldr	r0, .L275+240
 10556 9f70 FEFFFFEB 		bl	uart_transmit
 10557 9f74 0010D5E5 		ldrb	r1, [r5, #0]	@ zero_extendqisi2
 10558 9f78 980D1FE5 		ldr	r0, .L275+240
 10559 9f7c FEFFFFEB 		bl	uart_transmit
 10560 9f80 A00D1FE5 		ldr	r0, .L275+240
 10561 9f84 0010D4E5 		ldrb	r1, [r4, #0]	@ zero_extendqisi2
 10562 9f88 FEFFFFEB 		bl	uart_transmit
 10563 9f8c 030000EA 		b	.L232
 10564              	.L231:
 10565 9f90 C83D1FE5 		ldr	r3, .L275+216
 10566 9f94 0020D3E5 		ldrb	r2, [r3, #0]	@ zero_extendqisi2
 10567 9f98 012082E2 		add	r2, r2, #1
 10568 9f9c 0020C3E5 		strb	r2, [r3, #0]
 10569              	.L232:
 10570 9fa0 DC3D1FE5 		ldr	r3, .L275+212
 10571 9fa4 960000EA 		b	.L259
 10572              	.L215:
 10573 9fa8 0C0053E3 		cmp	r3, #12
 10574 9fac 9700000A 		beq	.L233
 10575 9fb0 120053E3 		cmp	r3, #18
 10576 9fb4 9500001A 		bne	.L233
 10577 9fb8 D80D1FE5 		ldr	r0, .L275+240
 10578 9fbc 1010A0E3 		mov	r1, #16
 10579 9fc0 FEFFFFEB 		bl	uart_check_free_space
 10580 9fc4 000050E3 		cmp	r0, #0
 10581 9fc8 003E1F05 		ldreq	r3, .L275+216
 10582 9fcc 8C00000A 		beq	.L259
 10583 9fd0 043E1FE5 		ldr	r3, .L275+220
 10584 9fd4 B020D3E1 		ldrh	r2, [r3, #0]
 10585 9fd8 102082E2 		add	r2, r2, #16
 10586 9fdc B020C3E1 		strh	r2, [r3, #0]	@ movhi
 10587 9fe0 103E1FE5 		ldr	r3, .L275+224
 10588 9fe4 B020D3E1 		ldrh	r2, [r3, #0]
 10589 9fe8 012082E2 		add	r2, r2, #1
 10590 9fec B020C3E1 		strh	r2, [r3, #0]	@ movhi
 10591 9ff0 100E1FE5 		ldr	r0, .L275+240
 10592 9ff4 9910A0E3 		mov	r1, #153
 10593 9ff8 245E1FE5 		ldr	r5, .L275+228
 10594 9ffc FEFFFFEB 		bl	uart_transmit
 10595 a000 200E1FE5 		ldr	r0, .L275+240
 10596 a004 1010A0E3 		mov	r1, #16
 10597 a008 304E1FE5 		ldr	r4, .L275+232
 10598 a00c FEFFFFEB 		bl	uart_transmit
 10599 a010 1130A0E3 		mov	r3, #17
 10600 a014 0030C5E5 		strb	r3, [r5, #0]
 10601 a018 2130A0E3 		mov	r3, #33
 10602 a01c 0030C4E5 		strb	r3, [r4, #0]
 10603 a020 400E1FE5 		ldr	r0, .L275+240
 10604 a024 0110A0E3 		mov	r1, #1
 10605 a028 FEFFFFEB 		bl	uart_transmit
 10606 a02c 0030D5E5 		ldrb	r3, [r5, #0]	@ zero_extendqisi2
 10607 a030 0020D4E5 		ldrb	r2, [r4, #0]	@ zero_extendqisi2
 10608 a034 073083E2 		add	r3, r3, #7
 10609 a038 FF3003E2 		and	r3, r3, #255
 10610 a03c 606E1FE5 		ldr	r6, .L275+236
 10611 a040 0030C5E5 		strb	r3, [r5, #0]
 10612 a044 023083E0 		add	r3, r3, r2
 10613 a048 0030C4E5 		strb	r3, [r4, #0]
 10614 a04c 6C0E1FE5 		ldr	r0, .L275+240
 10615 a050 0710A0E3 		mov	r1, #7
 10616 a054 FEFFFFEB 		bl	uart_transmit
 10617 a058 0010D6E5 		ldrb	r1, [r6, #0]	@ zero_extendqisi2
 10618 a05c 0030D5E5 		ldrb	r3, [r5, #0]	@ zero_extendqisi2
 10619 a060 0020D4E5 		ldrb	r2, [r4, #0]	@ zero_extendqisi2
 10620 a064 033081E0 		add	r3, r1, r3
 10621 a068 FF3003E2 		and	r3, r3, #255
 10622 a06c 0030C5E5 		strb	r3, [r5, #0]
 10623 a070 023083E0 		add	r3, r3, r2
 10624 a074 0030C4E5 		strb	r3, [r4, #0]
 10625 a078 980E1FE5 		ldr	r0, .L275+240
 10626 a07c FEFFFFEB 		bl	uart_transmit
 10627 a080 0110D6E5 		ldrb	r1, [r6, #1]	@ zero_extendqisi2
 10628 a084 0030D5E5 		ldrb	r3, [r5, #0]	@ zero_extendqisi2
 10629 a088 0020D4E5 		ldrb	r2, [r4, #0]	@ zero_extendqisi2
 10630 a08c 033081E0 		add	r3, r1, r3
 10631 a090 FF3003E2 		and	r3, r3, #255
 10632 a094 0030C5E5 		strb	r3, [r5, #0]
 10633 a098 023083E0 		add	r3, r3, r2
 10634 a09c 0030C4E5 		strb	r3, [r4, #0]
 10635 a0a0 C00E1FE5 		ldr	r0, .L275+240
 10636 a0a4 FEFFFFEB 		bl	uart_transmit
 10637 a0a8 0210D6E5 		ldrb	r1, [r6, #2]	@ zero_extendqisi2
 10638 a0ac 0030D5E5 		ldrb	r3, [r5, #0]	@ zero_extendqisi2
 10639 a0b0 0020D4E5 		ldrb	r2, [r4, #0]	@ zero_extendqisi2
 10640 a0b4 033081E0 		add	r3, r1, r3
 10641 a0b8 FF3003E2 		and	r3, r3, #255
 10642 a0bc 0030C5E5 		strb	r3, [r5, #0]
 10643 a0c0 023083E0 		add	r3, r3, r2
 10644 a0c4 0030C4E5 		strb	r3, [r4, #0]
 10645 a0c8 E80E1FE5 		ldr	r0, .L275+240
 10646 a0cc FEFFFFEB 		bl	uart_transmit
 10647 a0d0 0310D6E5 		ldrb	r1, [r6, #3]	@ zero_extendqisi2
 10648 a0d4 0030D5E5 		ldrb	r3, [r5, #0]	@ zero_extendqisi2
 10649 a0d8 0020D4E5 		ldrb	r2, [r4, #0]	@ zero_extendqisi2
 10650 a0dc 033081E0 		add	r3, r1, r3
 10651 a0e0 FF3003E2 		and	r3, r3, #255
 10652 a0e4 0030C5E5 		strb	r3, [r5, #0]
 10653 a0e8 023083E0 		add	r3, r3, r2
 10654 a0ec 0030C4E5 		strb	r3, [r4, #0]
 10655 a0f0 100F1FE5 		ldr	r0, .L275+240
 10656 a0f4 FEFFFFEB 		bl	uart_transmit
 10657 a0f8 1610D6E5 		ldrb	r1, [r6, #22]	@ zero_extendqisi2
 10658 a0fc 0030D5E5 		ldrb	r3, [r5, #0]	@ zero_extendqisi2
 10659 a100 0020D4E5 		ldrb	r2, [r4, #0]	@ zero_extendqisi2
 10660 a104 033081E0 		add	r3, r1, r3
 10661 a108 FF3003E2 		and	r3, r3, #255
 10662 a10c 0030C5E5 		strb	r3, [r5, #0]
 10663 a110 023083E0 		add	r3, r3, r2
 10664 a114 0030C4E5 		strb	r3, [r4, #0]
 10665 a118 380F1FE5 		ldr	r0, .L275+240
 10666 a11c FEFFFFEB 		bl	uart_transmit
 10667 a120 1710D6E5 		ldrb	r1, [r6, #23]	@ zero_extendqisi2
 10668 a124 0030D5E5 		ldrb	r3, [r5, #0]	@ zero_extendqisi2
 10669 a128 0020D4E5 		ldrb	r2, [r4, #0]	@ zero_extendqisi2
 10670 a12c 033081E0 		add	r3, r1, r3
 10671 a130 FF3003E2 		and	r3, r3, #255
 10672 a134 0030C5E5 		strb	r3, [r5, #0]
 10673 a138 023083E0 		add	r3, r3, r2
 10674 a13c 0030C4E5 		strb	r3, [r4, #0]
 10675 a140 600F1FE5 		ldr	r0, .L275+240
 10676 a144 FEFFFFEB 		bl	uart_transmit
 10677 a148 1410D6E5 		ldrb	r1, [r6, #20]	@ zero_extendqisi2
 10678 a14c 0030D5E5 		ldrb	r3, [r5, #0]	@ zero_extendqisi2
 10679 a150 0020D4E5 		ldrb	r2, [r4, #0]	@ zero_extendqisi2
 10680 a154 033081E0 		add	r3, r1, r3
 10681 a158 FF3003E2 		and	r3, r3, #255
 10682 a15c 0030C5E5 		strb	r3, [r5, #0]
 10683 a160 023083E0 		add	r3, r3, r2
 10684 a164 0030C4E5 		strb	r3, [r4, #0]
 10685 a168 880F1FE5 		ldr	r0, .L275+240
 10686 a16c FEFFFFEB 		bl	uart_transmit
 10687 a170 1510D6E5 		ldrb	r1, [r6, #21]	@ zero_extendqisi2
 10688 a174 0030D5E5 		ldrb	r3, [r5, #0]	@ zero_extendqisi2
 10689 a178 0020D4E5 		ldrb	r2, [r4, #0]	@ zero_extendqisi2
 10690 a17c 033081E0 		add	r3, r1, r3
 10691 a180 FF3003E2 		and	r3, r3, #255
 10692 a184 0030C5E5 		strb	r3, [r5, #0]
 10693 a188 023083E0 		add	r3, r3, r2
 10694 a18c 0030C4E5 		strb	r3, [r4, #0]
 10695 a190 B00F1FE5 		ldr	r0, .L275+240
 10696 a194 FEFFFFEB 		bl	uart_transmit
 10697 a198 1810D6E5 		ldrb	r1, [r6, #24]	@ zero_extendqisi2
 10698 a19c 0030D5E5 		ldrb	r3, [r5, #0]	@ zero_extendqisi2
 10699 a1a0 0020D4E5 		ldrb	r2, [r4, #0]	@ zero_extendqisi2
 10700 a1a4 033081E0 		add	r3, r1, r3
 10701 a1a8 FF3003E2 		and	r3, r3, #255
 10702 a1ac 0030C5E5 		strb	r3, [r5, #0]
 10703 a1b0 023083E0 		add	r3, r3, r2
 10704 a1b4 0030C4E5 		strb	r3, [r4, #0]
 10705 a1b8 D80F1FE5 		ldr	r0, .L275+240
 10706 a1bc FEFFFFEB 		bl	uart_transmit
 10707 a1c0 1910D6E5 		ldrb	r1, [r6, #25]	@ zero_extendqisi2
 10708 a1c4 0030D5E5 		ldrb	r3, [r5, #0]	@ zero_extendqisi2
 10709 a1c8 0020D4E5 		ldrb	r2, [r4, #0]	@ zero_extendqisi2
 10710 a1cc 033081E0 		add	r3, r1, r3
 10711 a1d0 FF3003E2 		and	r3, r3, #255
 10712 a1d4 0030C5E5 		strb	r3, [r5, #0]
 10713 a1d8 023083E0 		add	r3, r3, r2
 10714 a1dc 0030C4E5 		strb	r3, [r4, #0]
 10715 a1e0 6C019FE5 		ldr	r0, .L277
 10716 a1e4 FEFFFFEB 		bl	uart_transmit
 10717 a1e8 0010D5E5 		ldrb	r1, [r5, #0]	@ zero_extendqisi2
 10718 a1ec 60019FE5 		ldr	r0, .L277
 10719 a1f0 FEFFFFEB 		bl	uart_transmit
 10720 a1f4 58019FE5 		ldr	r0, .L277
 10721 a1f8 0010D4E5 		ldrb	r1, [r4, #0]	@ zero_extendqisi2
 10722 a1fc FEFFFFEB 		bl	uart_transmit
 10723 a200 020000EA 		b	.L233
 10724              	.L259:
 10725 a204 0020D3E5 		ldrb	r2, [r3, #0]	@ zero_extendqisi2
 10726 a208 012082E2 		add	r2, r2, #1
 10727 a20c 0020C3E5 		strb	r2, [r3, #0]
 10728              	.L233:
 10729 a210 40319FE5 		ldr	r3, .L277+4
 10730 a214 0040D3E5 		ldrb	r4, [r3, #0]	@ zero_extendqisi2
 10731 a218 180054E3 		cmp	r4, #24
 10732 a21c 4A00001A 		bne	.L16
 10733 a220 2C019FE5 		ldr	r0, .L277
 10734 a224 1710A0E3 		mov	r1, #23
 10735 a228 FEFFFFEB 		bl	uart_check_free_space
 10736 a22c 000050E3 		cmp	r0, #0
 10737 a230 4100000A 		beq	.L235
 10738 a234 20319FE5 		ldr	r3, .L277+8
 10739 a238 B020D3E1 		ldrh	r2, [r3, #0]
 10740 a23c 172082E2 		add	r2, r2, #23
 10741 a240 B020C3E1 		strh	r2, [r3, #0]	@ movhi
 10742 a244 14319FE5 		ldr	r3, .L277+12
 10743 a248 B020D3E1 		ldrh	r2, [r3, #0]
 10744 a24c 012082E2 		add	r2, r2, #1
 10745 a250 B020C3E1 		strh	r2, [r3, #0]	@ movhi
 10746 a254 08519FE5 		ldr	r5, .L277+16
 10747 a258 F4009FE5 		ldr	r0, .L277
 10748 a25c 9910A0E3 		mov	r1, #153
 10749 a260 FEFFFFEB 		bl	uart_transmit
 10750 a264 E8009FE5 		ldr	r0, .L277
 10751 a268 1710A0E3 		mov	r1, #23
 10752 a26c FEFFFFEB 		bl	uart_transmit
 10753 a270 0040C5E5 		strb	r4, [r5, #0]
 10754 a274 EC409FE5 		ldr	r4, .L277+20
 10755 a278 2F30A0E3 		mov	r3, #47
 10756 a27c 0030C4E5 		strb	r3, [r4, #0]
 10757 a280 CC009FE5 		ldr	r0, .L277
 10758 a284 0110A0E3 		mov	r1, #1
 10759 a288 FEFFFFEB 		bl	uart_transmit
 10760 a28c 0030D5E5 		ldrb	r3, [r5, #0]	@ zero_extendqisi2
 10761 a290 0020D4E5 		ldrb	r2, [r4, #0]	@ zero_extendqisi2
 10762 a294 023083E2 		add	r3, r3, #2
 10763 a298 FF3003E2 		and	r3, r3, #255
 10764 a29c 0030C5E5 		strb	r3, [r5, #0]
 10765 a2a0 023083E0 		add	r3, r3, r2
 10766 a2a4 0030C4E5 		strb	r3, [r4, #0]
 10767 a2a8 A4009FE5 		ldr	r0, .L277
 10768 a2ac 0210A0E3 		mov	r1, #2
 10769 a2b0 FEFFFFEB 		bl	uart_transmit
 10770 a2b4 0030D5E5 		ldrb	r3, [r5, #0]	@ zero_extendqisi2
 10771 a2b8 0020D4E5 		ldrb	r2, [r4, #0]	@ zero_extendqisi2
 10772 a2bc 103083E2 		add	r3, r3, #16
 10773 a2c0 FF3003E2 		and	r3, r3, #255
 10774 a2c4 0030C5E5 		strb	r3, [r5, #0]
 10775 a2c8 023083E0 		add	r3, r3, r2
 10776 a2cc 0030C4E5 		strb	r3, [r4, #0]
 10777 a2d0 7C009FE5 		ldr	r0, .L277
 10778 a2d4 1010A0E3 		mov	r1, #16
 10779 a2d8 FEFFFFEB 		bl	uart_transmit
 10780 a2dc 88709FE5 		ldr	r7, .L277+24
 10781 a2e0 0060A0E3 		mov	r6, #0
 10782              	.L236:
 10783 a2e4 0610D7E7 		ldrb	r1, [r7, r6]	@ zero_extendqisi2
 10784 a2e8 0030D5E5 		ldrb	r3, [r5, #0]	@ zero_extendqisi2
 10785 a2ec 0020D4E5 		ldrb	r2, [r4, #0]	@ zero_extendqisi2
 10786 a2f0 033081E0 		add	r3, r1, r3
 10787 a2f4 FF3003E2 		and	r3, r3, #255
 10788 a2f8 0030C5E5 		strb	r3, [r5, #0]
 10789 a2fc 023083E0 		add	r3, r3, r2
 10790 a300 0030C4E5 		strb	r3, [r4, #0]
 10791 a304 48009FE5 		ldr	r0, .L277
 10792 a308 016086E2 		add	r6, r6, #1
 10793 a30c FEFFFFEB 		bl	uart_transmit
 10794 a310 100056E3 		cmp	r6, #16
 10795 a314 F2FFFF1A 		bne	.L236
 10796 a318 44309FE5 		ldr	r3, .L277+16
 10797 a31c 30009FE5 		ldr	r0, .L277
 10798 a320 0010D3E5 		ldrb	r1, [r3, #0]	@ zero_extendqisi2
 10799 a324 FEFFFFEB 		bl	uart_transmit
 10800 a328 38309FE5 		ldr	r3, .L277+20
 10801 a32c 20009FE5 		ldr	r0, .L277
 10802 a330 0010D3E5 		ldrb	r1, [r3, #0]	@ zero_extendqisi2
 10803 a334 FEFFFFEB 		bl	uart_transmit
 10804 a338 030000EA 		b	.L16
 10805              	.L235:
 10806 a33c 2C309FE5 		ldr	r3, .L277+28
 10807 a340 0020D3E5 		ldrb	r2, [r3, #0]	@ zero_extendqisi2
 10808 a344 012082E2 		add	r2, r2, #1
 10809              	.L260:
 10810 a348 0020C3E5 		strb	r2, [r3, #0]
 10811              	.L16:
 10812 a34c FF41BDE8 		ldmfd	sp!, {r0, r1, r2, r3, r4, r5, r6, r7, r8, lr}
 10813 a350 1EFF2FE1 		bx	lr
 10814              	.L278:
 10815              		.align	2
 10816              	.L277:
 10817 a354 00000000 		.word	uart1
 10818 a358 00000000 		.word	.LANCHOR59
 10819 a35c 00000000 		.word	downlink_nb_bytes
 10820 a360 00000000 		.word	downlink_nb_msgs
 10821 a364 00000000 		.word	ck_a
 10822 a368 00000000 		.word	ck_b
 10823 a36c 00000000 		.word	.LC0
 10824 a370 00000000 		.word	downlink_nb_ovrn
 10826              		.section	.text.navigation_task,"ax",%progbits
 10827              		.align	2
 10828              		.global	navigation_task
 10830              	navigation_task:
 10831              		@ Function supports interworking.
 10832              		@ args = 0, pretend = 0, frame = 0
 10833              		@ frame_needed = 0, uses_anonymous_args = 0
 10834 0000 F8402DE9 		stmfd	sp!, {r3, r4, r5, r6, r7, lr}
 10835 0004 FEFFFFEB 		bl	common_nav_periodic_task_4Hz
 10836 0008 B4349FE5 		ldr	r3, .L287
 10837 000c 0030D3E5 		ldrb	r3, [r3, #0]	@ zero_extendqisi2
 10838 0010 030053E3 		cmp	r3, #3
 10839 0014 0100001A 		bne	.L280
 10840 0018 FEFFFFEB 		bl	nav_home
 10841 001c 040000EA 		b	.L281
 10842              	.L280:
 10843 0020 040053E3 		cmp	r3, #4
 10844 0024 0100001A 		bne	.L282
 10845 0028 FEFFFFEB 		bl	nav_without_gps
 10846 002c 000000EA 		b	.L281
 10847              	.L282:
 10848 0030 FEFFFFEB 		bl	nav_periodic_task
 10849              	.L281:
 10850 0034 8C349FE5 		ldr	r3, .L287+4
 10851 0038 005093E5 		ldr	r5, [r3, #0]	@ float
 10852 003c FEFFFFEB 		bl	stateGetPositionEnu_f
 10853 0040 1A10A0E3 		mov	r1, #26
 10854 0044 0040A0E1 		mov	r4, r0
 10855 0048 7C049FE5 		ldr	r0, .L287+8
 10856 004c FEFFFFEB 		bl	uart_check_free_space
 10857 0050 000050E3 		cmp	r0, #0
 10858 0054 FB00000A 		beq	.L283
 10859 0058 0201C5E3 		bic	r0, r5, #-2147483648
 10860 005c FEFFFFEB 		bl	__aeabi_f2d
 10861 0060 68249FE5 		ldr	r2, .L287+12
 10862 0064 68349FE5 		ldr	r3, .L287+16
 10863 0068 FEFFFFEB 		bl	__aeabi_ddiv
 10864 006c FEFFFFEB 		bl	__aeabi_d2uiz
 10865 0070 60349FE5 		ldr	r3, .L287+20
 10866 0074 B020D3E1 		ldrh	r2, [r3, #0]
 10867 0078 1A2082E2 		add	r2, r2, #26
 10868 007c B020C3E1 		strh	r2, [r3, #0]	@ movhi
 10869 0080 54349FE5 		ldr	r3, .L287+24
 10870 0084 B020D3E1 		ldrh	r2, [r3, #0]
 10871 0088 012082E2 		add	r2, r2, #1
 10872 008c B020C3E1 		strh	r2, [r3, #0]	@ movhi
 10873 0090 FF7000E2 		and	r7, r0, #255
 10874 0094 9910A0E3 		mov	r1, #153
 10875 0098 2C049FE5 		ldr	r0, .L287+8
 10876 009c 3C649FE5 		ldr	r6, .L287+28
 10877 00a0 FEFFFFEB 		bl	uart_transmit
 10878 00a4 20049FE5 		ldr	r0, .L287+8
 10879 00a8 1A10A0E3 		mov	r1, #26
 10880 00ac 30549FE5 		ldr	r5, .L287+32
 10881 00b0 FEFFFFEB 		bl	uart_transmit
 10882 00b4 1B30A0E3 		mov	r3, #27
 10883 00b8 0030C6E5 		strb	r3, [r6, #0]
 10884 00bc 3530A0E3 		mov	r3, #53
 10885 00c0 0030C5E5 		strb	r3, [r5, #0]
 10886 00c4 00049FE5 		ldr	r0, .L287+8
 10887 00c8 0110A0E3 		mov	r1, #1
 10888 00cc FEFFFFEB 		bl	uart_transmit
 10889 00d0 0030D6E5 		ldrb	r3, [r6, #0]	@ zero_extendqisi2
 10890 00d4 0020D5E5 		ldrb	r2, [r5, #0]	@ zero_extendqisi2
 10891 00d8 0A3083E2 		add	r3, r3, #10
 10892 00dc FF3003E2 		and	r3, r3, #255
 10893 00e0 0030C6E5 		strb	r3, [r6, #0]
 10894 00e4 023083E0 		add	r3, r3, r2
 10895 00e8 0030C5E5 		strb	r3, [r5, #0]
 10896 00ec D8039FE5 		ldr	r0, .L287+8
 10897 00f0 0A10A0E3 		mov	r1, #10
 10898 00f4 FEFFFFEB 		bl	uart_transmit
 10899 00f8 E8339FE5 		ldr	r3, .L287+36
 10900 00fc 0010D3E5 		ldrb	r1, [r3, #0]	@ zero_extendqisi2
 10901 0100 0030D6E5 		ldrb	r3, [r6, #0]	@ zero_extendqisi2
 10902 0104 0020D5E5 		ldrb	r2, [r5, #0]	@ zero_extendqisi2
 10903 0108 033081E0 		add	r3, r1, r3
 10904 010c FF3003E2 		and	r3, r3, #255
 10905 0110 0030C6E5 		strb	r3, [r6, #0]
 10906 0114 023083E0 		add	r3, r3, r2
 10907 0118 0030C5E5 		strb	r3, [r5, #0]
 10908 011c A8039FE5 		ldr	r0, .L287+8
 10909 0120 FEFFFFEB 		bl	uart_transmit
 10910 0124 C0339FE5 		ldr	r3, .L287+40
 10911 0128 0010D3E5 		ldrb	r1, [r3, #0]	@ zero_extendqisi2
 10912 012c 0030D6E5 		ldrb	r3, [r6, #0]	@ zero_extendqisi2
 10913 0130 0020D5E5 		ldrb	r2, [r5, #0]	@ zero_extendqisi2
 10914 0134 033081E0 		add	r3, r1, r3
 10915 0138 FF3003E2 		and	r3, r3, #255
 10916 013c 0030C6E5 		strb	r3, [r6, #0]
 10917 0140 023083E0 		add	r3, r3, r2
 10918 0144 0030C5E5 		strb	r3, [r5, #0]
 10919 0148 7C039FE5 		ldr	r0, .L287+8
 10920 014c FEFFFFEB 		bl	uart_transmit
 10921 0150 0010D4E5 		ldrb	r1, [r4, #0]	@ zero_extendqisi2
 10922 0154 0030D6E5 		ldrb	r3, [r6, #0]	@ zero_extendqisi2
 10923 0158 0020D5E5 		ldrb	r2, [r5, #0]	@ zero_extendqisi2
 10924 015c 033081E0 		add	r3, r1, r3
 10925 0160 FF3003E2 		and	r3, r3, #255
 10926 0164 0030C6E5 		strb	r3, [r6, #0]
 10927 0168 023083E0 		add	r3, r3, r2
 10928 016c 0030C5E5 		strb	r3, [r5, #0]
 10929 0170 54039FE5 		ldr	r0, .L287+8
 10930 0174 FEFFFFEB 		bl	uart_transmit
 10931 0178 0110D4E5 		ldrb	r1, [r4, #1]	@ zero_extendqisi2
 10932 017c 0030D6E5 		ldrb	r3, [r6, #0]	@ zero_extendqisi2
 10933 0180 0020D5E5 		ldrb	r2, [r5, #0]	@ zero_extendqisi2
 10934 0184 033081E0 		add	r3, r1, r3
 10935 0188 FF3003E2 		and	r3, r3, #255
 10936 018c 0030C6E5 		strb	r3, [r6, #0]
 10937 0190 023083E0 		add	r3, r3, r2
 10938 0194 0030C5E5 		strb	r3, [r5, #0]
 10939 0198 2C039FE5 		ldr	r0, .L287+8
 10940 019c FEFFFFEB 		bl	uart_transmit
 10941 01a0 0210D4E5 		ldrb	r1, [r4, #2]	@ zero_extendqisi2
 10942 01a4 0030D6E5 		ldrb	r3, [r6, #0]	@ zero_extendqisi2
 10943 01a8 0020D5E5 		ldrb	r2, [r5, #0]	@ zero_extendqisi2
 10944 01ac 033081E0 		add	r3, r1, r3
 10945 01b0 FF3003E2 		and	r3, r3, #255
 10946 01b4 0030C6E5 		strb	r3, [r6, #0]
 10947 01b8 023083E0 		add	r3, r3, r2
 10948 01bc 0030C5E5 		strb	r3, [r5, #0]
 10949 01c0 04039FE5 		ldr	r0, .L287+8
 10950 01c4 FEFFFFEB 		bl	uart_transmit
 10951 01c8 0310D4E5 		ldrb	r1, [r4, #3]	@ zero_extendqisi2
 10952 01cc 0030D6E5 		ldrb	r3, [r6, #0]	@ zero_extendqisi2
 10953 01d0 0020D5E5 		ldrb	r2, [r5, #0]	@ zero_extendqisi2
 10954 01d4 033081E0 		add	r3, r1, r3
 10955 01d8 FF3003E2 		and	r3, r3, #255
 10956 01dc 0030C6E5 		strb	r3, [r6, #0]
 10957 01e0 023083E0 		add	r3, r3, r2
 10958 01e4 0030C5E5 		strb	r3, [r5, #0]
 10959 01e8 DC029FE5 		ldr	r0, .L287+8
 10960 01ec FEFFFFEB 		bl	uart_transmit
 10961 01f0 0410D4E5 		ldrb	r1, [r4, #4]	@ zero_extendqisi2
 10962 01f4 0030D6E5 		ldrb	r3, [r6, #0]	@ zero_extendqisi2
 10963 01f8 0020D5E5 		ldrb	r2, [r5, #0]	@ zero_extendqisi2
 10964 01fc 033081E0 		add	r3, r1, r3
 10965 0200 FF3003E2 		and	r3, r3, #255
 10966 0204 0030C6E5 		strb	r3, [r6, #0]
 10967 0208 023083E0 		add	r3, r3, r2
 10968 020c 0030C5E5 		strb	r3, [r5, #0]
 10969 0210 B4029FE5 		ldr	r0, .L287+8
 10970 0214 FEFFFFEB 		bl	uart_transmit
 10971 0218 0510D4E5 		ldrb	r1, [r4, #5]	@ zero_extendqisi2
 10972 021c 0030D6E5 		ldrb	r3, [r6, #0]	@ zero_extendqisi2
 10973 0220 0020D5E5 		ldrb	r2, [r5, #0]	@ zero_extendqisi2
 10974 0224 033081E0 		add	r3, r1, r3
 10975 0228 FF3003E2 		and	r3, r3, #255
 10976 022c 0030C6E5 		strb	r3, [r6, #0]
 10977 0230 023083E0 		add	r3, r3, r2
 10978 0234 0030C5E5 		strb	r3, [r5, #0]
 10979 0238 8C029FE5 		ldr	r0, .L287+8
 10980 023c FEFFFFEB 		bl	uart_transmit
 10981 0240 0610D4E5 		ldrb	r1, [r4, #6]	@ zero_extendqisi2
 10982 0244 0030D6E5 		ldrb	r3, [r6, #0]	@ zero_extendqisi2
 10983 0248 0020D5E5 		ldrb	r2, [r5, #0]	@ zero_extendqisi2
 10984 024c 033081E0 		add	r3, r1, r3
 10985 0250 FF3003E2 		and	r3, r3, #255
 10986 0254 0030C6E5 		strb	r3, [r6, #0]
 10987 0258 023083E0 		add	r3, r3, r2
 10988 025c 0030C5E5 		strb	r3, [r5, #0]
 10989 0260 64029FE5 		ldr	r0, .L287+8
 10990 0264 FEFFFFEB 		bl	uart_transmit
 10991 0268 0710D4E5 		ldrb	r1, [r4, #7]	@ zero_extendqisi2
 10992 026c 0030D6E5 		ldrb	r3, [r6, #0]	@ zero_extendqisi2
 10993 0270 0020D5E5 		ldrb	r2, [r5, #0]	@ zero_extendqisi2
 10994 0274 033081E0 		add	r3, r1, r3
 10995 0278 FF3003E2 		and	r3, r3, #255
 10996 027c 6C429FE5 		ldr	r4, .L287+44
 10997 0280 0030C6E5 		strb	r3, [r6, #0]
 10998 0284 023083E0 		add	r3, r3, r2
 10999 0288 0030C5E5 		strb	r3, [r5, #0]
 11000 028c 38029FE5 		ldr	r0, .L287+8
 11001 0290 FEFFFFEB 		bl	uart_transmit
 11002 0294 0010D4E5 		ldrb	r1, [r4, #0]	@ zero_extendqisi2
 11003 0298 0030D6E5 		ldrb	r3, [r6, #0]	@ zero_extendqisi2
 11004 029c 0020D5E5 		ldrb	r2, [r5, #0]	@ zero_extendqisi2
 11005 02a0 033081E0 		add	r3, r1, r3
 11006 02a4 FF3003E2 		and	r3, r3, #255
 11007 02a8 0030C6E5 		strb	r3, [r6, #0]
 11008 02ac 023083E0 		add	r3, r3, r2
 11009 02b0 0030C5E5 		strb	r3, [r5, #0]
 11010 02b4 10029FE5 		ldr	r0, .L287+8
 11011 02b8 FEFFFFEB 		bl	uart_transmit
 11012 02bc 0110D4E5 		ldrb	r1, [r4, #1]	@ zero_extendqisi2
 11013 02c0 0030D6E5 		ldrb	r3, [r6, #0]	@ zero_extendqisi2
 11014 02c4 0020D5E5 		ldrb	r2, [r5, #0]	@ zero_extendqisi2
 11015 02c8 033081E0 		add	r3, r1, r3
 11016 02cc FF3003E2 		and	r3, r3, #255
 11017 02d0 0030C6E5 		strb	r3, [r6, #0]
 11018 02d4 023083E0 		add	r3, r3, r2
 11019 02d8 0030C5E5 		strb	r3, [r5, #0]
 11020 02dc E8019FE5 		ldr	r0, .L287+8
 11021 02e0 FEFFFFEB 		bl	uart_transmit
 11022 02e4 0210D4E5 		ldrb	r1, [r4, #2]	@ zero_extendqisi2
 11023 02e8 0030D6E5 		ldrb	r3, [r6, #0]	@ zero_extendqisi2
 11024 02ec 0020D5E5 		ldrb	r2, [r5, #0]	@ zero_extendqisi2
 11025 02f0 033081E0 		add	r3, r1, r3
 11026 02f4 FF3003E2 		and	r3, r3, #255
 11027 02f8 0030C6E5 		strb	r3, [r6, #0]
 11028 02fc 023083E0 		add	r3, r3, r2
 11029 0300 0030C5E5 		strb	r3, [r5, #0]
 11030 0304 C0019FE5 		ldr	r0, .L287+8
 11031 0308 FEFFFFEB 		bl	uart_transmit
 11032 030c 0310D4E5 		ldrb	r1, [r4, #3]	@ zero_extendqisi2
 11033 0310 0030D6E5 		ldrb	r3, [r6, #0]	@ zero_extendqisi2
 11034 0314 0020D5E5 		ldrb	r2, [r5, #0]	@ zero_extendqisi2
 11035 0318 033081E0 		add	r3, r1, r3
 11036 031c FF3003E2 		and	r3, r3, #255
 11037 0320 CC419FE5 		ldr	r4, .L287+48
 11038 0324 0030C6E5 		strb	r3, [r6, #0]
 11039 0328 023083E0 		add	r3, r3, r2
 11040 032c 0030C5E5 		strb	r3, [r5, #0]
 11041 0330 94019FE5 		ldr	r0, .L287+8
 11042 0334 FEFFFFEB 		bl	uart_transmit
 11043 0338 0010D4E5 		ldrb	r1, [r4, #0]	@ zero_extendqisi2
 11044 033c 0030D6E5 		ldrb	r3, [r6, #0]	@ zero_extendqisi2
 11045 0340 0020D5E5 		ldrb	r2, [r5, #0]	@ zero_extendqisi2
 11046 0344 033081E0 		add	r3, r1, r3
 11047 0348 FF3003E2 		and	r3, r3, #255
 11048 034c 0030C6E5 		strb	r3, [r6, #0]
 11049 0350 023083E0 		add	r3, r3, r2
 11050 0354 0030C5E5 		strb	r3, [r5, #0]
 11051 0358 6C019FE5 		ldr	r0, .L287+8
 11052 035c FEFFFFEB 		bl	uart_transmit
 11053 0360 0110D4E5 		ldrb	r1, [r4, #1]	@ zero_extendqisi2
 11054 0364 0030D6E5 		ldrb	r3, [r6, #0]	@ zero_extendqisi2
 11055 0368 0020D5E5 		ldrb	r2, [r5, #0]	@ zero_extendqisi2
 11056 036c 033081E0 		add	r3, r1, r3
 11057 0370 FF3003E2 		and	r3, r3, #255
 11058 0374 0030C6E5 		strb	r3, [r6, #0]
 11059 0378 023083E0 		add	r3, r3, r2
 11060 037c 0030C5E5 		strb	r3, [r5, #0]
 11061 0380 44019FE5 		ldr	r0, .L287+8
 11062 0384 FEFFFFEB 		bl	uart_transmit
 11063 0388 0210D4E5 		ldrb	r1, [r4, #2]	@ zero_extendqisi2
 11064 038c 0030D6E5 		ldrb	r3, [r6, #0]	@ zero_extendqisi2
 11065 0390 0020D5E5 		ldrb	r2, [r5, #0]	@ zero_extendqisi2
 11066 0394 033081E0 		add	r3, r1, r3
 11067 0398 FF3003E2 		and	r3, r3, #255
 11068 039c 0030C6E5 		strb	r3, [r6, #0]
 11069 03a0 023083E0 		add	r3, r3, r2
 11070 03a4 0030C5E5 		strb	r3, [r5, #0]
 11071 03a8 1C019FE5 		ldr	r0, .L287+8
 11072 03ac FEFFFFEB 		bl	uart_transmit
 11073 03b0 0310D4E5 		ldrb	r1, [r4, #3]	@ zero_extendqisi2
 11074 03b4 0030D6E5 		ldrb	r3, [r6, #0]	@ zero_extendqisi2
 11075 03b8 0020D5E5 		ldrb	r2, [r5, #0]	@ zero_extendqisi2
 11076 03bc 033081E0 		add	r3, r1, r3
 11077 03c0 FF3003E2 		and	r3, r3, #255
 11078 03c4 0030C6E5 		strb	r3, [r6, #0]
 11079 03c8 023083E0 		add	r3, r3, r2
 11080 03cc 0030C5E5 		strb	r3, [r5, #0]
 11081 03d0 F4009FE5 		ldr	r0, .L287+8
 11082 03d4 FEFFFFEB 		bl	uart_transmit
 11083 03d8 0030D6E5 		ldrb	r3, [r6, #0]	@ zero_extendqisi2
 11084 03dc 0020D5E5 		ldrb	r2, [r5, #0]	@ zero_extendqisi2
 11085 03e0 033087E0 		add	r3, r7, r3
 11086 03e4 FF3003E2 		and	r3, r3, #255
 11087 03e8 0030C6E5 		strb	r3, [r6, #0]
 11088 03ec 023083E0 		add	r3, r3, r2
 11089 03f0 0030C5E5 		strb	r3, [r5, #0]
 11090 03f4 0710A0E1 		mov	r1, r7
 11091 03f8 CC009FE5 		ldr	r0, .L287+8
 11092 03fc FEFFFFEB 		bl	uart_transmit
 11093 0400 F0309FE5 		ldr	r3, .L287+52
 11094 0404 0010D3E5 		ldrb	r1, [r3, #0]	@ zero_extendqisi2
 11095 0408 0030D6E5 		ldrb	r3, [r6, #0]	@ zero_extendqisi2
 11096 040c 0020D5E5 		ldrb	r2, [r5, #0]	@ zero_extendqisi2
 11097 0410 033081E0 		add	r3, r1, r3
 11098 0414 FF3003E2 		and	r3, r3, #255
 11099 0418 0030C6E5 		strb	r3, [r6, #0]
 11100 041c 023083E0 		add	r3, r3, r2
 11101 0420 0030C5E5 		strb	r3, [r5, #0]
 11102 0424 A0009FE5 		ldr	r0, .L287+8
 11103 0428 FEFFFFEB 		bl	uart_transmit
 11104 042c 0010D6E5 		ldrb	r1, [r6, #0]	@ zero_extendqisi2
 11105 0430 94009FE5 		ldr	r0, .L287+8
 11106 0434 FEFFFFEB 		bl	uart_transmit
 11107 0438 8C009FE5 		ldr	r0, .L287+8
 11108 043c 0010D5E5 		ldrb	r1, [r5, #0]	@ zero_extendqisi2
 11109 0440 FEFFFFEB 		bl	uart_transmit
 11110 0444 030000EA 		b	.L284
 11111              	.L283:
 11112 0448 AC309FE5 		ldr	r3, .L287+56
 11113 044c 0020D3E5 		ldrb	r2, [r3, #0]	@ zero_extendqisi2
 11114 0450 012082E2 		add	r2, r2, #1
 11115 0454 0020C3E5 		strb	r2, [r3, #0]
 11116              	.L284:
 11117 0458 A0309FE5 		ldr	r3, .L287+60
 11118 045c 0030D3E5 		ldrb	r3, [r3, #0]	@ zero_extendqisi2
 11119 0460 030053E3 		cmp	r3, #3
 11120 0464 FEFFFF0B 		bleq	v_ctl_altitude_loop
 11121              	.L285:
 11122 0468 54309FE5 		ldr	r3, .L287
 11123 046c 0030D3E5 		ldrb	r3, [r3, #0]	@ zero_extendqisi2
 11124 0470 023043E2 		sub	r3, r3, #2
 11125 0474 020053E3 		cmp	r3, #2
 11126 0478 0300008A 		bhi	.L286
 11127 047c 80309FE5 		ldr	r3, .L287+64
 11128 0480 0030D3E5 		ldrb	r3, [r3, #0]	@ zero_extendqisi2
 11129 0484 020053E3 		cmp	r3, #2
 11130 0488 FEFFFF8B 		blhi	h_ctl_course_loop
 11131              	.L286:
 11132 048c 74309FE5 		ldr	r3, .L287+68
 11133 0490 000093E5 		ldr	r0, [r3, #0]
 11134 0494 FEFFFFEB 		bl	__aeabi_i2f
 11135 0498 6C109FE5 		ldr	r1, .L287+72
 11136 049c FEFFFFEB 		bl	__aeabi_fdiv
 11137 04a0 FA15A0E3 		mov	r1, #1048576000
 11138 04a4 FEFFFFEB 		bl	__aeabi_fmul
 11139 04a8 60409FE5 		ldr	r4, .L287+76
 11140 04ac 0010A0E1 		mov	r1, r0
 11141 04b0 000094E5 		ldr	r0, [r4, #0]	@ float
 11142 04b4 FEFFFFEB 		bl	__aeabi_fadd
 11143 04b8 000084E5 		str	r0, [r4, #0]	@ float
 11144 04bc F840BDE8 		ldmfd	sp!, {r3, r4, r5, r6, r7, lr}
 11145 04c0 1EFF2FE1 		bx	lr
 11146              	.L288:
 11147              		.align	2
 11148              	.L287:
 11149 04c4 00000000 		.word	.LANCHOR21
 11150 04c8 00000000 		.word	nav_circle_radians
 11151 04cc 00000000 		.word	uart1
 11152 04d0 182D4454 		.word	1413754136
 11153 04d4 FB211940 		.word	1075388923
 11154 04d8 00000000 		.word	downlink_nb_bytes
 11155 04dc 00000000 		.word	downlink_nb_msgs
 11156 04e0 00000000 		.word	ck_a
 11157 04e4 00000000 		.word	ck_b
 11158 04e8 00000000 		.word	nav_block
 11159 04ec 00000000 		.word	nav_stage
 11160 04f0 00000000 		.word	dist2_to_wp
 11161 04f4 00000000 		.word	dist2_to_home
 11162 04f8 00000000 		.word	nav_oval_count
 11163 04fc 00000000 		.word	downlink_nb_ovrn
 11164 0500 00000000 		.word	v_ctl_mode
 11165 0504 00000000 		.word	.LANCHOR23
 11166 0508 00000000 		.word	.LANCHOR17
 11167 050c 00006145 		.word	1163984896
 11168 0510 00000000 		.word	energy
 11170              		.global	__aeabi_dcmpgt
 11171              		.global	__aeabi_dcmplt
 11172              		.section	.text.attitude_loop,"ax",%progbits
 11173              		.align	2
 11174              		.global	attitude_loop
 11176              	attitude_loop:
 11177              		@ Function supports interworking.
 11178              		@ args = 0, pretend = 0, frame = 0
 11179              		@ frame_needed = 0, uses_anonymous_args = 0
 11180 0000 D0402DE9 		stmfd	sp!, {r4, r6, r7, lr}
 11181 0004 FEFFFFEB 		bl	ahrs_update_infrared
 11182 0008 20319FE5 		ldr	r3, .L302
 11183 000c 0030D3E5 		ldrb	r3, [r3, #0]	@ zero_extendqisi2
 11184 0010 010053E3 		cmp	r3, #1
 11185 0014 3200009A 		bls	.L290
 11186 0018 14319FE5 		ldr	r3, .L302+4
 11187 001c 0030D3E5 		ldrb	r3, [r3, #0]	@ zero_extendqisi2
 11188 0020 010053E3 		cmp	r3, #1
 11189 0024 0800001A 		bne	.L291
 11190 0028 08319FE5 		ldr	r3, .L302+8
 11191 002c B020D3E1 		ldrh	r2, [r3, #0]
 11192 0030 04319FE5 		ldr	r3, .L302+12
 11193 0034 B020C3E1 		strh	r2, [r3, #0]	@ movhi
 11194 0038 00319FE5 		ldr	r3, .L302+16
 11195 003c 002093E5 		ldr	r2, [r3, #0]	@ float
 11196 0040 FC309FE5 		ldr	r3, .L302+20
 11197 0044 002083E5 		str	r2, [r3, #0]	@ float
 11198 0048 000000EA 		b	.L292
 11199              	.L291:
 11200 004c FEFFFF8B 		blhi	v_ctl_climb_loop
 11201              	.L292:
 11202 0050 EC309FE5 		ldr	r3, .L302+20
 11203 0054 EC409FE5 		ldr	r4, .L302+24
 11204 0058 000093E5 		ldr	r0, [r3, #0]	@ float
 11205 005c 000084E5 		str	r0, [r4, #0]	@ float
 11206 0060 FEFFFFEB 		bl	__aeabi_f2d
 11207 0064 E0309FE5 		ldr	r3, .L302+28
 11208 0068 E0209FE5 		ldr	r2, .L302+32
 11209 006c 0060A0E1 		mov	r6, r0
 11210 0070 0170A0E1 		mov	r7, r1
 11211 0074 FEFFFFEB 		bl	__aeabi_dcmpgt
 11212 0078 000050E3 		cmp	r0, #0
 11213 007c D0309F15 		ldrne	r3, .L302+36
 11214 0080 0700001A 		bne	.L301
 11215 0084 0600A0E1 		mov	r0, r6
 11216 0088 0710A0E1 		mov	r1, r7
 11217 008c BC209FE5 		ldr	r2, .L302+32
 11218 0090 C0309FE5 		ldr	r3, .L302+40
 11219 0094 FEFFFFEB 		bl	__aeabi_dcmplt
 11220 0098 000050E3 		cmp	r0, #0
 11221 009c 0100000A 		beq	.L295
 11222 00a0 B4309FE5 		ldr	r3, .L302+44
 11223              	.L301:
 11224 00a4 003084E5 		str	r3, [r4, #0]	@ float
 11225              	.L295:
 11226 00a8 B0309FE5 		ldr	r3, .L302+48
 11227 00ac 0030D3E5 		ldrb	r3, [r3, #0]	@ zero_extendqisi2
 11228 00b0 000053E3 		cmp	r3, #0
 11229 00b4 0700001A 		bne	.L297
 11230 00b8 A4309FE5 		ldr	r3, .L302+52
 11231 00bc B030D3E1 		ldrh	r3, [r3, #0]
 11232 00c0 000053E3 		cmp	r3, #0
 11233 00c4 0600001A 		bne	.L290
 11234 00c8 98309FE5 		ldr	r3, .L302+56
 11235 00cc 0030D3E5 		ldrb	r3, [r3, #0]	@ zero_extendqisi2
 11236 00d0 000053E3 		cmp	r3, #0
 11237 00d4 0200001A 		bne	.L290
 11238              	.L297:
 11239 00d8 5C309FE5 		ldr	r3, .L302+12
 11240 00dc 0020A0E3 		mov	r2, #0
 11241 00e0 B020C3E1 		strh	r2, [r3, #0]	@ movhi
 11242              	.L290:
 11243 00e4 FEFFFFEB 		bl	h_ctl_attitude_loop
 11244 00e8 FEFFFFEB 		bl	v_ctl_throttle_slew
 11245 00ec 78309FE5 		ldr	r3, .L302+60
 11246 00f0 78209FE5 		ldr	r2, .L302+64
 11247 00f4 003093E5 		ldr	r3, [r3, #0]
 11248 00f8 B020D2E1 		ldrh	r2, [r2, #0]
 11249 00fc B020C3E1 		strh	r2, [r3, #0]	@ movhi
 11250 0100 6C209FE5 		ldr	r2, .L302+68
 11251 0104 B020D2E1 		ldrh	r2, [r2, #0]
 11252 0108 002062E2 		rsb	r2, r2, #0
 11253 010c B620C3E1 		strh	r2, [r3, #6]	@ movhi
 11254 0110 60209FE5 		ldr	r2, .L302+72
 11255 0114 B020D2E1 		ldrh	r2, [r2, #0]
 11256 0118 B220C3E1 		strh	r2, [r3, #2]	@ movhi
 11257 011c 58309FE5 		ldr	r3, .L302+76
 11258 0120 0120A0E3 		mov	r2, #1
 11259 0124 0020C3E5 		strb	r2, [r3, #0]
 11260 0128 D040BDE8 		ldmfd	sp!, {r4, r6, r7, lr}
 11261 012c 1EFF2FE1 		bx	lr
 11262              	.L303:
 11263              		.align	2
 11264              	.L302:
 11265 0130 00000000 		.word	.LANCHOR21
 11266 0134 00000000 		.word	v_ctl_mode
 11267 0138 00000000 		.word	nav_throttle_setpoint
 11268 013c 00000000 		.word	v_ctl_throttle_setpoint
 11269 0140 00000000 		.word	nav_pitch
 11270 0144 00000000 		.word	v_ctl_pitch_setpoint
 11271 0148 00000000 		.word	h_ctl_pitch_setpoint
 11272 014c FB21E93F 		.word	1072243195
 11273 0150 182D4454 		.word	1413754136
 11274 0154 DB0F493F 		.word	1061752795
 11275 0158 FB21E9BF 		.word	-1075240453
 11276 015c DB0F49BF 		.word	-1085730853
 11277 0160 00000000 		.word	.LANCHOR19
 11278 0164 00000000 		.word	.LANCHOR18
 11279 0168 00000000 		.word	.LANCHOR22
 11280 016c 00000000 		.word	ap_state
 11281 0170 00000000 		.word	v_ctl_throttle_slewed
 11282 0174 00000000 		.word	h_ctl_aileron_setpoint
 11283 0178 00000000 		.word	h_ctl_elevator_setpoint
 11284 017c 00000000 		.word	inter_mcu_received_ap
 11286              		.section	.text.sensors_task,"ax",%progbits
 11287              		.align	2
 11288              		.global	sensors_task
 11290              	sensors_task:
 11291              		@ Function supports interworking.
 11292              		@ args = 0, pretend = 0, frame = 0
 11293              		@ frame_needed = 0, uses_anonymous_args = 0
 11294 0000 08402DE9 		stmfd	sp!, {r3, lr}
 11295 0004 FEFFFFEB 		bl	ins_periodic
 11296 0008 0840BDE8 		ldmfd	sp!, {r3, lr}
 11297 000c 1EFF2FE1 		bx	lr
 11299              		.global	__aeabi_fcmpgt
 11300              		.section	.text.monitor_task,"ax",%progbits
 11301              		.align	2
 11302              		.global	monitor_task
 11304              	monitor_task:
 11305              		@ Function supports interworking.
 11306              		@ args = 0, pretend = 0, frame = 8
 11307              		@ frame_needed = 0, uses_anonymous_args = 0
 11308 0000 FC319FE5 		ldr	r3, .L318
 11309 0004 B020D3E1 		ldrh	r2, [r3, #0]
 11310 0008 000052E3 		cmp	r2, #0
 11311 000c 01208212 		addne	r2, r2, #1
 11312 0010 73402DE9 		stmfd	sp!, {r0, r1, r4, r5, r6, lr}
 11313 0014 B020C311 		strneh	r2, [r3, #0]	@ movhi
 11314 0018 E8319FE5 		ldr	r3, .L318+4
 11315 001c B020D3E1 		ldrh	r2, [r3, #0]
 11316 0020 012082E2 		add	r2, r2, #1
 11317 0024 B020C3E1 		strh	r2, [r3, #0]	@ movhi
 11318 0028 DC319FE5 		ldr	r3, .L318+8
 11319 002c 0030D3E5 		ldrb	r3, [r3, #0]	@ zero_extendqisi2
 11320 0030 310053E3 		cmp	r3, #49
 11321 0034 D4319FE5 		ldr	r3, .L318+12
 11322 0038 0020D395 		ldrlsb	r2, [r3, #0]	@ zero_extendqisi2
 11323 003c 0020A083 		movhi	r2, #0
 11324 0040 01208292 		addls	r2, r2, #1
 11325 0044 0020C3E5 		strb	r2, [r3, #0]
 11326 0048 0040D3E5 		ldrb	r4, [r3, #0]	@ zero_extendqisi2
 11327 004c C0319FE5 		ldr	r3, .L318+16
 11328 0050 0030D3E5 		ldrb	r3, [r3, #0]	@ zero_extendqisi2
 11329 0054 040054E3 		cmp	r4, #4
 11330 0058 0340A091 		movls	r4, r3
 11331 005c 01408383 		orrhi	r4, r3, #1
 11332 0060 B0319FE5 		ldr	r3, .L318+20
 11333 0064 0000D3E5 		ldrb	r0, [r3, #0]	@ zero_extendqisi2
 11334 0068 000050E3 		cmp	r0, #0
 11335 006c 0500000A 		beq	.L309
 11336 0070 A4319FE5 		ldr	r3, .L318+24
 11337 0074 A4119FE5 		ldr	r1, .L318+28
 11338 0078 000093E5 		ldr	r0, [r3, #0]	@ float
 11339 007c FEFFFFEB 		bl	__aeabi_fcmpgt
 11340 0080 000090E2 		adds	r0, r0, #0
 11341 0084 0100A013 		movne	r0, #1
 11342              	.L309:
 11343 0088 84319FE5 		ldr	r3, .L318+16
 11344 008c 004084E1 		orr	r4, r4, r0
 11345 0090 0040C3E5 		strb	r4, [r3, #0]
 11346 0094 68319FE5 		ldr	r3, .L318
 11347 0098 B030D3E1 		ldrh	r3, [r3, #0]
 11348 009c 000053E3 		cmp	r3, #0
 11349 00a0 5500001A 		bne	.L305
 11350 00a4 78419FE5 		ldr	r4, .L318+32
 11351 00a8 1531D4E5 		ldrb	r3, [r4, #277]	@ zero_extendqisi2
 11352 00ac 010013E3 		tst	r3, #1
 11353 00b0 FEFFFF0B 		bleq	stateCalcHorizontalSpeedNorm_f
 11354              	.L312:
 11355 00b4 680194E5 		ldr	r0, [r4, #360]	@ float
 11356 00b8 68119FE5 		ldr	r1, .L318+36
 11357 00bc FEFFFFEB 		bl	__aeabi_fcmpgt
 11358 00c0 000050E3 		cmp	r0, #0
 11359 00c4 4C00000A 		beq	.L305
 11360 00c8 34319FE5 		ldr	r3, .L318
 11361 00cc 0160A0E3 		mov	r6, #1
 11362 00d0 B060C3E1 		strh	r6, [r3, #0]	@ movhi
 11363 00d4 3C319FE5 		ldr	r3, .L318+20
 11364 00d8 0060C3E5 		strb	r6, [r3, #0]
 11365 00dc 48319FE5 		ldr	r3, .L318+40
 11366 00e0 003093E5 		ldr	r3, [r3, #0]
 11367 00e4 44019FE5 		ldr	r0, .L318+44
 11368 00e8 0810A0E3 		mov	r1, #8
 11369 00ec B630CDE1 		strh	r3, [sp, #6]	@ movhi
 11370 00f0 FEFFFFEB 		bl	uart_check_free_space
 11371 00f4 000050E3 		cmp	r0, #0
 11372 00f8 3B00000A 		beq	.L314
 11373 00fc 30319FE5 		ldr	r3, .L318+48
 11374 0100 B020D3E1 		ldrh	r2, [r3, #0]
 11375 0104 082082E2 		add	r2, r2, #8
 11376 0108 B020C3E1 		strh	r2, [r3, #0]	@ movhi
 11377 010c 24319FE5 		ldr	r3, .L318+52
 11378 0110 B020D3E1 		ldrh	r2, [r3, #0]
 11379 0114 062082E0 		add	r2, r2, r6
 11380 0118 B020C3E1 		strh	r2, [r3, #0]	@ movhi
 11381 011c 0C019FE5 		ldr	r0, .L318+44
 11382 0120 9910A0E3 		mov	r1, #153
 11383 0124 10519FE5 		ldr	r5, .L318+56
 11384 0128 FEFFFFEB 		bl	uart_transmit
 11385 012c FC009FE5 		ldr	r0, .L318+44
 11386 0130 0810A0E3 		mov	r1, #8
 11387 0134 04419FE5 		ldr	r4, .L318+60
 11388 0138 FEFFFFEB 		bl	uart_transmit
 11389 013c 0930A0E3 		mov	r3, #9
 11390 0140 0030C5E5 		strb	r3, [r5, #0]
 11391 0144 1130A0E3 		mov	r3, #17
 11392 0148 0030C4E5 		strb	r3, [r4, #0]
 11393 014c 0610A0E1 		mov	r1, r6
 11394 0150 D8009FE5 		ldr	r0, .L318+44
 11395 0154 FEFFFFEB 		bl	uart_transmit
 11396 0158 0030D5E5 		ldrb	r3, [r5, #0]	@ zero_extendqisi2
 11397 015c 0020D4E5 		ldrb	r2, [r4, #0]	@ zero_extendqisi2
 11398 0160 043083E2 		add	r3, r3, #4
 11399 0164 FF3003E2 		and	r3, r3, #255
 11400 0168 0030C5E5 		strb	r3, [r5, #0]
 11401 016c 023083E0 		add	r3, r3, r2
 11402 0170 0030C4E5 		strb	r3, [r4, #0]
 11403 0174 B4009FE5 		ldr	r0, .L318+44
 11404 0178 0410A0E3 		mov	r1, #4
 11405 017c FEFFFFEB 		bl	uart_transmit
 11406 0180 0610DDE5 		ldrb	r1, [sp, #6]	@ zero_extendqisi2
 11407 0184 0030D5E5 		ldrb	r3, [r5, #0]	@ zero_extendqisi2
 11408 0188 0020D4E5 		ldrb	r2, [r4, #0]	@ zero_extendqisi2
 11409 018c 033081E0 		add	r3, r1, r3
 11410 0190 FF3003E2 		and	r3, r3, #255
 11411 0194 0030C5E5 		strb	r3, [r5, #0]
 11412 0198 023083E0 		add	r3, r3, r2
 11413 019c 0030C4E5 		strb	r3, [r4, #0]
 11414 01a0 88009FE5 		ldr	r0, .L318+44
 11415 01a4 FEFFFFEB 		bl	uart_transmit
 11416 01a8 0710DDE5 		ldrb	r1, [sp, #7]	@ zero_extendqisi2
 11417 01ac 0030D5E5 		ldrb	r3, [r5, #0]	@ zero_extendqisi2
 11418 01b0 0020D4E5 		ldrb	r2, [r4, #0]	@ zero_extendqisi2
 11419 01b4 033081E0 		add	r3, r1, r3
 11420 01b8 FF3003E2 		and	r3, r3, #255
 11421 01bc 0030C5E5 		strb	r3, [r5, #0]
 11422 01c0 023083E0 		add	r3, r3, r2
 11423 01c4 0030C4E5 		strb	r3, [r4, #0]
 11424 01c8 60009FE5 		ldr	r0, .L318+44
 11425 01cc FEFFFFEB 		bl	uart_transmit
 11426 01d0 0010D5E5 		ldrb	r1, [r5, #0]	@ zero_extendqisi2
 11427 01d4 54009FE5 		ldr	r0, .L318+44
 11428 01d8 FEFFFFEB 		bl	uart_transmit
 11429 01dc 4C009FE5 		ldr	r0, .L318+44
 11430 01e0 0010D4E5 		ldrb	r1, [r4, #0]	@ zero_extendqisi2
 11431 01e4 FEFFFFEB 		bl	uart_transmit
 11432 01e8 030000EA 		b	.L305
 11433              	.L314:
 11434 01ec 50309FE5 		ldr	r3, .L318+64
 11435 01f0 0020D3E5 		ldrb	r2, [r3, #0]	@ zero_extendqisi2
 11436 01f4 012082E2 		add	r2, r2, #1
 11437 01f8 0020C3E5 		strb	r2, [r3, #0]
 11438              	.L305:
 11439 01fc 7C40BDE8 		ldmfd	sp!, {r2, r3, r4, r5, r6, lr}
 11440 0200 1EFF2FE1 		bx	lr
 11441              	.L319:
 11442              		.align	2
 11443              	.L318:
 11444 0204 00000000 		.word	.LANCHOR18
 11445 0208 00000000 		.word	datalink_time
 11446 020c 00000000 		.word	vsupply
 11447 0210 00000000 		.word	.LANCHOR61
 11448 0214 00000000 		.word	.LANCHOR19
 11449 0218 00000000 		.word	.LANCHOR22
 11450 021c 00000000 		.word	dist2_to_home
 11451 0220 C87E9A4A 		.word	1251638984
 11452 0224 00000000 		.word	state
 11453 0228 0000A040 		.word	1084227584
 11454 022c 00000000 		.word	sys_time
 11455 0230 00000000 		.word	uart1
 11456 0234 00000000 		.word	downlink_nb_bytes
 11457 0238 00000000 		.word	downlink_nb_msgs
 11458 023c 00000000 		.word	ck_a
 11459 0240 00000000 		.word	ck_b
 11460 0244 00000000 		.word	downlink_nb_ovrn
 11462              		.section	.text.handle_periodic_tasks_ap,"ax",%progbits
 11463              		.align	2
 11464              		.global	handle_periodic_tasks_ap
 11466              	handle_periodic_tasks_ap:
 11467              		@ Function supports interworking.
 11468              		@ args = 0, pretend = 0, frame = 0
 11469              		@ frame_needed = 0, uses_anonymous_args = 0
 11470 0000 10402DE9 		stmfd	sp!, {r4, lr}
 11471 0004 30319FE5 		ldr	r3, .L328
 11472 0008 0020D3E5 		ldrb	r2, [r3, #0]	@ zero_extendqisi2
 11473 000c 2C319FE5 		ldr	r3, .L328+4
 11474 0010 1410A0E3 		mov	r1, #20
 11475 0014 913222E0 		mla	r2, r1, r2, r3
 11476 0018 1410D2E5 		ldrb	r1, [r2, #20]	@ zero_extendqisi2
 11477 001c 000051E3 		cmp	r1, #0
 11478 0020 102082E2 		add	r2, r2, #16
 11479 0024 0340A0E1 		mov	r4, r3
 11480 0028 0030A013 		movne	r3, #0
 11481 002c 0430C215 		strneb	r3, [r2, #4]
 11482 0030 FEFFFF1B 		blne	ins_periodic
 11483              	.L321:
 11484 0034 08319FE5 		ldr	r3, .L328+8
 11485 0038 0030D3E5 		ldrb	r3, [r3, #0]	@ zero_extendqisi2
 11486 003c 1420A0E3 		mov	r2, #20
 11487 0040 924323E0 		mla	r3, r2, r3, r4
 11488 0044 1420D3E5 		ldrb	r2, [r3, #20]	@ zero_extendqisi2
 11489 0048 000052E3 		cmp	r2, #0
 11490 004c 103083E2 		add	r3, r3, #16
 11491 0050 0020A013 		movne	r2, #0
 11492 0054 0420C315 		strneb	r2, [r3, #4]
 11493 0058 FEFFFF1B 		blne	navigation_task
 11494              	.L322:
 11495 005c E4309FE5 		ldr	r3, .L328+12
 11496 0060 0020D3E5 		ldrb	r2, [r3, #0]	@ zero_extendqisi2
 11497 0064 D4309FE5 		ldr	r3, .L328+4
 11498 0068 1410A0E3 		mov	r1, #20
 11499 006c 913222E0 		mla	r2, r1, r2, r3
 11500 0070 1410D2E5 		ldrb	r1, [r2, #20]	@ zero_extendqisi2
 11501 0074 000051E3 		cmp	r1, #0
 11502 0078 102082E2 		add	r2, r2, #16
 11503 007c 0340A0E1 		mov	r4, r3
 11504 0080 0030A013 		movne	r3, #0
 11505 0084 0430C215 		strneb	r3, [r2, #4]
 11506 0088 FEFFFF1B 		blne	attitude_loop
 11507              	.L323:
 11508 008c B8309FE5 		ldr	r3, .L328+16
 11509 0090 0030D3E5 		ldrb	r3, [r3, #0]	@ zero_extendqisi2
 11510 0094 1420A0E3 		mov	r2, #20
 11511 0098 924323E0 		mla	r3, r2, r3, r4
 11512 009c 1420D3E5 		ldrb	r2, [r3, #20]	@ zero_extendqisi2
 11513 00a0 000052E3 		cmp	r2, #0
 11514 00a4 103083E2 		add	r3, r3, #16
 11515 00a8 0900000A 		beq	.L324
 11516 00ac 0020A0E3 		mov	r2, #0
 11517 00b0 0420C3E5 		strb	r2, [r3, #4]
 11518 00b4 94309FE5 		ldr	r3, .L328+20
 11519 00b8 0010D3E5 		ldrb	r1, [r3, #0]	@ zero_extendqisi2
 11520 00bc 011081E2 		add	r1, r1, #1
 11521 00c0 FF1001E2 		and	r1, r1, #255
 11522 00c4 020051E1 		cmp	r1, r2
 11523 00c8 0010C3E5 		strb	r1, [r3, #0]
 11524 00cc 0020C315 		strneb	r2, [r3, #0]
 11525 00d0 FEFFFFEB 		bl	infrared_adc_update
 11526              	.L324:
 11527 00d4 78309FE5 		ldr	r3, .L328+24
 11528 00d8 0020D3E5 		ldrb	r2, [r3, #0]	@ zero_extendqisi2
 11529 00dc 5C309FE5 		ldr	r3, .L328+4
 11530 00e0 1410A0E3 		mov	r1, #20
 11531 00e4 913222E0 		mla	r2, r1, r2, r3
 11532 00e8 1410D2E5 		ldrb	r1, [r2, #20]	@ zero_extendqisi2
 11533 00ec 000051E3 		cmp	r1, #0
 11534 00f0 102082E2 		add	r2, r2, #16
 11535 00f4 0340A0E1 		mov	r4, r3
 11536 00f8 0030A013 		movne	r3, #0
 11537 00fc 0430C215 		strneb	r3, [r2, #4]
 11538 0100 FEFFFF1B 		blne	monitor_task
 11539              	.L326:
 11540 0104 4C309FE5 		ldr	r3, .L328+28
 11541 0108 0030D3E5 		ldrb	r3, [r3, #0]	@ zero_extendqisi2
 11542 010c 1420A0E3 		mov	r2, #20
 11543 0110 924323E0 		mla	r3, r2, r3, r4
 11544 0114 1420D3E5 		ldrb	r2, [r3, #20]	@ zero_extendqisi2
 11545 0118 000052E3 		cmp	r2, #0
 11546 011c 103083E2 		add	r3, r3, #16
 11547 0120 0300000A 		beq	.L320
 11548 0124 0020A0E3 		mov	r2, #0
 11549 0128 0420C3E5 		strb	r2, [r3, #4]
 11550 012c 1040BDE8 		ldmfd	sp!, {r4, lr}
 11551 0130 FEFFFFEA 		b	reporting_task
 11552              	.L320:
 11553 0134 1040BDE8 		ldmfd	sp!, {r4, lr}
 11554 0138 1EFF2FE1 		bx	lr
 11555              	.L329:
 11556              		.align	2
 11557              	.L328:
 11558 013c 00000000 		.word	sensors_tid
 11559 0140 00000000 		.word	sys_time
 11560 0144 00000000 		.word	navigation_tid
 11561 0148 00000000 		.word	attitude_tid
 11562 014c 00000000 		.word	modules_tid
 11563 0150 00000000 		.word	.LANCHOR62
 11564 0154 00000000 		.word	monitor_tid
 11565 0158 00000000 		.word	telemetry_tid
 11567              		.global	__aeabi_dadd
 11568              		.global	__aeabi_d2f
 11569              		.section	.text.event_task_ap,"ax",%progbits
 11570              		.align	2
 11571              		.global	event_task_ap
 11573              	event_task_ap:
 11574              		@ Function supports interworking.
 11575              		@ args = 0, pretend = 0, frame = 0
 11576              		@ frame_needed = 0, uses_anonymous_args = 0
 11577 0000 F84F2DE9 		stmfd	sp!, {r3, r4, r5, r6, r7, r8, r9, sl, fp, lr}
 11578 0004 54469FE5 		ldr	r4, .L381
 11579 0008 B028D4E1 		ldrh	r2, [r4, #128]
 11580 000c B238D4E1 		ldrh	r3, [r4, #130]
 11581 0010 030052E1 		cmp	r2, r3
 11582 0014 48569F15 		ldrne	r5, .L381+4
 11583 0018 0500001A 		bne	.L379
 11584 001c 0B0000EA 		b	.L332
 11585              	.L333:
 11586 0020 0300D4E7 		ldrb	r0, [r4, r3]	@ zero_extendqisi2
 11587 0024 013083E2 		add	r3, r3, #1
 11588 0028 7F3003E2 		and	r3, r3, #127
 11589 002c B238C4E1 		strh	r3, [r4, #130]	@ movhi
 11590 0030 FEFFFFEB 		bl	gps_ubx_parse
 11591              	.L379:
 11592 0034 B238D4E1 		ldrh	r3, [r4, #130]
 11593 0038 B028D4E1 		ldrh	r2, [r4, #128]
 11594 003c 030052E1 		cmp	r2, r3
 11595 0040 0200000A 		beq	.L332
 11596 0044 0020D5E5 		ldrb	r2, [r5, #0]	@ zero_extendqisi2
 11597 0048 000052E3 		cmp	r2, #0
 11598 004c F3FFFF0A 		beq	.L333
 11599              	.L332:
 11600 0050 0C469FE5 		ldr	r4, .L381+4
 11601 0054 0030D4E5 		ldrb	r3, [r4, #0]	@ zero_extendqisi2
 11602 0058 000053E3 		cmp	r3, #0
 11603 005c 1700000A 		beq	.L334
 11604 0060 FEFFFFEB 		bl	gps_ubx_read_message
 11605 0064 0831D4E5 		ldrb	r3, [r4, #264]	@ zero_extendqisi2
 11606 0068 010053E3 		cmp	r3, #1
 11607 006c 1100001A 		bne	.L335
 11608 0070 0731D4E5 		ldrb	r3, [r4, #263]	@ zero_extendqisi2
 11609 0074 120053E3 		cmp	r3, #18
 11610 0078 0400000A 		beq	.L336
 11611 007c 060053E3 		cmp	r3, #6
 11612 0080 0C00001A 		bne	.L335
 11613 0084 1531D4E5 		ldrb	r3, [r4, #277]	@ zero_extendqisi2
 11614 0088 000053E3 		cmp	r3, #0
 11615 008c 0900001A 		bne	.L335
 11616              	.L336:
 11617 0090 D0359FE5 		ldr	r3, .L381+8
 11618 0094 5B20D3E5 		ldrb	r2, [r3, #91]	@ zero_extendqisi2
 11619 0098 030052E3 		cmp	r2, #3
 11620 009c C8259F05 		ldreq	r2, .L381+12
 11621 00a0 04109205 		ldreq	r1, [r2, #4]
 11622 00a4 00209205 		ldreq	r2, [r2, #0]
 11623 00a8 E8108305 		streq	r1, [r3, #232]
 11624 00ac EC208305 		streq	r2, [r3, #236]
 11625 00b0 FEFFFFEB 		bl	ins_update_gps
 11626 00b4 FEFFFFEB 		bl	ahrs_update_gps
 11627              	.L335:
 11628 00b8 0030A0E3 		mov	r3, #0
 11629 00bc 0030C4E5 		strb	r3, [r4, #0]
 11630              	.L334:
 11631 00c0 A8B59FE5 		ldr	fp, .L381+16
 11632 00c4 B088DBE1 		ldrh	r8, [fp, #128]
 11633 00c8 B248DBE1 		ldrh	r4, [fp, #130]
 11634 00cc 040058E1 		cmp	r8, r4
 11635 00d0 6000000A 		beq	.L338
 11636 00d4 98759FE5 		ldr	r7, .L381+20
 11637 00d8 0890A0E1 		mov	r9, r8
 11638 00dc 0431D7E5 		ldrb	r3, [r7, #260]	@ zero_extendqisi2
 11639 00e0 0261D7E5 		ldrb	r6, [r7, #258]	@ zero_extendqisi2
 11640 00e4 07C1D7E5 		ldrb	ip, [r7, #263]	@ zero_extendqisi2
 11641 00e8 0621D7E5 		ldrb	r2, [r7, #262]	@ zero_extendqisi2
 11642 00ec 0511D7E5 		ldrb	r1, [r7, #261]	@ zero_extendqisi2
 11643 00f0 0351D7E5 		ldrb	r5, [r7, #259]	@ zero_extendqisi2
 11644 00f4 07A0A0E1 		mov	sl, r7
 11645 00f8 360000EA 		b	.L339
 11646              	.L351:
 11647 00fc 0400DBE7 		ldrb	r0, [fp, r4]	@ zero_extendqisi2
 11648 0100 014084E2 		add	r4, r4, #1
 11649 0104 7F4004E2 		and	r4, r4, #127
 11650 0108 040053E3 		cmp	r3, #4
 11651 010c 03F19F97 		ldrls	pc, [pc, r3, asl #2]
 11652 0110 270000EA 		b	.L340
 11653              	.L346:
 11654 0114 28010000 		.word	.L341
 11655 0118 34010000 		.word	.L342
 11656 011c 68010000 		.word	.L343
 11657 0120 94010000 		.word	.L344
 11658 0124 A4010000 		.word	.L345
 11659              	.L341:
 11660 0128 990050E3 		cmp	r0, #153
 11661 012c 0130A003 		moveq	r3, #1
 11662 0130 220000EA 		b	.L347
 11663              	.L342:
 11664 0134 0131DAE5 		ldrb	r3, [sl, #257]	@ zero_extendqisi2
 11665 0138 FF3013E2 		ands	r3, r3, #255
 11666 013c 01608612 		addne	r6, r6, #1
 11667 0140 FF600612 		andne	r6, r6, #255
 11668 0144 1A00001A 		bne	.L340
 11669 0148 042040E2 		sub	r2, r0, #4
 11670 014c FF2002E2 		and	r2, r2, #255
 11671 0150 0021C7E5 		strb	r2, [r7, #256]
 11672 0154 0310A0E1 		mov	r1, r3
 11673 0158 0020A0E1 		mov	r2, r0
 11674 015c 00C0A0E1 		mov	ip, r0
 11675 0160 0230A0E3 		mov	r3, #2
 11676 0164 150000EA 		b	.L347
 11677              	.L343:
 11678 0168 0100CAE7 		strb	r0, [sl, r1]
 11679 016c 022080E0 		add	r2, r0, r2
 11680 0170 011081E2 		add	r1, r1, #1
 11681 0174 0001DAE5 		ldrb	r0, [sl, #256]	@ zero_extendqisi2
 11682 0178 FF2002E2 		and	r2, r2, #255
 11683 017c FF1001E2 		and	r1, r1, #255
 11684 0180 0CC082E0 		add	ip, r2, ip
 11685 0184 000051E1 		cmp	r1, r0
 11686 0188 FFC00CE2 		and	ip, ip, #255
 11687 018c 0330A003 		moveq	r3, #3
 11688 0190 0A0000EA 		b	.L347
 11689              	.L344:
 11690 0194 020050E1 		cmp	r0, r2
 11691 0198 0430A003 		moveq	r3, #4
 11692 019c 0400001A 		bne	.L340
 11693 01a0 060000EA 		b	.L347
 11694              	.L345:
 11695 01a4 0C0050E1 		cmp	r0, ip
 11696 01a8 0130A003 		moveq	r3, #1
 11697 01ac 0131C705 		streqb	r3, [r7, #257]
 11698 01b0 0100000A 		beq	.L349
 11699              	.L340:
 11700 01b4 015085E2 		add	r5, r5, #1
 11701 01b8 FF5005E2 		and	r5, r5, #255
 11702              	.L349:
 11703 01bc 0030A0E3 		mov	r3, #0
 11704              	.L347:
 11705 01c0 040059E1 		cmp	r9, r4
 11706 01c4 A4049F05 		ldreq	r0, .L381+16
 11707 01c8 0980A001 		moveq	r8, r9
 11708 01cc B298C001 		streqh	r9, [r0, #130]	@ movhi
 11709 01d0 9C049F05 		ldreq	r0, .L381+20
 11710 01d4 0500000A 		beq	.L380
 11711              	.L339:
 11712 01d8 0181D7E5 		ldrb	r8, [r7, #257]	@ zero_extendqisi2
 11713 01dc 000058E3 		cmp	r8, #0
 11714 01e0 8C049FE5 		ldr	r0, .L381+20
 11715 01e4 C4FFFF0A 		beq	.L351
 11716 01e8 80749FE5 		ldr	r7, .L381+16
 11717 01ec B248C7E1 		strh	r4, [r7, #130]	@ movhi
 11718              	.L380:
 11719 01f0 0621C0E5 		strb	r2, [r0, #262]
 11720 01f4 78249FE5 		ldr	r2, .L381+20
 11721 01f8 0431C0E5 		strb	r3, [r0, #260]
 11722 01fc 0131D2E5 		ldrb	r3, [r2, #257]	@ zero_extendqisi2
 11723 0200 000053E3 		cmp	r3, #0
 11724 0204 0511C0E5 		strb	r1, [r0, #261]
 11725 0208 0261C0E5 		strb	r6, [r0, #258]
 11726 020c 07C1C0E5 		strb	ip, [r0, #263]
 11727 0210 0351C0E5 		strb	r5, [r0, #259]
 11728 0214 0030A013 		movne	r3, #0
 11729 0218 58149F15 		ldrne	r1, .L381+24
 11730 021c 0400001A 		bne	.L352
 11731 0220 0C0000EA 		b	.L338
 11732              	.L353:
 11733 0224 0300D2E7 		ldrb	r0, [r2, r3]	@ zero_extendqisi2
 11734 0228 0300C1E7 		strb	r0, [r1, r3]
 11735 022c 013083E2 		add	r3, r3, #1
 11736 0230 FF3003E2 		and	r3, r3, #255
 11737              	.L352:
 11738 0234 0001D2E5 		ldrb	r0, [r2, #256]	@ zero_extendqisi2
 11739 0238 000053E1 		cmp	r3, r0
 11740 023c F8FFFF3A 		bcc	.L353
 11741 0240 34349FE5 		ldr	r3, .L381+28
 11742 0244 0120A0E3 		mov	r2, #1
 11743 0248 0020C3E5 		strb	r2, [r3, #0]
 11744 024c 20349FE5 		ldr	r3, .L381+20
 11745 0250 0020A0E3 		mov	r2, #0
 11746 0254 0121C3E5 		strb	r2, [r3, #257]
 11747              	.L338:
 11748 0258 1C449FE5 		ldr	r4, .L381+28
 11749 025c 0030D4E5 		ldrb	r3, [r4, #0]	@ zero_extendqisi2
 11750 0260 000053E3 		cmp	r3, #0
 11751 0264 0200000A 		beq	.L354
 11752 0268 FEFFFFEB 		bl	dl_parse_msg
 11753 026c 0030A0E3 		mov	r3, #0
 11754 0270 0030C4E5 		strb	r3, [r4, #0]
 11755              	.L354:
 11756 0274 04349FE5 		ldr	r3, .L381+32
 11757 0278 0020D3E5 		ldrb	r2, [r3, #0]	@ zero_extendqisi2
 11758 027c 000052E3 		cmp	r2, #0
 11759 0280 F400000A 		beq	.L330
 11760 0284 0020A0E3 		mov	r2, #0
 11761 0288 0020C3E5 		strb	r2, [r3, #0]
 11762 028c F0339FE5 		ldr	r3, .L381+36
 11763 0290 001093E5 		ldr	r1, [r3, #0]
 11764 0294 EC339FE5 		ldr	r3, .L381+40
 11765 0298 B420D1E1 		ldrh	r2, [r1, #4]
 11766 029c 003093E5 		ldr	r3, [r3, #0]
 11767 02a0 B420C3E1 		strh	r2, [r3, #4]	@ movhi
 11768 02a4 0B20D1E5 		ldrb	r2, [r1, #11]	@ zero_extendqisi2
 11769 02a8 A200A0E1 		mov	r0, r2, lsr #1
 11770 02ac 010010E2 		ands	r0, r0, #1
 11771 02b0 D4339FE5 		ldr	r3, .L381+44
 11772 02b4 0300000A 		beq	.L356
 11773 02b8 0000D3E5 		ldrb	r0, [r3, #0]	@ zero_extendqisi2
 11774 02bc 010050E3 		cmp	r0, #1
 11775 02c0 0000A083 		movhi	r0, #0
 11776 02c4 0100A093 		movls	r0, #1
 11777              	.L356:
 11778 02c8 0030D3E5 		ldrb	r3, [r3, #0]	@ zero_extendqisi2
 11779 02cc 033043E2 		sub	r3, r3, #3
 11780 02d0 010053E3 		cmp	r3, #1
 11781 02d4 0030A093 		movls	r3, #0
 11782 02d8 0F00009A 		bls	.L357
 11783 02dc AC339FE5 		ldr	r3, .L381+48
 11784 02e0 0030D3E5 		ldrb	r3, [r3, #0]	@ zero_extendqisi2
 11785 02e4 000053E3 		cmp	r3, #0
 11786 02e8 0B00000A 		beq	.L357
 11787 02ec A0339FE5 		ldr	r3, .L381+52
 11788 02f0 0030D3E5 		ldrb	r3, [r3, #0]	@ zero_extendqisi2
 11789 02f4 000053E3 		cmp	r3, #0
 11790 02f8 8C339F15 		ldrne	r3, .L381+44
 11791 02fc 03C0A013 		movne	ip, #3
 11792 0300 00C0C315 		strneb	ip, [r3, #0]
 11793 0304 0130A013 		movne	r3, #1
 11794 0308 000050E3 		cmp	r0, #0
 11795 030c 78339F15 		ldrne	r3, .L381+44
 11796 0310 0200A013 		movne	r0, #2
 11797 0314 0000C315 		strneb	r0, [r3, #0]
 11798 0318 0130A013 		movne	r3, #1
 11799              	.L357:
 11800 031c 100012E3 		tst	r2, #16
 11801 0320 1300000A 		beq	.L359
 11802 0324 60039FE5 		ldr	r0, .L381+44
 11803 0328 0000D0E5 		ldrb	r0, [r0, #0]	@ zero_extendqisi2
 11804 032c 03C040E2 		sub	ip, r0, #3
 11805 0330 01005CE3 		cmp	ip, #1
 11806 0334 0010A093 		movls	r1, #0
 11807 0338 0C00009A 		bls	.L360
 11808 033c F810D1E1 		ldrsh	r1, [r1, #8]
 11809 0340 4B0D51E3 		cmp	r1, #4800
 11810 0344 0210A0C3 		movgt	r1, #2
 11811 0348 020000CA 		bgt	.L361
 11812 034c 4B0D71E3 		cmn	r1, #4800
 11813 0350 0010A0D3 		movle	r1, #0
 11814 0354 0110A0C3 		movgt	r1, #1
 11815              	.L361:
 11816 0358 010050E1 		cmp	r0, r1
 11817 035c 28039F15 		ldrne	r0, .L381+44
 11818 0360 0010A003 		moveq	r1, #0
 11819 0364 0010C015 		strneb	r1, [r0, #0]
 11820 0368 0110A013 		movne	r1, #1
 11821 036c FF1001E2 		and	r1, r1, #255
 11822              	.L360:
 11823 0370 033081E1 		orr	r3, r1, r3
 11824              	.L359:
 11825 0374 1C039FE5 		ldr	r0, .L381+56
 11826 0378 0010D0E5 		ldrb	r1, [r0, #0]	@ zero_extendqisi2
 11827 037c 020051E1 		cmp	r1, r2
 11828 0380 0010A003 		moveq	r1, #0
 11829 0384 0300000A 		beq	.L363
 11830 0388 011022E0 		eor	r1, r2, r1
 11831 038c 0F1011E2 		ands	r1, r1, #15
 11832 0390 0020C0E5 		strb	r2, [r0, #0]
 11833 0394 0110A013 		movne	r1, #1
 11834              	.L363:
 11835 0398 031091E1 		orrs	r1, r1, r3
 11836 039c 6E00000A 		beq	.L364
 11837 03a0 C8029FE5 		ldr	r0, .L381+16
 11838 03a4 0C10A0E3 		mov	r1, #12
 11839 03a8 FEFFFFEB 		bl	uart_check_free_space
 11840 03ac 000050E3 		cmp	r0, #0
 11841 03b0 6500000A 		beq	.L365
 11842 03b4 E0329FE5 		ldr	r3, .L381+60
 11843 03b8 B020D3E1 		ldrh	r2, [r3, #0]
 11844 03bc 0C2082E2 		add	r2, r2, #12
 11845 03c0 B020C3E1 		strh	r2, [r3, #0]	@ movhi
 11846 03c4 D4329FE5 		ldr	r3, .L381+64
 11847 03c8 B020D3E1 		ldrh	r2, [r3, #0]
 11848 03cc 012082E2 		add	r2, r2, #1
 11849 03d0 B020C3E1 		strh	r2, [r3, #0]	@ movhi
 11850 03d4 94029FE5 		ldr	r0, .L381+16
 11851 03d8 9910A0E3 		mov	r1, #153
 11852 03dc C0529FE5 		ldr	r5, .L381+68
 11853 03e0 FEFFFFEB 		bl	uart_transmit
 11854 03e4 84029FE5 		ldr	r0, .L381+16
 11855 03e8 0C10A0E3 		mov	r1, #12
 11856 03ec B4429FE5 		ldr	r4, .L381+72
 11857 03f0 FEFFFFEB 		bl	uart_transmit
 11858 03f4 0D30A0E3 		mov	r3, #13
 11859 03f8 0030C5E5 		strb	r3, [r5, #0]
 11860 03fc 1930A0E3 		mov	r3, #25
 11861 0400 0030C4E5 		strb	r3, [r4, #0]
 11862 0404 64029FE5 		ldr	r0, .L381+16
 11863 0408 0110A0E3 		mov	r1, #1
 11864 040c FEFFFFEB 		bl	uart_transmit
 11865 0410 0030D5E5 		ldrb	r3, [r5, #0]	@ zero_extendqisi2
 11866 0414 0020D4E5 		ldrb	r2, [r4, #0]	@ zero_extendqisi2
 11867 0418 0B3083E2 		add	r3, r3, #11
 11868 041c FF3003E2 		and	r3, r3, #255
 11869 0420 0030C5E5 		strb	r3, [r5, #0]
 11870 0424 023083E0 		add	r3, r3, r2
 11871 0428 0030C4E5 		strb	r3, [r4, #0]
 11872 042c 3C029FE5 		ldr	r0, .L381+16
 11873 0430 0B10A0E3 		mov	r1, #11
 11874 0434 FEFFFFEB 		bl	uart_transmit
 11875 0438 4C329FE5 		ldr	r3, .L381+44
 11876 043c 0010D3E5 		ldrb	r1, [r3, #0]	@ zero_extendqisi2
 11877 0440 0030D5E5 		ldrb	r3, [r5, #0]	@ zero_extendqisi2
 11878 0444 0020D4E5 		ldrb	r2, [r4, #0]	@ zero_extendqisi2
 11879 0448 033081E0 		add	r3, r1, r3
 11880 044c FF3003E2 		and	r3, r3, #255
 11881 0450 0030C5E5 		strb	r3, [r5, #0]
 11882 0454 023083E0 		add	r3, r3, r2
 11883 0458 0030C4E5 		strb	r3, [r4, #0]
 11884 045c 0C029FE5 		ldr	r0, .L381+16
 11885 0460 FEFFFFEB 		bl	uart_transmit
 11886 0464 40329FE5 		ldr	r3, .L381+76
 11887 0468 0010D3E5 		ldrb	r1, [r3, #0]	@ zero_extendqisi2
 11888 046c 0030D5E5 		ldrb	r3, [r5, #0]	@ zero_extendqisi2
 11889 0470 0020D4E5 		ldrb	r2, [r4, #0]	@ zero_extendqisi2
 11890 0474 033081E0 		add	r3, r1, r3
 11891 0478 FF3003E2 		and	r3, r3, #255
 11892 047c 0030C5E5 		strb	r3, [r5, #0]
 11893 0480 023083E0 		add	r3, r3, r2
 11894 0484 0030C4E5 		strb	r3, [r4, #0]
 11895 0488 E0019FE5 		ldr	r0, .L381+16
 11896 048c FEFFFFEB 		bl	uart_transmit
 11897 0490 18329FE5 		ldr	r3, .L381+80
 11898 0494 0010D3E5 		ldrb	r1, [r3, #0]	@ zero_extendqisi2
 11899 0498 0030D5E5 		ldrb	r3, [r5, #0]	@ zero_extendqisi2
 11900 049c 0020D4E5 		ldrb	r2, [r4, #0]	@ zero_extendqisi2
 11901 04a0 033081E0 		add	r3, r1, r3
 11902 04a4 FF3003E2 		and	r3, r3, #255
 11903 04a8 0030C5E5 		strb	r3, [r5, #0]
 11904 04ac 023083E0 		add	r3, r3, r2
 11905 04b0 0030C4E5 		strb	r3, [r4, #0]
 11906 04b4 B4019FE5 		ldr	r0, .L381+16
 11907 04b8 FEFFFFEB 		bl	uart_transmit
 11908 04bc F0319FE5 		ldr	r3, .L381+84
 11909 04c0 0010D3E5 		ldrb	r1, [r3, #0]	@ zero_extendqisi2
 11910 04c4 0030D5E5 		ldrb	r3, [r5, #0]	@ zero_extendqisi2
 11911 04c8 0020D4E5 		ldrb	r2, [r4, #0]	@ zero_extendqisi2
 11912 04cc 033081E0 		add	r3, r1, r3
 11913 04d0 FF3003E2 		and	r3, r3, #255
 11914 04d4 0030C5E5 		strb	r3, [r5, #0]
 11915 04d8 023083E0 		add	r3, r3, r2
 11916 04dc 0030C4E5 		strb	r3, [r4, #0]
 11917 04e0 88019FE5 		ldr	r0, .L381+16
 11918 04e4 FEFFFFEB 		bl	uart_transmit
 11919 04e8 0020D4E5 		ldrb	r2, [r4, #0]	@ zero_extendqisi2
 11920 04ec 0030D5E5 		ldrb	r3, [r5, #0]	@ zero_extendqisi2
 11921 04f0 033082E0 		add	r3, r2, r3
 11922 04f4 0030C4E5 		strb	r3, [r4, #0]
 11923 04f8 70019FE5 		ldr	r0, .L381+16
 11924 04fc 0010A0E3 		mov	r1, #0
 11925 0500 FEFFFFEB 		bl	uart_transmit
 11926 0504 8C319FE5 		ldr	r3, .L381+56
 11927 0508 0010D3E5 		ldrb	r1, [r3, #0]	@ zero_extendqisi2
 11928 050c 0030D5E5 		ldrb	r3, [r5, #0]	@ zero_extendqisi2
 11929 0510 0020D4E5 		ldrb	r2, [r4, #0]	@ zero_extendqisi2
 11930 0514 033081E0 		add	r3, r1, r3
 11931 0518 FF3003E2 		and	r3, r3, #255
 11932 051c 0030C5E5 		strb	r3, [r5, #0]
 11933 0520 023083E0 		add	r3, r3, r2
 11934 0524 0030C4E5 		strb	r3, [r4, #0]
 11935 0528 40019FE5 		ldr	r0, .L381+16
 11936 052c FEFFFFEB 		bl	uart_transmit
 11937 0530 0010D5E5 		ldrb	r1, [r5, #0]	@ zero_extendqisi2
 11938 0534 34019FE5 		ldr	r0, .L381+16
 11939 0538 FEFFFFEB 		bl	uart_transmit
 11940 053c 2C019FE5 		ldr	r0, .L381+16
 11941 0540 0010D4E5 		ldrb	r1, [r4, #0]	@ zero_extendqisi2
 11942 0544 FEFFFFEB 		bl	uart_transmit
 11943 0548 030000EA 		b	.L364
 11944              	.L365:
 11945 054c 64319FE5 		ldr	r3, .L381+88
 11946 0550 0020D3E5 		ldrb	r2, [r3, #0]	@ zero_extendqisi2
 11947 0554 012082E2 		add	r2, r2, #1
 11948 0558 0020C3E5 		strb	r2, [r3, #0]
 11949              	.L364:
 11950 055c 28319FE5 		ldr	r3, .L381+44
 11951 0560 0040D3E5 		ldrb	r4, [r3, #0]	@ zero_extendqisi2
 11952 0564 010054E3 		cmp	r4, #1
 11953 0568 1E00001A 		bne	.L366
 11954 056c 10319FE5 		ldr	r3, .L381+36
 11955 0570 005093E5 		ldr	r5, [r3, #0]
 11956 0574 F000D5E1 		ldrsh	r0, [r5, #0]
 11957 0578 FEFFFFEB 		bl	__aeabi_i2f
 11958 057c 38119FE5 		ldr	r1, .L381+92
 11959 0580 FEFFFFEB 		bl	__aeabi_fdiv
 11960 0584 FEFFFFEB 		bl	__aeabi_f2d
 11961 0588 30219FE5 		ldr	r2, .L381+96
 11962 058c 30319FE5 		ldr	r3, .L381+100
 11963 0590 FEFFFFEB 		bl	__aeabi_dmul
 11964 0594 0020A0E3 		mov	r2, #0
 11965 0598 0030A0E3 		mov	r3, #0
 11966 059c FEFFFFEB 		bl	__aeabi_dadd
 11967 05a0 FEFFFFEB 		bl	__aeabi_d2f
 11968 05a4 1C319FE5 		ldr	r3, .L381+104
 11969 05a8 000083E5 		str	r0, [r3, #0]	@ float
 11970 05ac F200D5E1 		ldrsh	r0, [r5, #2]
 11971 05b0 FEFFFFEB 		bl	__aeabi_i2f
 11972 05b4 00119FE5 		ldr	r1, .L381+92
 11973 05b8 FEFFFFEB 		bl	__aeabi_fdiv
 11974 05bc FEFFFFEB 		bl	__aeabi_f2d
 11975 05c0 F8209FE5 		ldr	r2, .L381+96
 11976 05c4 F8309FE5 		ldr	r3, .L381+100
 11977 05c8 FEFFFFEB 		bl	__aeabi_dmul
 11978 05cc 0030A0E3 		mov	r3, #0
 11979 05d0 0020A0E3 		mov	r2, #0
 11980 05d4 FEFFFFEB 		bl	__aeabi_dadd
 11981 05d8 FEFFFFEB 		bl	__aeabi_d2f
 11982 05dc E8309FE5 		ldr	r3, .L381+108
 11983 05e0 000083E5 		str	r0, [r3, #0]	@ float
 11984 05e4 000000EA 		b	.L367
 11985              	.L366:
 11986 05e8 0400008A 		bhi	.L368
 11987              	.L367:
 11988 05ec 90309FE5 		ldr	r3, .L381+36
 11989 05f0 003093E5 		ldr	r3, [r3, #0]
 11990 05f4 B620D3E1 		ldrh	r2, [r3, #6]
 11991 05f8 D0309FE5 		ldr	r3, .L381+112
 11992 05fc B020C3E1 		strh	r2, [r3, #0]	@ movhi
 11993              	.L368:
 11994 0600 7C309FE5 		ldr	r3, .L381+36
 11995 0604 003093E5 		ldr	r3, [r3, #0]
 11996 0608 C4209FE5 		ldr	r2, .L381+116
 11997 060c 0A10D3E5 		ldrb	r1, [r3, #10]	@ zero_extendqisi2
 11998 0610 0010C2E5 		strb	r1, [r2, #0]
 11999 0614 0D10D3E5 		ldrb	r1, [r3, #13]	@ zero_extendqisi2
 12000 0618 B8209FE5 		ldr	r2, .L381+120
 12001 061c 0010C2E5 		strb	r1, [r2, #0]
 12002 0620 B4209FE5 		ldr	r2, .L381+124
 12003 0624 101093E5 		ldr	r1, [r3, #16]
 12004 0628 001082E5 		str	r1, [r2, #0]
 12005 062c AC209FE5 		ldr	r2, .L381+128
 12006 0630 B020D2E1 		ldrh	r2, [r2, #0]
 12007 0634 000052E3 		cmp	r2, #0
 12008 0638 0600001A 		bne	.L330
 12009 063c 020054E3 		cmp	r4, #2
 12010 0640 0400001A 		bne	.L330
 12011 0644 F630D3E1 		ldrsh	r3, [r3, #6]
 12012 0648 870D53E3 		cmp	r3, #8640
 12013 064c 3C309FC5 		ldrgt	r3, .L381+48
 12014 0650 0120A0C3 		movgt	r2, #1
 12015 0654 0020C3C5 		strgtb	r2, [r3, #0]
 12016              	.L330:
 12017 0658 F84FBDE8 		ldmfd	sp!, {r3, r4, r5, r6, r7, r8, r9, sl, fp, lr}
 12018 065c 1EFF2FE1 		bx	lr
 12019              	.L382:
 12020              		.align	2
 12021              	.L381:
 12022 0660 00000000 		.word	uart0
 12023 0664 00000000 		.word	gps_ubx
 12024 0668 00000000 		.word	gps
 12025 066c 00000000 		.word	sys_time
 12026 0670 00000000 		.word	uart1
 12027 0674 00000000 		.word	pprz_tp
 12028 0678 00000000 		.word	dl_buffer
 12029 067c 00000000 		.word	dl_msg_available
 12030 0680 00000000 		.word	inter_mcu_received_fbw
 12031 0684 00000000 		.word	fbw_state
 12032 0688 00000000 		.word	ap_state
 12033 068c 00000000 		.word	.LANCHOR21
 12034 0690 00000000 		.word	.LANCHOR22
 12035 0694 00000000 		.word	too_far_from_home
 12036 0698 00000000 		.word	.LANCHOR24
 12037 069c 00000000 		.word	downlink_nb_bytes
 12038 06a0 00000000 		.word	downlink_nb_msgs
 12039 06a4 00000000 		.word	ck_a
 12040 06a8 00000000 		.word	ck_b
 12041 06ac 00000000 		.word	v_ctl_mode
 12042 06b0 00000000 		.word	.LANCHOR23
 12043 06b4 00000000 		.word	horizontal_mode
 12044 06b8 00000000 		.word	downlink_nb_ovrn
 12045 06bc 00001646 		.word	1175846912
 12046 06c0 1F85EB51 		.word	1374389535
 12047 06c4 B81EE93F 		.word	1072242360
 12048 06c8 00000000 		.word	h_ctl_roll_setpoint
 12049 06cc 00000000 		.word	h_ctl_pitch_setpoint
 12050 06d0 00000000 		.word	v_ctl_throttle_setpoint
 12051 06d4 00000000 		.word	.LANCHOR63
 12052 06d8 00000000 		.word	vsupply
 12053 06dc 00000000 		.word	.LANCHOR17
 12054 06e0 00000000 		.word	.LANCHOR18
 12056              		.comm	monitor_tid,1,1
 12057              		.comm	navigation_tid,1,1
 12058              		.comm	attitude_tid,1,1
 12059              		.comm	sensors_tid,1,1
 12060              		.comm	telemetry_tid,1,1
 12061              		.comm	modules_tid,1,1
 12062              		.global	gps_lost
 12063              		.comm	energy,4,4
 12064              		.comm	vsupply,1,1
 12065              		.global	autopilot_flight_time
 12066              		.global	launch
 12067              		.global	kill_throttle
 12068              		.global	lateral_mode
 12069              		.global	pprz_mode
 12070              		.comm	power_switch,1,1
 12071              		.section	.bss.mcu1_ppm_cpt,"aw",%nobits
 12072              		.set	.LANCHOR63,. + 0
 12075              	mcu1_ppm_cpt:
 12076 0000 00       		.space	1
 12077              		.section	.bss.i330.4955,"aw",%nobits
 12078              		.align	1
 12079              		.set	.LANCHOR50,. + 0
 12082              	i330.4955:
 12083 0000 0000     		.space	2
 12084              		.section	.bss.i90.4329,"aw",%nobits
 12085              		.set	.LANCHOR8,. + 0
 12088              	i90.4329:
 12089 0000 00       		.space	1
 12090              		.section	.bss.i300.4656,"aw",%nobits
 12091              		.align	1
 12092              		.set	.LANCHOR37,. + 0
 12095              	i300.4656:
 12096 0000 0000     		.space	2
 12097              		.section	.bss.i306.4657,"aw",%nobits
 12098              		.align	1
 12099              		.set	.LANCHOR38,. + 0
 12102              	i306.4657:
 12103 0000 0000     		.space	2
 12104              		.section	.bss.i.4399,"aw",%nobits
 12105              		.set	.LANCHOR16,. + 0
 12108              	i.4399:
 12109 0000 00       		.space	1
 12110              		.section	.bss.i63.4645,"aw",%nobits
 12111              		.set	.LANCHOR26,. + 0
 12114              	i63.4645:
 12115 0000 00       		.space	1
 12116              		.section	.bss.i540.4659,"aw",%nobits
 12117              		.align	1
 12118              		.set	.LANCHOR40,. + 0
 12121              	i540.4659:
 12122 0000 0000     		.space	2
 12123              		.section	.bss.i180.4651,"aw",%nobits
 12124              		.set	.LANCHOR32,. + 0
 12127              	i180.4651:
 12128 0000 00       		.space	1
 12129              		.section	.bss.i342.4956,"aw",%nobits
 12130              		.align	1
 12131              		.set	.LANCHOR51,. + 0
 12134              	i342.4956:
 12135 0000 0000     		.space	2
 12136              		.section	.bss.last.4627,"aw",%nobits
 12137              		.align	1
 12138              		.set	.LANCHOR25,. + 0
 12141              	last.4627:
 12142 0000 0000     		.space	2
 12143              		.section	.bss.i84.4648,"aw",%nobits
 12144              		.set	.LANCHOR29,. + 0
 12147              	i84.4648:
 12148 0000 00       		.space	1
 12149              		.section	.bss.launch,"aw",%nobits
 12150              		.set	.LANCHOR22,. + 0
 12153              	launch:
 12154 0000 00       		.space	1
 12155              		.section	.bss.i78.4647,"aw",%nobits
 12156              		.set	.LANCHOR28,. + 0
 12159              	i78.4647:
 12160 0000 00       		.space	1
 12161              		.section	.bss.i612.4959,"aw",%nobits
 12162              		.align	1
 12163              		.set	.LANCHOR54,. + 0
 12166              	i612.4959:
 12167 0000 0000     		.space	2
 12168              		.section	.bss.i30.5112,"aw",%nobits
 12169              		.set	.LANCHOR58,. + 0
 12172              	i30.5112:
 12173 0000 00       		.space	1
 12174              		.section	.bss.last.4922,"aw",%nobits
 12175              		.align	1
 12176              		.set	.LANCHOR45,. + 0
 12179              	last.4922:
 12180 0000 0000     		.space	2
 12181              		.section	.bss.i72.4328,"aw",%nobits
 12182              		.set	.LANCHOR7,. + 0
 12185              	i72.4328:
 12186 0000 00       		.space	1
 12187              		.section	.bss.i30.4324,"aw",%nobits
 12188              		.set	.LANCHOR3,. + 0
 12191              	i30.4324:
 12192 0000 00       		.space	1
 12193              		.section	.bss.i6.5111,"aw",%nobits
 12194              		.set	.LANCHOR57,. + 0
 12197              	i6.5111:
 12198 0000 00       		.space	1
 12199              		.section	.bss.i300.4333,"aw",%nobits
 12200              		.align	1
 12201              		.set	.LANCHOR12,. + 0
 12204              	i300.4333:
 12205 0000 0000     		.space	2
 12206              		.section	.data.pprz_mode,"aw",%progbits
 12207              		.set	.LANCHOR21,. + 0
 12210              	pprz_mode:
 12211 0000 02       		.byte	2
 12212              		.section	.bss.i.4336,"aw",%nobits
 12213              		.set	.LANCHOR15,. + 0
 12216              	i.4336:
 12217 0000 00       		.space	1
 12218              		.section	.bss.lateral_mode,"aw",%nobits
 12219              		.set	.LANCHOR23,. + 0
 12222              	lateral_mode:
 12223 0000 00       		.space	1
 12224              		.section	.bss.mcu1_status,"aw",%nobits
 12225              		.set	.LANCHOR24,. + 0
 12228              	mcu1_status:
 12229 0000 00       		.space	1
 12230              		.section	.bss.i318.4953,"aw",%nobits
 12231              		.align	1
 12232              		.set	.LANCHOR48,. + 0
 12235              	i318.4953:
 12236 0000 0000     		.space	2
 12237              		.section	.bss.t.5187,"aw",%nobits
 12238              		.set	.LANCHOR61,. + 0
 12241              	t.5187:
 12242 0000 00       		.space	1
 12243              		.section	.bss.i126.4331,"aw",%nobits
 12244              		.set	.LANCHOR10,. + 0
 12247              	i126.4331:
 12248 0000 00       		.space	1
 12249              		.section	.bss.i606.4958,"aw",%nobits
 12250              		.align	1
 12251              		.set	.LANCHOR53,. + 0
 12254              	i606.4958:
 12255 0000 0000     		.space	2
 12256              		.section	.bss.i.4661,"aw",%nobits
 12257              		.set	.LANCHOR42,. + 0
 12260              	i.4661:
 12261 0000 00       		.space	1
 12262              		.section	.bss.last.5046,"aw",%nobits
 12263              		.align	1
 12264              		.set	.LANCHOR56,. + 0
 12267              	last.5046:
 12268 0000 0000     		.space	2
 12269              		.section	.bss.i66.4327,"aw",%nobits
 12270              		.set	.LANCHOR6,. + 0
 12273              	i66.4327:
 12274 0000 00       		.space	1
 12275              		.section	.bss.i243.4655,"aw",%nobits
 12276              		.set	.LANCHOR36,. + 0
 12279              	i243.4655:
 12280 0000 00       		.space	1
 12281              		.section	.bss.i126.4650,"aw",%nobits
 12282              		.set	.LANCHOR31,. + 0
 12285              	i126.4650:
 12286 0000 00       		.space	1
 12287              		.section	.bss.i.4532,"aw",%nobits
 12288              		.set	.LANCHOR20,. + 0
 12291              	i.4532:
 12292 0000 00       		.space	1
 12293              		.section	.bss.i324.4954,"aw",%nobits
 12294              		.align	1
 12295              		.set	.LANCHOR49,. + 0
 12298              	i324.4954:
 12299 0000 0000     		.space	2
 12300              		.section	.bss.i120.4330,"aw",%nobits
 12301              		.set	.LANCHOR9,. + 0
 12304              	i120.4330:
 12305 0000 00       		.space	1
 12306              		.section	.bss.i66.4646,"aw",%nobits
 12307              		.set	.LANCHOR27,. + 0
 12310              	i66.4646:
 12311 0000 00       		.space	1
 12312              		.section	.bss.i240.4654,"aw",%nobits
 12313              		.set	.LANCHOR35,. + 0
 12316              	i240.4654:
 12317 0000 00       		.space	1
 12318              		.section	.bss.i60.4325,"aw",%nobits
 12319              		.set	.LANCHOR4,. + 0
 12322              	i60.4325:
 12323 0000 00       		.space	1
 12324              		.section	.bss.kill_throttle,"aw",%nobits
 12325              		.set	.LANCHOR19,. + 0
 12328              	kill_throttle:
 12329 0000 00       		.space	1
 12330              		.section	.bss.i.4966,"aw",%nobits
 12331              		.set	.LANCHOR55,. + 0
 12334              	i.4966:
 12335 0000 00       		.space	1
 12336              		.section	.bss.gps_lost,"aw",%nobits
 12339              	gps_lost:
 12340 0000 00       		.space	1
 12341              		.section	.bss.i420.4957,"aw",%nobits
 12342              		.align	1
 12343              		.set	.LANCHOR52,. + 0
 12346              	i420.4957:
 12347 0000 0000     		.space	2
 12348              		.section	.rodata.version,"a",%progbits
 12349              		.align	1
 12350              		.set	.LANCHOR1,. + 0
 12353              	version:
 12354 0000 0100     		.short	1
 12355              		.section	.bss.i150.4332,"aw",%nobits
 12356              		.set	.LANCHOR11,. + 0
 12359              	i150.4332:
 12360 0000 00       		.space	1
 12361              		.section	.data.boot.4319,"aw",%progbits
 12362              		.set	.LANCHOR0,. + 0
 12365              	boot.4319:
 12366 0000 01       		.byte	1
 12367              		.section	.bss.i15.4323,"aw",%nobits
 12368              		.set	.LANCHOR2,. + 0
 12371              	i15.4323:
 12372 0000 00       		.space	1
 12373              		.section	.bss.i306.4952,"aw",%nobits
 12374              		.align	1
 12375              		.set	.LANCHOR47,. + 0
 12378              	i306.4952:
 12379 0000 0000     		.space	2
 12380              		.section	.bss.i183.4652,"aw",%nobits
 12381              		.set	.LANCHOR33,. + 0
 12384              	i183.4652:
 12385 0000 00       		.space	1
 12386              		.section	.bss.i.4745,"aw",%nobits
 12387              		.set	.LANCHOR44,. + 0
 12390              	i.4745:
 12391 0000 00       		.space	1
 12392              		.section	.bss.i126.5113,"aw",%nobits
 12393              		.set	.LANCHOR59,. + 0
 12396              	i126.5113:
 12397 0000 00       		.space	1
 12398              		.section	.bss.i1.4106,"aw",%nobits
 12399              		.set	.LANCHOR62,. + 0
 12402              	i1.4106:
 12403 0000 00       		.space	1
 12404              		.section	.bss.current,"aw",%nobits
 12405              		.align	2
 12406              		.set	.LANCHOR17,. + 0
 12409              	current:
 12410 0000 00000000 		.space	4
 12411              		.section	.bss.i312.4658,"aw",%nobits
 12412              		.align	1
 12413              		.set	.LANCHOR39,. + 0
 12416              	i312.4658:
 12417 0000 0000     		.space	2
 12418              		.section	.bss.i606.4660,"aw",%nobits
 12419              		.align	1
 12420              		.set	.LANCHOR41,. + 0
 12423              	i606.4660:
 12424 0000 0000     		.space	2
 12425              		.section	.bss.i300.4951,"aw",%nobits
 12426              		.align	1
 12427              		.set	.LANCHOR46,. + 0
 12430              	i300.4951:
 12431 0000 0000     		.space	2
 12432              		.section	.bss.autopilot_flight_time,"aw",%nobits
 12433              		.align	1
 12434              		.set	.LANCHOR18,. + 0
 12437              	autopilot_flight_time:
 12438 0000 0000     		.space	2
 12439              		.section	.bss.i192.4653,"aw",%nobits
 12440              		.set	.LANCHOR34,. + 0
 12443              	i192.4653:
 12444 0000 00       		.space	1
 12445              		.section	.bss.i306.4334,"aw",%nobits
 12446              		.align	1
 12447              		.set	.LANCHOR13,. + 0
 12450              	i306.4334:
 12451 0000 0000     		.space	2
 12452              		.section	.bss.i.4727,"aw",%nobits
 12453              		.set	.LANCHOR43,. + 0
 12456              	i.4727:
 12457 0000 00       		.space	1
 12458              		.section	.rodata.str1.1,"aMS",%progbits,1
 12459              	.LC0:
 12460 0000 C6AC2681 		.ascii	"\306\254&\201j\254\2333\022W8\202\251\2355\363\000"
 12460      6AAC9B33 
 12460      12573882 
 12460      A99D35F3 
 12460      00
 12461              		.section	.bss.i63.4326,"aw",%nobits
 12462              		.set	.LANCHOR5,. + 0
 12465              	i63.4326:
 12466 0000 00       		.space	1
 12467              		.section	.bss.i540.4335,"aw",%nobits
 12468              		.align	1
 12469              		.set	.LANCHOR14,. + 0
 12472              	i540.4335:
 12473 0000 0000     		.space	2
 12474              		.section	.bss.i.5114,"aw",%nobits
 12475              		.set	.LANCHOR60,. + 0
 12478              	i.5114:
 12479 0000 00       		.space	1
 12480              		.section	.bss.i90.4649,"aw",%nobits
 12481              		.set	.LANCHOR30,. + 0
 12484              	i90.4649:
 12485 0000 00       		.space	1
 12486              		.ident	"GCC: (Linaro GCC 4.6-2011.09-1) 4.6.2 20110908 (prerelease)"
DEFINED SYMBOLS
                            *ABS*:00000000 main_ap.c
     /tmp/ccAtaVoc.s:13     .text.stateGetPositionEnu_f:00000000 $a
     /tmp/ccAtaVoc.s:15     .text.stateGetPositionEnu_f:00000000 stateGetPositionEnu_f
     /tmp/ccAtaVoc.s:31     .text.stateGetPositionEnu_f:00000020 $d
     /tmp/ccAtaVoc.s:35     .text.stateGetPositionUtm_f:00000000 $a
     /tmp/ccAtaVoc.s:37     .text.stateGetPositionUtm_f:00000000 stateGetPositionUtm_f
     /tmp/ccAtaVoc.s:53     .text.stateGetPositionUtm_f:00000020 $d
     /tmp/ccAtaVoc.s:57     .text.stateGetSpeedEnu_f:00000000 $a
     /tmp/ccAtaVoc.s:59     .text.stateGetSpeedEnu_f:00000000 stateGetSpeedEnu_f
     /tmp/ccAtaVoc.s:75     .text.stateGetSpeedEnu_f:00000020 $d
     /tmp/ccAtaVoc.s:79     .text.init_ap:00000000 $a
     /tmp/ccAtaVoc.s:82     .text.init_ap:00000000 init_ap
     /tmp/ccAtaVoc.s:137    .text.init_ap:000000c0 $d
                            *COM*:00000001 sensors_tid
                            *COM*:00000001 navigation_tid
                            *COM*:00000001 attitude_tid
                            *COM*:00000001 modules_tid
                            *COM*:00000001 telemetry_tid
                            *COM*:00000001 monitor_tid
                            *COM*:00000001 power_switch
     /tmp/ccAtaVoc.s:160    .text.reporting_task:00000000 $a
     /tmp/ccAtaVoc.s:163    .text.reporting_task:00000000 reporting_task
     /tmp/ccAtaVoc.s:1177   .text.reporting_task:00000f8c $d
     /tmp/ccAtaVoc.s:1238   .text.reporting_task:0000107c $a
     /tmp/ccAtaVoc.s:2853   .text.reporting_task:0000297c $d
     /tmp/ccAtaVoc.s:2865   .text.reporting_task:000029a8 $a
     /tmp/ccAtaVoc.s:3273   .text.reporting_task:00002fa8 $d
                            *COM*:00000004 energy
                            *COM*:00000001 vsupply
     /tmp/ccAtaVoc.s:3341   .text.reporting_task:000030b4 $a
     /tmp/ccAtaVoc.s:5327   .text.reporting_task:00004f50 $d
     /tmp/ccAtaVoc.s:5397   .text.reporting_task:00005064 $a
     /tmp/ccAtaVoc.s:5648   .text.reporting_task:00005440 $d
     /tmp/ccAtaVoc.s:5660   .text.reporting_task:0000546c $a
     /tmp/ccAtaVoc.s:7469   .text.reporting_task:00007014 $d
     /tmp/ccAtaVoc.s:7533   .text.reporting_task:00007110 $a
     /tmp/ccAtaVoc.s:9604   .text.reporting_task:000090f8 $d
     /tmp/ccAtaVoc.s:9666   .text.reporting_task:000091ec $a
     /tmp/ccAtaVoc.s:10410  .text.reporting_task:00009d6c $d
     /tmp/ccAtaVoc.s:10422  .text.reporting_task:00009d98 $a
     /tmp/ccAtaVoc.s:10817  .text.reporting_task:0000a354 $d
     /tmp/ccAtaVoc.s:10827  .text.navigation_task:00000000 $a
     /tmp/ccAtaVoc.s:10830  .text.navigation_task:00000000 navigation_task
     /tmp/ccAtaVoc.s:11149  .text.navigation_task:000004c4 $d
     /tmp/ccAtaVoc.s:11173  .text.attitude_loop:00000000 $a
     /tmp/ccAtaVoc.s:11176  .text.attitude_loop:00000000 attitude_loop
     /tmp/ccAtaVoc.s:11265  .text.attitude_loop:00000130 $d
     /tmp/ccAtaVoc.s:11287  .text.sensors_task:00000000 $a
     /tmp/ccAtaVoc.s:11290  .text.sensors_task:00000000 sensors_task
     /tmp/ccAtaVoc.s:11301  .text.monitor_task:00000000 $a
     /tmp/ccAtaVoc.s:11304  .text.monitor_task:00000000 monitor_task
     /tmp/ccAtaVoc.s:11444  .text.monitor_task:00000204 $d
     /tmp/ccAtaVoc.s:11463  .text.handle_periodic_tasks_ap:00000000 $a
     /tmp/ccAtaVoc.s:11466  .text.handle_periodic_tasks_ap:00000000 handle_periodic_tasks_ap
     /tmp/ccAtaVoc.s:11558  .text.handle_periodic_tasks_ap:0000013c $d
     /tmp/ccAtaVoc.s:11570  .text.event_task_ap:00000000 $a
     /tmp/ccAtaVoc.s:11573  .text.event_task_ap:00000000 event_task_ap
     /tmp/ccAtaVoc.s:11654  .text.event_task_ap:00000114 $d
     /tmp/ccAtaVoc.s:11660  .text.event_task_ap:00000128 $a
     /tmp/ccAtaVoc.s:12022  .text.event_task_ap:00000660 $d
     /tmp/ccAtaVoc.s:12339  .bss.gps_lost:00000000 gps_lost
     /tmp/ccAtaVoc.s:12437  .bss.autopilot_flight_time:00000000 autopilot_flight_time
     /tmp/ccAtaVoc.s:12153  .bss.launch:00000000 launch
     /tmp/ccAtaVoc.s:12328  .bss.kill_throttle:00000000 kill_throttle
     /tmp/ccAtaVoc.s:12222  .bss.lateral_mode:00000000 lateral_mode
     /tmp/ccAtaVoc.s:12210  .data.pprz_mode:00000000 pprz_mode
     /tmp/ccAtaVoc.s:12075  .bss.mcu1_ppm_cpt:00000000 mcu1_ppm_cpt
     /tmp/ccAtaVoc.s:12076  .bss.mcu1_ppm_cpt:00000000 $d
     /tmp/ccAtaVoc.s:12078  .bss.i330.4955:00000000 $d
     /tmp/ccAtaVoc.s:12082  .bss.i330.4955:00000000 i330.4955
     /tmp/ccAtaVoc.s:12088  .bss.i90.4329:00000000 i90.4329
     /tmp/ccAtaVoc.s:12089  .bss.i90.4329:00000000 $d
     /tmp/ccAtaVoc.s:12091  .bss.i300.4656:00000000 $d
     /tmp/ccAtaVoc.s:12095  .bss.i300.4656:00000000 i300.4656
     /tmp/ccAtaVoc.s:12098  .bss.i306.4657:00000000 $d
     /tmp/ccAtaVoc.s:12102  .bss.i306.4657:00000000 i306.4657
     /tmp/ccAtaVoc.s:12108  .bss.i.4399:00000000 i.4399
     /tmp/ccAtaVoc.s:12109  .bss.i.4399:00000000 $d
     /tmp/ccAtaVoc.s:12114  .bss.i63.4645:00000000 i63.4645
     /tmp/ccAtaVoc.s:12115  .bss.i63.4645:00000000 $d
     /tmp/ccAtaVoc.s:12117  .bss.i540.4659:00000000 $d
     /tmp/ccAtaVoc.s:12121  .bss.i540.4659:00000000 i540.4659
     /tmp/ccAtaVoc.s:12127  .bss.i180.4651:00000000 i180.4651
     /tmp/ccAtaVoc.s:12128  .bss.i180.4651:00000000 $d
     /tmp/ccAtaVoc.s:12130  .bss.i342.4956:00000000 $d
     /tmp/ccAtaVoc.s:12134  .bss.i342.4956:00000000 i342.4956
     /tmp/ccAtaVoc.s:12137  .bss.last.4627:00000000 $d
     /tmp/ccAtaVoc.s:12141  .bss.last.4627:00000000 last.4627
     /tmp/ccAtaVoc.s:12147  .bss.i84.4648:00000000 i84.4648
     /tmp/ccAtaVoc.s:12148  .bss.i84.4648:00000000 $d
     /tmp/ccAtaVoc.s:12154  .bss.launch:00000000 $d
     /tmp/ccAtaVoc.s:12159  .bss.i78.4647:00000000 i78.4647
     /tmp/ccAtaVoc.s:12160  .bss.i78.4647:00000000 $d
     /tmp/ccAtaVoc.s:12162  .bss.i612.4959:00000000 $d
     /tmp/ccAtaVoc.s:12166  .bss.i612.4959:00000000 i612.4959
     /tmp/ccAtaVoc.s:12172  .bss.i30.5112:00000000 i30.5112
     /tmp/ccAtaVoc.s:12173  .bss.i30.5112:00000000 $d
     /tmp/ccAtaVoc.s:12175  .bss.last.4922:00000000 $d
     /tmp/ccAtaVoc.s:12179  .bss.last.4922:00000000 last.4922
     /tmp/ccAtaVoc.s:12185  .bss.i72.4328:00000000 i72.4328
     /tmp/ccAtaVoc.s:12186  .bss.i72.4328:00000000 $d
     /tmp/ccAtaVoc.s:12191  .bss.i30.4324:00000000 i30.4324
     /tmp/ccAtaVoc.s:12192  .bss.i30.4324:00000000 $d
     /tmp/ccAtaVoc.s:12197  .bss.i6.5111:00000000 i6.5111
     /tmp/ccAtaVoc.s:12198  .bss.i6.5111:00000000 $d
     /tmp/ccAtaVoc.s:12200  .bss.i300.4333:00000000 $d
     /tmp/ccAtaVoc.s:12204  .bss.i300.4333:00000000 i300.4333
     /tmp/ccAtaVoc.s:12216  .bss.i.4336:00000000 i.4336
     /tmp/ccAtaVoc.s:12217  .bss.i.4336:00000000 $d
     /tmp/ccAtaVoc.s:12223  .bss.lateral_mode:00000000 $d
     /tmp/ccAtaVoc.s:12228  .bss.mcu1_status:00000000 mcu1_status
     /tmp/ccAtaVoc.s:12229  .bss.mcu1_status:00000000 $d
     /tmp/ccAtaVoc.s:12231  .bss.i318.4953:00000000 $d
     /tmp/ccAtaVoc.s:12235  .bss.i318.4953:00000000 i318.4953
     /tmp/ccAtaVoc.s:12241  .bss.t.5187:00000000 t.5187
     /tmp/ccAtaVoc.s:12242  .bss.t.5187:00000000 $d
     /tmp/ccAtaVoc.s:12247  .bss.i126.4331:00000000 i126.4331
     /tmp/ccAtaVoc.s:12248  .bss.i126.4331:00000000 $d
     /tmp/ccAtaVoc.s:12250  .bss.i606.4958:00000000 $d
     /tmp/ccAtaVoc.s:12254  .bss.i606.4958:00000000 i606.4958
     /tmp/ccAtaVoc.s:12260  .bss.i.4661:00000000 i.4661
     /tmp/ccAtaVoc.s:12261  .bss.i.4661:00000000 $d
     /tmp/ccAtaVoc.s:12263  .bss.last.5046:00000000 $d
     /tmp/ccAtaVoc.s:12267  .bss.last.5046:00000000 last.5046
     /tmp/ccAtaVoc.s:12273  .bss.i66.4327:00000000 i66.4327
     /tmp/ccAtaVoc.s:12274  .bss.i66.4327:00000000 $d
     /tmp/ccAtaVoc.s:12279  .bss.i243.4655:00000000 i243.4655
     /tmp/ccAtaVoc.s:12280  .bss.i243.4655:00000000 $d
     /tmp/ccAtaVoc.s:12285  .bss.i126.4650:00000000 i126.4650
     /tmp/ccAtaVoc.s:12286  .bss.i126.4650:00000000 $d
     /tmp/ccAtaVoc.s:12291  .bss.i.4532:00000000 i.4532
     /tmp/ccAtaVoc.s:12292  .bss.i.4532:00000000 $d
     /tmp/ccAtaVoc.s:12294  .bss.i324.4954:00000000 $d
     /tmp/ccAtaVoc.s:12298  .bss.i324.4954:00000000 i324.4954
     /tmp/ccAtaVoc.s:12304  .bss.i120.4330:00000000 i120.4330
     /tmp/ccAtaVoc.s:12305  .bss.i120.4330:00000000 $d
     /tmp/ccAtaVoc.s:12310  .bss.i66.4646:00000000 i66.4646
     /tmp/ccAtaVoc.s:12311  .bss.i66.4646:00000000 $d
     /tmp/ccAtaVoc.s:12316  .bss.i240.4654:00000000 i240.4654
     /tmp/ccAtaVoc.s:12317  .bss.i240.4654:00000000 $d
     /tmp/ccAtaVoc.s:12322  .bss.i60.4325:00000000 i60.4325
     /tmp/ccAtaVoc.s:12323  .bss.i60.4325:00000000 $d
     /tmp/ccAtaVoc.s:12329  .bss.kill_throttle:00000000 $d
     /tmp/ccAtaVoc.s:12334  .bss.i.4966:00000000 i.4966
     /tmp/ccAtaVoc.s:12335  .bss.i.4966:00000000 $d
     /tmp/ccAtaVoc.s:12340  .bss.gps_lost:00000000 $d
     /tmp/ccAtaVoc.s:12342  .bss.i420.4957:00000000 $d
     /tmp/ccAtaVoc.s:12346  .bss.i420.4957:00000000 i420.4957
     /tmp/ccAtaVoc.s:12349  .rodata.version:00000000 $d
     /tmp/ccAtaVoc.s:12353  .rodata.version:00000000 version
     /tmp/ccAtaVoc.s:12359  .bss.i150.4332:00000000 i150.4332
     /tmp/ccAtaVoc.s:12360  .bss.i150.4332:00000000 $d
     /tmp/ccAtaVoc.s:12365  .data.boot.4319:00000000 boot.4319
     /tmp/ccAtaVoc.s:12371  .bss.i15.4323:00000000 i15.4323
     /tmp/ccAtaVoc.s:12372  .bss.i15.4323:00000000 $d
     /tmp/ccAtaVoc.s:12374  .bss.i306.4952:00000000 $d
     /tmp/ccAtaVoc.s:12378  .bss.i306.4952:00000000 i306.4952
     /tmp/ccAtaVoc.s:12384  .bss.i183.4652:00000000 i183.4652
     /tmp/ccAtaVoc.s:12385  .bss.i183.4652:00000000 $d
     /tmp/ccAtaVoc.s:12390  .bss.i.4745:00000000 i.4745
     /tmp/ccAtaVoc.s:12391  .bss.i.4745:00000000 $d
     /tmp/ccAtaVoc.s:12396  .bss.i126.5113:00000000 i126.5113
     /tmp/ccAtaVoc.s:12397  .bss.i126.5113:00000000 $d
     /tmp/ccAtaVoc.s:12402  .bss.i1.4106:00000000 i1.4106
     /tmp/ccAtaVoc.s:12403  .bss.i1.4106:00000000 $d
     /tmp/ccAtaVoc.s:12405  .bss.current:00000000 $d
     /tmp/ccAtaVoc.s:12409  .bss.current:00000000 current
     /tmp/ccAtaVoc.s:12412  .bss.i312.4658:00000000 $d
     /tmp/ccAtaVoc.s:12416  .bss.i312.4658:00000000 i312.4658
     /tmp/ccAtaVoc.s:12419  .bss.i606.4660:00000000 $d
     /tmp/ccAtaVoc.s:12423  .bss.i606.4660:00000000 i606.4660
     /tmp/ccAtaVoc.s:12426  .bss.i300.4951:00000000 $d
     /tmp/ccAtaVoc.s:12430  .bss.i300.4951:00000000 i300.4951
     /tmp/ccAtaVoc.s:12433  .bss.autopilot_flight_time:00000000 $d
     /tmp/ccAtaVoc.s:12443  .bss.i192.4653:00000000 i192.4653
     /tmp/ccAtaVoc.s:12444  .bss.i192.4653:00000000 $d
     /tmp/ccAtaVoc.s:12446  .bss.i306.4334:00000000 $d
     /tmp/ccAtaVoc.s:12450  .bss.i306.4334:00000000 i306.4334
     /tmp/ccAtaVoc.s:12456  .bss.i.4727:00000000 i.4727
     /tmp/ccAtaVoc.s:12457  .bss.i.4727:00000000 $d
     /tmp/ccAtaVoc.s:12465  .bss.i63.4326:00000000 i63.4326
     /tmp/ccAtaVoc.s:12466  .bss.i63.4326:00000000 $d
     /tmp/ccAtaVoc.s:12468  .bss.i540.4335:00000000 $d
     /tmp/ccAtaVoc.s:12472  .bss.i540.4335:00000000 i540.4335
     /tmp/ccAtaVoc.s:12478  .bss.i.5114:00000000 i.5114
     /tmp/ccAtaVoc.s:12479  .bss.i.5114:00000000 $d
     /tmp/ccAtaVoc.s:12484  .bss.i90.4649:00000000 i90.4649
     /tmp/ccAtaVoc.s:12485  .bss.i90.4649:00000000 $d

UNDEFINED SYMBOLS
stateCalcPositionEnu_f
state
stateCalcPositionUtm_f
stateCalcSpeedEnu_f
gps_init
ahrs_init
ins_init
stateInit
h_ctl_init
v_ctl_init
nav_init
infrared_adc_init
settings_init
sys_time_register_timer
enableIRQ
traffic_info_init
__aeabi_i2d
__aeabi_dmul
__aeabi_ddiv
__aeabi_d2iz
__aeabi_i2f
__aeabi_fadd
__aeabi_f2d
__aeabi_d2uiz
__aeabi_idiv
__aeabi_f2iz
__aeabi_ui2f
__aeabi_fdiv
__aeabi_fmul
uart_check_free_space
uart_transmit
orientationCalcEulers_f
uart1
telemetry_mode_Ap
gps
nb_waypoint
nav_utm_east0
waypoints
nav_utm_north0
downlink_nb_bytes
nav_utm_zone0
nav_circle_radians
downlink_nb_msgs
nav_block
nav_stage
dist2_to_wp
dist2_to_home
nav_oval_count
downlink_nb_ovrn
nav_in_circle
ck_a
ck_b
nav_circle_x
nav_circle_y
nav_circle_radius
h_ctl_roll_setpoint
h_ctl_pitch_loop_setpoint
h_ctl_course_setpoint
desired_x
desired_y
v_ctl_altitude_setpoint
v_ctl_climb_setpoint
v_ctl_throttle_slewed
block_time
stage_time
nav_in_segment
nav_segment_x_1
nav_segment_y_1
nav_segment_x_2
nav_segment_y_2
telemetry_mode_Fbw
flight_altitude
nav_course
nav_shift
nav_radius
v_ctl_auto_throttle_sum_err
v_ctl_auto_throttle_submode
nav_survey_active
nav_survey_east
nav_survey_north
nav_survey_west
nav_survey_south
v_ctl_mode
horizontal_mode
infrared
common_nav_periodic_task_4Hz
nav_home
nav_without_gps
nav_periodic_task
v_ctl_altitude_loop
h_ctl_course_loop
__aeabi_dcmpgt
__aeabi_dcmplt
ahrs_update_infrared
v_ctl_climb_loop
h_ctl_attitude_loop
v_ctl_throttle_slew
nav_throttle_setpoint
v_ctl_throttle_setpoint
nav_pitch
v_ctl_pitch_setpoint
h_ctl_pitch_setpoint
ap_state
h_ctl_aileron_setpoint
h_ctl_elevator_setpoint
inter_mcu_received_ap
ins_periodic
__aeabi_fcmpgt
stateCalcHorizontalSpeedNorm_f
datalink_time
sys_time
infrared_adc_update
__aeabi_dadd
__aeabi_d2f
gps_ubx_parse
gps_ubx_read_message
ins_update_gps
ahrs_update_gps
dl_parse_msg
uart0
gps_ubx
pprz_tp
dl_buffer
dl_msg_available
inter_mcu_received_fbw
fbw_state
too_far_from_home
