   1              		.cpu arm7tdmi
   2              		.fpu softvfp
   3              		.eabi_attribute 20, 1
   4              		.eabi_attribute 21, 1
   5              		.eabi_attribute 23, 3
   6              		.eabi_attribute 24, 1
   7              		.eabi_attribute 25, 1
   8              		.eabi_attribute 26, 1
   9              		.eabi_attribute 30, 4
  10              		.eabi_attribute 18, 4
  11              		.file	"main_ap.c"
  12              		.section	.text.stateGetPositionEnu_f,"ax",%progbits
  13              		.align	2
  15              	stateGetPositionEnu_f:
  16              		@ Function supports interworking.
  17              		@ args = 0, pretend = 0, frame = 0
  18              		@ frame_needed = 0, uses_anonymous_args = 0
  19 0000 08402DE9 		stmfd	sp!, {r3, lr}
  20 0004 14309FE5 		ldr	r3, .L3
  21 0008 B030D3E1 		ldrh	r3, [r3, #0]
  22 000c 800013E3 		tst	r3, #128
  23 0010 FEFFFF0B 		bleq	stateCalcPositionEnu_f
  24              	.L2:
  25 0014 08009FE5 		ldr	r0, .L3+4
  26 0018 0840BDE8 		ldmfd	sp!, {r3, lr}
  27 001c 1EFF2FE1 		bx	lr
  28              	.L4:
  29              		.align	2
  30              	.L3:
  31 0020 00000000 		.word	state
  32 0024 08010000 		.word	state+264
  34              		.section	.text.stateGetPositionUtm_f,"ax",%progbits
  35              		.align	2
  37              	stateGetPositionUtm_f:
  38              		@ Function supports interworking.
  39              		@ args = 0, pretend = 0, frame = 0
  40              		@ frame_needed = 0, uses_anonymous_args = 0
  41 0000 08402DE9 		stmfd	sp!, {r3, lr}
  42 0004 14309FE5 		ldr	r3, .L7
  43 0008 B030D3E1 		ldrh	r3, [r3, #0]
  44 000c 020C13E3 		tst	r3, #512
  45 0010 FEFFFF0B 		bleq	stateCalcPositionUtm_f
  46              	.L6:
  47 0014 08009FE5 		ldr	r0, .L7+4
  48 0018 0840BDE8 		ldmfd	sp!, {r3, lr}
  49 001c 1EFF2FE1 		bx	lr
  50              	.L8:
  51              		.align	2
  52              	.L7:
  53 0020 00000000 		.word	state
  54 0024 78000000 		.word	state+120
  56              		.section	.text.stateGetSpeedEnu_f,"ax",%progbits
  57              		.align	2
  59              	stateGetSpeedEnu_f:
  60              		@ Function supports interworking.
  61              		@ args = 0, pretend = 0, frame = 0
  62              		@ frame_needed = 0, uses_anonymous_args = 0
  63 0000 08402DE9 		stmfd	sp!, {r3, lr}
  64 0004 14309FE5 		ldr	r3, .L11
  65 0008 1431D3E5 		ldrb	r3, [r3, #276]	@ zero_extendqisi2
  66 000c A333B0E1 		movs	r3, r3, lsr #7
  67 0010 FEFFFF0B 		bleq	stateCalcSpeedEnu_f
  68              	.L10:
  69 0014 08009FE5 		ldr	r0, .L11+4
  70 0018 0840BDE8 		ldmfd	sp!, {r3, lr}
  71 001c 1EFF2FE1 		bx	lr
  72              	.L12:
  73              		.align	2
  74              	.L11:
  75 0020 00000000 		.word	state
  76 0024 5C010000 		.word	state+348
  78              		.section	.text.init_ap,"ax",%progbits
  79              		.align	2
  80              		.global	init_ap
  82              	init_ap:
  83              		@ Function supports interworking.
  84              		@ args = 0, pretend = 0, frame = 0
  85              		@ frame_needed = 0, uses_anonymous_args = 0
  86 0000 10402DE9 		stmfd	sp!, {r4, lr}
  87 0004 B4409FE5 		ldr	r4, .L14
  88 0008 FEFFFFEB 		bl	gps_init
  89 000c FEFFFFEB 		bl	ahrs_init
  90 0010 FEFFFFEB 		bl	ins_init
  91 0014 FEFFFFEB 		bl	stateInit
  92 0018 FEFFFFEB 		bl	h_ctl_init
  93 001c FEFFFFEB 		bl	v_ctl_init
  94 0020 FEFFFFEB 		bl	nav_init
  95 0024 FEFFFFEB 		bl	infrared_adc_init
  96 0028 FEFFFFEB 		bl	settings_init
  97 002c 0400A0E1 		mov	r0, r4
  98 0030 0010A0E3 		mov	r1, #0
  99 0034 FEFFFFEB 		bl	sys_time_register_timer
 100 0038 84309FE5 		ldr	r3, .L14+4
 101 003c 0010A0E3 		mov	r1, #0
 102 0040 0000C3E5 		strb	r0, [r3, #0]
 103 0044 FA05A0E3 		mov	r0, #1048576000
 104 0048 FEFFFFEB 		bl	sys_time_register_timer
 105 004c 74309FE5 		ldr	r3, .L14+8
 106 0050 0010A0E3 		mov	r1, #0
 107 0054 0000C3E5 		strb	r0, [r3, #0]
 108 0058 0400A0E1 		mov	r0, r4
 109 005c FEFFFFEB 		bl	sys_time_register_timer
 110 0060 64309FE5 		ldr	r3, .L14+12
 111 0064 0010A0E3 		mov	r1, #0
 112 0068 0000C3E5 		strb	r0, [r3, #0]
 113 006c 0400A0E1 		mov	r0, r4
 114 0070 FEFFFFEB 		bl	sys_time_register_timer
 115 0074 54309FE5 		ldr	r3, .L14+16
 116 0078 0010A0E3 		mov	r1, #0
 117 007c 0000C3E5 		strb	r0, [r3, #0]
 118 0080 0400A0E1 		mov	r0, r4
 119 0084 FEFFFFEB 		bl	sys_time_register_timer
 120 0088 44309FE5 		ldr	r3, .L14+20
 121 008c 0010A0E3 		mov	r1, #0
 122 0090 0000C3E5 		strb	r0, [r3, #0]
 123 0094 FE05A0E3 		mov	r0, #1065353216
 124 0098 FEFFFFEB 		bl	sys_time_register_timer
 125 009c 34309FE5 		ldr	r3, .L14+24
 126 00a0 0000C3E5 		strb	r0, [r3, #0]
 127 00a4 FEFFFFEB 		bl	enableIRQ
 128 00a8 2C309FE5 		ldr	r3, .L14+28
 129 00ac 0020A0E3 		mov	r2, #0
 130 00b0 0020C3E5 		strb	r2, [r3, #0]
 131 00b4 FEFFFFEB 		bl	traffic_info_init
 132 00b8 1040BDE8 		ldmfd	sp!, {r4, lr}
 133 00bc 1EFF2FE1 		bx	lr
 134              	.L15:
 135              		.align	2
 136              	.L14:
 137 00c0 8988883C 		.word	1015580809
 138 00c4 00000000 		.word	sensors_tid
 139 00c8 00000000 		.word	navigation_tid
 140 00cc 00000000 		.word	attitude_tid
 141 00d0 00000000 		.word	modules_tid
 142 00d4 00000000 		.word	telemetry_tid
 143 00d8 00000000 		.word	monitor_tid
 144 00dc 00000000 		.word	power_switch
 146              		.global	__aeabi_i2d
 147              		.global	__aeabi_dmul
 148              		.global	__aeabi_ddiv
 149              		.global	__aeabi_d2iz
 150              		.global	__aeabi_i2f
 151              		.global	__aeabi_fadd
 152              		.global	__aeabi_f2d
 153              		.global	__aeabi_d2uiz
 154              		.global	__aeabi_idiv
 155              		.global	__aeabi_f2iz
 156              		.global	__aeabi_ui2f
 157              		.global	__aeabi_fdiv
 158              		.global	__aeabi_fmul
 159              		.section	.text.reporting_task,"ax",%progbits
 160              		.align	2
 161              		.global	reporting_task
 163              	reporting_task:
 164              		@ Function supports interworking.
 165              		@ args = 0, pretend = 0, frame = 16
 166              		@ frame_needed = 0, uses_anonymous_args = 0
 167 0000 FF412DE9 		stmfd	sp!, {r0, r1, r2, r3, r4, r5, r6, r7, r8, lr}
 168 0004 803F9FE5 		ldr	r3, .L267
 169 0008 0030D3E5 		ldrb	r3, [r3, #0]	@ zero_extendqisi2
 170 000c 000053E3 		cmp	r3, #0
 171 0010 4800000A 		beq	.L17
 172 0014 740F9FE5 		ldr	r0, .L267+4
 173 0018 0810A0E3 		mov	r1, #8
 174 001c FEFFFFEB 		bl	uart_check_free_space
 175 0020 000050E3 		cmp	r0, #0
 176 0024 3C00000A 		beq	.L18
 177 0028 C83F9FE5 		ldr	r3, .L267+108
 178 002c B020D3E1 		ldrh	r2, [r3, #0]
 179 0030 082082E2 		add	r2, r2, #8
 180 0034 B020C3E1 		strh	r2, [r3, #0]	@ movhi
 181 0038 D03F9FE5 		ldr	r3, .L267+132
 182 003c B020D3E1 		ldrh	r2, [r3, #0]
 183 0040 012082E2 		add	r2, r2, #1
 184 0044 B020C3E1 		strh	r2, [r3, #0]	@ movhi
 185 0048 400F9FE5 		ldr	r0, .L267+4
 186 004c 9910A0E3 		mov	r1, #153
 187 0050 DC5F9FE5 		ldr	r5, .L267+168
 188 0054 FEFFFFEB 		bl	uart_transmit
 189 0058 300F9FE5 		ldr	r0, .L267+4
 190 005c 0810A0E3 		mov	r1, #8
 191 0060 D04F9FE5 		ldr	r4, .L267+172
 192 0064 FEFFFFEB 		bl	uart_transmit
 193 0068 0930A0E3 		mov	r3, #9
 194 006c 0030C5E5 		strb	r3, [r5, #0]
 195 0070 1130A0E3 		mov	r3, #17
 196 0074 0030C4E5 		strb	r3, [r4, #0]
 197 0078 100F9FE5 		ldr	r0, .L267+4
 198 007c 0110A0E3 		mov	r1, #1
 199 0080 FEFFFFEB 		bl	uart_transmit
 200 0084 0030D5E5 		ldrb	r3, [r5, #0]	@ zero_extendqisi2
 201 0088 0020D4E5 		ldrb	r2, [r4, #0]	@ zero_extendqisi2
 202 008c 013083E2 		add	r3, r3, #1
 203 0090 FF3003E2 		and	r3, r3, #255
 204 0094 0030C5E5 		strb	r3, [r5, #0]
 205 0098 F46E9FE5 		ldr	r6, .L267+8
 206 009c 023083E0 		add	r3, r3, r2
 207 00a0 0030C4E5 		strb	r3, [r4, #0]
 208 00a4 E40E9FE5 		ldr	r0, .L267+4
 209 00a8 0110A0E3 		mov	r1, #1
 210 00ac FEFFFFEB 		bl	uart_transmit
 211 00b0 0010D6E5 		ldrb	r1, [r6, #0]	@ zero_extendqisi2
 212 00b4 0030D5E5 		ldrb	r3, [r5, #0]	@ zero_extendqisi2
 213 00b8 0020D4E5 		ldrb	r2, [r4, #0]	@ zero_extendqisi2
 214 00bc 033081E0 		add	r3, r1, r3
 215 00c0 FF3003E2 		and	r3, r3, #255
 216 00c4 0030C5E5 		strb	r3, [r5, #0]
 217 00c8 023083E0 		add	r3, r3, r2
 218 00cc 0030C4E5 		strb	r3, [r4, #0]
 219 00d0 B80E9FE5 		ldr	r0, .L267+4
 220 00d4 FEFFFFEB 		bl	uart_transmit
 221 00d8 0110D6E5 		ldrb	r1, [r6, #1]	@ zero_extendqisi2
 222 00dc 0030D5E5 		ldrb	r3, [r5, #0]	@ zero_extendqisi2
 223 00e0 0020D4E5 		ldrb	r2, [r4, #0]	@ zero_extendqisi2
 224 00e4 033081E0 		add	r3, r1, r3
 225 00e8 FF3003E2 		and	r3, r3, #255
 226 00ec 0030C5E5 		strb	r3, [r5, #0]
 227 00f0 023083E0 		add	r3, r3, r2
 228 00f4 0030C4E5 		strb	r3, [r4, #0]
 229 00f8 900E9FE5 		ldr	r0, .L267+4
 230 00fc FEFFFFEB 		bl	uart_transmit
 231 0100 0010D5E5 		ldrb	r1, [r5, #0]	@ zero_extendqisi2
 232 0104 840E9FE5 		ldr	r0, .L267+4
 233 0108 FEFFFFEB 		bl	uart_transmit
 234 010c 7C0E9FE5 		ldr	r0, .L267+4
 235 0110 0010D4E5 		ldrb	r1, [r4, #0]	@ zero_extendqisi2
 236 0114 FEFFFFEB 		bl	uart_transmit
 237 0118 030000EA 		b	.L19
 238              	.L18:
 239 011c 043F9FE5 		ldr	r3, .L267+156
 240 0120 0020D3E5 		ldrb	r2, [r3, #0]	@ zero_extendqisi2
 241 0124 012082E2 		add	r2, r2, #1
 242 0128 0020C3E5 		strb	r2, [r3, #0]
 243              	.L19:
 244 012c 0020A0E3 		mov	r2, #0
 245 0130 543E9FE5 		ldr	r3, .L267
 246 0134 832800EA 		b	.L260
 247              	.L17:
 248 0138 583E9FE5 		ldr	r3, .L267+12
 249 013c 0020D3E5 		ldrb	r2, [r3, #0]	@ zero_extendqisi2
 250 0140 000052E3 		cmp	r2, #0
 251 0144 9E0F001A 		bne	.L21
 252 0148 4C3E9FE5 		ldr	r3, .L267+16
 253 014c 0010D3E5 		ldrb	r1, [r3, #0]	@ zero_extendqisi2
 254 0150 011081E2 		add	r1, r1, #1
 255 0154 FF1001E2 		and	r1, r1, #255
 256 0158 0E0051E3 		cmp	r1, #14
 257 015c 0010C3E5 		strb	r1, [r3, #0]
 258 0160 0020C385 		strhib	r2, [r3, #0]
 259 0164 343E9FE5 		ldr	r3, .L267+20
 260 0168 0020D3E5 		ldrb	r2, [r3, #0]	@ zero_extendqisi2
 261 016c 012082E2 		add	r2, r2, #1
 262 0170 FF2002E2 		and	r2, r2, #255
 263 0174 1D0052E3 		cmp	r2, #29
 264 0178 0020C3E5 		strb	r2, [r3, #0]
 265 017c 0020A083 		movhi	r2, #0
 266 0180 0020C385 		strhib	r2, [r3, #0]
 267 0184 743E9FE5 		ldr	r3, .L267+116
 268 0188 0020D3E5 		ldrb	r2, [r3, #0]	@ zero_extendqisi2
 269 018c 012082E2 		add	r2, r2, #1
 270 0190 FF2002E2 		and	r2, r2, #255
 271 0194 3B0052E3 		cmp	r2, #59
 272 0198 0020C3E5 		strb	r2, [r3, #0]
 273 019c 0020A083 		movhi	r2, #0
 274 01a0 0020C385 		strhib	r2, [r3, #0]
 275 01a4 803E9FE5 		ldr	r3, .L267+160
 276 01a8 0020D3E5 		ldrb	r2, [r3, #0]	@ zero_extendqisi2
 277 01ac 012082E2 		add	r2, r2, #1
 278 01b0 FF2002E2 		and	r2, r2, #255
 279 01b4 3E0052E3 		cmp	r2, #62
 280 01b8 0020C3E5 		strb	r2, [r3, #0]
 281 01bc 0020A083 		movhi	r2, #0
 282 01c0 0020C385 		strhib	r2, [r3, #0]
 283 01c4 D83D9FE5 		ldr	r3, .L267+24
 284 01c8 0020D3E5 		ldrb	r2, [r3, #0]	@ zero_extendqisi2
 285 01cc 012082E2 		add	r2, r2, #1
 286 01d0 FF2002E2 		and	r2, r2, #255
 287 01d4 410052E3 		cmp	r2, #65
 288 01d8 0020C3E5 		strb	r2, [r3, #0]
 289 01dc 0020A083 		movhi	r2, #0
 290 01e0 0020C385 		strhib	r2, [r3, #0]
 291 01e4 BC3D9FE5 		ldr	r3, .L267+28
 292 01e8 0020D3E5 		ldrb	r2, [r3, #0]	@ zero_extendqisi2
 293 01ec 012082E2 		add	r2, r2, #1
 294 01f0 FF2002E2 		and	r2, r2, #255
 295 01f4 470052E3 		cmp	r2, #71
 296 01f8 0020C3E5 		strb	r2, [r3, #0]
 297 01fc 0020A083 		movhi	r2, #0
 298 0200 0020C385 		strhib	r2, [r3, #0]
 299 0204 A03D9FE5 		ldr	r3, .L267+32
 300 0208 0020D3E5 		ldrb	r2, [r3, #0]	@ zero_extendqisi2
 301 020c 012082E2 		add	r2, r2, #1
 302 0210 FF2002E2 		and	r2, r2, #255
 303 0214 590052E3 		cmp	r2, #89
 304 0218 0020C3E5 		strb	r2, [r3, #0]
 305 021c 0020A083 		movhi	r2, #0
 306 0220 0020C385 		strhib	r2, [r3, #0]
 307 0224 843D9FE5 		ldr	r3, .L267+36
 308 0228 0020D3E5 		ldrb	r2, [r3, #0]	@ zero_extendqisi2
 309 022c 012082E2 		add	r2, r2, #1
 310 0230 FF2002E2 		and	r2, r2, #255
 311 0234 770052E3 		cmp	r2, #119
 312 0238 0020C3E5 		strb	r2, [r3, #0]
 313 023c 0020A083 		movhi	r2, #0
 314 0240 0020C385 		strhib	r2, [r3, #0]
 315 0244 683D9FE5 		ldr	r3, .L267+40
 316 0248 0020D3E5 		ldrb	r2, [r3, #0]	@ zero_extendqisi2
 317 024c 012082E2 		add	r2, r2, #1
 318 0250 FF2002E2 		and	r2, r2, #255
 319 0254 7D0052E3 		cmp	r2, #125
 320 0258 0020C3E5 		strb	r2, [r3, #0]
 321 025c 0020A083 		movhi	r2, #0
 322 0260 0020C385 		strhib	r2, [r3, #0]
 323 0264 4C3D9FE5 		ldr	r3, .L267+44
 324 0268 0020D3E5 		ldrb	r2, [r3, #0]	@ zero_extendqisi2
 325 026c 012082E2 		add	r2, r2, #1
 326 0270 FF2002E2 		and	r2, r2, #255
 327 0274 950052E3 		cmp	r2, #149
 328 0278 0020C3E5 		strb	r2, [r3, #0]
 329 027c 0020A083 		movhi	r2, #0
 330 0280 0020C385 		strhib	r2, [r3, #0]
 331 0284 303D9FE5 		ldr	r3, .L267+48
 332 0288 B020D3E1 		ldrh	r2, [r3, #0]
 333 028c 012082E2 		add	r2, r2, #1
 334 0290 0228A0E1 		mov	r2, r2, asl #16
 335 0294 2228A0E1 		mov	r2, r2, lsr #16
 336 0298 4B0F52E3 		cmp	r2, #300
 337 029c B020C3E1 		strh	r2, [r3, #0]	@ movhi
 338 02a0 0020A023 		movcs	r2, #0
 339 02a4 B020C321 		strcsh	r2, [r3, #0]	@ movhi
 340 02a8 103D9FE5 		ldr	r3, .L267+52
 341 02ac B020D3E1 		ldrh	r2, [r3, #0]
 342 02b0 012082E2 		add	r2, r2, #1
 343 02b4 0228A0E1 		mov	r2, r2, asl #16
 344 02b8 041D9FE5 		ldr	r1, .L267+56
 345 02bc 2228A0E1 		mov	r2, r2, lsr #16
 346 02c0 010052E1 		cmp	r2, r1
 347 02c4 B020C3E1 		strh	r2, [r3, #0]	@ movhi
 348 02c8 0020A083 		movhi	r2, #0
 349 02cc B020C381 		strhih	r2, [r3, #0]	@ movhi
 350 02d0 F03C9FE5 		ldr	r3, .L267+60
 351 02d4 B020D3E1 		ldrh	r2, [r3, #0]
 352 02d8 012082E2 		add	r2, r2, #1
 353 02dc 0228A0E1 		mov	r2, r2, asl #16
 354 02e0 2228A0E1 		mov	r2, r2, lsr #16
 355 02e4 870F52E3 		cmp	r2, #540
 356 02e8 B020C3E1 		strh	r2, [r3, #0]	@ movhi
 357 02ec 0020A023 		movcs	r2, #0
 358 02f0 B020C321 		strcsh	r2, [r3, #0]	@ movhi
 359 02f4 A03C9FE5 		ldr	r3, .L267+16
 360 02f8 0030D3E5 		ldrb	r3, [r3, #0]	@ zero_extendqisi2
 361 02fc 000053E3 		cmp	r3, #0
 362 0300 FA01001A 		bne	.L35
 363 0304 C04C9FE5 		ldr	r4, .L267+64
 364 0308 403094E5 		ldr	r3, [r4, #64]
 365 030c 480094E5 		ldr	r0, [r4, #72]
 366 0310 003063E2 		rsb	r3, r3, #0
 367 0314 BC30CDE1 		strh	r3, [sp, #12]	@ movhi
 368 0318 FEFFFFEB 		bl	__aeabi_i2d
 369 031c AC2C9FE5 		ldr	r2, .L267+68
 370 0320 AC3C9FE5 		ldr	r3, .L267+72
 371 0324 FEFFFFEB 		bl	__aeabi_dmul
 372 0328 0020A0E3 		mov	r2, #0
 373 032c A43C9FE5 		ldr	r3, .L267+76
 374 0330 FEFFFFEB 		bl	__aeabi_ddiv
 375 0334 FEFFFFEB 		bl	__aeabi_d2iz
 376 0338 2110A0E3 		mov	r1, #33
 377 033c BE00CDE1 		strh	r0, [sp, #14]	@ movhi
 378 0340 480C9FE5 		ldr	r0, .L267+4
 379 0344 FEFFFFEB 		bl	uart_check_free_space
 380 0348 000050E3 		cmp	r0, #0
 381 034c 3601000A 		beq	.L36
 382 0350 A03C9FE5 		ldr	r3, .L267+108
 383 0354 B020D3E1 		ldrh	r2, [r3, #0]
 384 0358 212082E2 		add	r2, r2, #33
 385 035c B020C3E1 		strh	r2, [r3, #0]	@ movhi
 386 0360 A83C9FE5 		ldr	r3, .L267+132
 387 0364 B020D3E1 		ldrh	r2, [r3, #0]
 388 0368 012082E2 		add	r2, r2, #1
 389 036c B020C3E1 		strh	r2, [r3, #0]	@ movhi
 390 0370 180C9FE5 		ldr	r0, .L267+4
 391 0374 9910A0E3 		mov	r1, #153
 392 0378 B46C9FE5 		ldr	r6, .L267+168
 393 037c FEFFFFEB 		bl	uart_transmit
 394 0380 080C9FE5 		ldr	r0, .L267+4
 395 0384 2110A0E3 		mov	r1, #33
 396 0388 A85C9FE5 		ldr	r5, .L267+172
 397 038c FEFFFFEB 		bl	uart_transmit
 398 0390 2230A0E3 		mov	r3, #34
 399 0394 0030C6E5 		strb	r3, [r6, #0]
 400 0398 4330A0E3 		mov	r3, #67
 401 039c 0030C5E5 		strb	r3, [r5, #0]
 402 03a0 E80B9FE5 		ldr	r0, .L267+4
 403 03a4 0110A0E3 		mov	r1, #1
 404 03a8 FEFFFFEB 		bl	uart_transmit
 405 03ac 0030D6E5 		ldrb	r3, [r6, #0]	@ zero_extendqisi2
 406 03b0 0020D5E5 		ldrb	r2, [r5, #0]	@ zero_extendqisi2
 407 03b4 083083E2 		add	r3, r3, #8
 408 03b8 FF3003E2 		and	r3, r3, #255
 409 03bc 0030C6E5 		strb	r3, [r6, #0]
 410 03c0 023083E0 		add	r3, r3, r2
 411 03c4 0030C5E5 		strb	r3, [r5, #0]
 412 03c8 C00B9FE5 		ldr	r0, .L267+4
 413 03cc 0810A0E3 		mov	r1, #8
 414 03d0 FEFFFFEB 		bl	uart_transmit
 415 03d4 5B10D4E5 		ldrb	r1, [r4, #91]	@ zero_extendqisi2
 416 03d8 0030D6E5 		ldrb	r3, [r6, #0]	@ zero_extendqisi2
 417 03dc 0020D5E5 		ldrb	r2, [r5, #0]	@ zero_extendqisi2
 418 03e0 033081E0 		add	r3, r1, r3
 419 03e4 FF3003E2 		and	r3, r3, #255
 420 03e8 0030C6E5 		strb	r3, [r6, #0]
 421 03ec 023083E0 		add	r3, r3, r2
 422 03f0 0030C5E5 		strb	r3, [r5, #0]
 423 03f4 940B9FE5 		ldr	r0, .L267+4
 424 03f8 FEFFFFEB 		bl	uart_transmit
 425 03fc 1C10D4E5 		ldrb	r1, [r4, #28]	@ zero_extendqisi2
 426 0400 0030D6E5 		ldrb	r3, [r6, #0]	@ zero_extendqisi2
 427 0404 0020D5E5 		ldrb	r2, [r5, #0]	@ zero_extendqisi2
 428 0408 033081E0 		add	r3, r1, r3
 429 040c FF3003E2 		and	r3, r3, #255
 430 0410 0030C6E5 		strb	r3, [r6, #0]
 431 0414 023083E0 		add	r3, r3, r2
 432 0418 0030C5E5 		strb	r3, [r5, #0]
 433 041c 6C0B9FE5 		ldr	r0, .L267+4
 434 0420 FEFFFFEB 		bl	uart_transmit
 435 0424 1D10D4E5 		ldrb	r1, [r4, #29]	@ zero_extendqisi2
 436 0428 0030D6E5 		ldrb	r3, [r6, #0]	@ zero_extendqisi2
 437 042c 0020D5E5 		ldrb	r2, [r5, #0]	@ zero_extendqisi2
 438 0430 033081E0 		add	r3, r1, r3
 439 0434 FF3003E2 		and	r3, r3, #255
 440 0438 0030C6E5 		strb	r3, [r6, #0]
 441 043c 023083E0 		add	r3, r3, r2
 442 0440 0030C5E5 		strb	r3, [r5, #0]
 443 0444 440B9FE5 		ldr	r0, .L267+4
 444 0448 FEFFFFEB 		bl	uart_transmit
 445 044c 1E10D4E5 		ldrb	r1, [r4, #30]	@ zero_extendqisi2
 446 0450 0030D6E5 		ldrb	r3, [r6, #0]	@ zero_extendqisi2
 447 0454 0020D5E5 		ldrb	r2, [r5, #0]	@ zero_extendqisi2
 448 0458 033081E0 		add	r3, r1, r3
 449 045c FF3003E2 		and	r3, r3, #255
 450 0460 0030C6E5 		strb	r3, [r6, #0]
 451 0464 023083E0 		add	r3, r3, r2
 452 0468 0030C5E5 		strb	r3, [r5, #0]
 453 046c 1C0B9FE5 		ldr	r0, .L267+4
 454 0470 FEFFFFEB 		bl	uart_transmit
 455 0474 1F10D4E5 		ldrb	r1, [r4, #31]	@ zero_extendqisi2
 456 0478 0030D6E5 		ldrb	r3, [r6, #0]	@ zero_extendqisi2
 457 047c 0020D5E5 		ldrb	r2, [r5, #0]	@ zero_extendqisi2
 458 0480 033081E0 		add	r3, r1, r3
 459 0484 FF3003E2 		and	r3, r3, #255
 460 0488 0030C6E5 		strb	r3, [r6, #0]
 461 048c 023083E0 		add	r3, r3, r2
 462 0490 0030C5E5 		strb	r3, [r5, #0]
 463 0494 F40A9FE5 		ldr	r0, .L267+4
 464 0498 FEFFFFEB 		bl	uart_transmit
 465 049c 1810D4E5 		ldrb	r1, [r4, #24]	@ zero_extendqisi2
 466 04a0 0030D6E5 		ldrb	r3, [r6, #0]	@ zero_extendqisi2
 467 04a4 0020D5E5 		ldrb	r2, [r5, #0]	@ zero_extendqisi2
 468 04a8 033081E0 		add	r3, r1, r3
 469 04ac FF3003E2 		and	r3, r3, #255
 470 04b0 0030C6E5 		strb	r3, [r6, #0]
 471 04b4 023083E0 		add	r3, r3, r2
 472 04b8 0030C5E5 		strb	r3, [r5, #0]
 473 04bc CC0A9FE5 		ldr	r0, .L267+4
 474 04c0 FEFFFFEB 		bl	uart_transmit
 475 04c4 1910D4E5 		ldrb	r1, [r4, #25]	@ zero_extendqisi2
 476 04c8 0030D6E5 		ldrb	r3, [r6, #0]	@ zero_extendqisi2
 477 04cc 0020D5E5 		ldrb	r2, [r5, #0]	@ zero_extendqisi2
 478 04d0 033081E0 		add	r3, r1, r3
 479 04d4 FF3003E2 		and	r3, r3, #255
 480 04d8 0030C6E5 		strb	r3, [r6, #0]
 481 04dc 023083E0 		add	r3, r3, r2
 482 04e0 0030C5E5 		strb	r3, [r5, #0]
 483 04e4 A40A9FE5 		ldr	r0, .L267+4
 484 04e8 FEFFFFEB 		bl	uart_transmit
 485 04ec 1A10D4E5 		ldrb	r1, [r4, #26]	@ zero_extendqisi2
 486 04f0 0030D6E5 		ldrb	r3, [r6, #0]	@ zero_extendqisi2
 487 04f4 0020D5E5 		ldrb	r2, [r5, #0]	@ zero_extendqisi2
 488 04f8 033081E0 		add	r3, r1, r3
 489 04fc FF3003E2 		and	r3, r3, #255
 490 0500 0030C6E5 		strb	r3, [r6, #0]
 491 0504 023083E0 		add	r3, r3, r2
 492 0508 0030C5E5 		strb	r3, [r5, #0]
 493 050c 7C0A9FE5 		ldr	r0, .L267+4
 494 0510 FEFFFFEB 		bl	uart_transmit
 495 0514 1B10D4E5 		ldrb	r1, [r4, #27]	@ zero_extendqisi2
 496 0518 0030D6E5 		ldrb	r3, [r6, #0]	@ zero_extendqisi2
 497 051c 0020D5E5 		ldrb	r2, [r5, #0]	@ zero_extendqisi2
 498 0520 033081E0 		add	r3, r1, r3
 499 0524 FF3003E2 		and	r3, r3, #255
 500 0528 0030C6E5 		strb	r3, [r6, #0]
 501 052c 023083E0 		add	r3, r3, r2
 502 0530 0030C5E5 		strb	r3, [r5, #0]
 503 0534 540A9FE5 		ldr	r0, .L267+4
 504 0538 FEFFFFEB 		bl	uart_transmit
 505 053c 0E10DDE5 		ldrb	r1, [sp, #14]	@ zero_extendqisi2
 506 0540 0030D6E5 		ldrb	r3, [r6, #0]	@ zero_extendqisi2
 507 0544 0020D5E5 		ldrb	r2, [r5, #0]	@ zero_extendqisi2
 508 0548 033081E0 		add	r3, r1, r3
 509 054c FF3003E2 		and	r3, r3, #255
 510 0550 0030C6E5 		strb	r3, [r6, #0]
 511 0554 023083E0 		add	r3, r3, r2
 512 0558 0030C5E5 		strb	r3, [r5, #0]
 513 055c 2C0A9FE5 		ldr	r0, .L267+4
 514 0560 FEFFFFEB 		bl	uart_transmit
 515 0564 0F10DDE5 		ldrb	r1, [sp, #15]	@ zero_extendqisi2
 516 0568 0030D6E5 		ldrb	r3, [r6, #0]	@ zero_extendqisi2
 517 056c 0020D5E5 		ldrb	r2, [r5, #0]	@ zero_extendqisi2
 518 0570 033081E0 		add	r3, r1, r3
 519 0574 FF3003E2 		and	r3, r3, #255
 520 0578 0030C6E5 		strb	r3, [r6, #0]
 521 057c 023083E0 		add	r3, r3, r2
 522 0580 0030C5E5 		strb	r3, [r5, #0]
 523 0584 040A9FE5 		ldr	r0, .L267+4
 524 0588 FEFFFFEB 		bl	uart_transmit
 525 058c 2810D4E5 		ldrb	r1, [r4, #40]	@ zero_extendqisi2
 526 0590 0030D6E5 		ldrb	r3, [r6, #0]	@ zero_extendqisi2
 527 0594 0020D5E5 		ldrb	r2, [r5, #0]	@ zero_extendqisi2
 528 0598 033081E0 		add	r3, r1, r3
 529 059c FF3003E2 		and	r3, r3, #255
 530 05a0 0030C6E5 		strb	r3, [r6, #0]
 531 05a4 023083E0 		add	r3, r3, r2
 532 05a8 0030C5E5 		strb	r3, [r5, #0]
 533 05ac DC099FE5 		ldr	r0, .L267+4
 534 05b0 FEFFFFEB 		bl	uart_transmit
 535 05b4 2910D4E5 		ldrb	r1, [r4, #41]	@ zero_extendqisi2
 536 05b8 0030D6E5 		ldrb	r3, [r6, #0]	@ zero_extendqisi2
 537 05bc 0020D5E5 		ldrb	r2, [r5, #0]	@ zero_extendqisi2
 538 05c0 033081E0 		add	r3, r1, r3
 539 05c4 FF3003E2 		and	r3, r3, #255
 540 05c8 0030C6E5 		strb	r3, [r6, #0]
 541 05cc 023083E0 		add	r3, r3, r2
 542 05d0 0030C5E5 		strb	r3, [r5, #0]
 543 05d4 B4099FE5 		ldr	r0, .L267+4
 544 05d8 FEFFFFEB 		bl	uart_transmit
 545 05dc 2A10D4E5 		ldrb	r1, [r4, #42]	@ zero_extendqisi2
 546 05e0 0030D6E5 		ldrb	r3, [r6, #0]	@ zero_extendqisi2
 547 05e4 0020D5E5 		ldrb	r2, [r5, #0]	@ zero_extendqisi2
 548 05e8 033081E0 		add	r3, r1, r3
 549 05ec FF3003E2 		and	r3, r3, #255
 550 05f0 0030C6E5 		strb	r3, [r6, #0]
 551 05f4 023083E0 		add	r3, r3, r2
 552 05f8 0030C5E5 		strb	r3, [r5, #0]
 553 05fc 8C099FE5 		ldr	r0, .L267+4
 554 0600 FEFFFFEB 		bl	uart_transmit
 555 0604 2B10D4E5 		ldrb	r1, [r4, #43]	@ zero_extendqisi2
 556 0608 0030D6E5 		ldrb	r3, [r6, #0]	@ zero_extendqisi2
 557 060c 0020D5E5 		ldrb	r2, [r5, #0]	@ zero_extendqisi2
 558 0610 033081E0 		add	r3, r1, r3
 559 0614 FF3003E2 		and	r3, r3, #255
 560 0618 0030C6E5 		strb	r3, [r6, #0]
 561 061c 023083E0 		add	r3, r3, r2
 562 0620 0030C5E5 		strb	r3, [r5, #0]
 563 0624 64099FE5 		ldr	r0, .L267+4
 564 0628 FEFFFFEB 		bl	uart_transmit
 565 062c 4410D4E5 		ldrb	r1, [r4, #68]	@ zero_extendqisi2
 566 0630 0030D6E5 		ldrb	r3, [r6, #0]	@ zero_extendqisi2
 567 0634 0020D5E5 		ldrb	r2, [r5, #0]	@ zero_extendqisi2
 568 0638 033081E0 		add	r3, r1, r3
 569 063c FF3003E2 		and	r3, r3, #255
 570 0640 0030C6E5 		strb	r3, [r6, #0]
 571 0644 023083E0 		add	r3, r3, r2
 572 0648 0030C5E5 		strb	r3, [r5, #0]
 573 064c 3C099FE5 		ldr	r0, .L267+4
 574 0650 FEFFFFEB 		bl	uart_transmit
 575 0654 4510D4E5 		ldrb	r1, [r4, #69]	@ zero_extendqisi2
 576 0658 0030D6E5 		ldrb	r3, [r6, #0]	@ zero_extendqisi2
 577 065c 0020D5E5 		ldrb	r2, [r5, #0]	@ zero_extendqisi2
 578 0660 033081E0 		add	r3, r1, r3
 579 0664 FF3003E2 		and	r3, r3, #255
 580 0668 0030C6E5 		strb	r3, [r6, #0]
 581 066c 023083E0 		add	r3, r3, r2
 582 0670 0030C5E5 		strb	r3, [r5, #0]
 583 0674 14099FE5 		ldr	r0, .L267+4
 584 0678 FEFFFFEB 		bl	uart_transmit
 585 067c 0C10DDE5 		ldrb	r1, [sp, #12]	@ zero_extendqisi2
 586 0680 0030D6E5 		ldrb	r3, [r6, #0]	@ zero_extendqisi2
 587 0684 0020D5E5 		ldrb	r2, [r5, #0]	@ zero_extendqisi2
 588 0688 033081E0 		add	r3, r1, r3
 589 068c FF3003E2 		and	r3, r3, #255
 590 0690 0030C6E5 		strb	r3, [r6, #0]
 591 0694 023083E0 		add	r3, r3, r2
 592 0698 0030C5E5 		strb	r3, [r5, #0]
 593 069c EC089FE5 		ldr	r0, .L267+4
 594 06a0 FEFFFFEB 		bl	uart_transmit
 595 06a4 0D10DDE5 		ldrb	r1, [sp, #13]	@ zero_extendqisi2
 596 06a8 0030D6E5 		ldrb	r3, [r6, #0]	@ zero_extendqisi2
 597 06ac 0020D5E5 		ldrb	r2, [r5, #0]	@ zero_extendqisi2
 598 06b0 033081E0 		add	r3, r1, r3
 599 06b4 FF3003E2 		and	r3, r3, #255
 600 06b8 0030C6E5 		strb	r3, [r6, #0]
 601 06bc 023083E0 		add	r3, r3, r2
 602 06c0 0030C5E5 		strb	r3, [r5, #0]
 603 06c4 C4089FE5 		ldr	r0, .L267+4
 604 06c8 FEFFFFEB 		bl	uart_transmit
 605 06cc 5C10D4E5 		ldrb	r1, [r4, #92]	@ zero_extendqisi2
 606 06d0 0030D6E5 		ldrb	r3, [r6, #0]	@ zero_extendqisi2
 607 06d4 0020D5E5 		ldrb	r2, [r5, #0]	@ zero_extendqisi2
 608 06d8 033081E0 		add	r3, r1, r3
 609 06dc FF3003E2 		and	r3, r3, #255
 610 06e0 0030C6E5 		strb	r3, [r6, #0]
 611 06e4 023083E0 		add	r3, r3, r2
 612 06e8 0030C5E5 		strb	r3, [r5, #0]
 613 06ec 9C089FE5 		ldr	r0, .L267+4
 614 06f0 FEFFFFEB 		bl	uart_transmit
 615 06f4 5D10D4E5 		ldrb	r1, [r4, #93]	@ zero_extendqisi2
 616 06f8 0030D6E5 		ldrb	r3, [r6, #0]	@ zero_extendqisi2
 617 06fc 0020D5E5 		ldrb	r2, [r5, #0]	@ zero_extendqisi2
 618 0700 033081E0 		add	r3, r1, r3
 619 0704 FF3003E2 		and	r3, r3, #255
 620 0708 0030C6E5 		strb	r3, [r6, #0]
 621 070c 023083E0 		add	r3, r3, r2
 622 0710 0030C5E5 		strb	r3, [r5, #0]
 623 0714 74089FE5 		ldr	r0, .L267+4
 624 0718 FEFFFFEB 		bl	uart_transmit
 625 071c 6010D4E5 		ldrb	r1, [r4, #96]	@ zero_extendqisi2
 626 0720 0030D6E5 		ldrb	r3, [r6, #0]	@ zero_extendqisi2
 627 0724 0020D5E5 		ldrb	r2, [r5, #0]	@ zero_extendqisi2
 628 0728 033081E0 		add	r3, r1, r3
 629 072c FF3003E2 		and	r3, r3, #255
 630 0730 0030C6E5 		strb	r3, [r6, #0]
 631 0734 023083E0 		add	r3, r3, r2
 632 0738 0030C5E5 		strb	r3, [r5, #0]
 633 073c 4C089FE5 		ldr	r0, .L267+4
 634 0740 FEFFFFEB 		bl	uart_transmit
 635 0744 6110D4E5 		ldrb	r1, [r4, #97]	@ zero_extendqisi2
 636 0748 0030D6E5 		ldrb	r3, [r6, #0]	@ zero_extendqisi2
 637 074c 0020D5E5 		ldrb	r2, [r5, #0]	@ zero_extendqisi2
 638 0750 033081E0 		add	r3, r1, r3
 639 0754 FF3003E2 		and	r3, r3, #255
 640 0758 0030C6E5 		strb	r3, [r6, #0]
 641 075c 023083E0 		add	r3, r3, r2
 642 0760 0030C5E5 		strb	r3, [r5, #0]
 643 0764 24089FE5 		ldr	r0, .L267+4
 644 0768 FEFFFFEB 		bl	uart_transmit
 645 076c 6210D4E5 		ldrb	r1, [r4, #98]	@ zero_extendqisi2
 646 0770 0030D6E5 		ldrb	r3, [r6, #0]	@ zero_extendqisi2
 647 0774 0020D5E5 		ldrb	r2, [r5, #0]	@ zero_extendqisi2
 648 0778 033081E0 		add	r3, r1, r3
 649 077c FF3003E2 		and	r3, r3, #255
 650 0780 0030C6E5 		strb	r3, [r6, #0]
 651 0784 023083E0 		add	r3, r3, r2
 652 0788 0030C5E5 		strb	r3, [r5, #0]
 653 078c FC079FE5 		ldr	r0, .L267+4
 654 0790 FEFFFFEB 		bl	uart_transmit
 655 0794 6310D4E5 		ldrb	r1, [r4, #99]	@ zero_extendqisi2
 656 0798 0030D6E5 		ldrb	r3, [r6, #0]	@ zero_extendqisi2
 657 079c 0020D5E5 		ldrb	r2, [r5, #0]	@ zero_extendqisi2
 658 07a0 033081E0 		add	r3, r1, r3
 659 07a4 FF3003E2 		and	r3, r3, #255
 660 07a8 0030C6E5 		strb	r3, [r6, #0]
 661 07ac 023083E0 		add	r3, r3, r2
 662 07b0 0030C5E5 		strb	r3, [r5, #0]
 663 07b4 D4079FE5 		ldr	r0, .L267+4
 664 07b8 FEFFFFEB 		bl	uart_transmit
 665 07bc 2410D4E5 		ldrb	r1, [r4, #36]	@ zero_extendqisi2
 666 07c0 0030D6E5 		ldrb	r3, [r6, #0]	@ zero_extendqisi2
 667 07c4 0020D5E5 		ldrb	r2, [r5, #0]	@ zero_extendqisi2
 668 07c8 033081E0 		add	r3, r1, r3
 669 07cc FF3003E2 		and	r3, r3, #255
 670 07d0 0030C6E5 		strb	r3, [r6, #0]
 671 07d4 023083E0 		add	r3, r3, r2
 672 07d8 0030C5E5 		strb	r3, [r5, #0]
 673 07dc AC079FE5 		ldr	r0, .L267+4
 674 07e0 FEFFFFEB 		bl	uart_transmit
 675 07e4 F0379FE5 		ldr	r3, .L267+80
 676 07e8 0010D3E5 		ldrb	r1, [r3, #0]	@ zero_extendqisi2
 677 07ec 0030D6E5 		ldrb	r3, [r6, #0]	@ zero_extendqisi2
 678 07f0 0020D5E5 		ldrb	r2, [r5, #0]	@ zero_extendqisi2
 679 07f4 033081E0 		add	r3, r1, r3
 680 07f8 FF3003E2 		and	r3, r3, #255
 681 07fc 0030C6E5 		strb	r3, [r6, #0]
 682 0800 023083E0 		add	r3, r3, r2
 683 0804 0030C5E5 		strb	r3, [r5, #0]
 684 0808 80079FE5 		ldr	r0, .L267+4
 685 080c FEFFFFEB 		bl	uart_transmit
 686 0810 0010D6E5 		ldrb	r1, [r6, #0]	@ zero_extendqisi2
 687 0814 74079FE5 		ldr	r0, .L267+4
 688 0818 FEFFFFEB 		bl	uart_transmit
 689 081c 6C079FE5 		ldr	r0, .L267+4
 690 0820 0010D5E5 		ldrb	r1, [r5, #0]	@ zero_extendqisi2
 691 0824 FEFFFFEB 		bl	uart_transmit
 692 0828 030000EA 		b	.L37
 693              	.L36:
 694 082c F4379FE5 		ldr	r3, .L267+156
 695 0830 0020D3E5 		ldrb	r2, [r3, #0]	@ zero_extendqisi2
 696 0834 012082E2 		add	r2, r2, #1
 697 0838 0020C3E5 		strb	r2, [r3, #0]
 698              	.L37:
 699 083c 88279FE5 		ldr	r2, .L267+64
 700 0840 5B30D2E5 		ldrb	r3, [r2, #91]	@ zero_extendqisi2
 701 0844 030053E3 		cmp	r3, #3
 702 0848 8C379FE5 		ldr	r3, .L267+80
 703 084c 0400000A 		beq	.L38
 704 0850 6410D2E5 		ldrb	r1, [r2, #100]	@ zero_extendqisi2
 705 0854 0000D3E5 		ldrb	r0, [r3, #0]	@ zero_extendqisi2
 706 0858 010050E1 		cmp	r0, r1
 707 085c 0010A023 		movcs	r1, #0
 708 0860 0010C325 		strcsb	r1, [r3, #0]
 709              	.L38:
 710 0864 0030D3E5 		ldrb	r3, [r3, #0]	@ zero_extendqisi2
 711 0868 6420D2E5 		ldrb	r2, [r2, #100]	@ zero_extendqisi2
 712 086c 820053E1 		cmp	r3, r2, asl #1
 713 0870 64379FA5 		ldrge	r3, .L267+80
 714 0874 0010A0A3 		movge	r1, #0
 715 0878 0010C3A5 		strgeb	r1, [r3, #0]
 716 087c 58679FE5 		ldr	r6, .L267+80
 717 0880 0030D6E5 		ldrb	r3, [r6, #0]	@ zero_extendqisi2
 718 0884 020053E1 		cmp	r3, r2
 719 0888 9400002A 		bcs	.L40
 720 088c 38779FE5 		ldr	r7, .L267+64
 721 0890 833187E0 		add	r3, r7, r3, asl #3
 722 0894 6930D3E5 		ldrb	r3, [r3, #105]	@ zero_extendqisi2
 723 0898 000053E3 		cmp	r3, #0
 724 089c 8F00000A 		beq	.L40
 725 08a0 E8069FE5 		ldr	r0, .L267+4
 726 08a4 0E10A0E3 		mov	r1, #14
 727 08a8 FEFFFFEB 		bl	uart_check_free_space
 728 08ac 000050E3 		cmp	r0, #0
 729 08b0 8600000A 		beq	.L41
 730 08b4 3C379FE5 		ldr	r3, .L267+108
 731 08b8 B020D3E1 		ldrh	r2, [r3, #0]
 732 08bc 0E2082E2 		add	r2, r2, #14
 733 08c0 B020C3E1 		strh	r2, [r3, #0]	@ movhi
 734 08c4 44379FE5 		ldr	r3, .L267+132
 735 08c8 B020D3E1 		ldrh	r2, [r3, #0]
 736 08cc 012082E2 		add	r2, r2, #1
 737 08d0 B020C3E1 		strh	r2, [r3, #0]	@ movhi
 738 08d4 B4069FE5 		ldr	r0, .L267+4
 739 08d8 9910A0E3 		mov	r1, #153
 740 08dc 50579FE5 		ldr	r5, .L267+168
 741 08e0 FEFFFFEB 		bl	uart_transmit
 742 08e4 A4069FE5 		ldr	r0, .L267+4
 743 08e8 0E10A0E3 		mov	r1, #14
 744 08ec 44479FE5 		ldr	r4, .L267+172
 745 08f0 FEFFFFEB 		bl	uart_transmit
 746 08f4 0F30A0E3 		mov	r3, #15
 747 08f8 0030C5E5 		strb	r3, [r5, #0]
 748 08fc 1D30A0E3 		mov	r3, #29
 749 0900 0030C4E5 		strb	r3, [r4, #0]
 750 0904 84069FE5 		ldr	r0, .L267+4
 751 0908 0110A0E3 		mov	r1, #1
 752 090c FEFFFFEB 		bl	uart_transmit
 753 0910 0030D5E5 		ldrb	r3, [r5, #0]	@ zero_extendqisi2
 754 0914 0020D4E5 		ldrb	r2, [r4, #0]	@ zero_extendqisi2
 755 0918 193083E2 		add	r3, r3, #25
 756 091c FF3003E2 		and	r3, r3, #255
 757 0920 0030C5E5 		strb	r3, [r5, #0]
 758 0924 023083E0 		add	r3, r3, r2
 759 0928 0030C4E5 		strb	r3, [r4, #0]
 760 092c 5C069FE5 		ldr	r0, .L267+4
 761 0930 1910A0E3 		mov	r1, #25
 762 0934 FEFFFFEB 		bl	uart_transmit
 763 0938 0010D6E5 		ldrb	r1, [r6, #0]	@ zero_extendqisi2
 764 093c 0030D5E5 		ldrb	r3, [r5, #0]	@ zero_extendqisi2
 765 0940 0020D4E5 		ldrb	r2, [r4, #0]	@ zero_extendqisi2
 766 0944 033081E0 		add	r3, r1, r3
 767 0948 FF3003E2 		and	r3, r3, #255
 768 094c 0030C5E5 		strb	r3, [r5, #0]
 769 0950 023083E0 		add	r3, r3, r2
 770 0954 0030C4E5 		strb	r3, [r4, #0]
 771 0958 30069FE5 		ldr	r0, .L267+4
 772 095c FEFFFFEB 		bl	uart_transmit
 773 0960 0030D6E5 		ldrb	r3, [r6, #0]	@ zero_extendqisi2
 774 0964 833187E0 		add	r3, r7, r3, asl #3
 775 0968 6610D3E5 		ldrb	r1, [r3, #102]	@ zero_extendqisi2
 776 096c 0030D5E5 		ldrb	r3, [r5, #0]	@ zero_extendqisi2
 777 0970 0020D4E5 		ldrb	r2, [r4, #0]	@ zero_extendqisi2
 778 0974 033081E0 		add	r3, r1, r3
 779 0978 FF3003E2 		and	r3, r3, #255
 780 097c 0030C5E5 		strb	r3, [r5, #0]
 781 0980 023083E0 		add	r3, r3, r2
 782 0984 0030C4E5 		strb	r3, [r4, #0]
 783 0988 00069FE5 		ldr	r0, .L267+4
 784 098c FEFFFFEB 		bl	uart_transmit
 785 0990 0030D6E5 		ldrb	r3, [r6, #0]	@ zero_extendqisi2
 786 0994 833187E0 		add	r3, r7, r3, asl #3
 787 0998 6710D3E5 		ldrb	r1, [r3, #103]	@ zero_extendqisi2
 788 099c 0030D5E5 		ldrb	r3, [r5, #0]	@ zero_extendqisi2
 789 09a0 0020D4E5 		ldrb	r2, [r4, #0]	@ zero_extendqisi2
 790 09a4 033081E0 		add	r3, r1, r3
 791 09a8 FF3003E2 		and	r3, r3, #255
 792 09ac 0030C5E5 		strb	r3, [r5, #0]
 793 09b0 023083E0 		add	r3, r3, r2
 794 09b4 0030C4E5 		strb	r3, [r4, #0]
 795 09b8 D0059FE5 		ldr	r0, .L267+4
 796 09bc FEFFFFEB 		bl	uart_transmit
 797 09c0 0030D6E5 		ldrb	r3, [r6, #0]	@ zero_extendqisi2
 798 09c4 833187E0 		add	r3, r7, r3, asl #3
 799 09c8 6810D3E5 		ldrb	r1, [r3, #104]	@ zero_extendqisi2
 800 09cc 0030D5E5 		ldrb	r3, [r5, #0]	@ zero_extendqisi2
 801 09d0 0020D4E5 		ldrb	r2, [r4, #0]	@ zero_extendqisi2
 802 09d4 033081E0 		add	r3, r1, r3
 803 09d8 FF3003E2 		and	r3, r3, #255
 804 09dc 0030C5E5 		strb	r3, [r5, #0]
 805 09e0 023083E0 		add	r3, r3, r2
 806 09e4 0030C4E5 		strb	r3, [r4, #0]
 807 09e8 A0059FE5 		ldr	r0, .L267+4
 808 09ec FEFFFFEB 		bl	uart_transmit
 809 09f0 0030D6E5 		ldrb	r3, [r6, #0]	@ zero_extendqisi2
 810 09f4 833187E0 		add	r3, r7, r3, asl #3
 811 09f8 6910D3E5 		ldrb	r1, [r3, #105]	@ zero_extendqisi2
 812 09fc 0030D5E5 		ldrb	r3, [r5, #0]	@ zero_extendqisi2
 813 0a00 0020D4E5 		ldrb	r2, [r4, #0]	@ zero_extendqisi2
 814 0a04 033081E0 		add	r3, r1, r3
 815 0a08 FF3003E2 		and	r3, r3, #255
 816 0a0c 0030C5E5 		strb	r3, [r5, #0]
 817 0a10 023083E0 		add	r3, r3, r2
 818 0a14 0030C4E5 		strb	r3, [r4, #0]
 819 0a18 70059FE5 		ldr	r0, .L267+4
 820 0a1c FEFFFFEB 		bl	uart_transmit
 821 0a20 0030D6E5 		ldrb	r3, [r6, #0]	@ zero_extendqisi2
 822 0a24 833187E0 		add	r3, r7, r3, asl #3
 823 0a28 6A10D3E5 		ldrb	r1, [r3, #106]	@ zero_extendqisi2
 824 0a2c 0030D5E5 		ldrb	r3, [r5, #0]	@ zero_extendqisi2
 825 0a30 0020D4E5 		ldrb	r2, [r4, #0]	@ zero_extendqisi2
 826 0a34 033081E0 		add	r3, r1, r3
 827 0a38 FF3003E2 		and	r3, r3, #255
 828 0a3c 0030C5E5 		strb	r3, [r5, #0]
 829 0a40 023083E0 		add	r3, r3, r2
 830 0a44 0030C4E5 		strb	r3, [r4, #0]
 831 0a48 40059FE5 		ldr	r0, .L267+4
 832 0a4c FEFFFFEB 		bl	uart_transmit
 833 0a50 0030D6E5 		ldrb	r3, [r6, #0]	@ zero_extendqisi2
 834 0a54 0C7087E2 		add	r7, r7, #12
 835 0a58 0C3083E2 		add	r3, r3, #12
 836 0a5c 8311D7E7 		ldrb	r1, [r7, r3, asl #3]	@ zero_extendqisi2
 837 0a60 0030D5E5 		ldrb	r3, [r5, #0]	@ zero_extendqisi2
 838 0a64 0020D4E5 		ldrb	r2, [r4, #0]	@ zero_extendqisi2
 839 0a68 033081E0 		add	r3, r1, r3
 840 0a6c FF3003E2 		and	r3, r3, #255
 841 0a70 0030C5E5 		strb	r3, [r5, #0]
 842 0a74 023083E0 		add	r3, r3, r2
 843 0a78 0030C4E5 		strb	r3, [r4, #0]
 844 0a7c 0C059FE5 		ldr	r0, .L267+4
 845 0a80 FEFFFFEB 		bl	uart_transmit
 846 0a84 0030D6E5 		ldrb	r3, [r6, #0]	@ zero_extendqisi2
 847 0a88 837187E0 		add	r7, r7, r3, asl #3
 848 0a8c 6110D7E5 		ldrb	r1, [r7, #97]	@ zero_extendqisi2
 849 0a90 0030D5E5 		ldrb	r3, [r5, #0]	@ zero_extendqisi2
 850 0a94 0020D4E5 		ldrb	r2, [r4, #0]	@ zero_extendqisi2
 851 0a98 033081E0 		add	r3, r1, r3
 852 0a9c FF3003E2 		and	r3, r3, #255
 853 0aa0 0030C5E5 		strb	r3, [r5, #0]
 854 0aa4 023083E0 		add	r3, r3, r2
 855 0aa8 0030C4E5 		strb	r3, [r4, #0]
 856 0aac DC049FE5 		ldr	r0, .L267+4
 857 0ab0 FEFFFFEB 		bl	uart_transmit
 858 0ab4 0010D5E5 		ldrb	r1, [r5, #0]	@ zero_extendqisi2
 859 0ab8 D0049FE5 		ldr	r0, .L267+4
 860 0abc FEFFFFEB 		bl	uart_transmit
 861 0ac0 C8049FE5 		ldr	r0, .L267+4
 862 0ac4 0010D4E5 		ldrb	r1, [r4, #0]	@ zero_extendqisi2
 863 0ac8 FEFFFFEB 		bl	uart_transmit
 864 0acc 030000EA 		b	.L40
 865              	.L41:
 866 0ad0 50359FE5 		ldr	r3, .L267+156
 867 0ad4 0020D3E5 		ldrb	r2, [r3, #0]	@ zero_extendqisi2
 868 0ad8 012082E2 		add	r2, r2, #1
 869 0adc 0020C3E5 		strb	r2, [r3, #0]
 870              	.L40:
 871 0ae0 F4349FE5 		ldr	r3, .L267+80
 872 0ae4 0020D3E5 		ldrb	r2, [r3, #0]	@ zero_extendqisi2
 873 0ae8 012082E2 		add	r2, r2, #1
 874 0aec 0020C3E5 		strb	r2, [r3, #0]
 875              	.L35:
 876 0af0 A8349FE5 		ldr	r3, .L267+20
 877 0af4 0030D3E5 		ldrb	r3, [r3, #0]	@ zero_extendqisi2
 878 0af8 060053E3 		cmp	r3, #6
 879 0afc 9B00001A 		bne	.L42
 880 0b00 D8049FE5 		ldr	r0, .L267+84
 881 0b04 A431D0E5 		ldrb	r3, [r0, #420]	@ zero_extendqisi2
 882 0b08 100013E3 		tst	r3, #16
 883 0b0c 690F8002 		addeq	r0, r0, #420
 884 0b10 FEFFFF0B 		bleq	orientationCalcEulers_f
 885              	.L43:
 886 0b14 74049FE5 		ldr	r0, .L267+4
 887 0b18 1210A0E3 		mov	r1, #18
 888 0b1c FEFFFFEB 		bl	uart_check_free_space
 889 0b20 000050E3 		cmp	r0, #0
 890 0b24 2502000A 		beq	.L49
 891 0b28 C8349FE5 		ldr	r3, .L267+108
 892 0b2c B020D3E1 		ldrh	r2, [r3, #0]
 893 0b30 122082E2 		add	r2, r2, #18
 894 0b34 B020C3E1 		strh	r2, [r3, #0]	@ movhi
 895 0b38 D0349FE5 		ldr	r3, .L267+132
 896 0b3c B020D3E1 		ldrh	r2, [r3, #0]
 897 0b40 012082E2 		add	r2, r2, #1
 898 0b44 B020C3E1 		strh	r2, [r3, #0]	@ movhi
 899 0b48 40049FE5 		ldr	r0, .L267+4
 900 0b4c 9910A0E3 		mov	r1, #153
 901 0b50 DC549FE5 		ldr	r5, .L267+168
 902 0b54 FEFFFFEB 		bl	uart_transmit
 903 0b58 30049FE5 		ldr	r0, .L267+4
 904 0b5c 1210A0E3 		mov	r1, #18
 905 0b60 D0449FE5 		ldr	r4, .L267+172
 906 0b64 FEFFFFEB 		bl	uart_transmit
 907 0b68 1330A0E3 		mov	r3, #19
 908 0b6c 0030C5E5 		strb	r3, [r5, #0]
 909 0b70 2530A0E3 		mov	r3, #37
 910 0b74 0030C4E5 		strb	r3, [r4, #0]
 911 0b78 10049FE5 		ldr	r0, .L267+4
 912 0b7c 0110A0E3 		mov	r1, #1
 913 0b80 FEFFFFEB 		bl	uart_transmit
 914 0b84 0030D5E5 		ldrb	r3, [r5, #0]	@ zero_extendqisi2
 915 0b88 0020D4E5 		ldrb	r2, [r4, #0]	@ zero_extendqisi2
 916 0b8c 063083E2 		add	r3, r3, #6
 917 0b90 FF3003E2 		and	r3, r3, #255
 918 0b94 44649FE5 		ldr	r6, .L267+84
 919 0b98 0030C5E5 		strb	r3, [r5, #0]
 920 0b9c 023083E0 		add	r3, r3, r2
 921 0ba0 0030C4E5 		strb	r3, [r4, #0]
 922 0ba4 E4039FE5 		ldr	r0, .L267+4
 923 0ba8 0610A0E3 		mov	r1, #6
 924 0bac FEFFFFEB 		bl	uart_transmit
 925 0bb0 F811D6E5 		ldrb	r1, [r6, #504]	@ zero_extendqisi2
 926 0bb4 0030D5E5 		ldrb	r3, [r5, #0]	@ zero_extendqisi2
 927 0bb8 0020D4E5 		ldrb	r2, [r4, #0]	@ zero_extendqisi2
 928 0bbc 033081E0 		add	r3, r1, r3
 929 0bc0 FF3003E2 		and	r3, r3, #255
 930 0bc4 0030C5E5 		strb	r3, [r5, #0]
 931 0bc8 023083E0 		add	r3, r3, r2
 932 0bcc 0030C4E5 		strb	r3, [r4, #0]
 933 0bd0 B8039FE5 		ldr	r0, .L267+4
 934 0bd4 FEFFFFEB 		bl	uart_transmit
 935 0bd8 F911D6E5 		ldrb	r1, [r6, #505]	@ zero_extendqisi2
 936 0bdc 0030D5E5 		ldrb	r3, [r5, #0]	@ zero_extendqisi2
 937 0be0 0020D4E5 		ldrb	r2, [r4, #0]	@ zero_extendqisi2
 938 0be4 033081E0 		add	r3, r1, r3
 939 0be8 FF3003E2 		and	r3, r3, #255
 940 0bec 0030C5E5 		strb	r3, [r5, #0]
 941 0bf0 023083E0 		add	r3, r3, r2
 942 0bf4 0030C4E5 		strb	r3, [r4, #0]
 943 0bf8 90039FE5 		ldr	r0, .L267+4
 944 0bfc FEFFFFEB 		bl	uart_transmit
 945 0c00 FA11D6E5 		ldrb	r1, [r6, #506]	@ zero_extendqisi2
 946 0c04 0030D5E5 		ldrb	r3, [r5, #0]	@ zero_extendqisi2
 947 0c08 0020D4E5 		ldrb	r2, [r4, #0]	@ zero_extendqisi2
 948 0c0c 033081E0 		add	r3, r1, r3
 949 0c10 FF3003E2 		and	r3, r3, #255
 950 0c14 0030C5E5 		strb	r3, [r5, #0]
 951 0c18 023083E0 		add	r3, r3, r2
 952 0c1c 0030C4E5 		strb	r3, [r4, #0]
 953 0c20 68039FE5 		ldr	r0, .L267+4
 954 0c24 FEFFFFEB 		bl	uart_transmit
 955 0c28 FB11D6E5 		ldrb	r1, [r6, #507]	@ zero_extendqisi2
 956 0c2c 0030D5E5 		ldrb	r3, [r5, #0]	@ zero_extendqisi2
 957 0c30 0020D4E5 		ldrb	r2, [r4, #0]	@ zero_extendqisi2
 958 0c34 033081E0 		add	r3, r1, r3
 959 0c38 FF3003E2 		and	r3, r3, #255
 960 0c3c 0030C5E5 		strb	r3, [r5, #0]
 961 0c40 023083E0 		add	r3, r3, r2
 962 0c44 0030C4E5 		strb	r3, [r4, #0]
 963 0c48 40039FE5 		ldr	r0, .L267+4
 964 0c4c FEFFFFEB 		bl	uart_transmit
 965 0c50 0012D6E5 		ldrb	r1, [r6, #512]	@ zero_extendqisi2
 966 0c54 0030D5E5 		ldrb	r3, [r5, #0]	@ zero_extendqisi2
 967 0c58 0020D4E5 		ldrb	r2, [r4, #0]	@ zero_extendqisi2
 968 0c5c 033081E0 		add	r3, r1, r3
 969 0c60 FF3003E2 		and	r3, r3, #255
 970 0c64 0030C5E5 		strb	r3, [r5, #0]
 971 0c68 023083E0 		add	r3, r3, r2
 972 0c6c 0030C4E5 		strb	r3, [r4, #0]
 973 0c70 18039FE5 		ldr	r0, .L267+4
 974 0c74 FEFFFFEB 		bl	uart_transmit
 975 0c78 0112D6E5 		ldrb	r1, [r6, #513]	@ zero_extendqisi2
 976 0c7c 0030D5E5 		ldrb	r3, [r5, #0]	@ zero_extendqisi2
 977 0c80 0020D4E5 		ldrb	r2, [r4, #0]	@ zero_extendqisi2
 978 0c84 033081E0 		add	r3, r1, r3
 979 0c88 FF3003E2 		and	r3, r3, #255
 980 0c8c 0030C5E5 		strb	r3, [r5, #0]
 981 0c90 023083E0 		add	r3, r3, r2
 982 0c94 0030C4E5 		strb	r3, [r4, #0]
 983 0c98 F0029FE5 		ldr	r0, .L267+4
 984 0c9c FEFFFFEB 		bl	uart_transmit
 985 0ca0 0212D6E5 		ldrb	r1, [r6, #514]	@ zero_extendqisi2
 986 0ca4 0030D5E5 		ldrb	r3, [r5, #0]	@ zero_extendqisi2
 987 0ca8 0020D4E5 		ldrb	r2, [r4, #0]	@ zero_extendqisi2
 988 0cac 033081E0 		add	r3, r1, r3
 989 0cb0 FF3003E2 		and	r3, r3, #255
 990 0cb4 0030C5E5 		strb	r3, [r5, #0]
 991 0cb8 023083E0 		add	r3, r3, r2
 992 0cbc 0030C4E5 		strb	r3, [r4, #0]
 993 0cc0 C8029FE5 		ldr	r0, .L267+4
 994 0cc4 FEFFFFEB 		bl	uart_transmit
 995 0cc8 0312D6E5 		ldrb	r1, [r6, #515]	@ zero_extendqisi2
 996 0ccc 0030D5E5 		ldrb	r3, [r5, #0]	@ zero_extendqisi2
 997 0cd0 0020D4E5 		ldrb	r2, [r4, #0]	@ zero_extendqisi2
 998 0cd4 033081E0 		add	r3, r1, r3
 999 0cd8 FF3003E2 		and	r3, r3, #255
 1000 0cdc 0030C5E5 		strb	r3, [r5, #0]
 1001 0ce0 023083E0 		add	r3, r3, r2
 1002 0ce4 0030C4E5 		strb	r3, [r4, #0]
 1003 0ce8 A0029FE5 		ldr	r0, .L267+4
 1004 0cec FEFFFFEB 		bl	uart_transmit
 1005 0cf0 FC11D6E5 		ldrb	r1, [r6, #508]	@ zero_extendqisi2
 1006 0cf4 0030D5E5 		ldrb	r3, [r5, #0]	@ zero_extendqisi2
 1007 0cf8 0020D4E5 		ldrb	r2, [r4, #0]	@ zero_extendqisi2
 1008 0cfc 033081E0 		add	r3, r1, r3
 1009 0d00 FF3003E2 		and	r3, r3, #255
 1010 0d04 0030C5E5 		strb	r3, [r5, #0]
 1011 0d08 023083E0 		add	r3, r3, r2
 1012 0d0c 0030C4E5 		strb	r3, [r4, #0]
 1013 0d10 78029FE5 		ldr	r0, .L267+4
 1014 0d14 FEFFFFEB 		bl	uart_transmit
 1015 0d18 FD11D6E5 		ldrb	r1, [r6, #509]	@ zero_extendqisi2
 1016 0d1c 0030D5E5 		ldrb	r3, [r5, #0]	@ zero_extendqisi2
 1017 0d20 0020D4E5 		ldrb	r2, [r4, #0]	@ zero_extendqisi2
 1018 0d24 033081E0 		add	r3, r1, r3
 1019 0d28 FF3003E2 		and	r3, r3, #255
 1020 0d2c 0030C5E5 		strb	r3, [r5, #0]
 1021 0d30 023083E0 		add	r3, r3, r2
 1022 0d34 0030C4E5 		strb	r3, [r4, #0]
 1023 0d38 50029FE5 		ldr	r0, .L267+4
 1024 0d3c FEFFFFEB 		bl	uart_transmit
 1025 0d40 FE11D6E5 		ldrb	r1, [r6, #510]	@ zero_extendqisi2
 1026 0d44 0030D5E5 		ldrb	r3, [r5, #0]	@ zero_extendqisi2
 1027 0d48 0020D4E5 		ldrb	r2, [r4, #0]	@ zero_extendqisi2
 1028 0d4c 033081E0 		add	r3, r1, r3
 1029 0d50 FF3003E2 		and	r3, r3, #255
 1030 0d54 0030C5E5 		strb	r3, [r5, #0]
 1031 0d58 023083E0 		add	r3, r3, r2
 1032 0d5c 0030C4E5 		strb	r3, [r4, #0]
 1033 0d60 28029FE5 		ldr	r0, .L267+4
 1034 0d64 FEFFFFEB 		bl	uart_transmit
 1035 0d68 FF11D6E5 		ldrb	r1, [r6, #511]	@ zero_extendqisi2
 1036 0d6c 760000EA 		b	.L244
 1037              	.L42:
 1038 0d70 0C0053E3 		cmp	r3, #12
 1039 0d74 C000001A 		bne	.L46
 1040 0d78 10029FE5 		ldr	r0, .L267+4
 1041 0d7c 0E10A0E3 		mov	r1, #14
 1042 0d80 FEFFFFEB 		bl	uart_check_free_space
 1043 0d84 000050E3 		cmp	r0, #0
 1044 0d88 8C01000A 		beq	.L49
 1045 0d8c 64329FE5 		ldr	r3, .L267+108
 1046 0d90 B020D3E1 		ldrh	r2, [r3, #0]
 1047 0d94 0E2082E2 		add	r2, r2, #14
 1048 0d98 B020C3E1 		strh	r2, [r3, #0]	@ movhi
 1049 0d9c 6C329FE5 		ldr	r3, .L267+132
 1050 0da0 B020D3E1 		ldrh	r2, [r3, #0]
 1051 0da4 012082E2 		add	r2, r2, #1
 1052 0da8 B020C3E1 		strh	r2, [r3, #0]	@ movhi
 1053 0dac DC019FE5 		ldr	r0, .L267+4
 1054 0db0 9910A0E3 		mov	r1, #153
 1055 0db4 78529FE5 		ldr	r5, .L267+168
 1056 0db8 FEFFFFEB 		bl	uart_transmit
 1057 0dbc CC019FE5 		ldr	r0, .L267+4
 1058 0dc0 0E10A0E3 		mov	r1, #14
 1059 0dc4 6C429FE5 		ldr	r4, .L267+172
 1060 0dc8 FEFFFFEB 		bl	uart_transmit
 1061 0dcc 0F30A0E3 		mov	r3, #15
 1062 0dd0 0030C5E5 		strb	r3, [r5, #0]
 1063 0dd4 1D30A0E3 		mov	r3, #29
 1064 0dd8 0030C4E5 		strb	r3, [r4, #0]
 1065 0ddc AC019FE5 		ldr	r0, .L267+4
 1066 0de0 0110A0E3 		mov	r1, #1
 1067 0de4 FEFFFFEB 		bl	uart_transmit
 1068 0de8 0030D5E5 		ldrb	r3, [r5, #0]	@ zero_extendqisi2
 1069 0dec 0020D4E5 		ldrb	r2, [r4, #0]	@ zero_extendqisi2
 1070 0df0 2A3083E2 		add	r3, r3, #42
 1071 0df4 FF3003E2 		and	r3, r3, #255
 1072 0df8 0030C5E5 		strb	r3, [r5, #0]
 1073 0dfc 023083E0 		add	r3, r3, r2
 1074 0e00 0030C4E5 		strb	r3, [r4, #0]
 1075 0e04 2A10A0E3 		mov	r1, #42
 1076 0e08 80019FE5 		ldr	r0, .L267+4
 1077 0e0c FEFFFFEB 		bl	uart_transmit
 1078 0e10 FEFFFFEB 		bl	stateGetPositionUtm_f
 1079 0e14 0030D5E5 		ldrb	r3, [r5, #0]	@ zero_extendqisi2
 1080 0e18 0810D0E5 		ldrb	r1, [r0, #8]	@ zero_extendqisi2
 1081 0e1c 0020D4E5 		ldrb	r2, [r4, #0]	@ zero_extendqisi2
 1082 0e20 033081E0 		add	r3, r1, r3
 1083 0e24 FF3003E2 		and	r3, r3, #255
 1084 0e28 0030C5E5 		strb	r3, [r5, #0]
 1085 0e2c 023083E0 		add	r3, r3, r2
 1086 0e30 0030C4E5 		strb	r3, [r4, #0]
 1087 0e34 54019FE5 		ldr	r0, .L267+4
 1088 0e38 FEFFFFEB 		bl	uart_transmit
 1089 0e3c FEFFFFEB 		bl	stateGetPositionUtm_f
 1090 0e40 0030D5E5 		ldrb	r3, [r5, #0]	@ zero_extendqisi2
 1091 0e44 0910D0E5 		ldrb	r1, [r0, #9]	@ zero_extendqisi2
 1092 0e48 0020D4E5 		ldrb	r2, [r4, #0]	@ zero_extendqisi2
 1093 0e4c 033081E0 		add	r3, r1, r3
 1094 0e50 FF3003E2 		and	r3, r3, #255
 1095 0e54 0030C5E5 		strb	r3, [r5, #0]
 1096 0e58 023083E0 		add	r3, r3, r2
 1097 0e5c 0030C4E5 		strb	r3, [r4, #0]
 1098 0e60 28019FE5 		ldr	r0, .L267+4
 1099 0e64 FEFFFFEB 		bl	uart_transmit
 1100 0e68 FEFFFFEB 		bl	stateGetPositionUtm_f
 1101 0e6c 0030D5E5 		ldrb	r3, [r5, #0]	@ zero_extendqisi2
 1102 0e70 0A10D0E5 		ldrb	r1, [r0, #10]	@ zero_extendqisi2
 1103 0e74 0020D4E5 		ldrb	r2, [r4, #0]	@ zero_extendqisi2
 1104 0e78 033081E0 		add	r3, r1, r3
 1105 0e7c FF3003E2 		and	r3, r3, #255
 1106 0e80 0030C5E5 		strb	r3, [r5, #0]
 1107 0e84 023083E0 		add	r3, r3, r2
 1108 0e88 0030C4E5 		strb	r3, [r4, #0]
 1109 0e8c FC009FE5 		ldr	r0, .L267+4
 1110 0e90 FEFFFFEB 		bl	uart_transmit
 1111 0e94 FEFFFFEB 		bl	stateGetPositionUtm_f
 1112 0e98 0030D5E5 		ldrb	r3, [r5, #0]	@ zero_extendqisi2
 1113 0e9c 0B10D0E5 		ldrb	r1, [r0, #11]	@ zero_extendqisi2
 1114 0ea0 0020D4E5 		ldrb	r2, [r4, #0]	@ zero_extendqisi2
 1115 0ea4 033081E0 		add	r3, r1, r3
 1116 0ea8 FF3003E2 		and	r3, r3, #255
 1117 0eac 0030C5E5 		strb	r3, [r5, #0]
 1118 0eb0 023083E0 		add	r3, r3, r2
 1119 0eb4 0030C4E5 		strb	r3, [r4, #0]
 1120 0eb8 D0009FE5 		ldr	r0, .L267+4
 1121 0ebc FEFFFFEB 		bl	uart_transmit
 1122 0ec0 FEFFFFEB 		bl	stateGetSpeedEnu_f
 1123 0ec4 0030D5E5 		ldrb	r3, [r5, #0]	@ zero_extendqisi2
 1124 0ec8 0810D0E5 		ldrb	r1, [r0, #8]	@ zero_extendqisi2
 1125 0ecc 0020D4E5 		ldrb	r2, [r4, #0]	@ zero_extendqisi2
 1126 0ed0 033081E0 		add	r3, r1, r3
 1127 0ed4 FF3003E2 		and	r3, r3, #255
 1128 0ed8 0030C5E5 		strb	r3, [r5, #0]
 1129 0edc 023083E0 		add	r3, r3, r2
 1130 0ee0 0030C4E5 		strb	r3, [r4, #0]
 1131 0ee4 A4009FE5 		ldr	r0, .L267+4
 1132 0ee8 FEFFFFEB 		bl	uart_transmit
 1133 0eec FEFFFFEB 		bl	stateGetSpeedEnu_f
 1134 0ef0 0030D5E5 		ldrb	r3, [r5, #0]	@ zero_extendqisi2
 1135 0ef4 0910D0E5 		ldrb	r1, [r0, #9]	@ zero_extendqisi2
 1136 0ef8 0020D4E5 		ldrb	r2, [r4, #0]	@ zero_extendqisi2
 1137 0efc 033081E0 		add	r3, r1, r3
 1138 0f00 FF3003E2 		and	r3, r3, #255
 1139 0f04 0030C5E5 		strb	r3, [r5, #0]
 1140 0f08 023083E0 		add	r3, r3, r2
 1141 0f0c 0030C4E5 		strb	r3, [r4, #0]
 1142 0f10 78009FE5 		ldr	r0, .L267+4
 1143 0f14 FEFFFFEB 		bl	uart_transmit
 1144 0f18 FEFFFFEB 		bl	stateGetSpeedEnu_f
 1145 0f1c 0030D5E5 		ldrb	r3, [r5, #0]	@ zero_extendqisi2
 1146 0f20 0A10D0E5 		ldrb	r1, [r0, #10]	@ zero_extendqisi2
 1147 0f24 0020D4E5 		ldrb	r2, [r4, #0]	@ zero_extendqisi2
 1148 0f28 033081E0 		add	r3, r1, r3
 1149 0f2c FF3003E2 		and	r3, r3, #255
 1150 0f30 0030C5E5 		strb	r3, [r5, #0]
 1151 0f34 023083E0 		add	r3, r3, r2
 1152 0f38 0030C4E5 		strb	r3, [r4, #0]
 1153 0f3c 4C009FE5 		ldr	r0, .L267+4
 1154 0f40 FEFFFFEB 		bl	uart_transmit
 1155 0f44 FEFFFFEB 		bl	stateGetSpeedEnu_f
 1156 0f48 0B10D0E5 		ldrb	r1, [r0, #11]	@ zero_extendqisi2
 1157              	.L244:
 1158 0f4c 0030D5E5 		ldrb	r3, [r5, #0]	@ zero_extendqisi2
 1159 0f50 0020D4E5 		ldrb	r2, [r4, #0]	@ zero_extendqisi2
 1160 0f54 033081E0 		add	r3, r1, r3
 1161 0f58 FF3003E2 		and	r3, r3, #255
 1162 0f5c 0030C5E5 		strb	r3, [r5, #0]
 1163 0f60 023083E0 		add	r3, r3, r2
 1164 0f64 0030C4E5 		strb	r3, [r4, #0]
 1165 0f68 20009FE5 		ldr	r0, .L267+4
 1166 0f6c FEFFFFEB 		bl	uart_transmit
 1167 0f70 0010D5E5 		ldrb	r1, [r5, #0]	@ zero_extendqisi2
 1168 0f74 14009FE5 		ldr	r0, .L267+4
 1169 0f78 FEFFFFEB 		bl	uart_transmit
 1170 0f7c 0C009FE5 		ldr	r0, .L267+4
 1171 0f80 0010D4E5 		ldrb	r1, [r4, #0]	@ zero_extendqisi2
 1172 0f84 FEFFFFEB 		bl	uart_transmit
 1173 0f88 100100EA 		b	.L45
 1174              	.L268:
 1175              		.align	2
 1176              	.L267:
 1177 0f8c 00000000 		.word	.LANCHOR0
 1178 0f90 00000000 		.word	uart1
 1179 0f94 00000000 		.word	.LANCHOR1
 1180 0f98 00000000 		.word	telemetry_mode_Ap
 1181 0f9c 00000000 		.word	.LANCHOR2
 1182 0fa0 00000000 		.word	.LANCHOR3
 1183 0fa4 00000000 		.word	.LANCHOR6
 1184 0fa8 00000000 		.word	.LANCHOR7
 1185 0fac 00000000 		.word	.LANCHOR8
 1186 0fb0 00000000 		.word	.LANCHOR9
 1187 0fb4 00000000 		.word	.LANCHOR10
 1188 0fb8 00000000 		.word	.LANCHOR11
 1189 0fbc 00000000 		.word	.LANCHOR12
 1190 0fc0 00000000 		.word	.LANCHOR13
 1191 0fc4 31010000 		.word	305
 1192 0fc8 00000000 		.word	.LANCHOR14
 1193 0fcc 00000000 		.word	gps
 1194 0fd0 F8C1631A 		.word	442745336
 1195 0fd4 DCA54C40 		.word	1078765020
 1196 0fd8 80842E41 		.word	1093567616
 1197 0fdc 00000000 		.word	.LANCHOR15
 1198 0fe0 00000000 		.word	state
 1199 0fe4 00000000 		.word	nb_waypoint
 1200 0fe8 00000000 		.word	nav_utm_east0
 1201 0fec 00000000 		.word	waypoints
 1202 0ff0 00000000 		.word	nav_utm_north0
 1203 0ff4 00000000 		.word	.LANCHOR16
 1204 0ff8 00000000 		.word	downlink_nb_bytes
 1205 0ffc 00000000 		.word	nav_utm_zone0
 1206 1000 00000000 		.word	.LANCHOR4
 1207 1004 00000000 		.word	nav_circle_radians
 1208 1008 182D4454 		.word	1413754136
 1209 100c FB211940 		.word	1075388923
 1210 1010 00000000 		.word	downlink_nb_msgs
 1211 1014 00000000 		.word	nav_block
 1212 1018 00000000 		.word	nav_stage
 1213 101c 00000000 		.word	dist2_to_wp
 1214 1020 00000000 		.word	dist2_to_home
 1215 1024 00000000 		.word	nav_oval_count
 1216 1028 00000000 		.word	downlink_nb_ovrn
 1217 102c 00000000 		.word	.LANCHOR5
 1218 1030 00000000 		.word	nav_in_circle
 1219 1034 00000000 		.word	ck_a
 1220 1038 00000000 		.word	ck_b
 1221 103c 00000000 		.word	nav_circle_x
 1222 1040 00000000 		.word	nav_circle_y
 1223 1044 00000000 		.word	nav_circle_radius
 1224 1048 00009041 		.word	1099956224
 1225 104c 00000000 		.word	downlink_nb_bytes
 1226 1050 00000000 		.word	downlink_nb_msgs
 1227 1054 00000000 		.word	ck_a
 1228 1058 00000000 		.word	ck_b
 1229 105c 00000000 		.word	h_ctl_roll_setpoint
 1230 1060 00000000 		.word	h_ctl_pitch_loop_setpoint
 1231 1064 00000000 		.word	h_ctl_course_setpoint
 1232 1068 00000000 		.word	desired_x
 1233 106c 00000000 		.word	desired_y
 1234 1070 00000000 		.word	v_ctl_altitude_setpoint
 1235 1074 00000000 		.word	v_ctl_climb_setpoint
 1236 1078 00000000 		.word	uart1
 1237              	.L46:
 1238 107c 120053E3 		cmp	r3, #18
 1239 1080 D200001A 		bne	.L45
 1240 1084 98301FE5 		ldr	r3, .L267+104
 1241 1088 AC101FE5 		ldr	r1, .L267+88
 1242 108c 0020D3E5 		ldrb	r2, [r3, #0]	@ zero_extendqisi2
 1243 1090 0010D1E5 		ldrb	r1, [r1, #0]	@ zero_extendqisi2
 1244 1094 012082E2 		add	r2, r2, #1
 1245 1098 FF2002E2 		and	r2, r2, #255
 1246 109c 020051E1 		cmp	r1, r2
 1247 10a0 0020C3E5 		strb	r2, [r3, #0]
 1248 10a4 0020A093 		movls	r2, #0
 1249 10a8 0020C395 		strlsb	r2, [r3, #0]
 1250 10ac 0040D3E5 		ldrb	r4, [r3, #0]	@ zero_extendqisi2
 1251 10b0 D0301FE5 		ldr	r3, .L267+92
 1252 10b4 0C70A0E3 		mov	r7, #12
 1253 10b8 000093E5 		ldr	r0, [r3, #0]
 1254 10bc FEFFFFEB 		bl	__aeabi_i2f
 1255 10c0 970403E0 		mul	r3, r7, r4
 1256 10c4 E0601FE5 		ldr	r6, .L267+96
 1257 10c8 031096E7 		ldr	r1, [r6, r3]	@ float
 1258 10cc 034086E0 		add	r4, r6, r3
 1259 10d0 FEFFFFEB 		bl	__aeabi_fadd
 1260 10d4 EC301FE5 		ldr	r3, .L267+100
 1261 10d8 00008DE5 		str	r0, [sp, #0]	@ float
 1262 10dc 000093E5 		ldr	r0, [r3, #0]
 1263 10e0 FEFFFFEB 		bl	__aeabi_i2f
 1264 10e4 041094E5 		ldr	r1, [r4, #4]	@ float
 1265 10e8 FEFFFFEB 		bl	__aeabi_fadd
 1266 10ec 1410A0E3 		mov	r1, #20
 1267 10f0 04008DE5 		str	r0, [sp, #4]	@ float
 1268 10f4 84001FE5 		ldr	r0, .L267+236
 1269 10f8 FEFFFFEB 		bl	uart_check_free_space
 1270 10fc 000050E3 		cmp	r0, #0
 1271 1100 14811FE5 		ldr	r8, .L267+104
 1272 1104 AD00000A 		beq	.L49
 1273 1108 18311FE5 		ldr	r3, .L267+108
 1274 110c B020D3E1 		ldrh	r2, [r3, #0]
 1275 1110 142082E2 		add	r2, r2, #20
 1276 1114 B020C3E1 		strh	r2, [r3, #0]	@ movhi
 1277 1118 10311FE5 		ldr	r3, .L267+132
 1278 111c B020D3E1 		ldrh	r2, [r3, #0]
 1279 1120 012082E2 		add	r2, r2, #1
 1280 1124 B020C3E1 		strh	r2, [r3, #0]	@ movhi
 1281 1128 B8001FE5 		ldr	r0, .L267+236
 1282 112c 9910A0E3 		mov	r1, #153
 1283 1130 04511FE5 		ldr	r5, .L267+168
 1284 1134 FEFFFFEB 		bl	uart_transmit
 1285 1138 C8001FE5 		ldr	r0, .L267+236
 1286 113c 1410A0E3 		mov	r1, #20
 1287 1140 10411FE5 		ldr	r4, .L267+172
 1288 1144 FEFFFFEB 		bl	uart_transmit
 1289 1148 1530A0E3 		mov	r3, #21
 1290 114c 0030C5E5 		strb	r3, [r5, #0]
 1291 1150 2930A0E3 		mov	r3, #41
 1292 1154 0030C4E5 		strb	r3, [r4, #0]
 1293 1158 E8001FE5 		ldr	r0, .L267+236
 1294 115c 0110A0E3 		mov	r1, #1
 1295 1160 FEFFFFEB 		bl	uart_transmit
 1296 1164 0030D5E5 		ldrb	r3, [r5, #0]	@ zero_extendqisi2
 1297 1168 0020D4E5 		ldrb	r2, [r4, #0]	@ zero_extendqisi2
 1298 116c 233083E2 		add	r3, r3, #35
 1299 1170 FF3003E2 		and	r3, r3, #255
 1300 1174 0030C5E5 		strb	r3, [r5, #0]
 1301 1178 023083E0 		add	r3, r3, r2
 1302 117c 0030C4E5 		strb	r3, [r4, #0]
 1303 1180 10011FE5 		ldr	r0, .L267+236
 1304 1184 2310A0E3 		mov	r1, #35
 1305 1188 FEFFFFEB 		bl	uart_transmit
 1306 118c 0010D8E5 		ldrb	r1, [r8, #0]	@ zero_extendqisi2
 1307 1190 0030D5E5 		ldrb	r3, [r5, #0]	@ zero_extendqisi2
 1308 1194 0020D4E5 		ldrb	r2, [r4, #0]	@ zero_extendqisi2
 1309 1198 033081E0 		add	r3, r1, r3
 1310 119c FF3003E2 		and	r3, r3, #255
 1311 11a0 0030C5E5 		strb	r3, [r5, #0]
 1312 11a4 023083E0 		add	r3, r3, r2
 1313 11a8 0030C4E5 		strb	r3, [r4, #0]
 1314 11ac 3C011FE5 		ldr	r0, .L267+236
 1315 11b0 FEFFFFEB 		bl	uart_transmit
 1316 11b4 0010DDE5 		ldrb	r1, [sp, #0]	@ zero_extendqisi2
 1317 11b8 0030D5E5 		ldrb	r3, [r5, #0]	@ zero_extendqisi2
 1318 11bc 0020D4E5 		ldrb	r2, [r4, #0]	@ zero_extendqisi2
 1319 11c0 033081E0 		add	r3, r1, r3
 1320 11c4 FF3003E2 		and	r3, r3, #255
 1321 11c8 0030C5E5 		strb	r3, [r5, #0]
 1322 11cc 023083E0 		add	r3, r3, r2
 1323 11d0 0030C4E5 		strb	r3, [r4, #0]
 1324 11d4 64011FE5 		ldr	r0, .L267+236
 1325 11d8 FEFFFFEB 		bl	uart_transmit
 1326 11dc 0110DDE5 		ldrb	r1, [sp, #1]	@ zero_extendqisi2
 1327 11e0 0030D5E5 		ldrb	r3, [r5, #0]	@ zero_extendqisi2
 1328 11e4 0020D4E5 		ldrb	r2, [r4, #0]	@ zero_extendqisi2
 1329 11e8 033081E0 		add	r3, r1, r3
 1330 11ec FF3003E2 		and	r3, r3, #255
 1331 11f0 0030C5E5 		strb	r3, [r5, #0]
 1332 11f4 023083E0 		add	r3, r3, r2
 1333 11f8 0030C4E5 		strb	r3, [r4, #0]
 1334 11fc 8C011FE5 		ldr	r0, .L267+236
 1335 1200 FEFFFFEB 		bl	uart_transmit
 1336 1204 0210DDE5 		ldrb	r1, [sp, #2]	@ zero_extendqisi2
 1337 1208 0030D5E5 		ldrb	r3, [r5, #0]	@ zero_extendqisi2
 1338 120c 0020D4E5 		ldrb	r2, [r4, #0]	@ zero_extendqisi2
 1339 1210 033081E0 		add	r3, r1, r3
 1340 1214 FF3003E2 		and	r3, r3, #255
 1341 1218 0030C5E5 		strb	r3, [r5, #0]
 1342 121c 023083E0 		add	r3, r3, r2
 1343 1220 0030C4E5 		strb	r3, [r4, #0]
 1344 1224 B4011FE5 		ldr	r0, .L267+236
 1345 1228 FEFFFFEB 		bl	uart_transmit
 1346 122c 0310DDE5 		ldrb	r1, [sp, #3]	@ zero_extendqisi2
 1347 1230 0030D5E5 		ldrb	r3, [r5, #0]	@ zero_extendqisi2
 1348 1234 0020D4E5 		ldrb	r2, [r4, #0]	@ zero_extendqisi2
 1349 1238 033081E0 		add	r3, r1, r3
 1350 123c FF3003E2 		and	r3, r3, #255
 1351 1240 0030C5E5 		strb	r3, [r5, #0]
 1352 1244 023083E0 		add	r3, r3, r2
 1353 1248 0030C4E5 		strb	r3, [r4, #0]
 1354 124c DC011FE5 		ldr	r0, .L267+236
 1355 1250 FEFFFFEB 		bl	uart_transmit
 1356 1254 0410DDE5 		ldrb	r1, [sp, #4]	@ zero_extendqisi2
 1357 1258 0030D5E5 		ldrb	r3, [r5, #0]	@ zero_extendqisi2
 1358 125c 0020D4E5 		ldrb	r2, [r4, #0]	@ zero_extendqisi2
 1359 1260 033081E0 		add	r3, r1, r3
 1360 1264 FF3003E2 		and	r3, r3, #255
 1361 1268 0030C5E5 		strb	r3, [r5, #0]
 1362 126c 023083E0 		add	r3, r3, r2
 1363 1270 0030C4E5 		strb	r3, [r4, #0]
 1364 1274 04021FE5 		ldr	r0, .L267+236
 1365 1278 FEFFFFEB 		bl	uart_transmit
 1366 127c 0510DDE5 		ldrb	r1, [sp, #5]	@ zero_extendqisi2
 1367 1280 0030D5E5 		ldrb	r3, [r5, #0]	@ zero_extendqisi2
 1368 1284 0020D4E5 		ldrb	r2, [r4, #0]	@ zero_extendqisi2
 1369 1288 033081E0 		add	r3, r1, r3
 1370 128c FF3003E2 		and	r3, r3, #255
 1371 1290 0030C5E5 		strb	r3, [r5, #0]
 1372 1294 023083E0 		add	r3, r3, r2
 1373 1298 0030C4E5 		strb	r3, [r4, #0]
 1374 129c 2C021FE5 		ldr	r0, .L267+236
 1375 12a0 FEFFFFEB 		bl	uart_transmit
 1376 12a4 0610DDE5 		ldrb	r1, [sp, #6]	@ zero_extendqisi2
 1377 12a8 0030D5E5 		ldrb	r3, [r5, #0]	@ zero_extendqisi2
 1378 12ac 0020D4E5 		ldrb	r2, [r4, #0]	@ zero_extendqisi2
 1379 12b0 033081E0 		add	r3, r1, r3
 1380 12b4 FF3003E2 		and	r3, r3, #255
 1381 12b8 0030C5E5 		strb	r3, [r5, #0]
 1382 12bc 023083E0 		add	r3, r3, r2
 1383 12c0 0030C4E5 		strb	r3, [r4, #0]
 1384 12c4 54021FE5 		ldr	r0, .L267+236
 1385 12c8 FEFFFFEB 		bl	uart_transmit
 1386 12cc 0710DDE5 		ldrb	r1, [sp, #7]	@ zero_extendqisi2
 1387 12d0 0030D5E5 		ldrb	r3, [r5, #0]	@ zero_extendqisi2
 1388 12d4 0020D4E5 		ldrb	r2, [r4, #0]	@ zero_extendqisi2
 1389 12d8 033081E0 		add	r3, r1, r3
 1390 12dc FF3003E2 		and	r3, r3, #255
 1391 12e0 0030C5E5 		strb	r3, [r5, #0]
 1392 12e4 023083E0 		add	r3, r3, r2
 1393 12e8 0030C4E5 		strb	r3, [r4, #0]
 1394 12ec 7C021FE5 		ldr	r0, .L267+236
 1395 12f0 FEFFFFEB 		bl	uart_transmit
 1396 12f4 0030D8E5 		ldrb	r3, [r8, #0]	@ zero_extendqisi2
 1397 12f8 976323E0 		mla	r3, r7, r3, r6
 1398 12fc 0810D3E5 		ldrb	r1, [r3, #8]	@ zero_extendqisi2
 1399 1300 0030D5E5 		ldrb	r3, [r5, #0]	@ zero_extendqisi2
 1400 1304 0020D4E5 		ldrb	r2, [r4, #0]	@ zero_extendqisi2
 1401 1308 033081E0 		add	r3, r1, r3
 1402 130c FF3003E2 		and	r3, r3, #255
 1403 1310 0030C5E5 		strb	r3, [r5, #0]
 1404 1314 023083E0 		add	r3, r3, r2
 1405 1318 0030C4E5 		strb	r3, [r4, #0]
 1406 131c AC021FE5 		ldr	r0, .L267+236
 1407 1320 FEFFFFEB 		bl	uart_transmit
 1408 1324 0030D8E5 		ldrb	r3, [r8, #0]	@ zero_extendqisi2
 1409 1328 976323E0 		mla	r3, r7, r3, r6
 1410 132c 0910D3E5 		ldrb	r1, [r3, #9]	@ zero_extendqisi2
 1411 1330 0030D5E5 		ldrb	r3, [r5, #0]	@ zero_extendqisi2
 1412 1334 0020D4E5 		ldrb	r2, [r4, #0]	@ zero_extendqisi2
 1413 1338 033081E0 		add	r3, r1, r3
 1414 133c FF3003E2 		and	r3, r3, #255
 1415 1340 0030C5E5 		strb	r3, [r5, #0]
 1416 1344 023083E0 		add	r3, r3, r2
 1417 1348 0030C4E5 		strb	r3, [r4, #0]
 1418 134c DC021FE5 		ldr	r0, .L267+236
 1419 1350 FEFFFFEB 		bl	uart_transmit
 1420 1354 0030D8E5 		ldrb	r3, [r8, #0]	@ zero_extendqisi2
 1421 1358 976323E0 		mla	r3, r7, r3, r6
 1422 135c 0A10D3E5 		ldrb	r1, [r3, #10]	@ zero_extendqisi2
 1423 1360 0030D5E5 		ldrb	r3, [r5, #0]	@ zero_extendqisi2
 1424 1364 0020D4E5 		ldrb	r2, [r4, #0]	@ zero_extendqisi2
 1425 1368 033081E0 		add	r3, r1, r3
 1426 136c FF3003E2 		and	r3, r3, #255
 1427 1370 0030C5E5 		strb	r3, [r5, #0]
 1428 1374 023083E0 		add	r3, r3, r2
 1429 1378 0030C4E5 		strb	r3, [r4, #0]
 1430 137c 0C031FE5 		ldr	r0, .L267+236
 1431 1380 FEFFFFEB 		bl	uart_transmit
 1432 1384 0030D8E5 		ldrb	r3, [r8, #0]	@ zero_extendqisi2
 1433 1388 976326E0 		mla	r6, r7, r3, r6
 1434 138c 0030D5E5 		ldrb	r3, [r5, #0]	@ zero_extendqisi2
 1435 1390 0B10D6E5 		ldrb	r1, [r6, #11]	@ zero_extendqisi2
 1436 1394 0020D4E5 		ldrb	r2, [r4, #0]	@ zero_extendqisi2
 1437 1398 033081E0 		add	r3, r1, r3
 1438 139c FF3003E2 		and	r3, r3, #255
 1439 13a0 0030C5E5 		strb	r3, [r5, #0]
 1440 13a4 023083E0 		add	r3, r3, r2
 1441 13a8 0030C4E5 		strb	r3, [r4, #0]
 1442 13ac 3C031FE5 		ldr	r0, .L267+236
 1443 13b0 FEFFFFEB 		bl	uart_transmit
 1444 13b4 C0331FE5 		ldr	r3, .L267+112
 1445 13b8 0010D3E5 		ldrb	r1, [r3, #0]	@ zero_extendqisi2
 1446 13bc E2FEFFEA 		b	.L244
 1447              	.L49:
 1448 13c0 A0331FE5 		ldr	r3, .L267+156
 1449 13c4 0020D3E5 		ldrb	r2, [r3, #0]	@ zero_extendqisi2
 1450 13c8 012082E2 		add	r2, r2, #1
 1451 13cc 0020C3E5 		strb	r2, [r3, #0]
 1452              	.L45:
 1453 13d0 D8331FE5 		ldr	r3, .L267+116
 1454 13d4 0030D3E5 		ldrb	r3, [r3, #0]	@ zero_extendqisi2
 1455 13d8 180053E3 		cmp	r3, #24
 1456 13dc 0A01000A 		beq	.L50
 1457 13e0 1E0053E3 		cmp	r3, #30
 1458 13e4 0801001A 		bne	.L50
 1459 13e8 EC331FE5 		ldr	r3, .L267+120
 1460 13ec 005093E5 		ldr	r5, [r3, #0]	@ float
 1461 13f0 FEFFFFEB 		bl	stateGetPositionEnu_f
 1462 13f4 1A10A0E3 		mov	r1, #26
 1463 13f8 0040A0E1 		mov	r4, r0
 1464 13fc 8C031FE5 		ldr	r0, .L267+236
 1465 1400 FEFFFFEB 		bl	uart_check_free_space
 1466 1404 000050E3 		cmp	r0, #0
 1467 1408 FB00000A 		beq	.L51
 1468 140c 0201C5E3 		bic	r0, r5, #-2147483648
 1469 1410 FEFFFFEB 		bl	__aeabi_f2d
 1470 1414 14241FE5 		ldr	r2, .L267+124
 1471 1418 14341FE5 		ldr	r3, .L267+128
 1472 141c FEFFFFEB 		bl	__aeabi_ddiv
 1473 1420 FEFFFFEB 		bl	__aeabi_d2uiz
 1474 1424 E0331FE5 		ldr	r3, .L267+192
 1475 1428 B020D3E1 		ldrh	r2, [r3, #0]
 1476 142c 1A2082E2 		add	r2, r2, #26
 1477 1430 B020C3E1 		strh	r2, [r3, #0]	@ movhi
 1478 1434 2C341FE5 		ldr	r3, .L267+132
 1479 1438 B020D3E1 		ldrh	r2, [r3, #0]
 1480 143c 012082E2 		add	r2, r2, #1
 1481 1440 B020C3E1 		strh	r2, [r3, #0]	@ movhi
 1482 1444 FF7000E2 		and	r7, r0, #255
 1483 1448 9910A0E3 		mov	r1, #153
 1484 144c DC031FE5 		ldr	r0, .L267+236
 1485 1450 24641FE5 		ldr	r6, .L267+168
 1486 1454 FEFFFFEB 		bl	uart_transmit
 1487 1458 E8031FE5 		ldr	r0, .L267+236
 1488 145c 1A10A0E3 		mov	r1, #26
 1489 1460 30541FE5 		ldr	r5, .L267+172
 1490 1464 FEFFFFEB 		bl	uart_transmit
 1491 1468 1B30A0E3 		mov	r3, #27
 1492 146c 0030C6E5 		strb	r3, [r6, #0]
 1493 1470 3530A0E3 		mov	r3, #53
 1494 1474 0030C5E5 		strb	r3, [r5, #0]
 1495 1478 08041FE5 		ldr	r0, .L267+236
 1496 147c 0110A0E3 		mov	r1, #1
 1497 1480 FEFFFFEB 		bl	uart_transmit
 1498 1484 0030D6E5 		ldrb	r3, [r6, #0]	@ zero_extendqisi2
 1499 1488 0020D5E5 		ldrb	r2, [r5, #0]	@ zero_extendqisi2
 1500 148c 0A3083E2 		add	r3, r3, #10
 1501 1490 FF3003E2 		and	r3, r3, #255
 1502 1494 0030C6E5 		strb	r3, [r6, #0]
 1503 1498 023083E0 		add	r3, r3, r2
 1504 149c 0030C5E5 		strb	r3, [r5, #0]
 1505 14a0 30041FE5 		ldr	r0, .L267+236
 1506 14a4 0A10A0E3 		mov	r1, #10
 1507 14a8 FEFFFFEB 		bl	uart_transmit
 1508 14ac A0341FE5 		ldr	r3, .L267+136
 1509 14b0 0010D3E5 		ldrb	r1, [r3, #0]	@ zero_extendqisi2
 1510 14b4 0030D6E5 		ldrb	r3, [r6, #0]	@ zero_extendqisi2
 1511 14b8 0020D5E5 		ldrb	r2, [r5, #0]	@ zero_extendqisi2
 1512 14bc 033081E0 		add	r3, r1, r3
 1513 14c0 FF3003E2 		and	r3, r3, #255
 1514 14c4 0030C6E5 		strb	r3, [r6, #0]
 1515 14c8 023083E0 		add	r3, r3, r2
 1516 14cc 0030C5E5 		strb	r3, [r5, #0]
 1517 14d0 60041FE5 		ldr	r0, .L267+236
 1518 14d4 FEFFFFEB 		bl	uart_transmit
 1519 14d8 C8341FE5 		ldr	r3, .L267+140
 1520 14dc 0010D3E5 		ldrb	r1, [r3, #0]	@ zero_extendqisi2
 1521 14e0 0030D6E5 		ldrb	r3, [r6, #0]	@ zero_extendqisi2
 1522 14e4 0020D5E5 		ldrb	r2, [r5, #0]	@ zero_extendqisi2
 1523 14e8 033081E0 		add	r3, r1, r3
 1524 14ec FF3003E2 		and	r3, r3, #255
 1525 14f0 0030C6E5 		strb	r3, [r6, #0]
 1526 14f4 023083E0 		add	r3, r3, r2
 1527 14f8 0030C5E5 		strb	r3, [r5, #0]
 1528 14fc 8C041FE5 		ldr	r0, .L267+236
 1529 1500 FEFFFFEB 		bl	uart_transmit
 1530 1504 0010D4E5 		ldrb	r1, [r4, #0]	@ zero_extendqisi2
 1531 1508 0030D6E5 		ldrb	r3, [r6, #0]	@ zero_extendqisi2
 1532 150c 0020D5E5 		ldrb	r2, [r5, #0]	@ zero_extendqisi2
 1533 1510 033081E0 		add	r3, r1, r3
 1534 1514 FF3003E2 		and	r3, r3, #255
 1535 1518 0030C6E5 		strb	r3, [r6, #0]
 1536 151c 023083E0 		add	r3, r3, r2
 1537 1520 0030C5E5 		strb	r3, [r5, #0]
 1538 1524 B4041FE5 		ldr	r0, .L267+236
 1539 1528 FEFFFFEB 		bl	uart_transmit
 1540 152c 0110D4E5 		ldrb	r1, [r4, #1]	@ zero_extendqisi2
 1541 1530 0030D6E5 		ldrb	r3, [r6, #0]	@ zero_extendqisi2
 1542 1534 0020D5E5 		ldrb	r2, [r5, #0]	@ zero_extendqisi2
 1543 1538 033081E0 		add	r3, r1, r3
 1544 153c FF3003E2 		and	r3, r3, #255
 1545 1540 0030C6E5 		strb	r3, [r6, #0]
 1546 1544 023083E0 		add	r3, r3, r2
 1547 1548 0030C5E5 		strb	r3, [r5, #0]
 1548 154c DC041FE5 		ldr	r0, .L267+236
 1549 1550 FEFFFFEB 		bl	uart_transmit
 1550 1554 0210D4E5 		ldrb	r1, [r4, #2]	@ zero_extendqisi2
 1551 1558 0030D6E5 		ldrb	r3, [r6, #0]	@ zero_extendqisi2
 1552 155c 0020D5E5 		ldrb	r2, [r5, #0]	@ zero_extendqisi2
 1553 1560 033081E0 		add	r3, r1, r3
 1554 1564 FF3003E2 		and	r3, r3, #255
 1555 1568 0030C6E5 		strb	r3, [r6, #0]
 1556 156c 023083E0 		add	r3, r3, r2
 1557 1570 0030C5E5 		strb	r3, [r5, #0]
 1558 1574 04051FE5 		ldr	r0, .L267+236
 1559 1578 FEFFFFEB 		bl	uart_transmit
 1560 157c 0310D4E5 		ldrb	r1, [r4, #3]	@ zero_extendqisi2
 1561 1580 0030D6E5 		ldrb	r3, [r6, #0]	@ zero_extendqisi2
 1562 1584 0020D5E5 		ldrb	r2, [r5, #0]	@ zero_extendqisi2
 1563 1588 033081E0 		add	r3, r1, r3
 1564 158c FF3003E2 		and	r3, r3, #255
 1565 1590 0030C6E5 		strb	r3, [r6, #0]
 1566 1594 023083E0 		add	r3, r3, r2
 1567 1598 0030C5E5 		strb	r3, [r5, #0]
 1568 159c 2C051FE5 		ldr	r0, .L267+236
 1569 15a0 FEFFFFEB 		bl	uart_transmit
 1570 15a4 0410D4E5 		ldrb	r1, [r4, #4]	@ zero_extendqisi2
 1571 15a8 0030D6E5 		ldrb	r3, [r6, #0]	@ zero_extendqisi2
 1572 15ac 0020D5E5 		ldrb	r2, [r5, #0]	@ zero_extendqisi2
 1573 15b0 033081E0 		add	r3, r1, r3
 1574 15b4 FF3003E2 		and	r3, r3, #255
 1575 15b8 0030C6E5 		strb	r3, [r6, #0]
 1576 15bc 023083E0 		add	r3, r3, r2
 1577 15c0 0030C5E5 		strb	r3, [r5, #0]
 1578 15c4 54051FE5 		ldr	r0, .L267+236
 1579 15c8 FEFFFFEB 		bl	uart_transmit
 1580 15cc 0510D4E5 		ldrb	r1, [r4, #5]	@ zero_extendqisi2
 1581 15d0 0030D6E5 		ldrb	r3, [r6, #0]	@ zero_extendqisi2
 1582 15d4 0020D5E5 		ldrb	r2, [r5, #0]	@ zero_extendqisi2
 1583 15d8 033081E0 		add	r3, r1, r3
 1584 15dc FF3003E2 		and	r3, r3, #255
 1585 15e0 0030C6E5 		strb	r3, [r6, #0]
 1586 15e4 023083E0 		add	r3, r3, r2
 1587 15e8 0030C5E5 		strb	r3, [r5, #0]
 1588 15ec 7C051FE5 		ldr	r0, .L267+236
 1589 15f0 FEFFFFEB 		bl	uart_transmit
 1590 15f4 0610D4E5 		ldrb	r1, [r4, #6]	@ zero_extendqisi2
 1591 15f8 0030D6E5 		ldrb	r3, [r6, #0]	@ zero_extendqisi2
 1592 15fc 0020D5E5 		ldrb	r2, [r5, #0]	@ zero_extendqisi2
 1593 1600 033081E0 		add	r3, r1, r3
 1594 1604 FF3003E2 		and	r3, r3, #255
 1595 1608 0030C6E5 		strb	r3, [r6, #0]
 1596 160c 023083E0 		add	r3, r3, r2
 1597 1610 0030C5E5 		strb	r3, [r5, #0]
 1598 1614 A4051FE5 		ldr	r0, .L267+236
 1599 1618 FEFFFFEB 		bl	uart_transmit
 1600 161c 0710D4E5 		ldrb	r1, [r4, #7]	@ zero_extendqisi2
 1601 1620 0030D6E5 		ldrb	r3, [r6, #0]	@ zero_extendqisi2
 1602 1624 0020D5E5 		ldrb	r2, [r5, #0]	@ zero_extendqisi2
 1603 1628 033081E0 		add	r3, r1, r3
 1604 162c FF3003E2 		and	r3, r3, #255
 1605 1630 1C461FE5 		ldr	r4, .L267+144
 1606 1634 0030C6E5 		strb	r3, [r6, #0]
 1607 1638 023083E0 		add	r3, r3, r2
 1608 163c 0030C5E5 		strb	r3, [r5, #0]
 1609 1640 D0051FE5 		ldr	r0, .L267+236
 1610 1644 FEFFFFEB 		bl	uart_transmit
 1611 1648 0010D4E5 		ldrb	r1, [r4, #0]	@ zero_extendqisi2
 1612 164c 0030D6E5 		ldrb	r3, [r6, #0]	@ zero_extendqisi2
 1613 1650 0020D5E5 		ldrb	r2, [r5, #0]	@ zero_extendqisi2
 1614 1654 033081E0 		add	r3, r1, r3
 1615 1658 FF3003E2 		and	r3, r3, #255
 1616 165c 0030C6E5 		strb	r3, [r6, #0]
 1617 1660 023083E0 		add	r3, r3, r2
 1618 1664 0030C5E5 		strb	r3, [r5, #0]
 1619 1668 F8051FE5 		ldr	r0, .L267+236
 1620 166c FEFFFFEB 		bl	uart_transmit
 1621 1670 0110D4E5 		ldrb	r1, [r4, #1]	@ zero_extendqisi2
 1622 1674 0030D6E5 		ldrb	r3, [r6, #0]	@ zero_extendqisi2
 1623 1678 0020D5E5 		ldrb	r2, [r5, #0]	@ zero_extendqisi2
 1624 167c 033081E0 		add	r3, r1, r3
 1625 1680 FF3003E2 		and	r3, r3, #255
 1626 1684 0030C6E5 		strb	r3, [r6, #0]
 1627 1688 023083E0 		add	r3, r3, r2
 1628 168c 0030C5E5 		strb	r3, [r5, #0]
 1629 1690 20061FE5 		ldr	r0, .L267+236
 1630 1694 FEFFFFEB 		bl	uart_transmit
 1631 1698 0210D4E5 		ldrb	r1, [r4, #2]	@ zero_extendqisi2
 1632 169c 0030D6E5 		ldrb	r3, [r6, #0]	@ zero_extendqisi2
 1633 16a0 0020D5E5 		ldrb	r2, [r5, #0]	@ zero_extendqisi2
 1634 16a4 033081E0 		add	r3, r1, r3
 1635 16a8 FF3003E2 		and	r3, r3, #255
 1636 16ac 0030C6E5 		strb	r3, [r6, #0]
 1637 16b0 023083E0 		add	r3, r3, r2
 1638 16b4 0030C5E5 		strb	r3, [r5, #0]
 1639 16b8 48061FE5 		ldr	r0, .L267+236
 1640 16bc FEFFFFEB 		bl	uart_transmit
 1641 16c0 0310D4E5 		ldrb	r1, [r4, #3]	@ zero_extendqisi2
 1642 16c4 0030D6E5 		ldrb	r3, [r6, #0]	@ zero_extendqisi2
 1643 16c8 0020D5E5 		ldrb	r2, [r5, #0]	@ zero_extendqisi2
 1644 16cc 033081E0 		add	r3, r1, r3
 1645 16d0 FF3003E2 		and	r3, r3, #255
 1646 16d4 BC461FE5 		ldr	r4, .L267+148
 1647 16d8 0030C6E5 		strb	r3, [r6, #0]
 1648 16dc 023083E0 		add	r3, r3, r2
 1649 16e0 0030C5E5 		strb	r3, [r5, #0]
 1650 16e4 74061FE5 		ldr	r0, .L267+236
 1651 16e8 FEFFFFEB 		bl	uart_transmit
 1652 16ec 0010D4E5 		ldrb	r1, [r4, #0]	@ zero_extendqisi2
 1653 16f0 0030D6E5 		ldrb	r3, [r6, #0]	@ zero_extendqisi2
 1654 16f4 0020D5E5 		ldrb	r2, [r5, #0]	@ zero_extendqisi2
 1655 16f8 033081E0 		add	r3, r1, r3
 1656 16fc FF3003E2 		and	r3, r3, #255
 1657 1700 0030C6E5 		strb	r3, [r6, #0]
 1658 1704 023083E0 		add	r3, r3, r2
 1659 1708 0030C5E5 		strb	r3, [r5, #0]
 1660 170c 9C061FE5 		ldr	r0, .L267+236
 1661 1710 FEFFFFEB 		bl	uart_transmit
 1662 1714 0110D4E5 		ldrb	r1, [r4, #1]	@ zero_extendqisi2
 1663 1718 0030D6E5 		ldrb	r3, [r6, #0]	@ zero_extendqisi2
 1664 171c 0020D5E5 		ldrb	r2, [r5, #0]	@ zero_extendqisi2
 1665 1720 033081E0 		add	r3, r1, r3
 1666 1724 FF3003E2 		and	r3, r3, #255
 1667 1728 0030C6E5 		strb	r3, [r6, #0]
 1668 172c 023083E0 		add	r3, r3, r2
 1669 1730 0030C5E5 		strb	r3, [r5, #0]
 1670 1734 C4061FE5 		ldr	r0, .L267+236
 1671 1738 FEFFFFEB 		bl	uart_transmit
 1672 173c 0210D4E5 		ldrb	r1, [r4, #2]	@ zero_extendqisi2
 1673 1740 0030D6E5 		ldrb	r3, [r6, #0]	@ zero_extendqisi2
 1674 1744 0020D5E5 		ldrb	r2, [r5, #0]	@ zero_extendqisi2
 1675 1748 033081E0 		add	r3, r1, r3
 1676 174c FF3003E2 		and	r3, r3, #255
 1677 1750 0030C6E5 		strb	r3, [r6, #0]
 1678 1754 023083E0 		add	r3, r3, r2
 1679 1758 0030C5E5 		strb	r3, [r5, #0]
 1680 175c EC061FE5 		ldr	r0, .L267+236
 1681 1760 FEFFFFEB 		bl	uart_transmit
 1682 1764 0310D4E5 		ldrb	r1, [r4, #3]	@ zero_extendqisi2
 1683 1768 0030D6E5 		ldrb	r3, [r6, #0]	@ zero_extendqisi2
 1684 176c 0020D5E5 		ldrb	r2, [r5, #0]	@ zero_extendqisi2
 1685 1770 033081E0 		add	r3, r1, r3
 1686 1774 FF3003E2 		and	r3, r3, #255
 1687 1778 0030C6E5 		strb	r3, [r6, #0]
 1688 177c 023083E0 		add	r3, r3, r2
 1689 1780 0030C5E5 		strb	r3, [r5, #0]
 1690 1784 14071FE5 		ldr	r0, .L267+236
 1691 1788 FEFFFFEB 		bl	uart_transmit
 1692 178c 0030D6E5 		ldrb	r3, [r6, #0]	@ zero_extendqisi2
 1693 1790 0020D5E5 		ldrb	r2, [r5, #0]	@ zero_extendqisi2
 1694 1794 033087E0 		add	r3, r7, r3
 1695 1798 FF3003E2 		and	r3, r3, #255
 1696 179c 0030C6E5 		strb	r3, [r6, #0]
 1697 17a0 023083E0 		add	r3, r3, r2
 1698 17a4 0030C5E5 		strb	r3, [r5, #0]
 1699 17a8 0710A0E1 		mov	r1, r7
 1700 17ac 3C071FE5 		ldr	r0, .L267+236
 1701 17b0 FEFFFFEB 		bl	uart_transmit
 1702 17b4 98371FE5 		ldr	r3, .L267+152
 1703 17b8 0010D3E5 		ldrb	r1, [r3, #0]	@ zero_extendqisi2
 1704 17bc 0030D6E5 		ldrb	r3, [r6, #0]	@ zero_extendqisi2
 1705 17c0 0020D5E5 		ldrb	r2, [r5, #0]	@ zero_extendqisi2
 1706 17c4 033081E0 		add	r3, r1, r3
 1707 17c8 FF3003E2 		and	r3, r3, #255
 1708 17cc 0030C6E5 		strb	r3, [r6, #0]
 1709 17d0 023083E0 		add	r3, r3, r2
 1710 17d4 0030C5E5 		strb	r3, [r5, #0]
 1711 17d8 68071FE5 		ldr	r0, .L267+236
 1712 17dc FEFFFFEB 		bl	uart_transmit
 1713 17e0 0010D6E5 		ldrb	r1, [r6, #0]	@ zero_extendqisi2
 1714 17e4 74071FE5 		ldr	r0, .L267+236
 1715 17e8 FEFFFFEB 		bl	uart_transmit
 1716 17ec 7C071FE5 		ldr	r0, .L267+236
 1717 17f0 0010D5E5 		ldrb	r1, [r5, #0]	@ zero_extendqisi2
 1718 17f4 FEFFFFEB 		bl	uart_transmit
 1719 17f8 030000EA 		b	.L50
 1720              	.L51:
 1721 17fc DC371FE5 		ldr	r3, .L267+156
 1722 1800 0020D3E5 		ldrb	r2, [r3, #0]	@ zero_extendqisi2
 1723 1804 012082E2 		add	r2, r2, #1
 1724 1808 0020C3E5 		strb	r2, [r3, #0]
 1725              	.L50:
 1726 180c E8371FE5 		ldr	r3, .L267+160
 1727 1810 0030D3E5 		ldrb	r3, [r3, #0]	@ zero_extendqisi2
 1728 1814 300053E3 		cmp	r3, #48
 1729 1818 9C00001A 		bne	.L52
 1730 181c F4371FE5 		ldr	r3, .L267+164
 1731 1820 0030D3E5 		ldrb	r3, [r3, #0]	@ zero_extendqisi2
 1732 1824 000053E3 		cmp	r3, #0
 1733 1828 1402000A 		beq	.L53
 1734 182c BC071FE5 		ldr	r0, .L267+236
 1735 1830 1210A0E3 		mov	r1, #18
 1736 1834 FEFFFFEB 		bl	uart_check_free_space
 1737 1838 000050E3 		cmp	r0, #0
 1738 183c 0B02000A 		beq	.L55
 1739 1840 FC371FE5 		ldr	r3, .L267+192
 1740 1844 B020D3E1 		ldrh	r2, [r3, #0]
 1741 1848 122082E2 		add	r2, r2, #18
 1742 184c B020C3E1 		strh	r2, [r3, #0]	@ movhi
 1743 1850 08381FE5 		ldr	r3, .L267+196
 1744 1854 B020D3E1 		ldrh	r2, [r3, #0]
 1745 1858 012082E2 		add	r2, r2, #1
 1746 185c B020C3E1 		strh	r2, [r3, #0]	@ movhi
 1747 1860 F0071FE5 		ldr	r0, .L267+236
 1748 1864 9910A0E3 		mov	r1, #153
 1749 1868 3C581FE5 		ldr	r5, .L267+168
 1750 186c FEFFFFEB 		bl	uart_transmit
 1751 1870 00081FE5 		ldr	r0, .L267+236
 1752 1874 1210A0E3 		mov	r1, #18
 1753 1878 48481FE5 		ldr	r4, .L267+172
 1754 187c FEFFFFEB 		bl	uart_transmit
 1755 1880 1330A0E3 		mov	r3, #19
 1756 1884 0030C5E5 		strb	r3, [r5, #0]
 1757 1888 2530A0E3 		mov	r3, #37
 1758 188c 0030C4E5 		strb	r3, [r4, #0]
 1759 1890 20081FE5 		ldr	r0, .L267+236
 1760 1894 0110A0E3 		mov	r1, #1
 1761 1898 FEFFFFEB 		bl	uart_transmit
 1762 189c 0030D5E5 		ldrb	r3, [r5, #0]	@ zero_extendqisi2
 1763 18a0 0020D4E5 		ldrb	r2, [r4, #0]	@ zero_extendqisi2
 1764 18a4 153083E2 		add	r3, r3, #21
 1765 18a8 FF3003E2 		and	r3, r3, #255
 1766 18ac 78681FE5 		ldr	r6, .L267+176
 1767 18b0 0030C5E5 		strb	r3, [r5, #0]
 1768 18b4 023083E0 		add	r3, r3, r2
 1769 18b8 0030C4E5 		strb	r3, [r4, #0]
 1770 18bc 4C081FE5 		ldr	r0, .L267+236
 1771 18c0 1510A0E3 		mov	r1, #21
 1772 18c4 FEFFFFEB 		bl	uart_transmit
 1773 18c8 0010D6E5 		ldrb	r1, [r6, #0]	@ zero_extendqisi2
 1774 18cc 0030D5E5 		ldrb	r3, [r5, #0]	@ zero_extendqisi2
 1775 18d0 0020D4E5 		ldrb	r2, [r4, #0]	@ zero_extendqisi2
 1776 18d4 033081E0 		add	r3, r1, r3
 1777 18d8 FF3003E2 		and	r3, r3, #255
 1778 18dc 0030C5E5 		strb	r3, [r5, #0]
 1779 18e0 023083E0 		add	r3, r3, r2
 1780 18e4 0030C4E5 		strb	r3, [r4, #0]
 1781 18e8 78081FE5 		ldr	r0, .L267+236
 1782 18ec FEFFFFEB 		bl	uart_transmit
 1783 18f0 0110D6E5 		ldrb	r1, [r6, #1]	@ zero_extendqisi2
 1784 18f4 0030D5E5 		ldrb	r3, [r5, #0]	@ zero_extendqisi2
 1785 18f8 0020D4E5 		ldrb	r2, [r4, #0]	@ zero_extendqisi2
 1786 18fc 033081E0 		add	r3, r1, r3
 1787 1900 FF3003E2 		and	r3, r3, #255
 1788 1904 0030C5E5 		strb	r3, [r5, #0]
 1789 1908 023083E0 		add	r3, r3, r2
 1790 190c 0030C4E5 		strb	r3, [r4, #0]
 1791 1910 A0081FE5 		ldr	r0, .L267+236
 1792 1914 FEFFFFEB 		bl	uart_transmit
 1793 1918 0210D6E5 		ldrb	r1, [r6, #2]	@ zero_extendqisi2
 1794 191c 0030D5E5 		ldrb	r3, [r5, #0]	@ zero_extendqisi2
 1795 1920 0020D4E5 		ldrb	r2, [r4, #0]	@ zero_extendqisi2
 1796 1924 033081E0 		add	r3, r1, r3
 1797 1928 FF3003E2 		and	r3, r3, #255
 1798 192c 0030C5E5 		strb	r3, [r5, #0]
 1799 1930 023083E0 		add	r3, r3, r2
 1800 1934 0030C4E5 		strb	r3, [r4, #0]
 1801 1938 C8081FE5 		ldr	r0, .L267+236
 1802 193c FEFFFFEB 		bl	uart_transmit
 1803 1940 0310D6E5 		ldrb	r1, [r6, #3]	@ zero_extendqisi2
 1804 1944 0030D5E5 		ldrb	r3, [r5, #0]	@ zero_extendqisi2
 1805 1948 0020D4E5 		ldrb	r2, [r4, #0]	@ zero_extendqisi2
 1806 194c 033081E0 		add	r3, r1, r3
 1807 1950 FF3003E2 		and	r3, r3, #255
 1808 1954 1C691FE5 		ldr	r6, .L267+180
 1809 1958 0030C5E5 		strb	r3, [r5, #0]
 1810 195c 023083E0 		add	r3, r3, r2
 1811 1960 0030C4E5 		strb	r3, [r4, #0]
 1812 1964 F4081FE5 		ldr	r0, .L267+236
 1813 1968 FEFFFFEB 		bl	uart_transmit
 1814 196c 0010D6E5 		ldrb	r1, [r6, #0]	@ zero_extendqisi2
 1815 1970 0030D5E5 		ldrb	r3, [r5, #0]	@ zero_extendqisi2
 1816 1974 0020D4E5 		ldrb	r2, [r4, #0]	@ zero_extendqisi2
 1817 1978 033081E0 		add	r3, r1, r3
 1818 197c FF3003E2 		and	r3, r3, #255
 1819 1980 0030C5E5 		strb	r3, [r5, #0]
 1820 1984 023083E0 		add	r3, r3, r2
 1821 1988 0030C4E5 		strb	r3, [r4, #0]
 1822 198c 1C091FE5 		ldr	r0, .L267+236
 1823 1990 FEFFFFEB 		bl	uart_transmit
 1824 1994 0110D6E5 		ldrb	r1, [r6, #1]	@ zero_extendqisi2
 1825 1998 0030D5E5 		ldrb	r3, [r5, #0]	@ zero_extendqisi2
 1826 199c 0020D4E5 		ldrb	r2, [r4, #0]	@ zero_extendqisi2
 1827 19a0 033081E0 		add	r3, r1, r3
 1828 19a4 FF3003E2 		and	r3, r3, #255
 1829 19a8 0030C5E5 		strb	r3, [r5, #0]
 1830 19ac 023083E0 		add	r3, r3, r2
 1831 19b0 0030C4E5 		strb	r3, [r4, #0]
 1832 19b4 44091FE5 		ldr	r0, .L267+236
 1833 19b8 FEFFFFEB 		bl	uart_transmit
 1834 19bc 0210D6E5 		ldrb	r1, [r6, #2]	@ zero_extendqisi2
 1835 19c0 0030D5E5 		ldrb	r3, [r5, #0]	@ zero_extendqisi2
 1836 19c4 0020D4E5 		ldrb	r2, [r4, #0]	@ zero_extendqisi2
 1837 19c8 033081E0 		add	r3, r1, r3
 1838 19cc FF3003E2 		and	r3, r3, #255
 1839 19d0 0030C5E5 		strb	r3, [r5, #0]
 1840 19d4 023083E0 		add	r3, r3, r2
 1841 19d8 0030C4E5 		strb	r3, [r4, #0]
 1842 19dc 6C091FE5 		ldr	r0, .L267+236
 1843 19e0 FEFFFFEB 		bl	uart_transmit
 1844 19e4 0310D6E5 		ldrb	r1, [r6, #3]	@ zero_extendqisi2
 1845 19e8 0030D5E5 		ldrb	r3, [r5, #0]	@ zero_extendqisi2
 1846 19ec 0020D4E5 		ldrb	r2, [r4, #0]	@ zero_extendqisi2
 1847 19f0 033081E0 		add	r3, r1, r3
 1848 19f4 FF3003E2 		and	r3, r3, #255
 1849 19f8 BC691FE5 		ldr	r6, .L267+184
 1850 19fc 0030C5E5 		strb	r3, [r5, #0]
 1851 1a00 023083E0 		add	r3, r3, r2
 1852 1a04 0030C4E5 		strb	r3, [r4, #0]
 1853 1a08 98091FE5 		ldr	r0, .L267+236
 1854 1a0c FEFFFFEB 		bl	uart_transmit
 1855 1a10 0010D6E5 		ldrb	r1, [r6, #0]	@ zero_extendqisi2
 1856 1a14 0030D5E5 		ldrb	r3, [r5, #0]	@ zero_extendqisi2
 1857 1a18 0020D4E5 		ldrb	r2, [r4, #0]	@ zero_extendqisi2
 1858 1a1c 033081E0 		add	r3, r1, r3
 1859 1a20 FF3003E2 		and	r3, r3, #255
 1860 1a24 0030C5E5 		strb	r3, [r5, #0]
 1861 1a28 023083E0 		add	r3, r3, r2
 1862 1a2c 0030C4E5 		strb	r3, [r4, #0]
 1863 1a30 C0091FE5 		ldr	r0, .L267+236
 1864 1a34 FEFFFFEB 		bl	uart_transmit
 1865 1a38 0110D6E5 		ldrb	r1, [r6, #1]	@ zero_extendqisi2
 1866 1a3c 0030D5E5 		ldrb	r3, [r5, #0]	@ zero_extendqisi2
 1867 1a40 0020D4E5 		ldrb	r2, [r4, #0]	@ zero_extendqisi2
 1868 1a44 033081E0 		add	r3, r1, r3
 1869 1a48 FF3003E2 		and	r3, r3, #255
 1870 1a4c 0030C5E5 		strb	r3, [r5, #0]
 1871 1a50 023083E0 		add	r3, r3, r2
 1872 1a54 0030C4E5 		strb	r3, [r4, #0]
 1873 1a58 E8091FE5 		ldr	r0, .L267+236
 1874 1a5c FEFFFFEB 		bl	uart_transmit
 1875 1a60 0210D6E5 		ldrb	r1, [r6, #2]	@ zero_extendqisi2
 1876 1a64 0030D5E5 		ldrb	r3, [r5, #0]	@ zero_extendqisi2
 1877 1a68 0020D4E5 		ldrb	r2, [r4, #0]	@ zero_extendqisi2
 1878 1a6c 033081E0 		add	r3, r1, r3
 1879 1a70 FF3003E2 		and	r3, r3, #255
 1880 1a74 0030C5E5 		strb	r3, [r5, #0]
 1881 1a78 023083E0 		add	r3, r3, r2
 1882 1a7c 0030C4E5 		strb	r3, [r4, #0]
 1883 1a80 100A1FE5 		ldr	r0, .L267+236
 1884 1a84 FEFFFFEB 		bl	uart_transmit
 1885 1a88 0310D6E5 		ldrb	r1, [r6, #3]	@ zero_extendqisi2
 1886 1a8c 670100EA 		b	.L245
 1887              	.L52:
 1888 1a90 360053E3 		cmp	r3, #54
 1889 1a94 7901001A 		bne	.L53
 1890 1a98 583A1FE5 		ldr	r3, .L267+188
 1891 1a9c 2C0A1FE5 		ldr	r0, .L267+236
 1892 1aa0 2610A0E3 		mov	r1, #38
 1893 1aa4 04308DE5 		str	r3, [sp, #4]	@ float
 1894 1aa8 FEFFFFEB 		bl	uart_check_free_space
 1895 1aac 000050E3 		cmp	r0, #0
 1896 1ab0 6E01000A 		beq	.L55
 1897 1ab4 703A1FE5 		ldr	r3, .L267+192
 1898 1ab8 B020D3E1 		ldrh	r2, [r3, #0]
 1899 1abc 262082E2 		add	r2, r2, #38
 1900 1ac0 B020C3E1 		strh	r2, [r3, #0]	@ movhi
 1901 1ac4 7C3A1FE5 		ldr	r3, .L267+196
 1902 1ac8 B020D3E1 		ldrh	r2, [r3, #0]
 1903 1acc 012082E2 		add	r2, r2, #1
 1904 1ad0 B020C3E1 		strh	r2, [r3, #0]	@ movhi
 1905 1ad4 640A1FE5 		ldr	r0, .L267+236
 1906 1ad8 9910A0E3 		mov	r1, #153
 1907 1adc 905A1FE5 		ldr	r5, .L267+200
 1908 1ae0 FEFFFFEB 		bl	uart_transmit
 1909 1ae4 740A1FE5 		ldr	r0, .L267+236
 1910 1ae8 2610A0E3 		mov	r1, #38
 1911 1aec 9C4A1FE5 		ldr	r4, .L267+204
 1912 1af0 FEFFFFEB 		bl	uart_transmit
 1913 1af4 2730A0E3 		mov	r3, #39
 1914 1af8 0030C5E5 		strb	r3, [r5, #0]
 1915 1afc 4D30A0E3 		mov	r3, #77
 1916 1b00 0030C4E5 		strb	r3, [r4, #0]
 1917 1b04 940A1FE5 		ldr	r0, .L267+236
 1918 1b08 0110A0E3 		mov	r1, #1
 1919 1b0c FEFFFFEB 		bl	uart_transmit
 1920 1b10 0030D5E5 		ldrb	r3, [r5, #0]	@ zero_extendqisi2
 1921 1b14 0020D4E5 		ldrb	r2, [r4, #0]	@ zero_extendqisi2
 1922 1b18 103083E2 		add	r3, r3, #16
 1923 1b1c FF3003E2 		and	r3, r3, #255
 1924 1b20 CC6A1FE5 		ldr	r6, .L267+208
 1925 1b24 0030C5E5 		strb	r3, [r5, #0]
 1926 1b28 023083E0 		add	r3, r3, r2
 1927 1b2c 0030C4E5 		strb	r3, [r4, #0]
 1928 1b30 C00A1FE5 		ldr	r0, .L267+236
 1929 1b34 1010A0E3 		mov	r1, #16
 1930 1b38 FEFFFFEB 		bl	uart_transmit
 1931 1b3c 0010D6E5 		ldrb	r1, [r6, #0]	@ zero_extendqisi2
 1932 1b40 0030D5E5 		ldrb	r3, [r5, #0]	@ zero_extendqisi2
 1933 1b44 0020D4E5 		ldrb	r2, [r4, #0]	@ zero_extendqisi2
 1934 1b48 033081E0 		add	r3, r1, r3
 1935 1b4c FF3003E2 		and	r3, r3, #255
 1936 1b50 0030C5E5 		strb	r3, [r5, #0]
 1937 1b54 023083E0 		add	r3, r3, r2
 1938 1b58 0030C4E5 		strb	r3, [r4, #0]
 1939 1b5c EC0A1FE5 		ldr	r0, .L267+236
 1940 1b60 FEFFFFEB 		bl	uart_transmit
 1941 1b64 0110D6E5 		ldrb	r1, [r6, #1]	@ zero_extendqisi2
 1942 1b68 0030D5E5 		ldrb	r3, [r5, #0]	@ zero_extendqisi2
 1943 1b6c 0020D4E5 		ldrb	r2, [r4, #0]	@ zero_extendqisi2
 1944 1b70 033081E0 		add	r3, r1, r3
 1945 1b74 FF3003E2 		and	r3, r3, #255
 1946 1b78 0030C5E5 		strb	r3, [r5, #0]
 1947 1b7c 023083E0 		add	r3, r3, r2
 1948 1b80 0030C4E5 		strb	r3, [r4, #0]
 1949 1b84 140B1FE5 		ldr	r0, .L267+236
 1950 1b88 FEFFFFEB 		bl	uart_transmit
 1951 1b8c 0210D6E5 		ldrb	r1, [r6, #2]	@ zero_extendqisi2
 1952 1b90 0030D5E5 		ldrb	r3, [r5, #0]	@ zero_extendqisi2
 1953 1b94 0020D4E5 		ldrb	r2, [r4, #0]	@ zero_extendqisi2
 1954 1b98 033081E0 		add	r3, r1, r3
 1955 1b9c FF3003E2 		and	r3, r3, #255
 1956 1ba0 0030C5E5 		strb	r3, [r5, #0]
 1957 1ba4 023083E0 		add	r3, r3, r2
 1958 1ba8 0030C4E5 		strb	r3, [r4, #0]
 1959 1bac 3C0B1FE5 		ldr	r0, .L267+236
 1960 1bb0 FEFFFFEB 		bl	uart_transmit
 1961 1bb4 0310D6E5 		ldrb	r1, [r6, #3]	@ zero_extendqisi2
 1962 1bb8 0030D5E5 		ldrb	r3, [r5, #0]	@ zero_extendqisi2
 1963 1bbc 0020D4E5 		ldrb	r2, [r4, #0]	@ zero_extendqisi2
 1964 1bc0 033081E0 		add	r3, r1, r3
 1965 1bc4 FF3003E2 		and	r3, r3, #255
 1966 1bc8 706B1FE5 		ldr	r6, .L267+212
 1967 1bcc 0030C5E5 		strb	r3, [r5, #0]
 1968 1bd0 023083E0 		add	r3, r3, r2
 1969 1bd4 0030C4E5 		strb	r3, [r4, #0]
 1970 1bd8 680B1FE5 		ldr	r0, .L267+236
 1971 1bdc FEFFFFEB 		bl	uart_transmit
 1972 1be0 0010D6E5 		ldrb	r1, [r6, #0]	@ zero_extendqisi2
 1973 1be4 0030D5E5 		ldrb	r3, [r5, #0]	@ zero_extendqisi2
 1974 1be8 0020D4E5 		ldrb	r2, [r4, #0]	@ zero_extendqisi2
 1975 1bec 033081E0 		add	r3, r1, r3
 1976 1bf0 FF3003E2 		and	r3, r3, #255
 1977 1bf4 0030C5E5 		strb	r3, [r5, #0]
 1978 1bf8 023083E0 		add	r3, r3, r2
 1979 1bfc 0030C4E5 		strb	r3, [r4, #0]
 1980 1c00 900B1FE5 		ldr	r0, .L267+236
 1981 1c04 FEFFFFEB 		bl	uart_transmit
 1982 1c08 0110D6E5 		ldrb	r1, [r6, #1]	@ zero_extendqisi2
 1983 1c0c 0030D5E5 		ldrb	r3, [r5, #0]	@ zero_extendqisi2
 1984 1c10 0020D4E5 		ldrb	r2, [r4, #0]	@ zero_extendqisi2
 1985 1c14 033081E0 		add	r3, r1, r3
 1986 1c18 FF3003E2 		and	r3, r3, #255
 1987 1c1c 0030C5E5 		strb	r3, [r5, #0]
 1988 1c20 023083E0 		add	r3, r3, r2
 1989 1c24 0030C4E5 		strb	r3, [r4, #0]
 1990 1c28 B80B1FE5 		ldr	r0, .L267+236
 1991 1c2c FEFFFFEB 		bl	uart_transmit
 1992 1c30 0210D6E5 		ldrb	r1, [r6, #2]	@ zero_extendqisi2
 1993 1c34 0030D5E5 		ldrb	r3, [r5, #0]	@ zero_extendqisi2
 1994 1c38 0020D4E5 		ldrb	r2, [r4, #0]	@ zero_extendqisi2
 1995 1c3c 033081E0 		add	r3, r1, r3
 1996 1c40 FF3003E2 		and	r3, r3, #255
 1997 1c44 0030C5E5 		strb	r3, [r5, #0]
 1998 1c48 023083E0 		add	r3, r3, r2
 1999 1c4c 0030C4E5 		strb	r3, [r4, #0]
 2000 1c50 E00B1FE5 		ldr	r0, .L267+236
 2001 1c54 FEFFFFEB 		bl	uart_transmit
 2002 1c58 0310D6E5 		ldrb	r1, [r6, #3]	@ zero_extendqisi2
 2003 1c5c 0030D5E5 		ldrb	r3, [r5, #0]	@ zero_extendqisi2
 2004 1c60 0020D4E5 		ldrb	r2, [r4, #0]	@ zero_extendqisi2
 2005 1c64 033081E0 		add	r3, r1, r3
 2006 1c68 FF3003E2 		and	r3, r3, #255
 2007 1c6c 106C1FE5 		ldr	r6, .L267+216
 2008 1c70 0030C5E5 		strb	r3, [r5, #0]
 2009 1c74 023083E0 		add	r3, r3, r2
 2010 1c78 0030C4E5 		strb	r3, [r4, #0]
 2011 1c7c 0C0C1FE5 		ldr	r0, .L267+236
 2012 1c80 FEFFFFEB 		bl	uart_transmit
 2013 1c84 0010D6E5 		ldrb	r1, [r6, #0]	@ zero_extendqisi2
 2014 1c88 0030D5E5 		ldrb	r3, [r5, #0]	@ zero_extendqisi2
 2015 1c8c 0020D4E5 		ldrb	r2, [r4, #0]	@ zero_extendqisi2
 2016 1c90 033081E0 		add	r3, r1, r3
 2017 1c94 FF3003E2 		and	r3, r3, #255
 2018 1c98 0030C5E5 		strb	r3, [r5, #0]
 2019 1c9c 023083E0 		add	r3, r3, r2
 2020 1ca0 0030C4E5 		strb	r3, [r4, #0]
 2021 1ca4 340C1FE5 		ldr	r0, .L267+236
 2022 1ca8 FEFFFFEB 		bl	uart_transmit
 2023 1cac 0110D6E5 		ldrb	r1, [r6, #1]	@ zero_extendqisi2
 2024 1cb0 0030D5E5 		ldrb	r3, [r5, #0]	@ zero_extendqisi2
 2025 1cb4 0020D4E5 		ldrb	r2, [r4, #0]	@ zero_extendqisi2
 2026 1cb8 033081E0 		add	r3, r1, r3
 2027 1cbc FF3003E2 		and	r3, r3, #255
 2028 1cc0 0030C5E5 		strb	r3, [r5, #0]
 2029 1cc4 023083E0 		add	r3, r3, r2
 2030 1cc8 0030C4E5 		strb	r3, [r4, #0]
 2031 1ccc 5C0C1FE5 		ldr	r0, .L267+236
 2032 1cd0 FEFFFFEB 		bl	uart_transmit
 2033 1cd4 0210D6E5 		ldrb	r1, [r6, #2]	@ zero_extendqisi2
 2034 1cd8 0030D5E5 		ldrb	r3, [r5, #0]	@ zero_extendqisi2
 2035 1cdc 0020D4E5 		ldrb	r2, [r4, #0]	@ zero_extendqisi2
 2036 1ce0 033081E0 		add	r3, r1, r3
 2037 1ce4 FF3003E2 		and	r3, r3, #255
 2038 1ce8 0030C5E5 		strb	r3, [r5, #0]
 2039 1cec 023083E0 		add	r3, r3, r2
 2040 1cf0 0030C4E5 		strb	r3, [r4, #0]
 2041 1cf4 840C1FE5 		ldr	r0, .L267+236
 2042 1cf8 FEFFFFEB 		bl	uart_transmit
 2043 1cfc 0310D6E5 		ldrb	r1, [r6, #3]	@ zero_extendqisi2
 2044 1d00 0030D5E5 		ldrb	r3, [r5, #0]	@ zero_extendqisi2
 2045 1d04 0020D4E5 		ldrb	r2, [r4, #0]	@ zero_extendqisi2
 2046 1d08 033081E0 		add	r3, r1, r3
 2047 1d0c FF3003E2 		and	r3, r3, #255
 2048 1d10 B06C1FE5 		ldr	r6, .L267+220
 2049 1d14 0030C5E5 		strb	r3, [r5, #0]
 2050 1d18 023083E0 		add	r3, r3, r2
 2051 1d1c 0030C4E5 		strb	r3, [r4, #0]
 2052 1d20 B00C1FE5 		ldr	r0, .L267+236
 2053 1d24 FEFFFFEB 		bl	uart_transmit
 2054 1d28 0010D6E5 		ldrb	r1, [r6, #0]	@ zero_extendqisi2
 2055 1d2c 0030D5E5 		ldrb	r3, [r5, #0]	@ zero_extendqisi2
 2056 1d30 0020D4E5 		ldrb	r2, [r4, #0]	@ zero_extendqisi2
 2057 1d34 033081E0 		add	r3, r1, r3
 2058 1d38 FF3003E2 		and	r3, r3, #255
 2059 1d3c 0030C5E5 		strb	r3, [r5, #0]
 2060 1d40 023083E0 		add	r3, r3, r2
 2061 1d44 0030C4E5 		strb	r3, [r4, #0]
 2062 1d48 D80C1FE5 		ldr	r0, .L267+236
 2063 1d4c FEFFFFEB 		bl	uart_transmit
 2064 1d50 0110D6E5 		ldrb	r1, [r6, #1]	@ zero_extendqisi2
 2065 1d54 0030D5E5 		ldrb	r3, [r5, #0]	@ zero_extendqisi2
 2066 1d58 0020D4E5 		ldrb	r2, [r4, #0]	@ zero_extendqisi2
 2067 1d5c 033081E0 		add	r3, r1, r3
 2068 1d60 FF3003E2 		and	r3, r3, #255
 2069 1d64 0030C5E5 		strb	r3, [r5, #0]
 2070 1d68 023083E0 		add	r3, r3, r2
 2071 1d6c 0030C4E5 		strb	r3, [r4, #0]
 2072 1d70 000D1FE5 		ldr	r0, .L267+236
 2073 1d74 FEFFFFEB 		bl	uart_transmit
 2074 1d78 0210D6E5 		ldrb	r1, [r6, #2]	@ zero_extendqisi2
 2075 1d7c 0030D5E5 		ldrb	r3, [r5, #0]	@ zero_extendqisi2
 2076 1d80 0020D4E5 		ldrb	r2, [r4, #0]	@ zero_extendqisi2
 2077 1d84 033081E0 		add	r3, r1, r3
 2078 1d88 FF3003E2 		and	r3, r3, #255
 2079 1d8c 0030C5E5 		strb	r3, [r5, #0]
 2080 1d90 023083E0 		add	r3, r3, r2
 2081 1d94 0030C4E5 		strb	r3, [r4, #0]
 2082 1d98 280D1FE5 		ldr	r0, .L267+236
 2083 1d9c FEFFFFEB 		bl	uart_transmit
 2084 1da0 0310D6E5 		ldrb	r1, [r6, #3]	@ zero_extendqisi2
 2085 1da4 0030D5E5 		ldrb	r3, [r5, #0]	@ zero_extendqisi2
 2086 1da8 0020D4E5 		ldrb	r2, [r4, #0]	@ zero_extendqisi2
 2087 1dac 033081E0 		add	r3, r1, r3
 2088 1db0 FF3003E2 		and	r3, r3, #255
 2089 1db4 506D1FE5 		ldr	r6, .L267+224
 2090 1db8 0030C5E5 		strb	r3, [r5, #0]
 2091 1dbc 023083E0 		add	r3, r3, r2
 2092 1dc0 0030C4E5 		strb	r3, [r4, #0]
 2093 1dc4 540D1FE5 		ldr	r0, .L267+236
 2094 1dc8 FEFFFFEB 		bl	uart_transmit
 2095 1dcc 0010D6E5 		ldrb	r1, [r6, #0]	@ zero_extendqisi2
 2096 1dd0 0030D5E5 		ldrb	r3, [r5, #0]	@ zero_extendqisi2
 2097 1dd4 0020D4E5 		ldrb	r2, [r4, #0]	@ zero_extendqisi2
 2098 1dd8 033081E0 		add	r3, r1, r3
 2099 1ddc FF3003E2 		and	r3, r3, #255
 2100 1de0 0030C5E5 		strb	r3, [r5, #0]
 2101 1de4 023083E0 		add	r3, r3, r2
 2102 1de8 0030C4E5 		strb	r3, [r4, #0]
 2103 1dec 7C0D1FE5 		ldr	r0, .L267+236
 2104 1df0 FEFFFFEB 		bl	uart_transmit
 2105 1df4 0110D6E5 		ldrb	r1, [r6, #1]	@ zero_extendqisi2
 2106 1df8 0030D5E5 		ldrb	r3, [r5, #0]	@ zero_extendqisi2
 2107 1dfc 0020D4E5 		ldrb	r2, [r4, #0]	@ zero_extendqisi2
 2108 1e00 033081E0 		add	r3, r1, r3
 2109 1e04 FF3003E2 		and	r3, r3, #255
 2110 1e08 0030C5E5 		strb	r3, [r5, #0]
 2111 1e0c 023083E0 		add	r3, r3, r2
 2112 1e10 0030C4E5 		strb	r3, [r4, #0]
 2113 1e14 A40D1FE5 		ldr	r0, .L267+236
 2114 1e18 FEFFFFEB 		bl	uart_transmit
 2115 1e1c 0210D6E5 		ldrb	r1, [r6, #2]	@ zero_extendqisi2
 2116 1e20 0030D5E5 		ldrb	r3, [r5, #0]	@ zero_extendqisi2
 2117 1e24 0020D4E5 		ldrb	r2, [r4, #0]	@ zero_extendqisi2
 2118 1e28 033081E0 		add	r3, r1, r3
 2119 1e2c FF3003E2 		and	r3, r3, #255
 2120 1e30 0030C5E5 		strb	r3, [r5, #0]
 2121 1e34 023083E0 		add	r3, r3, r2
 2122 1e38 0030C4E5 		strb	r3, [r4, #0]
 2123 1e3c CC0D1FE5 		ldr	r0, .L267+236
 2124 1e40 FEFFFFEB 		bl	uart_transmit
 2125 1e44 0310D6E5 		ldrb	r1, [r6, #3]	@ zero_extendqisi2
 2126 1e48 0030D5E5 		ldrb	r3, [r5, #0]	@ zero_extendqisi2
 2127 1e4c 0020D4E5 		ldrb	r2, [r4, #0]	@ zero_extendqisi2
 2128 1e50 033081E0 		add	r3, r1, r3
 2129 1e54 FF3003E2 		and	r3, r3, #255
 2130 1e58 F06D1FE5 		ldr	r6, .L267+228
 2131 1e5c 0030C5E5 		strb	r3, [r5, #0]
 2132 1e60 023083E0 		add	r3, r3, r2
 2133 1e64 0030C4E5 		strb	r3, [r4, #0]
 2134 1e68 F80D1FE5 		ldr	r0, .L267+236
 2135 1e6c FEFFFFEB 		bl	uart_transmit
 2136 1e70 0010D6E5 		ldrb	r1, [r6, #0]	@ zero_extendqisi2
 2137 1e74 0030D5E5 		ldrb	r3, [r5, #0]	@ zero_extendqisi2
 2138 1e78 0020D4E5 		ldrb	r2, [r4, #0]	@ zero_extendqisi2
 2139 1e7c 033081E0 		add	r3, r1, r3
 2140 1e80 FF3003E2 		and	r3, r3, #255
 2141 1e84 0030C5E5 		strb	r3, [r5, #0]
 2142 1e88 023083E0 		add	r3, r3, r2
 2143 1e8c 0030C4E5 		strb	r3, [r4, #0]
 2144 1e90 200E1FE5 		ldr	r0, .L267+236
 2145 1e94 FEFFFFEB 		bl	uart_transmit
 2146 1e98 0110D6E5 		ldrb	r1, [r6, #1]	@ zero_extendqisi2
 2147 1e9c 0030D5E5 		ldrb	r3, [r5, #0]	@ zero_extendqisi2
 2148 1ea0 0020D4E5 		ldrb	r2, [r4, #0]	@ zero_extendqisi2
 2149 1ea4 033081E0 		add	r3, r1, r3
 2150 1ea8 FF3003E2 		and	r3, r3, #255
 2151 1eac 0030C5E5 		strb	r3, [r5, #0]
 2152 1eb0 023083E0 		add	r3, r3, r2
 2153 1eb4 0030C4E5 		strb	r3, [r4, #0]
 2154 1eb8 480E1FE5 		ldr	r0, .L267+236
 2155 1ebc FEFFFFEB 		bl	uart_transmit
 2156 1ec0 0210D6E5 		ldrb	r1, [r6, #2]	@ zero_extendqisi2
 2157 1ec4 0030D5E5 		ldrb	r3, [r5, #0]	@ zero_extendqisi2
 2158 1ec8 0020D4E5 		ldrb	r2, [r4, #0]	@ zero_extendqisi2
 2159 1ecc 033081E0 		add	r3, r1, r3
 2160 1ed0 FF3003E2 		and	r3, r3, #255
 2161 1ed4 0030C5E5 		strb	r3, [r5, #0]
 2162 1ed8 023083E0 		add	r3, r3, r2
 2163 1edc 0030C4E5 		strb	r3, [r4, #0]
 2164 1ee0 700E1FE5 		ldr	r0, .L267+236
 2165 1ee4 FEFFFFEB 		bl	uart_transmit
 2166 1ee8 0310D6E5 		ldrb	r1, [r6, #3]	@ zero_extendqisi2
 2167 1eec 0030D5E5 		ldrb	r3, [r5, #0]	@ zero_extendqisi2
 2168 1ef0 0020D4E5 		ldrb	r2, [r4, #0]	@ zero_extendqisi2
 2169 1ef4 033081E0 		add	r3, r1, r3
 2170 1ef8 FF3003E2 		and	r3, r3, #255
 2171 1efc 906E1FE5 		ldr	r6, .L267+232
 2172 1f00 0030C5E5 		strb	r3, [r5, #0]
 2173 1f04 023083E0 		add	r3, r3, r2
 2174 1f08 0030C4E5 		strb	r3, [r4, #0]
 2175 1f0c 9C0E1FE5 		ldr	r0, .L267+236
 2176 1f10 FEFFFFEB 		bl	uart_transmit
 2177 1f14 0010D6E5 		ldrb	r1, [r6, #0]	@ zero_extendqisi2
 2178 1f18 0030D5E5 		ldrb	r3, [r5, #0]	@ zero_extendqisi2
 2179 1f1c 0020D4E5 		ldrb	r2, [r4, #0]	@ zero_extendqisi2
 2180 1f20 033081E0 		add	r3, r1, r3
 2181 1f24 FF3003E2 		and	r3, r3, #255
 2182 1f28 0030C5E5 		strb	r3, [r5, #0]
 2183 1f2c 023083E0 		add	r3, r3, r2
 2184 1f30 0030C4E5 		strb	r3, [r4, #0]
 2185 1f34 C40E1FE5 		ldr	r0, .L267+236
 2186 1f38 FEFFFFEB 		bl	uart_transmit
 2187 1f3c 0110D6E5 		ldrb	r1, [r6, #1]	@ zero_extendqisi2
 2188 1f40 0030D5E5 		ldrb	r3, [r5, #0]	@ zero_extendqisi2
 2189 1f44 0020D4E5 		ldrb	r2, [r4, #0]	@ zero_extendqisi2
 2190 1f48 033081E0 		add	r3, r1, r3
 2191 1f4c FF3003E2 		and	r3, r3, #255
 2192 1f50 0030C5E5 		strb	r3, [r5, #0]
 2193 1f54 023083E0 		add	r3, r3, r2
 2194 1f58 0030C4E5 		strb	r3, [r4, #0]
 2195 1f5c EC0E1FE5 		ldr	r0, .L267+236
 2196 1f60 FEFFFFEB 		bl	uart_transmit
 2197 1f64 0210D6E5 		ldrb	r1, [r6, #2]	@ zero_extendqisi2
 2198 1f68 0030D5E5 		ldrb	r3, [r5, #0]	@ zero_extendqisi2
 2199 1f6c 0020D4E5 		ldrb	r2, [r4, #0]	@ zero_extendqisi2
 2200 1f70 033081E0 		add	r3, r1, r3
 2201 1f74 FF3003E2 		and	r3, r3, #255
 2202 1f78 0030C5E5 		strb	r3, [r5, #0]
 2203 1f7c 023083E0 		add	r3, r3, r2
 2204 1f80 0030C4E5 		strb	r3, [r4, #0]
 2205 1f84 140F1FE5 		ldr	r0, .L267+236
 2206 1f88 FEFFFFEB 		bl	uart_transmit
 2207 1f8c 0310D6E5 		ldrb	r1, [r6, #3]	@ zero_extendqisi2
 2208 1f90 0030D5E5 		ldrb	r3, [r5, #0]	@ zero_extendqisi2
 2209 1f94 0020D4E5 		ldrb	r2, [r4, #0]	@ zero_extendqisi2
 2210 1f98 033081E0 		add	r3, r1, r3
 2211 1f9c FF3003E2 		and	r3, r3, #255
 2212 1fa0 0030C5E5 		strb	r3, [r5, #0]
 2213 1fa4 023083E0 		add	r3, r3, r2
 2214 1fa8 0030C4E5 		strb	r3, [r4, #0]
 2215 1fac 3C0F1FE5 		ldr	r0, .L267+236
 2216 1fb0 FEFFFFEB 		bl	uart_transmit
 2217 1fb4 0410DDE5 		ldrb	r1, [sp, #4]	@ zero_extendqisi2
 2218 1fb8 0030D5E5 		ldrb	r3, [r5, #0]	@ zero_extendqisi2
 2219 1fbc 0020D4E5 		ldrb	r2, [r4, #0]	@ zero_extendqisi2
 2220 1fc0 033081E0 		add	r3, r1, r3
 2221 1fc4 FF3003E2 		and	r3, r3, #255
 2222 1fc8 0030C5E5 		strb	r3, [r5, #0]
 2223 1fcc 023083E0 		add	r3, r3, r2
 2224 1fd0 0030C4E5 		strb	r3, [r4, #0]
 2225 1fd4 640F1FE5 		ldr	r0, .L267+236
 2226 1fd8 FEFFFFEB 		bl	uart_transmit
 2227 1fdc 0510DDE5 		ldrb	r1, [sp, #5]	@ zero_extendqisi2
 2228 1fe0 0030D5E5 		ldrb	r3, [r5, #0]	@ zero_extendqisi2
 2229 1fe4 0020D4E5 		ldrb	r2, [r4, #0]	@ zero_extendqisi2
 2230 1fe8 033081E0 		add	r3, r1, r3
 2231 1fec FF3003E2 		and	r3, r3, #255
 2232 1ff0 0030C5E5 		strb	r3, [r5, #0]
 2233 1ff4 023083E0 		add	r3, r3, r2
 2234 1ff8 0030C4E5 		strb	r3, [r4, #0]
 2235 1ffc 8C0F1FE5 		ldr	r0, .L267+236
 2236 2000 FEFFFFEB 		bl	uart_transmit
 2237 2004 0610DDE5 		ldrb	r1, [sp, #6]	@ zero_extendqisi2
 2238 2008 0030D5E5 		ldrb	r3, [r5, #0]	@ zero_extendqisi2
 2239 200c 0020D4E5 		ldrb	r2, [r4, #0]	@ zero_extendqisi2
 2240 2010 033081E0 		add	r3, r1, r3
 2241 2014 FF3003E2 		and	r3, r3, #255
 2242 2018 0030C5E5 		strb	r3, [r5, #0]
 2243 201c 023083E0 		add	r3, r3, r2
 2244 2020 0030C4E5 		strb	r3, [r4, #0]
 2245 2024 B40F1FE5 		ldr	r0, .L267+236
 2246 2028 FEFFFFEB 		bl	uart_transmit
 2247 202c 0710DDE5 		ldrb	r1, [sp, #7]	@ zero_extendqisi2
 2248              	.L245:
 2249 2030 0030D5E5 		ldrb	r3, [r5, #0]	@ zero_extendqisi2
 2250 2034 0020D4E5 		ldrb	r2, [r4, #0]	@ zero_extendqisi2
 2251 2038 033081E0 		add	r3, r1, r3
 2252 203c FF3003E2 		and	r3, r3, #255
 2253 2040 0030C5E5 		strb	r3, [r5, #0]
 2254 2044 023083E0 		add	r3, r3, r2
 2255 2048 0030C4E5 		strb	r3, [r4, #0]
 2256 204c DC0F1FE5 		ldr	r0, .L267+236
 2257 2050 FEFFFFEB 		bl	uart_transmit
 2258 2054 0010D5E5 		ldrb	r1, [r5, #0]	@ zero_extendqisi2
 2259 2058 E80F1FE5 		ldr	r0, .L267+236
 2260 205c FEFFFFEB 		bl	uart_transmit
 2261 2060 F00F1FE5 		ldr	r0, .L267+236
 2262 2064 0010D4E5 		ldrb	r1, [r4, #0]	@ zero_extendqisi2
 2263 2068 FEFFFFEB 		bl	uart_transmit
 2264 206c 030000EA 		b	.L53
 2265              	.L55:
 2266 2070 C03F9FE5 		ldr	r3, .L269+144
 2267 2074 0020D3E5 		ldrb	r2, [r3, #0]	@ zero_extendqisi2
 2268 2078 012082E2 		add	r2, r2, #1
 2269 207c 0020C3E5 		strb	r2, [r3, #0]
 2270              	.L53:
 2271 2080 203F9FE5 		ldr	r3, .L269
 2272 2084 0030D3E5 		ldrb	r3, [r3, #0]	@ zero_extendqisi2
 2273 2088 3C0053E3 		cmp	r3, #60
 2274 208c CB00001A 		bne	.L56
 2275 2090 983F9FE5 		ldr	r3, .L269+136
 2276 2094 0A10A0E3 		mov	r1, #10
 2277 2098 000093E5 		ldr	r0, [r3, #0]
 2278 209c FEFFFFEB 		bl	__aeabi_idiv
 2279 20a0 7C3F9FE5 		ldr	r3, .L269+124
 2280 20a4 BE00CDE1 		strh	r0, [sp, #14]	@ movhi
 2281 20a8 000093E5 		ldr	r0, [r3, #0]	@ float
 2282 20ac FEFFFFEB 		bl	__aeabi_f2iz
 2283 20b0 1410A0E3 		mov	r1, #20
 2284 20b4 BC00CDE1 		strh	r0, [sp, #12]	@ movhi
 2285 20b8 CC0F9FE5 		ldr	r0, .L269+228
 2286 20bc FEFFFFEB 		bl	uart_check_free_space
 2287 20c0 000050E3 		cmp	r0, #0
 2288 20c4 B900000A 		beq	.L57
 2289 20c8 A03F9FE5 		ldr	r3, .L269+200
 2290 20cc B020D3E1 		ldrh	r2, [r3, #0]
 2291 20d0 142082E2 		add	r2, r2, #20
 2292 20d4 B020C3E1 		strh	r2, [r3, #0]	@ movhi
 2293 20d8 943F9FE5 		ldr	r3, .L269+204
 2294 20dc B020D3E1 		ldrh	r2, [r3, #0]
 2295 20e0 012082E2 		add	r2, r2, #1
 2296 20e4 B020C3E1 		strh	r2, [r3, #0]	@ movhi
 2297 20e8 9C0F9FE5 		ldr	r0, .L269+228
 2298 20ec 9910A0E3 		mov	r1, #153
 2299 20f0 805F9FE5 		ldr	r5, .L269+208
 2300 20f4 FEFFFFEB 		bl	uart_transmit
 2301 20f8 8C0F9FE5 		ldr	r0, .L269+228
 2302 20fc 1410A0E3 		mov	r1, #20
 2303 2100 744F9FE5 		ldr	r4, .L269+212
 2304 2104 FEFFFFEB 		bl	uart_transmit
 2305 2108 1530A0E3 		mov	r3, #21
 2306 210c 0030C5E5 		strb	r3, [r5, #0]
 2307 2110 2930A0E3 		mov	r3, #41
 2308 2114 0030C4E5 		strb	r3, [r4, #0]
 2309 2118 6C0F9FE5 		ldr	r0, .L269+228
 2310 211c 0110A0E3 		mov	r1, #1
 2311 2120 FEFFFFEB 		bl	uart_transmit
 2312 2124 0030D5E5 		ldrb	r3, [r5, #0]	@ zero_extendqisi2
 2313 2128 0020D4E5 		ldrb	r2, [r4, #0]	@ zero_extendqisi2
 2314 212c 0C3083E2 		add	r3, r3, #12
 2315 2130 FF3003E2 		and	r3, r3, #255
 2316 2134 0030C5E5 		strb	r3, [r5, #0]
 2317 2138 6C6E9FE5 		ldr	r6, .L269+4
 2318 213c 023083E0 		add	r3, r3, r2
 2319 2140 0030C4E5 		strb	r3, [r4, #0]
 2320 2144 400F9FE5 		ldr	r0, .L269+228
 2321 2148 0C10A0E3 		mov	r1, #12
 2322 214c FEFFFFEB 		bl	uart_transmit
 2323 2150 0010D6E5 		ldrb	r1, [r6, #0]	@ zero_extendqisi2
 2324 2154 0030D5E5 		ldrb	r3, [r5, #0]	@ zero_extendqisi2
 2325 2158 0020D4E5 		ldrb	r2, [r4, #0]	@ zero_extendqisi2
 2326 215c 033081E0 		add	r3, r1, r3
 2327 2160 FF3003E2 		and	r3, r3, #255
 2328 2164 0030C5E5 		strb	r3, [r5, #0]
 2329 2168 023083E0 		add	r3, r3, r2
 2330 216c 0030C4E5 		strb	r3, [r4, #0]
 2331 2170 140F9FE5 		ldr	r0, .L269+228
 2332 2174 FEFFFFEB 		bl	uart_transmit
 2333 2178 0110D6E5 		ldrb	r1, [r6, #1]	@ zero_extendqisi2
 2334 217c 0030D5E5 		ldrb	r3, [r5, #0]	@ zero_extendqisi2
 2335 2180 0020D4E5 		ldrb	r2, [r4, #0]	@ zero_extendqisi2
 2336 2184 033081E0 		add	r3, r1, r3
 2337 2188 FF3003E2 		and	r3, r3, #255
 2338 218c 0030C5E5 		strb	r3, [r5, #0]
 2339 2190 023083E0 		add	r3, r3, r2
 2340 2194 0030C4E5 		strb	r3, [r4, #0]
 2341 2198 EC0E9FE5 		ldr	r0, .L269+228
 2342 219c FEFFFFEB 		bl	uart_transmit
 2343 21a0 803E9FE5 		ldr	r3, .L269+128
 2344 21a4 0010D3E5 		ldrb	r1, [r3, #0]	@ zero_extendqisi2
 2345 21a8 0030D5E5 		ldrb	r3, [r5, #0]	@ zero_extendqisi2
 2346 21ac 0020D4E5 		ldrb	r2, [r4, #0]	@ zero_extendqisi2
 2347 21b0 033081E0 		add	r3, r1, r3
 2348 21b4 FF3003E2 		and	r3, r3, #255
 2349 21b8 0030C5E5 		strb	r3, [r5, #0]
 2350 21bc 023083E0 		add	r3, r3, r2
 2351 21c0 0030C4E5 		strb	r3, [r4, #0]
 2352 21c4 C00E9FE5 		ldr	r0, .L269+228
 2353 21c8 FEFFFFEB 		bl	uart_transmit
 2354 21cc 0E10DDE5 		ldrb	r1, [sp, #14]	@ zero_extendqisi2
 2355 21d0 0030D5E5 		ldrb	r3, [r5, #0]	@ zero_extendqisi2
 2356 21d4 0020D4E5 		ldrb	r2, [r4, #0]	@ zero_extendqisi2
 2357 21d8 033081E0 		add	r3, r1, r3
 2358 21dc FF3003E2 		and	r3, r3, #255
 2359 21e0 0030C5E5 		strb	r3, [r5, #0]
 2360 21e4 023083E0 		add	r3, r3, r2
 2361 21e8 0030C4E5 		strb	r3, [r4, #0]
 2362 21ec 980E9FE5 		ldr	r0, .L269+228
 2363 21f0 FEFFFFEB 		bl	uart_transmit
 2364 21f4 0F10DDE5 		ldrb	r1, [sp, #15]	@ zero_extendqisi2
 2365 21f8 0030D5E5 		ldrb	r3, [r5, #0]	@ zero_extendqisi2
 2366 21fc 0020D4E5 		ldrb	r2, [r4, #0]	@ zero_extendqisi2
 2367 2200 033081E0 		add	r3, r1, r3
 2368 2204 FF3003E2 		and	r3, r3, #255
 2369 2208 0030C5E5 		strb	r3, [r5, #0]
 2370 220c 9C6D9FE5 		ldr	r6, .L269+8
 2371 2210 023083E0 		add	r3, r3, r2
 2372 2214 0030C4E5 		strb	r3, [r4, #0]
 2373 2218 6C0E9FE5 		ldr	r0, .L269+228
 2374 221c FEFFFFEB 		bl	uart_transmit
 2375 2220 0010D6E5 		ldrb	r1, [r6, #0]	@ zero_extendqisi2
 2376 2224 0030D5E5 		ldrb	r3, [r5, #0]	@ zero_extendqisi2
 2377 2228 0020D4E5 		ldrb	r2, [r4, #0]	@ zero_extendqisi2
 2378 222c 033081E0 		add	r3, r1, r3
 2379 2230 FF3003E2 		and	r3, r3, #255
 2380 2234 0030C5E5 		strb	r3, [r5, #0]
 2381 2238 023083E0 		add	r3, r3, r2
 2382 223c 0030C4E5 		strb	r3, [r4, #0]
 2383 2240 440E9FE5 		ldr	r0, .L269+228
 2384 2244 FEFFFFEB 		bl	uart_transmit
 2385 2248 0110D6E5 		ldrb	r1, [r6, #1]	@ zero_extendqisi2
 2386 224c 0030D5E5 		ldrb	r3, [r5, #0]	@ zero_extendqisi2
 2387 2250 0020D4E5 		ldrb	r2, [r4, #0]	@ zero_extendqisi2
 2388 2254 033081E0 		add	r3, r1, r3
 2389 2258 FF3003E2 		and	r3, r3, #255
 2390 225c 0030C5E5 		strb	r3, [r5, #0]
 2391 2260 023083E0 		add	r3, r3, r2
 2392 2264 0030C4E5 		strb	r3, [r4, #0]
 2393 2268 1C0E9FE5 		ldr	r0, .L269+228
 2394 226c FEFFFFEB 		bl	uart_transmit
 2395 2270 3C3D9FE5 		ldr	r3, .L269+12
 2396 2274 0010D3E5 		ldrb	r1, [r3, #0]	@ zero_extendqisi2
 2397 2278 0030D5E5 		ldrb	r3, [r5, #0]	@ zero_extendqisi2
 2398 227c 0020D4E5 		ldrb	r2, [r4, #0]	@ zero_extendqisi2
 2399 2280 033081E0 		add	r3, r1, r3
 2400 2284 FF3003E2 		and	r3, r3, #255
 2401 2288 0030C5E5 		strb	r3, [r5, #0]
 2402 228c 246D9FE5 		ldr	r6, .L269+16
 2403 2290 023083E0 		add	r3, r3, r2
 2404 2294 0030C4E5 		strb	r3, [r4, #0]
 2405 2298 EC0D9FE5 		ldr	r0, .L269+228
 2406 229c FEFFFFEB 		bl	uart_transmit
 2407 22a0 0010D6E5 		ldrb	r1, [r6, #0]	@ zero_extendqisi2
 2408 22a4 0030D5E5 		ldrb	r3, [r5, #0]	@ zero_extendqisi2
 2409 22a8 0020D4E5 		ldrb	r2, [r4, #0]	@ zero_extendqisi2
 2410 22ac 033081E0 		add	r3, r1, r3
 2411 22b0 FF3003E2 		and	r3, r3, #255
 2412 22b4 0030C5E5 		strb	r3, [r5, #0]
 2413 22b8 023083E0 		add	r3, r3, r2
 2414 22bc 0030C4E5 		strb	r3, [r4, #0]
 2415 22c0 C40D9FE5 		ldr	r0, .L269+228
 2416 22c4 FEFFFFEB 		bl	uart_transmit
 2417 22c8 0110D6E5 		ldrb	r1, [r6, #1]	@ zero_extendqisi2
 2418 22cc 0030D5E5 		ldrb	r3, [r5, #0]	@ zero_extendqisi2
 2419 22d0 0020D4E5 		ldrb	r2, [r4, #0]	@ zero_extendqisi2
 2420 22d4 033081E0 		add	r3, r1, r3
 2421 22d8 FF3003E2 		and	r3, r3, #255
 2422 22dc 0030C5E5 		strb	r3, [r5, #0]
 2423 22e0 D46C9FE5 		ldr	r6, .L269+20
 2424 22e4 023083E0 		add	r3, r3, r2
 2425 22e8 0030C4E5 		strb	r3, [r4, #0]
 2426 22ec 980D9FE5 		ldr	r0, .L269+228
 2427 22f0 FEFFFFEB 		bl	uart_transmit
 2428 22f4 0010D6E5 		ldrb	r1, [r6, #0]	@ zero_extendqisi2
 2429 22f8 0030D5E5 		ldrb	r3, [r5, #0]	@ zero_extendqisi2
 2430 22fc 0020D4E5 		ldrb	r2, [r4, #0]	@ zero_extendqisi2
 2431 2300 033081E0 		add	r3, r1, r3
 2432 2304 FF3003E2 		and	r3, r3, #255
 2433 2308 0030C5E5 		strb	r3, [r5, #0]
 2434 230c 023083E0 		add	r3, r3, r2
 2435 2310 0030C4E5 		strb	r3, [r4, #0]
 2436 2314 700D9FE5 		ldr	r0, .L269+228
 2437 2318 FEFFFFEB 		bl	uart_transmit
 2438 231c 0110D6E5 		ldrb	r1, [r6, #1]	@ zero_extendqisi2
 2439 2320 0030D5E5 		ldrb	r3, [r5, #0]	@ zero_extendqisi2
 2440 2324 0020D4E5 		ldrb	r2, [r4, #0]	@ zero_extendqisi2
 2441 2328 033081E0 		add	r3, r1, r3
 2442 232c FF3003E2 		and	r3, r3, #255
 2443 2330 0030C5E5 		strb	r3, [r5, #0]
 2444 2334 023083E0 		add	r3, r3, r2
 2445 2338 0030C4E5 		strb	r3, [r4, #0]
 2446 233c 480D9FE5 		ldr	r0, .L269+228
 2447 2340 FEFFFFEB 		bl	uart_transmit
 2448 2344 0C10DDE5 		ldrb	r1, [sp, #12]	@ zero_extendqisi2
 2449 2348 0030D5E5 		ldrb	r3, [r5, #0]	@ zero_extendqisi2
 2450 234c 0020D4E5 		ldrb	r2, [r4, #0]	@ zero_extendqisi2
 2451 2350 033081E0 		add	r3, r1, r3
 2452 2354 FF3003E2 		and	r3, r3, #255
 2453 2358 0030C5E5 		strb	r3, [r5, #0]
 2454 235c 023083E0 		add	r3, r3, r2
 2455 2360 0030C4E5 		strb	r3, [r4, #0]
 2456 2364 200D9FE5 		ldr	r0, .L269+228
 2457 2368 FEFFFFEB 		bl	uart_transmit
 2458 236c 0D10DDE5 		ldrb	r1, [sp, #13]	@ zero_extendqisi2
 2459 2370 0030D5E5 		ldrb	r3, [r5, #0]	@ zero_extendqisi2
 2460 2374 0020D4E5 		ldrb	r2, [r4, #0]	@ zero_extendqisi2
 2461 2378 033081E0 		add	r3, r1, r3
 2462 237c FF3003E2 		and	r3, r3, #255
 2463 2380 0030C5E5 		strb	r3, [r5, #0]
 2464 2384 023083E0 		add	r3, r3, r2
 2465 2388 0030C4E5 		strb	r3, [r4, #0]
 2466 238c F80C9FE5 		ldr	r0, .L269+228
 2467 2390 FEFFFFEB 		bl	uart_transmit
 2468 2394 0010D5E5 		ldrb	r1, [r5, #0]	@ zero_extendqisi2
 2469 2398 EC0C9FE5 		ldr	r0, .L269+228
 2470 239c FEFFFFEB 		bl	uart_transmit
 2471 23a0 E40C9FE5 		ldr	r0, .L269+228
 2472 23a4 0010D4E5 		ldrb	r1, [r4, #0]	@ zero_extendqisi2
 2473 23a8 FEFFFFEB 		bl	uart_transmit
 2474 23ac 030000EA 		b	.L56
 2475              	.L57:
 2476 23b0 803C9FE5 		ldr	r3, .L269+144
 2477 23b4 0020D3E5 		ldrb	r2, [r3, #0]	@ zero_extendqisi2
 2478 23b8 012082E2 		add	r2, r2, #1
 2479 23bc 0020C3E5 		strb	r2, [r3, #0]
 2480              	.L56:
 2481 23c0 F83B9FE5 		ldr	r3, .L269+24
 2482 23c4 0030D3E5 		ldrb	r3, [r3, #0]	@ zero_extendqisi2
 2483 23c8 060053E3 		cmp	r3, #6
 2484 23cc C500001A 		bne	.L58
 2485 23d0 EC3B9FE5 		ldr	r3, .L269+28
 2486 23d4 0030D3E5 		ldrb	r3, [r3, #0]	@ zero_extendqisi2
 2487 23d8 000053E3 		cmp	r3, #0
 2488 23dc 5901000A 		beq	.L59
 2489 23e0 A40C9FE5 		ldr	r0, .L269+228
 2490 23e4 1610A0E3 		mov	r1, #22
 2491 23e8 FEFFFFEB 		bl	uart_check_free_space
 2492 23ec 000050E3 		cmp	r0, #0
 2493 23f0 5001000A 		beq	.L61
 2494 23f4 743C9FE5 		ldr	r3, .L269+200
 2495 23f8 B020D3E1 		ldrh	r2, [r3, #0]
 2496 23fc 162082E2 		add	r2, r2, #22
 2497 2400 B020C3E1 		strh	r2, [r3, #0]	@ movhi
 2498 2404 683C9FE5 		ldr	r3, .L269+204
 2499 2408 B020D3E1 		ldrh	r2, [r3, #0]
 2500 240c 012082E2 		add	r2, r2, #1
 2501 2410 B020C3E1 		strh	r2, [r3, #0]	@ movhi
 2502 2414 700C9FE5 		ldr	r0, .L269+228
 2503 2418 9910A0E3 		mov	r1, #153
 2504 241c 545C9FE5 		ldr	r5, .L269+208
 2505 2420 FEFFFFEB 		bl	uart_transmit
 2506 2424 600C9FE5 		ldr	r0, .L269+228
 2507 2428 1610A0E3 		mov	r1, #22
 2508 242c 484C9FE5 		ldr	r4, .L269+212
 2509 2430 FEFFFFEB 		bl	uart_transmit
 2510 2434 1730A0E3 		mov	r3, #23
 2511 2438 0030C5E5 		strb	r3, [r5, #0]
 2512 243c 2D30A0E3 		mov	r3, #45
 2513 2440 0030C4E5 		strb	r3, [r4, #0]
 2514 2444 400C9FE5 		ldr	r0, .L269+228
 2515 2448 0110A0E3 		mov	r1, #1
 2516 244c FEFFFFEB 		bl	uart_transmit
 2517 2450 0030D5E5 		ldrb	r3, [r5, #0]	@ zero_extendqisi2
 2518 2454 0020D4E5 		ldrb	r2, [r4, #0]	@ zero_extendqisi2
 2519 2458 163083E2 		add	r3, r3, #22
 2520 245c FF3003E2 		and	r3, r3, #255
 2521 2460 606B9FE5 		ldr	r6, .L269+32
 2522 2464 0030C5E5 		strb	r3, [r5, #0]
 2523 2468 023083E0 		add	r3, r3, r2
 2524 246c 0030C4E5 		strb	r3, [r4, #0]
 2525 2470 140C9FE5 		ldr	r0, .L269+228
 2526 2474 1610A0E3 		mov	r1, #22
 2527 2478 FEFFFFEB 		bl	uart_transmit
 2528 247c 0010D6E5 		ldrb	r1, [r6, #0]	@ zero_extendqisi2
 2529 2480 0030D5E5 		ldrb	r3, [r5, #0]	@ zero_extendqisi2
 2530 2484 0020D4E5 		ldrb	r2, [r4, #0]	@ zero_extendqisi2
 2531 2488 033081E0 		add	r3, r1, r3
 2532 248c FF3003E2 		and	r3, r3, #255
 2533 2490 0030C5E5 		strb	r3, [r5, #0]
 2534 2494 023083E0 		add	r3, r3, r2
 2535 2498 0030C4E5 		strb	r3, [r4, #0]
 2536 249c E80B9FE5 		ldr	r0, .L269+228
 2537 24a0 FEFFFFEB 		bl	uart_transmit
 2538 24a4 0110D6E5 		ldrb	r1, [r6, #1]	@ zero_extendqisi2
 2539 24a8 0030D5E5 		ldrb	r3, [r5, #0]	@ zero_extendqisi2
 2540 24ac 0020D4E5 		ldrb	r2, [r4, #0]	@ zero_extendqisi2
 2541 24b0 033081E0 		add	r3, r1, r3
 2542 24b4 FF3003E2 		and	r3, r3, #255
 2543 24b8 0030C5E5 		strb	r3, [r5, #0]
 2544 24bc 023083E0 		add	r3, r3, r2
 2545 24c0 0030C4E5 		strb	r3, [r4, #0]
 2546 24c4 C00B9FE5 		ldr	r0, .L269+228
 2547 24c8 FEFFFFEB 		bl	uart_transmit
 2548 24cc 0210D6E5 		ldrb	r1, [r6, #2]	@ zero_extendqisi2
 2549 24d0 0030D5E5 		ldrb	r3, [r5, #0]	@ zero_extendqisi2
 2550 24d4 0020D4E5 		ldrb	r2, [r4, #0]	@ zero_extendqisi2
 2551 24d8 033081E0 		add	r3, r1, r3
 2552 24dc FF3003E2 		and	r3, r3, #255
 2553 24e0 0030C5E5 		strb	r3, [r5, #0]
 2554 24e4 023083E0 		add	r3, r3, r2
 2555 24e8 0030C4E5 		strb	r3, [r4, #0]
 2556 24ec 980B9FE5 		ldr	r0, .L269+228
 2557 24f0 FEFFFFEB 		bl	uart_transmit
 2558 24f4 0310D6E5 		ldrb	r1, [r6, #3]	@ zero_extendqisi2
 2559 24f8 0030D5E5 		ldrb	r3, [r5, #0]	@ zero_extendqisi2
 2560 24fc 0020D4E5 		ldrb	r2, [r4, #0]	@ zero_extendqisi2
 2561 2500 033081E0 		add	r3, r1, r3
 2562 2504 FF3003E2 		and	r3, r3, #255
 2563 2508 BC6A9FE5 		ldr	r6, .L269+36
 2564 250c 0030C5E5 		strb	r3, [r5, #0]
 2565 2510 023083E0 		add	r3, r3, r2
 2566 2514 0030C4E5 		strb	r3, [r4, #0]
 2567 2518 6C0B9FE5 		ldr	r0, .L269+228
 2568 251c FEFFFFEB 		bl	uart_transmit
 2569 2520 0010D6E5 		ldrb	r1, [r6, #0]	@ zero_extendqisi2
 2570 2524 0030D5E5 		ldrb	r3, [r5, #0]	@ zero_extendqisi2
 2571 2528 0020D4E5 		ldrb	r2, [r4, #0]	@ zero_extendqisi2
 2572 252c 033081E0 		add	r3, r1, r3
 2573 2530 FF3003E2 		and	r3, r3, #255
 2574 2534 0030C5E5 		strb	r3, [r5, #0]
 2575 2538 023083E0 		add	r3, r3, r2
 2576 253c 0030C4E5 		strb	r3, [r4, #0]
 2577 2540 440B9FE5 		ldr	r0, .L269+228
 2578 2544 FEFFFFEB 		bl	uart_transmit
 2579 2548 0110D6E5 		ldrb	r1, [r6, #1]	@ zero_extendqisi2
 2580 254c 0030D5E5 		ldrb	r3, [r5, #0]	@ zero_extendqisi2
 2581 2550 0020D4E5 		ldrb	r2, [r4, #0]	@ zero_extendqisi2
 2582 2554 033081E0 		add	r3, r1, r3
 2583 2558 FF3003E2 		and	r3, r3, #255
 2584 255c 0030C5E5 		strb	r3, [r5, #0]
 2585 2560 023083E0 		add	r3, r3, r2
 2586 2564 0030C4E5 		strb	r3, [r4, #0]
 2587 2568 1C0B9FE5 		ldr	r0, .L269+228
 2588 256c FEFFFFEB 		bl	uart_transmit
 2589 2570 0210D6E5 		ldrb	r1, [r6, #2]	@ zero_extendqisi2
 2590 2574 0030D5E5 		ldrb	r3, [r5, #0]	@ zero_extendqisi2
 2591 2578 0020D4E5 		ldrb	r2, [r4, #0]	@ zero_extendqisi2
 2592 257c 033081E0 		add	r3, r1, r3
 2593 2580 FF3003E2 		and	r3, r3, #255
 2594 2584 0030C5E5 		strb	r3, [r5, #0]
 2595 2588 023083E0 		add	r3, r3, r2
 2596 258c 0030C4E5 		strb	r3, [r4, #0]
 2597 2590 F40A9FE5 		ldr	r0, .L269+228
 2598 2594 FEFFFFEB 		bl	uart_transmit
 2599 2598 0310D6E5 		ldrb	r1, [r6, #3]	@ zero_extendqisi2
 2600 259c 0030D5E5 		ldrb	r3, [r5, #0]	@ zero_extendqisi2
 2601 25a0 0020D4E5 		ldrb	r2, [r4, #0]	@ zero_extendqisi2
 2602 25a4 033081E0 		add	r3, r1, r3
 2603 25a8 FF3003E2 		and	r3, r3, #255
 2604 25ac 1C6A9FE5 		ldr	r6, .L269+40
 2605 25b0 0030C5E5 		strb	r3, [r5, #0]
 2606 25b4 023083E0 		add	r3, r3, r2
 2607 25b8 0030C4E5 		strb	r3, [r4, #0]
 2608 25bc C80A9FE5 		ldr	r0, .L269+228
 2609 25c0 FEFFFFEB 		bl	uart_transmit
 2610 25c4 0010D6E5 		ldrb	r1, [r6, #0]	@ zero_extendqisi2
 2611 25c8 0030D5E5 		ldrb	r3, [r5, #0]	@ zero_extendqisi2
 2612 25cc 0020D4E5 		ldrb	r2, [r4, #0]	@ zero_extendqisi2
 2613 25d0 033081E0 		add	r3, r1, r3
 2614 25d4 FF3003E2 		and	r3, r3, #255
 2615 25d8 0030C5E5 		strb	r3, [r5, #0]
 2616 25dc 023083E0 		add	r3, r3, r2
 2617 25e0 0030C4E5 		strb	r3, [r4, #0]
 2618 25e4 A00A9FE5 		ldr	r0, .L269+228
 2619 25e8 FEFFFFEB 		bl	uart_transmit
 2620 25ec 0110D6E5 		ldrb	r1, [r6, #1]	@ zero_extendqisi2
 2621 25f0 0030D5E5 		ldrb	r3, [r5, #0]	@ zero_extendqisi2
 2622 25f4 0020D4E5 		ldrb	r2, [r4, #0]	@ zero_extendqisi2
 2623 25f8 033081E0 		add	r3, r1, r3
 2624 25fc FF3003E2 		and	r3, r3, #255
 2625 2600 0030C5E5 		strb	r3, [r5, #0]
 2626 2604 023083E0 		add	r3, r3, r2
 2627 2608 0030C4E5 		strb	r3, [r4, #0]
 2628 260c 780A9FE5 		ldr	r0, .L269+228
 2629 2610 FEFFFFEB 		bl	uart_transmit
 2630 2614 0210D6E5 		ldrb	r1, [r6, #2]	@ zero_extendqisi2
 2631 2618 0030D5E5 		ldrb	r3, [r5, #0]	@ zero_extendqisi2
 2632 261c 0020D4E5 		ldrb	r2, [r4, #0]	@ zero_extendqisi2
 2633 2620 033081E0 		add	r3, r1, r3
 2634 2624 FF3003E2 		and	r3, r3, #255
 2635 2628 0030C5E5 		strb	r3, [r5, #0]
 2636 262c 023083E0 		add	r3, r3, r2
 2637 2630 0030C4E5 		strb	r3, [r4, #0]
 2638 2634 500A9FE5 		ldr	r0, .L269+228
 2639 2638 FEFFFFEB 		bl	uart_transmit
 2640 263c 0310D6E5 		ldrb	r1, [r6, #3]	@ zero_extendqisi2
 2641 2640 0030D5E5 		ldrb	r3, [r5, #0]	@ zero_extendqisi2
 2642 2644 0020D4E5 		ldrb	r2, [r4, #0]	@ zero_extendqisi2
 2643 2648 033081E0 		add	r3, r1, r3
 2644 264c FF3003E2 		and	r3, r3, #255
 2645 2650 7C699FE5 		ldr	r6, .L269+44
 2646 2654 0030C5E5 		strb	r3, [r5, #0]
 2647 2658 023083E0 		add	r3, r3, r2
 2648 265c 0030C4E5 		strb	r3, [r4, #0]
 2649 2660 240A9FE5 		ldr	r0, .L269+228
 2650 2664 FEFFFFEB 		bl	uart_transmit
 2651 2668 0010D6E5 		ldrb	r1, [r6, #0]	@ zero_extendqisi2
 2652 266c 0030D5E5 		ldrb	r3, [r5, #0]	@ zero_extendqisi2
 2653 2670 0020D4E5 		ldrb	r2, [r4, #0]	@ zero_extendqisi2
 2654 2674 033081E0 		add	r3, r1, r3
 2655 2678 FF3003E2 		and	r3, r3, #255
 2656 267c 0030C5E5 		strb	r3, [r5, #0]
 2657 2680 023083E0 		add	r3, r3, r2
 2658 2684 0030C4E5 		strb	r3, [r4, #0]
 2659 2688 FC099FE5 		ldr	r0, .L269+228
 2660 268c FEFFFFEB 		bl	uart_transmit
 2661 2690 0110D6E5 		ldrb	r1, [r6, #1]	@ zero_extendqisi2
 2662 2694 0030D5E5 		ldrb	r3, [r5, #0]	@ zero_extendqisi2
 2663 2698 0020D4E5 		ldrb	r2, [r4, #0]	@ zero_extendqisi2
 2664 269c 033081E0 		add	r3, r1, r3
 2665 26a0 FF3003E2 		and	r3, r3, #255
 2666 26a4 0030C5E5 		strb	r3, [r5, #0]
 2667 26a8 023083E0 		add	r3, r3, r2
 2668 26ac 0030C4E5 		strb	r3, [r4, #0]
 2669 26b0 D4099FE5 		ldr	r0, .L269+228
 2670 26b4 FEFFFFEB 		bl	uart_transmit
 2671 26b8 0210D6E5 		ldrb	r1, [r6, #2]	@ zero_extendqisi2
 2672 26bc 0030D5E5 		ldrb	r3, [r5, #0]	@ zero_extendqisi2
 2673 26c0 0020D4E5 		ldrb	r2, [r4, #0]	@ zero_extendqisi2
 2674 26c4 033081E0 		add	r3, r1, r3
 2675 26c8 FF3003E2 		and	r3, r3, #255
 2676 26cc 0030C5E5 		strb	r3, [r5, #0]
 2677 26d0 023083E0 		add	r3, r3, r2
 2678 26d4 0030C4E5 		strb	r3, [r4, #0]
 2679 26d8 AC099FE5 		ldr	r0, .L269+228
 2680 26dc FEFFFFEB 		bl	uart_transmit
 2681 26e0 0310D6E5 		ldrb	r1, [r6, #3]	@ zero_extendqisi2
 2682 26e4 830000EA 		b	.L246
 2683              	.L58:
 2684 26e8 0C0053E3 		cmp	r3, #12
 2685 26ec 9500001A 		bne	.L59
 2686 26f0 94099FE5 		ldr	r0, .L269+228
 2687 26f4 1010A0E3 		mov	r1, #16
 2688 26f8 FEFFFFEB 		bl	uart_check_free_space
 2689 26fc 000050E3 		cmp	r0, #0
 2690 2700 8C00000A 		beq	.L61
 2691 2704 64399FE5 		ldr	r3, .L269+200
 2692 2708 B020D3E1 		ldrh	r2, [r3, #0]
 2693 270c 102082E2 		add	r2, r2, #16
 2694 2710 B020C3E1 		strh	r2, [r3, #0]	@ movhi
 2695 2714 58399FE5 		ldr	r3, .L269+204
 2696 2718 B020D3E1 		ldrh	r2, [r3, #0]
 2697 271c 012082E2 		add	r2, r2, #1
 2698 2720 B020C3E1 		strh	r2, [r3, #0]	@ movhi
 2699 2724 60099FE5 		ldr	r0, .L269+228
 2700 2728 9910A0E3 		mov	r1, #153
 2701 272c 44599FE5 		ldr	r5, .L269+208
 2702 2730 FEFFFFEB 		bl	uart_transmit
 2703 2734 50099FE5 		ldr	r0, .L269+228
 2704 2738 1010A0E3 		mov	r1, #16
 2705 273c 38499FE5 		ldr	r4, .L269+212
 2706 2740 FEFFFFEB 		bl	uart_transmit
 2707 2744 1130A0E3 		mov	r3, #17
 2708 2748 0030C5E5 		strb	r3, [r5, #0]
 2709 274c 2130A0E3 		mov	r3, #33
 2710 2750 0030C4E5 		strb	r3, [r4, #0]
 2711 2754 30099FE5 		ldr	r0, .L269+228
 2712 2758 0110A0E3 		mov	r1, #1
 2713 275c FEFFFFEB 		bl	uart_transmit
 2714 2760 0030D5E5 		ldrb	r3, [r5, #0]	@ zero_extendqisi2
 2715 2764 0020D4E5 		ldrb	r2, [r4, #0]	@ zero_extendqisi2
 2716 2768 073083E2 		add	r3, r3, #7
 2717 276c FF3003E2 		and	r3, r3, #255
 2718 2770 E0689FE5 		ldr	r6, .L269+176
 2719 2774 0030C5E5 		strb	r3, [r5, #0]
 2720 2778 023083E0 		add	r3, r3, r2
 2721 277c 0030C4E5 		strb	r3, [r4, #0]
 2722 2780 04099FE5 		ldr	r0, .L269+228
 2723 2784 0710A0E3 		mov	r1, #7
 2724 2788 FEFFFFEB 		bl	uart_transmit
 2725 278c 0010D6E5 		ldrb	r1, [r6, #0]	@ zero_extendqisi2
 2726 2790 0030D5E5 		ldrb	r3, [r5, #0]	@ zero_extendqisi2
 2727 2794 0020D4E5 		ldrb	r2, [r4, #0]	@ zero_extendqisi2
 2728 2798 033081E0 		add	r3, r1, r3
 2729 279c FF3003E2 		and	r3, r3, #255
 2730 27a0 0030C5E5 		strb	r3, [r5, #0]
 2731 27a4 023083E0 		add	r3, r3, r2
 2732 27a8 0030C4E5 		strb	r3, [r4, #0]
 2733 27ac D8089FE5 		ldr	r0, .L269+228
 2734 27b0 FEFFFFEB 		bl	uart_transmit
 2735 27b4 0110D6E5 		ldrb	r1, [r6, #1]	@ zero_extendqisi2
 2736 27b8 0030D5E5 		ldrb	r3, [r5, #0]	@ zero_extendqisi2
 2737 27bc 0020D4E5 		ldrb	r2, [r4, #0]	@ zero_extendqisi2
 2738 27c0 033081E0 		add	r3, r1, r3
 2739 27c4 FF3003E2 		and	r3, r3, #255
 2740 27c8 0030C5E5 		strb	r3, [r5, #0]
 2741 27cc 023083E0 		add	r3, r3, r2
 2742 27d0 0030C4E5 		strb	r3, [r4, #0]
 2743 27d4 B0089FE5 		ldr	r0, .L269+228
 2744 27d8 FEFFFFEB 		bl	uart_transmit
 2745 27dc 0210D6E5 		ldrb	r1, [r6, #2]	@ zero_extendqisi2
 2746 27e0 0030D5E5 		ldrb	r3, [r5, #0]	@ zero_extendqisi2
 2747 27e4 0020D4E5 		ldrb	r2, [r4, #0]	@ zero_extendqisi2
 2748 27e8 033081E0 		add	r3, r1, r3
 2749 27ec FF3003E2 		and	r3, r3, #255
 2750 27f0 0030C5E5 		strb	r3, [r5, #0]
 2751 27f4 023083E0 		add	r3, r3, r2
 2752 27f8 0030C4E5 		strb	r3, [r4, #0]
 2753 27fc 88089FE5 		ldr	r0, .L269+228
 2754 2800 FEFFFFEB 		bl	uart_transmit
 2755 2804 0310D6E5 		ldrb	r1, [r6, #3]	@ zero_extendqisi2
 2756 2808 0030D5E5 		ldrb	r3, [r5, #0]	@ zero_extendqisi2
 2757 280c 0020D4E5 		ldrb	r2, [r4, #0]	@ zero_extendqisi2
 2758 2810 033081E0 		add	r3, r1, r3
 2759 2814 FF3003E2 		and	r3, r3, #255
 2760 2818 0030C5E5 		strb	r3, [r5, #0]
 2761 281c 023083E0 		add	r3, r3, r2
 2762 2820 0030C4E5 		strb	r3, [r4, #0]
 2763 2824 60089FE5 		ldr	r0, .L269+228
 2764 2828 FEFFFFEB 		bl	uart_transmit
 2765 282c 1610D6E5 		ldrb	r1, [r6, #22]	@ zero_extendqisi2
 2766 2830 0030D5E5 		ldrb	r3, [r5, #0]	@ zero_extendqisi2
 2767 2834 0020D4E5 		ldrb	r2, [r4, #0]	@ zero_extendqisi2
 2768 2838 033081E0 		add	r3, r1, r3
 2769 283c FF3003E2 		and	r3, r3, #255
 2770 2840 0030C5E5 		strb	r3, [r5, #0]
 2771 2844 023083E0 		add	r3, r3, r2
 2772 2848 0030C4E5 		strb	r3, [r4, #0]
 2773 284c 38089FE5 		ldr	r0, .L269+228
 2774 2850 FEFFFFEB 		bl	uart_transmit
 2775 2854 1710D6E5 		ldrb	r1, [r6, #23]	@ zero_extendqisi2
 2776 2858 0030D5E5 		ldrb	r3, [r5, #0]	@ zero_extendqisi2
 2777 285c 0020D4E5 		ldrb	r2, [r4, #0]	@ zero_extendqisi2
 2778 2860 033081E0 		add	r3, r1, r3
 2779 2864 FF3003E2 		and	r3, r3, #255
 2780 2868 0030C5E5 		strb	r3, [r5, #0]
 2781 286c 023083E0 		add	r3, r3, r2
 2782 2870 0030C4E5 		strb	r3, [r4, #0]
 2783 2874 10089FE5 		ldr	r0, .L269+228
 2784 2878 FEFFFFEB 		bl	uart_transmit
 2785 287c 1410D6E5 		ldrb	r1, [r6, #20]	@ zero_extendqisi2
 2786 2880 0030D5E5 		ldrb	r3, [r5, #0]	@ zero_extendqisi2
 2787 2884 0020D4E5 		ldrb	r2, [r4, #0]	@ zero_extendqisi2
 2788 2888 033081E0 		add	r3, r1, r3
 2789 288c FF3003E2 		and	r3, r3, #255
 2790 2890 0030C5E5 		strb	r3, [r5, #0]
 2791 2894 023083E0 		add	r3, r3, r2
 2792 2898 0030C4E5 		strb	r3, [r4, #0]
 2793 289c E8079FE5 		ldr	r0, .L269+228
 2794 28a0 FEFFFFEB 		bl	uart_transmit
 2795 28a4 1510D6E5 		ldrb	r1, [r6, #21]	@ zero_extendqisi2
 2796 28a8 0030D5E5 		ldrb	r3, [r5, #0]	@ zero_extendqisi2
 2797 28ac 0020D4E5 		ldrb	r2, [r4, #0]	@ zero_extendqisi2
 2798 28b0 033081E0 		add	r3, r1, r3
 2799 28b4 FF3003E2 		and	r3, r3, #255
 2800 28b8 0030C5E5 		strb	r3, [r5, #0]
 2801 28bc 023083E0 		add	r3, r3, r2
 2802 28c0 0030C4E5 		strb	r3, [r4, #0]
 2803 28c4 C0079FE5 		ldr	r0, .L269+228
 2804 28c8 FEFFFFEB 		bl	uart_transmit
 2805 28cc 1810D6E5 		ldrb	r1, [r6, #24]	@ zero_extendqisi2
 2806 28d0 0030D5E5 		ldrb	r3, [r5, #0]	@ zero_extendqisi2
 2807 28d4 0020D4E5 		ldrb	r2, [r4, #0]	@ zero_extendqisi2
 2808 28d8 033081E0 		add	r3, r1, r3
 2809 28dc FF3003E2 		and	r3, r3, #255
 2810 28e0 0030C5E5 		strb	r3, [r5, #0]
 2811 28e4 023083E0 		add	r3, r3, r2
 2812 28e8 0030C4E5 		strb	r3, [r4, #0]
 2813 28ec 98079FE5 		ldr	r0, .L269+228
 2814 28f0 FEFFFFEB 		bl	uart_transmit
 2815 28f4 1910D6E5 		ldrb	r1, [r6, #25]	@ zero_extendqisi2
 2816              	.L246:
 2817 28f8 0030D5E5 		ldrb	r3, [r5, #0]	@ zero_extendqisi2
 2818 28fc 0020D4E5 		ldrb	r2, [r4, #0]	@ zero_extendqisi2
 2819 2900 033081E0 		add	r3, r1, r3
 2820 2904 FF3003E2 		and	r3, r3, #255
 2821 2908 0030C5E5 		strb	r3, [r5, #0]
 2822 290c 023083E0 		add	r3, r3, r2
 2823 2910 0030C4E5 		strb	r3, [r4, #0]
 2824 2914 70079FE5 		ldr	r0, .L269+228
 2825 2918 FEFFFFEB 		bl	uart_transmit
 2826 291c 0010D5E5 		ldrb	r1, [r5, #0]	@ zero_extendqisi2
 2827 2920 64079FE5 		ldr	r0, .L269+228
 2828 2924 FEFFFFEB 		bl	uart_transmit
 2829 2928 5C079FE5 		ldr	r0, .L269+228
 2830 292c 0010D4E5 		ldrb	r1, [r4, #0]	@ zero_extendqisi2
 2831 2930 FEFFFFEB 		bl	uart_transmit
 2832 2934 030000EA 		b	.L59
 2833              	.L61:
 2834 2938 F8369FE5 		ldr	r3, .L269+144
 2835 293c 0020D3E5 		ldrb	r2, [r3, #0]	@ zero_extendqisi2
 2836 2940 012082E2 		add	r2, r2, #1
 2837 2944 0020C3E5 		strb	r2, [r3, #0]
 2838              	.L59:
 2839 2948 88369FE5 		ldr	r3, .L269+48
 2840 294c 0030D3E5 		ldrb	r3, [r3, #0]	@ zero_extendqisi2
 2841 2950 120053E3 		cmp	r3, #18
 2842 2954 9900001A 		bne	.L62
 2843 2958 7C369FE5 		ldr	r3, .L269+52
 2844 295c 0020D3E5 		ldrb	r2, [r3, #0]	@ zero_extendqisi2
 2845 2960 0A0052E3 		cmp	r2, #10
 2846 2964 0020A083 		movhi	r2, #0
 2847 2968 0020C385 		strhib	r2, [r3, #0]
 2848 296c 0030D3E5 		ldrb	r3, [r3, #0]	@ zero_extendqisi2
 2849 2970 0A0053E3 		cmp	r3, #10
 2850 2974 03F19F97 		ldrls	pc, [pc, r3, asl #2]
 2851 2978 260000EA 		b	.L64
 2852              	.L76:
 2853 297c A8290000 		.word	.L65
 2854 2980 B0290000 		.word	.L66
 2855 2984 C4290000 		.word	.L67
 2856 2988 CC290000 		.word	.L68
 2857 298c D4290000 		.word	.L69
 2858 2990 DC290000 		.word	.L70
 2859 2994 E8290000 		.word	.L71
 2860 2998 F4290000 		.word	.L72
 2861 299c FC290000 		.word	.L73
 2862 29a0 042A0000 		.word	.L74
 2863 29a4 0C2A0000 		.word	.L75
 2864              	.L65:
 2865 29a8 E4369FE5 		ldr	r3, .L269+236
 2866 29ac 000000EA 		b	.L247
 2867              	.L66:
 2868 29b0 28369FE5 		ldr	r3, .L269+56
 2869              	.L247:
 2870 29b4 0000D3E5 		ldrb	r0, [r3, #0]	@ zero_extendqisi2
 2871              	.L248:
 2872 29b8 FEFFFFEB 		bl	__aeabi_ui2f
 2873 29bc 04008DE5 		str	r0, [sp, #4]	@ float
 2874 29c0 160000EA 		b	.L77
 2875              	.L67:
 2876 29c4 18369FE5 		ldr	r3, .L269+60
 2877 29c8 070000EA 		b	.L261
 2878              	.L68:
 2879 29cc 14369FE5 		ldr	r3, .L269+64
 2880 29d0 050000EA 		b	.L261
 2881              	.L69:
 2882 29d4 10369FE5 		ldr	r3, .L269+68
 2883 29d8 030000EA 		b	.L261
 2884              	.L70:
 2885 29dc CC359FE5 		ldr	r3, .L269+8
 2886 29e0 B000D3E1 		ldrh	r0, [r3, #0]
 2887 29e4 F3FFFFEA 		b	.L248
 2888              	.L71:
 2889 29e8 00369FE5 		ldr	r3, .L269+72
 2890              	.L261:
 2891 29ec 003093E5 		ldr	r3, [r3, #0]	@ float
 2892 29f0 090000EA 		b	.L249
 2893              	.L72:
 2894 29f4 48369FE5 		ldr	r3, .L269+156
 2895 29f8 EDFFFFEA 		b	.L247
 2896              	.L73:
 2897 29fc F0359FE5 		ldr	r3, .L269+76
 2898 2a00 EBFFFFEA 		b	.L247
 2899              	.L74:
 2900 2a04 A8359FE5 		ldr	r3, .L269+12
 2901 2a08 E9FFFFEA 		b	.L247
 2902              	.L75:
 2903 2a0c E4359FE5 		ldr	r3, .L269+80
 2904 2a10 B00FD3E1 		ldrh	r0, [r3, #240]
 2905 2a14 E7FFFFEA 		b	.L248
 2906              	.L64:
 2907 2a18 0030A0E3 		mov	r3, #0
 2908              	.L249:
 2909 2a1c 04308DE5 		str	r3, [sp, #4]	@ float
 2910              	.L77:
 2911 2a20 64069FE5 		ldr	r0, .L269+228
 2912 2a24 0B10A0E3 		mov	r1, #11
 2913 2a28 FEFFFFEB 		bl	uart_check_free_space
 2914 2a2c 000050E3 		cmp	r0, #0
 2915 2a30 5A00000A 		beq	.L78
 2916 2a34 34369FE5 		ldr	r3, .L269+200
 2917 2a38 B020D3E1 		ldrh	r2, [r3, #0]
 2918 2a3c 0B2082E2 		add	r2, r2, #11
 2919 2a40 B020C3E1 		strh	r2, [r3, #0]	@ movhi
 2920 2a44 28369FE5 		ldr	r3, .L269+204
 2921 2a48 B020D3E1 		ldrh	r2, [r3, #0]
 2922 2a4c 012082E2 		add	r2, r2, #1
 2923 2a50 B020C3E1 		strh	r2, [r3, #0]	@ movhi
 2924 2a54 30069FE5 		ldr	r0, .L269+228
 2925 2a58 9910A0E3 		mov	r1, #153
 2926 2a5c 14569FE5 		ldr	r5, .L269+208
 2927 2a60 FEFFFFEB 		bl	uart_transmit
 2928 2a64 20069FE5 		ldr	r0, .L269+228
 2929 2a68 0B10A0E3 		mov	r1, #11
 2930 2a6c 08469FE5 		ldr	r4, .L269+212
 2931 2a70 FEFFFFEB 		bl	uart_transmit
 2932 2a74 0C30A0E3 		mov	r3, #12
 2933 2a78 0030C5E5 		strb	r3, [r5, #0]
 2934 2a7c 1730A0E3 		mov	r3, #23
 2935 2a80 0030C4E5 		strb	r3, [r4, #0]
 2936 2a84 00069FE5 		ldr	r0, .L269+228
 2937 2a88 0110A0E3 		mov	r1, #1
 2938 2a8c FEFFFFEB 		bl	uart_transmit
 2939 2a90 0030D5E5 		ldrb	r3, [r5, #0]	@ zero_extendqisi2
 2940 2a94 0020D4E5 		ldrb	r2, [r4, #0]	@ zero_extendqisi2
 2941 2a98 1F3083E2 		add	r3, r3, #31
 2942 2a9c FF3003E2 		and	r3, r3, #255
 2943 2aa0 0030C5E5 		strb	r3, [r5, #0]
 2944 2aa4 023083E0 		add	r3, r3, r2
 2945 2aa8 0030C4E5 		strb	r3, [r4, #0]
 2946 2aac D8059FE5 		ldr	r0, .L269+228
 2947 2ab0 1F10A0E3 		mov	r1, #31
 2948 2ab4 FEFFFFEB 		bl	uart_transmit
 2949 2ab8 1C359FE5 		ldr	r3, .L269+52
 2950 2abc 0010D3E5 		ldrb	r1, [r3, #0]	@ zero_extendqisi2
 2951 2ac0 0030D5E5 		ldrb	r3, [r5, #0]	@ zero_extendqisi2
 2952 2ac4 0020D4E5 		ldrb	r2, [r4, #0]	@ zero_extendqisi2
 2953 2ac8 033081E0 		add	r3, r1, r3
 2954 2acc FF3003E2 		and	r3, r3, #255
 2955 2ad0 0030C5E5 		strb	r3, [r5, #0]
 2956 2ad4 023083E0 		add	r3, r3, r2
 2957 2ad8 0030C4E5 		strb	r3, [r4, #0]
 2958 2adc A8059FE5 		ldr	r0, .L269+228
 2959 2ae0 FEFFFFEB 		bl	uart_transmit
 2960 2ae4 0410DDE5 		ldrb	r1, [sp, #4]	@ zero_extendqisi2
 2961 2ae8 0030D5E5 		ldrb	r3, [r5, #0]	@ zero_extendqisi2
 2962 2aec 0020D4E5 		ldrb	r2, [r4, #0]	@ zero_extendqisi2
 2963 2af0 033081E0 		add	r3, r1, r3
 2964 2af4 FF3003E2 		and	r3, r3, #255
 2965 2af8 0030C5E5 		strb	r3, [r5, #0]
 2966 2afc 023083E0 		add	r3, r3, r2
 2967 2b00 0030C4E5 		strb	r3, [r4, #0]
 2968 2b04 80059FE5 		ldr	r0, .L269+228
 2969 2b08 FEFFFFEB 		bl	uart_transmit
 2970 2b0c 0510DDE5 		ldrb	r1, [sp, #5]	@ zero_extendqisi2
 2971 2b10 0030D5E5 		ldrb	r3, [r5, #0]	@ zero_extendqisi2
 2972 2b14 0020D4E5 		ldrb	r2, [r4, #0]	@ zero_extendqisi2
 2973 2b18 033081E0 		add	r3, r1, r3
 2974 2b1c FF3003E2 		and	r3, r3, #255
 2975 2b20 0030C5E5 		strb	r3, [r5, #0]
 2976 2b24 023083E0 		add	r3, r3, r2
 2977 2b28 0030C4E5 		strb	r3, [r4, #0]
 2978 2b2c 58059FE5 		ldr	r0, .L269+228
 2979 2b30 FEFFFFEB 		bl	uart_transmit
 2980 2b34 0610DDE5 		ldrb	r1, [sp, #6]	@ zero_extendqisi2
 2981 2b38 0030D5E5 		ldrb	r3, [r5, #0]	@ zero_extendqisi2
 2982 2b3c 0020D4E5 		ldrb	r2, [r4, #0]	@ zero_extendqisi2
 2983 2b40 033081E0 		add	r3, r1, r3
 2984 2b44 FF3003E2 		and	r3, r3, #255
 2985 2b48 0030C5E5 		strb	r3, [r5, #0]
 2986 2b4c 023083E0 		add	r3, r3, r2
 2987 2b50 0030C4E5 		strb	r3, [r4, #0]
 2988 2b54 30059FE5 		ldr	r0, .L269+228
 2989 2b58 FEFFFFEB 		bl	uart_transmit
 2990 2b5c 0710DDE5 		ldrb	r1, [sp, #7]	@ zero_extendqisi2
 2991 2b60 0030D5E5 		ldrb	r3, [r5, #0]	@ zero_extendqisi2
 2992 2b64 0020D4E5 		ldrb	r2, [r4, #0]	@ zero_extendqisi2
 2993 2b68 033081E0 		add	r3, r1, r3
 2994 2b6c FF3003E2 		and	r3, r3, #255
 2995 2b70 0030C5E5 		strb	r3, [r5, #0]
 2996 2b74 023083E0 		add	r3, r3, r2
 2997 2b78 0030C4E5 		strb	r3, [r4, #0]
 2998 2b7c 08059FE5 		ldr	r0, .L269+228
 2999 2b80 FEFFFFEB 		bl	uart_transmit
 3000 2b84 0010D5E5 		ldrb	r1, [r5, #0]	@ zero_extendqisi2
 3001 2b88 FC049FE5 		ldr	r0, .L269+228
 3002 2b8c FEFFFFEB 		bl	uart_transmit
 3003 2b90 F4049FE5 		ldr	r0, .L269+228
 3004 2b94 0010D4E5 		ldrb	r1, [r4, #0]	@ zero_extendqisi2
 3005 2b98 FEFFFFEB 		bl	uart_transmit
 3006 2b9c 030000EA 		b	.L79
 3007              	.L78:
 3008 2ba0 90349FE5 		ldr	r3, .L269+144
 3009 2ba4 0020D3E5 		ldrb	r2, [r3, #0]	@ zero_extendqisi2
 3010 2ba8 012082E2 		add	r2, r2, #1
 3011 2bac 0020C3E5 		strb	r2, [r3, #0]
 3012              	.L79:
 3013 2bb0 24349FE5 		ldr	r3, .L269+52
 3014 2bb4 0020D3E5 		ldrb	r2, [r3, #0]	@ zero_extendqisi2
 3015 2bb8 012082E2 		add	r2, r2, #1
 3016 2bbc 0020C3E5 		strb	r2, [r3, #0]
 3017              	.L62:
 3018 2bc0 34349FE5 		ldr	r3, .L269+84
 3019 2bc4 0030D3E5 		ldrb	r3, [r3, #0]	@ zero_extendqisi2
 3020 2bc8 180053E3 		cmp	r3, #24
 3021 2bcc 9F00001A 		bne	.L80
 3022 2bd0 B4049FE5 		ldr	r0, .L269+228
 3023 2bd4 1110A0E3 		mov	r1, #17
 3024 2bd8 FEFFFFEB 		bl	uart_check_free_space
 3025 2bdc 000050E3 		cmp	r0, #0
 3026 2be0 9600000A 		beq	.L81
 3027 2be4 84349FE5 		ldr	r3, .L269+200
 3028 2be8 B020D3E1 		ldrh	r2, [r3, #0]
 3029 2bec 112082E2 		add	r2, r2, #17
 3030 2bf0 B020C3E1 		strh	r2, [r3, #0]	@ movhi
 3031 2bf4 78349FE5 		ldr	r3, .L269+204
 3032 2bf8 B020D3E1 		ldrh	r2, [r3, #0]
 3033 2bfc 012082E2 		add	r2, r2, #1
 3034 2c00 B020C3E1 		strh	r2, [r3, #0]	@ movhi
 3035 2c04 80049FE5 		ldr	r0, .L269+228
 3036 2c08 9910A0E3 		mov	r1, #153
 3037 2c0c 64549FE5 		ldr	r5, .L269+208
 3038 2c10 FEFFFFEB 		bl	uart_transmit
 3039 2c14 70049FE5 		ldr	r0, .L269+228
 3040 2c18 1110A0E3 		mov	r1, #17
 3041 2c1c 58449FE5 		ldr	r4, .L269+212
 3042 2c20 FEFFFFEB 		bl	uart_transmit
 3043 2c24 1230A0E3 		mov	r3, #18
 3044 2c28 0030C5E5 		strb	r3, [r5, #0]
 3045 2c2c 2330A0E3 		mov	r3, #35
 3046 2c30 0030C4E5 		strb	r3, [r4, #0]
 3047 2c34 50049FE5 		ldr	r0, .L269+228
 3048 2c38 0110A0E3 		mov	r1, #1
 3049 2c3c FEFFFFEB 		bl	uart_transmit
 3050 2c40 0030D5E5 		ldrb	r3, [r5, #0]	@ zero_extendqisi2
 3051 2c44 0020D4E5 		ldrb	r2, [r4, #0]	@ zero_extendqisi2
 3052 2c48 113083E2 		add	r3, r3, #17
 3053 2c4c FF3003E2 		and	r3, r3, #255
 3054 2c50 A0639FE5 		ldr	r6, .L269+80
 3055 2c54 0030C5E5 		strb	r3, [r5, #0]
 3056 2c58 023083E0 		add	r3, r3, r2
 3057 2c5c 0030C4E5 		strb	r3, [r4, #0]
 3058 2c60 24049FE5 		ldr	r0, .L269+228
 3059 2c64 1110A0E3 		mov	r1, #17
 3060 2c68 FEFFFFEB 		bl	uart_transmit
 3061 2c6c 4C10D6E5 		ldrb	r1, [r6, #76]	@ zero_extendqisi2
 3062 2c70 0030D5E5 		ldrb	r3, [r5, #0]	@ zero_extendqisi2
 3063 2c74 0020D4E5 		ldrb	r2, [r4, #0]	@ zero_extendqisi2
 3064 2c78 033081E0 		add	r3, r1, r3
 3065 2c7c FF3003E2 		and	r3, r3, #255
 3066 2c80 0030C5E5 		strb	r3, [r5, #0]
 3067 2c84 023083E0 		add	r3, r3, r2
 3068 2c88 0030C4E5 		strb	r3, [r4, #0]
 3069 2c8c F8039FE5 		ldr	r0, .L269+228
 3070 2c90 FEFFFFEB 		bl	uart_transmit
 3071 2c94 4D10D6E5 		ldrb	r1, [r6, #77]	@ zero_extendqisi2
 3072 2c98 0030D5E5 		ldrb	r3, [r5, #0]	@ zero_extendqisi2
 3073 2c9c 0020D4E5 		ldrb	r2, [r4, #0]	@ zero_extendqisi2
 3074 2ca0 033081E0 		add	r3, r1, r3
 3075 2ca4 FF3003E2 		and	r3, r3, #255
 3076 2ca8 0030C5E5 		strb	r3, [r5, #0]
 3077 2cac 023083E0 		add	r3, r3, r2
 3078 2cb0 0030C4E5 		strb	r3, [r4, #0]
 3079 2cb4 D0039FE5 		ldr	r0, .L269+228
 3080 2cb8 FEFFFFEB 		bl	uart_transmit
 3081 2cbc 4E10D6E5 		ldrb	r1, [r6, #78]	@ zero_extendqisi2
 3082 2cc0 0030D5E5 		ldrb	r3, [r5, #0]	@ zero_extendqisi2
 3083 2cc4 0020D4E5 		ldrb	r2, [r4, #0]	@ zero_extendqisi2
 3084 2cc8 033081E0 		add	r3, r1, r3
 3085 2ccc FF3003E2 		and	r3, r3, #255
 3086 2cd0 0030C5E5 		strb	r3, [r5, #0]
 3087 2cd4 023083E0 		add	r3, r3, r2
 3088 2cd8 0030C4E5 		strb	r3, [r4, #0]
 3089 2cdc A8039FE5 		ldr	r0, .L269+228
 3090 2ce0 FEFFFFEB 		bl	uart_transmit
 3091 2ce4 4F10D6E5 		ldrb	r1, [r6, #79]	@ zero_extendqisi2
 3092 2ce8 0030D5E5 		ldrb	r3, [r5, #0]	@ zero_extendqisi2
 3093 2cec 0020D4E5 		ldrb	r2, [r4, #0]	@ zero_extendqisi2
 3094 2cf0 033081E0 		add	r3, r1, r3
 3095 2cf4 FF3003E2 		and	r3, r3, #255
 3096 2cf8 0030C5E5 		strb	r3, [r5, #0]
 3097 2cfc 023083E0 		add	r3, r3, r2
 3098 2d00 0030C4E5 		strb	r3, [r4, #0]
 3099 2d04 80039FE5 		ldr	r0, .L269+228
 3100 2d08 FEFFFFEB 		bl	uart_transmit
 3101 2d0c 5010D6E5 		ldrb	r1, [r6, #80]	@ zero_extendqisi2
 3102 2d10 0030D5E5 		ldrb	r3, [r5, #0]	@ zero_extendqisi2
 3103 2d14 0020D4E5 		ldrb	r2, [r4, #0]	@ zero_extendqisi2
 3104 2d18 033081E0 		add	r3, r1, r3
 3105 2d1c FF3003E2 		and	r3, r3, #255
 3106 2d20 0030C5E5 		strb	r3, [r5, #0]
 3107 2d24 023083E0 		add	r3, r3, r2
 3108 2d28 0030C4E5 		strb	r3, [r4, #0]
 3109 2d2c 58039FE5 		ldr	r0, .L269+228
 3110 2d30 FEFFFFEB 		bl	uart_transmit
 3111 2d34 5110D6E5 		ldrb	r1, [r6, #81]	@ zero_extendqisi2
 3112 2d38 0030D5E5 		ldrb	r3, [r5, #0]	@ zero_extendqisi2
 3113 2d3c 0020D4E5 		ldrb	r2, [r4, #0]	@ zero_extendqisi2
 3114 2d40 033081E0 		add	r3, r1, r3
 3115 2d44 FF3003E2 		and	r3, r3, #255
 3116 2d48 0030C5E5 		strb	r3, [r5, #0]
 3117 2d4c 023083E0 		add	r3, r3, r2
 3118 2d50 0030C4E5 		strb	r3, [r4, #0]
 3119 2d54 30039FE5 		ldr	r0, .L269+228
 3120 2d58 FEFFFFEB 		bl	uart_transmit
 3121 2d5c 5210D6E5 		ldrb	r1, [r6, #82]	@ zero_extendqisi2
 3122 2d60 0030D5E5 		ldrb	r3, [r5, #0]	@ zero_extendqisi2
 3123 2d64 0020D4E5 		ldrb	r2, [r4, #0]	@ zero_extendqisi2
 3124 2d68 033081E0 		add	r3, r1, r3
 3125 2d6c FF3003E2 		and	r3, r3, #255
 3126 2d70 0030C5E5 		strb	r3, [r5, #0]
 3127 2d74 023083E0 		add	r3, r3, r2
 3128 2d78 0030C4E5 		strb	r3, [r4, #0]
 3129 2d7c 08039FE5 		ldr	r0, .L269+228
 3130 2d80 FEFFFFEB 		bl	uart_transmit
 3131 2d84 5310D6E5 		ldrb	r1, [r6, #83]	@ zero_extendqisi2
 3132 2d88 0030D5E5 		ldrb	r3, [r5, #0]	@ zero_extendqisi2
 3133 2d8c 0020D4E5 		ldrb	r2, [r4, #0]	@ zero_extendqisi2
 3134 2d90 033081E0 		add	r3, r1, r3
 3135 2d94 FF3003E2 		and	r3, r3, #255
 3136 2d98 0030C5E5 		strb	r3, [r5, #0]
 3137 2d9c 023083E0 		add	r3, r3, r2
 3138 2da0 0030C4E5 		strb	r3, [r4, #0]
 3139 2da4 E0029FE5 		ldr	r0, .L269+228
 3140 2da8 FEFFFFEB 		bl	uart_transmit
 3141 2dac 5810D6E5 		ldrb	r1, [r6, #88]	@ zero_extendqisi2
 3142 2db0 0030D5E5 		ldrb	r3, [r5, #0]	@ zero_extendqisi2
 3143 2db4 0020D4E5 		ldrb	r2, [r4, #0]	@ zero_extendqisi2
 3144 2db8 033081E0 		add	r3, r1, r3
 3145 2dbc FF3003E2 		and	r3, r3, #255
 3146 2dc0 0030C5E5 		strb	r3, [r5, #0]
 3147 2dc4 023083E0 		add	r3, r3, r2
 3148 2dc8 0030C4E5 		strb	r3, [r4, #0]
 3149 2dcc B8029FE5 		ldr	r0, .L269+228
 3150 2dd0 FEFFFFEB 		bl	uart_transmit
 3151 2dd4 5910D6E5 		ldrb	r1, [r6, #89]	@ zero_extendqisi2
 3152 2dd8 0030D5E5 		ldrb	r3, [r5, #0]	@ zero_extendqisi2
 3153 2ddc 0020D4E5 		ldrb	r2, [r4, #0]	@ zero_extendqisi2
 3154 2de0 033081E0 		add	r3, r1, r3
 3155 2de4 FF3003E2 		and	r3, r3, #255
 3156 2de8 0030C5E5 		strb	r3, [r5, #0]
 3157 2dec 023083E0 		add	r3, r3, r2
 3158 2df0 0030C4E5 		strb	r3, [r4, #0]
 3159 2df4 90029FE5 		ldr	r0, .L269+228
 3160 2df8 FEFFFFEB 		bl	uart_transmit
 3161 2dfc 5A10D6E5 		ldrb	r1, [r6, #90]	@ zero_extendqisi2
 3162 2e00 0030D5E5 		ldrb	r3, [r5, #0]	@ zero_extendqisi2
 3163 2e04 0020D4E5 		ldrb	r2, [r4, #0]	@ zero_extendqisi2
 3164 2e08 033081E0 		add	r3, r1, r3
 3165 2e0c FF3003E2 		and	r3, r3, #255
 3166 2e10 0030C5E5 		strb	r3, [r5, #0]
 3167 2e14 023083E0 		add	r3, r3, r2
 3168 2e18 0030C4E5 		strb	r3, [r4, #0]
 3169 2e1c 68029FE5 		ldr	r0, .L269+228
 3170 2e20 FEFFFFEB 		bl	uart_transmit
 3171 2e24 0010D5E5 		ldrb	r1, [r5, #0]	@ zero_extendqisi2
 3172 2e28 5C029FE5 		ldr	r0, .L269+228
 3173 2e2c FEFFFFEB 		bl	uart_transmit
 3174 2e30 54029FE5 		ldr	r0, .L269+228
 3175 2e34 0010D4E5 		ldrb	r1, [r4, #0]	@ zero_extendqisi2
 3176 2e38 FEFFFFEB 		bl	uart_transmit
 3177 2e3c 030000EA 		b	.L80
 3178              	.L81:
 3179 2e40 F0319FE5 		ldr	r3, .L269+144
 3180 2e44 0020D3E5 		ldrb	r2, [r3, #0]	@ zero_extendqisi2
 3181 2e48 012082E2 		add	r2, r2, #1
 3182 2e4c 0020C3E5 		strb	r2, [r3, #0]
 3183              	.L80:
 3184 2e50 A8319FE5 		ldr	r3, .L269+88
 3185 2e54 0030D3E5 		ldrb	r3, [r3, #0]	@ zero_extendqisi2
 3186 2e58 1E0053E3 		cmp	r3, #30
 3187 2e5c 9400001A 		bne	.L82
 3188 2e60 24029FE5 		ldr	r0, .L269+228
 3189 2e64 0B10A0E3 		mov	r1, #11
 3190 2e68 FEFFFFEB 		bl	uart_check_free_space
 3191 2e6c 000050E3 		cmp	r0, #0
 3192 2e70 6601000A 		beq	.L85
 3193 2e74 F4319FE5 		ldr	r3, .L269+200
 3194 2e78 B020D3E1 		ldrh	r2, [r3, #0]
 3195 2e7c 0B2082E2 		add	r2, r2, #11
 3196 2e80 B020C3E1 		strh	r2, [r3, #0]	@ movhi
 3197 2e84 E8319FE5 		ldr	r3, .L269+204
 3198 2e88 B020D3E1 		ldrh	r2, [r3, #0]
 3199 2e8c 012082E2 		add	r2, r2, #1
 3200 2e90 B020C3E1 		strh	r2, [r3, #0]	@ movhi
 3201 2e94 F0019FE5 		ldr	r0, .L269+228
 3202 2e98 9910A0E3 		mov	r1, #153
 3203 2e9c D4519FE5 		ldr	r5, .L269+208
 3204 2ea0 FEFFFFEB 		bl	uart_transmit
 3205 2ea4 E0019FE5 		ldr	r0, .L269+228
 3206 2ea8 0B10A0E3 		mov	r1, #11
 3207 2eac C8419FE5 		ldr	r4, .L269+212
 3208 2eb0 FEFFFFEB 		bl	uart_transmit
 3209 2eb4 0C30A0E3 		mov	r3, #12
 3210 2eb8 0030C5E5 		strb	r3, [r5, #0]
 3211 2ebc 1730A0E3 		mov	r3, #23
 3212 2ec0 0030C4E5 		strb	r3, [r4, #0]
 3213 2ec4 C0019FE5 		ldr	r0, .L269+228
 3214 2ec8 0110A0E3 		mov	r1, #1
 3215 2ecc FEFFFFEB 		bl	uart_transmit
 3216 2ed0 0030D5E5 		ldrb	r3, [r5, #0]	@ zero_extendqisi2
 3217 2ed4 0020D4E5 		ldrb	r2, [r4, #0]	@ zero_extendqisi2
 3218 2ed8 0E3083E2 		add	r3, r3, #14
 3219 2edc FF3003E2 		and	r3, r3, #255
 3220 2ee0 1C619FE5 		ldr	r6, .L269+92
 3221 2ee4 0030C5E5 		strb	r3, [r5, #0]
 3222 2ee8 023083E0 		add	r3, r3, r2
 3223 2eec 0030C4E5 		strb	r3, [r4, #0]
 3224 2ef0 94019FE5 		ldr	r0, .L269+228
 3225 2ef4 0E10A0E3 		mov	r1, #14
 3226 2ef8 FEFFFFEB 		bl	uart_transmit
 3227 2efc 0010D6E5 		ldrb	r1, [r6, #0]	@ zero_extendqisi2
 3228 2f00 0030D5E5 		ldrb	r3, [r5, #0]	@ zero_extendqisi2
 3229 2f04 0020D4E5 		ldrb	r2, [r4, #0]	@ zero_extendqisi2
 3230 2f08 033081E0 		add	r3, r1, r3
 3231 2f0c FF3003E2 		and	r3, r3, #255
 3232 2f10 0030C5E5 		strb	r3, [r5, #0]
 3233 2f14 023083E0 		add	r3, r3, r2
 3234 2f18 0030C4E5 		strb	r3, [r4, #0]
 3235 2f1c 68019FE5 		ldr	r0, .L269+228
 3236 2f20 FEFFFFEB 		bl	uart_transmit
 3237 2f24 0110D6E5 		ldrb	r1, [r6, #1]	@ zero_extendqisi2
 3238 2f28 0030D5E5 		ldrb	r3, [r5, #0]	@ zero_extendqisi2
 3239 2f2c 0020D4E5 		ldrb	r2, [r4, #0]	@ zero_extendqisi2
 3240 2f30 033081E0 		add	r3, r1, r3
 3241 2f34 FF3003E2 		and	r3, r3, #255
 3242 2f38 0030C5E5 		strb	r3, [r5, #0]
 3243 2f3c 023083E0 		add	r3, r3, r2
 3244 2f40 0030C4E5 		strb	r3, [r4, #0]
 3245 2f44 40019FE5 		ldr	r0, .L269+228
 3246 2f48 FEFFFFEB 		bl	uart_transmit
 3247 2f4c 0210D6E5 		ldrb	r1, [r6, #2]	@ zero_extendqisi2
 3248 2f50 0030D5E5 		ldrb	r3, [r5, #0]	@ zero_extendqisi2
 3249 2f54 0020D4E5 		ldrb	r2, [r4, #0]	@ zero_extendqisi2
 3250 2f58 033081E0 		add	r3, r1, r3
 3251 2f5c FF3003E2 		and	r3, r3, #255
 3252 2f60 0030C5E5 		strb	r3, [r5, #0]
 3253 2f64 023083E0 		add	r3, r3, r2
 3254 2f68 0030C4E5 		strb	r3, [r4, #0]
 3255 2f6c 18019FE5 		ldr	r0, .L269+228
 3256 2f70 FEFFFFEB 		bl	uart_transmit
 3257 2f74 0310D6E5 		ldrb	r1, [r6, #3]	@ zero_extendqisi2
 3258 2f78 0030D5E5 		ldrb	r3, [r5, #0]	@ zero_extendqisi2
 3259 2f7c 0020D4E5 		ldrb	r2, [r4, #0]	@ zero_extendqisi2
 3260 2f80 033081E0 		add	r3, r1, r3
 3261 2f84 FF3003E2 		and	r3, r3, #255
 3262 2f88 0030C5E5 		strb	r3, [r5, #0]
 3263 2f8c 023083E0 		add	r3, r3, r2
 3264 2f90 0030C4E5 		strb	r3, [r4, #0]
 3265 2f94 F0009FE5 		ldr	r0, .L269+228
 3266 2f98 FEFFFFEB 		bl	uart_transmit
 3267 2f9c 64309FE5 		ldr	r3, .L269+96
 3268 2fa0 0010D3E5 		ldrb	r1, [r3, #0]	@ zero_extendqisi2
 3269 2fa4 090100EA 		b	.L250
 3270              	.L270:
 3271              		.align	2
 3272              	.L269:
 3273 2fa8 00000000 		.word	.LANCHOR6
 3274 2fac 00000000 		.word	v_ctl_throttle_slewed
 3275 2fb0 00000000 		.word	.LANCHOR18
 3276 2fb4 00000000 		.word	.LANCHOR19
 3277 2fb8 00000000 		.word	block_time
 3278 2fbc 00000000 		.word	stage_time
 3279 2fc0 00000000 		.word	.LANCHOR7
 3280 2fc4 00000000 		.word	nav_in_segment
 3281 2fc8 00000000 		.word	nav_segment_x_1
 3282 2fcc 00000000 		.word	nav_segment_y_1
 3283 2fd0 00000000 		.word	nav_segment_x_2
 3284 2fd4 00000000 		.word	nav_segment_y_2
 3285 2fd8 00000000 		.word	.LANCHOR8
 3286 2fdc 00000000 		.word	.LANCHOR20
 3287 2fe0 00000000 		.word	telemetry_mode_Fbw
 3288 2fe4 00000000 		.word	flight_altitude
 3289 2fe8 00000000 		.word	nav_course
 3290 2fec 00000000 		.word	nav_shift
 3291 2ff0 00000000 		.word	nav_radius
 3292 2ff4 00000000 		.word	.LANCHOR22
 3293 2ff8 00000000 		.word	gps
 3294 2ffc 00000000 		.word	.LANCHOR9
 3295 3000 00000000 		.word	.LANCHOR10
 3296 3004 00000000 		.word	v_ctl_auto_throttle_sum_err
 3297 3008 00000000 		.word	v_ctl_auto_throttle_submode
 3298 300c 00000000 		.word	nav_survey_active
 3299 3010 00000000 		.word	nav_survey_east
 3300 3014 00000000 		.word	nav_survey_north
 3301 3018 00000000 		.word	nav_survey_west
 3302 301c 00000000 		.word	nav_survey_south
 3303 3020 00000000 		.word	.LANCHOR11
 3304 3024 00000000 		.word	energy
 3305 3028 00000000 		.word	vsupply
 3306 302c 00002041 		.word	1092616192
 3307 3030 00000000 		.word	.LANCHOR17
 3308 3034 00007A44 		.word	1148846080
 3309 3038 00000000 		.word	downlink_nb_ovrn
 3310 303c 00000000 		.word	.LANCHOR12
 3311 3040 00000000 		.word	.LC0
 3312 3044 00000000 		.word	.LANCHOR21
 3313 3048 00000000 		.word	v_ctl_mode
 3314 304c 00000000 		.word	.LANCHOR23
 3315 3050 00000000 		.word	horizontal_mode
 3316 3054 00000000 		.word	.LANCHOR24
 3317 3058 00000000 		.word	infrared
 3318 305c 00000000 		.word	.LANCHOR13
 3319 3060 00000000 		.word	.LANCHOR25
 3320 3064 66666666 		.word	1717986918
 3321 3068 66661440 		.word	1075078758
 3322 306c 00000000 		.word	.LANCHOR14
 3323 3070 00000000 		.word	downlink_nb_bytes
 3324 3074 00000000 		.word	downlink_nb_msgs
 3325 3078 00000000 		.word	ck_a
 3326 307c 00000000 		.word	ck_b
 3327 3080 00000000 		.word	nav_utm_east0
 3328 3084 00000000 		.word	nav_utm_north0
 3329 3088 00000000 		.word	nav_utm_zone0
 3330 308c 00000000 		.word	uart1
 3331 3090 00000000 		.word	downlink_nb_ovrn
 3332 3094 00000000 		.word	telemetry_mode_Ap
 3333 3098 00000000 		.word	.LANCHOR26
 3334 309c 00000000 		.word	.LANCHOR27
 3335 30a0 00000000 		.word	.LANCHOR28
 3336 30a4 00000000 		.word	.LANCHOR29
 3337 30a8 00000000 		.word	.LANCHOR30
 3338 30ac 00000000 		.word	.LANCHOR31
 3339 30b0 00000000 		.word	.LANCHOR32
 3340              	.L82:
 3341 30b4 240053E3 		cmp	r3, #36
 3342 30b8 D800001A 		bne	.L84
 3343 30bc B8301FE5 		ldr	r3, .L269+100
 3344 30c0 0030D3E5 		ldrb	r3, [r3, #0]	@ zero_extendqisi2
 3345 30c4 000053E3 		cmp	r3, #0
 3346 30c8 D400000A 		beq	.L84
 3347 30cc 48001FE5 		ldr	r0, .L269+228
 3348 30d0 1610A0E3 		mov	r1, #22
 3349 30d4 FEFFFFEB 		bl	uart_check_free_space
 3350 30d8 000050E3 		cmp	r0, #0
 3351 30dc CB00000A 		beq	.L85
 3352 30e0 78301FE5 		ldr	r3, .L269+200
 3353 30e4 B020D3E1 		ldrh	r2, [r3, #0]
 3354 30e8 162082E2 		add	r2, r2, #22
 3355 30ec B020C3E1 		strh	r2, [r3, #0]	@ movhi
 3356 30f0 84301FE5 		ldr	r3, .L269+204
 3357 30f4 B020D3E1 		ldrh	r2, [r3, #0]
 3358 30f8 012082E2 		add	r2, r2, #1
 3359 30fc B020C3E1 		strh	r2, [r3, #0]	@ movhi
 3360 3100 7C001FE5 		ldr	r0, .L269+228
 3361 3104 9910A0E3 		mov	r1, #153
 3362 3108 98501FE5 		ldr	r5, .L269+208
 3363 310c FEFFFFEB 		bl	uart_transmit
 3364 3110 8C001FE5 		ldr	r0, .L269+228
 3365 3114 1610A0E3 		mov	r1, #22
 3366 3118 A4401FE5 		ldr	r4, .L269+212
 3367 311c FEFFFFEB 		bl	uart_transmit
 3368 3120 1730A0E3 		mov	r3, #23
 3369 3124 0030C5E5 		strb	r3, [r5, #0]
 3370 3128 2D30A0E3 		mov	r3, #45
 3371 312c 0030C4E5 		strb	r3, [r4, #0]
 3372 3130 AC001FE5 		ldr	r0, .L269+228
 3373 3134 0110A0E3 		mov	r1, #1
 3374 3138 FEFFFFEB 		bl	uart_transmit
 3375 313c 0030D5E5 		ldrb	r3, [r5, #0]	@ zero_extendqisi2
 3376 3140 0020D4E5 		ldrb	r2, [r4, #0]	@ zero_extendqisi2
 3377 3144 1B3083E2 		add	r3, r3, #27
 3378 3148 FF3003E2 		and	r3, r3, #255
 3379 314c 44611FE5 		ldr	r6, .L269+104
 3380 3150 0030C5E5 		strb	r3, [r5, #0]
 3381 3154 023083E0 		add	r3, r3, r2
 3382 3158 0030C4E5 		strb	r3, [r4, #0]
 3383 315c D8001FE5 		ldr	r0, .L269+228
 3384 3160 1B10A0E3 		mov	r1, #27
 3385 3164 FEFFFFEB 		bl	uart_transmit
 3386 3168 0010D6E5 		ldrb	r1, [r6, #0]	@ zero_extendqisi2
 3387 316c 0030D5E5 		ldrb	r3, [r5, #0]	@ zero_extendqisi2
 3388 3170 0020D4E5 		ldrb	r2, [r4, #0]	@ zero_extendqisi2
 3389 3174 033081E0 		add	r3, r1, r3
 3390 3178 FF3003E2 		and	r3, r3, #255
 3391 317c 0030C5E5 		strb	r3, [r5, #0]
 3392 3180 023083E0 		add	r3, r3, r2
 3393 3184 0030C4E5 		strb	r3, [r4, #0]
 3394 3188 04011FE5 		ldr	r0, .L269+228
 3395 318c FEFFFFEB 		bl	uart_transmit
 3396 3190 0110D6E5 		ldrb	r1, [r6, #1]	@ zero_extendqisi2
 3397 3194 0030D5E5 		ldrb	r3, [r5, #0]	@ zero_extendqisi2
 3398 3198 0020D4E5 		ldrb	r2, [r4, #0]	@ zero_extendqisi2
 3399 319c 033081E0 		add	r3, r1, r3
 3400 31a0 FF3003E2 		and	r3, r3, #255
 3401 31a4 0030C5E5 		strb	r3, [r5, #0]
 3402 31a8 023083E0 		add	r3, r3, r2
 3403 31ac 0030C4E5 		strb	r3, [r4, #0]
 3404 31b0 2C011FE5 		ldr	r0, .L269+228
 3405 31b4 FEFFFFEB 		bl	uart_transmit
 3406 31b8 0210D6E5 		ldrb	r1, [r6, #2]	@ zero_extendqisi2
 3407 31bc 0030D5E5 		ldrb	r3, [r5, #0]	@ zero_extendqisi2
 3408 31c0 0020D4E5 		ldrb	r2, [r4, #0]	@ zero_extendqisi2
 3409 31c4 033081E0 		add	r3, r1, r3
 3410 31c8 FF3003E2 		and	r3, r3, #255
 3411 31cc 0030C5E5 		strb	r3, [r5, #0]
 3412 31d0 023083E0 		add	r3, r3, r2
 3413 31d4 0030C4E5 		strb	r3, [r4, #0]
 3414 31d8 54011FE5 		ldr	r0, .L269+228
 3415 31dc FEFFFFEB 		bl	uart_transmit
 3416 31e0 0310D6E5 		ldrb	r1, [r6, #3]	@ zero_extendqisi2
 3417 31e4 0030D5E5 		ldrb	r3, [r5, #0]	@ zero_extendqisi2
 3418 31e8 0020D4E5 		ldrb	r2, [r4, #0]	@ zero_extendqisi2
 3419 31ec 033081E0 		add	r3, r1, r3
 3420 31f0 FF3003E2 		and	r3, r3, #255
 3421 31f4 E8611FE5 		ldr	r6, .L269+108
 3422 31f8 0030C5E5 		strb	r3, [r5, #0]
 3423 31fc 023083E0 		add	r3, r3, r2
 3424 3200 0030C4E5 		strb	r3, [r4, #0]
 3425 3204 80011FE5 		ldr	r0, .L269+228
 3426 3208 FEFFFFEB 		bl	uart_transmit
 3427 320c 0010D6E5 		ldrb	r1, [r6, #0]	@ zero_extendqisi2
 3428 3210 0030D5E5 		ldrb	r3, [r5, #0]	@ zero_extendqisi2
 3429 3214 0020D4E5 		ldrb	r2, [r4, #0]	@ zero_extendqisi2
 3430 3218 033081E0 		add	r3, r1, r3
 3431 321c FF3003E2 		and	r3, r3, #255
 3432 3220 0030C5E5 		strb	r3, [r5, #0]
 3433 3224 023083E0 		add	r3, r3, r2
 3434 3228 0030C4E5 		strb	r3, [r4, #0]
 3435 322c A8011FE5 		ldr	r0, .L269+228
 3436 3230 FEFFFFEB 		bl	uart_transmit
 3437 3234 0110D6E5 		ldrb	r1, [r6, #1]	@ zero_extendqisi2
 3438 3238 0030D5E5 		ldrb	r3, [r5, #0]	@ zero_extendqisi2
 3439 323c 0020D4E5 		ldrb	r2, [r4, #0]	@ zero_extendqisi2
 3440 3240 033081E0 		add	r3, r1, r3
 3441 3244 FF3003E2 		and	r3, r3, #255
 3442 3248 0030C5E5 		strb	r3, [r5, #0]
 3443 324c 023083E0 		add	r3, r3, r2
 3444 3250 0030C4E5 		strb	r3, [r4, #0]
 3445 3254 D0011FE5 		ldr	r0, .L269+228
 3446 3258 FEFFFFEB 		bl	uart_transmit
 3447 325c 0210D6E5 		ldrb	r1, [r6, #2]	@ zero_extendqisi2
 3448 3260 0030D5E5 		ldrb	r3, [r5, #0]	@ zero_extendqisi2
 3449 3264 0020D4E5 		ldrb	r2, [r4, #0]	@ zero_extendqisi2
 3450 3268 033081E0 		add	r3, r1, r3
 3451 326c FF3003E2 		and	r3, r3, #255
 3452 3270 0030C5E5 		strb	r3, [r5, #0]
 3453 3274 023083E0 		add	r3, r3, r2
 3454 3278 0030C4E5 		strb	r3, [r4, #0]
 3455 327c F8011FE5 		ldr	r0, .L269+228
 3456 3280 FEFFFFEB 		bl	uart_transmit
 3457 3284 0310D6E5 		ldrb	r1, [r6, #3]	@ zero_extendqisi2
 3458 3288 0030D5E5 		ldrb	r3, [r5, #0]	@ zero_extendqisi2
 3459 328c 0020D4E5 		ldrb	r2, [r4, #0]	@ zero_extendqisi2
 3460 3290 033081E0 		add	r3, r1, r3
 3461 3294 FF3003E2 		and	r3, r3, #255
 3462 3298 88621FE5 		ldr	r6, .L269+112
 3463 329c 0030C5E5 		strb	r3, [r5, #0]
 3464 32a0 023083E0 		add	r3, r3, r2
 3465 32a4 0030C4E5 		strb	r3, [r4, #0]
 3466 32a8 24021FE5 		ldr	r0, .L269+228
 3467 32ac FEFFFFEB 		bl	uart_transmit
 3468 32b0 0010D6E5 		ldrb	r1, [r6, #0]	@ zero_extendqisi2
 3469 32b4 0030D5E5 		ldrb	r3, [r5, #0]	@ zero_extendqisi2
 3470 32b8 0020D4E5 		ldrb	r2, [r4, #0]	@ zero_extendqisi2
 3471 32bc 033081E0 		add	r3, r1, r3
 3472 32c0 FF3003E2 		and	r3, r3, #255
 3473 32c4 0030C5E5 		strb	r3, [r5, #0]
 3474 32c8 023083E0 		add	r3, r3, r2
 3475 32cc 0030C4E5 		strb	r3, [r4, #0]
 3476 32d0 4C021FE5 		ldr	r0, .L269+228
 3477 32d4 FEFFFFEB 		bl	uart_transmit
 3478 32d8 0110D6E5 		ldrb	r1, [r6, #1]	@ zero_extendqisi2
 3479 32dc 0030D5E5 		ldrb	r3, [r5, #0]	@ zero_extendqisi2
 3480 32e0 0020D4E5 		ldrb	r2, [r4, #0]	@ zero_extendqisi2
 3481 32e4 033081E0 		add	r3, r1, r3
 3482 32e8 FF3003E2 		and	r3, r3, #255
 3483 32ec 0030C5E5 		strb	r3, [r5, #0]
 3484 32f0 023083E0 		add	r3, r3, r2
 3485 32f4 0030C4E5 		strb	r3, [r4, #0]
 3486 32f8 74021FE5 		ldr	r0, .L269+228
 3487 32fc FEFFFFEB 		bl	uart_transmit
 3488 3300 0210D6E5 		ldrb	r1, [r6, #2]	@ zero_extendqisi2
 3489 3304 0030D5E5 		ldrb	r3, [r5, #0]	@ zero_extendqisi2
 3490 3308 0020D4E5 		ldrb	r2, [r4, #0]	@ zero_extendqisi2
 3491 330c 033081E0 		add	r3, r1, r3
 3492 3310 FF3003E2 		and	r3, r3, #255
 3493 3314 0030C5E5 		strb	r3, [r5, #0]
 3494 3318 023083E0 		add	r3, r3, r2
 3495 331c 0030C4E5 		strb	r3, [r4, #0]
 3496 3320 9C021FE5 		ldr	r0, .L269+228
 3497 3324 FEFFFFEB 		bl	uart_transmit
 3498 3328 0310D6E5 		ldrb	r1, [r6, #3]	@ zero_extendqisi2
 3499 332c 0030D5E5 		ldrb	r3, [r5, #0]	@ zero_extendqisi2
 3500 3330 0020D4E5 		ldrb	r2, [r4, #0]	@ zero_extendqisi2
 3501 3334 033081E0 		add	r3, r1, r3
 3502 3338 FF3003E2 		and	r3, r3, #255
 3503 333c 28631FE5 		ldr	r6, .L269+116
 3504 3340 0030C5E5 		strb	r3, [r5, #0]
 3505 3344 023083E0 		add	r3, r3, r2
 3506 3348 0030C4E5 		strb	r3, [r4, #0]
 3507 334c C8021FE5 		ldr	r0, .L269+228
 3508 3350 FEFFFFEB 		bl	uart_transmit
 3509 3354 0010D6E5 		ldrb	r1, [r6, #0]	@ zero_extendqisi2
 3510 3358 0030D5E5 		ldrb	r3, [r5, #0]	@ zero_extendqisi2
 3511 335c 0020D4E5 		ldrb	r2, [r4, #0]	@ zero_extendqisi2
 3512 3360 033081E0 		add	r3, r1, r3
 3513 3364 FF3003E2 		and	r3, r3, #255
 3514 3368 0030C5E5 		strb	r3, [r5, #0]
 3515 336c 023083E0 		add	r3, r3, r2
 3516 3370 0030C4E5 		strb	r3, [r4, #0]
 3517 3374 F0021FE5 		ldr	r0, .L269+228
 3518 3378 FEFFFFEB 		bl	uart_transmit
 3519 337c 0110D6E5 		ldrb	r1, [r6, #1]	@ zero_extendqisi2
 3520 3380 0030D5E5 		ldrb	r3, [r5, #0]	@ zero_extendqisi2
 3521 3384 0020D4E5 		ldrb	r2, [r4, #0]	@ zero_extendqisi2
 3522 3388 033081E0 		add	r3, r1, r3
 3523 338c FF3003E2 		and	r3, r3, #255
 3524 3390 0030C5E5 		strb	r3, [r5, #0]
 3525 3394 023083E0 		add	r3, r3, r2
 3526 3398 0030C4E5 		strb	r3, [r4, #0]
 3527 339c 18031FE5 		ldr	r0, .L269+228
 3528 33a0 FEFFFFEB 		bl	uart_transmit
 3529 33a4 0210D6E5 		ldrb	r1, [r6, #2]	@ zero_extendqisi2
 3530 33a8 0030D5E5 		ldrb	r3, [r5, #0]	@ zero_extendqisi2
 3531 33ac 0020D4E5 		ldrb	r2, [r4, #0]	@ zero_extendqisi2
 3532 33b0 033081E0 		add	r3, r1, r3
 3533 33b4 FF3003E2 		and	r3, r3, #255
 3534 33b8 0030C5E5 		strb	r3, [r5, #0]
 3535 33bc 023083E0 		add	r3, r3, r2
 3536 33c0 0030C4E5 		strb	r3, [r4, #0]
 3537 33c4 40031FE5 		ldr	r0, .L269+228
 3538 33c8 FEFFFFEB 		bl	uart_transmit
 3539 33cc 0310D6E5 		ldrb	r1, [r6, #3]	@ zero_extendqisi2
 3540              	.L250:
 3541 33d0 0030D5E5 		ldrb	r3, [r5, #0]	@ zero_extendqisi2
 3542 33d4 0020D4E5 		ldrb	r2, [r4, #0]	@ zero_extendqisi2
 3543 33d8 033081E0 		add	r3, r1, r3
 3544 33dc FF3003E2 		and	r3, r3, #255
 3545 33e0 0030C5E5 		strb	r3, [r5, #0]
 3546 33e4 023083E0 		add	r3, r3, r2
 3547 33e8 0030C4E5 		strb	r3, [r4, #0]
 3548 33ec 68031FE5 		ldr	r0, .L269+228
 3549 33f0 FEFFFFEB 		bl	uart_transmit
 3550 33f4 0010D5E5 		ldrb	r1, [r5, #0]	@ zero_extendqisi2
 3551 33f8 74031FE5 		ldr	r0, .L269+228
 3552 33fc FEFFFFEB 		bl	uart_transmit
 3553 3400 7C031FE5 		ldr	r0, .L269+228
 3554 3404 0010D4E5 		ldrb	r1, [r4, #0]	@ zero_extendqisi2
 3555 3408 FEFFFFEB 		bl	uart_transmit
 3556 340c 030000EA 		b	.L84
 3557              	.L85:
 3558 3410 E0331FE5 		ldr	r3, .L269+144
 3559 3414 0020D3E5 		ldrb	r2, [r3, #0]	@ zero_extendqisi2
 3560 3418 012082E2 		add	r2, r2, #1
 3561 341c 0020C3E5 		strb	r2, [r3, #0]
 3562              	.L84:
 3563 3420 08341FE5 		ldr	r3, .L269+120
 3564 3424 0030D3E5 		ldrb	r3, [r3, #0]	@ zero_extendqisi2
 3565 3428 2A0053E3 		cmp	r3, #42
 3566 342c D100001A 		bne	.L86
 3567 3430 14341FE5 		ldr	r3, .L269+124
 3568 3434 000093E5 		ldr	r0, [r3, #0]	@ float
 3569 3438 FEFFFFEB 		bl	__aeabi_f2iz
 3570 343c 1C341FE5 		ldr	r3, .L269+128
 3571 3440 BC00CDE1 		strh	r0, [sp, #12]	@ movhi
 3572 3444 0000D3E5 		ldrb	r0, [r3, #0]	@ zero_extendqisi2
 3573 3448 FEFFFFEB 		bl	__aeabi_ui2f
 3574 344c 28141FE5 		ldr	r1, .L269+132
 3575 3450 FEFFFFEB 		bl	__aeabi_fdiv
 3576 3454 2C341FE5 		ldr	r3, .L269+136
 3577 3458 0040A0E1 		mov	r4, r0
 3578 345c 04008DE5 		str	r0, [sp, #4]	@ float
 3579 3460 000093E5 		ldr	r0, [r3, #0]
 3580 3464 FEFFFFEB 		bl	__aeabi_i2f
 3581 3468 3C141FE5 		ldr	r1, .L269+140
 3582 346c FEFFFFEB 		bl	__aeabi_fdiv
 3583 3470 0010A0E1 		mov	r1, r0
 3584 3474 00008DE5 		str	r0, [sp, #0]	@ float
 3585 3478 0400A0E1 		mov	r0, r4
 3586 347c FEFFFFEB 		bl	__aeabi_fmul
 3587 3480 1410A0E3 		mov	r1, #20
 3588 3484 08008DE5 		str	r0, [sp, #8]	@ float
 3589 3488 04041FE5 		ldr	r0, .L269+228
 3590 348c FEFFFFEB 		bl	uart_check_free_space
 3591 3490 000050E3 		cmp	r0, #0
 3592 3494 B300000A 		beq	.L87
 3593 3498 30341FE5 		ldr	r3, .L269+200
 3594 349c B020D3E1 		ldrh	r2, [r3, #0]
 3595 34a0 142082E2 		add	r2, r2, #20
 3596 34a4 B020C3E1 		strh	r2, [r3, #0]	@ movhi
 3597 34a8 3C341FE5 		ldr	r3, .L269+204
 3598 34ac B020D3E1 		ldrh	r2, [r3, #0]
 3599 34b0 012082E2 		add	r2, r2, #1
 3600 34b4 B020C3E1 		strh	r2, [r3, #0]	@ movhi
 3601 34b8 34041FE5 		ldr	r0, .L269+228
 3602 34bc 9910A0E3 		mov	r1, #153
 3603 34c0 50541FE5 		ldr	r5, .L269+208
 3604 34c4 FEFFFFEB 		bl	uart_transmit
 3605 34c8 44041FE5 		ldr	r0, .L269+228
 3606 34cc 1410A0E3 		mov	r1, #20
 3607 34d0 5C441FE5 		ldr	r4, .L269+212
 3608 34d4 FEFFFFEB 		bl	uart_transmit
 3609 34d8 1530A0E3 		mov	r3, #21
 3610 34dc 0030C5E5 		strb	r3, [r5, #0]
 3611 34e0 2930A0E3 		mov	r3, #41
 3612 34e4 0030C4E5 		strb	r3, [r4, #0]
 3613 34e8 64041FE5 		ldr	r0, .L269+228
 3614 34ec 0110A0E3 		mov	r1, #1
 3615 34f0 FEFFFFEB 		bl	uart_transmit
 3616 34f4 0030D5E5 		ldrb	r3, [r5, #0]	@ zero_extendqisi2
 3617 34f8 0020D4E5 		ldrb	r2, [r4, #0]	@ zero_extendqisi2
 3618 34fc 253083E2 		add	r3, r3, #37
 3619 3500 FF3003E2 		and	r3, r3, #255
 3620 3504 0030C5E5 		strb	r3, [r5, #0]
 3621 3508 023083E0 		add	r3, r3, r2
 3622 350c 0030C4E5 		strb	r3, [r4, #0]
 3623 3510 8C041FE5 		ldr	r0, .L269+228
 3624 3514 2510A0E3 		mov	r1, #37
 3625 3518 FEFFFFEB 		bl	uart_transmit
 3626 351c 0410DDE5 		ldrb	r1, [sp, #4]	@ zero_extendqisi2
 3627 3520 0030D5E5 		ldrb	r3, [r5, #0]	@ zero_extendqisi2
 3628 3524 0020D4E5 		ldrb	r2, [r4, #0]	@ zero_extendqisi2
 3629 3528 033081E0 		add	r3, r1, r3
 3630 352c FF3003E2 		and	r3, r3, #255
 3631 3530 0030C5E5 		strb	r3, [r5, #0]
 3632 3534 023083E0 		add	r3, r3, r2
 3633 3538 0030C4E5 		strb	r3, [r4, #0]
 3634 353c B8041FE5 		ldr	r0, .L269+228
 3635 3540 FEFFFFEB 		bl	uart_transmit
 3636 3544 0510DDE5 		ldrb	r1, [sp, #5]	@ zero_extendqisi2
 3637 3548 0030D5E5 		ldrb	r3, [r5, #0]	@ zero_extendqisi2
 3638 354c 0020D4E5 		ldrb	r2, [r4, #0]	@ zero_extendqisi2
 3639 3550 033081E0 		add	r3, r1, r3
 3640 3554 FF3003E2 		and	r3, r3, #255
 3641 3558 0030C5E5 		strb	r3, [r5, #0]
 3642 355c 023083E0 		add	r3, r3, r2
 3643 3560 0030C4E5 		strb	r3, [r4, #0]
 3644 3564 E0041FE5 		ldr	r0, .L269+228
 3645 3568 FEFFFFEB 		bl	uart_transmit
 3646 356c 0610DDE5 		ldrb	r1, [sp, #6]	@ zero_extendqisi2
 3647 3570 0030D5E5 		ldrb	r3, [r5, #0]	@ zero_extendqisi2
 3648 3574 0020D4E5 		ldrb	r2, [r4, #0]	@ zero_extendqisi2
 3649 3578 033081E0 		add	r3, r1, r3
 3650 357c FF3003E2 		and	r3, r3, #255
 3651 3580 0030C5E5 		strb	r3, [r5, #0]
 3652 3584 023083E0 		add	r3, r3, r2
 3653 3588 0030C4E5 		strb	r3, [r4, #0]
 3654 358c 08051FE5 		ldr	r0, .L269+228
 3655 3590 FEFFFFEB 		bl	uart_transmit
 3656 3594 0710DDE5 		ldrb	r1, [sp, #7]	@ zero_extendqisi2
 3657 3598 0030D5E5 		ldrb	r3, [r5, #0]	@ zero_extendqisi2
 3658 359c 0020D4E5 		ldrb	r2, [r4, #0]	@ zero_extendqisi2
 3659 35a0 033081E0 		add	r3, r1, r3
 3660 35a4 FF3003E2 		and	r3, r3, #255
 3661 35a8 0030C5E5 		strb	r3, [r5, #0]
 3662 35ac 023083E0 		add	r3, r3, r2
 3663 35b0 0030C4E5 		strb	r3, [r4, #0]
 3664 35b4 30051FE5 		ldr	r0, .L269+228
 3665 35b8 FEFFFFEB 		bl	uart_transmit
 3666 35bc 0010DDE5 		ldrb	r1, [sp, #0]	@ zero_extendqisi2
 3667 35c0 0030D5E5 		ldrb	r3, [r5, #0]	@ zero_extendqisi2
 3668 35c4 0020D4E5 		ldrb	r2, [r4, #0]	@ zero_extendqisi2
 3669 35c8 033081E0 		add	r3, r1, r3
 3670 35cc FF3003E2 		and	r3, r3, #255
 3671 35d0 0030C5E5 		strb	r3, [r5, #0]
 3672 35d4 023083E0 		add	r3, r3, r2
 3673 35d8 0030C4E5 		strb	r3, [r4, #0]
 3674 35dc 58051FE5 		ldr	r0, .L269+228
 3675 35e0 FEFFFFEB 		bl	uart_transmit
 3676 35e4 0110DDE5 		ldrb	r1, [sp, #1]	@ zero_extendqisi2
 3677 35e8 0030D5E5 		ldrb	r3, [r5, #0]	@ zero_extendqisi2
 3678 35ec 0020D4E5 		ldrb	r2, [r4, #0]	@ zero_extendqisi2
 3679 35f0 033081E0 		add	r3, r1, r3
 3680 35f4 FF3003E2 		and	r3, r3, #255
 3681 35f8 0030C5E5 		strb	r3, [r5, #0]
 3682 35fc 023083E0 		add	r3, r3, r2
 3683 3600 0030C4E5 		strb	r3, [r4, #0]
 3684 3604 80051FE5 		ldr	r0, .L269+228
 3685 3608 FEFFFFEB 		bl	uart_transmit
 3686 360c 0210DDE5 		ldrb	r1, [sp, #2]	@ zero_extendqisi2
 3687 3610 0030D5E5 		ldrb	r3, [r5, #0]	@ zero_extendqisi2
 3688 3614 0020D4E5 		ldrb	r2, [r4, #0]	@ zero_extendqisi2
 3689 3618 033081E0 		add	r3, r1, r3
 3690 361c FF3003E2 		and	r3, r3, #255
 3691 3620 0030C5E5 		strb	r3, [r5, #0]
 3692 3624 023083E0 		add	r3, r3, r2
 3693 3628 0030C4E5 		strb	r3, [r4, #0]
 3694 362c A8051FE5 		ldr	r0, .L269+228
 3695 3630 FEFFFFEB 		bl	uart_transmit
 3696 3634 0310DDE5 		ldrb	r1, [sp, #3]	@ zero_extendqisi2
 3697 3638 0030D5E5 		ldrb	r3, [r5, #0]	@ zero_extendqisi2
 3698 363c 0020D4E5 		ldrb	r2, [r4, #0]	@ zero_extendqisi2
 3699 3640 033081E0 		add	r3, r1, r3
 3700 3644 FF3003E2 		and	r3, r3, #255
 3701 3648 0030C5E5 		strb	r3, [r5, #0]
 3702 364c 023083E0 		add	r3, r3, r2
 3703 3650 0030C4E5 		strb	r3, [r4, #0]
 3704 3654 D0051FE5 		ldr	r0, .L269+228
 3705 3658 FEFFFFEB 		bl	uart_transmit
 3706 365c 0C10DDE5 		ldrb	r1, [sp, #12]	@ zero_extendqisi2
 3707 3660 0030D5E5 		ldrb	r3, [r5, #0]	@ zero_extendqisi2
 3708 3664 0020D4E5 		ldrb	r2, [r4, #0]	@ zero_extendqisi2
 3709 3668 033081E0 		add	r3, r1, r3
 3710 366c FF3003E2 		and	r3, r3, #255
 3711 3670 0030C5E5 		strb	r3, [r5, #0]
 3712 3674 023083E0 		add	r3, r3, r2
 3713 3678 0030C4E5 		strb	r3, [r4, #0]
 3714 367c F8051FE5 		ldr	r0, .L269+228
 3715 3680 FEFFFFEB 		bl	uart_transmit
 3716 3684 0D10DDE5 		ldrb	r1, [sp, #13]	@ zero_extendqisi2
 3717 3688 0030D5E5 		ldrb	r3, [r5, #0]	@ zero_extendqisi2
 3718 368c 0020D4E5 		ldrb	r2, [r4, #0]	@ zero_extendqisi2
 3719 3690 033081E0 		add	r3, r1, r3
 3720 3694 FF3003E2 		and	r3, r3, #255
 3721 3698 0030C5E5 		strb	r3, [r5, #0]
 3722 369c 023083E0 		add	r3, r3, r2
 3723 36a0 0030C4E5 		strb	r3, [r4, #0]
 3724 36a4 20061FE5 		ldr	r0, .L269+228
 3725 36a8 FEFFFFEB 		bl	uart_transmit
 3726 36ac 0810DDE5 		ldrb	r1, [sp, #8]	@ zero_extendqisi2
 3727 36b0 0030D5E5 		ldrb	r3, [r5, #0]	@ zero_extendqisi2
 3728 36b4 0020D4E5 		ldrb	r2, [r4, #0]	@ zero_extendqisi2
 3729 36b8 033081E0 		add	r3, r1, r3
 3730 36bc FF3003E2 		and	r3, r3, #255
 3731 36c0 0030C5E5 		strb	r3, [r5, #0]
 3732 36c4 023083E0 		add	r3, r3, r2
 3733 36c8 0030C4E5 		strb	r3, [r4, #0]
 3734 36cc 48061FE5 		ldr	r0, .L269+228
 3735 36d0 FEFFFFEB 		bl	uart_transmit
 3736 36d4 0910DDE5 		ldrb	r1, [sp, #9]	@ zero_extendqisi2
 3737 36d8 0030D5E5 		ldrb	r3, [r5, #0]	@ zero_extendqisi2
 3738 36dc 0020D4E5 		ldrb	r2, [r4, #0]	@ zero_extendqisi2
 3739 36e0 033081E0 		add	r3, r1, r3
 3740 36e4 FF3003E2 		and	r3, r3, #255
 3741 36e8 0030C5E5 		strb	r3, [r5, #0]
 3742 36ec 023083E0 		add	r3, r3, r2
 3743 36f0 0030C4E5 		strb	r3, [r4, #0]
 3744 36f4 70061FE5 		ldr	r0, .L269+228
 3745 36f8 FEFFFFEB 		bl	uart_transmit
 3746 36fc 0A10DDE5 		ldrb	r1, [sp, #10]	@ zero_extendqisi2
 3747 3700 0030D5E5 		ldrb	r3, [r5, #0]	@ zero_extendqisi2
 3748 3704 0020D4E5 		ldrb	r2, [r4, #0]	@ zero_extendqisi2
 3749 3708 033081E0 		add	r3, r1, r3
 3750 370c FF3003E2 		and	r3, r3, #255
 3751 3710 0030C5E5 		strb	r3, [r5, #0]
 3752 3714 023083E0 		add	r3, r3, r2
 3753 3718 0030C4E5 		strb	r3, [r4, #0]
 3754 371c 98061FE5 		ldr	r0, .L269+228
 3755 3720 FEFFFFEB 		bl	uart_transmit
 3756 3724 0B10DDE5 		ldrb	r1, [sp, #11]	@ zero_extendqisi2
 3757 3728 0030D5E5 		ldrb	r3, [r5, #0]	@ zero_extendqisi2
 3758 372c 0020D4E5 		ldrb	r2, [r4, #0]	@ zero_extendqisi2
 3759 3730 033081E0 		add	r3, r1, r3
 3760 3734 FF3003E2 		and	r3, r3, #255
 3761 3738 0030C5E5 		strb	r3, [r5, #0]
 3762 373c 023083E0 		add	r3, r3, r2
 3763 3740 0030C4E5 		strb	r3, [r4, #0]
 3764 3744 C0061FE5 		ldr	r0, .L269+228
 3765 3748 FEFFFFEB 		bl	uart_transmit
 3766 374c 0010D5E5 		ldrb	r1, [r5, #0]	@ zero_extendqisi2
 3767 3750 CC061FE5 		ldr	r0, .L269+228
 3768 3754 FEFFFFEB 		bl	uart_transmit
 3769 3758 D4061FE5 		ldr	r0, .L269+228
 3770 375c 0010D4E5 		ldrb	r1, [r4, #0]	@ zero_extendqisi2
 3771 3760 FEFFFFEB 		bl	uart_transmit
 3772 3764 030000EA 		b	.L86
 3773              	.L87:
 3774 3768 38371FE5 		ldr	r3, .L269+144
 3775 376c 0020D3E5 		ldrb	r2, [r3, #0]	@ zero_extendqisi2
 3776 3770 012082E2 		add	r2, r2, #1
 3777 3774 0020C3E5 		strb	r2, [r3, #0]
 3778              	.L86:
 3779 3778 44371FE5 		ldr	r3, .L269+148
 3780 377c B030D3E1 		ldrh	r3, [r3, #0]
 3781 3780 300053E3 		cmp	r3, #48
 3782 3784 4600001A 		bne	.L88
 3783 3788 04071FE5 		ldr	r0, .L269+228
 3784 378c 1710A0E3 		mov	r1, #23
 3785 3790 FEFFFFEB 		bl	uart_check_free_space
 3786 3794 000050E3 		cmp	r0, #0
 3787 3798 0001000A 		beq	.L95
 3788 379c 34371FE5 		ldr	r3, .L269+200
 3789 37a0 B020D3E1 		ldrh	r2, [r3, #0]
 3790 37a4 172082E2 		add	r2, r2, #23
 3791 37a8 B020C3E1 		strh	r2, [r3, #0]	@ movhi
 3792 37ac 40371FE5 		ldr	r3, .L269+204
 3793 37b0 B020D3E1 		ldrh	r2, [r3, #0]
 3794 37b4 012082E2 		add	r2, r2, #1
 3795 37b8 B020C3E1 		strh	r2, [r3, #0]	@ movhi
 3796 37bc 38071FE5 		ldr	r0, .L269+228
 3797 37c0 9910A0E3 		mov	r1, #153
 3798 37c4 FEFFFFEB 		bl	uart_transmit
 3799 37c8 58571FE5 		ldr	r5, .L269+208
 3800 37cc 48071FE5 		ldr	r0, .L269+228
 3801 37d0 1710A0E3 		mov	r1, #23
 3802 37d4 FEFFFFEB 		bl	uart_transmit
 3803 37d8 64471FE5 		ldr	r4, .L269+212
 3804 37dc 1830A0E3 		mov	r3, #24
 3805 37e0 0030C5E5 		strb	r3, [r5, #0]
 3806 37e4 2F30A0E3 		mov	r3, #47
 3807 37e8 0030C4E5 		strb	r3, [r4, #0]
 3808 37ec 68071FE5 		ldr	r0, .L269+228
 3809 37f0 0110A0E3 		mov	r1, #1
 3810 37f4 FEFFFFEB 		bl	uart_transmit
 3811 37f8 0030D5E5 		ldrb	r3, [r5, #0]	@ zero_extendqisi2
 3812 37fc 0020D4E5 		ldrb	r2, [r4, #0]	@ zero_extendqisi2
 3813 3800 023083E2 		add	r3, r3, #2
 3814 3804 FF3003E2 		and	r3, r3, #255
 3815 3808 0030C5E5 		strb	r3, [r5, #0]
 3816 380c 023083E0 		add	r3, r3, r2
 3817 3810 0030C4E5 		strb	r3, [r4, #0]
 3818 3814 90071FE5 		ldr	r0, .L269+228
 3819 3818 0210A0E3 		mov	r1, #2
 3820 381c FEFFFFEB 		bl	uart_transmit
 3821 3820 0030D5E5 		ldrb	r3, [r5, #0]	@ zero_extendqisi2
 3822 3824 0020D4E5 		ldrb	r2, [r4, #0]	@ zero_extendqisi2
 3823 3828 103083E2 		add	r3, r3, #16
 3824 382c FF3003E2 		and	r3, r3, #255
 3825 3830 0030C5E5 		strb	r3, [r5, #0]
 3826 3834 023083E0 		add	r3, r3, r2
 3827 3838 0030C4E5 		strb	r3, [r4, #0]
 3828 383c B8071FE5 		ldr	r0, .L269+228
 3829 3840 1010A0E3 		mov	r1, #16
 3830 3844 FEFFFFEB 		bl	uart_transmit
 3831 3848 10781FE5 		ldr	r7, .L269+152
 3832 384c 0060A0E3 		mov	r6, #0
 3833              	.L90:
 3834 3850 0610D7E7 		ldrb	r1, [r7, r6]	@ zero_extendqisi2
 3835 3854 0030D5E5 		ldrb	r3, [r5, #0]	@ zero_extendqisi2
 3836 3858 0020D4E5 		ldrb	r2, [r4, #0]	@ zero_extendqisi2
 3837 385c 033081E0 		add	r3, r1, r3
 3838 3860 FF3003E2 		and	r3, r3, #255
 3839 3864 0030C5E5 		strb	r3, [r5, #0]
 3840 3868 023083E0 		add	r3, r3, r2
 3841 386c 0030C4E5 		strb	r3, [r4, #0]
 3842 3870 EC071FE5 		ldr	r0, .L269+228
 3843 3874 016086E2 		add	r6, r6, #1
 3844 3878 FEFFFFEB 		bl	uart_transmit
 3845 387c 100056E3 		cmp	r6, #16
 3846 3880 F2FFFF1A 		bne	.L90
 3847 3884 14381FE5 		ldr	r3, .L269+208
 3848 3888 04081FE5 		ldr	r0, .L269+228
 3849 388c 0010D3E5 		ldrb	r1, [r3, #0]	@ zero_extendqisi2
 3850 3890 FEFFFFEB 		bl	uart_transmit
 3851 3894 20381FE5 		ldr	r3, .L269+212
 3852 3898 14081FE5 		ldr	r0, .L269+228
 3853 389c 0010D3E5 		ldrb	r1, [r3, #0]	@ zero_extendqisi2
 3854 38a0 6A0000EA 		b	.L251
 3855              	.L88:
 3856 38a4 360053E3 		cmp	r3, #54
 3857 38a8 6A00001A 		bne	.L92
 3858 38ac 28081FE5 		ldr	r0, .L269+228
 3859 38b0 0C10A0E3 		mov	r1, #12
 3860 38b4 FEFFFFEB 		bl	uart_check_free_space
 3861 38b8 000050E3 		cmp	r0, #0
 3862 38bc B700000A 		beq	.L95
 3863 38c0 58381FE5 		ldr	r3, .L269+200
 3864 38c4 B020D3E1 		ldrh	r2, [r3, #0]
 3865 38c8 0C2082E2 		add	r2, r2, #12
 3866 38cc B020C3E1 		strh	r2, [r3, #0]	@ movhi
 3867 38d0 64381FE5 		ldr	r3, .L269+204
 3868 38d4 B020D3E1 		ldrh	r2, [r3, #0]
 3869 38d8 012082E2 		add	r2, r2, #1
 3870 38dc B020C3E1 		strh	r2, [r3, #0]	@ movhi
 3871 38e0 5C081FE5 		ldr	r0, .L269+228
 3872 38e4 9910A0E3 		mov	r1, #153
 3873 38e8 78581FE5 		ldr	r5, .L269+208
 3874 38ec FEFFFFEB 		bl	uart_transmit
 3875 38f0 6C081FE5 		ldr	r0, .L269+228
 3876 38f4 0C10A0E3 		mov	r1, #12
 3877 38f8 84481FE5 		ldr	r4, .L269+212
 3878 38fc FEFFFFEB 		bl	uart_transmit
 3879 3900 0D30A0E3 		mov	r3, #13
 3880 3904 0030C5E5 		strb	r3, [r5, #0]
 3881 3908 1930A0E3 		mov	r3, #25
 3882 390c 0030C4E5 		strb	r3, [r4, #0]
 3883 3910 8C081FE5 		ldr	r0, .L269+228
 3884 3914 0110A0E3 		mov	r1, #1
 3885 3918 FEFFFFEB 		bl	uart_transmit
 3886 391c 0030D5E5 		ldrb	r3, [r5, #0]	@ zero_extendqisi2
 3887 3920 0020D4E5 		ldrb	r2, [r4, #0]	@ zero_extendqisi2
 3888 3924 0B3083E2 		add	r3, r3, #11
 3889 3928 FF3003E2 		and	r3, r3, #255
 3890 392c 0030C5E5 		strb	r3, [r5, #0]
 3891 3930 023083E0 		add	r3, r3, r2
 3892 3934 0030C4E5 		strb	r3, [r4, #0]
 3893 3938 B4081FE5 		ldr	r0, .L269+228
 3894 393c 0B10A0E3 		mov	r1, #11
 3895 3940 FEFFFFEB 		bl	uart_transmit
 3896 3944 08391FE5 		ldr	r3, .L269+156
 3897 3948 0010D3E5 		ldrb	r1, [r3, #0]	@ zero_extendqisi2
 3898 394c 0030D5E5 		ldrb	r3, [r5, #0]	@ zero_extendqisi2
 3899 3950 0020D4E5 		ldrb	r2, [r4, #0]	@ zero_extendqisi2
 3900 3954 033081E0 		add	r3, r1, r3
 3901 3958 FF3003E2 		and	r3, r3, #255
 3902 395c 0030C5E5 		strb	r3, [r5, #0]
 3903 3960 023083E0 		add	r3, r3, r2
 3904 3964 0030C4E5 		strb	r3, [r4, #0]
 3905 3968 E4081FE5 		ldr	r0, .L269+228
 3906 396c FEFFFFEB 		bl	uart_transmit
 3907 3970 30391FE5 		ldr	r3, .L269+160
 3908 3974 0010D3E5 		ldrb	r1, [r3, #0]	@ zero_extendqisi2
 3909 3978 0030D5E5 		ldrb	r3, [r5, #0]	@ zero_extendqisi2
 3910 397c 0020D4E5 		ldrb	r2, [r4, #0]	@ zero_extendqisi2
 3911 3980 033081E0 		add	r3, r1, r3
 3912 3984 FF3003E2 		and	r3, r3, #255
 3913 3988 0030C5E5 		strb	r3, [r5, #0]
 3914 398c 023083E0 		add	r3, r3, r2
 3915 3990 0030C4E5 		strb	r3, [r4, #0]
 3916 3994 10091FE5 		ldr	r0, .L269+228
 3917 3998 FEFFFFEB 		bl	uart_transmit
 3918 399c 58391FE5 		ldr	r3, .L269+164
 3919 39a0 0010D3E5 		ldrb	r1, [r3, #0]	@ zero_extendqisi2
 3920 39a4 0030D5E5 		ldrb	r3, [r5, #0]	@ zero_extendqisi2
 3921 39a8 0020D4E5 		ldrb	r2, [r4, #0]	@ zero_extendqisi2
 3922 39ac 033081E0 		add	r3, r1, r3
 3923 39b0 FF3003E2 		and	r3, r3, #255
 3924 39b4 0030C5E5 		strb	r3, [r5, #0]
 3925 39b8 023083E0 		add	r3, r3, r2
 3926 39bc 0030C4E5 		strb	r3, [r4, #0]
 3927 39c0 3C091FE5 		ldr	r0, .L269+228
 3928 39c4 FEFFFFEB 		bl	uart_transmit
 3929 39c8 80391FE5 		ldr	r3, .L269+168
 3930 39cc 0010D3E5 		ldrb	r1, [r3, #0]	@ zero_extendqisi2
 3931 39d0 0030D5E5 		ldrb	r3, [r5, #0]	@ zero_extendqisi2
 3932 39d4 0020D4E5 		ldrb	r2, [r4, #0]	@ zero_extendqisi2
 3933 39d8 033081E0 		add	r3, r1, r3
 3934 39dc FF3003E2 		and	r3, r3, #255
 3935 39e0 0030C5E5 		strb	r3, [r5, #0]
 3936 39e4 023083E0 		add	r3, r3, r2
 3937 39e8 0030C4E5 		strb	r3, [r4, #0]
 3938 39ec 68091FE5 		ldr	r0, .L269+228
 3939 39f0 FEFFFFEB 		bl	uart_transmit
 3940 39f4 0020D4E5 		ldrb	r2, [r4, #0]	@ zero_extendqisi2
 3941 39f8 0030D5E5 		ldrb	r3, [r5, #0]	@ zero_extendqisi2
 3942 39fc 033082E0 		add	r3, r2, r3
 3943 3a00 0030C4E5 		strb	r3, [r4, #0]
 3944 3a04 0010A0E3 		mov	r1, #0
 3945 3a08 84091FE5 		ldr	r0, .L269+228
 3946 3a0c FEFFFFEB 		bl	uart_transmit
 3947 3a10 C4391FE5 		ldr	r3, .L269+172
 3948 3a14 0010D3E5 		ldrb	r1, [r3, #0]	@ zero_extendqisi2
 3949              	.L262:
 3950 3a18 0030D5E5 		ldrb	r3, [r5, #0]	@ zero_extendqisi2
 3951 3a1c 0020D4E5 		ldrb	r2, [r4, #0]	@ zero_extendqisi2
 3952 3a20 033081E0 		add	r3, r1, r3
 3953 3a24 FF3003E2 		and	r3, r3, #255
 3954 3a28 0030C5E5 		strb	r3, [r5, #0]
 3955 3a2c 023083E0 		add	r3, r3, r2
 3956 3a30 0030C4E5 		strb	r3, [r4, #0]
 3957 3a34 B0091FE5 		ldr	r0, .L269+228
 3958 3a38 FEFFFFEB 		bl	uart_transmit
 3959 3a3c B8091FE5 		ldr	r0, .L269+228
 3960 3a40 0010D5E5 		ldrb	r1, [r5, #0]	@ zero_extendqisi2
 3961 3a44 FEFFFFEB 		bl	uart_transmit
 3962 3a48 C4091FE5 		ldr	r0, .L269+228
 3963 3a4c 0010D4E5 		ldrb	r1, [r4, #0]	@ zero_extendqisi2
 3964              	.L251:
 3965 3a50 FEFFFFEB 		bl	uart_transmit
 3966 3a54 550000EA 		b	.L91
 3967              	.L92:
 3968 3a58 3C0053E3 		cmp	r3, #60
 3969 3a5c 5300000A 		beq	.L91
 3970 3a60 420053E3 		cmp	r3, #66
 3971 3a64 5100001A 		bne	.L91
 3972 3a68 183A1FE5 		ldr	r3, .L269+176
 3973 3a6c F661D3E1 		ldrsh	r6, [r3, #22]
 3974 3a70 F421D3E1 		ldrsh	r2, [r3, #20]
 3975 3a74 F831D3E1 		ldrsh	r3, [r3, #24]
 3976 3a78 000052E3 		cmp	r2, #0
 3977 3a7c 002062B2 		rsblt	r2, r2, #0
 3978 3a80 000056E3 		cmp	r6, #0
 3979 3a84 006066B2 		rsblt	r6, r6, #0
 3980 3a88 000053E3 		cmp	r3, #0
 3981 3a8c 003063B2 		rsblt	r3, r3, #0
 3982 3a90 026086E0 		add	r6, r6, r2
 3983 3a94 036086E0 		add	r6, r6, r3
 3984 3a98 0668A0E1 		mov	r6, r6, asl #16
 3985 3a9c 2668A0E1 		mov	r6, r6, lsr #16
 3986 3aa0 310056E3 		cmp	r6, #49
 3987 3aa4 200A1FE5 		ldr	r0, .L269+228
 3988 3aa8 0910A0E3 		mov	r1, #9
 3989 3aac BC60CDE1 		strh	r6, [sp, #12]	@ movhi
 3990 3ab0 0760A093 		movls	r6, #7
 3991 3ab4 0360A083 		movhi	r6, #3
 3992 3ab8 FEFFFFEB 		bl	uart_check_free_space
 3993 3abc 000050E3 		cmp	r0, #0
 3994 3ac0 3600000A 		beq	.L95
 3995 3ac4 5C3A1FE5 		ldr	r3, .L269+200
 3996 3ac8 B020D3E1 		ldrh	r2, [r3, #0]
 3997 3acc 092082E2 		add	r2, r2, #9
 3998 3ad0 B020C3E1 		strh	r2, [r3, #0]	@ movhi
 3999 3ad4 683A1FE5 		ldr	r3, .L269+204
 4000 3ad8 B020D3E1 		ldrh	r2, [r3, #0]
 4001 3adc 012082E2 		add	r2, r2, #1
 4002 3ae0 B020C3E1 		strh	r2, [r3, #0]	@ movhi
 4003 3ae4 600A1FE5 		ldr	r0, .L269+228
 4004 3ae8 9910A0E3 		mov	r1, #153
 4005 3aec 7C5A1FE5 		ldr	r5, .L269+208
 4006 3af0 FEFFFFEB 		bl	uart_transmit
 4007 3af4 700A1FE5 		ldr	r0, .L269+228
 4008 3af8 0910A0E3 		mov	r1, #9
 4009 3afc FEFFFFEB 		bl	uart_transmit
 4010 3b00 8C4A1FE5 		ldr	r4, .L269+212
 4011 3b04 0A30A0E3 		mov	r3, #10
 4012 3b08 0030C5E5 		strb	r3, [r5, #0]
 4013 3b0c 1330A0E3 		mov	r3, #19
 4014 3b10 0030C4E5 		strb	r3, [r4, #0]
 4015 3b14 900A1FE5 		ldr	r0, .L269+228
 4016 3b18 0110A0E3 		mov	r1, #1
 4017 3b1c FEFFFFEB 		bl	uart_transmit
 4018 3b20 0030D5E5 		ldrb	r3, [r5, #0]	@ zero_extendqisi2
 4019 3b24 0020D4E5 		ldrb	r2, [r4, #0]	@ zero_extendqisi2
 4020 3b28 183043E2 		sub	r3, r3, #24
 4021 3b2c FF3003E2 		and	r3, r3, #255
 4022 3b30 0030C5E5 		strb	r3, [r5, #0]
 4023 3b34 023083E0 		add	r3, r3, r2
 4024 3b38 0030C4E5 		strb	r3, [r4, #0]
 4025 3b3c B80A1FE5 		ldr	r0, .L269+228
 4026 3b40 E810A0E3 		mov	r1, #232
 4027 3b44 FEFFFFEB 		bl	uart_transmit
 4028 3b48 0030D5E5 		ldrb	r3, [r5, #0]	@ zero_extendqisi2
 4029 3b4c 0020D4E5 		ldrb	r2, [r4, #0]	@ zero_extendqisi2
 4030 3b50 033086E0 		add	r3, r6, r3
 4031 3b54 FF3003E2 		and	r3, r3, #255
 4032 3b58 0030C5E5 		strb	r3, [r5, #0]
 4033 3b5c 023083E0 		add	r3, r3, r2
 4034 3b60 0030C4E5 		strb	r3, [r4, #0]
 4035 3b64 E00A1FE5 		ldr	r0, .L269+228
 4036 3b68 0610A0E1 		mov	r1, r6
 4037 3b6c FEFFFFEB 		bl	uart_transmit
 4038 3b70 0C10DDE5 		ldrb	r1, [sp, #12]	@ zero_extendqisi2
 4039 3b74 0030D5E5 		ldrb	r3, [r5, #0]	@ zero_extendqisi2
 4040 3b78 0020D4E5 		ldrb	r2, [r4, #0]	@ zero_extendqisi2
 4041 3b7c 033081E0 		add	r3, r1, r3
 4042 3b80 FF3003E2 		and	r3, r3, #255
 4043 3b84 0030C5E5 		strb	r3, [r5, #0]
 4044 3b88 023083E0 		add	r3, r3, r2
 4045 3b8c 0030C4E5 		strb	r3, [r4, #0]
 4046 3b90 0C0B1FE5 		ldr	r0, .L269+228
 4047 3b94 FEFFFFEB 		bl	uart_transmit
 4048 3b98 0D10DDE5 		ldrb	r1, [sp, #13]	@ zero_extendqisi2
 4049 3b9c 9DFFFFEA 		b	.L262
 4050              	.L95:
 4051 3ba0 183B1FE5 		ldr	r3, .L269+232
 4052 3ba4 0020D3E5 		ldrb	r2, [r3, #0]	@ zero_extendqisi2
 4053 3ba8 012082E2 		add	r2, r2, #1
 4054 3bac 0020C3E5 		strb	r2, [r3, #0]
 4055              	.L91:
 4056 3bb0 5C3B1FE5 		ldr	r3, .L269+180
 4057 3bb4 B030D3E1 		ldrh	r3, [r3, #0]
 4058 3bb8 480053E3 		cmp	r3, #72
 4059 3bbc 6E00001A 		bne	.L96
 4060 3bc0 685B1FE5 		ldr	r5, .L269+184
 4061 3bc4 5C4B1FE5 		ldr	r4, .L269+200
 4062 3bc8 B000D5E1 		ldrh	r0, [r5, #0]
 4063 3bcc B060D4E1 		ldrh	r6, [r4, #0]
 4064 3bd0 060060E0 		rsb	r0, r0, r6
 4065 3bd4 FEFFFFEB 		bl	__aeabi_i2d
 4066 3bd8 7C2B1FE5 		ldr	r2, .L269+188
 4067 3bdc 7C3B1FE5 		ldr	r3, .L269+192
 4068 3be0 FEFFFFEB 		bl	__aeabi_ddiv
 4069 3be4 FEFFFFEB 		bl	__aeabi_d2uiz
 4070 3be8 B060C5E1 		strh	r6, [r5, #0]	@ movhi
 4071 3bec BC00CDE1 		strh	r0, [sp, #12]	@ movhi
 4072 3bf0 0B10A0E3 		mov	r1, #11
 4073 3bf4 700B1FE5 		ldr	r0, .L269+228
 4074 3bf8 FEFFFFEB 		bl	uart_check_free_space
 4075 3bfc 000050E3 		cmp	r0, #0
 4076 3c00 5900000A 		beq	.L97
 4077 3c04 B030D4E1 		ldrh	r3, [r4, #0]
 4078 3c08 9C6B1FE5 		ldr	r6, .L269+204
 4079 3c0c 0B3083E2 		add	r3, r3, #11
 4080 3c10 B030C4E1 		strh	r3, [r4, #0]	@ movhi
 4081 3c14 B030D6E1 		ldrh	r3, [r6, #0]
 4082 3c18 013083E2 		add	r3, r3, #1
 4083 3c1c B030C6E1 		strh	r3, [r6, #0]	@ movhi
 4084 3c20 9C0B1FE5 		ldr	r0, .L269+228
 4085 3c24 9910A0E3 		mov	r1, #153
 4086 3c28 B85B1FE5 		ldr	r5, .L269+208
 4087 3c2c FEFFFFEB 		bl	uart_transmit
 4088 3c30 AC0B1FE5 		ldr	r0, .L269+228
 4089 3c34 0B10A0E3 		mov	r1, #11
 4090 3c38 C44B1FE5 		ldr	r4, .L269+212
 4091 3c3c FEFFFFEB 		bl	uart_transmit
 4092 3c40 0C30A0E3 		mov	r3, #12
 4093 3c44 0030C5E5 		strb	r3, [r5, #0]
 4094 3c48 1730A0E3 		mov	r3, #23
 4095 3c4c 0030C4E5 		strb	r3, [r4, #0]
 4096 3c50 CC0B1FE5 		ldr	r0, .L269+228
 4097 3c54 0110A0E3 		mov	r1, #1
 4098 3c58 FEFFFFEB 		bl	uart_transmit
 4099 3c5c 0030D5E5 		ldrb	r3, [r5, #0]	@ zero_extendqisi2
 4100 3c60 0020D4E5 		ldrb	r2, [r4, #0]	@ zero_extendqisi2
 4101 3c64 1E3083E2 		add	r3, r3, #30
 4102 3c68 FF3003E2 		and	r3, r3, #255
 4103 3c6c 0030C5E5 		strb	r3, [r5, #0]
 4104 3c70 023083E0 		add	r3, r3, r2
 4105 3c74 0030C4E5 		strb	r3, [r4, #0]
 4106 3c78 F40B1FE5 		ldr	r0, .L269+228
 4107 3c7c 1E10A0E3 		mov	r1, #30
 4108 3c80 FEFFFFEB 		bl	uart_transmit
 4109 3c84 FC3B1FE5 		ldr	r3, .L269+232
 4110 3c88 0010D3E5 		ldrb	r1, [r3, #0]	@ zero_extendqisi2
 4111 3c8c 0030D5E5 		ldrb	r3, [r5, #0]	@ zero_extendqisi2
 4112 3c90 0020D4E5 		ldrb	r2, [r4, #0]	@ zero_extendqisi2
 4113 3c94 033081E0 		add	r3, r1, r3
 4114 3c98 FF3003E2 		and	r3, r3, #255
 4115 3c9c 0030C5E5 		strb	r3, [r5, #0]
 4116 3ca0 023083E0 		add	r3, r3, r2
 4117 3ca4 0030C4E5 		strb	r3, [r4, #0]
 4118 3ca8 240C1FE5 		ldr	r0, .L269+228
 4119 3cac FEFFFFEB 		bl	uart_transmit
 4120 3cb0 0C10DDE5 		ldrb	r1, [sp, #12]	@ zero_extendqisi2
 4121 3cb4 0030D5E5 		ldrb	r3, [r5, #0]	@ zero_extendqisi2
 4122 3cb8 0020D4E5 		ldrb	r2, [r4, #0]	@ zero_extendqisi2
 4123 3cbc 033081E0 		add	r3, r1, r3
 4124 3cc0 FF3003E2 		and	r3, r3, #255
 4125 3cc4 0030C5E5 		strb	r3, [r5, #0]
 4126 3cc8 023083E0 		add	r3, r3, r2
 4127 3ccc 0030C4E5 		strb	r3, [r4, #0]
 4128 3cd0 4C0C1FE5 		ldr	r0, .L269+228
 4129 3cd4 FEFFFFEB 		bl	uart_transmit
 4130 3cd8 0D10DDE5 		ldrb	r1, [sp, #13]	@ zero_extendqisi2
 4131 3cdc 0030D5E5 		ldrb	r3, [r5, #0]	@ zero_extendqisi2
 4132 3ce0 0020D4E5 		ldrb	r2, [r4, #0]	@ zero_extendqisi2
 4133 3ce4 033081E0 		add	r3, r1, r3
 4134 3ce8 FF3003E2 		and	r3, r3, #255
 4135 3cec 0030C5E5 		strb	r3, [r5, #0]
 4136 3cf0 023083E0 		add	r3, r3, r2
 4137 3cf4 0030C4E5 		strb	r3, [r4, #0]
 4138 3cf8 740C1FE5 		ldr	r0, .L269+228
 4139 3cfc FEFFFFEB 		bl	uart_transmit
 4140 3d00 0010D6E5 		ldrb	r1, [r6, #0]	@ zero_extendqisi2
 4141 3d04 0030D5E5 		ldrb	r3, [r5, #0]	@ zero_extendqisi2
 4142 3d08 0020D4E5 		ldrb	r2, [r4, #0]	@ zero_extendqisi2
 4143 3d0c 033081E0 		add	r3, r1, r3
 4144 3d10 FF3003E2 		and	r3, r3, #255
 4145 3d14 0030C5E5 		strb	r3, [r5, #0]
 4146 3d18 023083E0 		add	r3, r3, r2
 4147 3d1c 0030C4E5 		strb	r3, [r4, #0]
 4148 3d20 9C0C1FE5 		ldr	r0, .L269+228
 4149 3d24 FEFFFFEB 		bl	uart_transmit
 4150 3d28 0110D6E5 		ldrb	r1, [r6, #1]	@ zero_extendqisi2
 4151 3d2c 0030D5E5 		ldrb	r3, [r5, #0]	@ zero_extendqisi2
 4152 3d30 0020D4E5 		ldrb	r2, [r4, #0]	@ zero_extendqisi2
 4153 3d34 033081E0 		add	r3, r1, r3
 4154 3d38 FF3003E2 		and	r3, r3, #255
 4155 3d3c 0030C5E5 		strb	r3, [r5, #0]
 4156 3d40 023083E0 		add	r3, r3, r2
 4157 3d44 0030C4E5 		strb	r3, [r4, #0]
 4158 3d48 C40C1FE5 		ldr	r0, .L269+228
 4159 3d4c FEFFFFEB 		bl	uart_transmit
 4160 3d50 0010D5E5 		ldrb	r1, [r5, #0]	@ zero_extendqisi2
 4161 3d54 D00C1FE5 		ldr	r0, .L269+228
 4162 3d58 FEFFFFEB 		bl	uart_transmit
 4163 3d5c D80C1FE5 		ldr	r0, .L269+228
 4164 3d60 0010D4E5 		ldrb	r1, [r4, #0]	@ zero_extendqisi2
 4165 3d64 FEFFFFEB 		bl	uart_transmit
 4166 3d68 030000EA 		b	.L96
 4167              	.L97:
 4168 3d6c E43C1FE5 		ldr	r3, .L269+232
 4169 3d70 0020D3E5 		ldrb	r2, [r3, #0]	@ zero_extendqisi2
 4170 3d74 012082E2 		add	r2, r2, #1
 4171 3d78 0020C3E5 		strb	r2, [r3, #0]
 4172              	.L96:
 4173 3d7c 183D1FE5 		ldr	r3, .L269+196
 4174 3d80 B030D3E1 		ldrh	r3, [r3, #0]
 4175 3d84 4E0053E3 		cmp	r3, #78
 4176 3d88 8D00001A 		bne	.L21
 4177 3d8c 080D1FE5 		ldr	r0, .L269+228
 4178 3d90 0F10A0E3 		mov	r1, #15
 4179 3d94 FEFFFFEB 		bl	uart_check_free_space
 4180 3d98 000050E3 		cmp	r0, #0
 4181 3d9c 8400000A 		beq	.L98
 4182 3da0 383D1FE5 		ldr	r3, .L269+200
 4183 3da4 B020D3E1 		ldrh	r2, [r3, #0]
 4184 3da8 0F2082E2 		add	r2, r2, #15
 4185 3dac B020C3E1 		strh	r2, [r3, #0]	@ movhi
 4186 3db0 443D1FE5 		ldr	r3, .L269+204
 4187 3db4 B020D3E1 		ldrh	r2, [r3, #0]
 4188 3db8 012082E2 		add	r2, r2, #1
 4189 3dbc B020C3E1 		strh	r2, [r3, #0]	@ movhi
 4190 3dc0 3C0D1FE5 		ldr	r0, .L269+228
 4191 3dc4 9910A0E3 		mov	r1, #153
 4192 3dc8 585D1FE5 		ldr	r5, .L269+208
 4193 3dcc FEFFFFEB 		bl	uart_transmit
 4194 3dd0 4C0D1FE5 		ldr	r0, .L269+228
 4195 3dd4 0F10A0E3 		mov	r1, #15
 4196 3dd8 644D1FE5 		ldr	r4, .L269+212
 4197 3ddc FEFFFFEB 		bl	uart_transmit
 4198 3de0 1030A0E3 		mov	r3, #16
 4199 3de4 0030C5E5 		strb	r3, [r5, #0]
 4200 3de8 1F30A0E3 		mov	r3, #31
 4201 3dec 0030C4E5 		strb	r3, [r4, #0]
 4202 3df0 6C0D1FE5 		ldr	r0, .L269+228
 4203 3df4 0110A0E3 		mov	r1, #1
 4204 3df8 FEFFFFEB 		bl	uart_transmit
 4205 3dfc 0030D5E5 		ldrb	r3, [r5, #0]	@ zero_extendqisi2
 4206 3e00 0020D4E5 		ldrb	r2, [r4, #0]	@ zero_extendqisi2
 4207 3e04 093083E2 		add	r3, r3, #9
 4208 3e08 FF3003E2 		and	r3, r3, #255
 4209 3e0c 946D1FE5 		ldr	r6, .L269+216
 4210 3e10 0030C5E5 		strb	r3, [r5, #0]
 4211 3e14 023083E0 		add	r3, r3, r2
 4212 3e18 0030C4E5 		strb	r3, [r4, #0]
 4213 3e1c 980D1FE5 		ldr	r0, .L269+228
 4214 3e20 0910A0E3 		mov	r1, #9
 4215 3e24 FEFFFFEB 		bl	uart_transmit
 4216 3e28 0010D6E5 		ldrb	r1, [r6, #0]	@ zero_extendqisi2
 4217 3e2c 0030D5E5 		ldrb	r3, [r5, #0]	@ zero_extendqisi2
 4218 3e30 0020D4E5 		ldrb	r2, [r4, #0]	@ zero_extendqisi2
 4219 3e34 033081E0 		add	r3, r1, r3
 4220 3e38 FF3003E2 		and	r3, r3, #255
 4221 3e3c 0030C5E5 		strb	r3, [r5, #0]
 4222 3e40 023083E0 		add	r3, r3, r2
 4223 3e44 0030C4E5 		strb	r3, [r4, #0]
 4224 3e48 C40D1FE5 		ldr	r0, .L269+228
 4225 3e4c FEFFFFEB 		bl	uart_transmit
 4226 3e50 0110D6E5 		ldrb	r1, [r6, #1]	@ zero_extendqisi2
 4227 3e54 0030D5E5 		ldrb	r3, [r5, #0]	@ zero_extendqisi2
 4228 3e58 0020D4E5 		ldrb	r2, [r4, #0]	@ zero_extendqisi2
 4229 3e5c 033081E0 		add	r3, r1, r3
 4230 3e60 FF3003E2 		and	r3, r3, #255
 4231 3e64 0030C5E5 		strb	r3, [r5, #0]
 4232 3e68 023083E0 		add	r3, r3, r2
 4233 3e6c 0030C4E5 		strb	r3, [r4, #0]
 4234 3e70 EC0D1FE5 		ldr	r0, .L269+228
 4235 3e74 FEFFFFEB 		bl	uart_transmit
 4236 3e78 0210D6E5 		ldrb	r1, [r6, #2]	@ zero_extendqisi2
 4237 3e7c 0030D5E5 		ldrb	r3, [r5, #0]	@ zero_extendqisi2
 4238 3e80 0020D4E5 		ldrb	r2, [r4, #0]	@ zero_extendqisi2
 4239 3e84 033081E0 		add	r3, r1, r3
 4240 3e88 FF3003E2 		and	r3, r3, #255
 4241 3e8c 0030C5E5 		strb	r3, [r5, #0]
 4242 3e90 023083E0 		add	r3, r3, r2
 4243 3e94 0030C4E5 		strb	r3, [r4, #0]
 4244 3e98 140E1FE5 		ldr	r0, .L269+228
 4245 3e9c FEFFFFEB 		bl	uart_transmit
 4246 3ea0 0310D6E5 		ldrb	r1, [r6, #3]	@ zero_extendqisi2
 4247 3ea4 0030D5E5 		ldrb	r3, [r5, #0]	@ zero_extendqisi2
 4248 3ea8 0020D4E5 		ldrb	r2, [r4, #0]	@ zero_extendqisi2
 4249 3eac 033081E0 		add	r3, r1, r3
 4250 3eb0 FF3003E2 		and	r3, r3, #255
 4251 3eb4 386E1FE5 		ldr	r6, .L269+220
 4252 3eb8 0030C5E5 		strb	r3, [r5, #0]
 4253 3ebc 023083E0 		add	r3, r3, r2
 4254 3ec0 0030C4E5 		strb	r3, [r4, #0]
 4255 3ec4 400E1FE5 		ldr	r0, .L269+228
 4256 3ec8 FEFFFFEB 		bl	uart_transmit
 4257 3ecc 0010D6E5 		ldrb	r1, [r6, #0]	@ zero_extendqisi2
 4258 3ed0 0030D5E5 		ldrb	r3, [r5, #0]	@ zero_extendqisi2
 4259 3ed4 0020D4E5 		ldrb	r2, [r4, #0]	@ zero_extendqisi2
 4260 3ed8 033081E0 		add	r3, r1, r3
 4261 3edc FF3003E2 		and	r3, r3, #255
 4262 3ee0 0030C5E5 		strb	r3, [r5, #0]
 4263 3ee4 023083E0 		add	r3, r3, r2
 4264 3ee8 0030C4E5 		strb	r3, [r4, #0]
 4265 3eec 680E1FE5 		ldr	r0, .L269+228
 4266 3ef0 FEFFFFEB 		bl	uart_transmit
 4267 3ef4 0110D6E5 		ldrb	r1, [r6, #1]	@ zero_extendqisi2
 4268 3ef8 0030D5E5 		ldrb	r3, [r5, #0]	@ zero_extendqisi2
 4269 3efc 0020D4E5 		ldrb	r2, [r4, #0]	@ zero_extendqisi2
 4270 3f00 033081E0 		add	r3, r1, r3
 4271 3f04 FF3003E2 		and	r3, r3, #255
 4272 3f08 0030C5E5 		strb	r3, [r5, #0]
 4273 3f0c 023083E0 		add	r3, r3, r2
 4274 3f10 0030C4E5 		strb	r3, [r4, #0]
 4275 3f14 900E1FE5 		ldr	r0, .L269+228
 4276 3f18 FEFFFFEB 		bl	uart_transmit
 4277 3f1c 0210D6E5 		ldrb	r1, [r6, #2]	@ zero_extendqisi2
 4278 3f20 0030D5E5 		ldrb	r3, [r5, #0]	@ zero_extendqisi2
 4279 3f24 0020D4E5 		ldrb	r2, [r4, #0]	@ zero_extendqisi2
 4280 3f28 033081E0 		add	r3, r1, r3
 4281 3f2c FF3003E2 		and	r3, r3, #255
 4282 3f30 0030C5E5 		strb	r3, [r5, #0]
 4283 3f34 023083E0 		add	r3, r3, r2
 4284 3f38 0030C4E5 		strb	r3, [r4, #0]
 4285 3f3c B80E1FE5 		ldr	r0, .L269+228
 4286 3f40 FEFFFFEB 		bl	uart_transmit
 4287 3f44 0310D6E5 		ldrb	r1, [r6, #3]	@ zero_extendqisi2
 4288 3f48 0030D5E5 		ldrb	r3, [r5, #0]	@ zero_extendqisi2
 4289 3f4c 0020D4E5 		ldrb	r2, [r4, #0]	@ zero_extendqisi2
 4290 3f50 033081E0 		add	r3, r1, r3
 4291 3f54 FF3003E2 		and	r3, r3, #255
 4292 3f58 0030C5E5 		strb	r3, [r5, #0]
 4293 3f5c 023083E0 		add	r3, r3, r2
 4294 3f60 0030C4E5 		strb	r3, [r4, #0]
 4295 3f64 E00E1FE5 		ldr	r0, .L269+228
 4296 3f68 FEFFFFEB 		bl	uart_transmit
 4297 3f6c EC3E1FE5 		ldr	r3, .L269+224
 4298 3f70 0010D3E5 		ldrb	r1, [r3, #0]	@ zero_extendqisi2
 4299 3f74 0030D5E5 		ldrb	r3, [r5, #0]	@ zero_extendqisi2
 4300 3f78 0020D4E5 		ldrb	r2, [r4, #0]	@ zero_extendqisi2
 4301 3f7c 033081E0 		add	r3, r1, r3
 4302 3f80 FF3003E2 		and	r3, r3, #255
 4303 3f84 0030C5E5 		strb	r3, [r5, #0]
 4304 3f88 023083E0 		add	r3, r3, r2
 4305 3f8c 0030C4E5 		strb	r3, [r4, #0]
 4306 3f90 0C0F1FE5 		ldr	r0, .L269+228
 4307 3f94 FEFFFFEB 		bl	uart_transmit
 4308 3f98 0010D5E5 		ldrb	r1, [r5, #0]	@ zero_extendqisi2
 4309 3f9c 180F1FE5 		ldr	r0, .L269+228
 4310 3fa0 FEFFFFEB 		bl	uart_transmit
 4311 3fa4 200F1FE5 		ldr	r0, .L269+228
 4312 3fa8 0010D4E5 		ldrb	r1, [r4, #0]	@ zero_extendqisi2
 4313 3fac FEFFFFEB 		bl	uart_transmit
 4314 3fb0 030000EA 		b	.L21
 4315              	.L98:
 4316 3fb4 2C3F1FE5 		ldr	r3, .L269+232
 4317 3fb8 0020D3E5 		ldrb	r2, [r3, #0]	@ zero_extendqisi2
 4318 3fbc 012082E2 		add	r2, r2, #1
 4319 3fc0 0020C3E5 		strb	r2, [r3, #0]
 4320              	.L21:
 4321 3fc4 383F1FE5 		ldr	r3, .L269+236
 4322 3fc8 0030D3E5 		ldrb	r3, [r3, #0]	@ zero_extendqisi2
 4323 3fcc 010053E3 		cmp	r3, #1
 4324 3fd0 240F001A 		bne	.L99
 4325 3fd4 443F1FE5 		ldr	r3, .L269+240
 4326 3fd8 0020D3E5 		ldrb	r2, [r3, #0]	@ zero_extendqisi2
 4327 3fdc 012082E2 		add	r2, r2, #1
 4328 3fe0 FF2002E2 		and	r2, r2, #255
 4329 3fe4 3E0052E3 		cmp	r2, #62
 4330 3fe8 0020C3E5 		strb	r2, [r3, #0]
 4331 3fec 0020A083 		movhi	r2, #0
 4332 3ff0 0020C385 		strhib	r2, [r3, #0]
 4333 3ff4 603F1FE5 		ldr	r3, .L269+244
 4334 3ff8 0020D3E5 		ldrb	r2, [r3, #0]	@ zero_extendqisi2
 4335 3ffc 012082E2 		add	r2, r2, #1
 4336 4000 FF2002E2 		and	r2, r2, #255
 4337 4004 410052E3 		cmp	r2, #65
 4338 4008 0020C3E5 		strb	r2, [r3, #0]
 4339 400c 0020A083 		movhi	r2, #0
 4340 4010 0020C385 		strhib	r2, [r3, #0]
 4341 4014 7C3F1FE5 		ldr	r3, .L269+248
 4342 4018 0020D3E5 		ldrb	r2, [r3, #0]	@ zero_extendqisi2
 4343 401c 012082E2 		add	r2, r2, #1
 4344 4020 FF2002E2 		and	r2, r2, #255
 4345 4024 4D0052E3 		cmp	r2, #77
 4346 4028 0020C3E5 		strb	r2, [r3, #0]
 4347 402c 0020A083 		movhi	r2, #0
 4348 4030 0020C385 		strhib	r2, [r3, #0]
 4349 4034 983F1FE5 		ldr	r3, .L269+252
 4350 4038 0020D3E5 		ldrb	r2, [r3, #0]	@ zero_extendqisi2
 4351 403c 012082E2 		add	r2, r2, #1
 4352 4040 FF2002E2 		and	r2, r2, #255
 4353 4044 530052E3 		cmp	r2, #83
 4354 4048 0020C3E5 		strb	r2, [r3, #0]
 4355 404c 0020A083 		movhi	r2, #0
 4356 4050 0020C385 		strhib	r2, [r3, #0]
 4357 4054 B43F1FE5 		ldr	r3, .L269+256
 4358 4058 0020D3E5 		ldrb	r2, [r3, #0]	@ zero_extendqisi2
 4359 405c 012082E2 		add	r2, r2, #1
 4360 4060 FF2002E2 		and	r2, r2, #255
 4361 4064 590052E3 		cmp	r2, #89
 4362 4068 0020C3E5 		strb	r2, [r3, #0]
 4363 406c 0020A083 		movhi	r2, #0
 4364 4070 0020C385 		strhib	r2, [r3, #0]
 4365 4074 D03F1FE5 		ldr	r3, .L269+260
 4366 4078 0020D3E5 		ldrb	r2, [r3, #0]	@ zero_extendqisi2
 4367 407c 012082E2 		add	r2, r2, #1
 4368 4080 FF2002E2 		and	r2, r2, #255
 4369 4084 7D0052E3 		cmp	r2, #125
 4370 4088 0020C3E5 		strb	r2, [r3, #0]
 4371 408c 0020A083 		movhi	r2, #0
 4372 4090 0020C385 		strhib	r2, [r3, #0]
 4373 4094 EC3F1FE5 		ldr	r3, .L269+264
 4374 4098 0020D3E5 		ldrb	r2, [r3, #0]	@ zero_extendqisi2
 4375 409c 012082E2 		add	r2, r2, #1
 4376 40a0 FF2002E2 		and	r2, r2, #255
 4377 40a4 B30052E3 		cmp	r2, #179
 4378 40a8 0020C3E5 		strb	r2, [r3, #0]
 4379 40ac 0020A083 		movhi	r2, #0
 4380 40b0 0020C385 		strhib	r2, [r3, #0]
 4381 40b4 803F9FE5 		ldr	r3, .L271+236
 4382 40b8 0020D3E5 		ldrb	r2, [r3, #0]	@ zero_extendqisi2
 4383 40bc 012082E2 		add	r2, r2, #1
 4384 40c0 FF2002E2 		and	r2, r2, #255
 4385 40c4 B60052E3 		cmp	r2, #182
 4386 40c8 0020C3E5 		strb	r2, [r3, #0]
 4387 40cc 0020A083 		movhi	r2, #0
 4388 40d0 0020C385 		strhib	r2, [r3, #0]
 4389 40d4 743E9FE5 		ldr	r3, .L271
 4390 40d8 0020D3E5 		ldrb	r2, [r3, #0]	@ zero_extendqisi2
 4391 40dc 012082E2 		add	r2, r2, #1
 4392 40e0 FF2002E2 		and	r2, r2, #255
 4393 40e4 BF0052E3 		cmp	r2, #191
 4394 40e8 0020C3E5 		strb	r2, [r3, #0]
 4395 40ec 0020A083 		movhi	r2, #0
 4396 40f0 0020C385 		strhib	r2, [r3, #0]
 4397 40f4 583E9FE5 		ldr	r3, .L271+4
 4398 40f8 0020D3E5 		ldrb	r2, [r3, #0]	@ zero_extendqisi2
 4399 40fc 012082E2 		add	r2, r2, #1
 4400 4100 FF2002E2 		and	r2, r2, #255
 4401 4104 EF0052E3 		cmp	r2, #239
 4402 4108 0020C3E5 		strb	r2, [r3, #0]
 4403 410c 0020A083 		movhi	r2, #0
 4404 4110 0020C385 		strhib	r2, [r3, #0]
 4405 4114 3C3E9FE5 		ldr	r3, .L271+8
 4406 4118 0020D3E5 		ldrb	r2, [r3, #0]	@ zero_extendqisi2
 4407 411c 012082E2 		add	r2, r2, #1
 4408 4120 FF2002E2 		and	r2, r2, #255
 4409 4124 F20052E3 		cmp	r2, #242
 4410 4128 0020C3E5 		strb	r2, [r3, #0]
 4411 412c 0020A083 		movhi	r2, #0
 4412 4130 0020C385 		strhib	r2, [r3, #0]
 4413 4134 203E9FE5 		ldr	r3, .L271+12
 4414 4138 B020D3E1 		ldrh	r2, [r3, #0]
 4415 413c 012082E2 		add	r2, r2, #1
 4416 4140 0228A0E1 		mov	r2, r2, asl #16
 4417 4144 2228A0E1 		mov	r2, r2, lsr #16
 4418 4148 4B0F52E3 		cmp	r2, #300
 4419 414c B020C3E1 		strh	r2, [r3, #0]	@ movhi
 4420 4150 0020A023 		movcs	r2, #0
 4421 4154 B020C321 		strcsh	r2, [r3, #0]	@ movhi
 4422 4158 003E9FE5 		ldr	r3, .L271+16
 4423 415c B020D3E1 		ldrh	r2, [r3, #0]
 4424 4160 012082E2 		add	r2, r2, #1
 4425 4164 F81D9FE5 		ldr	r1, .L271+20
 4426 4168 0228A0E1 		mov	r2, r2, asl #16
 4427 416c 2228A0E1 		mov	r2, r2, lsr #16
 4428 4170 010052E1 		cmp	r2, r1
 4429 4174 B020C3E1 		strh	r2, [r3, #0]	@ movhi
 4430 4178 0020A083 		movhi	r2, #0
 4431 417c B020C381 		strhih	r2, [r3, #0]	@ movhi
 4432 4180 E03D9FE5 		ldr	r3, .L271+24
 4433 4184 B020D3E1 		ldrh	r2, [r3, #0]
 4434 4188 012082E2 		add	r2, r2, #1
 4435 418c 0228A0E1 		mov	r2, r2, asl #16
 4436 4190 2228A0E1 		mov	r2, r2, lsr #16
 4437 4194 4E0F52E3 		cmp	r2, #312
 4438 4198 B020C3E1 		strh	r2, [r3, #0]	@ movhi
 4439 419c 0020A023 		movcs	r2, #0
 4440 41a0 B020C321 		strcsh	r2, [r3, #0]	@ movhi
 4441 41a4 C03D9FE5 		ldr	r3, .L271+28
 4442 41a8 B020D3E1 		ldrh	r2, [r3, #0]
 4443 41ac 012082E2 		add	r2, r2, #1
 4444 41b0 0228A0E1 		mov	r2, r2, asl #16
 4445 41b4 2228A0E1 		mov	r2, r2, lsr #16
 4446 41b8 870F52E3 		cmp	r2, #540
 4447 41bc B020C3E1 		strh	r2, [r3, #0]	@ movhi
 4448 41c0 0020A023 		movcs	r2, #0
 4449 41c4 B020C321 		strcsh	r2, [r3, #0]	@ movhi
 4450 41c8 A03D9FE5 		ldr	r3, .L271+32
 4451 41cc B020D3E1 		ldrh	r2, [r3, #0]
 4452 41d0 012082E2 		add	r2, r2, #1
 4453 41d4 0228A0E1 		mov	r2, r2, asl #16
 4454 41d8 941D9FE5 		ldr	r1, .L271+36
 4455 41dc 2228A0E1 		mov	r2, r2, lsr #16
 4456 41e0 010052E1 		cmp	r2, r1
 4457 41e4 B020C3E1 		strh	r2, [r3, #0]	@ movhi
 4458 41e8 0020A083 		movhi	r2, #0
 4459 41ec B020C381 		strhih	r2, [r3, #0]	@ movhi
 4460 41f0 803D9FE5 		ldr	r3, .L271+40
 4461 41f4 0030D3E5 		ldrb	r3, [r3, #0]	@ zero_extendqisi2
 4462 41f8 000053E3 		cmp	r3, #0
 4463 41fc FA01001A 		bne	.L116
 4464 4200 EC4D9FE5 		ldr	r4, .L271+164
 4465 4204 403094E5 		ldr	r3, [r4, #64]
 4466 4208 480094E5 		ldr	r0, [r4, #72]
 4467 420c 003063E2 		rsb	r3, r3, #0
 4468 4210 BC30CDE1 		strh	r3, [sp, #12]	@ movhi
 4469 4214 FEFFFFEB 		bl	__aeabi_i2d
 4470 4218 5C2D9FE5 		ldr	r2, .L271+44
 4471 421c 5C3D9FE5 		ldr	r3, .L271+48
 4472 4220 FEFFFFEB 		bl	__aeabi_dmul
 4473 4224 0020A0E3 		mov	r2, #0
 4474 4228 543D9FE5 		ldr	r3, .L271+52
 4475 422c FEFFFFEB 		bl	__aeabi_ddiv
 4476 4230 FEFFFFEB 		bl	__aeabi_d2iz
 4477 4234 2110A0E3 		mov	r1, #33
 4478 4238 BE00CDE1 		strh	r0, [sp, #14]	@ movhi
 4479 423c 1C0E9FE5 		ldr	r0, .L271+272
 4480 4240 FEFFFFEB 		bl	uart_check_free_space
 4481 4244 000050E3 		cmp	r0, #0
 4482 4248 3601000A 		beq	.L117
 4483 424c F03D9FE5 		ldr	r3, .L271+244
 4484 4250 B020D3E1 		ldrh	r2, [r3, #0]
 4485 4254 212082E2 		add	r2, r2, #33
 4486 4258 B020C3E1 		strh	r2, [r3, #0]	@ movhi
 4487 425c E43D9FE5 		ldr	r3, .L271+248
 4488 4260 B020D3E1 		ldrh	r2, [r3, #0]
 4489 4264 012082E2 		add	r2, r2, #1
 4490 4268 B020C3E1 		strh	r2, [r3, #0]	@ movhi
 4491 426c EC0D9FE5 		ldr	r0, .L271+272
 4492 4270 9910A0E3 		mov	r1, #153
 4493 4274 D06D9FE5 		ldr	r6, .L271+252
 4494 4278 FEFFFFEB 		bl	uart_transmit
 4495 427c DC0D9FE5 		ldr	r0, .L271+272
 4496 4280 2110A0E3 		mov	r1, #33
 4497 4284 C45D9FE5 		ldr	r5, .L271+256
 4498 4288 FEFFFFEB 		bl	uart_transmit
 4499 428c 2230A0E3 		mov	r3, #34
 4500 4290 0030C6E5 		strb	r3, [r6, #0]
 4501 4294 4330A0E3 		mov	r3, #67
 4502 4298 0030C5E5 		strb	r3, [r5, #0]
 4503 429c BC0D9FE5 		ldr	r0, .L271+272
 4504 42a0 0110A0E3 		mov	r1, #1
 4505 42a4 FEFFFFEB 		bl	uart_transmit
 4506 42a8 0030D6E5 		ldrb	r3, [r6, #0]	@ zero_extendqisi2
 4507 42ac 0020D5E5 		ldrb	r2, [r5, #0]	@ zero_extendqisi2
 4508 42b0 083083E2 		add	r3, r3, #8
 4509 42b4 FF3003E2 		and	r3, r3, #255
 4510 42b8 0030C6E5 		strb	r3, [r6, #0]
 4511 42bc 023083E0 		add	r3, r3, r2
 4512 42c0 0030C5E5 		strb	r3, [r5, #0]
 4513 42c4 940D9FE5 		ldr	r0, .L271+272
 4514 42c8 0810A0E3 		mov	r1, #8
 4515 42cc FEFFFFEB 		bl	uart_transmit
 4516 42d0 5B10D4E5 		ldrb	r1, [r4, #91]	@ zero_extendqisi2
 4517 42d4 0030D6E5 		ldrb	r3, [r6, #0]	@ zero_extendqisi2
 4518 42d8 0020D5E5 		ldrb	r2, [r5, #0]	@ zero_extendqisi2
 4519 42dc 033081E0 		add	r3, r1, r3
 4520 42e0 FF3003E2 		and	r3, r3, #255
 4521 42e4 0030C6E5 		strb	r3, [r6, #0]
 4522 42e8 023083E0 		add	r3, r3, r2
 4523 42ec 0030C5E5 		strb	r3, [r5, #0]
 4524 42f0 680D9FE5 		ldr	r0, .L271+272
 4525 42f4 FEFFFFEB 		bl	uart_transmit
 4526 42f8 1C10D4E5 		ldrb	r1, [r4, #28]	@ zero_extendqisi2
 4527 42fc 0030D6E5 		ldrb	r3, [r6, #0]	@ zero_extendqisi2
 4528 4300 0020D5E5 		ldrb	r2, [r5, #0]	@ zero_extendqisi2
 4529 4304 033081E0 		add	r3, r1, r3
 4530 4308 FF3003E2 		and	r3, r3, #255
 4531 430c 0030C6E5 		strb	r3, [r6, #0]
 4532 4310 023083E0 		add	r3, r3, r2
 4533 4314 0030C5E5 		strb	r3, [r5, #0]
 4534 4318 400D9FE5 		ldr	r0, .L271+272
 4535 431c FEFFFFEB 		bl	uart_transmit
 4536 4320 1D10D4E5 		ldrb	r1, [r4, #29]	@ zero_extendqisi2
 4537 4324 0030D6E5 		ldrb	r3, [r6, #0]	@ zero_extendqisi2
 4538 4328 0020D5E5 		ldrb	r2, [r5, #0]	@ zero_extendqisi2
 4539 432c 033081E0 		add	r3, r1, r3
 4540 4330 FF3003E2 		and	r3, r3, #255
 4541 4334 0030C6E5 		strb	r3, [r6, #0]
 4542 4338 023083E0 		add	r3, r3, r2
 4543 433c 0030C5E5 		strb	r3, [r5, #0]
 4544 4340 180D9FE5 		ldr	r0, .L271+272
 4545 4344 FEFFFFEB 		bl	uart_transmit
 4546 4348 1E10D4E5 		ldrb	r1, [r4, #30]	@ zero_extendqisi2
 4547 434c 0030D6E5 		ldrb	r3, [r6, #0]	@ zero_extendqisi2
 4548 4350 0020D5E5 		ldrb	r2, [r5, #0]	@ zero_extendqisi2
 4549 4354 033081E0 		add	r3, r1, r3
 4550 4358 FF3003E2 		and	r3, r3, #255
 4551 435c 0030C6E5 		strb	r3, [r6, #0]
 4552 4360 023083E0 		add	r3, r3, r2
 4553 4364 0030C5E5 		strb	r3, [r5, #0]
 4554 4368 F00C9FE5 		ldr	r0, .L271+272
 4555 436c FEFFFFEB 		bl	uart_transmit
 4556 4370 1F10D4E5 		ldrb	r1, [r4, #31]	@ zero_extendqisi2
 4557 4374 0030D6E5 		ldrb	r3, [r6, #0]	@ zero_extendqisi2
 4558 4378 0020D5E5 		ldrb	r2, [r5, #0]	@ zero_extendqisi2
 4559 437c 033081E0 		add	r3, r1, r3
 4560 4380 FF3003E2 		and	r3, r3, #255
 4561 4384 0030C6E5 		strb	r3, [r6, #0]
 4562 4388 023083E0 		add	r3, r3, r2
 4563 438c 0030C5E5 		strb	r3, [r5, #0]
 4564 4390 C80C9FE5 		ldr	r0, .L271+272
 4565 4394 FEFFFFEB 		bl	uart_transmit
 4566 4398 1810D4E5 		ldrb	r1, [r4, #24]	@ zero_extendqisi2
 4567 439c 0030D6E5 		ldrb	r3, [r6, #0]	@ zero_extendqisi2
 4568 43a0 0020D5E5 		ldrb	r2, [r5, #0]	@ zero_extendqisi2
 4569 43a4 033081E0 		add	r3, r1, r3
 4570 43a8 FF3003E2 		and	r3, r3, #255
 4571 43ac 0030C6E5 		strb	r3, [r6, #0]
 4572 43b0 023083E0 		add	r3, r3, r2
 4573 43b4 0030C5E5 		strb	r3, [r5, #0]
 4574 43b8 A00C9FE5 		ldr	r0, .L271+272
 4575 43bc FEFFFFEB 		bl	uart_transmit
 4576 43c0 1910D4E5 		ldrb	r1, [r4, #25]	@ zero_extendqisi2
 4577 43c4 0030D6E5 		ldrb	r3, [r6, #0]	@ zero_extendqisi2
 4578 43c8 0020D5E5 		ldrb	r2, [r5, #0]	@ zero_extendqisi2
 4579 43cc 033081E0 		add	r3, r1, r3
 4580 43d0 FF3003E2 		and	r3, r3, #255
 4581 43d4 0030C6E5 		strb	r3, [r6, #0]
 4582 43d8 023083E0 		add	r3, r3, r2
 4583 43dc 0030C5E5 		strb	r3, [r5, #0]
 4584 43e0 780C9FE5 		ldr	r0, .L271+272
 4585 43e4 FEFFFFEB 		bl	uart_transmit
 4586 43e8 1A10D4E5 		ldrb	r1, [r4, #26]	@ zero_extendqisi2
 4587 43ec 0030D6E5 		ldrb	r3, [r6, #0]	@ zero_extendqisi2
 4588 43f0 0020D5E5 		ldrb	r2, [r5, #0]	@ zero_extendqisi2
 4589 43f4 033081E0 		add	r3, r1, r3
 4590 43f8 FF3003E2 		and	r3, r3, #255
 4591 43fc 0030C6E5 		strb	r3, [r6, #0]
 4592 4400 023083E0 		add	r3, r3, r2
 4593 4404 0030C5E5 		strb	r3, [r5, #0]
 4594 4408 500C9FE5 		ldr	r0, .L271+272
 4595 440c FEFFFFEB 		bl	uart_transmit
 4596 4410 1B10D4E5 		ldrb	r1, [r4, #27]	@ zero_extendqisi2
 4597 4414 0030D6E5 		ldrb	r3, [r6, #0]	@ zero_extendqisi2
 4598 4418 0020D5E5 		ldrb	r2, [r5, #0]	@ zero_extendqisi2
 4599 441c 033081E0 		add	r3, r1, r3
 4600 4420 FF3003E2 		and	r3, r3, #255
 4601 4424 0030C6E5 		strb	r3, [r6, #0]
 4602 4428 023083E0 		add	r3, r3, r2
 4603 442c 0030C5E5 		strb	r3, [r5, #0]
 4604 4430 280C9FE5 		ldr	r0, .L271+272
 4605 4434 FEFFFFEB 		bl	uart_transmit
 4606 4438 0E10DDE5 		ldrb	r1, [sp, #14]	@ zero_extendqisi2
 4607 443c 0030D6E5 		ldrb	r3, [r6, #0]	@ zero_extendqisi2
 4608 4440 0020D5E5 		ldrb	r2, [r5, #0]	@ zero_extendqisi2
 4609 4444 033081E0 		add	r3, r1, r3
 4610 4448 FF3003E2 		and	r3, r3, #255
 4611 444c 0030C6E5 		strb	r3, [r6, #0]
 4612 4450 023083E0 		add	r3, r3, r2
 4613 4454 0030C5E5 		strb	r3, [r5, #0]
 4614 4458 000C9FE5 		ldr	r0, .L271+272
 4615 445c FEFFFFEB 		bl	uart_transmit
 4616 4460 0F10DDE5 		ldrb	r1, [sp, #15]	@ zero_extendqisi2
 4617 4464 0030D6E5 		ldrb	r3, [r6, #0]	@ zero_extendqisi2
 4618 4468 0020D5E5 		ldrb	r2, [r5, #0]	@ zero_extendqisi2
 4619 446c 033081E0 		add	r3, r1, r3
 4620 4470 FF3003E2 		and	r3, r3, #255
 4621 4474 0030C6E5 		strb	r3, [r6, #0]
 4622 4478 023083E0 		add	r3, r3, r2
 4623 447c 0030C5E5 		strb	r3, [r5, #0]
 4624 4480 D80B9FE5 		ldr	r0, .L271+272
 4625 4484 FEFFFFEB 		bl	uart_transmit
 4626 4488 2810D4E5 		ldrb	r1, [r4, #40]	@ zero_extendqisi2
 4627 448c 0030D6E5 		ldrb	r3, [r6, #0]	@ zero_extendqisi2
 4628 4490 0020D5E5 		ldrb	r2, [r5, #0]	@ zero_extendqisi2
 4629 4494 033081E0 		add	r3, r1, r3
 4630 4498 FF3003E2 		and	r3, r3, #255
 4631 449c 0030C6E5 		strb	r3, [r6, #0]
 4632 44a0 023083E0 		add	r3, r3, r2
 4633 44a4 0030C5E5 		strb	r3, [r5, #0]
 4634 44a8 B00B9FE5 		ldr	r0, .L271+272
 4635 44ac FEFFFFEB 		bl	uart_transmit
 4636 44b0 2910D4E5 		ldrb	r1, [r4, #41]	@ zero_extendqisi2
 4637 44b4 0030D6E5 		ldrb	r3, [r6, #0]	@ zero_extendqisi2
 4638 44b8 0020D5E5 		ldrb	r2, [r5, #0]	@ zero_extendqisi2
 4639 44bc 033081E0 		add	r3, r1, r3
 4640 44c0 FF3003E2 		and	r3, r3, #255
 4641 44c4 0030C6E5 		strb	r3, [r6, #0]
 4642 44c8 023083E0 		add	r3, r3, r2
 4643 44cc 0030C5E5 		strb	r3, [r5, #0]
 4644 44d0 880B9FE5 		ldr	r0, .L271+272
 4645 44d4 FEFFFFEB 		bl	uart_transmit
 4646 44d8 2A10D4E5 		ldrb	r1, [r4, #42]	@ zero_extendqisi2
 4647 44dc 0030D6E5 		ldrb	r3, [r6, #0]	@ zero_extendqisi2
 4648 44e0 0020D5E5 		ldrb	r2, [r5, #0]	@ zero_extendqisi2
 4649 44e4 033081E0 		add	r3, r1, r3
 4650 44e8 FF3003E2 		and	r3, r3, #255
 4651 44ec 0030C6E5 		strb	r3, [r6, #0]
 4652 44f0 023083E0 		add	r3, r3, r2
 4653 44f4 0030C5E5 		strb	r3, [r5, #0]
 4654 44f8 600B9FE5 		ldr	r0, .L271+272
 4655 44fc FEFFFFEB 		bl	uart_transmit
 4656 4500 2B10D4E5 		ldrb	r1, [r4, #43]	@ zero_extendqisi2
 4657 4504 0030D6E5 		ldrb	r3, [r6, #0]	@ zero_extendqisi2
 4658 4508 0020D5E5 		ldrb	r2, [r5, #0]	@ zero_extendqisi2
 4659 450c 033081E0 		add	r3, r1, r3
 4660 4510 FF3003E2 		and	r3, r3, #255
 4661 4514 0030C6E5 		strb	r3, [r6, #0]
 4662 4518 023083E0 		add	r3, r3, r2
 4663 451c 0030C5E5 		strb	r3, [r5, #0]
 4664 4520 380B9FE5 		ldr	r0, .L271+272
 4665 4524 FEFFFFEB 		bl	uart_transmit
 4666 4528 4410D4E5 		ldrb	r1, [r4, #68]	@ zero_extendqisi2
 4667 452c 0030D6E5 		ldrb	r3, [r6, #0]	@ zero_extendqisi2
 4668 4530 0020D5E5 		ldrb	r2, [r5, #0]	@ zero_extendqisi2
 4669 4534 033081E0 		add	r3, r1, r3
 4670 4538 FF3003E2 		and	r3, r3, #255
 4671 453c 0030C6E5 		strb	r3, [r6, #0]
 4672 4540 023083E0 		add	r3, r3, r2
 4673 4544 0030C5E5 		strb	r3, [r5, #0]
 4674 4548 100B9FE5 		ldr	r0, .L271+272
 4675 454c FEFFFFEB 		bl	uart_transmit
 4676 4550 4510D4E5 		ldrb	r1, [r4, #69]	@ zero_extendqisi2
 4677 4554 0030D6E5 		ldrb	r3, [r6, #0]	@ zero_extendqisi2
 4678 4558 0020D5E5 		ldrb	r2, [r5, #0]	@ zero_extendqisi2
 4679 455c 033081E0 		add	r3, r1, r3
 4680 4560 FF3003E2 		and	r3, r3, #255
 4681 4564 0030C6E5 		strb	r3, [r6, #0]
 4682 4568 023083E0 		add	r3, r3, r2
 4683 456c 0030C5E5 		strb	r3, [r5, #0]
 4684 4570 E80A9FE5 		ldr	r0, .L271+272
 4685 4574 FEFFFFEB 		bl	uart_transmit
 4686 4578 0C10DDE5 		ldrb	r1, [sp, #12]	@ zero_extendqisi2
 4687 457c 0030D6E5 		ldrb	r3, [r6, #0]	@ zero_extendqisi2
 4688 4580 0020D5E5 		ldrb	r2, [r5, #0]	@ zero_extendqisi2
 4689 4584 033081E0 		add	r3, r1, r3
 4690 4588 FF3003E2 		and	r3, r3, #255
 4691 458c 0030C6E5 		strb	r3, [r6, #0]
 4692 4590 023083E0 		add	r3, r3, r2
 4693 4594 0030C5E5 		strb	r3, [r5, #0]
 4694 4598 C00A9FE5 		ldr	r0, .L271+272
 4695 459c FEFFFFEB 		bl	uart_transmit
 4696 45a0 0D10DDE5 		ldrb	r1, [sp, #13]	@ zero_extendqisi2
 4697 45a4 0030D6E5 		ldrb	r3, [r6, #0]	@ zero_extendqisi2
 4698 45a8 0020D5E5 		ldrb	r2, [r5, #0]	@ zero_extendqisi2
 4699 45ac 033081E0 		add	r3, r1, r3
 4700 45b0 FF3003E2 		and	r3, r3, #255
 4701 45b4 0030C6E5 		strb	r3, [r6, #0]
 4702 45b8 023083E0 		add	r3, r3, r2
 4703 45bc 0030C5E5 		strb	r3, [r5, #0]
 4704 45c0 980A9FE5 		ldr	r0, .L271+272
 4705 45c4 FEFFFFEB 		bl	uart_transmit
 4706 45c8 5C10D4E5 		ldrb	r1, [r4, #92]	@ zero_extendqisi2
 4707 45cc 0030D6E5 		ldrb	r3, [r6, #0]	@ zero_extendqisi2
 4708 45d0 0020D5E5 		ldrb	r2, [r5, #0]	@ zero_extendqisi2
 4709 45d4 033081E0 		add	r3, r1, r3
 4710 45d8 FF3003E2 		and	r3, r3, #255
 4711 45dc 0030C6E5 		strb	r3, [r6, #0]
 4712 45e0 023083E0 		add	r3, r3, r2
 4713 45e4 0030C5E5 		strb	r3, [r5, #0]
 4714 45e8 700A9FE5 		ldr	r0, .L271+272
 4715 45ec FEFFFFEB 		bl	uart_transmit
 4716 45f0 5D10D4E5 		ldrb	r1, [r4, #93]	@ zero_extendqisi2
 4717 45f4 0030D6E5 		ldrb	r3, [r6, #0]	@ zero_extendqisi2
 4718 45f8 0020D5E5 		ldrb	r2, [r5, #0]	@ zero_extendqisi2
 4719 45fc 033081E0 		add	r3, r1, r3
 4720 4600 FF3003E2 		and	r3, r3, #255
 4721 4604 0030C6E5 		strb	r3, [r6, #0]
 4722 4608 023083E0 		add	r3, r3, r2
 4723 460c 0030C5E5 		strb	r3, [r5, #0]
 4724 4610 480A9FE5 		ldr	r0, .L271+272
 4725 4614 FEFFFFEB 		bl	uart_transmit
 4726 4618 6010D4E5 		ldrb	r1, [r4, #96]	@ zero_extendqisi2
 4727 461c 0030D6E5 		ldrb	r3, [r6, #0]	@ zero_extendqisi2
 4728 4620 0020D5E5 		ldrb	r2, [r5, #0]	@ zero_extendqisi2
 4729 4624 033081E0 		add	r3, r1, r3
 4730 4628 FF3003E2 		and	r3, r3, #255
 4731 462c 0030C6E5 		strb	r3, [r6, #0]
 4732 4630 023083E0 		add	r3, r3, r2
 4733 4634 0030C5E5 		strb	r3, [r5, #0]
 4734 4638 200A9FE5 		ldr	r0, .L271+272
 4735 463c FEFFFFEB 		bl	uart_transmit
 4736 4640 6110D4E5 		ldrb	r1, [r4, #97]	@ zero_extendqisi2
 4737 4644 0030D6E5 		ldrb	r3, [r6, #0]	@ zero_extendqisi2
 4738 4648 0020D5E5 		ldrb	r2, [r5, #0]	@ zero_extendqisi2
 4739 464c 033081E0 		add	r3, r1, r3
 4740 4650 FF3003E2 		and	r3, r3, #255
 4741 4654 0030C6E5 		strb	r3, [r6, #0]
 4742 4658 023083E0 		add	r3, r3, r2
 4743 465c 0030C5E5 		strb	r3, [r5, #0]
 4744 4660 F8099FE5 		ldr	r0, .L271+272
 4745 4664 FEFFFFEB 		bl	uart_transmit
 4746 4668 6210D4E5 		ldrb	r1, [r4, #98]	@ zero_extendqisi2
 4747 466c 0030D6E5 		ldrb	r3, [r6, #0]	@ zero_extendqisi2
 4748 4670 0020D5E5 		ldrb	r2, [r5, #0]	@ zero_extendqisi2
 4749 4674 033081E0 		add	r3, r1, r3
 4750 4678 FF3003E2 		and	r3, r3, #255
 4751 467c 0030C6E5 		strb	r3, [r6, #0]
 4752 4680 023083E0 		add	r3, r3, r2
 4753 4684 0030C5E5 		strb	r3, [r5, #0]
 4754 4688 D0099FE5 		ldr	r0, .L271+272
 4755 468c FEFFFFEB 		bl	uart_transmit
 4756 4690 6310D4E5 		ldrb	r1, [r4, #99]	@ zero_extendqisi2
 4757 4694 0030D6E5 		ldrb	r3, [r6, #0]	@ zero_extendqisi2
 4758 4698 0020D5E5 		ldrb	r2, [r5, #0]	@ zero_extendqisi2
 4759 469c 033081E0 		add	r3, r1, r3
 4760 46a0 FF3003E2 		and	r3, r3, #255
 4761 46a4 0030C6E5 		strb	r3, [r6, #0]
 4762 46a8 023083E0 		add	r3, r3, r2
 4763 46ac 0030C5E5 		strb	r3, [r5, #0]
 4764 46b0 A8099FE5 		ldr	r0, .L271+272
 4765 46b4 FEFFFFEB 		bl	uart_transmit
 4766 46b8 2410D4E5 		ldrb	r1, [r4, #36]	@ zero_extendqisi2
 4767 46bc 0030D6E5 		ldrb	r3, [r6, #0]	@ zero_extendqisi2
 4768 46c0 0020D5E5 		ldrb	r2, [r5, #0]	@ zero_extendqisi2
 4769 46c4 033081E0 		add	r3, r1, r3
 4770 46c8 FF3003E2 		and	r3, r3, #255
 4771 46cc 0030C6E5 		strb	r3, [r6, #0]
 4772 46d0 023083E0 		add	r3, r3, r2
 4773 46d4 0030C5E5 		strb	r3, [r5, #0]
 4774 46d8 80099FE5 		ldr	r0, .L271+272
 4775 46dc FEFFFFEB 		bl	uart_transmit
 4776 46e0 A0389FE5 		ldr	r3, .L271+56
 4777 46e4 0010D3E5 		ldrb	r1, [r3, #0]	@ zero_extendqisi2
 4778 46e8 0030D6E5 		ldrb	r3, [r6, #0]	@ zero_extendqisi2
 4779 46ec 0020D5E5 		ldrb	r2, [r5, #0]	@ zero_extendqisi2
 4780 46f0 033081E0 		add	r3, r1, r3
 4781 46f4 FF3003E2 		and	r3, r3, #255
 4782 46f8 0030C6E5 		strb	r3, [r6, #0]
 4783 46fc 023083E0 		add	r3, r3, r2
 4784 4700 0030C5E5 		strb	r3, [r5, #0]
 4785 4704 54099FE5 		ldr	r0, .L271+272
 4786 4708 FEFFFFEB 		bl	uart_transmit
 4787 470c 0010D6E5 		ldrb	r1, [r6, #0]	@ zero_extendqisi2
 4788 4710 48099FE5 		ldr	r0, .L271+272
 4789 4714 FEFFFFEB 		bl	uart_transmit
 4790 4718 40099FE5 		ldr	r0, .L271+272
 4791 471c 0010D5E5 		ldrb	r1, [r5, #0]	@ zero_extendqisi2
 4792 4720 FEFFFFEB 		bl	uart_transmit
 4793 4724 030000EA 		b	.L118
 4794              	.L117:
 4795 4728 08399FE5 		ldr	r3, .L271+232
 4796 472c 0020D3E5 		ldrb	r2, [r3, #0]	@ zero_extendqisi2
 4797 4730 012082E2 		add	r2, r2, #1
 4798 4734 0020C3E5 		strb	r2, [r3, #0]
 4799              	.L118:
 4800 4738 B4289FE5 		ldr	r2, .L271+164
 4801 473c 5B30D2E5 		ldrb	r3, [r2, #91]	@ zero_extendqisi2
 4802 4740 030053E3 		cmp	r3, #3
 4803 4744 3C389FE5 		ldr	r3, .L271+56
 4804 4748 0400000A 		beq	.L119
 4805 474c 6410D2E5 		ldrb	r1, [r2, #100]	@ zero_extendqisi2
 4806 4750 0000D3E5 		ldrb	r0, [r3, #0]	@ zero_extendqisi2
 4807 4754 010050E1 		cmp	r0, r1
 4808 4758 0010A023 		movcs	r1, #0
 4809 475c 0010C325 		strcsb	r1, [r3, #0]
 4810              	.L119:
 4811 4760 0030D3E5 		ldrb	r3, [r3, #0]	@ zero_extendqisi2
 4812 4764 6420D2E5 		ldrb	r2, [r2, #100]	@ zero_extendqisi2
 4813 4768 820053E1 		cmp	r3, r2, asl #1
 4814 476c 14389FA5 		ldrge	r3, .L271+56
 4815 4770 0010A0A3 		movge	r1, #0
 4816 4774 0010C3A5 		strgeb	r1, [r3, #0]
 4817 4778 08689FE5 		ldr	r6, .L271+56
 4818 477c 0030D6E5 		ldrb	r3, [r6, #0]	@ zero_extendqisi2
 4819 4780 020053E1 		cmp	r3, r2
 4820 4784 9400002A 		bcs	.L121
 4821 4788 64789FE5 		ldr	r7, .L271+164
 4822 478c 833187E0 		add	r3, r7, r3, asl #3
 4823 4790 6930D3E5 		ldrb	r3, [r3, #105]	@ zero_extendqisi2
 4824 4794 000053E3 		cmp	r3, #0
 4825 4798 8F00000A 		beq	.L121
 4826 479c BC089FE5 		ldr	r0, .L271+272
 4827 47a0 0E10A0E3 		mov	r1, #14
 4828 47a4 FEFFFFEB 		bl	uart_check_free_space
 4829 47a8 000050E3 		cmp	r0, #0
 4830 47ac 8600000A 		beq	.L122
 4831 47b0 8C389FE5 		ldr	r3, .L271+244
 4832 47b4 B020D3E1 		ldrh	r2, [r3, #0]
 4833 47b8 0E2082E2 		add	r2, r2, #14
 4834 47bc B020C3E1 		strh	r2, [r3, #0]	@ movhi
 4835 47c0 80389FE5 		ldr	r3, .L271+248
 4836 47c4 B020D3E1 		ldrh	r2, [r3, #0]
 4837 47c8 012082E2 		add	r2, r2, #1
 4838 47cc B020C3E1 		strh	r2, [r3, #0]	@ movhi
 4839 47d0 88089FE5 		ldr	r0, .L271+272
 4840 47d4 9910A0E3 		mov	r1, #153
 4841 47d8 6C589FE5 		ldr	r5, .L271+252
 4842 47dc FEFFFFEB 		bl	uart_transmit
 4843 47e0 78089FE5 		ldr	r0, .L271+272
 4844 47e4 0E10A0E3 		mov	r1, #14
 4845 47e8 60489FE5 		ldr	r4, .L271+256
 4846 47ec FEFFFFEB 		bl	uart_transmit
 4847 47f0 0F30A0E3 		mov	r3, #15
 4848 47f4 0030C5E5 		strb	r3, [r5, #0]
 4849 47f8 1D30A0E3 		mov	r3, #29
 4850 47fc 0030C4E5 		strb	r3, [r4, #0]
 4851 4800 58089FE5 		ldr	r0, .L271+272
 4852 4804 0110A0E3 		mov	r1, #1
 4853 4808 FEFFFFEB 		bl	uart_transmit
 4854 480c 0030D5E5 		ldrb	r3, [r5, #0]	@ zero_extendqisi2
 4855 4810 0020D4E5 		ldrb	r2, [r4, #0]	@ zero_extendqisi2
 4856 4814 193083E2 		add	r3, r3, #25
 4857 4818 FF3003E2 		and	r3, r3, #255
 4858 481c 0030C5E5 		strb	r3, [r5, #0]
 4859 4820 023083E0 		add	r3, r3, r2
 4860 4824 0030C4E5 		strb	r3, [r4, #0]
 4861 4828 30089FE5 		ldr	r0, .L271+272
 4862 482c 1910A0E3 		mov	r1, #25
 4863 4830 FEFFFFEB 		bl	uart_transmit
 4864 4834 0010D6E5 		ldrb	r1, [r6, #0]	@ zero_extendqisi2
 4865 4838 0030D5E5 		ldrb	r3, [r5, #0]	@ zero_extendqisi2
 4866 483c 0020D4E5 		ldrb	r2, [r4, #0]	@ zero_extendqisi2
 4867 4840 033081E0 		add	r3, r1, r3
 4868 4844 FF3003E2 		and	r3, r3, #255
 4869 4848 0030C5E5 		strb	r3, [r5, #0]
 4870 484c 023083E0 		add	r3, r3, r2
 4871 4850 0030C4E5 		strb	r3, [r4, #0]
 4872 4854 04089FE5 		ldr	r0, .L271+272
 4873 4858 FEFFFFEB 		bl	uart_transmit
 4874 485c 0030D6E5 		ldrb	r3, [r6, #0]	@ zero_extendqisi2
 4875 4860 833187E0 		add	r3, r7, r3, asl #3
 4876 4864 6610D3E5 		ldrb	r1, [r3, #102]	@ zero_extendqisi2
 4877 4868 0030D5E5 		ldrb	r3, [r5, #0]	@ zero_extendqisi2
 4878 486c 0020D4E5 		ldrb	r2, [r4, #0]	@ zero_extendqisi2
 4879 4870 033081E0 		add	r3, r1, r3
 4880 4874 FF3003E2 		and	r3, r3, #255
 4881 4878 0030C5E5 		strb	r3, [r5, #0]
 4882 487c 023083E0 		add	r3, r3, r2
 4883 4880 0030C4E5 		strb	r3, [r4, #0]
 4884 4884 D4079FE5 		ldr	r0, .L271+272
 4885 4888 FEFFFFEB 		bl	uart_transmit
 4886 488c 0030D6E5 		ldrb	r3, [r6, #0]	@ zero_extendqisi2
 4887 4890 833187E0 		add	r3, r7, r3, asl #3
 4888 4894 6710D3E5 		ldrb	r1, [r3, #103]	@ zero_extendqisi2
 4889 4898 0030D5E5 		ldrb	r3, [r5, #0]	@ zero_extendqisi2
 4890 489c 0020D4E5 		ldrb	r2, [r4, #0]	@ zero_extendqisi2
 4891 48a0 033081E0 		add	r3, r1, r3
 4892 48a4 FF3003E2 		and	r3, r3, #255
 4893 48a8 0030C5E5 		strb	r3, [r5, #0]
 4894 48ac 023083E0 		add	r3, r3, r2
 4895 48b0 0030C4E5 		strb	r3, [r4, #0]
 4896 48b4 A4079FE5 		ldr	r0, .L271+272
 4897 48b8 FEFFFFEB 		bl	uart_transmit
 4898 48bc 0030D6E5 		ldrb	r3, [r6, #0]	@ zero_extendqisi2
 4899 48c0 833187E0 		add	r3, r7, r3, asl #3
 4900 48c4 6810D3E5 		ldrb	r1, [r3, #104]	@ zero_extendqisi2
 4901 48c8 0030D5E5 		ldrb	r3, [r5, #0]	@ zero_extendqisi2
 4902 48cc 0020D4E5 		ldrb	r2, [r4, #0]	@ zero_extendqisi2
 4903 48d0 033081E0 		add	r3, r1, r3
 4904 48d4 FF3003E2 		and	r3, r3, #255
 4905 48d8 0030C5E5 		strb	r3, [r5, #0]
 4906 48dc 023083E0 		add	r3, r3, r2
 4907 48e0 0030C4E5 		strb	r3, [r4, #0]
 4908 48e4 74079FE5 		ldr	r0, .L271+272
 4909 48e8 FEFFFFEB 		bl	uart_transmit
 4910 48ec 0030D6E5 		ldrb	r3, [r6, #0]	@ zero_extendqisi2
 4911 48f0 833187E0 		add	r3, r7, r3, asl #3
 4912 48f4 6910D3E5 		ldrb	r1, [r3, #105]	@ zero_extendqisi2
 4913 48f8 0030D5E5 		ldrb	r3, [r5, #0]	@ zero_extendqisi2
 4914 48fc 0020D4E5 		ldrb	r2, [r4, #0]	@ zero_extendqisi2
 4915 4900 033081E0 		add	r3, r1, r3
 4916 4904 FF3003E2 		and	r3, r3, #255
 4917 4908 0030C5E5 		strb	r3, [r5, #0]
 4918 490c 023083E0 		add	r3, r3, r2
 4919 4910 0030C4E5 		strb	r3, [r4, #0]
 4920 4914 44079FE5 		ldr	r0, .L271+272
 4921 4918 FEFFFFEB 		bl	uart_transmit
 4922 491c 0030D6E5 		ldrb	r3, [r6, #0]	@ zero_extendqisi2
 4923 4920 833187E0 		add	r3, r7, r3, asl #3
 4924 4924 6A10D3E5 		ldrb	r1, [r3, #106]	@ zero_extendqisi2
 4925 4928 0030D5E5 		ldrb	r3, [r5, #0]	@ zero_extendqisi2
 4926 492c 0020D4E5 		ldrb	r2, [r4, #0]	@ zero_extendqisi2
 4927 4930 033081E0 		add	r3, r1, r3
 4928 4934 FF3003E2 		and	r3, r3, #255
 4929 4938 0030C5E5 		strb	r3, [r5, #0]
 4930 493c 023083E0 		add	r3, r3, r2
 4931 4940 0030C4E5 		strb	r3, [r4, #0]
 4932 4944 14079FE5 		ldr	r0, .L271+272
 4933 4948 FEFFFFEB 		bl	uart_transmit
 4934 494c 0030D6E5 		ldrb	r3, [r6, #0]	@ zero_extendqisi2
 4935 4950 0C7087E2 		add	r7, r7, #12
 4936 4954 0C3083E2 		add	r3, r3, #12
 4937 4958 8311D7E7 		ldrb	r1, [r7, r3, asl #3]	@ zero_extendqisi2
 4938 495c 0030D5E5 		ldrb	r3, [r5, #0]	@ zero_extendqisi2
 4939 4960 0020D4E5 		ldrb	r2, [r4, #0]	@ zero_extendqisi2
 4940 4964 033081E0 		add	r3, r1, r3
 4941 4968 FF3003E2 		and	r3, r3, #255
 4942 496c 0030C5E5 		strb	r3, [r5, #0]
 4943 4970 023083E0 		add	r3, r3, r2
 4944 4974 0030C4E5 		strb	r3, [r4, #0]
 4945 4978 E0069FE5 		ldr	r0, .L271+272
 4946 497c FEFFFFEB 		bl	uart_transmit
 4947 4980 0030D6E5 		ldrb	r3, [r6, #0]	@ zero_extendqisi2
 4948 4984 837187E0 		add	r7, r7, r3, asl #3
 4949 4988 6110D7E5 		ldrb	r1, [r7, #97]	@ zero_extendqisi2
 4950 498c 0030D5E5 		ldrb	r3, [r5, #0]	@ zero_extendqisi2
 4951 4990 0020D4E5 		ldrb	r2, [r4, #0]	@ zero_extendqisi2
 4952 4994 033081E0 		add	r3, r1, r3
 4953 4998 FF3003E2 		and	r3, r3, #255
 4954 499c 0030C5E5 		strb	r3, [r5, #0]
 4955 49a0 023083E0 		add	r3, r3, r2
 4956 49a4 0030C4E5 		strb	r3, [r4, #0]
 4957 49a8 B0069FE5 		ldr	r0, .L271+272
 4958 49ac FEFFFFEB 		bl	uart_transmit
 4959 49b0 0010D5E5 		ldrb	r1, [r5, #0]	@ zero_extendqisi2
 4960 49b4 A4069FE5 		ldr	r0, .L271+272
 4961 49b8 FEFFFFEB 		bl	uart_transmit
 4962 49bc 9C069FE5 		ldr	r0, .L271+272
 4963 49c0 0010D4E5 		ldrb	r1, [r4, #0]	@ zero_extendqisi2
 4964 49c4 FEFFFFEB 		bl	uart_transmit
 4965 49c8 030000EA 		b	.L121
 4966              	.L122:
 4967 49cc 64369FE5 		ldr	r3, .L271+232
 4968 49d0 0020D3E5 		ldrb	r2, [r3, #0]	@ zero_extendqisi2
 4969 49d4 012082E2 		add	r2, r2, #1
 4970 49d8 0020C3E5 		strb	r2, [r3, #0]
 4971              	.L121:
 4972 49dc A4359FE5 		ldr	r3, .L271+56
 4973 49e0 0020D3E5 		ldrb	r2, [r3, #0]	@ zero_extendqisi2
 4974 49e4 012082E2 		add	r2, r2, #1
 4975 49e8 0020C3E5 		strb	r2, [r3, #0]
 4976              	.L116:
 4977 49ec 98359FE5 		ldr	r3, .L271+60
 4978 49f0 0030D3E5 		ldrb	r3, [r3, #0]	@ zero_extendqisi2
 4979 49f4 060053E3 		cmp	r3, #6
 4980 49f8 CB00001A 		bne	.L123
 4981 49fc 8C359FE5 		ldr	r3, .L271+64
 4982 4a00 0A10A0E3 		mov	r1, #10
 4983 4a04 000093E5 		ldr	r0, [r3, #0]
 4984 4a08 FEFFFFEB 		bl	__aeabi_idiv
 4985 4a0c 80359FE5 		ldr	r3, .L271+68
 4986 4a10 BE00CDE1 		strh	r0, [sp, #14]	@ movhi
 4987 4a14 000093E5 		ldr	r0, [r3, #0]	@ float
 4988 4a18 FEFFFFEB 		bl	__aeabi_f2iz
 4989 4a1c 1410A0E3 		mov	r1, #20
 4990 4a20 BC00CDE1 		strh	r0, [sp, #12]	@ movhi
 4991 4a24 34069FE5 		ldr	r0, .L271+272
 4992 4a28 FEFFFFEB 		bl	uart_check_free_space
 4993 4a2c 000050E3 		cmp	r0, #0
 4994 4a30 B900000A 		beq	.L124
 4995 4a34 08369FE5 		ldr	r3, .L271+244
 4996 4a38 B020D3E1 		ldrh	r2, [r3, #0]
 4997 4a3c 142082E2 		add	r2, r2, #20
 4998 4a40 B020C3E1 		strh	r2, [r3, #0]	@ movhi
 4999 4a44 FC359FE5 		ldr	r3, .L271+248
 5000 4a48 B020D3E1 		ldrh	r2, [r3, #0]
 5001 4a4c 012082E2 		add	r2, r2, #1
 5002 4a50 B020C3E1 		strh	r2, [r3, #0]	@ movhi
 5003 4a54 04069FE5 		ldr	r0, .L271+272
 5004 4a58 9910A0E3 		mov	r1, #153
 5005 4a5c E8559FE5 		ldr	r5, .L271+252
 5006 4a60 FEFFFFEB 		bl	uart_transmit
 5007 4a64 F4059FE5 		ldr	r0, .L271+272
 5008 4a68 1410A0E3 		mov	r1, #20
 5009 4a6c DC459FE5 		ldr	r4, .L271+256
 5010 4a70 FEFFFFEB 		bl	uart_transmit
 5011 4a74 1530A0E3 		mov	r3, #21
 5012 4a78 0030C5E5 		strb	r3, [r5, #0]
 5013 4a7c 2930A0E3 		mov	r3, #41
 5014 4a80 0030C4E5 		strb	r3, [r4, #0]
 5015 4a84 D4059FE5 		ldr	r0, .L271+272
 5016 4a88 0110A0E3 		mov	r1, #1
 5017 4a8c FEFFFFEB 		bl	uart_transmit
 5018 4a90 0030D5E5 		ldrb	r3, [r5, #0]	@ zero_extendqisi2
 5019 4a94 0020D4E5 		ldrb	r2, [r4, #0]	@ zero_extendqisi2
 5020 4a98 0C3083E2 		add	r3, r3, #12
 5021 4a9c FF3003E2 		and	r3, r3, #255
 5022 4aa0 0030C5E5 		strb	r3, [r5, #0]
 5023 4aa4 EC649FE5 		ldr	r6, .L271+72
 5024 4aa8 023083E0 		add	r3, r3, r2
 5025 4aac 0030C4E5 		strb	r3, [r4, #0]
 5026 4ab0 A8059FE5 		ldr	r0, .L271+272
 5027 4ab4 0C10A0E3 		mov	r1, #12
 5028 4ab8 FEFFFFEB 		bl	uart_transmit
 5029 4abc 0010D6E5 		ldrb	r1, [r6, #0]	@ zero_extendqisi2
 5030 4ac0 0030D5E5 		ldrb	r3, [r5, #0]	@ zero_extendqisi2
 5031 4ac4 0020D4E5 		ldrb	r2, [r4, #0]	@ zero_extendqisi2
 5032 4ac8 033081E0 		add	r3, r1, r3
 5033 4acc FF3003E2 		and	r3, r3, #255
 5034 4ad0 0030C5E5 		strb	r3, [r5, #0]
 5035 4ad4 023083E0 		add	r3, r3, r2
 5036 4ad8 0030C4E5 		strb	r3, [r4, #0]
 5037 4adc 7C059FE5 		ldr	r0, .L271+272
 5038 4ae0 FEFFFFEB 		bl	uart_transmit
 5039 4ae4 0110D6E5 		ldrb	r1, [r6, #1]	@ zero_extendqisi2
 5040 4ae8 0030D5E5 		ldrb	r3, [r5, #0]	@ zero_extendqisi2
 5041 4aec 0020D4E5 		ldrb	r2, [r4, #0]	@ zero_extendqisi2
 5042 4af0 033081E0 		add	r3, r1, r3
 5043 4af4 FF3003E2 		and	r3, r3, #255
 5044 4af8 0030C5E5 		strb	r3, [r5, #0]
 5045 4afc 023083E0 		add	r3, r3, r2
 5046 4b00 0030C4E5 		strb	r3, [r4, #0]
 5047 4b04 54059FE5 		ldr	r0, .L271+272
 5048 4b08 FEFFFFEB 		bl	uart_transmit
 5049 4b0c 88349FE5 		ldr	r3, .L271+76
 5050 4b10 0010D3E5 		ldrb	r1, [r3, #0]	@ zero_extendqisi2
 5051 4b14 0030D5E5 		ldrb	r3, [r5, #0]	@ zero_extendqisi2
 5052 4b18 0020D4E5 		ldrb	r2, [r4, #0]	@ zero_extendqisi2
 5053 4b1c 033081E0 		add	r3, r1, r3
 5054 4b20 FF3003E2 		and	r3, r3, #255
 5055 4b24 0030C5E5 		strb	r3, [r5, #0]
 5056 4b28 023083E0 		add	r3, r3, r2
 5057 4b2c 0030C4E5 		strb	r3, [r4, #0]
 5058 4b30 28059FE5 		ldr	r0, .L271+272
 5059 4b34 FEFFFFEB 		bl	uart_transmit
 5060 4b38 0E10DDE5 		ldrb	r1, [sp, #14]	@ zero_extendqisi2
 5061 4b3c 0030D5E5 		ldrb	r3, [r5, #0]	@ zero_extendqisi2
 5062 4b40 0020D4E5 		ldrb	r2, [r4, #0]	@ zero_extendqisi2
 5063 4b44 033081E0 		add	r3, r1, r3
 5064 4b48 FF3003E2 		and	r3, r3, #255
 5065 4b4c 0030C5E5 		strb	r3, [r5, #0]
 5066 4b50 023083E0 		add	r3, r3, r2
 5067 4b54 0030C4E5 		strb	r3, [r4, #0]
 5068 4b58 00059FE5 		ldr	r0, .L271+272
 5069 4b5c FEFFFFEB 		bl	uart_transmit
 5070 4b60 0F10DDE5 		ldrb	r1, [sp, #15]	@ zero_extendqisi2
 5071 4b64 0030D5E5 		ldrb	r3, [r5, #0]	@ zero_extendqisi2
 5072 4b68 0020D4E5 		ldrb	r2, [r4, #0]	@ zero_extendqisi2
 5073 4b6c 033081E0 		add	r3, r1, r3
 5074 4b70 FF3003E2 		and	r3, r3, #255
 5075 4b74 0030C5E5 		strb	r3, [r5, #0]
 5076 4b78 60649FE5 		ldr	r6, .L271+144
 5077 4b7c 023083E0 		add	r3, r3, r2
 5078 4b80 0030C4E5 		strb	r3, [r4, #0]
 5079 4b84 D4049FE5 		ldr	r0, .L271+272
 5080 4b88 FEFFFFEB 		bl	uart_transmit
 5081 4b8c 0010D6E5 		ldrb	r1, [r6, #0]	@ zero_extendqisi2
 5082 4b90 0030D5E5 		ldrb	r3, [r5, #0]	@ zero_extendqisi2
 5083 4b94 0020D4E5 		ldrb	r2, [r4, #0]	@ zero_extendqisi2
 5084 4b98 033081E0 		add	r3, r1, r3
 5085 4b9c FF3003E2 		and	r3, r3, #255
 5086 4ba0 0030C5E5 		strb	r3, [r5, #0]
 5087 4ba4 023083E0 		add	r3, r3, r2
 5088 4ba8 0030C4E5 		strb	r3, [r4, #0]
 5089 4bac AC049FE5 		ldr	r0, .L271+272
 5090 4bb0 FEFFFFEB 		bl	uart_transmit
 5091 4bb4 0110D6E5 		ldrb	r1, [r6, #1]	@ zero_extendqisi2
 5092 4bb8 0030D5E5 		ldrb	r3, [r5, #0]	@ zero_extendqisi2
 5093 4bbc 0020D4E5 		ldrb	r2, [r4, #0]	@ zero_extendqisi2
 5094 4bc0 033081E0 		add	r3, r1, r3
 5095 4bc4 FF3003E2 		and	r3, r3, #255
 5096 4bc8 0030C5E5 		strb	r3, [r5, #0]
 5097 4bcc 023083E0 		add	r3, r3, r2
 5098 4bd0 0030C4E5 		strb	r3, [r4, #0]
 5099 4bd4 84049FE5 		ldr	r0, .L271+272
 5100 4bd8 FEFFFFEB 		bl	uart_transmit
 5101 4bdc 0C349FE5 		ldr	r3, .L271+160
 5102 4be0 0010D3E5 		ldrb	r1, [r3, #0]	@ zero_extendqisi2
 5103 4be4 0030D5E5 		ldrb	r3, [r5, #0]	@ zero_extendqisi2
 5104 4be8 0020D4E5 		ldrb	r2, [r4, #0]	@ zero_extendqisi2
 5105 4bec 033081E0 		add	r3, r1, r3
 5106 4bf0 FF3003E2 		and	r3, r3, #255
 5107 4bf4 0030C5E5 		strb	r3, [r5, #0]
 5108 4bf8 A0639FE5 		ldr	r6, .L271+80
 5109 4bfc 023083E0 		add	r3, r3, r2
 5110 4c00 0030C4E5 		strb	r3, [r4, #0]
 5111 4c04 54049FE5 		ldr	r0, .L271+272
 5112 4c08 FEFFFFEB 		bl	uart_transmit
 5113 4c0c 0010D6E5 		ldrb	r1, [r6, #0]	@ zero_extendqisi2
 5114 4c10 0030D5E5 		ldrb	r3, [r5, #0]	@ zero_extendqisi2
 5115 4c14 0020D4E5 		ldrb	r2, [r4, #0]	@ zero_extendqisi2
 5116 4c18 033081E0 		add	r3, r1, r3
 5117 4c1c FF3003E2 		and	r3, r3, #255
 5118 4c20 0030C5E5 		strb	r3, [r5, #0]
 5119 4c24 023083E0 		add	r3, r3, r2
 5120 4c28 0030C4E5 		strb	r3, [r4, #0]
 5121 4c2c 2C049FE5 		ldr	r0, .L271+272
 5122 4c30 FEFFFFEB 		bl	uart_transmit
 5123 4c34 0110D6E5 		ldrb	r1, [r6, #1]	@ zero_extendqisi2
 5124 4c38 0030D5E5 		ldrb	r3, [r5, #0]	@ zero_extendqisi2
 5125 4c3c 0020D4E5 		ldrb	r2, [r4, #0]	@ zero_extendqisi2
 5126 4c40 033081E0 		add	r3, r1, r3
 5127 4c44 FF3003E2 		and	r3, r3, #255
 5128 4c48 0030C5E5 		strb	r3, [r5, #0]
 5129 4c4c 50639FE5 		ldr	r6, .L271+84
 5130 4c50 023083E0 		add	r3, r3, r2
 5131 4c54 0030C4E5 		strb	r3, [r4, #0]
 5132 4c58 00049FE5 		ldr	r0, .L271+272
 5133 4c5c FEFFFFEB 		bl	uart_transmit
 5134 4c60 0010D6E5 		ldrb	r1, [r6, #0]	@ zero_extendqisi2
 5135 4c64 0030D5E5 		ldrb	r3, [r5, #0]	@ zero_extendqisi2
 5136 4c68 0020D4E5 		ldrb	r2, [r4, #0]	@ zero_extendqisi2
 5137 4c6c 033081E0 		add	r3, r1, r3
 5138 4c70 FF3003E2 		and	r3, r3, #255
 5139 4c74 0030C5E5 		strb	r3, [r5, #0]
 5140 4c78 023083E0 		add	r3, r3, r2
 5141 4c7c 0030C4E5 		strb	r3, [r4, #0]
 5142 4c80 D8039FE5 		ldr	r0, .L271+272
 5143 4c84 FEFFFFEB 		bl	uart_transmit
 5144 4c88 0110D6E5 		ldrb	r1, [r6, #1]	@ zero_extendqisi2
 5145 4c8c 0030D5E5 		ldrb	r3, [r5, #0]	@ zero_extendqisi2
 5146 4c90 0020D4E5 		ldrb	r2, [r4, #0]	@ zero_extendqisi2
 5147 4c94 033081E0 		add	r3, r1, r3
 5148 4c98 FF3003E2 		and	r3, r3, #255
 5149 4c9c 0030C5E5 		strb	r3, [r5, #0]
 5150 4ca0 023083E0 		add	r3, r3, r2
 5151 4ca4 0030C4E5 		strb	r3, [r4, #0]
 5152 4ca8 B0039FE5 		ldr	r0, .L271+272
 5153 4cac FEFFFFEB 		bl	uart_transmit
 5154 4cb0 0C10DDE5 		ldrb	r1, [sp, #12]	@ zero_extendqisi2
 5155 4cb4 0030D5E5 		ldrb	r3, [r5, #0]	@ zero_extendqisi2
 5156 4cb8 0020D4E5 		ldrb	r2, [r4, #0]	@ zero_extendqisi2
 5157 4cbc 033081E0 		add	r3, r1, r3
 5158 4cc0 FF3003E2 		and	r3, r3, #255
 5159 4cc4 0030C5E5 		strb	r3, [r5, #0]
 5160 4cc8 023083E0 		add	r3, r3, r2
 5161 4ccc 0030C4E5 		strb	r3, [r4, #0]
 5162 4cd0 88039FE5 		ldr	r0, .L271+272
 5163 4cd4 FEFFFFEB 		bl	uart_transmit
 5164 4cd8 0D10DDE5 		ldrb	r1, [sp, #13]	@ zero_extendqisi2
 5165 4cdc 0030D5E5 		ldrb	r3, [r5, #0]	@ zero_extendqisi2
 5166 4ce0 0020D4E5 		ldrb	r2, [r4, #0]	@ zero_extendqisi2
 5167 4ce4 033081E0 		add	r3, r1, r3
 5168 4ce8 FF3003E2 		and	r3, r3, #255
 5169 4cec 0030C5E5 		strb	r3, [r5, #0]
 5170 4cf0 023083E0 		add	r3, r3, r2
 5171 4cf4 0030C4E5 		strb	r3, [r4, #0]
 5172 4cf8 60039FE5 		ldr	r0, .L271+272
 5173 4cfc FEFFFFEB 		bl	uart_transmit
 5174 4d00 0010D5E5 		ldrb	r1, [r5, #0]	@ zero_extendqisi2
 5175 4d04 54039FE5 		ldr	r0, .L271+272
 5176 4d08 FEFFFFEB 		bl	uart_transmit
 5177 4d0c 4C039FE5 		ldr	r0, .L271+272
 5178 4d10 0010D4E5 		ldrb	r1, [r4, #0]	@ zero_extendqisi2
 5179 4d14 FEFFFFEB 		bl	uart_transmit
 5180 4d18 030000EA 		b	.L123
 5181              	.L124:
 5182 4d1c 14339FE5 		ldr	r3, .L271+232
 5183 4d20 0020D3E5 		ldrb	r2, [r3, #0]	@ zero_extendqisi2
 5184 4d24 012082E2 		add	r2, r2, #1
 5185 4d28 0020C3E5 		strb	r2, [r3, #0]
 5186              	.L123:
 5187 4d2c 74329FE5 		ldr	r3, .L271+88
 5188 4d30 0030D3E5 		ldrb	r3, [r3, #0]	@ zero_extendqisi2
 5189 4d34 0C0053E3 		cmp	r3, #12
 5190 4d38 CD00001A 		bne	.L125
 5191 4d3c 1C039FE5 		ldr	r0, .L271+272
 5192 4d40 0E10A0E3 		mov	r1, #14
 5193 4d44 FEFFFFEB 		bl	uart_check_free_space
 5194 4d48 000050E3 		cmp	r0, #0
 5195 4d4c C400000A 		beq	.L126
 5196 4d50 EC329FE5 		ldr	r3, .L271+244
 5197 4d54 B020D3E1 		ldrh	r2, [r3, #0]
 5198 4d58 0E2082E2 		add	r2, r2, #14
 5199 4d5c B020C3E1 		strh	r2, [r3, #0]	@ movhi
 5200 4d60 E0329FE5 		ldr	r3, .L271+248
 5201 4d64 B020D3E1 		ldrh	r2, [r3, #0]
 5202 4d68 012082E2 		add	r2, r2, #1
 5203 4d6c B020C3E1 		strh	r2, [r3, #0]	@ movhi
 5204 4d70 E8029FE5 		ldr	r0, .L271+272
 5205 4d74 9910A0E3 		mov	r1, #153
 5206 4d78 CC529FE5 		ldr	r5, .L271+252
 5207 4d7c FEFFFFEB 		bl	uart_transmit
 5208 4d80 D8029FE5 		ldr	r0, .L271+272
 5209 4d84 0E10A0E3 		mov	r1, #14
 5210 4d88 C0429FE5 		ldr	r4, .L271+256
 5211 4d8c FEFFFFEB 		bl	uart_transmit
 5212 4d90 0F30A0E3 		mov	r3, #15
 5213 4d94 0030C5E5 		strb	r3, [r5, #0]
 5214 4d98 1D30A0E3 		mov	r3, #29
 5215 4d9c 0030C4E5 		strb	r3, [r4, #0]
 5216 4da0 B8029FE5 		ldr	r0, .L271+272
 5217 4da4 0110A0E3 		mov	r1, #1
 5218 4da8 FEFFFFEB 		bl	uart_transmit
 5219 4dac 0030D5E5 		ldrb	r3, [r5, #0]	@ zero_extendqisi2
 5220 4db0 0020D4E5 		ldrb	r2, [r4, #0]	@ zero_extendqisi2
 5221 4db4 2A3083E2 		add	r3, r3, #42
 5222 4db8 FF3003E2 		and	r3, r3, #255
 5223 4dbc 0030C5E5 		strb	r3, [r5, #0]
 5224 4dc0 023083E0 		add	r3, r3, r2
 5225 4dc4 0030C4E5 		strb	r3, [r4, #0]
 5226 4dc8 2A10A0E3 		mov	r1, #42
 5227 4dcc 8C029FE5 		ldr	r0, .L271+272
 5228 4dd0 FEFFFFEB 		bl	uart_transmit
 5229 4dd4 FEFFFFEB 		bl	stateGetPositionUtm_f
 5230 4dd8 0030D5E5 		ldrb	r3, [r5, #0]	@ zero_extendqisi2
 5231 4ddc 0810D0E5 		ldrb	r1, [r0, #8]	@ zero_extendqisi2
 5232 4de0 0020D4E5 		ldrb	r2, [r4, #0]	@ zero_extendqisi2
 5233 4de4 033081E0 		add	r3, r1, r3
 5234 4de8 FF3003E2 		and	r3, r3, #255
 5235 4dec 0030C5E5 		strb	r3, [r5, #0]
 5236 4df0 023083E0 		add	r3, r3, r2
 5237 4df4 0030C4E5 		strb	r3, [r4, #0]
 5238 4df8 60029FE5 		ldr	r0, .L271+272
 5239 4dfc FEFFFFEB 		bl	uart_transmit
 5240 4e00 FEFFFFEB 		bl	stateGetPositionUtm_f
 5241 4e04 0030D5E5 		ldrb	r3, [r5, #0]	@ zero_extendqisi2
 5242 4e08 0910D0E5 		ldrb	r1, [r0, #9]	@ zero_extendqisi2
 5243 4e0c 0020D4E5 		ldrb	r2, [r4, #0]	@ zero_extendqisi2
 5244 4e10 033081E0 		add	r3, r1, r3
 5245 4e14 FF3003E2 		and	r3, r3, #255
 5246 4e18 0030C5E5 		strb	r3, [r5, #0]
 5247 4e1c 023083E0 		add	r3, r3, r2
 5248 4e20 0030C4E5 		strb	r3, [r4, #0]
 5249 4e24 34029FE5 		ldr	r0, .L271+272
 5250 4e28 FEFFFFEB 		bl	uart_transmit
 5251 4e2c FEFFFFEB 		bl	stateGetPositionUtm_f
 5252 4e30 0030D5E5 		ldrb	r3, [r5, #0]	@ zero_extendqisi2
 5253 4e34 0A10D0E5 		ldrb	r1, [r0, #10]	@ zero_extendqisi2
 5254 4e38 0020D4E5 		ldrb	r2, [r4, #0]	@ zero_extendqisi2
 5255 4e3c 033081E0 		add	r3, r1, r3
 5256 4e40 FF3003E2 		and	r3, r3, #255
 5257 4e44 0030C5E5 		strb	r3, [r5, #0]
 5258 4e48 023083E0 		add	r3, r3, r2
 5259 4e4c 0030C4E5 		strb	r3, [r4, #0]
 5260 4e50 08029FE5 		ldr	r0, .L271+272
 5261 4e54 FEFFFFEB 		bl	uart_transmit
 5262 4e58 FEFFFFEB 		bl	stateGetPositionUtm_f
 5263 4e5c 0030D5E5 		ldrb	r3, [r5, #0]	@ zero_extendqisi2
 5264 4e60 0B10D0E5 		ldrb	r1, [r0, #11]	@ zero_extendqisi2
 5265 4e64 0020D4E5 		ldrb	r2, [r4, #0]	@ zero_extendqisi2
 5266 4e68 033081E0 		add	r3, r1, r3
 5267 4e6c FF3003E2 		and	r3, r3, #255
 5268 4e70 0030C5E5 		strb	r3, [r5, #0]
 5269 4e74 023083E0 		add	r3, r3, r2
 5270 4e78 0030C4E5 		strb	r3, [r4, #0]
 5271 4e7c DC019FE5 		ldr	r0, .L271+272
 5272 4e80 FEFFFFEB 		bl	uart_transmit
 5273 4e84 FEFFFFEB 		bl	stateGetSpeedEnu_f
 5274 4e88 0030D5E5 		ldrb	r3, [r5, #0]	@ zero_extendqisi2
 5275 4e8c 0810D0E5 		ldrb	r1, [r0, #8]	@ zero_extendqisi2
 5276 4e90 0020D4E5 		ldrb	r2, [r4, #0]	@ zero_extendqisi2
 5277 4e94 033081E0 		add	r3, r1, r3
 5278 4e98 FF3003E2 		and	r3, r3, #255
 5279 4e9c 0030C5E5 		strb	r3, [r5, #0]
 5280 4ea0 023083E0 		add	r3, r3, r2
 5281 4ea4 0030C4E5 		strb	r3, [r4, #0]
 5282 4ea8 B0019FE5 		ldr	r0, .L271+272
 5283 4eac FEFFFFEB 		bl	uart_transmit
 5284 4eb0 FEFFFFEB 		bl	stateGetSpeedEnu_f
 5285 4eb4 0030D5E5 		ldrb	r3, [r5, #0]	@ zero_extendqisi2
 5286 4eb8 0910D0E5 		ldrb	r1, [r0, #9]	@ zero_extendqisi2
 5287 4ebc 0020D4E5 		ldrb	r2, [r4, #0]	@ zero_extendqisi2
 5288 4ec0 033081E0 		add	r3, r1, r3
 5289 4ec4 FF3003E2 		and	r3, r3, #255
 5290 4ec8 0030C5E5 		strb	r3, [r5, #0]
 5291 4ecc 023083E0 		add	r3, r3, r2
 5292 4ed0 0030C4E5 		strb	r3, [r4, #0]
 5293 4ed4 84019FE5 		ldr	r0, .L271+272
 5294 4ed8 FEFFFFEB 		bl	uart_transmit
 5295 4edc FEFFFFEB 		bl	stateGetSpeedEnu_f
 5296 4ee0 0030D5E5 		ldrb	r3, [r5, #0]	@ zero_extendqisi2
 5297 4ee4 0A10D0E5 		ldrb	r1, [r0, #10]	@ zero_extendqisi2
 5298 4ee8 0020D4E5 		ldrb	r2, [r4, #0]	@ zero_extendqisi2
 5299 4eec 033081E0 		add	r3, r1, r3
 5300 4ef0 FF3003E2 		and	r3, r3, #255
 5301 4ef4 0030C5E5 		strb	r3, [r5, #0]
 5302 4ef8 023083E0 		add	r3, r3, r2
 5303 4efc 0030C4E5 		strb	r3, [r4, #0]
 5304 4f00 58019FE5 		ldr	r0, .L271+272
 5305 4f04 FEFFFFEB 		bl	uart_transmit
 5306 4f08 FEFFFFEB 		bl	stateGetSpeedEnu_f
 5307 4f0c 0030D5E5 		ldrb	r3, [r5, #0]	@ zero_extendqisi2
 5308 4f10 0B10D0E5 		ldrb	r1, [r0, #11]	@ zero_extendqisi2
 5309 4f14 0020D4E5 		ldrb	r2, [r4, #0]	@ zero_extendqisi2
 5310 4f18 033081E0 		add	r3, r1, r3
 5311 4f1c FF3003E2 		and	r3, r3, #255
 5312 4f20 0030C5E5 		strb	r3, [r5, #0]
 5313 4f24 023083E0 		add	r3, r3, r2
 5314 4f28 0030C4E5 		strb	r3, [r4, #0]
 5315 4f2c 2C019FE5 		ldr	r0, .L271+272
 5316 4f30 FEFFFFEB 		bl	uart_transmit
 5317 4f34 0010D5E5 		ldrb	r1, [r5, #0]	@ zero_extendqisi2
 5318 4f38 20019FE5 		ldr	r0, .L271+272
 5319 4f3c FEFFFFEB 		bl	uart_transmit
 5320 4f40 18019FE5 		ldr	r0, .L271+272
 5321 4f44 0010D4E5 		ldrb	r1, [r4, #0]	@ zero_extendqisi2
 5322 4f48 FEFFFFEB 		bl	uart_transmit
 5323 4f4c 480000EA 		b	.L125
 5324              	.L272:
 5325              		.align	2
 5326              	.L271:
 5327 4f50 00000000 		.word	.LANCHOR34
 5328 4f54 00000000 		.word	.LANCHOR35
 5329 4f58 00000000 		.word	.LANCHOR36
 5330 4f5c 00000000 		.word	.LANCHOR37
 5331 4f60 00000000 		.word	.LANCHOR38
 5332 4f64 31010000 		.word	305
 5333 4f68 00000000 		.word	.LANCHOR39
 5334 4f6c 00000000 		.word	.LANCHOR40
 5335 4f70 00000000 		.word	.LANCHOR41
 5336 4f74 5D020000 		.word	605
 5337 4f78 00000000 		.word	.LANCHOR26
 5338 4f7c F8C1631A 		.word	442745336
 5339 4f80 DCA54C40 		.word	1078765020
 5340 4f84 80842E41 		.word	1093567616
 5341 4f88 00000000 		.word	.LANCHOR42
 5342 4f8c 00000000 		.word	.LANCHOR27
 5343 4f90 00000000 		.word	.LANCHOR17
 5344 4f94 00000000 		.word	energy
 5345 4f98 00000000 		.word	v_ctl_throttle_slewed
 5346 4f9c 00000000 		.word	vsupply
 5347 4fa0 00000000 		.word	block_time
 5348 4fa4 00000000 		.word	stage_time
 5349 4fa8 00000000 		.word	.LANCHOR28
 5350 4fac 00000000 		.word	.LANCHOR29
 5351 4fb0 00000000 		.word	nb_waypoint
 5352 4fb4 00000000 		.word	nav_utm_east0
 5353 4fb8 00000000 		.word	waypoints
 5354 4fbc 00000000 		.word	nav_utm_north0
 5355 4fc0 00000000 		.word	.LANCHOR43
 5356 4fc4 00000000 		.word	nav_utm_zone0
 5357 4fc8 00000000 		.word	.LANCHOR30
 5358 4fcc 00000000 		.word	telemetry_mode_Ap
 5359 4fd0 00000000 		.word	telemetry_mode_Fbw
 5360 4fd4 00000000 		.word	flight_altitude
 5361 4fd8 00000000 		.word	nav_course
 5362 4fdc 00000000 		.word	nav_shift
 5363 4fe0 00000000 		.word	.LANCHOR18
 5364 4fe4 00000000 		.word	nav_radius
 5365 4fe8 00000000 		.word	.LANCHOR21
 5366 4fec 00000000 		.word	.LANCHOR22
 5367 4ff0 00000000 		.word	.LANCHOR19
 5368 4ff4 00000000 		.word	gps
 5369 4ff8 00000000 		.word	.LANCHOR44
 5370 4ffc 00000000 		.word	.LANCHOR31
 5371 5000 00000000 		.word	nav_survey_active
 5372 5004 00000000 		.word	nav_survey_east
 5373 5008 00000000 		.word	nav_survey_north
 5374 500c 00000000 		.word	nav_survey_west
 5375 5010 00000000 		.word	nav_survey_south
 5376 5014 00000000 		.word	.LANCHOR32
 5377 5018 00000000 		.word	nav_circle_radians
 5378 501c 182D4454 		.word	1413754136
 5379 5020 FB211940 		.word	1075388923
 5380 5024 00000000 		.word	nav_block
 5381 5028 00000000 		.word	nav_stage
 5382 502c 00000000 		.word	dist2_to_wp
 5383 5030 00000000 		.word	dist2_to_home
 5384 5034 00000000 		.word	nav_oval_count
 5385 5038 00000000 		.word	downlink_nb_ovrn
 5386 503c 00000000 		.word	.LANCHOR33
 5387 5040 00000000 		.word	nav_in_circle
 5388 5044 00000000 		.word	downlink_nb_bytes
 5389 5048 00000000 		.word	downlink_nb_msgs
 5390 504c 00000000 		.word	ck_a
 5391 5050 00000000 		.word	ck_b
 5392 5054 00000000 		.word	nav_circle_x
 5393 5058 00000000 		.word	nav_circle_y
 5394 505c 00000000 		.word	nav_circle_radius
 5395 5060 00000000 		.word	uart1
 5396              	.L126:
 5397 5064 34301FE5 		ldr	r3, .L271+232
 5398 5068 0020D3E5 		ldrb	r2, [r3, #0]	@ zero_extendqisi2
 5399 506c 012082E2 		add	r2, r2, #1
 5400 5070 0020C3E5 		strb	r2, [r3, #0]
 5401              	.L125:
 5402 5074 D0301FE5 		ldr	r3, .L271+92
 5403 5078 0030D3E5 		ldrb	r3, [r3, #0]	@ zero_extendqisi2
 5404 507c 120053E3 		cmp	r3, #18
 5405 5080 E100001A 		bne	.L127
 5406 5084 CC301FE5 		ldr	r3, .L271+112
 5407 5088 E0101FE5 		ldr	r1, .L271+96
 5408 508c 0020D3E5 		ldrb	r2, [r3, #0]	@ zero_extendqisi2
 5409 5090 0010D1E5 		ldrb	r1, [r1, #0]	@ zero_extendqisi2
 5410 5094 012082E2 		add	r2, r2, #1
 5411 5098 FF2002E2 		and	r2, r2, #255
 5412 509c 020051E1 		cmp	r1, r2
 5413 50a0 0020C3E5 		strb	r2, [r3, #0]
 5414 50a4 0020A093 		movls	r2, #0
 5415 50a8 0020C395 		strlsb	r2, [r3, #0]
 5416 50ac 0040D3E5 		ldrb	r4, [r3, #0]	@ zero_extendqisi2
 5417 50b0 04311FE5 		ldr	r3, .L271+100
 5418 50b4 0C70A0E3 		mov	r7, #12
 5419 50b8 000093E5 		ldr	r0, [r3, #0]
 5420 50bc FEFFFFEB 		bl	__aeabi_i2f
 5421 50c0 970403E0 		mul	r3, r7, r4
 5422 50c4 14611FE5 		ldr	r6, .L271+104
 5423 50c8 031096E7 		ldr	r1, [r6, r3]	@ float
 5424 50cc 034086E0 		add	r4, r6, r3
 5425 50d0 FEFFFFEB 		bl	__aeabi_fadd
 5426 50d4 20311FE5 		ldr	r3, .L271+108
 5427 50d8 08008DE5 		str	r0, [sp, #8]	@ float
 5428 50dc 000093E5 		ldr	r0, [r3, #0]
 5429 50e0 FEFFFFEB 		bl	__aeabi_i2f
 5430 50e4 041094E5 		ldr	r1, [r4, #4]	@ float
 5431 50e8 FEFFFFEB 		bl	__aeabi_fadd
 5432 50ec 1410A0E3 		mov	r1, #20
 5433 50f0 00008DE5 		str	r0, [sp, #0]	@ float
 5434 50f4 9C001FE5 		ldr	r0, .L271+272
 5435 50f8 FEFFFFEB 		bl	uart_check_free_space
 5436 50fc 000050E3 		cmp	r0, #0
 5437 5100 48811FE5 		ldr	r8, .L271+112
 5438 5104 BC00000A 		beq	.L129
 5439 5108 CC301FE5 		ldr	r3, .L271+244
 5440 510c B020D3E1 		ldrh	r2, [r3, #0]
 5441 5110 142082E2 		add	r2, r2, #20
 5442 5114 B020C3E1 		strh	r2, [r3, #0]	@ movhi
 5443 5118 D8301FE5 		ldr	r3, .L271+248
 5444 511c B020D3E1 		ldrh	r2, [r3, #0]
 5445 5120 012082E2 		add	r2, r2, #1
 5446 5124 B020C3E1 		strh	r2, [r3, #0]	@ movhi
 5447 5128 D0001FE5 		ldr	r0, .L271+272
 5448 512c 9910A0E3 		mov	r1, #153
 5449 5130 EC501FE5 		ldr	r5, .L271+252
 5450 5134 FEFFFFEB 		bl	uart_transmit
 5451 5138 E0001FE5 		ldr	r0, .L271+272
 5452 513c 1410A0E3 		mov	r1, #20
 5453 5140 F8401FE5 		ldr	r4, .L271+256
 5454 5144 FEFFFFEB 		bl	uart_transmit
 5455 5148 1530A0E3 		mov	r3, #21
 5456 514c 0030C5E5 		strb	r3, [r5, #0]
 5457 5150 2930A0E3 		mov	r3, #41
 5458 5154 0030C4E5 		strb	r3, [r4, #0]
 5459 5158 00011FE5 		ldr	r0, .L271+272
 5460 515c 0110A0E3 		mov	r1, #1
 5461 5160 FEFFFFEB 		bl	uart_transmit
 5462 5164 0030D5E5 		ldrb	r3, [r5, #0]	@ zero_extendqisi2
 5463 5168 0020D4E5 		ldrb	r2, [r4, #0]	@ zero_extendqisi2
 5464 516c 233083E2 		add	r3, r3, #35
 5465 5170 FF3003E2 		and	r3, r3, #255
 5466 5174 0030C5E5 		strb	r3, [r5, #0]
 5467 5178 023083E0 		add	r3, r3, r2
 5468 517c 0030C4E5 		strb	r3, [r4, #0]
 5469 5180 28011FE5 		ldr	r0, .L271+272
 5470 5184 2310A0E3 		mov	r1, #35
 5471 5188 FEFFFFEB 		bl	uart_transmit
 5472 518c 0010D8E5 		ldrb	r1, [r8, #0]	@ zero_extendqisi2
 5473 5190 0030D5E5 		ldrb	r3, [r5, #0]	@ zero_extendqisi2
 5474 5194 0020D4E5 		ldrb	r2, [r4, #0]	@ zero_extendqisi2
 5475 5198 033081E0 		add	r3, r1, r3
 5476 519c FF3003E2 		and	r3, r3, #255
 5477 51a0 0030C5E5 		strb	r3, [r5, #0]
 5478 51a4 023083E0 		add	r3, r3, r2
 5479 51a8 0030C4E5 		strb	r3, [r4, #0]
 5480 51ac 54011FE5 		ldr	r0, .L271+272
 5481 51b0 FEFFFFEB 		bl	uart_transmit
 5482 51b4 0810DDE5 		ldrb	r1, [sp, #8]	@ zero_extendqisi2
 5483 51b8 0030D5E5 		ldrb	r3, [r5, #0]	@ zero_extendqisi2
 5484 51bc 0020D4E5 		ldrb	r2, [r4, #0]	@ zero_extendqisi2
 5485 51c0 033081E0 		add	r3, r1, r3
 5486 51c4 FF3003E2 		and	r3, r3, #255
 5487 51c8 0030C5E5 		strb	r3, [r5, #0]
 5488 51cc 023083E0 		add	r3, r3, r2
 5489 51d0 0030C4E5 		strb	r3, [r4, #0]
 5490 51d4 7C011FE5 		ldr	r0, .L271+272
 5491 51d8 FEFFFFEB 		bl	uart_transmit
 5492 51dc 0910DDE5 		ldrb	r1, [sp, #9]	@ zero_extendqisi2
 5493 51e0 0030D5E5 		ldrb	r3, [r5, #0]	@ zero_extendqisi2
 5494 51e4 0020D4E5 		ldrb	r2, [r4, #0]	@ zero_extendqisi2
 5495 51e8 033081E0 		add	r3, r1, r3
 5496 51ec FF3003E2 		and	r3, r3, #255
 5497 51f0 0030C5E5 		strb	r3, [r5, #0]
 5498 51f4 023083E0 		add	r3, r3, r2
 5499 51f8 0030C4E5 		strb	r3, [r4, #0]
 5500 51fc A4011FE5 		ldr	r0, .L271+272
 5501 5200 FEFFFFEB 		bl	uart_transmit
 5502 5204 0A10DDE5 		ldrb	r1, [sp, #10]	@ zero_extendqisi2
 5503 5208 0030D5E5 		ldrb	r3, [r5, #0]	@ zero_extendqisi2
 5504 520c 0020D4E5 		ldrb	r2, [r4, #0]	@ zero_extendqisi2
 5505 5210 033081E0 		add	r3, r1, r3
 5506 5214 FF3003E2 		and	r3, r3, #255
 5507 5218 0030C5E5 		strb	r3, [r5, #0]
 5508 521c 023083E0 		add	r3, r3, r2
 5509 5220 0030C4E5 		strb	r3, [r4, #0]
 5510 5224 CC011FE5 		ldr	r0, .L271+272
 5511 5228 FEFFFFEB 		bl	uart_transmit
 5512 522c 0B10DDE5 		ldrb	r1, [sp, #11]	@ zero_extendqisi2
 5513 5230 0030D5E5 		ldrb	r3, [r5, #0]	@ zero_extendqisi2
 5514 5234 0020D4E5 		ldrb	r2, [r4, #0]	@ zero_extendqisi2
 5515 5238 033081E0 		add	r3, r1, r3
 5516 523c FF3003E2 		and	r3, r3, #255
 5517 5240 0030C5E5 		strb	r3, [r5, #0]
 5518 5244 023083E0 		add	r3, r3, r2
 5519 5248 0030C4E5 		strb	r3, [r4, #0]
 5520 524c F4011FE5 		ldr	r0, .L271+272
 5521 5250 FEFFFFEB 		bl	uart_transmit
 5522 5254 0010DDE5 		ldrb	r1, [sp, #0]	@ zero_extendqisi2
 5523 5258 0030D5E5 		ldrb	r3, [r5, #0]	@ zero_extendqisi2
 5524 525c 0020D4E5 		ldrb	r2, [r4, #0]	@ zero_extendqisi2
 5525 5260 033081E0 		add	r3, r1, r3
 5526 5264 FF3003E2 		and	r3, r3, #255
 5527 5268 0030C5E5 		strb	r3, [r5, #0]
 5528 526c 023083E0 		add	r3, r3, r2
 5529 5270 0030C4E5 		strb	r3, [r4, #0]
 5530 5274 1C021FE5 		ldr	r0, .L271+272
 5531 5278 FEFFFFEB 		bl	uart_transmit
 5532 527c 0110DDE5 		ldrb	r1, [sp, #1]	@ zero_extendqisi2
 5533 5280 0030D5E5 		ldrb	r3, [r5, #0]	@ zero_extendqisi2
 5534 5284 0020D4E5 		ldrb	r2, [r4, #0]	@ zero_extendqisi2
 5535 5288 033081E0 		add	r3, r1, r3
 5536 528c FF3003E2 		and	r3, r3, #255
 5537 5290 0030C5E5 		strb	r3, [r5, #0]
 5538 5294 023083E0 		add	r3, r3, r2
 5539 5298 0030C4E5 		strb	r3, [r4, #0]
 5540 529c 44021FE5 		ldr	r0, .L271+272
 5541 52a0 FEFFFFEB 		bl	uart_transmit
 5542 52a4 0210DDE5 		ldrb	r1, [sp, #2]	@ zero_extendqisi2
 5543 52a8 0030D5E5 		ldrb	r3, [r5, #0]	@ zero_extendqisi2
 5544 52ac 0020D4E5 		ldrb	r2, [r4, #0]	@ zero_extendqisi2
 5545 52b0 033081E0 		add	r3, r1, r3
 5546 52b4 FF3003E2 		and	r3, r3, #255
 5547 52b8 0030C5E5 		strb	r3, [r5, #0]
 5548 52bc 023083E0 		add	r3, r3, r2
 5549 52c0 0030C4E5 		strb	r3, [r4, #0]
 5550 52c4 6C021FE5 		ldr	r0, .L271+272
 5551 52c8 FEFFFFEB 		bl	uart_transmit
 5552 52cc 0310DDE5 		ldrb	r1, [sp, #3]	@ zero_extendqisi2
 5553 52d0 0030D5E5 		ldrb	r3, [r5, #0]	@ zero_extendqisi2
 5554 52d4 0020D4E5 		ldrb	r2, [r4, #0]	@ zero_extendqisi2
 5555 52d8 033081E0 		add	r3, r1, r3
 5556 52dc FF3003E2 		and	r3, r3, #255
 5557 52e0 0030C5E5 		strb	r3, [r5, #0]
 5558 52e4 023083E0 		add	r3, r3, r2
 5559 52e8 0030C4E5 		strb	r3, [r4, #0]
 5560 52ec 94021FE5 		ldr	r0, .L271+272
 5561 52f0 FEFFFFEB 		bl	uart_transmit
 5562 52f4 0030D8E5 		ldrb	r3, [r8, #0]	@ zero_extendqisi2
 5563 52f8 976323E0 		mla	r3, r7, r3, r6
 5564 52fc 0810D3E5 		ldrb	r1, [r3, #8]	@ zero_extendqisi2
 5565 5300 0030D5E5 		ldrb	r3, [r5, #0]	@ zero_extendqisi2
 5566 5304 0020D4E5 		ldrb	r2, [r4, #0]	@ zero_extendqisi2
 5567 5308 033081E0 		add	r3, r1, r3
 5568 530c FF3003E2 		and	r3, r3, #255
 5569 5310 0030C5E5 		strb	r3, [r5, #0]
 5570 5314 023083E0 		add	r3, r3, r2
 5571 5318 0030C4E5 		strb	r3, [r4, #0]
 5572 531c C4021FE5 		ldr	r0, .L271+272
 5573 5320 FEFFFFEB 		bl	uart_transmit
 5574 5324 0030D8E5 		ldrb	r3, [r8, #0]	@ zero_extendqisi2
 5575 5328 976323E0 		mla	r3, r7, r3, r6
 5576 532c 0910D3E5 		ldrb	r1, [r3, #9]	@ zero_extendqisi2
 5577 5330 0030D5E5 		ldrb	r3, [r5, #0]	@ zero_extendqisi2
 5578 5334 0020D4E5 		ldrb	r2, [r4, #0]	@ zero_extendqisi2
 5579 5338 033081E0 		add	r3, r1, r3
 5580 533c FF3003E2 		and	r3, r3, #255
 5581 5340 0030C5E5 		strb	r3, [r5, #0]
 5582 5344 023083E0 		add	r3, r3, r2
 5583 5348 0030C4E5 		strb	r3, [r4, #0]
 5584 534c F4021FE5 		ldr	r0, .L271+272
 5585 5350 FEFFFFEB 		bl	uart_transmit
 5586 5354 0030D8E5 		ldrb	r3, [r8, #0]	@ zero_extendqisi2
 5587 5358 976323E0 		mla	r3, r7, r3, r6
 5588 535c 0A10D3E5 		ldrb	r1, [r3, #10]	@ zero_extendqisi2
 5589 5360 0030D5E5 		ldrb	r3, [r5, #0]	@ zero_extendqisi2
 5590 5364 0020D4E5 		ldrb	r2, [r4, #0]	@ zero_extendqisi2
 5591 5368 033081E0 		add	r3, r1, r3
 5592 536c FF3003E2 		and	r3, r3, #255
 5593 5370 0030C5E5 		strb	r3, [r5, #0]
 5594 5374 023083E0 		add	r3, r3, r2
 5595 5378 0030C4E5 		strb	r3, [r4, #0]
 5596 537c 24031FE5 		ldr	r0, .L271+272
 5597 5380 FEFFFFEB 		bl	uart_transmit
 5598 5384 0030D8E5 		ldrb	r3, [r8, #0]	@ zero_extendqisi2
 5599 5388 976326E0 		mla	r6, r7, r3, r6
 5600 538c 0030D5E5 		ldrb	r3, [r5, #0]	@ zero_extendqisi2
 5601 5390 0B10D6E5 		ldrb	r1, [r6, #11]	@ zero_extendqisi2
 5602 5394 0020D4E5 		ldrb	r2, [r4, #0]	@ zero_extendqisi2
 5603 5398 033081E0 		add	r3, r1, r3
 5604 539c FF3003E2 		and	r3, r3, #255
 5605 53a0 0030C5E5 		strb	r3, [r5, #0]
 5606 53a4 023083E0 		add	r3, r3, r2
 5607 53a8 0030C4E5 		strb	r3, [r4, #0]
 5608 53ac 54031FE5 		ldr	r0, .L271+272
 5609 53b0 FEFFFFEB 		bl	uart_transmit
 5610 53b4 F8331FE5 		ldr	r3, .L271+116
 5611 53b8 0010D3E5 		ldrb	r1, [r3, #0]	@ zero_extendqisi2
 5612 53bc 0030D5E5 		ldrb	r3, [r5, #0]	@ zero_extendqisi2
 5613 53c0 0020D4E5 		ldrb	r2, [r4, #0]	@ zero_extendqisi2
 5614 53c4 033081E0 		add	r3, r1, r3
 5615 53c8 FF3003E2 		and	r3, r3, #255
 5616 53cc 0030C5E5 		strb	r3, [r5, #0]
 5617 53d0 023083E0 		add	r3, r3, r2
 5618 53d4 0030C4E5 		strb	r3, [r4, #0]
 5619 53d8 80031FE5 		ldr	r0, .L271+272
 5620 53dc FEFFFFEB 		bl	uart_transmit
 5621 53e0 0010D5E5 		ldrb	r1, [r5, #0]	@ zero_extendqisi2
 5622 53e4 8C031FE5 		ldr	r0, .L271+272
 5623 53e8 FEFFFFEB 		bl	uart_transmit
 5624 53ec 94031FE5 		ldr	r0, .L271+272
 5625 53f0 0010D4E5 		ldrb	r1, [r4, #0]	@ zero_extendqisi2
 5626 53f4 FEFFFFEB 		bl	uart_transmit
 5627 53f8 030000EA 		b	.L127
 5628              	.L129:
 5629 53fc CC331FE5 		ldr	r3, .L271+232
 5630 5400 0020D3E5 		ldrb	r2, [r3, #0]	@ zero_extendqisi2
 5631 5404 012082E2 		add	r2, r2, #1
 5632 5408 0020C3E5 		strb	r2, [r3, #0]
 5633              	.L127:
 5634 540c 4C341FE5 		ldr	r3, .L271+120
 5635 5410 0030D3E5 		ldrb	r3, [r3, #0]	@ zero_extendqisi2
 5636 5414 180053E3 		cmp	r3, #24
 5637 5418 9900001A 		bne	.L130
 5638 541c 2C341FE5 		ldr	r3, .L271+168
 5639 5420 0020D3E5 		ldrb	r2, [r3, #0]	@ zero_extendqisi2
 5640 5424 0A0052E3 		cmp	r2, #10
 5641 5428 0020A083 		movhi	r2, #0
 5642 542c 0020C385 		strhib	r2, [r3, #0]
 5643 5430 0030D3E5 		ldrb	r3, [r3, #0]	@ zero_extendqisi2
 5644 5434 0A0053E3 		cmp	r3, #10
 5645 5438 03F19F97 		ldrls	pc, [pc, r3, asl #2]
 5646 543c 260000EA 		b	.L132
 5647              	.L144:
 5648 5440 6C540000 		.word	.L133
 5649 5444 74540000 		.word	.L134
 5650 5448 88540000 		.word	.L135
 5651 544c 90540000 		.word	.L136
 5652 5450 98540000 		.word	.L137
 5653 5454 A0540000 		.word	.L138
 5654 5458 AC540000 		.word	.L139
 5655 545c B8540000 		.word	.L140
 5656 5460 C0540000 		.word	.L141
 5657 5464 C8540000 		.word	.L142
 5658 5468 D0540000 		.word	.L143
 5659              	.L133:
 5660 546c A8341FE5 		ldr	r3, .L271+124
 5661 5470 000000EA 		b	.L252
 5662              	.L134:
 5663 5474 AC341FE5 		ldr	r3, .L271+128
 5664              	.L252:
 5665 5478 0000D3E5 		ldrb	r0, [r3, #0]	@ zero_extendqisi2
 5666              	.L253:
 5667 547c FEFFFFEB 		bl	__aeabi_ui2f
 5668 5480 00008DE5 		str	r0, [sp, #0]	@ float
 5669 5484 160000EA 		b	.L145
 5670              	.L135:
 5671 5488 BC341FE5 		ldr	r3, .L271+132
 5672 548c 070000EA 		b	.L263
 5673              	.L136:
 5674 5490 C0341FE5 		ldr	r3, .L271+136
 5675 5494 050000EA 		b	.L263
 5676              	.L137:
 5677 5498 C4341FE5 		ldr	r3, .L271+140
 5678 549c 030000EA 		b	.L263
 5679              	.L138:
 5680 54a0 C8341FE5 		ldr	r3, .L271+144
 5681 54a4 B000D3E1 		ldrh	r0, [r3, #0]
 5682 54a8 F3FFFFEA 		b	.L253
 5683              	.L139:
 5684 54ac D0341FE5 		ldr	r3, .L271+148
 5685              	.L263:
 5686 54b0 003093E5 		ldr	r3, [r3, #0]	@ float
 5687 54b4 090000EA 		b	.L254
 5688              	.L140:
 5689 54b8 D8341FE5 		ldr	r3, .L271+152
 5690 54bc EDFFFFEA 		b	.L252
 5691              	.L141:
 5692 54c0 DC341FE5 		ldr	r3, .L271+156
 5693 54c4 EBFFFFEA 		b	.L252
 5694              	.L142:
 5695 54c8 E0341FE5 		ldr	r3, .L271+160
 5696 54cc E9FFFFEA 		b	.L252
 5697              	.L143:
 5698 54d0 E4341FE5 		ldr	r3, .L271+164
 5699 54d4 B00FD3E1 		ldrh	r0, [r3, #240]
 5700 54d8 E7FFFFEA 		b	.L253
 5701              	.L132:
 5702 54dc 0030A0E3 		mov	r3, #0
 5703              	.L254:
 5704 54e0 00308DE5 		str	r3, [sp, #0]	@ float
 5705              	.L145:
 5706 54e4 8C041FE5 		ldr	r0, .L271+272
 5707 54e8 0B10A0E3 		mov	r1, #11
 5708 54ec FEFFFFEB 		bl	uart_check_free_space
 5709 54f0 000050E3 		cmp	r0, #0
 5710 54f4 5A00000A 		beq	.L146
 5711 54f8 BC341FE5 		ldr	r3, .L271+244
 5712 54fc B020D3E1 		ldrh	r2, [r3, #0]
 5713 5500 0B2082E2 		add	r2, r2, #11
 5714 5504 B020C3E1 		strh	r2, [r3, #0]	@ movhi
 5715 5508 C8341FE5 		ldr	r3, .L271+248
 5716 550c B020D3E1 		ldrh	r2, [r3, #0]
 5717 5510 012082E2 		add	r2, r2, #1
 5718 5514 B020C3E1 		strh	r2, [r3, #0]	@ movhi
 5719 5518 C0041FE5 		ldr	r0, .L271+272
 5720 551c 9910A0E3 		mov	r1, #153
 5721 5520 DC541FE5 		ldr	r5, .L271+252
 5722 5524 FEFFFFEB 		bl	uart_transmit
 5723 5528 D0041FE5 		ldr	r0, .L271+272
 5724 552c 0B10A0E3 		mov	r1, #11
 5725 5530 E8441FE5 		ldr	r4, .L271+256
 5726 5534 FEFFFFEB 		bl	uart_transmit
 5727 5538 0C30A0E3 		mov	r3, #12
 5728 553c 0030C5E5 		strb	r3, [r5, #0]
 5729 5540 1730A0E3 		mov	r3, #23
 5730 5544 0030C4E5 		strb	r3, [r4, #0]
 5731 5548 F0041FE5 		ldr	r0, .L271+272
 5732 554c 0110A0E3 		mov	r1, #1
 5733 5550 FEFFFFEB 		bl	uart_transmit
 5734 5554 0030D5E5 		ldrb	r3, [r5, #0]	@ zero_extendqisi2
 5735 5558 0020D4E5 		ldrb	r2, [r4, #0]	@ zero_extendqisi2
 5736 555c 1F3083E2 		add	r3, r3, #31
 5737 5560 FF3003E2 		and	r3, r3, #255
 5738 5564 0030C5E5 		strb	r3, [r5, #0]
 5739 5568 023083E0 		add	r3, r3, r2
 5740 556c 0030C4E5 		strb	r3, [r4, #0]
 5741 5570 18051FE5 		ldr	r0, .L271+272
 5742 5574 1F10A0E3 		mov	r1, #31
 5743 5578 FEFFFFEB 		bl	uart_transmit
 5744 557c 8C351FE5 		ldr	r3, .L271+168
 5745 5580 0010D3E5 		ldrb	r1, [r3, #0]	@ zero_extendqisi2
 5746 5584 0030D5E5 		ldrb	r3, [r5, #0]	@ zero_extendqisi2
 5747 5588 0020D4E5 		ldrb	r2, [r4, #0]	@ zero_extendqisi2
 5748 558c 033081E0 		add	r3, r1, r3
 5749 5590 FF3003E2 		and	r3, r3, #255
 5750 5594 0030C5E5 		strb	r3, [r5, #0]
 5751 5598 023083E0 		add	r3, r3, r2
 5752 559c 0030C4E5 		strb	r3, [r4, #0]
 5753 55a0 48051FE5 		ldr	r0, .L271+272
 5754 55a4 FEFFFFEB 		bl	uart_transmit
 5755 55a8 0010DDE5 		ldrb	r1, [sp, #0]	@ zero_extendqisi2
 5756 55ac 0030D5E5 		ldrb	r3, [r5, #0]	@ zero_extendqisi2
 5757 55b0 0020D4E5 		ldrb	r2, [r4, #0]	@ zero_extendqisi2
 5758 55b4 033081E0 		add	r3, r1, r3
 5759 55b8 FF3003E2 		and	r3, r3, #255
 5760 55bc 0030C5E5 		strb	r3, [r5, #0]
 5761 55c0 023083E0 		add	r3, r3, r2
 5762 55c4 0030C4E5 		strb	r3, [r4, #0]
 5763 55c8 70051FE5 		ldr	r0, .L271+272
 5764 55cc FEFFFFEB 		bl	uart_transmit
 5765 55d0 0110DDE5 		ldrb	r1, [sp, #1]	@ zero_extendqisi2
 5766 55d4 0030D5E5 		ldrb	r3, [r5, #0]	@ zero_extendqisi2
 5767 55d8 0020D4E5 		ldrb	r2, [r4, #0]	@ zero_extendqisi2
 5768 55dc 033081E0 		add	r3, r1, r3
 5769 55e0 FF3003E2 		and	r3, r3, #255
 5770 55e4 0030C5E5 		strb	r3, [r5, #0]
 5771 55e8 023083E0 		add	r3, r3, r2
 5772 55ec 0030C4E5 		strb	r3, [r4, #0]
 5773 55f0 98051FE5 		ldr	r0, .L271+272
 5774 55f4 FEFFFFEB 		bl	uart_transmit
 5775 55f8 0210DDE5 		ldrb	r1, [sp, #2]	@ zero_extendqisi2
 5776 55fc 0030D5E5 		ldrb	r3, [r5, #0]	@ zero_extendqisi2
 5777 5600 0020D4E5 		ldrb	r2, [r4, #0]	@ zero_extendqisi2
 5778 5604 033081E0 		add	r3, r1, r3
 5779 5608 FF3003E2 		and	r3, r3, #255
 5780 560c 0030C5E5 		strb	r3, [r5, #0]
 5781 5610 023083E0 		add	r3, r3, r2
 5782 5614 0030C4E5 		strb	r3, [r4, #0]
 5783 5618 C0051FE5 		ldr	r0, .L271+272
 5784 561c FEFFFFEB 		bl	uart_transmit
 5785 5620 0310DDE5 		ldrb	r1, [sp, #3]	@ zero_extendqisi2
 5786 5624 0030D5E5 		ldrb	r3, [r5, #0]	@ zero_extendqisi2
 5787 5628 0020D4E5 		ldrb	r2, [r4, #0]	@ zero_extendqisi2
 5788 562c 033081E0 		add	r3, r1, r3
 5789 5630 FF3003E2 		and	r3, r3, #255
 5790 5634 0030C5E5 		strb	r3, [r5, #0]
 5791 5638 023083E0 		add	r3, r3, r2
 5792 563c 0030C4E5 		strb	r3, [r4, #0]
 5793 5640 E8051FE5 		ldr	r0, .L271+272
 5794 5644 FEFFFFEB 		bl	uart_transmit
 5795 5648 0010D5E5 		ldrb	r1, [r5, #0]	@ zero_extendqisi2
 5796 564c F4051FE5 		ldr	r0, .L271+272
 5797 5650 FEFFFFEB 		bl	uart_transmit
 5798 5654 FC051FE5 		ldr	r0, .L271+272
 5799 5658 0010D4E5 		ldrb	r1, [r4, #0]	@ zero_extendqisi2
 5800 565c FEFFFFEB 		bl	uart_transmit
 5801 5660 030000EA 		b	.L147
 5802              	.L146:
 5803 5664 34361FE5 		ldr	r3, .L271+232
 5804 5668 0020D3E5 		ldrb	r2, [r3, #0]	@ zero_extendqisi2
 5805 566c 012082E2 		add	r2, r2, #1
 5806 5670 0020C3E5 		strb	r2, [r3, #0]
 5807              	.L147:
 5808 5674 84361FE5 		ldr	r3, .L271+168
 5809 5678 0020D3E5 		ldrb	r2, [r3, #0]	@ zero_extendqisi2
 5810 567c 012082E2 		add	r2, r2, #1
 5811 5680 0020C3E5 		strb	r2, [r3, #0]
 5812              	.L130:
 5813 5684 90361FE5 		ldr	r3, .L271+172
 5814 5688 0030D3E5 		ldrb	r3, [r3, #0]	@ zero_extendqisi2
 5815 568c 1E0053E3 		cmp	r3, #30
 5816 5690 D800001A 		bne	.L148
 5817 5694 9C361FE5 		ldr	r3, .L271+176
 5818 5698 0030D3E5 		ldrb	r3, [r3, #0]	@ zero_extendqisi2
 5819 569c 000053E3 		cmp	r3, #0
 5820 56a0 D400000A 		beq	.L148
 5821 56a4 4C061FE5 		ldr	r0, .L271+272
 5822 56a8 1610A0E3 		mov	r1, #22
 5823 56ac FEFFFFEB 		bl	uart_check_free_space
 5824 56b0 000050E3 		cmp	r0, #0
 5825 56b4 CB00000A 		beq	.L149
 5826 56b8 7C361FE5 		ldr	r3, .L271+244
 5827 56bc B020D3E1 		ldrh	r2, [r3, #0]
 5828 56c0 162082E2 		add	r2, r2, #22
 5829 56c4 B020C3E1 		strh	r2, [r3, #0]	@ movhi
 5830 56c8 88361FE5 		ldr	r3, .L271+248
 5831 56cc B020D3E1 		ldrh	r2, [r3, #0]
 5832 56d0 012082E2 		add	r2, r2, #1
 5833 56d4 B020C3E1 		strh	r2, [r3, #0]	@ movhi
 5834 56d8 80061FE5 		ldr	r0, .L271+272
 5835 56dc 9910A0E3 		mov	r1, #153
 5836 56e0 9C561FE5 		ldr	r5, .L271+252
 5837 56e4 FEFFFFEB 		bl	uart_transmit
 5838 56e8 90061FE5 		ldr	r0, .L271+272
 5839 56ec 1610A0E3 		mov	r1, #22
 5840 56f0 A8461FE5 		ldr	r4, .L271+256
 5841 56f4 FEFFFFEB 		bl	uart_transmit
 5842 56f8 1730A0E3 		mov	r3, #23
 5843 56fc 0030C5E5 		strb	r3, [r5, #0]
 5844 5700 2D30A0E3 		mov	r3, #45
 5845 5704 0030C4E5 		strb	r3, [r4, #0]
 5846 5708 B0061FE5 		ldr	r0, .L271+272
 5847 570c 0110A0E3 		mov	r1, #1
 5848 5710 FEFFFFEB 		bl	uart_transmit
 5849 5714 0030D5E5 		ldrb	r3, [r5, #0]	@ zero_extendqisi2
 5850 5718 0020D4E5 		ldrb	r2, [r4, #0]	@ zero_extendqisi2
 5851 571c 1B3083E2 		add	r3, r3, #27
 5852 5720 FF3003E2 		and	r3, r3, #255
 5853 5724 28671FE5 		ldr	r6, .L271+180
 5854 5728 0030C5E5 		strb	r3, [r5, #0]
 5855 572c 023083E0 		add	r3, r3, r2
 5856 5730 0030C4E5 		strb	r3, [r4, #0]
 5857 5734 DC061FE5 		ldr	r0, .L271+272
 5858 5738 1B10A0E3 		mov	r1, #27
 5859 573c FEFFFFEB 		bl	uart_transmit
 5860 5740 0010D6E5 		ldrb	r1, [r6, #0]	@ zero_extendqisi2
 5861 5744 0030D5E5 		ldrb	r3, [r5, #0]	@ zero_extendqisi2
 5862 5748 0020D4E5 		ldrb	r2, [r4, #0]	@ zero_extendqisi2
 5863 574c 033081E0 		add	r3, r1, r3
 5864 5750 FF3003E2 		and	r3, r3, #255
 5865 5754 0030C5E5 		strb	r3, [r5, #0]
 5866 5758 023083E0 		add	r3, r3, r2
 5867 575c 0030C4E5 		strb	r3, [r4, #0]
 5868 5760 08071FE5 		ldr	r0, .L271+272
 5869 5764 FEFFFFEB 		bl	uart_transmit
 5870 5768 0110D6E5 		ldrb	r1, [r6, #1]	@ zero_extendqisi2
 5871 576c 0030D5E5 		ldrb	r3, [r5, #0]	@ zero_extendqisi2
 5872 5770 0020D4E5 		ldrb	r2, [r4, #0]	@ zero_extendqisi2
 5873 5774 033081E0 		add	r3, r1, r3
 5874 5778 FF3003E2 		and	r3, r3, #255
 5875 577c 0030C5E5 		strb	r3, [r5, #0]
 5876 5780 023083E0 		add	r3, r3, r2
 5877 5784 0030C4E5 		strb	r3, [r4, #0]
 5878 5788 30071FE5 		ldr	r0, .L271+272
 5879 578c FEFFFFEB 		bl	uart_transmit
 5880 5790 0210D6E5 		ldrb	r1, [r6, #2]	@ zero_extendqisi2
 5881 5794 0030D5E5 		ldrb	r3, [r5, #0]	@ zero_extendqisi2
 5882 5798 0020D4E5 		ldrb	r2, [r4, #0]	@ zero_extendqisi2
 5883 579c 033081E0 		add	r3, r1, r3
 5884 57a0 FF3003E2 		and	r3, r3, #255
 5885 57a4 0030C5E5 		strb	r3, [r5, #0]
 5886 57a8 023083E0 		add	r3, r3, r2
 5887 57ac 0030C4E5 		strb	r3, [r4, #0]
 5888 57b0 58071FE5 		ldr	r0, .L271+272
 5889 57b4 FEFFFFEB 		bl	uart_transmit
