   1              		.cpu arm7tdmi
   2              		.fpu softvfp
   3              		.eabi_attribute 20, 1
   4              		.eabi_attribute 21, 1
   5              		.eabi_attribute 23, 3
   6              		.eabi_attribute 24, 1
   7              		.eabi_attribute 25, 1
   8              		.eabi_attribute 26, 1
   9              		.eabi_attribute 30, 4
  10              		.eabi_attribute 18, 4
  11              		.file	"OSAMNav.c"
  12              		.section	.text.stateGetPositionEnu_f,"ax",%progbits
  13              		.align	2
  15              	stateGetPositionEnu_f:
  16              		@ Function supports interworking.
  17              		@ args = 0, pretend = 0, frame = 0
  18              		@ frame_needed = 0, uses_anonymous_args = 0
  19 0000 08402DE9 		stmfd	sp!, {r3, lr}
  20 0004 14309FE5 		ldr	r3, .L3
  21 0008 B030D3E1 		ldrh	r3, [r3, #0]
  22 000c 800013E3 		tst	r3, #128
  23 0010 FEFFFF0B 		bleq	stateCalcPositionEnu_f
  24              	.L2:
  25 0014 08009FE5 		ldr	r0, .L3+4
  26 0018 0840BDE8 		ldmfd	sp!, {r3, lr}
  27 001c 1EFF2FE1 		bx	lr
  28              	.L4:
  29              		.align	2
  30              	.L3:
  31 0020 00000000 		.word	state
  32 0024 08010000 		.word	state+264
  34              		.section	.text.stateGetHorizontalSpeedNorm_f,"ax",%progbits
  35              		.align	2
  37              	stateGetHorizontalSpeedNorm_f:
  38              		@ Function supports interworking.
  39              		@ args = 0, pretend = 0, frame = 0
  40              		@ frame_needed = 0, uses_anonymous_args = 0
  41 0000 08402DE9 		stmfd	sp!, {r3, lr}
  42 0004 14309FE5 		ldr	r3, .L7
  43 0008 1531D3E5 		ldrb	r3, [r3, #277]	@ zero_extendqisi2
  44 000c 010013E3 		tst	r3, #1
  45 0010 FEFFFF0B 		bleq	stateCalcHorizontalSpeedNorm_f
  46              	.L6:
  47 0014 08009FE5 		ldr	r0, .L7+4
  48 0018 0840BDE8 		ldmfd	sp!, {r3, lr}
  49 001c 1EFF2FE1 		bx	lr
  50              	.L8:
  51              		.align	2
  52              	.L7:
  53 0020 00000000 		.word	state
  54 0024 68010000 		.word	state+360
  56              		.global	__aeabi_fsub
  57              		.global	__aeabi_fmul
  58              		.global	__aeabi_fadd
  59              		.global	__aeabi_f2d
  60              		.global	__aeabi_d2f
  61              		.global	__aeabi_dadd
  62              		.global	__aeabi_dmul
  63              		.global	__aeabi_fcmpgt
  64              		.section	.text.InitializeFlower,"ax",%progbits
  65              		.align	2
  66              		.global	InitializeFlower
  68              	InitializeFlower:
  69              		@ Function supports interworking.
  70              		@ args = 0, pretend = 0, frame = 16
  71              		@ frame_needed = 0, uses_anonymous_args = 0
  72 0000 6C329FE5 		ldr	r3, .L16
  73 0004 F04F2DE9 		stmfd	sp!, {r4, r5, r6, r7, r8, r9, sl, fp, lr}
  74 0008 0C50A0E3 		mov	r5, #12
  75 000c 0010C3E5 		strb	r1, [r3, #0]
  76 0010 950003E0 		mul	r3, r5, r0
  77 0014 950101E0 		mul	r1, r5, r1
  78 0018 58729FE5 		ldr	r7, .L16+4
  79 001c 58429FE5 		ldr	r4, .L16+8
  80 0020 0000C7E5 		strb	r0, [r7, #0]
  81 0024 14D04DE2 		sub	sp, sp, #20
  82 0028 010094E7 		ldr	r0, [r4, r1]	@ float
  83 002c 01A084E0 		add	sl, r4, r1
  84 0030 031094E7 		ldr	r1, [r4, r3]	@ float
  85 0034 036084E0 		add	r6, r4, r3
  86 0038 FEFFFFEB 		bl	__aeabi_fsub
  87 003c 3C329FE5 		ldr	r3, .L16+12
  88 0040 000083E5 		str	r0, [r3, #0]	@ float
  89 0044 0080A0E1 		mov	r8, r0
  90 0048 041096E5 		ldr	r1, [r6, #4]	@ float
  91 004c 04009AE5 		ldr	r0, [sl, #4]	@ float
  92 0050 FEFFFFEB 		bl	__aeabi_fsub
  93 0054 28329FE5 		ldr	r3, .L16+16
  94 0058 0060A0E1 		mov	r6, r0
  95 005c 000083E5 		str	r0, [r3, #0]	@ float
  96 0060 0810A0E1 		mov	r1, r8
  97 0064 0800A0E1 		mov	r0, r8
  98 0068 FEFFFFEB 		bl	__aeabi_fmul
  99 006c 0610A0E1 		mov	r1, r6
 100 0070 0080A0E1 		mov	r8, r0
 101 0074 0600A0E1 		mov	r0, r6
 102 0078 FEFFFFEB 		bl	__aeabi_fmul
 103 007c 0010A0E1 		mov	r1, r0
 104 0080 0800A0E1 		mov	r0, r8
 105 0084 FEFFFFEB 		bl	__aeabi_fadd
 106 0088 FEFFFFEB 		bl	__aeabi_f2d
 107 008c FEFFFFEB 		bl	sqrt
 108 0090 FEFFFFEB 		bl	__aeabi_d2f
 109 0094 EC619FE5 		ldr	r6, .L16+20
 110 0098 000086E5 		str	r0, [r6, #0]	@ float
 111 009c FEFFFFEB 		bl	stateGetPositionEnu_f
 112 00a0 0030D7E5 		ldrb	r3, [r7, #0]	@ zero_extendqisi2
 113 00a4 950303E0 		mul	r3, r5, r3
 114 00a8 000090E5 		ldr	r0, [r0, #0]	@ float
 115 00ac 031094E7 		ldr	r1, [r4, r3]	@ float
 116 00b0 FEFFFFEB 		bl	__aeabi_fsub
 117 00b4 D0819FE5 		ldr	r8, .L16+24
 118 00b8 000088E5 		str	r0, [r8, #0]	@ float
 119 00bc FEFFFFEB 		bl	stateGetPositionEnu_f
 120 00c0 0030D7E5 		ldrb	r3, [r7, #0]	@ zero_extendqisi2
 121 00c4 930505E0 		mul	r5, r3, r5
 122 00c8 057084E0 		add	r7, r4, r5
 123 00cc 041097E5 		ldr	r1, [r7, #4]	@ float
 124 00d0 040090E5 		ldr	r0, [r0, #4]	@ float
 125 00d4 FEFFFFEB 		bl	__aeabi_fsub
 126 00d8 B0319FE5 		ldr	r3, .L16+28
 127 00dc 00A098E5 		ldr	sl, [r8, #0]	@ float
 128 00e0 000083E5 		str	r0, [r3, #0]	@ float
 129 00e4 0090A0E1 		mov	r9, r0
 130 00e8 0A10A0E1 		mov	r1, sl
 131 00ec 0A00A0E1 		mov	r0, sl
 132 00f0 FEFFFFEB 		bl	__aeabi_fmul
 133 00f4 0910A0E1 		mov	r1, r9
 134 00f8 0080A0E1 		mov	r8, r0
 135 00fc 0900A0E1 		mov	r0, r9
 136 0100 FEFFFFEB 		bl	__aeabi_fmul
 137 0104 0010A0E1 		mov	r1, r0
 138 0108 0800A0E1 		mov	r0, r8
 139 010c FEFFFFEB 		bl	__aeabi_fadd
 140 0110 FEFFFFEB 		bl	__aeabi_f2d
 141 0114 FEFFFFEB 		bl	sqrt
 142 0118 FEFFFFEB 		bl	__aeabi_d2f
 143 011c 70819FE5 		ldr	r8, .L16+32
 144 0120 000088E5 		str	r0, [r8, #0]	@ float
 145 0124 0900A0E1 		mov	r0, r9
 146 0128 FEFFFFEB 		bl	__aeabi_f2d
 147 012c 03008DE8 		stmia	sp, {r0-r1}
 148 0130 0A00A0E1 		mov	r0, sl
 149 0134 FEFFFFEB 		bl	__aeabi_f2d
 150 0138 0020A0E1 		mov	r2, r0
 151 013c 0130A0E1 		mov	r3, r1
 152 0140 03009DE8 		ldmia	sp, {r0-r1}
 153 0144 FEFFFFEB 		bl	atan2
 154 0148 FEFFFFEB 		bl	__aeabi_d2f
 155 014c 44319FE5 		ldr	r3, .L16+36
 156 0150 00A0A0E1 		mov	sl, r0
 157 0154 000083E5 		str	r0, [r3, #0]	@ float
 158 0158 000096E5 		ldr	r0, [r6, #0]	@ float
 159 015c FEFFFFEB 		bl	__aeabi_f2d
 160 0160 03008DE8 		stmia	sp, {r0-r1}
 161 0164 0A00A0E1 		mov	r0, sl
 162 0168 FEFFFFEB 		bl	__aeabi_f2d
 163 016c 28219FE5 		ldr	r2, .L16+40
 164 0170 28319FE5 		ldr	r3, .L16+44
 165 0174 FEFFFFEB 		bl	__aeabi_dadd
 166 0178 08008DE5 		str	r0, [sp, #8]
 167 017c 0C108DE5 		str	r1, [sp, #12]
 168 0180 FEFFFFEB 		bl	cos
 169 0184 0020A0E1 		mov	r2, r0
 170 0188 0130A0E1 		mov	r3, r1
 171 018c 03009DE8 		ldmia	sp, {r0-r1}
 172 0190 FEFFFFEB 		bl	__aeabi_dmul
 173 0194 00A0A0E1 		mov	sl, r0
 174 0198 050094E7 		ldr	r0, [r4, r5]	@ float
 175 019c 01B0A0E1 		mov	fp, r1
 176 01a0 FEFFFFEB 		bl	__aeabi_f2d
 177 01a4 0020A0E1 		mov	r2, r0
 178 01a8 0130A0E1 		mov	r3, r1
 179 01ac 0A00A0E1 		mov	r0, sl
 180 01b0 0B10A0E1 		mov	r1, fp
 181 01b4 FEFFFFEB 		bl	__aeabi_dadd
 182 01b8 FEFFFFEB 		bl	__aeabi_d2f
 183 01bc E0309FE5 		ldr	r3, .L16+48
 184 01c0 000083E5 		str	r0, [r3, #0]	@ float
 185 01c4 08108DE2 		add	r1, sp, #8
 186 01c8 030091E8 		ldmia	r1, {r0-r1}
 187 01cc FEFFFFEB 		bl	sin
 188 01d0 0020A0E1 		mov	r2, r0
 189 01d4 0130A0E1 		mov	r3, r1
 190 01d8 03009DE8 		ldmia	sp, {r0-r1}
 191 01dc FEFFFFEB 		bl	__aeabi_dmul
 192 01e0 0040A0E1 		mov	r4, r0
 193 01e4 040097E5 		ldr	r0, [r7, #4]	@ float
 194 01e8 0150A0E1 		mov	r5, r1
 195 01ec FEFFFFEB 		bl	__aeabi_f2d
 196 01f0 0020A0E1 		mov	r2, r0
 197 01f4 0130A0E1 		mov	r3, r1
 198 01f8 0400A0E1 		mov	r0, r4
 199 01fc 0510A0E1 		mov	r1, r5
 200 0200 FEFFFFEB 		bl	__aeabi_dadd
 201 0204 FEFFFFEB 		bl	__aeabi_d2f
 202 0208 98309FE5 		ldr	r3, .L16+52
 203 020c 000083E5 		str	r0, [r3, #0]	@ float
 204 0210 FEFFFFEB 		bl	stateGetPositionEnu_f
 205 0214 90309FE5 		ldr	r3, .L16+56
 206 0218 002090E5 		ldr	r2, [r0, #0]	@ float
 207 021c 002083E5 		str	r2, [r3, #0]	@ float
 208 0220 FEFFFFEB 		bl	stateGetPositionEnu_f
 209 0224 84309FE5 		ldr	r3, .L16+60
 210 0228 042090E5 		ldr	r2, [r0, #4]	@ float
 211 022c 001096E5 		ldr	r1, [r6, #0]	@ float
 212 0230 002083E5 		str	r2, [r3, #0]	@ float
 213 0234 000098E5 		ldr	r0, [r8, #0]	@ float
 214 0238 FEFFFFEB 		bl	__aeabi_fcmpgt
 215 023c 70309FE5 		ldr	r3, .L16+64
 216 0240 000050E3 		cmp	r0, #0
 217 0244 0020A013 		movne	r2, #0
 218 0248 0120A003 		moveq	r2, #1
 219 024c 0020C3E5 		strb	r2, [r3, #0]
 220 0250 60209FE5 		ldr	r2, .L16+68
 221 0254 0030A0E3 		mov	r3, #0
 222 0258 003082E5 		str	r3, [r2, #0]	@ float
 223 025c 58209FE5 		ldr	r2, .L16+72
 224 0260 0000A0E3 		mov	r0, #0
 225 0264 003082E5 		str	r3, [r2, #0]	@ float
 226 0268 14D08DE2 		add	sp, sp, #20
 227 026c F04FBDE8 		ldmfd	sp!, {r4, r5, r6, r7, r8, r9, sl, fp, lr}
 228 0270 1EFF2FE1 		bx	lr
 229              	.L17:
 230              		.align	2
 231              	.L16:
 232 0274 00000000 		.word	.LANCHOR1
 233 0278 00000000 		.word	.LANCHOR0
 234 027c 00000000 		.word	waypoints
 235 0280 00000000 		.word	.LANCHOR2
 236 0284 00000000 		.word	.LANCHOR3
 237 0288 00000000 		.word	.LANCHOR4
 238 028c 00000000 		.word	.LANCHOR5
 239 0290 00000000 		.word	.LANCHOR6
 240 0294 00000000 		.word	.LANCHOR7
 241 0298 00000000 		.word	.LANCHOR8
 242 029c 1F85EB51 		.word	1374389535
 243 02a0 B81E0940 		.word	1074339512
 244 02a4 00000000 		.word	.LANCHOR9
 245 02a8 00000000 		.word	.LANCHOR10
 246 02ac 00000000 		.word	.LANCHOR11
 247 02b0 00000000 		.word	.LANCHOR12
 248 02b4 00000000 		.word	.LANCHOR13
 249 02b8 00000000 		.word	.LANCHOR14
 250 02bc 00000000 		.word	.LANCHOR15
 252              		.global	__aeabi_fdiv
 253              		.global	__aeabi_dsub
 254              		.section	.text.FlowerNav,"ax",%progbits
 255              		.align	2
 256              		.global	FlowerNav
 258              	FlowerNav:
 259              		@ Function supports interworking.
 260              		@ args = 0, pretend = 0, frame = 24
 261              		@ frame_needed = 0, uses_anonymous_args = 0
 262 0000 F04F2DE9 		stmfd	sp!, {r4, r5, r6, r7, r8, r9, sl, fp, lr}
 263 0004 1CD04DE2 		sub	sp, sp, #28
 264 0008 FEFFFFEB 		bl	stateGetPositionEnu_f
 265 000c BC559FE5 		ldr	r5, .L31
 266 0010 0030D5E5 		ldrb	r3, [r5, #0]	@ zero_extendqisi2
 267 0014 0C70A0E3 		mov	r7, #12
 268 0018 970303E0 		mul	r3, r7, r3
 269 001c B0459FE5 		ldr	r4, .L31+4
 270 0020 000090E5 		ldr	r0, [r0, #0]	@ float
 271 0024 031094E7 		ldr	r1, [r4, r3]	@ float
 272 0028 FEFFFFEB 		bl	__aeabi_fsub
 273 002c A4659FE5 		ldr	r6, .L31+8
 274 0030 000086E5 		str	r0, [r6, #0]	@ float
 275 0034 FEFFFFEB 		bl	stateGetPositionEnu_f
 276 0038 0050D5E5 		ldrb	r5, [r5, #0]	@ zero_extendqisi2
 277 003c 974524E0 		mla	r4, r7, r5, r4
 278 0040 040090E5 		ldr	r0, [r0, #4]	@ float
 279 0044 041094E5 		ldr	r1, [r4, #4]	@ float
 280 0048 FEFFFFEB 		bl	__aeabi_fsub
 281 004c 88359FE5 		ldr	r3, .L31+12
 282 0050 0040A0E1 		mov	r4, r0
 283 0054 000083E5 		str	r0, [r3, #0]	@ float
 284 0058 000096E5 		ldr	r0, [r6, #0]	@ float
 285 005c 0010A0E1 		mov	r1, r0
 286 0060 FEFFFFEB 		bl	__aeabi_fmul
 287 0064 0410A0E1 		mov	r1, r4
 288 0068 0060A0E1 		mov	r6, r0
 289 006c 0400A0E1 		mov	r0, r4
 290 0070 FEFFFFEB 		bl	__aeabi_fmul
 291 0074 0010A0E1 		mov	r1, r0
 292 0078 0600A0E1 		mov	r0, r6
 293 007c FEFFFFEB 		bl	__aeabi_fadd
 294 0080 FEFFFFEB 		bl	__aeabi_f2d
 295 0084 FEFFFFEB 		bl	sqrt
 296 0088 FEFFFFEB 		bl	__aeabi_d2f
 297 008c 4C359FE5 		ldr	r3, .L31+16
 298 0090 000083E5 		str	r0, [r3, #0]	@ float
 299 0094 48359FE5 		ldr	r3, .L31+20
 300 0098 001093E5 		ldr	r1, [r3, #0]	@ float
 301 009c FEFFFFEB 		bl	__aeabi_fcmpgt
 302 00a0 2C459FE5 		ldr	r4, .L31+4
 303 00a4 0C60A0E3 		mov	r6, #12
 304 00a8 964525E0 		mla	r5, r6, r5, r4
 305 00ac 34359FE5 		ldr	r3, .L31+24
 306 00b0 34259FE5 		ldr	r2, .L31+28
 307 00b4 0080A0E3 		mov	r8, #0
 308 00b8 0080C3E5 		strb	r8, [r3, #0]
 309 00bc 0030A0E3 		mov	r3, #0
 310 00c0 003082E5 		str	r3, [r2, #0]	@ float
 311 00c4 24259FE5 		ldr	r2, .L31+32
 312 00c8 0310A0E3 		mov	r1, #3
 313 00cc 0010C2E5 		strb	r1, [r2, #0]
 314 00d0 1C259FE5 		ldr	r2, .L31+36
 315 00d4 081095E5 		ldr	r1, [r5, #8]	@ float
 316 00d8 18559FE5 		ldr	r5, .L31+40
 317 00dc 001082E5 		str	r1, [r2, #0]	@ float
 318 00e0 14259FE5 		ldr	r2, .L31+44
 319 00e4 000050E3 		cmp	r0, #0
 320 00e8 003082E5 		str	r3, [r2, #0]	@ float
 321 00ec 0030D5E5 		ldrb	r3, [r5, #0]	@ zero_extendqisi2
 322 00f0 0170A0E3 		mov	r7, #1
 323 00f4 0070A003 		moveq	r7, #0
 324 00f8 017027E2 		eor	r7, r7, #1
 325 00fc 010053E3 		cmp	r3, #1
 326 0100 FF7007E2 		and	r7, r7, #255
 327 0104 5900000A 		beq	.L22
 328 0108 0200003A 		bcc	.L21
 329 010c 020053E3 		cmp	r3, #2
 330 0110 2A01001A 		bne	.L20
 331 0114 A50000EA 		b	.L30
 332              	.L21:
 333 0118 E0949FE5 		ldr	r9, .L31+48
 334 011c E0B49FE5 		ldr	fp, .L31+52
 335 0120 E0849FE5 		ldr	r8, .L31+56
 336 0124 E0A49FE5 		ldr	sl, .L31+60
 337 0128 000099E5 		ldr	r0, [r9, #0]	@ float
 338 012c 00109BE5 		ldr	r1, [fp, #0]	@ float
 339 0130 002098E5 		ldr	r2, [r8, #0]	@ float
 340 0134 00309AE5 		ldr	r3, [sl, #0]	@ float
 341 0138 FEFFFFEB 		bl	nav_route_xy
 342 013c 000057E3 		cmp	r7, #0
 343 0140 1E01000A 		beq	.L20
 344 0144 0130A0E3 		mov	r3, #1
 345 0148 0030C5E5 		strb	r3, [r5, #0]
 346 014c 88349FE5 		ldr	r3, .L31+12
 347 0150 000093E5 		ldr	r0, [r3, #0]	@ float
 348 0154 FEFFFFEB 		bl	__aeabi_f2d
 349 0158 78349FE5 		ldr	r3, .L31+8
 350 015c 03008DE8 		stmia	sp, {r0-r1}
 351 0160 000093E5 		ldr	r0, [r3, #0]	@ float
 352 0164 FEFFFFEB 		bl	__aeabi_f2d
 353 0168 0020A0E1 		mov	r2, r0
 354 016c 0130A0E1 		mov	r3, r1
 355 0170 03009DE8 		ldmia	sp, {r0-r1}
 356 0174 FEFFFFEB 		bl	atan2
 357 0178 FEFFFFEB 		bl	__aeabi_d2f
 358 017c 8C349FE5 		ldr	r3, .L31+64
 359 0180 000083E5 		str	r0, [r3, #0]	@ float
 360 0184 58349FE5 		ldr	r3, .L31+20
 361 0188 0050A0E1 		mov	r5, r0
 362 018c 000093E5 		ldr	r0, [r3, #0]	@ float
 363 0190 FEFFFFEB 		bl	__aeabi_f2d
 364 0194 03008DE8 		stmia	sp, {r0-r1}
 365 0198 0500A0E1 		mov	r0, r5
 366 019c FEFFFFEB 		bl	__aeabi_f2d
 367 01a0 6C249FE5 		ldr	r2, .L31+68
 368 01a4 6C349FE5 		ldr	r3, .L31+72
 369 01a8 FEFFFFEB 		bl	__aeabi_dadd
 370 01ac 10008DE5 		str	r0, [sp, #16]
 371 01b0 14108DE5 		str	r1, [sp, #20]
 372 01b4 FEFFFFEB 		bl	cos
 373 01b8 10349FE5 		ldr	r3, .L31
 374 01bc 08008DE5 		str	r0, [sp, #8]
 375 01c0 0C108DE5 		str	r1, [sp, #12]
 376 01c4 0050D3E5 		ldrb	r5, [r3, #0]	@ zero_extendqisi2
 377 01c8 03009DE8 		ldmia	sp, {r0-r1}
 378 01cc 08308DE2 		add	r3, sp, #8
 379 01d0 0C0093E8 		ldmia	r3, {r2-r3}
 380 01d4 FEFFFFEB 		bl	__aeabi_dmul
 381 01d8 950606E0 		mul	r6, r5, r6
 382 01dc 08008DE5 		str	r0, [sp, #8]
 383 01e0 0C108DE5 		str	r1, [sp, #12]
 384 01e4 060094E7 		ldr	r0, [r4, r6]	@ float
 385 01e8 FEFFFFEB 		bl	__aeabi_f2d
 386 01ec 0020A0E1 		mov	r2, r0
 387 01f0 0130A0E1 		mov	r3, r1
 388 01f4 08108DE2 		add	r1, sp, #8
 389 01f8 030091E8 		ldmia	r1, {r0-r1}
 390 01fc FEFFFFEB 		bl	__aeabi_dadd
 391 0200 FEFFFFEB 		bl	__aeabi_d2f
 392 0204 000088E5 		str	r0, [r8, #0]	@ float
 393 0208 10108DE2 		add	r1, sp, #16
 394 020c 030091E8 		ldmia	r1, {r0-r1}
 395 0210 FEFFFFEB 		bl	sin
 396 0214 0020A0E1 		mov	r2, r0
 397 0218 0130A0E1 		mov	r3, r1
 398 021c 03009DE8 		ldmia	sp, {r0-r1}
 399 0220 FEFFFFEB 		bl	__aeabi_dmul
 400 0224 067084E0 		add	r7, r4, r6
 401 0228 0040A0E1 		mov	r4, r0
 402 022c 040097E5 		ldr	r0, [r7, #4]	@ float
 403 0230 0150A0E1 		mov	r5, r1
 404 0234 FEFFFFEB 		bl	__aeabi_f2d
 405 0238 0020A0E1 		mov	r2, r0
 406 023c 0130A0E1 		mov	r3, r1
 407 0240 0400A0E1 		mov	r0, r4
 408 0244 0510A0E1 		mov	r1, r5
 409 0248 FEFFFFEB 		bl	__aeabi_dadd
 410 024c FEFFFFEB 		bl	__aeabi_d2f
 411 0250 00008AE5 		str	r0, [sl, #0]	@ float
 412 0254 FEFFFFEB 		bl	stateGetPositionEnu_f
 413 0258 003090E5 		ldr	r3, [r0, #0]	@ float
 414 025c 003089E5 		str	r3, [r9, #0]	@ float
 415 0260 FEFFFFEB 		bl	stateGetPositionEnu_f
 416 0264 043090E5 		ldr	r3, [r0, #4]	@ float
 417 0268 00308BE5 		str	r3, [fp, #0]	@ float
 418 026c D20000EA 		b	.L29
 419              	.L22:
 420 0270 88339FE5 		ldr	r3, .L31+48
 421 0274 000093E5 		ldr	r0, [r3, #0]	@ float
 422 0278 84339FE5 		ldr	r3, .L31+52
 423 027c 001093E5 		ldr	r1, [r3, #0]	@ float
 424 0280 80339FE5 		ldr	r3, .L31+56
 425 0284 002093E5 		ldr	r2, [r3, #0]	@ float
 426 0288 7C339FE5 		ldr	r3, .L31+60
 427 028c 003093E5 		ldr	r3, [r3, #0]	@ float
 428 0290 FEFFFFEB 		bl	nav_route_xy
 429 0294 000057E3 		cmp	r7, #0
 430 0298 C800001A 		bne	.L20
 431 029c 0230A0E3 		mov	r3, #2
 432 02a0 0030C5E5 		strb	r3, [r5, #0]
 433 02a4 38339FE5 		ldr	r3, .L31+20
 434 02a8 005093E5 		ldr	r5, [r3, #0]	@ float
 435 02ac 0500A0E1 		mov	r0, r5
 436 02b0 FEFFFFEB 		bl	__aeabi_f2d
 437 02b4 54339FE5 		ldr	r3, .L31+64
 438 02b8 00A0A0E1 		mov	sl, r0
 439 02bc 000093E5 		ldr	r0, [r3, #0]	@ float
 440 02c0 01B0A0E1 		mov	fp, r1
 441 02c4 FEFFFFEB 		bl	__aeabi_f2d
 442 02c8 44239FE5 		ldr	r2, .L31+68
 443 02cc 44339FE5 		ldr	r3, .L31+72
 444 02d0 FEFFFFEB 		bl	__aeabi_dadd
 445 02d4 40339FE5 		ldr	r3, .L31+76
 446 02d8 0080A0E1 		mov	r8, r0
 447 02dc 0190A0E1 		mov	r9, r1
 448 02e0 000093E5 		ldr	r0, [r3, #0]	@ float
 449 02e4 0510A0E1 		mov	r1, r5
 450 02e8 FEFFFFEB 		bl	__aeabi_fdiv
 451 02ec FEFFFFEB 		bl	__aeabi_f2d
 452 02f0 0020A0E1 		mov	r2, r0
 453 02f4 0130A0E1 		mov	r3, r1
 454 02f8 0800A0E1 		mov	r0, r8
 455 02fc 0910A0E1 		mov	r1, r9
 456 0300 FEFFFFEB 		bl	__aeabi_dsub
 457 0304 03008DE8 		stmia	sp, {r0-r1}
 458 0308 FEFFFFEB 		bl	cos
 459 030c 0130A0E1 		mov	r3, r1
 460 0310 B8129FE5 		ldr	r1, .L31
 461 0314 0020A0E1 		mov	r2, r0
 462 0318 0050D1E5 		ldrb	r5, [r1, #0]	@ zero_extendqisi2
 463 031c 0A00A0E1 		mov	r0, sl
 464 0320 0B10A0E1 		mov	r1, fp
 465 0324 FEFFFFEB 		bl	__aeabi_dmul
 466 0328 950606E0 		mul	r6, r5, r6
 467 032c 0080A0E1 		mov	r8, r0
 468 0330 060094E7 		ldr	r0, [r4, r6]	@ float
 469 0334 0190A0E1 		mov	r9, r1
 470 0338 FEFFFFEB 		bl	__aeabi_f2d
 471 033c 0020A0E1 		mov	r2, r0
 472 0340 0130A0E1 		mov	r3, r1
 473 0344 0800A0E1 		mov	r0, r8
 474 0348 0910A0E1 		mov	r1, r9
 475 034c FEFFFFEB 		bl	__aeabi_dadd
 476 0350 FEFFFFEB 		bl	__aeabi_d2f
 477 0354 C4329FE5 		ldr	r3, .L31+80
 478 0358 000083E5 		str	r0, [r3, #0]	@ float
 479 035c 03009DE8 		ldmia	sp, {r0-r1}
 480 0360 FEFFFFEB 		bl	sin
 481 0364 0020A0E1 		mov	r2, r0
 482 0368 0130A0E1 		mov	r3, r1
 483 036c 0A00A0E1 		mov	r0, sl
 484 0370 0B10A0E1 		mov	r1, fp
 485 0374 FEFFFFEB 		bl	__aeabi_dmul
 486 0378 067084E0 		add	r7, r4, r6
 487 037c 0040A0E1 		mov	r4, r0
 488 0380 040097E5 		ldr	r0, [r7, #4]	@ float
 489 0384 0150A0E1 		mov	r5, r1
 490 0388 FEFFFFEB 		bl	__aeabi_f2d
 491 038c 0130A0E1 		mov	r3, r1
 492 0390 0020A0E1 		mov	r2, r0
 493 0394 0510A0E1 		mov	r1, r5
 494 0398 0400A0E1 		mov	r0, r4
 495 039c FEFFFFEB 		bl	__aeabi_dadd
 496 03a0 FEFFFFEB 		bl	__aeabi_d2f
 497 03a4 78329FE5 		ldr	r3, .L31+84
 498 03a8 000083E5 		str	r0, [r3, #0]	@ float
 499 03ac 820000EA 		b	.L29
 500              	.L30:
 501 03b0 68329FE5 		ldr	r3, .L31+80
 502 03b4 000093E5 		ldr	r0, [r3, #0]	@ float
 503 03b8 64329FE5 		ldr	r3, .L31+84
 504 03bc 001093E5 		ldr	r1, [r3, #0]	@ float
 505 03c0 54329FE5 		ldr	r3, .L31+76
 506 03c4 002093E5 		ldr	r2, [r3, #0]	@ float
 507 03c8 FEFFFFEB 		bl	nav_circle_XY
 508 03cc 000057E3 		cmp	r7, #0
 509 03d0 7A00000A 		beq	.L20
 510 03d4 F4219FE5 		ldr	r2, .L31
 511 03d8 48329FE5 		ldr	r3, .L31+88
 512 03dc 0070D2E5 		ldrb	r7, [r2, #0]	@ zero_extendqisi2
 513 03e0 0030D3E5 		ldrb	r3, [r3, #0]	@ zero_extendqisi2
 514 03e4 960303E0 		mul	r3, r6, r3
 515 03e8 970606E0 		mul	r6, r7, r6
 516 03ec 030094E7 		ldr	r0, [r4, r3]	@ float
 517 03f0 061094E7 		ldr	r1, [r4, r6]	@ float
 518 03f4 039084E0 		add	r9, r4, r3
 519 03f8 FEFFFFEB 		bl	__aeabi_fsub
 520 03fc 28329FE5 		ldr	r3, .L31+92
 521 0400 000083E5 		str	r0, [r3, #0]	@ float
 522 0404 06A084E0 		add	sl, r4, r6
 523 0408 04109AE5 		ldr	r1, [sl, #4]	@ float
 524 040c 0060A0E1 		mov	r6, r0
 525 0410 040099E5 		ldr	r0, [r9, #4]	@ float
 526 0414 FEFFFFEB 		bl	__aeabi_fsub
 527 0418 10329FE5 		ldr	r3, .L31+96
 528 041c 0040A0E1 		mov	r4, r0
 529 0420 000083E5 		str	r0, [r3, #0]	@ float
 530 0424 0610A0E1 		mov	r1, r6
 531 0428 0600A0E1 		mov	r0, r6
 532 042c FEFFFFEB 		bl	__aeabi_fmul
 533 0430 0410A0E1 		mov	r1, r4
 534 0434 0060A0E1 		mov	r6, r0
 535 0438 0400A0E1 		mov	r0, r4
 536 043c FEFFFFEB 		bl	__aeabi_fmul
 537 0440 0010A0E1 		mov	r1, r0
 538 0444 0600A0E1 		mov	r0, r6
 539 0448 FEFFFFEB 		bl	__aeabi_fadd
 540 044c FEFFFFEB 		bl	__aeabi_f2d
 541 0450 FEFFFFEB 		bl	sqrt
 542 0454 FEFFFFEB 		bl	__aeabi_d2f
 543 0458 84319FE5 		ldr	r3, .L31+20
 544 045c 000083E5 		str	r0, [r3, #0]	@ float
 545 0460 78319FE5 		ldr	r3, .L31+16
 546 0464 0040A0E1 		mov	r4, r0
 547 0468 0410A0E1 		mov	r1, r4
 548 046c 000093E5 		ldr	r0, [r3, #0]	@ float
 549 0470 FEFFFFEB 		bl	__aeabi_fcmpgt
 550 0474 000050E3 		cmp	r0, #0
 551 0478 0130A003 		moveq	r3, #1
 552 047c 0030C505 		streqb	r3, [r5, #0]
 553 0480 54319FE5 		ldr	r3, .L31+12
 554 0484 0080C515 		strneb	r8, [r5, #0]
 555 0488 000093E5 		ldr	r0, [r3, #0]	@ float
 556 048c FEFFFFEB 		bl	__aeabi_f2d
 557 0490 40319FE5 		ldr	r3, .L31+8
 558 0494 0080A0E1 		mov	r8, r0
 559 0498 000093E5 		ldr	r0, [r3, #0]	@ float
 560 049c 0190A0E1 		mov	r9, r1
 561 04a0 FEFFFFEB 		bl	__aeabi_f2d
 562 04a4 0020A0E1 		mov	r2, r0
 563 04a8 0130A0E1 		mov	r3, r1
 564 04ac 0800A0E1 		mov	r0, r8
 565 04b0 0910A0E1 		mov	r1, r9
 566 04b4 FEFFFFEB 		bl	atan2
 567 04b8 FEFFFFEB 		bl	__aeabi_d2f
 568 04bc 4C319FE5 		ldr	r3, .L31+64
 569 04c0 0050A0E1 		mov	r5, r0
 570 04c4 000083E5 		str	r0, [r3, #0]	@ float
 571 04c8 0400A0E1 		mov	r0, r4
 572 04cc FEFFFFEB 		bl	__aeabi_f2d
 573 04d0 0080A0E1 		mov	r8, r0
 574 04d4 0500A0E1 		mov	r0, r5
 575 04d8 0190A0E1 		mov	r9, r1
 576 04dc FEFFFFEB 		bl	__aeabi_f2d
 577 04e0 2C219FE5 		ldr	r2, .L31+68
 578 04e4 2C319FE5 		ldr	r3, .L31+72
 579 04e8 FEFFFFEB 		bl	__aeabi_dadd
 580 04ec 0160A0E1 		mov	r6, r1
 581 04f0 0050A0E1 		mov	r5, r0
 582 04f4 FEFFFFEB 		bl	cos
 583 04f8 0020A0E1 		mov	r2, r0
 584 04fc 0130A0E1 		mov	r3, r1
 585 0500 0800A0E1 		mov	r0, r8
 586 0504 0910A0E1 		mov	r1, r9
 587 0508 FEFFFFEB 		bl	__aeabi_dmul
 588 050c 0C20A0E3 		mov	r2, #12
 589 0510 920707E0 		mul	r7, r2, r7
 590 0514 B8309FE5 		ldr	r3, .L31+4
 591 0518 00A0A0E1 		mov	sl, r0
 592 051c 070093E7 		ldr	r0, [r3, r7]	@ float
 593 0520 074083E0 		add	r4, r3, r7
 594 0524 01B0A0E1 		mov	fp, r1
 595 0528 FEFFFFEB 		bl	__aeabi_f2d
 596 052c 0020A0E1 		mov	r2, r0
 597 0530 0130A0E1 		mov	r3, r1
 598 0534 0A00A0E1 		mov	r0, sl
 599 0538 0B10A0E1 		mov	r1, fp
 600 053c FEFFFFEB 		bl	__aeabi_dadd
 601 0540 FEFFFFEB 		bl	__aeabi_d2f
 602 0544 BC309FE5 		ldr	r3, .L31+56
 603 0548 0610A0E1 		mov	r1, r6
 604 054c 000083E5 		str	r0, [r3, #0]	@ float
 605 0550 0500A0E1 		mov	r0, r5
 606 0554 FEFFFFEB 		bl	sin
 607 0558 0020A0E1 		mov	r2, r0
 608 055c 0130A0E1 		mov	r3, r1
 609 0560 0800A0E1 		mov	r0, r8
 610 0564 0910A0E1 		mov	r1, r9
 611 0568 FEFFFFEB 		bl	__aeabi_dmul
 612 056c 0060A0E1 		mov	r6, r0
 613 0570 040094E5 		ldr	r0, [r4, #4]	@ float
 614 0574 0170A0E1 		mov	r7, r1
 615 0578 FEFFFFEB 		bl	__aeabi_f2d
 616 057c 0020A0E1 		mov	r2, r0
 617 0580 0130A0E1 		mov	r3, r1
 618 0584 0600A0E1 		mov	r0, r6
 619 0588 0710A0E1 		mov	r1, r7
 620 058c FEFFFFEB 		bl	__aeabi_dadd
 621 0590 FEFFFFEB 		bl	__aeabi_d2f
 622 0594 70309FE5 		ldr	r3, .L31+60
 623 0598 000083E5 		str	r0, [r3, #0]	@ float
 624 059c FEFFFFEB 		bl	stateGetPositionEnu_f
 625 05a0 58309FE5 		ldr	r3, .L31+48
 626 05a4 002090E5 		ldr	r2, [r0, #0]	@ float
 627 05a8 002083E5 		str	r2, [r3, #0]	@ float
 628 05ac FEFFFFEB 		bl	stateGetPositionEnu_f
 629 05b0 4C309FE5 		ldr	r3, .L31+52
 630 05b4 042090E5 		ldr	r2, [r0, #4]	@ float
 631 05b8 002083E5 		str	r2, [r3, #0]	@ float
 632              	.L29:
 633 05bc FEFFFFEB 		bl	nav_init_stage
 634              	.L20:
 635 05c0 0100A0E3 		mov	r0, #1
 636 05c4 1CD08DE2 		add	sp, sp, #28
 637 05c8 F04FBDE8 		ldmfd	sp!, {r4, r5, r6, r7, r8, r9, sl, fp, lr}
 638 05cc 1EFF2FE1 		bx	lr
 639              	.L32:
 640              		.align	2
 641              	.L31:
 642 05d0 00000000 		.word	.LANCHOR0
 643 05d4 00000000 		.word	waypoints
 644 05d8 00000000 		.word	.LANCHOR5
 645 05dc 00000000 		.word	.LANCHOR6
 646 05e0 00000000 		.word	.LANCHOR7
 647 05e4 00000000 		.word	.LANCHOR4
 648 05e8 00000000 		.word	v_ctl_climb_mode
 649 05ec 00000000 		.word	nav_pitch
 650 05f0 00000000 		.word	v_ctl_mode
 651 05f4 00000000 		.word	nav_altitude
 652 05f8 00000000 		.word	.LANCHOR13
 653 05fc 00000000 		.word	v_ctl_altitude_pre_climb
 654 0600 00000000 		.word	.LANCHOR11
 655 0604 00000000 		.word	.LANCHOR12
 656 0608 00000000 		.word	.LANCHOR9
 657 060c 00000000 		.word	.LANCHOR10
 658 0610 00000000 		.word	.LANCHOR8
 659 0614 1F85EB51 		.word	1374389535
 660 0618 B81E0940 		.word	1074339512
 661 061c 00000000 		.word	nav_radius
 662 0620 00000000 		.word	.LANCHOR14
 663 0624 00000000 		.word	.LANCHOR15
 664 0628 00000000 		.word	.LANCHOR1
 665 062c 00000000 		.word	.LANCHOR2
 666 0630 00000000 		.word	.LANCHOR3
 668              		.global	__aeabi_fcmplt
 669              		.global	__aeabi_ddiv
 670              		.section	.text.InitializeBungeeTakeoff,"ax",%progbits
 671              		.align	2
 672              		.global	InitializeBungeeTakeoff
 674              	InitializeBungeeTakeoff:
 675              		@ Function supports interworking.
 676              		@ args = 0, pretend = 0, frame = 0
 677              		@ frame_needed = 0, uses_anonymous_args = 0
 678 0000 F0472DE9 		stmfd	sp!, {r4, r5, r6, r7, r8, r9, sl, lr}
 679 0004 0060A0E1 		mov	r6, r0
 680 0008 FEFFFFEB 		bl	stateGetPositionEnu_f
 681 000c 64429FE5 		ldr	r4, .L52
 682 0010 003090E5 		ldr	r3, [r0, #0]	@ float
 683 0014 003084E5 		str	r3, [r4, #0]	@ float
 684 0018 FEFFFFEB 		bl	stateGetPositionEnu_f
 685 001c 58329FE5 		ldr	r3, .L52+4
 686 0020 045090E5 		ldr	r5, [r0, #4]	@ float
 687 0024 005083E5 		str	r5, [r3, #0]	@ float
 688 0028 50329FE5 		ldr	r3, .L52+8
 689 002c 50229FE5 		ldr	r2, .L52+12
 690 0030 0060C3E5 		strb	r6, [r3, #0]
 691 0034 4C329FE5 		ldr	r3, .L52+16
 692 0038 002083E5 		str	r2, [r3, #0]	@ float
 693 003c 0C30A0E3 		mov	r3, #12
 694 0040 960303E0 		mul	r3, r6, r3
 695 0044 40229FE5 		ldr	r2, .L52+20
 696 0048 000094E5 		ldr	r0, [r4, #0]	@ float
 697 004c 031092E7 		ldr	r1, [r2, r3]	@ float
 698 0050 037082E0 		add	r7, r2, r3
 699 0054 FEFFFFEB 		bl	__aeabi_fsub
 700 0058 041097E5 		ldr	r1, [r7, #4]	@ float
 701 005c 0040A0E1 		mov	r4, r0
 702 0060 0500A0E1 		mov	r0, r5
 703 0064 FEFFFFEB 		bl	__aeabi_fsub
 704 0068 082097E5 		ldr	r2, [r7, #8]	@ float
 705 006c 1C329FE5 		ldr	r3, .L52+24
 706 0070 0410A0E1 		mov	r1, r4
 707 0074 002083E5 		str	r2, [r3, #0]	@ float
 708 0078 0050A0E1 		mov	r5, r0
 709 007c FEFFFFEB 		bl	__aeabi_fdiv
 710 0080 0010A0E3 		mov	r1, #0
 711 0084 0070A0E1 		mov	r7, r0
 712 0088 0400A0E1 		mov	r0, r4
 713 008c FEFFFFEB 		bl	__aeabi_fcmplt
 714 0090 000050E3 		cmp	r0, #0
 715 0094 0710A0E1 		mov	r1, r7
 716 0098 0700A0E1 		mov	r0, r7
 717 009c 0B00000A 		beq	.L46
 718 00a0 FEFFFFEB 		bl	__aeabi_fmul
 719 00a4 FE15A0E3 		mov	r1, #1065353216
 720 00a8 FEFFFFEB 		bl	__aeabi_fadd
 721 00ac FEFFFFEB 		bl	__aeabi_f2d
 722 00b0 FEFFFFEB 		bl	sqrt
 723 00b4 0020A0E1 		mov	r2, r0
 724 00b8 0130A0E1 		mov	r3, r1
 725 00bc 0000A0E3 		mov	r0, #0
 726 00c0 CC119FE5 		ldr	r1, .L52+28
 727 00c4 FEFFFFEB 		bl	__aeabi_ddiv
 728 00c8 FEFFFFEB 		bl	__aeabi_d2f
 729 00cc 0B0000EA 		b	.L49
 730              	.L46:
 731 00d0 FEFFFFEB 		bl	__aeabi_fmul
 732 00d4 FE15A0E3 		mov	r1, #1065353216
 733 00d8 FEFFFFEB 		bl	__aeabi_fadd
 734 00dc FEFFFFEB 		bl	__aeabi_f2d
 735 00e0 FEFFFFEB 		bl	sqrt
 736 00e4 0020A0E1 		mov	r2, r0
 737 00e8 0130A0E1 		mov	r3, r1
 738 00ec 0000A0E3 		mov	r0, #0
 739 00f0 9C119FE5 		ldr	r1, .L52+28
 740 00f4 FEFFFFEB 		bl	__aeabi_ddiv
 741 00f8 FEFFFFEB 		bl	__aeabi_d2f
 742 00fc 020180E2 		add	r0, r0, #-2147483648
 743              	.L49:
 744 0100 90319FE5 		ldr	r3, .L52+32
 745 0104 0010A0E3 		mov	r1, #0
 746 0108 000083E5 		str	r0, [r3, #0]	@ float
 747 010c 0500A0E1 		mov	r0, r5
 748 0110 FEFFFFEB 		bl	__aeabi_fcmplt
 749 0114 7C319FE5 		ldr	r3, .L52+32
 750 0118 000050E3 		cmp	r0, #0
 751 011c 000093E5 		ldr	r0, [r3, #0]	@ float
 752 0120 0010A0E1 		mov	r1, r0
 753 0124 0700000A 		beq	.L47
 754 0128 FEFFFFEB 		bl	__aeabi_fmul
 755 012c 0010A0E1 		mov	r1, r0
 756 0130 64019FE5 		ldr	r0, .L52+36
 757 0134 FEFFFFEB 		bl	__aeabi_fsub
 758 0138 FEFFFFEB 		bl	__aeabi_f2d
 759 013c FEFFFFEB 		bl	sqrt
 760 0140 FEFFFFEB 		bl	__aeabi_d2f
 761 0144 070000EA 		b	.L50
 762              	.L47:
 763 0148 FEFFFFEB 		bl	__aeabi_fmul
 764 014c 0010A0E1 		mov	r1, r0
 765 0150 44019FE5 		ldr	r0, .L52+36
 766 0154 FEFFFFEB 		bl	__aeabi_fsub
 767 0158 FEFFFFEB 		bl	__aeabi_f2d
 768 015c FEFFFFEB 		bl	sqrt
 769 0160 FEFFFFEB 		bl	__aeabi_d2f
 770 0164 020180E2 		add	r0, r0, #-2147483648
 771              	.L50:
 772 0168 30319FE5 		ldr	r3, .L52+40
 773 016c 000083E5 		str	r0, [r3, #0]	@ float
 774 0170 0500A0E1 		mov	r0, r5
 775 0174 FEFFFFEB 		bl	__aeabi_f2d
 776 0178 0080A0E1 		mov	r8, r0
 777 017c 0400A0E1 		mov	r0, r4
 778 0180 0190A0E1 		mov	r9, r1
 779 0184 FEFFFFEB 		bl	__aeabi_f2d
 780 0188 0020A0E1 		mov	r2, r0
 781 018c 0130A0E1 		mov	r3, r1
 782 0190 0800A0E1 		mov	r0, r8
 783 0194 0910A0E1 		mov	r1, r9
 784 0198 FEFFFFEB 		bl	atan2
 785 019c 00219FE5 		ldr	r2, .L52+44
 786 01a0 00319FE5 		ldr	r3, .L52+48
 787 01a4 FEFFFFEB 		bl	__aeabi_dadd
 788 01a8 FEFFFFEB 		bl	tan
 789 01ac FEFFFFEB 		bl	__aeabi_d2f
 790 01b0 F4309FE5 		ldr	r3, .L52+52
 791 01b4 000083E5 		str	r0, [r3, #0]	@ float
 792 01b8 E0309FE5 		ldr	r3, .L52+40
 793 01bc 007093E5 		ldr	r7, [r3, #0]	@ float
 794 01c0 D0309FE5 		ldr	r3, .L52+32
 795 01c4 0410A0E1 		mov	r1, r4
 796 01c8 008093E5 		ldr	r8, [r3, #0]	@ float
 797 01cc 00A0A0E1 		mov	sl, r0
 798 01d0 FEFFFFEB 		bl	__aeabi_fmul
 799 01d4 0810A0E1 		mov	r1, r8
 800 01d8 0040A0E1 		mov	r4, r0
 801 01dc 0A00A0E1 		mov	r0, sl
 802 01e0 FEFFFFEB 		bl	__aeabi_fmul
 803 01e4 0010A0E1 		mov	r1, r0
 804 01e8 0700A0E1 		mov	r0, r7
 805 01ec FEFFFFEB 		bl	__aeabi_fsub
 806 01f0 0010A0E1 		mov	r1, r0
 807 01f4 0400A0E1 		mov	r0, r4
 808 01f8 FEFFFFEB 		bl	__aeabi_fadd
 809 01fc 0010A0E1 		mov	r1, r0
 810 0200 0500A0E1 		mov	r0, r5
 811 0204 FEFFFFEB 		bl	__aeabi_fcmpgt
 812 0208 A0309FE5 		ldr	r3, .L52+56
 813 020c 000050E3 		cmp	r0, #0
 814 0210 0120A013 		movne	r2, #1
 815 0214 0020A003 		moveq	r2, #0
 816 0218 0020C3E5 		strb	r2, [r3, #0]
 817 021c 90309FE5 		ldr	r3, .L52+60
 818 0220 0040A0E3 		mov	r4, #0
 819 0224 0040C3E5 		strb	r4, [r3, #0]
 820 0228 88309FE5 		ldr	r3, .L52+64
 821 022c 0120A0E3 		mov	r2, #1
 822 0230 0020C3E5 		strb	r2, [r3, #0]
 823 0234 0C20A0E3 		mov	r2, #12
 824 0238 920606E0 		mul	r6, r2, r6
 825 023c 48309FE5 		ldr	r3, .L52+20
 826 0240 0800A0E1 		mov	r0, r8
 827 0244 061093E7 		ldr	r1, [r3, r6]	@ float
 828 0248 065083E0 		add	r5, r3, r6
 829 024c FEFFFFEB 		bl	__aeabi_fadd
 830 0250 40309FE5 		ldr	r3, .L52+32
 831 0254 000083E5 		str	r0, [r3, #0]	@ float
 832 0258 0700A0E1 		mov	r0, r7
 833 025c 041095E5 		ldr	r1, [r5, #4]	@ float
 834 0260 FEFFFFEB 		bl	__aeabi_fadd
 835 0264 34309FE5 		ldr	r3, .L52+40
 836 0268 000083E5 		str	r0, [r3, #0]	@ float
 837 026c 0400A0E1 		mov	r0, r4
 838 0270 F047BDE8 		ldmfd	sp!, {r4, r5, r6, r7, r8, r9, sl, lr}
 839 0274 1EFF2FE1 		bx	lr
 840              	.L53:
 841              		.align	2
 842              	.L52:
 843 0278 00000000 		.word	.LANCHOR16
 844 027c 00000000 		.word	.LANCHOR17
 845 0280 00000000 		.word	.LANCHOR18
 846 0284 00002041 		.word	1092616192
 847 0288 00000000 		.word	.LANCHOR19
 848 028c 00000000 		.word	waypoints
 849 0290 00000000 		.word	.LANCHOR20
 850 0294 00002440 		.word	1076101120
 851 0298 00000000 		.word	.LANCHOR21
 852 029c 0000C842 		.word	1120403456
 853 02a0 00000000 		.word	.LANCHOR22
 854 02a4 1F85EB51 		.word	1374389535
 855 02a8 B81EF93F 		.word	1073290936
 856 02ac 00000000 		.word	.LANCHOR23
 857 02b0 00000000 		.word	.LANCHOR24
 858 02b4 00000000 		.word	.LANCHOR25
 859 02b8 00000000 		.word	kill_throttle
 861              		.section	.text.BungeeTakeoff,"ax",%progbits
 862              		.align	2
 863              		.global	BungeeTakeoff
 865              	BungeeTakeoff:
 866              		@ Function supports interworking.
 867              		@ args = 0, pretend = 0, frame = 0
 868              		@ frame_needed = 0, uses_anonymous_args = 0
 869 0000 F84F2DE9 		stmfd	sp!, {r3, r4, r5, r6, r7, r8, r9, sl, fp, lr}
 870 0004 FEFFFFEB 		bl	stateGetPositionEnu_f
 871 0008 7C849FE5 		ldr	r8, .L95
 872 000c 00A090E5 		ldr	sl, [r0, #0]	@ float
 873 0010 009098E5 		ldr	r9, [r8, #0]	@ float
 874 0014 FEFFFFEB 		bl	stateGetPositionEnu_f
 875 0018 70749FE5 		ldr	r7, .L95+4
 876 001c 0040D7E5 		ldrb	r4, [r7, #0]	@ zero_extendqisi2
 877 0020 6C349FE5 		ldr	r3, .L95+8
 878 0024 000054E3 		cmp	r4, #0
 879 0028 04B090E5 		ldr	fp, [r0, #4]	@ float
 880 002c 006093E5 		ldr	r6, [r3, #0]	@ float
 881 0030 0200000A 		beq	.L56
 882 0034 010054E3 		cmp	r4, #1
 883 0038 0F01001A 		bne	.L74
 884 003c E40000EA 		b	.L94
 885              	.L56:
 886 0040 50349FE5 		ldr	r3, .L95+12
 887 0044 0040C3E5 		strb	r4, [r3, #0]
 888 0048 4C349FE5 		ldr	r3, .L95+16
 889 004c 0070A0E3 		mov	r7, #0
 890 0050 007083E5 		str	r7, [r3, #0]	@ float
 891 0054 44349FE5 		ldr	r3, .L95+20
 892 0058 0320A0E3 		mov	r2, #3
 893 005c 0020C3E5 		strb	r2, [r3, #0]
 894 0060 3C349FE5 		ldr	r3, .L95+24
 895 0064 3C149FE5 		ldr	r1, .L95+28
 896 0068 000093E5 		ldr	r0, [r3, #0]	@ float
 897 006c FEFFFFEB 		bl	__aeabi_fadd
 898 0070 34349FE5 		ldr	r3, .L95+32
 899 0074 34449FE5 		ldr	r4, .L95+36
 900 0078 000083E5 		str	r0, [r3, #0]	@ float
 901 007c 30549FE5 		ldr	r5, .L95+40
 902 0080 30349FE5 		ldr	r3, .L95+44
 903 0084 001095E5 		ldr	r1, [r5, #0]	@ float
 904 0088 007083E5 		str	r7, [r3, #0]	@ float
 905 008c 000094E5 		ldr	r0, [r4, #0]	@ float
 906 0090 002098E5 		ldr	r2, [r8, #0]	@ float
 907 0094 0630A0E1 		mov	r3, r6
 908 0098 FEFFFFEB 		bl	nav_route_xy
 909 009c 18349FE5 		ldr	r3, .L95+48
 910 00a0 0120A0E3 		mov	r2, #1
 911 00a4 0020C3E5 		strb	r2, [r3, #0]
 912 00a8 FEFFFFEB 		bl	stateGetHorizontalSpeedNorm_f
 913 00ac 0C149FE5 		ldr	r1, .L95+52
 914 00b0 000090E5 		ldr	r0, [r0, #0]	@ float
 915 00b4 FEFFFFEB 		bl	__aeabi_fcmplt
 916 00b8 000050E3 		cmp	r0, #0
 917 00bc 0800001A 		bne	.L58
 918 00c0 0910A0E1 		mov	r1, r9
 919 00c4 0A00A0E1 		mov	r0, sl
 920 00c8 FEFFFFEB 		bl	__aeabi_fsub
 921 00cc 0610A0E1 		mov	r1, r6
 922 00d0 0040A0E1 		mov	r4, r0
 923 00d4 0B00A0E1 		mov	r0, fp
 924 00d8 FEFFFFEB 		bl	__aeabi_fsub
 925 00dc 0050A0E1 		mov	r5, r0
 926 00e0 9E0000EA 		b	.L59
 927              	.L58:
 928 00e4 FEFFFFEB 		bl	stateGetPositionEnu_f
 929 00e8 003090E5 		ldr	r3, [r0, #0]	@ float
 930 00ec 003084E5 		str	r3, [r4, #0]	@ float
 931 00f0 FEFFFFEB 		bl	stateGetPositionEnu_f
 932 00f4 C8339FE5 		ldr	r3, .L95+56
 933 00f8 0030D3E5 		ldrb	r3, [r3, #0]	@ zero_extendqisi2
 934 00fc 0C10A0E3 		mov	r1, #12
 935 0100 910303E0 		mul	r3, r1, r3
 936 0104 046090E5 		ldr	r6, [r0, #4]	@ float
 937 0108 B8239FE5 		ldr	r2, .L95+60
 938 010c 006085E5 		str	r6, [r5, #0]	@ float
 939 0110 000094E5 		ldr	r0, [r4, #0]	@ float
 940 0114 031092E7 		ldr	r1, [r2, r3]	@ float
 941 0118 035082E0 		add	r5, r2, r3
 942 011c FEFFFFEB 		bl	__aeabi_fsub
 943 0120 041095E5 		ldr	r1, [r5, #4]	@ float
 944 0124 0040A0E1 		mov	r4, r0
 945 0128 0600A0E1 		mov	r0, r6
 946 012c FEFFFFEB 		bl	__aeabi_fsub
 947 0130 0410A0E1 		mov	r1, r4
 948 0134 0050A0E1 		mov	r5, r0
 949 0138 FEFFFFEB 		bl	__aeabi_fdiv
 950 013c 0710A0E1 		mov	r1, r7
 951 0140 0060A0E1 		mov	r6, r0
 952 0144 0400A0E1 		mov	r0, r4
 953 0148 FEFFFFEB 		bl	__aeabi_fcmplt
 954 014c 78339FE5 		ldr	r3, .L95+64
 955 0150 000050E3 		cmp	r0, #0
 956 0154 000093E5 		ldr	r0, [r3, #0]	@ float
 957 0158 1000000A 		beq	.L85
 958 015c FEFFFFEB 		bl	__aeabi_f2d
 959 0160 00A0A0E1 		mov	sl, r0
 960 0164 01B0A0E1 		mov	fp, r1
 961 0168 0600A0E1 		mov	r0, r6
 962 016c 0610A0E1 		mov	r1, r6
 963 0170 FEFFFFEB 		bl	__aeabi_fmul
 964 0174 FE15A0E3 		mov	r1, #1065353216
 965 0178 FEFFFFEB 		bl	__aeabi_fadd
 966 017c FEFFFFEB 		bl	__aeabi_f2d
 967 0180 FEFFFFEB 		bl	sqrt
 968 0184 0020A0E1 		mov	r2, r0
 969 0188 0130A0E1 		mov	r3, r1
 970 018c 0A00A0E1 		mov	r0, sl
 971 0190 0B10A0E1 		mov	r1, fp
 972 0194 FEFFFFEB 		bl	__aeabi_ddiv
 973 0198 FEFFFFEB 		bl	__aeabi_d2f
 974 019c 100000EA 		b	.L91
 975              	.L85:
 976 01a0 FEFFFFEB 		bl	__aeabi_f2d
 977 01a4 00A0A0E1 		mov	sl, r0
 978 01a8 01B0A0E1 		mov	fp, r1
 979 01ac 0600A0E1 		mov	r0, r6
 980 01b0 0610A0E1 		mov	r1, r6
 981 01b4 FEFFFFEB 		bl	__aeabi_fmul
 982 01b8 FE15A0E3 		mov	r1, #1065353216
 983 01bc FEFFFFEB 		bl	__aeabi_fadd
 984 01c0 FEFFFFEB 		bl	__aeabi_f2d
 985 01c4 FEFFFFEB 		bl	sqrt
 986 01c8 0020A0E1 		mov	r2, r0
 987 01cc 0130A0E1 		mov	r3, r1
 988 01d0 0A00A0E1 		mov	r0, sl
 989 01d4 0B10A0E1 		mov	r1, fp
 990 01d8 FEFFFFEB 		bl	__aeabi_ddiv
 991 01dc FEFFFFEB 		bl	__aeabi_d2f
 992 01e0 020180E2 		add	r0, r0, #-2147483648
 993              	.L91:
 994 01e4 000088E5 		str	r0, [r8, #0]	@ float
 995 01e8 0010A0E3 		mov	r1, #0
 996 01ec 0500A0E1 		mov	r0, r5
 997 01f0 FEFFFFEB 		bl	__aeabi_fcmplt
 998 01f4 D0229FE5 		ldr	r2, .L95+64
 999 01f8 000050E3 		cmp	r0, #0
 1000 01fc 88329FE5 		ldr	r3, .L95
 1001 0200 000092E5 		ldr	r0, [r2, #0]	@ float
 1002 0204 007093E5 		ldr	r7, [r3, #0]	@ float
 1003 0208 0010A0E1 		mov	r1, r0
 1004 020c 0B00000A 		beq	.L86
 1005 0210 FEFFFFEB 		bl	__aeabi_fmul
 1006 0214 0710A0E1 		mov	r1, r7
 1007 0218 0060A0E1 		mov	r6, r0
 1008 021c 0700A0E1 		mov	r0, r7
 1009 0220 FEFFFFEB 		bl	__aeabi_fmul
 1010 0224 0010A0E1 		mov	r1, r0
 1011 0228 0600A0E1 		mov	r0, r6
 1012 022c FEFFFFEB 		bl	__aeabi_fsub
 1013 0230 FEFFFFEB 		bl	__aeabi_f2d
 1014 0234 FEFFFFEB 		bl	sqrt
 1015 0238 FEFFFFEB 		bl	__aeabi_d2f
 1016 023c 0B0000EA 		b	.L92
 1017              	.L86:
 1018 0240 FEFFFFEB 		bl	__aeabi_fmul
 1019 0244 0710A0E1 		mov	r1, r7
 1020 0248 0060A0E1 		mov	r6, r0
 1021 024c 0700A0E1 		mov	r0, r7
 1022 0250 FEFFFFEB 		bl	__aeabi_fmul
 1023 0254 0010A0E1 		mov	r1, r0
 1024 0258 0600A0E1 		mov	r0, r6
 1025 025c FEFFFFEB 		bl	__aeabi_fsub
 1026 0260 FEFFFFEB 		bl	__aeabi_f2d
 1027 0264 FEFFFFEB 		bl	sqrt
 1028 0268 FEFFFFEB 		bl	__aeabi_d2f
 1029 026c 020180E2 		add	r0, r0, #-2147483648
 1030              	.L92:
 1031 0270 1C329FE5 		ldr	r3, .L95+8
 1032 0274 000083E5 		str	r0, [r3, #0]	@ float
 1033 0278 0500A0E1 		mov	r0, r5
 1034 027c FEFFFFEB 		bl	__aeabi_f2d
 1035 0280 0060A0E1 		mov	r6, r0
 1036 0284 0400A0E1 		mov	r0, r4
 1037 0288 0170A0E1 		mov	r7, r1
 1038 028c FEFFFFEB 		bl	__aeabi_f2d
 1039 0290 0020A0E1 		mov	r2, r0
 1040 0294 0130A0E1 		mov	r3, r1
 1041 0298 0600A0E1 		mov	r0, r6
 1042 029c 0710A0E1 		mov	r1, r7
 1043 02a0 FEFFFFEB 		bl	atan2
 1044 02a4 24229FE5 		ldr	r2, .L95+68
 1045 02a8 24329FE5 		ldr	r3, .L95+72
 1046 02ac FEFFFFEB 		bl	__aeabi_dadd
 1047 02b0 FEFFFFEB 		bl	tan
 1048 02b4 FEFFFFEB 		bl	__aeabi_d2f
 1049 02b8 18329FE5 		ldr	r3, .L95+76
 1050 02bc 000083E5 		str	r0, [r3, #0]	@ float
 1051 02c0 CC319FE5 		ldr	r3, .L95+8
 1052 02c4 0410A0E1 		mov	r1, r4
 1053 02c8 006093E5 		ldr	r6, [r3, #0]	@ float
 1054 02cc 00A0A0E1 		mov	sl, r0
 1055 02d0 FEFFFFEB 		bl	__aeabi_fmul
 1056 02d4 B0819FE5 		ldr	r8, .L95
 1057 02d8 007098E5 		ldr	r7, [r8, #0]	@ float
 1058 02dc 0090A0E1 		mov	r9, r0
 1059 02e0 0710A0E1 		mov	r1, r7
 1060 02e4 0A00A0E1 		mov	r0, sl
 1061 02e8 FEFFFFEB 		bl	__aeabi_fmul
 1062 02ec 0010A0E1 		mov	r1, r0
 1063 02f0 0600A0E1 		mov	r0, r6
 1064 02f4 FEFFFFEB 		bl	__aeabi_fsub
 1065 02f8 0010A0E1 		mov	r1, r0
 1066 02fc 0900A0E1 		mov	r0, r9
 1067 0300 FEFFFFEB 		bl	__aeabi_fadd
 1068 0304 0010A0E1 		mov	r1, r0
 1069 0308 0500A0E1 		mov	r0, r5
 1070 030c FEFFFFEB 		bl	__aeabi_fcmpgt
 1071 0310 C4319FE5 		ldr	r3, .L95+80
 1072 0314 000050E3 		cmp	r0, #0
 1073 0318 0120A013 		movne	r2, #1
 1074 031c 0020A003 		moveq	r2, #0
 1075 0320 0020C3E5 		strb	r2, [r3, #0]
 1076 0324 98319FE5 		ldr	r3, .L95+56
 1077 0328 0030D3E5 		ldrb	r3, [r3, #0]	@ zero_extendqisi2
 1078 032c 0C10A0E3 		mov	r1, #12
 1079 0330 910303E0 		mul	r3, r1, r3
 1080 0334 8C219FE5 		ldr	r2, .L95+60
 1081 0338 0700A0E1 		mov	r0, r7
 1082 033c 031092E7 		ldr	r1, [r2, r3]	@ float
 1083 0340 03A082E0 		add	sl, r2, r3
 1084 0344 FEFFFFEB 		bl	__aeabi_fadd
 1085 0348 000088E5 		str	r0, [r8, #0]	@ float
 1086 034c 0600A0E1 		mov	r0, r6
 1087 0350 04109AE5 		ldr	r1, [sl, #4]	@ float
 1088 0354 FEFFFFEB 		bl	__aeabi_fadd
 1089 0358 34319FE5 		ldr	r3, .L95+8
 1090 035c 000083E5 		str	r0, [r3, #0]	@ float
 1091              	.L59:
 1092 0360 70319FE5 		ldr	r3, .L95+76
 1093 0364 0400A0E1 		mov	r0, r4
 1094 0368 001093E5 		ldr	r1, [r3, #0]	@ float
 1095 036c FEFFFFEB 		bl	__aeabi_fmul
 1096 0370 0010A0E1 		mov	r1, r0
 1097 0374 0500A0E1 		mov	r0, r5
 1098 0378 FEFFFFEB 		bl	__aeabi_fcmpgt
 1099 037c 58319FE5 		ldr	r3, .L95+80
 1100 0380 000050E3 		cmp	r0, #0
 1101 0384 0140A0E3 		mov	r4, #1
 1102 0388 0030D3E5 		ldrb	r3, [r3, #0]	@ zero_extendqisi2
 1103 038c 0040A003 		moveq	r4, #0
 1104 0390 FF4004E2 		and	r4, r4, #255
 1105 0394 040053E1 		cmp	r3, r4
 1106 0398 3700000A 		beq	.L74
 1107 039c FEFFFFEB 		bl	stateGetHorizontalSpeedNorm_f
 1108 03a0 18119FE5 		ldr	r1, .L95+52
 1109 03a4 000090E5 		ldr	r0, [r0, #0]	@ float
 1110 03a8 FEFFFFEB 		bl	__aeabi_fcmpgt
 1111 03ac 000050E3 		cmp	r0, #0
 1112 03b0 0140A0E3 		mov	r4, #1
 1113 03b4 3100000A 		beq	.L55
 1114 03b8 D0309FE5 		ldr	r3, .L95+4
 1115 03bc 0040C3E5 		strb	r4, [r3, #0]
 1116 03c0 F4309FE5 		ldr	r3, .L95+48
 1117 03c4 0020A0E3 		mov	r2, #0
 1118 03c8 0020C3E5 		strb	r2, [r3, #0]
 1119 03cc FEFFFFEB 		bl	nav_init_stage
 1120 03d0 2A0000EA 		b	.L55
 1121              	.L94:
 1122 03d4 BC309FE5 		ldr	r3, .L95+12
 1123 03d8 0050A0E3 		mov	r5, #0
 1124 03dc 0050C3E5 		strb	r5, [r3, #0]
 1125 03e0 F8209FE5 		ldr	r2, .L95+84
 1126 03e4 B0309FE5 		ldr	r3, .L95+16
 1127 03e8 002083E5 		str	r2, [r3, #0]	@ float
 1128 03ec AC309FE5 		ldr	r3, .L95+20
 1129 03f0 0040C3E5 		strb	r4, [r3, #0]
 1130 03f4 E8309FE5 		ldr	r3, .L95+88
 1131 03f8 962DA0E3 		mov	r2, #9600
 1132 03fc B020C3E1 		strh	r2, [r3, #0]	@ movhi
 1133 0400 A8309FE5 		ldr	r3, .L95+36
 1134 0404 000093E5 		ldr	r0, [r3, #0]	@ float
 1135 0408 A4309FE5 		ldr	r3, .L95+40
 1136 040c 002098E5 		ldr	r2, [r8, #0]	@ float
 1137 0410 001093E5 		ldr	r1, [r3, #0]	@ float
 1138 0414 0630A0E1 		mov	r3, r6
 1139 0418 FEFFFFEB 		bl	nav_route_xy
 1140 041c 98309FE5 		ldr	r3, .L95+48
 1141 0420 0050C3E5 		strb	r5, [r3, #0]
 1142 0424 FEFFFFEB 		bl	stateGetPositionEnu_f
 1143 0428 74309FE5 		ldr	r3, .L95+24
 1144 042c 0060A0E1 		mov	r6, r0
 1145 0430 70109FE5 		ldr	r1, .L95+28
 1146 0434 000093E5 		ldr	r0, [r3, #0]	@ float
 1147 0438 FEFFFFEB 		bl	__aeabi_fadd
 1148 043c A4109FE5 		ldr	r1, .L95+92
 1149 0440 FEFFFFEB 		bl	__aeabi_fsub
 1150 0444 0010A0E1 		mov	r1, r0
 1151 0448 080096E5 		ldr	r0, [r6, #8]	@ float
 1152 044c FEFFFFEB 		bl	__aeabi_fcmpgt
 1153 0450 050050E1 		cmp	r0, r5
 1154 0454 0900000A 		beq	.L55
 1155 0458 FEFFFFEB 		bl	stateGetHorizontalSpeedNorm_f
 1156 045c 88109FE5 		ldr	r1, .L95+96
 1157 0460 000090E5 		ldr	r0, [r0, #0]	@ float
 1158 0464 FEFFFFEB 		bl	__aeabi_fcmpgt
 1159 0468 050050E1 		cmp	r0, r5
 1160 046c 0230A013 		movne	r3, #2
 1161 0470 0030C715 		strneb	r3, [r7, #0]
 1162 0474 0540A011 		movne	r4, r5
 1163 0478 000000EA 		b	.L55
 1164              	.L74:
 1165 047c 0140A0E3 		mov	r4, #1
 1166              	.L55:
 1167 0480 0400A0E1 		mov	r0, r4
 1168 0484 F84FBDE8 		ldmfd	sp!, {r3, r4, r5, r6, r7, r8, r9, sl, fp, lr}
 1169 0488 1EFF2FE1 		bx	lr
 1170              	.L96:
 1171              		.align	2
 1172              	.L95:
 1173 048c 00000000 		.word	.LANCHOR21
 1174 0490 00000000 		.word	.LANCHOR25
 1175 0494 00000000 		.word	.LANCHOR22
 1176 0498 00000000 		.word	v_ctl_climb_mode
 1177 049c 00000000 		.word	nav_pitch
 1178 04a0 00000000 		.word	v_ctl_mode
 1179 04a4 00000000 		.word	.LANCHOR20
 1180 04a8 0000F041 		.word	1106247680
 1181 04ac 00000000 		.word	nav_altitude
 1182 04b0 00000000 		.word	.LANCHOR16
 1183 04b4 00000000 		.word	.LANCHOR17
 1184 04b8 00000000 		.word	v_ctl_altitude_pre_climb
 1185 04bc 00000000 		.word	kill_throttle
 1186 04c0 0000A040 		.word	1084227584
 1187 04c4 00000000 		.word	.LANCHOR18
 1188 04c8 00000000 		.word	waypoints
 1189 04cc 00000000 		.word	.LANCHOR19
 1190 04d0 1F85EB51 		.word	1374389535
 1191 04d4 B81EF93F 		.word	1073290936
 1192 04d8 00000000 		.word	.LANCHOR23
 1193 04dc 00000000 		.word	.LANCHOR24
 1194 04e0 B81E053F 		.word	1057300152
 1195 04e4 00000000 		.word	nav_throttle_setpoint
 1196 04e8 00002041 		.word	1092616192
 1197 04ec 00007041 		.word	1097859072
 1199              		.section	.text.InitializeVerticalRaster,"ax",%progbits
 1200              		.align	2
 1201              		.global	InitializeVerticalRaster
 1203              	InitializeVerticalRaster:
 1204              		@ Function supports interworking.
 1205              		@ args = 0, pretend = 0, frame = 0
 1206              		@ frame_needed = 0, uses_anonymous_args = 0
 1207              		@ link register save eliminated.
 1208 0000 08309FE5 		ldr	r3, .L98
 1209 0004 0000A0E3 		mov	r0, #0
 1210 0008 0000C3E5 		strb	r0, [r3, #0]
 1211 000c 1EFF2FE1 		bx	lr
 1212              	.L99:
 1213              		.align	2
 1214              	.L98:
 1215 0010 00000000 		.word	.LANCHOR26
 1217              		.global	__aeabi_fcmpge
 1218              		.section	.text.VerticalRaster,"ax",%progbits
 1219              		.align	2
 1220              		.global	VerticalRaster
 1222              	VerticalRaster:
 1223              		@ Function supports interworking.
 1224              		@ args = 0, pretend = 0, frame = 80
 1225              		@ frame_needed = 0, uses_anonymous_args = 0
 1226 0000 F04F2DE9 		stmfd	sp!, {r4, r5, r6, r7, r8, r9, sl, fp, lr}
 1227 0004 0271C2E3 		bic	r7, r2, #-2147483648
 1228 0008 0090A0E1 		mov	r9, r0
 1229 000c 0C20A0E3 		mov	r2, #12
 1230 0010 920909E0 		mul	r9, r2, r9
 1231 0014 01A0A0E1 		mov	sl, r1
 1232 0018 920A0AE0 		mul	sl, r2, sl
 1233 001c EC4E9FE5 		ldr	r4, .L262
 1234 0020 5CD04DE2 		sub	sp, sp, #92
 1235 0024 095084E0 		add	r5, r4, r9
 1236 0028 54308DE5 		str	r3, [sp, #84]	@ float
 1237 002c 083095E5 		ldr	r3, [r5, #8]	@ float
 1238 0030 0AC084E0 		add	ip, r4, sl
 1239 0034 28008DE5 		str	r0, [sp, #40]
 1240 0038 30108DE5 		str	r1, [sp, #48]
 1241 003c 090094E7 		ldr	r0, [r4, r9]	@ float
 1242 0040 08308CE5 		str	r3, [ip, #8]	@ float
 1243 0044 0A1094E7 		ldr	r1, [r4, sl]	@ float
 1244 0048 0CC08DE5 		str	ip, [sp, #12]
 1245 004c FEFFFFEB 		bl	__aeabi_fsub
 1246 0050 0CC09DE5 		ldr	ip, [sp, #12]
 1247 0054 0080A0E1 		mov	r8, r0
 1248 0058 04109CE5 		ldr	r1, [ip, #4]	@ float
 1249 005c 040095E5 		ldr	r0, [r5, #4]	@ float
 1250 0060 FEFFFFEB 		bl	__aeabi_fsub
 1251 0064 0810A0E1 		mov	r1, r8
 1252 0068 0060A0E1 		mov	r6, r0
 1253 006c 0800A0E1 		mov	r0, r8
 1254 0070 FEFFFFEB 		bl	__aeabi_fmul
 1255 0074 0610A0E1 		mov	r1, r6
 1256 0078 00B0A0E1 		mov	fp, r0
 1257 007c 0600A0E1 		mov	r0, r6
 1258 0080 FEFFFFEB 		bl	__aeabi_fmul
 1259 0084 0010A0E1 		mov	r1, r0
 1260 0088 0B00A0E1 		mov	r0, fp
 1261 008c FEFFFFEB 		bl	__aeabi_fadd
 1262 0090 FEFFFFEB 		bl	__aeabi_f2d
 1263 0094 FEFFFFEB 		bl	sqrt
 1264 0098 FEFFFFEB 		bl	__aeabi_d2f
 1265 009c 00B0A0E1 		mov	fp, r0
 1266 00a0 0B10A0E1 		mov	r1, fp
 1267 00a4 0800A0E1 		mov	r0, r8
 1268 00a8 FEFFFFEB 		bl	__aeabi_fdiv
 1269 00ac 0B10A0E1 		mov	r1, fp
 1270 00b0 0080A0E1 		mov	r8, r0
 1271 00b4 0600A0E1 		mov	r0, r6
 1272 00b8 FEFFFFEB 		bl	__aeabi_fdiv
 1273 00bc 0060A0E1 		mov	r6, r0
 1274 00c0 0610A0E1 		mov	r1, r6
 1275 00c4 0700A0E1 		mov	r0, r7
 1276 00c8 FEFFFFEB 		bl	__aeabi_fmul
 1277 00cc 023188E2 		add	r3, r8, #-2147483648
 1278 00d0 099094E7 		ldr	r9, [r4, r9]	@ float
 1279 00d4 04B095E5 		ldr	fp, [r5, #4]	@ float
 1280 00d8 38308DE5 		str	r3, [sp, #56]
 1281 00dc 38109DE5 		ldr	r1, [sp, #56]	@ float
 1282 00e0 34008DE5 		str	r0, [sp, #52]	@ float
 1283 00e4 0700A0E1 		mov	r0, r7
 1284 00e8 FEFFFFEB 		bl	__aeabi_fmul
 1285 00ec 3C008DE5 		str	r0, [sp, #60]	@ float
 1286 00f0 0700A0E1 		mov	r0, r7
 1287 00f4 FEFFFFEB 		bl	__aeabi_f2d
 1288 00f8 142E9FE5 		ldr	r2, .L262+4
 1289 00fc 143E9FE5 		ldr	r3, .L262+8
 1290 0100 FEFFFFEB 		bl	__aeabi_dmul
 1291 0104 10008DE5 		str	r0, [sp, #16]
 1292 0108 14108DE5 		str	r1, [sp, #20]
 1293 010c 0800A0E1 		mov	r0, r8
 1294 0110 FEFFFFEB 		bl	__aeabi_f2d
 1295 0114 18008DE5 		str	r0, [sp, #24]
 1296 0118 1C108DE5 		str	r1, [sp, #28]
 1297 011c 0600A0E1 		mov	r0, r6
 1298 0120 FEFFFFEB 		bl	__aeabi_f2d
 1299 0124 026186E2 		add	r6, r6, #-2147483648
 1300 0128 40608DE5 		str	r6, [sp, #64]
 1301 012c 20008DE5 		str	r0, [sp, #32]
 1302 0130 24108DE5 		str	r1, [sp, #36]
 1303 0134 40109DE5 		ldr	r1, [sp, #64]	@ float
 1304 0138 0700A0E1 		mov	r0, r7
 1305 013c FEFFFFEB 		bl	__aeabi_fmul
 1306 0140 0810A0E1 		mov	r1, r8
 1307 0144 44008DE5 		str	r0, [sp, #68]	@ float
 1308 0148 0700A0E1 		mov	r0, r7
 1309 014c FEFFFFEB 		bl	__aeabi_fmul
 1310 0150 0CC09DE5 		ldr	ip, [sp, #12]
 1311 0154 04C09CE5 		ldr	ip, [ip, #4]	@ float
 1312 0158 18308DE2 		add	r3, sp, #24
 1313 015c 0C0093E8 		ldmia	r3, {r2-r3}
 1314 0160 48008DE5 		str	r0, [sp, #72]	@ float
 1315 0164 20108DE2 		add	r1, sp, #32
 1316 0168 030091E8 		ldmia	r1, {r0-r1}
 1317 016c 0A8094E7 		ldr	r8, [r4, sl]	@ float
 1318 0170 2CC08DE5 		str	ip, [sp, #44]	@ float
 1319 0174 FEFFFFEB 		bl	atan2
 1320 0178 0020A0E1 		mov	r2, r0
 1321 017c 0130A0E1 		mov	r3, r1
 1322 0180 940D9FE5 		ldr	r0, .L262+12
 1323 0184 941D9FE5 		ldr	r1, .L262+16
 1324 0188 FEFFFFEB 		bl	__aeabi_dsub
 1325 018c FEFFFFEB 		bl	__aeabi_d2f
 1326 0190 18308DE2 		add	r3, sp, #24
 1327 0194 0C0093E8 		ldmia	r3, {r2-r3}
 1328 0198 4C008DE5 		str	r0, [sp, #76]	@ float
 1329 019c 20108DE2 		add	r1, sp, #32
 1330 01a0 030091E8 		ldmia	r1, {r0-r1}
 1331 01a4 FEFFFFEB 		bl	atan2
 1332 01a8 0020A0E1 		mov	r2, r0
 1333 01ac 0130A0E1 		mov	r3, r1
 1334 01b0 640D9FE5 		ldr	r0, .L262+12
 1335 01b4 681D9FE5 		ldr	r1, .L262+20
 1336 01b8 FEFFFFEB 		bl	__aeabi_dsub
 1337 01bc FEFFFFEB 		bl	__aeabi_d2f
 1338 01c0 18308DE2 		add	r3, sp, #24
 1339 01c4 0C0093E8 		ldmia	r3, {r2-r3}
 1340 01c8 50008DE5 		str	r0, [sp, #80]	@ float
 1341 01cc 20108DE2 		add	r1, sp, #32
 1342 01d0 030091E8 		ldmia	r1, {r0-r1}
 1343 01d4 FEFFFFEB 		bl	atan2
 1344 01d8 0020A0E1 		mov	r2, r0
 1345 01dc 0130A0E1 		mov	r3, r1
 1346 01e0 400D9FE5 		ldr	r0, .L262+24
 1347 01e4 401D9FE5 		ldr	r1, .L262+28
 1348 01e8 FEFFFFEB 		bl	__aeabi_dsub
 1349 01ec FEFFFFEB 		bl	__aeabi_d2f
 1350 01f0 383D9FE5 		ldr	r3, .L262+32
 1351 01f4 0020A0E3 		mov	r2, #0
 1352 01f8 0020C3E5 		strb	r2, [r3, #0]
 1353 01fc 302D9FE5 		ldr	r2, .L262+36
 1354 0200 0030A0E3 		mov	r3, #0
 1355 0204 003082E5 		str	r3, [r2, #0]	@ float
 1356 0208 282D9FE5 		ldr	r2, .L262+40
 1357 020c 0310A0E3 		mov	r1, #3
 1358 0210 0010C2E5 		strb	r1, [r2, #0]
 1359 0214 202D9FE5 		ldr	r2, .L262+44
 1360 0218 081095E5 		ldr	r1, [r5, #8]	@ float
 1361 021c 001082E5 		str	r1, [r2, #0]	@ float
 1362 0220 182D9FE5 		ldr	r2, .L262+48
 1363 0224 003082E5 		str	r3, [r2, #0]	@ float
 1364 0228 143D9FE5 		ldr	r3, .L262+52
 1365 022c 0030D3E5 		ldrb	r3, [r3, #0]	@ zero_extendqisi2
 1366 0230 00A0A0E1 		mov	sl, r0
 1367 0234 0C60A0E3 		mov	r6, #12
 1368 0238 070053E3 		cmp	r3, #7
 1369 023c 03F19F97 		ldrls	pc, [pc, r3, asl #2]
 1370 0240 2E0300EA 		b	.L101
 1371              	.L110:
 1372 0244 64020000 		.word	.L102
 1373 0248 BC020000 		.word	.L103
 1374 024c 78040000 		.word	.L104
 1375 0250 CC060000 		.word	.L105
 1376 0254 88080000 		.word	.L106
 1377 0258 F8080000 		.word	.L107
 1378 025c C00A0000 		.word	.L108
 1379 0260 300D0000 		.word	.L109
 1380              	.L102:
 1381 0264 28209DE5 		ldr	r2, [sp, #40]
 1382 0268 30709DE5 		ldr	r7, [sp, #48]
 1383 026c 960707E0 		mul	r7, r6, r7
 1384 0270 920606E0 		mul	r6, r2, r6
 1385 0274 078084E0 		add	r8, r4, r7
 1386 0278 065084E0 		add	r5, r4, r6
 1387 027c 070094E7 		ldr	r0, [r4, r7]	@ float
 1388 0280 041098E5 		ldr	r1, [r8, #4]	@ float
 1389 0284 062094E7 		ldr	r2, [r4, r6]	@ float
 1390 0288 043095E5 		ldr	r3, [r5, #4]	@ float
 1391 028c FEFFFFEB 		bl	nav_route_xy
 1392 0290 B03C9FE5 		ldr	r3, .L262+56
 1393 0294 00308DE5 		str	r3, [sp, #0]	@ float
 1394 0298 072094E7 		ldr	r2, [r4, r7]	@ float
 1395 029c 060094E7 		ldr	r0, [r4, r6]	@ float
 1396 02a0 041095E5 		ldr	r1, [r5, #4]	@ float
 1397 02a4 043098E5 		ldr	r3, [r8, #4]	@ float
 1398 02a8 FEFFFFEB 		bl	nav_approaching_xy
 1399 02ac 000050E3 		cmp	r0, #0
 1400 02b0 0120A013 		movne	r2, #1
 1401 02b4 1103000A 		beq	.L101
 1402 02b8 870100EA 		b	.L260
 1403              	.L103:
 1404 02bc 34109DE5 		ldr	r1, [sp, #52]	@ float
 1405 02c0 0900A0E1 		mov	r0, r9
 1406 02c4 FEFFFFEB 		bl	__aeabi_fadd
 1407 02c8 3C109DE5 		ldr	r1, [sp, #60]	@ float
 1408 02cc 0040A0E1 		mov	r4, r0
 1409 02d0 0B00A0E1 		mov	r0, fp
 1410 02d4 FEFFFFEB 		bl	__aeabi_fadd
 1411 02d8 0720A0E1 		mov	r2, r7
 1412 02dc 0010A0E1 		mov	r1, r0
 1413 02e0 0400A0E1 		mov	r0, r4
 1414 02e4 FEFFFFEB 		bl	nav_circle_XY
 1415 02e8 4C009DE5 		ldr	r0, [sp, #76]	@ float
 1416 02ec FEFFFFEB 		bl	__aeabi_f2d
 1417 02f0 542C9FE5 		ldr	r2, .L262+60
 1418 02f4 543C9FE5 		ldr	r3, .L262+64
 1419 02f8 FEFFFFEB 		bl	__aeabi_dmul
 1420 02fc 0020A0E3 		mov	r2, #0
 1421 0300 4C3C9FE5 		ldr	r3, .L262+68
 1422 0304 FEFFFFEB 		bl	__aeabi_dsub
 1423 0308 483C9FE5 		ldr	r3, .L262+72
 1424 030c 0040A0E1 		mov	r4, r0
 1425 0310 000093E5 		ldr	r0, [r3, #0]	@ float
 1426 0314 0150A0E1 		mov	r5, r1
 1427 0318 FEFFFFEB 		bl	__aeabi_f2d
 1428 031c 0020A0E1 		mov	r2, r0
 1429 0320 0130A0E1 		mov	r3, r1
 1430 0324 FC0B9FE5 		ldr	r0, .L262+24
 1431 0328 2C1C9FE5 		ldr	r1, .L262+76
 1432 032c FEFFFFEB 		bl	__aeabi_dsub
 1433 0330 142C9FE5 		ldr	r2, .L262+60
 1434 0334 143C9FE5 		ldr	r3, .L262+64
 1435 0338 FEFFFFEB 		bl	__aeabi_dmul
 1436 033c FEFFFFEB 		bl	__aeabi_d2f
 1437 0340 0070A0E3 		mov	r7, #0
 1438 0344 0060A0E1 		mov	r6, r0
 1439 0348 030000EA 		b	.L111
 1440              	.L114:
 1441 034c 0600A0E1 		mov	r0, r6
 1442 0350 081C9FE5 		ldr	r1, .L262+80
 1443 0354 FEFFFFEB 		bl	__aeabi_fadd
 1444 0358 0060A0E1 		mov	r6, r0
 1445              	.L111:
 1446 035c 0600A0E1 		mov	r0, r6
 1447 0360 0010A0E3 		mov	r1, #0
 1448 0364 FEFFFFEB 		bl	__aeabi_fcmplt
 1449 0368 000050E3 		cmp	r0, #0
 1450 036c FF8007E2 		and	r8, r7, #255
 1451 0370 0700000A 		beq	.L235
 1452 0374 017087E2 		add	r7, r7, #1
 1453 0378 010C57E3 		cmp	r7, #256
 1454 037c F2FFFF1A 		bne	.L114
 1455 0380 0080A0E3 		mov	r8, #0
 1456 0384 020000EA 		b	.L235
 1457              	.L118:
 1458 0388 D01B9FE5 		ldr	r1, .L262+80
 1459 038c FEFFFFEB 		bl	__aeabi_fsub
 1460 0390 0060A0E1 		mov	r6, r0
 1461              	.L235:
 1462 0394 0600A0E1 		mov	r0, r6
 1463 0398 C01B9FE5 		ldr	r1, .L262+80
 1464 039c FEFFFFEB 		bl	__aeabi_fcmpge
 1465 03a0 000050E3 		cmp	r0, #0
 1466 03a4 0600A0E1 		mov	r0, r6
 1467 03a8 0200000A 		beq	.L116
 1468 03ac 018088E2 		add	r8, r8, #1
 1469 03b0 FF8018E2 		ands	r8, r8, #255
 1470 03b4 F3FFFF1A 		bne	.L118
 1471              	.L116:
 1472 03b8 FEFFFFEB 		bl	__aeabi_f2d
 1473 03bc 0020A0E1 		mov	r2, r0
 1474 03c0 0130A0E1 		mov	r3, r1
 1475 03c4 0400A0E1 		mov	r0, r4
 1476 03c8 0510A0E1 		mov	r1, r5
 1477 03cc FEFFFFEB 		bl	__aeabi_dsub
 1478 03d0 FEFFFFEB 		bl	__aeabi_d2f
 1479 03d4 0050A0E3 		mov	r5, #0
 1480 03d8 0040A0E1 		mov	r4, r0
 1481 03dc 030000EA 		b	.L119
 1482              	.L122:
 1483 03e0 0400A0E1 		mov	r0, r4
 1484 03e4 741B9FE5 		ldr	r1, .L262+80
 1485 03e8 FEFFFFEB 		bl	__aeabi_fadd
 1486 03ec 0040A0E1 		mov	r4, r0
 1487              	.L119:
 1488 03f0 0400A0E1 		mov	r0, r4
 1489 03f4 0010A0E3 		mov	r1, #0
 1490 03f8 FEFFFFEB 		bl	__aeabi_fcmplt
 1491 03fc 000050E3 		cmp	r0, #0
 1492 0400 FF6005E2 		and	r6, r5, #255
 1493 0404 0700000A 		beq	.L236
 1494 0408 015085E2 		add	r5, r5, #1
 1495 040c 010C55E3 		cmp	r5, #256
 1496 0410 F2FFFF1A 		bne	.L122
 1497 0414 0060A0E3 		mov	r6, #0
 1498 0418 020000EA 		b	.L236
 1499              	.L126:
 1500 041c 3C1B9FE5 		ldr	r1, .L262+80
 1501 0420 FEFFFFEB 		bl	__aeabi_fsub
 1502 0424 0040A0E1 		mov	r4, r0
 1503              	.L236:
 1504 0428 0400A0E1 		mov	r0, r4
 1505 042c 2C1B9FE5 		ldr	r1, .L262+80
 1506 0430 FEFFFFEB 		bl	__aeabi_fcmpge
 1507 0434 000050E3 		cmp	r0, #0
 1508 0438 0400A0E1 		mov	r0, r4
 1509 043c 0200000A 		beq	.L124
 1510 0440 016086E2 		add	r6, r6, #1
 1511 0444 FF6016E2 		ands	r6, r6, #255
 1512 0448 F3FFFF1A 		bne	.L126
 1513              	.L124:
 1514 044c 101B9FE5 		ldr	r1, .L262+84
 1515 0450 FEFFFFEB 		bl	__aeabi_fcmpgt
 1516 0454 000050E3 		cmp	r0, #0
 1517 0458 0400001A 		bne	.L127
 1518 045c 0400A0E1 		mov	r0, r4
 1519 0460 001B9FE5 		ldr	r1, .L262+88
 1520 0464 FEFFFFEB 		bl	__aeabi_fcmplt
 1521 0468 000050E3 		cmp	r0, #0
 1522 046c A302000A 		beq	.L101
 1523              	.L127:
 1524 0470 0220A0E3 		mov	r2, #2
 1525 0474 9E0200EA 		b	.L261
 1526              	.L104:
 1527 0478 0900A0E1 		mov	r0, r9
 1528 047c FEFFFFEB 		bl	__aeabi_f2d
 1529 0480 18308DE2 		add	r3, sp, #24
 1530 0484 0C0093E8 		ldmia	r3, {r2-r3}
 1531 0488 0040A0E1 		mov	r4, r0
 1532 048c 0150A0E1 		mov	r5, r1
 1533 0490 10108DE2 		add	r1, sp, #16
 1534 0494 030091E8 		ldmia	r1, {r0-r1}
 1535 0498 FEFFFFEB 		bl	__aeabi_dmul
 1536 049c 0020A0E1 		mov	r2, r0
 1537 04a0 0130A0E1 		mov	r3, r1
 1538 04a4 0400A0E1 		mov	r0, r4
 1539 04a8 0510A0E1 		mov	r1, r5
 1540 04ac FEFFFFEB 		bl	__aeabi_dadd
 1541 04b0 FEFFFFEB 		bl	__aeabi_d2f
 1542 04b4 0040A0E1 		mov	r4, r0
 1543 04b8 0B00A0E1 		mov	r0, fp
 1544 04bc FEFFFFEB 		bl	__aeabi_f2d
 1545 04c0 20308DE2 		add	r3, sp, #32
 1546 04c4 0C0093E8 		ldmia	r3, {r2-r3}
 1547 04c8 0080A0E1 		mov	r8, r0
 1548 04cc 0190A0E1 		mov	r9, r1
 1549 04d0 10108DE2 		add	r1, sp, #16
 1550 04d4 030091E8 		ldmia	r1, {r0-r1}
 1551 04d8 FEFFFFEB 		bl	__aeabi_dmul
 1552 04dc 0130A0E1 		mov	r3, r1
 1553 04e0 0020A0E1 		mov	r2, r0
 1554 04e4 0910A0E1 		mov	r1, r9
 1555 04e8 0800A0E1 		mov	r0, r8
 1556 04ec FEFFFFEB 		bl	__aeabi_dadd
 1557 04f0 FEFFFFEB 		bl	__aeabi_d2f
 1558 04f4 022187E2 		add	r2, r7, #-2147483648
 1559 04f8 0010A0E1 		mov	r1, r0
 1560 04fc 0400A0E1 		mov	r0, r4
 1561 0500 FEFFFFEB 		bl	nav_circle_XY
 1562 0504 50009DE5 		ldr	r0, [sp, #80]	@ float
 1563 0508 FEFFFFEB 		bl	__aeabi_f2d
 1564 050c 382A9FE5 		ldr	r2, .L262+60
 1565 0510 383A9FE5 		ldr	r3, .L262+64
 1566 0514 FEFFFFEB 		bl	__aeabi_dmul
 1567 0518 0020A0E3 		mov	r2, #0
 1568 051c 303A9FE5 		ldr	r3, .L262+68
 1569 0520 FEFFFFEB 		bl	__aeabi_dadd
 1570 0524 2C3A9FE5 		ldr	r3, .L262+72
 1571 0528 0040A0E1 		mov	r4, r0
 1572 052c 000093E5 		ldr	r0, [r3, #0]	@ float
 1573 0530 0150A0E1 		mov	r5, r1
 1574 0534 FEFFFFEB 		bl	__aeabi_f2d
 1575 0538 0020A0E1 		mov	r2, r0
 1576 053c 0130A0E1 		mov	r3, r1
 1577 0540 E0099FE5 		ldr	r0, .L262+24
 1578 0544 101A9FE5 		ldr	r1, .L262+76
 1579 0548 FEFFFFEB 		bl	__aeabi_dsub
 1580 054c F8299FE5 		ldr	r2, .L262+60
 1581 0550 F8399FE5 		ldr	r3, .L262+64
 1582 0554 FEFFFFEB 		bl	__aeabi_dmul
 1583 0558 FEFFFFEB 		bl	__aeabi_d2f
 1584 055c 0070A0E3 		mov	r7, #0
 1585 0560 0060A0E1 		mov	r6, r0
 1586 0564 030000EA 		b	.L129
 1587              	.L132:
 1588 0568 0600A0E1 		mov	r0, r6
 1589 056c EC199FE5 		ldr	r1, .L262+80
 1590 0570 FEFFFFEB 		bl	__aeabi_fadd
 1591 0574 0060A0E1 		mov	r6, r0
 1592              	.L129:
 1593 0578 0600A0E1 		mov	r0, r6
 1594 057c 0010A0E3 		mov	r1, #0
 1595 0580 FEFFFFEB 		bl	__aeabi_fcmplt
 1596 0584 000050E3 		cmp	r0, #0
 1597 0588 FF8007E2 		and	r8, r7, #255
 1598 058c 0700000A 		beq	.L237
 1599 0590 017087E2 		add	r7, r7, #1
 1600 0594 010C57E3 		cmp	r7, #256
 1601 0598 F2FFFF1A 		bne	.L132
 1602 059c 0080A0E3 		mov	r8, #0
 1603 05a0 020000EA 		b	.L237
 1604              	.L136:
 1605 05a4 B4199FE5 		ldr	r1, .L262+80
 1606 05a8 FEFFFFEB 		bl	__aeabi_fsub
 1607 05ac 0060A0E1 		mov	r6, r0
 1608              	.L237:
 1609 05b0 0600A0E1 		mov	r0, r6
 1610 05b4 A4199FE5 		ldr	r1, .L262+80
 1611 05b8 FEFFFFEB 		bl	__aeabi_fcmpge
 1612 05bc 000050E3 		cmp	r0, #0
 1613 05c0 0600A0E1 		mov	r0, r6
 1614 05c4 0200000A 		beq	.L134
 1615 05c8 018088E2 		add	r8, r8, #1
 1616 05cc FF8018E2 		ands	r8, r8, #255
 1617 05d0 F3FFFF1A 		bne	.L136
 1618              	.L134:
 1619 05d4 FEFFFFEB 		bl	__aeabi_f2d
 1620 05d8 0020A0E1 		mov	r2, r0
 1621 05dc 0130A0E1 		mov	r3, r1
 1622 05e0 0400A0E1 		mov	r0, r4
 1623 05e4 0510A0E1 		mov	r1, r5
 1624 05e8 FEFFFFEB 		bl	__aeabi_dsub
 1625 05ec FEFFFFEB 		bl	__aeabi_d2f
 1626 05f0 0050A0E3 		mov	r5, #0
 1627 05f4 0040A0E1 		mov	r4, r0
 1628 05f8 030000EA 		b	.L137
 1629              	.L140:
 1630 05fc 0400A0E1 		mov	r0, r4
 1631 0600 58199FE5 		ldr	r1, .L262+80
 1632 0604 FEFFFFEB 		bl	__aeabi_fadd
 1633 0608 0040A0E1 		mov	r4, r0
 1634              	.L137:
 1635 060c 0400A0E1 		mov	r0, r4
 1636 0610 0010A0E3 		mov	r1, #0
 1637 0614 FEFFFFEB 		bl	__aeabi_fcmplt
 1638 0618 000050E3 		cmp	r0, #0
 1639 061c FF6005E2 		and	r6, r5, #255
 1640 0620 0700000A 		beq	.L238
 1641 0624 015085E2 		add	r5, r5, #1
 1642 0628 010C55E3 		cmp	r5, #256
 1643 062c F2FFFF1A 		bne	.L140
 1644 0630 0060A0E3 		mov	r6, #0
 1645 0634 020000EA 		b	.L238
 1646              	.L144:
 1647 0638 20199FE5 		ldr	r1, .L262+80
 1648 063c FEFFFFEB 		bl	__aeabi_fsub
 1649 0640 0040A0E1 		mov	r4, r0
 1650              	.L238:
 1651 0644 0400A0E1 		mov	r0, r4
 1652 0648 10199FE5 		ldr	r1, .L262+80
 1653 064c FEFFFFEB 		bl	__aeabi_fcmpge
 1654 0650 000050E3 		cmp	r0, #0
 1655 0654 0400A0E1 		mov	r0, r4
 1656 0658 0200000A 		beq	.L142
 1657 065c 016086E2 		add	r6, r6, #1
 1658 0660 FF6016E2 		ands	r6, r6, #255
 1659 0664 F3FFFF1A 		bne	.L144
 1660              	.L142:
 1661 0668 F4189FE5 		ldr	r1, .L262+84
 1662 066c FEFFFFEB 		bl	__aeabi_fcmpgt
 1663 0670 000050E3 		cmp	r0, #0
 1664 0674 0400001A 		bne	.L145
 1665 0678 0400A0E1 		mov	r0, r4
 1666 067c E4189FE5 		ldr	r1, .L262+88
 1667 0680 FEFFFFEB 		bl	__aeabi_fcmplt
 1668 0684 000050E3 		cmp	r0, #0
 1669 0688 1C02000A 		beq	.L101
 1670              	.L145:
 1671 068c FEFFFFEB 		bl	stateGetPositionEnu_f
 1672 0690 28209DE5 		ldr	r2, [sp, #40]
 1673 0694 74389FE5 		ldr	r3, .L262
 1674 0698 0C60A0E3 		mov	r6, #12
 1675 069c 923626E0 		mla	r6, r2, r6, r3
 1676 06a0 0040A0E1 		mov	r4, r0
 1677 06a4 BC189FE5 		ldr	r1, .L262+88
 1678 06a8 080096E5 		ldr	r0, [r6, #8]	@ float
 1679 06ac FEFFFFEB 		bl	__aeabi_fsub
 1680 06b0 0010A0E1 		mov	r1, r0
 1681 06b4 080094E5 		ldr	r0, [r4, #8]	@ float
 1682 06b8 FEFFFFEB 		bl	__aeabi_fcmpge
 1683 06bc 000050E3 		cmp	r0, #0
 1684 06c0 0320A013 		movne	r2, #3
 1685 06c4 0D02000A 		beq	.L101
 1686 06c8 090200EA 		b	.L261
 1687              	.L105:
 1688 06cc 44109DE5 		ldr	r1, [sp, #68]	@ float
 1689 06d0 0900A0E1 		mov	r0, r9
 1690 06d4 FEFFFFEB 		bl	__aeabi_fadd
 1691 06d8 48109DE5 		ldr	r1, [sp, #72]	@ float
 1692 06dc 0040A0E1 		mov	r4, r0
 1693 06e0 0B00A0E1 		mov	r0, fp
 1694 06e4 FEFFFFEB 		bl	__aeabi_fadd
 1695 06e8 0720A0E1 		mov	r2, r7
 1696 06ec 0010A0E1 		mov	r1, r0
 1697 06f0 0400A0E1 		mov	r0, r4
 1698 06f4 FEFFFFEB 		bl	nav_circle_XY
 1699 06f8 0A00A0E1 		mov	r0, sl
 1700 06fc FEFFFFEB 		bl	__aeabi_f2d
 1701 0700 44289FE5 		ldr	r2, .L262+60
 1702 0704 44389FE5 		ldr	r3, .L262+64
 1703 0708 FEFFFFEB 		bl	__aeabi_dmul
 1704 070c 0020A0E3 		mov	r2, #0
 1705 0710 3C389FE5 		ldr	r3, .L262+68
 1706 0714 FEFFFFEB 		bl	__aeabi_dsub
 1707 0718 38389FE5 		ldr	r3, .L262+72
 1708 071c 0040A0E1 		mov	r4, r0
 1709 0720 000093E5 		ldr	r0, [r3, #0]	@ float
 1710 0724 0150A0E1 		mov	r5, r1
 1711 0728 FEFFFFEB 		bl	__aeabi_f2d
 1712 072c 0020A0E1 		mov	r2, r0
 1713 0730 0130A0E1 		mov	r3, r1
 1714 0734 EC079FE5 		ldr	r0, .L262+24
 1715 0738 1C189FE5 		ldr	r1, .L262+76
 1716 073c FEFFFFEB 		bl	__aeabi_dsub
 1717 0740 04289FE5 		ldr	r2, .L262+60
 1718 0744 04389FE5 		ldr	r3, .L262+64
 1719 0748 FEFFFFEB 		bl	__aeabi_dmul
 1720 074c FEFFFFEB 		bl	__aeabi_d2f
 1721 0750 0070A0E3 		mov	r7, #0
 1722 0754 0060A0E1 		mov	r6, r0
 1723 0758 030000EA 		b	.L148
 1724              	.L151:
 1725 075c 0600A0E1 		mov	r0, r6
 1726 0760 F8179FE5 		ldr	r1, .L262+80
 1727 0764 FEFFFFEB 		bl	__aeabi_fadd
 1728 0768 0060A0E1 		mov	r6, r0
 1729              	.L148:
 1730 076c 0600A0E1 		mov	r0, r6
 1731 0770 0010A0E3 		mov	r1, #0
 1732 0774 FEFFFFEB 		bl	__aeabi_fcmplt
 1733 0778 000050E3 		cmp	r0, #0
 1734 077c FF8007E2 		and	r8, r7, #255
 1735 0780 0700000A 		beq	.L239
 1736 0784 017087E2 		add	r7, r7, #1
 1737 0788 010C57E3 		cmp	r7, #256
 1738 078c F2FFFF1A 		bne	.L151
 1739 0790 0080A0E3 		mov	r8, #0
 1740 0794 020000EA 		b	.L239
 1741              	.L155:
 1742 0798 C0179FE5 		ldr	r1, .L262+80
 1743 079c FEFFFFEB 		bl	__aeabi_fsub
 1744 07a0 0060A0E1 		mov	r6, r0
 1745              	.L239:
 1746 07a4 0600A0E1 		mov	r0, r6
 1747 07a8 B0179FE5 		ldr	r1, .L262+80
 1748 07ac FEFFFFEB 		bl	__aeabi_fcmpge
 1749 07b0 000050E3 		cmp	r0, #0
 1750 07b4 0600A0E1 		mov	r0, r6
 1751 07b8 0200000A 		beq	.L153
 1752 07bc 018088E2 		add	r8, r8, #1
 1753 07c0 FF8018E2 		ands	r8, r8, #255
 1754 07c4 F3FFFF1A 		bne	.L155
 1755              	.L153:
 1756 07c8 FEFFFFEB 		bl	__aeabi_f2d
 1757 07cc 0020A0E1 		mov	r2, r0
 1758 07d0 0130A0E1 		mov	r3, r1
 1759 07d4 0400A0E1 		mov	r0, r4
 1760 07d8 0510A0E1 		mov	r1, r5
 1761 07dc FEFFFFEB 		bl	__aeabi_dsub
 1762 07e0 FEFFFFEB 		bl	__aeabi_d2f
 1763 07e4 0050A0E3 		mov	r5, #0
 1764 07e8 0040A0E1 		mov	r4, r0
 1765 07ec 030000EA 		b	.L156
 1766              	.L159:
 1767 07f0 0400A0E1 		mov	r0, r4
 1768 07f4 64179FE5 		ldr	r1, .L262+80
 1769 07f8 FEFFFFEB 		bl	__aeabi_fadd
 1770 07fc 0040A0E1 		mov	r4, r0
 1771              	.L156:
 1772 0800 0400A0E1 		mov	r0, r4
 1773 0804 0010A0E3 		mov	r1, #0
 1774 0808 FEFFFFEB 		bl	__aeabi_fcmplt
 1775 080c 000050E3 		cmp	r0, #0
 1776 0810 FF6005E2 		and	r6, r5, #255
 1777 0814 0700000A 		beq	.L240
 1778 0818 015085E2 		add	r5, r5, #1
 1779 081c 010C55E3 		cmp	r5, #256
 1780 0820 F2FFFF1A 		bne	.L159
 1781 0824 0060A0E3 		mov	r6, #0
 1782 0828 020000EA 		b	.L240
 1783              	.L163:
 1784 082c 2C179FE5 		ldr	r1, .L262+80
 1785 0830 FEFFFFEB 		bl	__aeabi_fsub
 1786 0834 0040A0E1 		mov	r4, r0
 1787              	.L240:
 1788 0838 0400A0E1 		mov	r0, r4
 1789 083c 1C179FE5 		ldr	r1, .L262+80
 1790 0840 FEFFFFEB 		bl	__aeabi_fcmpge
 1791 0844 000050E3 		cmp	r0, #0
 1792 0848 0400A0E1 		mov	r0, r4
 1793 084c 0200000A 		beq	.L161
 1794 0850 016086E2 		add	r6, r6, #1
 1795 0854 FF6016E2 		ands	r6, r6, #255
 1796 0858 F3FFFF1A 		bne	.L163
 1797              	.L161:
 1798 085c 00179FE5 		ldr	r1, .L262+84
 1799 0860 FEFFFFEB 		bl	__aeabi_fcmpgt
 1800 0864 000050E3 		cmp	r0, #0
 1801 0868 0400001A 		bne	.L164
 1802 086c 0400A0E1 		mov	r0, r4
 1803 0870 F0169FE5 		ldr	r1, .L262+88
 1804 0874 FEFFFFEB 		bl	__aeabi_fcmplt
 1805 0878 000050E3 		cmp	r0, #0
 1806 087c 9F01000A 		beq	.L101
 1807              	.L164:
 1808 0880 0420A0E3 		mov	r2, #4
 1809 0884 9A0100EA 		b	.L261
 1810              	.L106:
 1811 0888 30309DE5 		ldr	r3, [sp, #48]
 1812 088c 28809DE5 		ldr	r8, [sp, #40]
 1813 0890 960808E0 		mul	r8, r6, r8
 1814 0894 930606E0 		mul	r6, r3, r6
 1815 0898 085084E0 		add	r5, r4, r8
 1816 089c 067084E0 		add	r7, r4, r6
 1817 08a0 080094E7 		ldr	r0, [r4, r8]	@ float
 1818 08a4 041095E5 		ldr	r1, [r5, #4]	@ float
 1819 08a8 062094E7 		ldr	r2, [r4, r6]	@ float
 1820 08ac 043097E5 		ldr	r3, [r7, #4]	@ float
 1821 08b0 FEFFFFEB 		bl	nav_route_xy
 1822 08b4 8C369FE5 		ldr	r3, .L262+56
 1823 08b8 00308DE5 		str	r3, [sp, #0]	@ float
 1824 08bc 060094E7 		ldr	r0, [r4, r6]	@ float
 1825 08c0 041097E5 		ldr	r1, [r7, #4]	@ float
 1826 08c4 082094E7 		ldr	r2, [r4, r8]	@ float
 1827 08c8 043095E5 		ldr	r3, [r5, #4]	@ float
 1828 08cc FEFFFFEB 		bl	nav_approaching_xy
 1829 08d0 000050E3 		cmp	r0, #0
 1830 08d4 8901000A 		beq	.L101
 1831 08d8 0520A0E3 		mov	r2, #5
 1832              	.L260:
 1833 08dc 60369FE5 		ldr	r3, .L262+52
 1834 08e0 080095E5 		ldr	r0, [r5, #8]	@ float
 1835 08e4 54109DE5 		ldr	r1, [sp, #84]	@ float
 1836 08e8 0020C3E5 		strb	r2, [r3, #0]
 1837 08ec FEFFFFEB 		bl	__aeabi_fadd
 1838 08f0 080085E5 		str	r0, [r5, #8]	@ float
 1839 08f4 800100EA 		b	.L259
 1840              	.L107:
 1841 08f8 44109DE5 		ldr	r1, [sp, #68]	@ float
 1842 08fc 0800A0E1 		mov	r0, r8
 1843 0900 FEFFFFEB 		bl	__aeabi_fadd
 1844 0904 48109DE5 		ldr	r1, [sp, #72]	@ float
 1845 0908 0040A0E1 		mov	r4, r0
 1846 090c 2C009DE5 		ldr	r0, [sp, #44]	@ float
 1847 0910 FEFFFFEB 		bl	__aeabi_fadd
 1848 0914 0720A0E1 		mov	r2, r7
 1849 0918 0010A0E1 		mov	r1, r0
 1850 091c 0400A0E1 		mov	r0, r4
 1851 0920 FEFFFFEB 		bl	nav_circle_XY
 1852 0924 4C009DE5 		ldr	r0, [sp, #76]	@ float
 1853 0928 FEFFFFEB 		bl	__aeabi_f2d
 1854 092c F4259FE5 		ldr	r2, .L262+24
 1855 0930 F4359FE5 		ldr	r3, .L262+28
 1856 0934 FEFFFFEB 		bl	__aeabi_dadd
 1857 0938 0C269FE5 		ldr	r2, .L262+60
 1858 093c 0C369FE5 		ldr	r3, .L262+64
 1859 0940 FEFFFFEB 		bl	__aeabi_dmul
 1860 0944 0020A0E3 		mov	r2, #0
 1861 0948 04369FE5 		ldr	r3, .L262+68
 1862 094c FEFFFFEB 		bl	__aeabi_dsub
 1863 0950 00369FE5 		ldr	r3, .L262+72
 1864 0954 0040A0E1 		mov	r4, r0
 1865 0958 000093E5 		ldr	r0, [r3, #0]	@ float
 1866 095c 0150A0E1 		mov	r5, r1
 1867 0960 FEFFFFEB 		bl	__aeabi_f2d
 1868 0964 0020A0E1 		mov	r2, r0
 1869 0968 0130A0E1 		mov	r3, r1
 1870 096c B4059FE5 		ldr	r0, .L262+24
 1871 0970 E4159FE5 		ldr	r1, .L262+76
 1872 0974 FEFFFFEB 		bl	__aeabi_dsub
 1873 0978 CC259FE5 		ldr	r2, .L262+60
 1874 097c CC359FE5 		ldr	r3, .L262+64
 1875 0980 FEFFFFEB 		bl	__aeabi_dmul
 1876 0984 FEFFFFEB 		bl	__aeabi_d2f
 1877 0988 0070A0E3 		mov	r7, #0
 1878 098c 0060A0E1 		mov	r6, r0
 1879 0990 030000EA 		b	.L166
 1880              	.L169:
 1881 0994 0600A0E1 		mov	r0, r6
 1882 0998 C0159FE5 		ldr	r1, .L262+80
 1883 099c FEFFFFEB 		bl	__aeabi_fadd
 1884 09a0 0060A0E1 		mov	r6, r0
 1885              	.L166:
 1886 09a4 0600A0E1 		mov	r0, r6
 1887 09a8 0010A0E3 		mov	r1, #0
 1888 09ac FEFFFFEB 		bl	__aeabi_fcmplt
 1889 09b0 000050E3 		cmp	r0, #0
 1890 09b4 FF8007E2 		and	r8, r7, #255
 1891 09b8 0700000A 		beq	.L241
 1892 09bc 017087E2 		add	r7, r7, #1
 1893 09c0 010C57E3 		cmp	r7, #256
 1894 09c4 F2FFFF1A 		bne	.L169
 1895 09c8 0080A0E3 		mov	r8, #0
 1896 09cc 020000EA 		b	.L241
 1897              	.L173:
 1898 09d0 88159FE5 		ldr	r1, .L262+80
 1899 09d4 FEFFFFEB 		bl	__aeabi_fsub
 1900 09d8 0060A0E1 		mov	r6, r0
 1901              	.L241:
 1902 09dc 0600A0E1 		mov	r0, r6
 1903 09e0 78159FE5 		ldr	r1, .L262+80
 1904 09e4 FEFFFFEB 		bl	__aeabi_fcmpge
 1905 09e8 000050E3 		cmp	r0, #0
 1906 09ec 0600A0E1 		mov	r0, r6
 1907 09f0 0200000A 		beq	.L171
 1908 09f4 018088E2 		add	r8, r8, #1
 1909 09f8 FF8018E2 		ands	r8, r8, #255
 1910 09fc F3FFFF1A 		bne	.L173
 1911              	.L171:
 1912 0a00 FEFFFFEB 		bl	__aeabi_f2d
 1913 0a04 0020A0E1 		mov	r2, r0
 1914 0a08 0130A0E1 		mov	r3, r1
 1915 0a0c 0400A0E1 		mov	r0, r4
 1916 0a10 0510A0E1 		mov	r1, r5
 1917 0a14 FEFFFFEB 		bl	__aeabi_dsub
 1918 0a18 FEFFFFEB 		bl	__aeabi_d2f
 1919 0a1c 0050A0E3 		mov	r5, #0
 1920 0a20 0040A0E1 		mov	r4, r0
 1921 0a24 030000EA 		b	.L174
 1922              	.L177:
 1923 0a28 0400A0E1 		mov	r0, r4
 1924 0a2c 2C159FE5 		ldr	r1, .L262+80
 1925 0a30 FEFFFFEB 		bl	__aeabi_fadd
 1926 0a34 0040A0E1 		mov	r4, r0
 1927              	.L174:
 1928 0a38 0400A0E1 		mov	r0, r4
 1929 0a3c 0010A0E3 		mov	r1, #0
 1930 0a40 FEFFFFEB 		bl	__aeabi_fcmplt
 1931 0a44 000050E3 		cmp	r0, #0
 1932 0a48 FF6005E2 		and	r6, r5, #255
 1933 0a4c 0700000A 		beq	.L242
 1934 0a50 015085E2 		add	r5, r5, #1
 1935 0a54 010C55E3 		cmp	r5, #256
 1936 0a58 F2FFFF1A 		bne	.L177
 1937 0a5c 0060A0E3 		mov	r6, #0
 1938 0a60 020000EA 		b	.L242
 1939              	.L181:
 1940 0a64 F4149FE5 		ldr	r1, .L262+80
 1941 0a68 FEFFFFEB 		bl	__aeabi_fsub
 1942 0a6c 0040A0E1 		mov	r4, r0
 1943              	.L242:
 1944 0a70 0400A0E1 		mov	r0, r4
 1945 0a74 E4149FE5 		ldr	r1, .L262+80
 1946 0a78 FEFFFFEB 		bl	__aeabi_fcmpge
 1947 0a7c 000050E3 		cmp	r0, #0
 1948 0a80 0400A0E1 		mov	r0, r4
 1949 0a84 0200000A 		beq	.L179
 1950 0a88 016086E2 		add	r6, r6, #1
 1951 0a8c FF6016E2 		ands	r6, r6, #255
 1952 0a90 F3FFFF1A 		bne	.L181
 1953              	.L179:
 1954 0a94 C8149FE5 		ldr	r1, .L262+84
 1955 0a98 FEFFFFEB 		bl	__aeabi_fcmpgt
 1956 0a9c 000050E3 		cmp	r0, #0
 1957 0aa0 0400001A 		bne	.L182
 1958 0aa4 0400A0E1 		mov	r0, r4
 1959 0aa8 B8149FE5 		ldr	r1, .L262+88
 1960 0aac FEFFFFEB 		bl	__aeabi_fcmplt
 1961 0ab0 000050E3 		cmp	r0, #0
 1962 0ab4 1101000A 		beq	.L101
 1963              	.L182:
 1964 0ab8 0620A0E3 		mov	r2, #6
 1965 0abc 0C0100EA 		b	.L261
 1966              	.L108:
 1967 0ac0 0800A0E1 		mov	r0, r8
 1968 0ac4 FEFFFFEB 		bl	__aeabi_f2d
 1969 0ac8 0040A0E1 		mov	r4, r0
 1970 0acc 38009DE5 		ldr	r0, [sp, #56]	@ float
 1971 0ad0 0150A0E1 		mov	r5, r1
 1972 0ad4 FEFFFFEB 		bl	__aeabi_f2d
 1973 0ad8 0020A0E1 		mov	r2, r0
 1974 0adc 0130A0E1 		mov	r3, r1
 1975 0ae0 10108DE2 		add	r1, sp, #16
 1976 0ae4 030091E8 		ldmia	r1, {r0-r1}
 1977 0ae8 FEFFFFEB 		bl	__aeabi_dmul
 1978 0aec 0020A0E1 		mov	r2, r0
 1979 0af0 0130A0E1 		mov	r3, r1
 1980 0af4 0400A0E1 		mov	r0, r4
 1981 0af8 0510A0E1 		mov	r1, r5
 1982 0afc FEFFFFEB 		bl	__aeabi_dadd
 1983 0b00 FEFFFFEB 		bl	__aeabi_d2f
 1984 0b04 0040A0E1 		mov	r4, r0
 1985 0b08 2C009DE5 		ldr	r0, [sp, #44]	@ float
 1986 0b0c FEFFFFEB 		bl	__aeabi_f2d
 1987 0b10 0080A0E1 		mov	r8, r0
 1988 0b14 40009DE5 		ldr	r0, [sp, #64]	@ float
 1989 0b18 0190A0E1 		mov	r9, r1
 1990 0b1c FEFFFFEB 		bl	__aeabi_f2d
 1991 0b20 0020A0E1 		mov	r2, r0
 1992 0b24 0130A0E1 		mov	r3, r1
 1993 0b28 10108DE2 		add	r1, sp, #16
 1994 0b2c 030091E8 		ldmia	r1, {r0-r1}
 1995 0b30 FEFFFFEB 		bl	__aeabi_dmul
 1996 0b34 0130A0E1 		mov	r3, r1
 1997 0b38 0020A0E1 		mov	r2, r0
 1998 0b3c 0910A0E1 		mov	r1, r9
 1999 0b40 0800A0E1 		mov	r0, r8
 2000 0b44 FEFFFFEB 		bl	__aeabi_dadd
 2001 0b48 FEFFFFEB 		bl	__aeabi_d2f
 2002 0b4c 022187E2 		add	r2, r7, #-2147483648
 2003 0b50 0010A0E1 		mov	r1, r0
 2004 0b54 0400A0E1 		mov	r0, r4
 2005 0b58 FEFFFFEB 		bl	nav_circle_XY
 2006 0b5c 50009DE5 		ldr	r0, [sp, #80]	@ float
 2007 0b60 FEFFFFEB 		bl	__aeabi_f2d
 2008 0b64 BC239FE5 		ldr	r2, .L262+24
 2009 0b68 BC339FE5 		ldr	r3, .L262+28
 2010 0b6c FEFFFFEB 		bl	__aeabi_dadd
 2011 0b70 D4239FE5 		ldr	r2, .L262+60
 2012 0b74 D4339FE5 		ldr	r3, .L262+64
 2013 0b78 FEFFFFEB 		bl	__aeabi_dmul
 2014 0b7c 0020A0E3 		mov	r2, #0
 2015 0b80 CC339FE5 		ldr	r3, .L262+68
 2016 0b84 FEFFFFEB 		bl	__aeabi_dadd
 2017 0b88 C8339FE5 		ldr	r3, .L262+72
 2018 0b8c 0040A0E1 		mov	r4, r0
 2019 0b90 000093E5 		ldr	r0, [r3, #0]	@ float
 2020 0b94 0150A0E1 		mov	r5, r1
 2021 0b98 FEFFFFEB 		bl	__aeabi_f2d
 2022 0b9c 0020A0E1 		mov	r2, r0
 2023 0ba0 0130A0E1 		mov	r3, r1
 2024 0ba4 7C039FE5 		ldr	r0, .L262+24
 2025 0ba8 AC139FE5 		ldr	r1, .L262+76
 2026 0bac FEFFFFEB 		bl	__aeabi_dsub
 2027 0bb0 94239FE5 		ldr	r2, .L262+60
 2028 0bb4 94339FE5 		ldr	r3, .L262+64
 2029 0bb8 FEFFFFEB 		bl	__aeabi_dmul
 2030 0bbc FEFFFFEB 		bl	__aeabi_d2f
 2031 0bc0 0070A0E3 		mov	r7, #0
 2032 0bc4 0060A0E1 		mov	r6, r0
 2033 0bc8 030000EA 		b	.L184
 2034              	.L187:
 2035 0bcc 0600A0E1 		mov	r0, r6
 2036 0bd0 88139FE5 		ldr	r1, .L262+80
 2037 0bd4 FEFFFFEB 		bl	__aeabi_fadd
 2038 0bd8 0060A0E1 		mov	r6, r0
 2039              	.L184:
 2040 0bdc 0600A0E1 		mov	r0, r6
 2041 0be0 0010A0E3 		mov	r1, #0
 2042 0be4 FEFFFFEB 		bl	__aeabi_fcmplt
 2043 0be8 000050E3 		cmp	r0, #0
 2044 0bec FF8007E2 		and	r8, r7, #255
 2045 0bf0 0700000A 		beq	.L243
 2046 0bf4 017087E2 		add	r7, r7, #1
 2047 0bf8 010C57E3 		cmp	r7, #256
 2048 0bfc F2FFFF1A 		bne	.L187
 2049 0c00 0080A0E3 		mov	r8, #0
 2050 0c04 020000EA 		b	.L243
 2051              	.L191:
 2052 0c08 50139FE5 		ldr	r1, .L262+80
 2053 0c0c FEFFFFEB 		bl	__aeabi_fsub
 2054 0c10 0060A0E1 		mov	r6, r0
 2055              	.L243:
 2056 0c14 0600A0E1 		mov	r0, r6
 2057 0c18 40139FE5 		ldr	r1, .L262+80
 2058 0c1c FEFFFFEB 		bl	__aeabi_fcmpge
 2059 0c20 000050E3 		cmp	r0, #0
 2060 0c24 0600A0E1 		mov	r0, r6
 2061 0c28 0200000A 		beq	.L189
 2062 0c2c 018088E2 		add	r8, r8, #1
 2063 0c30 FF8018E2 		ands	r8, r8, #255
 2064 0c34 F3FFFF1A 		bne	.L191
 2065              	.L189:
 2066 0c38 FEFFFFEB 		bl	__aeabi_f2d
 2067 0c3c 0020A0E1 		mov	r2, r0
 2068 0c40 0130A0E1 		mov	r3, r1
 2069 0c44 0400A0E1 		mov	r0, r4
 2070 0c48 0510A0E1 		mov	r1, r5
 2071 0c4c FEFFFFEB 		bl	__aeabi_dsub
 2072 0c50 FEFFFFEB 		bl	__aeabi_d2f
 2073 0c54 0050A0E3 		mov	r5, #0
 2074 0c58 0040A0E1 		mov	r4, r0
 2075 0c5c 030000EA 		b	.L192
 2076              	.L195:
 2077 0c60 0400A0E1 		mov	r0, r4
 2078 0c64 F4129FE5 		ldr	r1, .L262+80
 2079 0c68 FEFFFFEB 		bl	__aeabi_fadd
 2080 0c6c 0040A0E1 		mov	r4, r0
 2081              	.L192:
 2082 0c70 0400A0E1 		mov	r0, r4
 2083 0c74 0010A0E3 		mov	r1, #0
 2084 0c78 FEFFFFEB 		bl	__aeabi_fcmplt
 2085 0c7c 000050E3 		cmp	r0, #0
 2086 0c80 FF6005E2 		and	r6, r5, #255
 2087 0c84 0700000A 		beq	.L244
 2088 0c88 015085E2 		add	r5, r5, #1
 2089 0c8c 010C55E3 		cmp	r5, #256
 2090 0c90 F2FFFF1A 		bne	.L195
 2091 0c94 0060A0E3 		mov	r6, #0
 2092 0c98 020000EA 		b	.L244
 2093              	.L199:
 2094 0c9c BC129FE5 		ldr	r1, .L262+80
 2095 0ca0 FEFFFFEB 		bl	__aeabi_fsub
 2096 0ca4 0040A0E1 		mov	r4, r0
 2097              	.L244:
 2098 0ca8 0400A0E1 		mov	r0, r4
 2099 0cac AC129FE5 		ldr	r1, .L262+80
 2100 0cb0 FEFFFFEB 		bl	__aeabi_fcmpge
 2101 0cb4 000050E3 		cmp	r0, #0
 2102 0cb8 0400A0E1 		mov	r0, r4
 2103 0cbc 0200000A 		beq	.L197
 2104 0cc0 016086E2 		add	r6, r6, #1
 2105 0cc4 FF6016E2 		ands	r6, r6, #255
 2106 0cc8 F3FFFF1A 		bne	.L199
 2107              	.L197:
 2108 0ccc 90129FE5 		ldr	r1, .L262+84
 2109 0cd0 FEFFFFEB 		bl	__aeabi_fcmpgt
 2110 0cd4 000050E3 		cmp	r0, #0
 2111 0cd8 0400001A 		bne	.L200
 2112 0cdc 0400A0E1 		mov	r0, r4
 2113 0ce0 80129FE5 		ldr	r1, .L262+88
 2114 0ce4 FEFFFFEB 		bl	__aeabi_fcmplt
 2115 0ce8 000050E3 		cmp	r0, #0
 2116 0cec 8300000A 		beq	.L101
 2117              	.L200:
 2118 0cf0 FEFFFFEB 		bl	stateGetPositionEnu_f
 2119 0cf4 28209DE5 		ldr	r2, [sp, #40]
 2120 0cf8 10329FE5 		ldr	r3, .L262
 2121 0cfc 0C60A0E3 		mov	r6, #12
 2122 0d00 923626E0 		mla	r6, r2, r6, r3
 2123 0d04 0040A0E1 		mov	r4, r0
 2124 0d08 38129FE5 		ldr	r1, .L262+56
 2125 0d0c 080096E5 		ldr	r0, [r6, #8]	@ float
 2126 0d10 FEFFFFEB 		bl	__aeabi_fsub
 2127 0d14 0010A0E1 		mov	r1, r0
 2128 0d18 080094E5 		ldr	r0, [r4, #8]	@ float
 2129 0d1c FEFFFFEB 		bl	__aeabi_fcmpge
 2130 0d20 000050E3 		cmp	r0, #0
 2131 0d24 0720A013 		movne	r2, #7
 2132 0d28 7400000A 		beq	.L101
 2133 0d2c 700000EA 		b	.L261
 2134              	.L109:
 2135 0d30 34109DE5 		ldr	r1, [sp, #52]	@ float
 2136 0d34 0800A0E1 		mov	r0, r8
 2137 0d38 FEFFFFEB 		bl	__aeabi_fadd
 2138 0d3c 3C109DE5 		ldr	r1, [sp, #60]	@ float
 2139 0d40 0040A0E1 		mov	r4, r0
 2140 0d44 2C009DE5 		ldr	r0, [sp, #44]	@ float
 2141 0d48 FEFFFFEB 		bl	__aeabi_fadd
 2142 0d4c 0720A0E1 		mov	r2, r7
 2143 0d50 0010A0E1 		mov	r1, r0
 2144 0d54 0400A0E1 		mov	r0, r4
 2145 0d58 FEFFFFEB 		bl	nav_circle_XY
 2146 0d5c 0A00A0E1 		mov	r0, sl
 2147 0d60 FEFFFFEB 		bl	__aeabi_f2d
 2148 0d64 BC219FE5 		ldr	r2, .L262+24
 2149 0d68 BC319FE5 		ldr	r3, .L262+28
 2150 0d6c FEFFFFEB 		bl	__aeabi_dadd
 2151 0d70 D4219FE5 		ldr	r2, .L262+60
 2152 0d74 D4319FE5 		ldr	r3, .L262+64
 2153 0d78 FEFFFFEB 		bl	__aeabi_dmul
 2154 0d7c 0020A0E3 		mov	r2, #0
 2155 0d80 CC319FE5 		ldr	r3, .L262+68
 2156 0d84 FEFFFFEB 		bl	__aeabi_dsub
 2157 0d88 C8319FE5 		ldr	r3, .L262+72
 2158 0d8c 0040A0E1 		mov	r4, r0
 2159 0d90 000093E5 		ldr	r0, [r3, #0]	@ float
 2160 0d94 0150A0E1 		mov	r5, r1
 2161 0d98 FEFFFFEB 		bl	__aeabi_f2d
 2162 0d9c 0020A0E1 		mov	r2, r0
 2163 0da0 0130A0E1 		mov	r3, r1
 2164 0da4 7C019FE5 		ldr	r0, .L262+24
 2165 0da8 AC119FE5 		ldr	r1, .L262+76
 2166 0dac FEFFFFEB 		bl	__aeabi_dsub
 2167 0db0 94219FE5 		ldr	r2, .L262+60
 2168 0db4 94319FE5 		ldr	r3, .L262+64
 2169 0db8 FEFFFFEB 		bl	__aeabi_dmul
 2170 0dbc FEFFFFEB 		bl	__aeabi_d2f
 2171 0dc0 0070A0E3 		mov	r7, #0
 2172 0dc4 0060A0E1 		mov	r6, r0
 2173 0dc8 030000EA 		b	.L203
 2174              	.L206:
 2175 0dcc 0600A0E1 		mov	r0, r6
 2176 0dd0 88119FE5 		ldr	r1, .L262+80
 2177 0dd4 FEFFFFEB 		bl	__aeabi_fadd
 2178 0dd8 0060A0E1 		mov	r6, r0
 2179              	.L203:
 2180 0ddc 0600A0E1 		mov	r0, r6
 2181 0de0 0010A0E3 		mov	r1, #0
 2182 0de4 FEFFFFEB 		bl	__aeabi_fcmplt
 2183 0de8 000050E3 		cmp	r0, #0
 2184 0dec FF8007E2 		and	r8, r7, #255
 2185 0df0 0700000A 		beq	.L245
 2186 0df4 017087E2 		add	r7, r7, #1
 2187 0df8 010C57E3 		cmp	r7, #256
 2188 0dfc F2FFFF1A 		bne	.L206
 2189 0e00 0080A0E3 		mov	r8, #0
 2190 0e04 020000EA 		b	.L245
 2191              	.L210:
 2192 0e08 50119FE5 		ldr	r1, .L262+80
 2193 0e0c FEFFFFEB 		bl	__aeabi_fsub
 2194 0e10 0060A0E1 		mov	r6, r0
 2195              	.L245:
 2196 0e14 0600A0E1 		mov	r0, r6
 2197 0e18 40119FE5 		ldr	r1, .L262+80
 2198 0e1c FEFFFFEB 		bl	__aeabi_fcmpge
 2199 0e20 000050E3 		cmp	r0, #0
 2200 0e24 0600A0E1 		mov	r0, r6
 2201 0e28 0200000A 		beq	.L208
 2202 0e2c 018088E2 		add	r8, r8, #1
 2203 0e30 FF8018E2 		ands	r8, r8, #255
 2204 0e34 F3FFFF1A 		bne	.L210
 2205              	.L208:
 2206 0e38 FEFFFFEB 		bl	__aeabi_f2d
 2207 0e3c 0020A0E1 		mov	r2, r0
 2208 0e40 0130A0E1 		mov	r3, r1
 2209 0e44 0400A0E1 		mov	r0, r4
 2210 0e48 0510A0E1 		mov	r1, r5
 2211 0e4c FEFFFFEB 		bl	__aeabi_dsub
 2212 0e50 FEFFFFEB 		bl	__aeabi_d2f
 2213 0e54 0050A0E3 		mov	r5, #0
 2214 0e58 0040A0E1 		mov	r4, r0
 2215 0e5c 030000EA 		b	.L211
 2216              	.L214:
 2217 0e60 0400A0E1 		mov	r0, r4
 2218 0e64 F4109FE5 		ldr	r1, .L262+80
 2219 0e68 FEFFFFEB 		bl	__aeabi_fadd
 2220 0e6c 0040A0E1 		mov	r4, r0
 2221              	.L211:
 2222 0e70 0400A0E1 		mov	r0, r4
 2223 0e74 0010A0E3 		mov	r1, #0
 2224 0e78 FEFFFFEB 		bl	__aeabi_fcmplt
 2225 0e7c 000050E3 		cmp	r0, #0
 2226 0e80 FF6005E2 		and	r6, r5, #255
 2227 0e84 0700000A 		beq	.L246
 2228 0e88 015085E2 		add	r5, r5, #1
 2229 0e8c 010C55E3 		cmp	r5, #256
 2230 0e90 F2FFFF1A 		bne	.L214
 2231 0e94 0060A0E3 		mov	r6, #0
 2232 0e98 020000EA 		b	.L246
 2233              	.L218:
 2234 0e9c BC109FE5 		ldr	r1, .L262+80
 2235 0ea0 FEFFFFEB 		bl	__aeabi_fsub
 2236 0ea4 0040A0E1 		mov	r4, r0
 2237              	.L246:
 2238 0ea8 0400A0E1 		mov	r0, r4
 2239 0eac AC109FE5 		ldr	r1, .L262+80
 2240 0eb0 FEFFFFEB 		bl	__aeabi_fcmpge
 2241 0eb4 000050E3 		cmp	r0, #0
 2242 0eb8 0400A0E1 		mov	r0, r4
 2243 0ebc 0200000A 		beq	.L216
 2244 0ec0 016086E2 		add	r6, r6, #1
 2245 0ec4 FF6016E2 		ands	r6, r6, #255
 2246 0ec8 F3FFFF1A 		bne	.L218
 2247              	.L216:
 2248 0ecc 90109FE5 		ldr	r1, .L262+84
 2249 0ed0 FEFFFFEB 		bl	__aeabi_fcmpgt
 2250 0ed4 000050E3 		cmp	r0, #0
 2251 0ed8 0400001A 		bne	.L219
 2252 0edc 0400A0E1 		mov	r0, r4
 2253 0ee0 80109FE5 		ldr	r1, .L262+88
 2254 0ee4 FEFFFFEB 		bl	__aeabi_fcmplt
 2255 0ee8 000050E3 		cmp	r0, #0
 2256 0eec 0300000A 		beq	.L101
 2257              	.L219:
 2258 0ef0 0020A0E3 		mov	r2, #0
 2259              	.L261:
 2260 0ef4 48309FE5 		ldr	r3, .L262+52
 2261 0ef8 0020C3E5 		strb	r2, [r3, #0]
 2262              	.L259:
 2263 0efc FEFFFFEB 		bl	nav_init_stage
 2264              	.L101:
 2265 0f00 0100A0E3 		mov	r0, #1
 2266 0f04 5CD08DE2 		add	sp, sp, #92
 2267 0f08 F04FBDE8 		ldmfd	sp!, {r4, r5, r6, r7, r8, r9, sl, fp, lr}
 2268 0f0c 1EFF2FE1 		bx	lr
 2269              	.L263:
 2270              		.align	2
 2271              	.L262:
 2272 0f10 00000000 		.word	waypoints
 2273 0f14 83C0CAA1 		.word	-1580547965
 2274 0f18 45B6FB3F 		.word	1073460805
 2275 0f1c 65732D38 		.word	942502757
 2276 0f20 52C1F03F 		.word	1072742738
 2277 0f24 52C1F0BF 		.word	-1074740910
 2278 0f28 182D4454 		.word	1413754136
 2279 0f2c FB210940 		.word	1074340347
 2280 0f30 00000000 		.word	v_ctl_climb_mode
 2281 0f34 00000000 		.word	nav_pitch
 2282 0f38 00000000 		.word	v_ctl_mode
 2283 0f3c 00000000 		.word	nav_altitude
 2284 0f40 00000000 		.word	v_ctl_altitude_pre_climb
 2285 0f44 00000000 		.word	.LANCHOR26
 2286 0f48 0000A040 		.word	1084227584
 2287 0f4c F8C1631A 		.word	442745336
 2288 0f50 DCA54C40 		.word	1078765020
 2289 0f54 00002440 		.word	1076101120
 2290 0f58 00000000 		.word	nav_circle_trigo_qdr
 2291 0f5c FB21F93F 		.word	1073291771
 2292 0f60 0000B443 		.word	1135869952
 2293 0f64 0000AF43 		.word	1135542272
 2294 0f68 00002041 		.word	1092616192
 2296              		.section	.text.InitializeSkidLanding,"ax",%progbits
 2297              		.align	2
 2298              		.global	InitializeSkidLanding
 2300              	InitializeSkidLanding:
 2301              		@ Function supports interworking.
 2302              		@ args = 0, pretend = 0, frame = 0
 2303              		@ frame_needed = 0, uses_anonymous_args = 0
 2304 0000 F0472DE9 		stmfd	sp!, {r4, r5, r6, r7, r8, r9, sl, lr}
 2305 0004 10529FE5 		ldr	r5, .L271
 2306 0008 10629FE5 		ldr	r6, .L271+4
 2307 000c 10329FE5 		ldr	r3, .L271+8
 2308 0010 10429FE5 		ldr	r4, .L271+12
 2309 0014 0010C5E5 		strb	r1, [r5, #0]
 2310 0018 0010A0E3 		mov	r1, #0
 2311 001c 0010C3E5 		strb	r1, [r3, #0]
 2312 0020 002084E5 		str	r2, [r4, #0]	@ float
 2313 0024 0000C6E5 		strb	r0, [r6, #0]
 2314 0028 FEFFFFEB 		bl	stateGetPositionEnu_f
 2315 002c F8319FE5 		ldr	r3, .L271+16
 2316 0030 082090E5 		ldr	r2, [r0, #8]	@ float
 2317 0034 002083E5 		str	r2, [r3, #0]	@ float
 2318 0038 F0219FE5 		ldr	r2, .L271+20
 2319 003c F0319FE5 		ldr	r3, .L271+24
 2320 0040 002083E5 		str	r2, [r3, #0]	@ float
 2321 0044 EC319FE5 		ldr	r3, .L271+28
 2322 0048 0120A0E3 		mov	r2, #1
 2323 004c 0050D5E5 		ldrb	r5, [r5, #0]	@ zero_extendqisi2
 2324 0050 0020C3E5 		strb	r2, [r3, #0]
 2325 0054 0C30A0E3 		mov	r3, #12
 2326 0058 930505E0 		mul	r5, r3, r5
 2327 005c 0070D6E5 		ldrb	r7, [r6, #0]	@ zero_extendqisi2
 2328 0060 D4619FE5 		ldr	r6, .L271+32
 2329 0064 05A086E0 		add	sl, r6, r5
 2330 0068 08009AE5 		ldr	r0, [sl, #8]	@ float
 2331 006c CC119FE5 		ldr	r1, .L271+36
 2332 0070 930707E0 		mul	r7, r3, r7
 2333 0074 FEFFFFEB 		bl	__aeabi_fadd
 2334 0078 078086E0 		add	r8, r6, r7
 2335 007c 071096E7 		ldr	r1, [r6, r7]	@ float
 2336 0080 080088E5 		str	r0, [r8, #8]	@ float
 2337 0084 050096E7 		ldr	r0, [r6, r5]	@ float
 2338 0088 FEFFFFEB 		bl	__aeabi_fsub
 2339 008c 041098E5 		ldr	r1, [r8, #4]	@ float
 2340 0090 0050A0E1 		mov	r5, r0
 2341 0094 04009AE5 		ldr	r0, [sl, #4]	@ float
 2342 0098 FEFFFFEB 		bl	__aeabi_fsub
 2343 009c 0510A0E1 		mov	r1, r5
 2344 00a0 00A0A0E1 		mov	sl, r0
 2345 00a4 0500A0E1 		mov	r0, r5
 2346 00a8 FEFFFFEB 		bl	__aeabi_fmul
 2347 00ac 0A10A0E1 		mov	r1, sl
 2348 00b0 0090A0E1 		mov	r9, r0
 2349 00b4 0A00A0E1 		mov	r0, sl
 2350 00b8 FEFFFFEB 		bl	__aeabi_fmul
 2351 00bc 0010A0E1 		mov	r1, r0
 2352 00c0 0900A0E1 		mov	r0, r9
 2353 00c4 FEFFFFEB 		bl	__aeabi_fadd
 2354 00c8 FEFFFFEB 		bl	__aeabi_f2d
 2355 00cc FEFFFFEB 		bl	sqrt
 2356 00d0 FEFFFFEB 		bl	__aeabi_d2f
 2357 00d4 004094E5 		ldr	r4, [r4, #0]	@ float
 2358 00d8 0090A0E1 		mov	r9, r0
 2359 00dc 0910A0E1 		mov	r1, r9
 2360 00e0 0A00A0E1 		mov	r0, sl
 2361 00e4 FEFFFFEB 		bl	__aeabi_fdiv
 2362 00e8 0410A0E1 		mov	r1, r4
 2363 00ec FEFFFFEB 		bl	__aeabi_fmul
 2364 00f0 077096E7 		ldr	r7, [r6, r7]	@ float
 2365 00f4 0010A0E1 		mov	r1, r0
 2366 00f8 0700A0E1 		mov	r0, r7
 2367 00fc FEFFFFEB 		bl	__aeabi_fadd
 2368 0100 3CA19FE5 		ldr	sl, .L271+40
 2369 0104 0060A0E1 		mov	r6, r0
 2370 0108 00008AE5 		str	r0, [sl, #0]	@ float
 2371 010c 0910A0E1 		mov	r1, r9
 2372 0110 0500A0E1 		mov	r0, r5
 2373 0114 FEFFFFEB 		bl	__aeabi_fdiv
 2374 0118 0410A0E1 		mov	r1, r4
 2375 011c FEFFFFEB 		bl	__aeabi_fmul
 2376 0120 048098E5 		ldr	r8, [r8, #4]	@ float
 2377 0124 0010A0E1 		mov	r1, r0
 2378 0128 0800A0E1 		mov	r0, r8
 2379 012c FEFFFFEB 		bl	__aeabi_fsub
 2380 0130 0610A0E1 		mov	r1, r6
 2381 0134 0050A0E1 		mov	r5, r0
 2382 0138 04008AE5 		str	r0, [sl, #4]	@ float
 2383 013c 0700A0E1 		mov	r0, r7
 2384 0140 FEFFFFEB 		bl	__aeabi_fsub
 2385 0144 FEFFFFEB 		bl	__aeabi_f2d
 2386 0148 0060A0E1 		mov	r6, r0
 2387 014c 0170A0E1 		mov	r7, r1
 2388 0150 0800A0E1 		mov	r0, r8
 2389 0154 0510A0E1 		mov	r1, r5
 2390 0158 FEFFFFEB 		bl	__aeabi_fsub
 2391 015c FEFFFFEB 		bl	__aeabi_f2d
 2392 0160 0020A0E1 		mov	r2, r0
 2393 0164 0130A0E1 		mov	r3, r1
 2394 0168 0600A0E1 		mov	r0, r6
 2395 016c 0710A0E1 		mov	r1, r7
 2396 0170 FEFFFFEB 		bl	atan2
 2397 0174 FEFFFFEB 		bl	__aeabi_d2f
 2398 0178 0010A0E3 		mov	r1, #0
 2399 017c 0060A0E1 		mov	r6, r0
 2400 0180 0400A0E1 		mov	r0, r4
 2401 0184 FEFFFFEB 		bl	__aeabi_fcmpgt
 2402 0188 000050E3 		cmp	r0, #0
 2403 018c B4509FE5 		ldr	r5, .L271+44
 2404 0190 B4409FE5 		ldr	r4, .L271+48
 2405 0194 0600A0E1 		mov	r0, r6
 2406 0198 0D00000A 		beq	.L269
 2407 019c FEFFFFEB 		bl	__aeabi_f2d
 2408 01a0 A8209FE5 		ldr	r2, .L271+52
 2409 01a4 A8309FE5 		ldr	r3, .L271+56
 2410 01a8 0060A0E1 		mov	r6, r0
 2411 01ac 0170A0E1 		mov	r7, r1
 2412 01b0 FEFFFFEB 		bl	__aeabi_dsub
 2413 01b4 FEFFFFEB 		bl	__aeabi_d2f
 2414 01b8 0710A0E1 		mov	r1, r7
 2415 01bc 000084E5 		str	r0, [r4, #0]	@ float
 2416 01c0 88209FE5 		ldr	r2, .L271+52
 2417 01c4 0600A0E1 		mov	r0, r6
 2418 01c8 88309FE5 		ldr	r3, .L271+60
 2419 01cc FEFFFFEB 		bl	__aeabi_dsub
 2420 01d0 0C0000EA 		b	.L270
 2421              	.L269:
 2422 01d4 FEFFFFEB 		bl	__aeabi_f2d
 2423 01d8 70209FE5 		ldr	r2, .L271+52
 2424 01dc 70309FE5 		ldr	r3, .L271+56
 2425 01e0 0060A0E1 		mov	r6, r0
 2426 01e4 0170A0E1 		mov	r7, r1
 2427 01e8 FEFFFFEB 		bl	__aeabi_dadd
 2428 01ec FEFFFFEB 		bl	__aeabi_d2f
 2429 01f0 0710A0E1 		mov	r1, r7
 2430 01f4 000084E5 		str	r0, [r4, #0]	@ float
 2431 01f8 50209FE5 		ldr	r2, .L271+52
 2432 01fc 0600A0E1 		mov	r0, r6
 2433 0200 50309FE5 		ldr	r3, .L271+60
 2434 0204 FEFFFFEB 		bl	__aeabi_dadd
 2435              	.L270:
 2436 0208 FEFFFFEB 		bl	__aeabi_d2f
 2437 020c 000085E5 		str	r0, [r5, #0]	@ float
 2438 0210 0000A0E3 		mov	r0, #0
 2439 0214 F047BDE8 		ldmfd	sp!, {r4, r5, r6, r7, r8, r9, sl, lr}
 2440 0218 1EFF2FE1 		bx	lr
 2441              	.L272:
 2442              		.align	2
 2443              	.L271:
 2444 021c 00000000 		.word	.LANCHOR28
 2445 0220 00000000 		.word	.LANCHOR27
 2446 0224 00000000 		.word	.LANCHOR29
 2447 0228 00000000 		.word	.LANCHOR30
 2448 022c 00000000 		.word	.LANCHOR31
 2449 0230 0000A040 		.word	1084227584
 2450 0234 00000000 		.word	.LANCHOR32
 2451 0238 00000000 		.word	.LANCHOR33
 2452 023c 00000000 		.word	waypoints
 2453 0240 00004842 		.word	1112014848
 2454 0244 00000000 		.word	.LANCHOR34
 2455 0248 00000000 		.word	.LANCHOR35
 2456 024c 00000000 		.word	.LANCHOR36
 2457 0250 182D4454 		.word	1413754136
 2458 0254 FB21F93F 		.word	1073291771
 2459 0258 FB21E93F 		.word	1072243195
 2461              		.global	__aeabi_dcmplt
 2462              		.global	__aeabi_dcmpgt
 2463              		.section	.text.SkidLanding,"ax",%progbits
 2464              		.align	2
 2465              		.global	SkidLanding
 2467              	SkidLanding:
 2468              		@ Function supports interworking.
 2469              		@ args = 0, pretend = 0, frame = 0
 2470              		@ frame_needed = 0, uses_anonymous_args = 0
 2471 0000 F8452DE9 		stmfd	sp!, {r3, r4, r5, r6, r7, r8, sl, lr}
 2472 0004 CC359FE5 		ldr	r3, .L337
 2473 0008 0030D3E5 		ldrb	r3, [r3, #0]	@ zero_extendqisi2
 2474 000c 030053E3 		cmp	r3, #3
 2475 0010 03F19F97 		ldrls	pc, [pc, r3, asl #2]
 2476 0014 6C0100EA 		b	.L274
 2477              	.L279:
 2478 0018 28000000 		.word	.L275
 2479 001c 04010000 		.word	.L276
 2480 0020 0C050000 		.word	.L277
 2481 0024 20030000 		.word	.L278
 2482              	.L275:
 2483 0028 AC359FE5 		ldr	r3, .L337+4
 2484 002c 0020A0E3 		mov	r2, #0
 2485 0030 0020C3E5 		strb	r2, [r3, #0]
 2486 0034 A4359FE5 		ldr	r3, .L337+8
 2487 0038 0040A0E3 		mov	r4, #0
 2488 003c 004083E5 		str	r4, [r3, #0]	@ float
 2489 0040 9C359FE5 		ldr	r3, .L337+12
 2490 0044 000093E5 		ldr	r0, [r3, #0]
 2491 0048 0201C0E3 		bic	r0, r0, #-2147483648
 2492 004c FEFFFFEB 		bl	__aeabi_f2d
 2493 0050 90259FE5 		ldr	r2, .L337+16
 2494 0054 90359FE5 		ldr	r3, .L337+20
 2495 0058 FEFFFFEB 		bl	__aeabi_ddiv
 2496 005c 8C259FE5 		ldr	r2, .L337+24
 2497 0060 8C359FE5 		ldr	r3, .L337+28
 2498 0064 FEFFFFEB 		bl	__aeabi_dcmplt
 2499 0068 88259FE5 		ldr	r2, .L337+32
 2500 006c 000050E3 		cmp	r0, #0
 2501 0070 0310A0E3 		mov	r1, #3
 2502 0074 0010C2E5 		strb	r1, [r2, #0]
 2503 0078 7C259F05 		ldreq	r2, .L337+36
 2504 007c 7C159F05 		ldreq	r1, .L337+40
 2505 0080 0020D205 		ldreqb	r2, [r2, #0]	@ zero_extendqisi2
 2506 0084 0C00A003 		moveq	r0, #12
 2507 0088 90122200 		mlaeq	r2, r0, r2, r1
 2508 008c 70259F15 		ldrne	r2, .L337+44
 2509 0090 08209205 		ldreq	r2, [r2, #8]	@ float
 2510 0094 00209215 		ldrne	r2, [r2, #0]	@ float
 2511 0098 68359FE5 		ldr	r3, .L337+48
 2512 009c 002083E5 		str	r2, [r3, #0]	@ float
 2513 00a0 64359FE5 		ldr	r3, .L337+52
 2514 00a4 004083E5 		str	r4, [r3, #0]	@ float
 2515 00a8 60359FE5 		ldr	r3, .L337+56
 2516 00ac 041093E5 		ldr	r1, [r3, #4]	@ float
 2517 00b0 000093E5 		ldr	r0, [r3, #0]	@ float
 2518 00b4 58359FE5 		ldr	r3, .L337+60
 2519 00b8 002093E5 		ldr	r2, [r3, #0]	@ float
 2520 00bc FEFFFFEB 		bl	nav_circle_XY
 2521 00c0 FEFFFFEB 		bl	stateGetPositionEnu_f
 2522 00c4 30359FE5 		ldr	r3, .L337+36
 2523 00c8 30259FE5 		ldr	r2, .L337+40
 2524 00cc 0030D3E5 		ldrb	r3, [r3, #0]	@ zero_extendqisi2
 2525 00d0 0C10A0E3 		mov	r1, #12
 2526 00d4 912323E0 		mla	r3, r1, r3, r2
 2527 00d8 0040A0E1 		mov	r4, r0
 2528 00dc 34159FE5 		ldr	r1, .L337+64
 2529 00e0 080093E5 		ldr	r0, [r3, #8]	@ float
 2530 00e4 FEFFFFEB 		bl	__aeabi_fadd
 2531 00e8 0010A0E1 		mov	r1, r0
 2532 00ec 080094E5 		ldr	r0, [r4, #8]	@ float
 2533 00f0 FEFFFFEB 		bl	__aeabi_fcmplt
 2534 00f4 000050E3 		cmp	r0, #0
 2535 00f8 0120A013 		movne	r2, #1
 2536 00fc 3201000A 		beq	.L274
 2537 0100 820000EA 		b	.L336
 2538              	.L276:
 2539 0104 D0349FE5 		ldr	r3, .L337+4
 2540 0108 0040A0E3 		mov	r4, #0
 2541 010c CC249FE5 		ldr	r2, .L337+8
 2542 0110 0040C3E5 		strb	r4, [r3, #0]
 2543 0114 0030A0E3 		mov	r3, #0
 2544 0118 003082E5 		str	r3, [r2, #0]	@ float
 2545 011c D4249FE5 		ldr	r2, .L337+32
 2546 0120 0310A0E3 		mov	r1, #3
 2547 0124 0010C2E5 		strb	r1, [r2, #0]
 2548 0128 CC249FE5 		ldr	r2, .L337+36
 2549 012c CC149FE5 		ldr	r1, .L337+40
 2550 0130 0020D2E5 		ldrb	r2, [r2, #0]	@ zero_extendqisi2
 2551 0134 0C00A0E3 		mov	r0, #12
 2552 0138 901222E0 		mla	r2, r0, r2, r1
 2553 013c 081092E5 		ldr	r1, [r2, #8]	@ float
 2554 0140 C0249FE5 		ldr	r2, .L337+48
 2555 0144 001082E5 		str	r1, [r2, #0]	@ float
 2556 0148 BC249FE5 		ldr	r2, .L337+52
 2557 014c 003082E5 		str	r3, [r2, #0]	@ float
 2558 0150 B8349FE5 		ldr	r3, .L337+56
 2559 0154 000093E5 		ldr	r0, [r3, #0]	@ float
 2560 0158 041093E5 		ldr	r1, [r3, #4]	@ float
 2561 015c B0349FE5 		ldr	r3, .L337+60
 2562 0160 002093E5 		ldr	r2, [r3, #0]	@ float
 2563 0164 FEFFFFEB 		bl	nav_circle_XY
 2564 0168 74349FE5 		ldr	r3, .L337+12
 2565 016c 000093E5 		ldr	r0, [r3, #0]
 2566 0170 0201C0E3 		bic	r0, r0, #-2147483648
 2567 0174 FEFFFFEB 		bl	__aeabi_f2d
 2568 0178 68249FE5 		ldr	r2, .L337+16
 2569 017c 68349FE5 		ldr	r3, .L337+20
 2570 0180 FEFFFFEB 		bl	__aeabi_ddiv
 2571 0184 0020A0E3 		mov	r2, #0
 2572 0188 8C349FE5 		ldr	r3, .L337+68
 2573 018c FEFFFFEB 		bl	__aeabi_dcmpgt
 2574 0190 040050E1 		cmp	r0, r4
 2575 0194 0C01000A 		beq	.L274
 2576 0198 80349FE5 		ldr	r3, .L337+72
 2577 019c 000093E5 		ldr	r0, [r3, #0]	@ float
 2578 01a0 FEFFFFEB 		bl	__aeabi_f2d
 2579 01a4 78249FE5 		ldr	r2, .L337+76
 2580 01a8 78349FE5 		ldr	r3, .L337+80
 2581 01ac FEFFFFEB 		bl	__aeabi_dmul
 2582 01b0 74349FE5 		ldr	r3, .L337+84
 2583 01b4 0060A0E1 		mov	r6, r0
 2584 01b8 000093E5 		ldr	r0, [r3, #0]	@ float
 2585 01bc 0170A0E1 		mov	r7, r1
 2586 01c0 FEFFFFEB 		bl	__aeabi_f2d
 2587 01c4 0020A0E1 		mov	r2, r0
 2588 01c8 0130A0E1 		mov	r3, r1
 2589 01cc 14049FE5 		ldr	r0, .L337+16
 2590 01d0 58149FE5 		ldr	r1, .L337+88
 2591 01d4 FEFFFFEB 		bl	__aeabi_dsub
 2592 01d8 44249FE5 		ldr	r2, .L337+76
 2593 01dc 44349FE5 		ldr	r3, .L337+80
 2594 01e0 FEFFFFEB 		bl	__aeabi_dmul
 2595 01e4 FEFFFFEB 		bl	__aeabi_d2f
 2596 01e8 020000EA 		b	.L334
 2597              	.L288:
 2598 01ec 0500A0E1 		mov	r0, r5
 2599 01f0 3C149FE5 		ldr	r1, .L337+92
 2600 01f4 FEFFFFEB 		bl	__aeabi_fadd
 2601              	.L334:
 2602 01f8 0010A0E3 		mov	r1, #0
 2603 01fc 0050A0E1 		mov	r5, r0
 2604 0200 FEFFFFEB 		bl	__aeabi_fcmplt
 2605 0204 000050E3 		cmp	r0, #0
 2606 0208 FF8004E2 		and	r8, r4, #255
 2607 020c 0700000A 		beq	.L329
 2608 0210 014084E2 		add	r4, r4, #1
 2609 0214 010C54E3 		cmp	r4, #256
 2610 0218 F3FFFF1A 		bne	.L288
 2611 021c 0080A0E3 		mov	r8, #0
 2612 0220 020000EA 		b	.L329
 2613              	.L292:
 2614 0224 08149FE5 		ldr	r1, .L337+92
 2615 0228 FEFFFFEB 		bl	__aeabi_fsub
 2616 022c 0050A0E1 		mov	r5, r0
 2617              	.L329:
 2618 0230 0500A0E1 		mov	r0, r5
 2619 0234 F8139FE5 		ldr	r1, .L337+92
 2620 0238 FEFFFFEB 		bl	__aeabi_fcmpge
 2621 023c 000050E3 		cmp	r0, #0
 2622 0240 0500A0E1 		mov	r0, r5
 2623 0244 0200000A 		beq	.L290
 2624 0248 018088E2 		add	r8, r8, #1
 2625 024c FF8018E2 		ands	r8, r8, #255
 2626 0250 F3FFFF1A 		bne	.L292
 2627              	.L290:
 2628 0254 FEFFFFEB 		bl	__aeabi_f2d
 2629 0258 0020A0E1 		mov	r2, r0
 2630 025c 0130A0E1 		mov	r3, r1
 2631 0260 0600A0E1 		mov	r0, r6
 2632 0264 0710A0E1 		mov	r1, r7
 2633 0268 FEFFFFEB 		bl	__aeabi_dsub
 2634 026c FEFFFFEB 		bl	__aeabi_d2f
 2635 0270 0050A0E3 		mov	r5, #0
 2636 0274 0040A0E1 		mov	r4, r0
 2637 0278 030000EA 		b	.L293
 2638              	.L296:
 2639 027c 0400A0E1 		mov	r0, r4
 2640 0280 AC139FE5 		ldr	r1, .L337+92
 2641 0284 FEFFFFEB 		bl	__aeabi_fadd
 2642 0288 0040A0E1 		mov	r4, r0
 2643              	.L293:
 2644 028c 0400A0E1 		mov	r0, r4
 2645 0290 0010A0E3 		mov	r1, #0
 2646 0294 FEFFFFEB 		bl	__aeabi_fcmplt
 2647 0298 000050E3 		cmp	r0, #0
 2648 029c FF6005E2 		and	r6, r5, #255
 2649 02a0 0700000A 		beq	.L330
 2650 02a4 015085E2 		add	r5, r5, #1
 2651 02a8 010C55E3 		cmp	r5, #256
 2652 02ac F2FFFF1A 		bne	.L296
 2653 02b0 0060A0E3 		mov	r6, #0
 2654 02b4 020000EA 		b	.L330
 2655              	.L300:
 2656 02b8 74139FE5 		ldr	r1, .L337+92
 2657 02bc FEFFFFEB 		bl	__aeabi_fsub
 2658 02c0 0040A0E1 		mov	r4, r0
 2659              	.L330:
 2660 02c4 0400A0E1 		mov	r0, r4
 2661 02c8 64139FE5 		ldr	r1, .L337+92
 2662 02cc FEFFFFEB 		bl	__aeabi_fcmpge
 2663 02d0 000050E3 		cmp	r0, #0
 2664 02d4 0400A0E1 		mov	r0, r4
 2665 02d8 0200000A 		beq	.L298
 2666 02dc 016086E2 		add	r6, r6, #1
 2667 02e0 FF6016E2 		ands	r6, r6, #255
 2668 02e4 F3FFFF1A 		bne	.L300
 2669              	.L298:
 2670 02e8 48139FE5 		ldr	r1, .L337+96
 2671 02ec FEFFFFEB 		bl	__aeabi_fcmpgt
 2672 02f0 000050E3 		cmp	r0, #0
 2673 02f4 0400001A 		bne	.L301
 2674 02f8 0400A0E1 		mov	r0, r4
 2675 02fc 38139FE5 		ldr	r1, .L337+100
 2676 0300 FEFFFFEB 		bl	__aeabi_fcmplt
 2677 0304 000050E3 		cmp	r0, #0
 2678 0308 AF00000A 		beq	.L274
 2679              	.L301:
 2680 030c 0320A0E3 		mov	r2, #3
 2681              	.L336:
 2682 0310 C0329FE5 		ldr	r3, .L337
 2683 0314 0020C3E5 		strb	r2, [r3, #0]
 2684 0318 FEFFFFEB 		bl	nav_init_stage
 2685 031c AA0000EA 		b	.L274
 2686              	.L278:
 2687 0320 18339FE5 		ldr	r3, .L337+104
 2688 0324 0120A0E3 		mov	r2, #1
 2689 0328 0020C3E5 		strb	r2, [r3, #0]
 2690 032c A8329FE5 		ldr	r3, .L337+4
 2691 0330 0040A0E3 		mov	r4, #0
 2692 0334 A4229FE5 		ldr	r2, .L337+8
 2693 0338 0040C3E5 		strb	r4, [r3, #0]
 2694 033c 0030A0E3 		mov	r3, #0
 2695 0340 003082E5 		str	r3, [r2, #0]	@ float
 2696 0344 AC229FE5 		ldr	r2, .L337+32
 2697 0348 0310A0E3 		mov	r1, #3
 2698 034c 0010C2E5 		strb	r1, [r2, #0]
 2699 0350 A4229FE5 		ldr	r2, .L337+36
 2700 0354 A4129FE5 		ldr	r1, .L337+40
 2701 0358 0020D2E5 		ldrb	r2, [r2, #0]	@ zero_extendqisi2
 2702 035c 0C00A0E3 		mov	r0, #12
 2703 0360 901222E0 		mla	r2, r0, r2, r1
 2704 0364 081092E5 		ldr	r1, [r2, #8]	@ float
 2705 0368 98229FE5 		ldr	r2, .L337+48
 2706 036c 001082E5 		str	r1, [r2, #0]	@ float
 2707 0370 94229FE5 		ldr	r2, .L337+52
 2708 0374 003082E5 		str	r3, [r2, #0]	@ float
 2709 0378 90329FE5 		ldr	r3, .L337+56
 2710 037c 000093E5 		ldr	r0, [r3, #0]	@ float
 2711 0380 041093E5 		ldr	r1, [r3, #4]	@ float
 2712 0384 88329FE5 		ldr	r3, .L337+60
 2713 0388 002093E5 		ldr	r2, [r3, #0]	@ float
 2714 038c FEFFFFEB 		bl	nav_circle_XY
 2715 0390 AC329FE5 		ldr	r3, .L337+108
 2716 0394 000093E5 		ldr	r0, [r3, #0]	@ float
 2717 0398 FEFFFFEB 		bl	__aeabi_f2d
 2718 039c 80229FE5 		ldr	r2, .L337+76
 2719 03a0 80329FE5 		ldr	r3, .L337+80
 2720 03a4 FEFFFFEB 		bl	__aeabi_dmul
 2721 03a8 7C329FE5 		ldr	r3, .L337+84
 2722 03ac 0060A0E1 		mov	r6, r0
 2723 03b0 000093E5 		ldr	r0, [r3, #0]	@ float
 2724 03b4 0170A0E1 		mov	r7, r1
 2725 03b8 FEFFFFEB 		bl	__aeabi_f2d
 2726 03bc 0020A0E1 		mov	r2, r0
 2727 03c0 0130A0E1 		mov	r3, r1
 2728 03c4 1C029FE5 		ldr	r0, .L337+16
 2729 03c8 60129FE5 		ldr	r1, .L337+88
 2730 03cc FEFFFFEB 		bl	__aeabi_dsub
 2731 03d0 4C229FE5 		ldr	r2, .L337+76
 2732 03d4 4C329FE5 		ldr	r3, .L337+80
 2733 03d8 FEFFFFEB 		bl	__aeabi_dmul
 2734 03dc FEFFFFEB 		bl	__aeabi_d2f
 2735 03e0 020000EA 		b	.L335
 2736              	.L306:
 2737 03e4 0500A0E1 		mov	r0, r5
 2738 03e8 44129FE5 		ldr	r1, .L337+92
 2739 03ec FEFFFFEB 		bl	__aeabi_fadd
 2740              	.L335:
 2741 03f0 0010A0E3 		mov	r1, #0
 2742 03f4 0050A0E1 		mov	r5, r0
 2743 03f8 FEFFFFEB 		bl	__aeabi_fcmplt
 2744 03fc 000050E3 		cmp	r0, #0
 2745 0400 FF8004E2 		and	r8, r4, #255
 2746 0404 0700000A 		beq	.L331
 2747 0408 014084E2 		add	r4, r4, #1
 2748 040c 010C54E3 		cmp	r4, #256
 2749 0410 F3FFFF1A 		bne	.L306
 2750 0414 0080A0E3 		mov	r8, #0
 2751 0418 020000EA 		b	.L331
 2752              	.L310:
 2753 041c 10129FE5 		ldr	r1, .L337+92
 2754 0420 FEFFFFEB 		bl	__aeabi_fsub
 2755 0424 0050A0E1 		mov	r5, r0
 2756              	.L331:
 2757 0428 0500A0E1 		mov	r0, r5
 2758 042c 00129FE5 		ldr	r1, .L337+92
 2759 0430 FEFFFFEB 		bl	__aeabi_fcmpge
 2760 0434 000050E3 		cmp	r0, #0
 2761 0438 0500A0E1 		mov	r0, r5
 2762 043c 0200000A 		beq	.L308
 2763 0440 018088E2 		add	r8, r8, #1
 2764 0444 FF8018E2 		ands	r8, r8, #255
 2765 0448 F3FFFF1A 		bne	.L310
 2766              	.L308:
 2767 044c FEFFFFEB 		bl	__aeabi_f2d
 2768 0450 0020A0E1 		mov	r2, r0
 2769 0454 0130A0E1 		mov	r3, r1
 2770 0458 0600A0E1 		mov	r0, r6
 2771 045c 0710A0E1 		mov	r1, r7
 2772 0460 FEFFFFEB 		bl	__aeabi_dsub
 2773 0464 FEFFFFEB 		bl	__aeabi_d2f
 2774 0468 0050A0E3 		mov	r5, #0
 2775 046c 0040A0E1 		mov	r4, r0
 2776 0470 030000EA 		b	.L311
 2777              	.L314:
 2778 0474 0400A0E1 		mov	r0, r4
 2779 0478 B4119FE5 		ldr	r1, .L337+92
 2780 047c FEFFFFEB 		bl	__aeabi_fadd
 2781 0480 0040A0E1 		mov	r4, r0
 2782              	.L311:
 2783 0484 0400A0E1 		mov	r0, r4
 2784 0488 0010A0E3 		mov	r1, #0
 2785 048c FEFFFFEB 		bl	__aeabi_fcmplt
 2786 0490 000050E3 		cmp	r0, #0
 2787 0494 FF6005E2 		and	r6, r5, #255
 2788 0498 0700000A 		beq	.L332
 2789 049c 015085E2 		add	r5, r5, #1
 2790 04a0 010C55E3 		cmp	r5, #256
 2791 04a4 F2FFFF1A 		bne	.L314
 2792 04a8 0060A0E3 		mov	r6, #0
 2793 04ac 020000EA 		b	.L332
 2794              	.L318:
 2795 04b0 7C119FE5 		ldr	r1, .L337+92
 2796 04b4 FEFFFFEB 		bl	__aeabi_fsub
 2797 04b8 0040A0E1 		mov	r4, r0
 2798              	.L332:
 2799 04bc 0400A0E1 		mov	r0, r4
 2800 04c0 6C119FE5 		ldr	r1, .L337+92
 2801 04c4 FEFFFFEB 		bl	__aeabi_fcmpge
 2802 04c8 000050E3 		cmp	r0, #0
 2803 04cc 0400A0E1 		mov	r0, r4
 2804 04d0 0200000A 		beq	.L316
 2805 04d4 016086E2 		add	r6, r6, #1
 2806 04d8 FF6016E2 		ands	r6, r6, #255
 2807 04dc F3FFFF1A 		bne	.L318
 2808              	.L316:
 2809 04e0 50119FE5 		ldr	r1, .L337+96
 2810 04e4 FEFFFFEB 		bl	__aeabi_fcmpgt
 2811 04e8 000050E3 		cmp	r0, #0
 2812 04ec 0400001A 		bne	.L319
 2813 04f0 0400A0E1 		mov	r0, r4
 2814 04f4 40119FE5 		ldr	r1, .L337+100
 2815 04f8 FEFFFFEB 		bl	__aeabi_fcmplt
 2816 04fc 000050E3 		cmp	r0, #0
 2817 0500 3100000A 		beq	.L274
 2818              	.L319:
 2819 0504 0220A0E3 		mov	r2, #2
 2820 0508 80FFFFEA 		b	.L336
 2821              	.L277:
 2822 050c 2C319FE5 		ldr	r3, .L337+104
 2823 0510 0120A0E3 		mov	r2, #1
 2824 0514 0020C3E5 		strb	r2, [r3, #0]
 2825 0518 BC309FE5 		ldr	r3, .L337+4
 2826 051c 0020A0E3 		mov	r2, #0
 2827 0520 0020C3E5 		strb	r2, [r3, #0]
 2828 0524 B4309FE5 		ldr	r3, .L337+8
 2829 0528 00A0A0E3 		mov	sl, #0
 2830 052c 00A083E5 		str	sl, [r3, #0]	@ float
 2831 0530 C0309FE5 		ldr	r3, .L337+32
 2832 0534 0320A0E3 		mov	r2, #3
 2833 0538 0020C3E5 		strb	r2, [r3, #0]
 2834 053c 04319FE5 		ldr	r3, .L337+112
 2835 0540 0070D3E5 		ldrb	r7, [r3, #0]	@ zero_extendqisi2
 2836 0544 0C80A0E3 		mov	r8, #12
 2837 0548 980707E0 		mul	r7, r8, r7
 2838 054c AC609FE5 		ldr	r6, .L337+40
 2839 0550 F4409FE5 		ldr	r4, .L337+116
 2840 0554 075086E0 		add	r5, r6, r7
 2841 0558 080095E5 		ldr	r0, [r5, #8]	@ float
 2842 055c 001094E5 		ldr	r1, [r4, #0]	@ float
 2843 0560 FEFFFFEB 		bl	__aeabi_fadd
 2844 0564 9C309FE5 		ldr	r3, .L337+48
 2845 0568 000083E5 		str	r0, [r3, #0]	@ float
 2846 056c 98309FE5 		ldr	r3, .L337+52
 2847 0570 00A083E5 		str	sl, [r3, #0]	@ float
 2848 0574 80309FE5 		ldr	r3, .L337+36
 2849 0578 0030D3E5 		ldrb	r3, [r3, #0]	@ zero_extendqisi2
 2850 057c 930808E0 		mul	r8, r3, r8
 2851 0580 083086E0 		add	r3, r6, r8
 2852 0584 072096E7 		ldr	r2, [r6, r7]	@ float
 2853 0588 080096E7 		ldr	r0, [r6, r8]	@ float
 2854 058c 041093E5 		ldr	r1, [r3, #4]	@ float
 2855 0590 B8609FE5 		ldr	r6, .L337+120
 2856 0594 043095E5 		ldr	r3, [r5, #4]	@ float
 2857 0598 FEFFFFEB 		bl	nav_route_xy
 2858 059c B0309FE5 		ldr	r3, .L337+124
 2859 05a0 0050D6E5 		ldrb	r5, [r6, #0]	@ zero_extendqisi2
 2860 05a4 B020D3E1 		ldrh	r2, [r3, #0]
 2861 05a8 053185E0 		add	r3, r5, r5, asl #2
 2862 05ac 030052E1 		cmp	r2, r3
 2863 05b0 050000BA 		blt	.L274
 2864 05b4 000094E5 		ldr	r0, [r4, #0]	@ float
 2865 05b8 3F14A0E3 		mov	r1, #1056964608
 2866 05bc FEFFFFEB 		bl	__aeabi_fmul
 2867 05c0 015085E2 		add	r5, r5, #1
 2868 05c4 000084E5 		str	r0, [r4, #0]	@ float
 2869 05c8 0050C6E5 		strb	r5, [r6, #0]
 2870              	.L274:
 2871 05cc 0100A0E3 		mov	r0, #1
 2872 05d0 F845BDE8 		ldmfd	sp!, {r3, r4, r5, r6, r7, r8, sl, lr}
 2873 05d4 1EFF2FE1 		bx	lr
 2874              	.L338:
 2875              		.align	2
 2876              	.L337:
 2877 05d8 00000000 		.word	.LANCHOR29
 2878 05dc 00000000 		.word	v_ctl_climb_mode
 2879 05e0 00000000 		.word	nav_pitch
 2880 05e4 00000000 		.word	nav_circle_radians
 2881 05e8 182D4454 		.word	1413754136
 2882 05ec FB211940 		.word	1075388923
 2883 05f0 9A999999 		.word	-1717986918
 2884 05f4 9999B93F 		.word	1069128089
 2885 05f8 00000000 		.word	v_ctl_mode
 2886 05fc 00000000 		.word	.LANCHOR27
 2887 0600 00000000 		.word	waypoints
 2888 0604 00000000 		.word	.LANCHOR31
 2889 0608 00000000 		.word	nav_altitude
 2890 060c 00000000 		.word	v_ctl_altitude_pre_climb
 2891 0610 00000000 		.word	.LANCHOR34
 2892 0614 00000000 		.word	.LANCHOR30
 2893 0618 0000A040 		.word	1084227584
 2894 061c 0000E03F 		.word	1071644672
 2895 0620 00000000 		.word	.LANCHOR36
 2896 0624 F8C1631A 		.word	442745336
 2897 0628 DCA54C40 		.word	1078765020
 2898 062c 00000000 		.word	nav_circle_trigo_qdr
 2899 0630 FB21F93F 		.word	1073291771
 2900 0634 0000B443 		.word	1135869952
 2901 0638 0000AF43 		.word	1135542272
 2902 063c 00002041 		.word	1092616192
 2903 0640 00000000 		.word	kill_throttle
 2904 0644 00000000 		.word	.LANCHOR35
 2905 0648 00000000 		.word	.LANCHOR28
 2906 064c 00000000 		.word	.LANCHOR32
 2907 0650 00000000 		.word	.LANCHOR33
 2908 0654 00000000 		.word	stage_time
 2910              		.section	.text.TranslateAndRotateFromWorld,"ax",%progbits
 2911              		.align	2
 2912              		.global	TranslateAndRotateFromWorld
 2914              	TranslateAndRotateFromWorld:
 2915              		@ Function supports interworking.
 2916              		@ args = 0, pretend = 0, frame = 16
 2917              		@ frame_needed = 0, uses_anonymous_args = 0
 2918 0000 F04F2DE9 		stmfd	sp!, {r4, r5, r6, r7, r8, r9, sl, fp, lr}
 2919 0004 0040A0E1 		mov	r4, r0
 2920 0008 14D04DE2 		sub	sp, sp, #20
 2921 000c 0170A0E1 		mov	r7, r1
 2922 0010 000090E5 		ldr	r0, [r0, #0]	@ float
 2923 0014 0210A0E1 		mov	r1, r2
 2924 0018 0350A0E1 		mov	r5, r3
 2925 001c FEFFFFEB 		bl	__aeabi_fsub
 2926 0020 0060A0E1 		mov	r6, r0
 2927 0024 0700A0E1 		mov	r0, r7
 2928 0028 FEFFFFEB 		bl	__aeabi_f2d
 2929 002c 0080A0E1 		mov	r8, r0
 2930 0030 0190A0E1 		mov	r9, r1
 2931 0034 FEFFFFEB 		bl	cos
 2932 0038 03008DE8 		stmia	sp, {r0-r1}
 2933 003c 040094E5 		ldr	r0, [r4, #4]	@ float
 2934 0040 0510A0E1 		mov	r1, r5
 2935 0044 FEFFFFEB 		bl	__aeabi_fsub
 2936 0048 FEFFFFEB 		bl	__aeabi_f2d
 2937 004c 00A0A0E1 		mov	sl, r0
 2938 0050 01B0A0E1 		mov	fp, r1
 2939 0054 0800A0E1 		mov	r0, r8
 2940 0058 0910A0E1 		mov	r1, r9
 2941 005c FEFFFFEB 		bl	sin
 2942 0060 0080A0E1 		mov	r8, r0
 2943 0064 0600A0E1 		mov	r0, r6
 2944 0068 0190A0E1 		mov	r9, r1
 2945 006c FEFFFFEB 		bl	__aeabi_f2d
 2946 0070 0C009DE8 		ldmia	sp, {r2-r3}
 2947 0074 FEFFFFEB 		bl	__aeabi_dmul
 2948 0078 0820A0E1 		mov	r2, r8
 2949 007c 08008DE5 		str	r0, [sp, #8]
 2950 0080 0C108DE5 		str	r1, [sp, #12]
 2951 0084 0930A0E1 		mov	r3, r9
 2952 0088 0A00A0E1 		mov	r0, sl
 2953 008c 0B10A0E1 		mov	r1, fp
 2954 0090 FEFFFFEB 		bl	__aeabi_dmul
 2955 0094 0020A0E1 		mov	r2, r0
 2956 0098 0130A0E1 		mov	r3, r1
 2957 009c 08108DE2 		add	r1, sp, #8
 2958 00a0 030091E8 		ldmia	r1, {r0-r1}
 2959 00a4 FEFFFFEB 		bl	__aeabi_dadd
 2960 00a8 FEFFFFEB 		bl	__aeabi_d2f
 2961 00ac 000084E5 		str	r0, [r4, #0]	@ float
 2962 00b0 020186E2 		add	r0, r6, #-2147483648
 2963 00b4 FEFFFFEB 		bl	__aeabi_f2d
 2964 00b8 0820A0E1 		mov	r2, r8
 2965 00bc 0930A0E1 		mov	r3, r9
 2966 00c0 FEFFFFEB 		bl	__aeabi_dmul
 2967 00c4 0C009DE8 		ldmia	sp, {r2-r3}
 2968 00c8 0060A0E1 		mov	r6, r0
 2969 00cc 0170A0E1 		mov	r7, r1
 2970 00d0 0A00A0E1 		mov	r0, sl
 2971 00d4 0B10A0E1 		mov	r1, fp
 2972 00d8 FEFFFFEB 		bl	__aeabi_dmul
 2973 00dc 0020A0E1 		mov	r2, r0
 2974 00e0 0130A0E1 		mov	r3, r1
 2975 00e4 0600A0E1 		mov	r0, r6
 2976 00e8 0710A0E1 		mov	r1, r7
 2977 00ec FEFFFFEB 		bl	__aeabi_dadd
 2978 00f0 FEFFFFEB 		bl	__aeabi_d2f
 2979 00f4 040084E5 		str	r0, [r4, #4]	@ float
 2980 00f8 14D08DE2 		add	sp, sp, #20
 2981 00fc F04FBDE8 		ldmfd	sp!, {r4, r5, r6, r7, r8, r9, sl, fp, lr}
 2982 0100 1EFF2FE1 		bx	lr
 2984              		.section	.text.FlightLine,"ax",%progbits
 2985              		.align	2
 2986              		.global	FlightLine
 2988              	FlightLine:
 2989              		@ Function supports interworking.
 2990              		@ args = 4, pretend = 0, frame = 32
 2991              		@ frame_needed = 0, uses_anonymous_args = 0
 2992 0000 F04F2DE9 		stmfd	sp!, {r4, r5, r6, r7, r8, r9, sl, fp, lr}
 2993 0004 0290A0E1 		mov	r9, r2
 2994 0008 50259FE5 		ldr	r2, .L387
 2995 000c 03B0A0E1 		mov	fp, r3
 2996 0010 0030D2E5 		ldrb	r3, [r2, #0]	@ zero_extendqisi2
 2997 0014 2CD04DE2 		sub	sp, sp, #44
 2998 0018 0080A0E1 		mov	r8, r0
 2999 001c 030053E3 		cmp	r3, #3
 3000 0020 03F19F97 		ldrls	pc, [pc, r3, asl #2]
 3001 0024 490100EA 		b	.L372
 3002              	.L346:
 3003 0028 38000000 		.word	.L342
 3004 002c 9C020000 		.word	.L343
 3005 0030 AC040000 		.word	.L344
 3006 0034 3C050000 		.word	.L345
 3007              	.L342:
 3008 0038 0C70A0E3 		mov	r7, #12
 3009 003c 970101E0 		mul	r1, r7, r1
 3010 0040 900707E0 		mul	r7, r0, r7
 3011 0044 18459FE5 		ldr	r4, .L387+4
 3012 0048 016084E0 		add	r6, r4, r1
 3013 004c 010094E7 		ldr	r0, [r4, r1]	@ float
 3014 0050 071094E7 		ldr	r1, [r4, r7]	@ float
 3015 0054 FEFFFFEB 		bl	__aeabi_fsub
 3016 0058 07A084E0 		add	sl, r4, r7
 3017 005c 0050A0E1 		mov	r5, r0
 3018 0060 04109AE5 		ldr	r1, [sl, #4]	@ float
 3019 0064 040096E5 		ldr	r0, [r6, #4]	@ float
 3020 0068 FEFFFFEB 		bl	__aeabi_fsub
 3021 006c 0060A0E1 		mov	r6, r0
 3022 0070 FEFFFFEB 		bl	stateGetPositionEnu_f
 3023 0074 003090E5 		ldr	r3, [r0, #0]	@ float
 3024 0078 20308DE5 		str	r3, [sp, #32]	@ float
 3025 007c FEFFFFEB 		bl	stateGetPositionEnu_f
 3026 0080 043090E5 		ldr	r3, [r0, #4]	@ float
 3027 0084 0600A0E1 		mov	r0, r6
 3028 0088 24308DE5 		str	r3, [sp, #36]	@ float
 3029 008c FEFFFFEB 		bl	__aeabi_f2d
 3030 0090 08008DE5 		str	r0, [sp, #8]
 3031 0094 0C108DE5 		str	r1, [sp, #12]
 3032 0098 0500A0E1 		mov	r0, r5
 3033 009c FEFFFFEB 		bl	__aeabi_f2d
 3034 00a0 0020A0E1 		mov	r2, r0
 3035 00a4 0130A0E1 		mov	r3, r1
 3036 00a8 08108DE2 		add	r1, sp, #8
 3037 00ac 030091E8 		ldmia	r1, {r0-r1}
 3038 00b0 FEFFFFEB 		bl	atan2
 3039 00b4 FEFFFFEB 		bl	__aeabi_d2f
 3040 00b8 072094E7 		ldr	r2, [r4, r7]	@ float
 3041 00bc 04309AE5 		ldr	r3, [sl, #4]	@ float
 3042 00c0 0010A0E1 		mov	r1, r0
 3043 00c4 20008DE2 		add	r0, sp, #32
 3044 00c8 FEFFFFEB 		bl	TranslateAndRotateFromWorld
 3045 00cc 24009DE5 		ldr	r0, [sp, #36]	@ float
 3046 00d0 0010A0E3 		mov	r1, #0
 3047 00d4 FEFFFFEB 		bl	__aeabi_fcmpgt
 3048 00d8 88349FE5 		ldr	r3, .L387+8
 3049 00dc 000050E3 		cmp	r0, #0
 3050 00e0 02918912 		addne	r9, r9, #-2147483648
 3051 00e4 009083E5 		str	r9, [r3, #0]	@ float
 3052 00e8 0510A0E1 		mov	r1, r5
 3053 00ec 0500A0E1 		mov	r0, r5
 3054 00f0 FEFFFFEB 		bl	__aeabi_fmul
 3055 00f4 0610A0E1 		mov	r1, r6
 3056 00f8 0040A0E1 		mov	r4, r0
 3057 00fc 0600A0E1 		mov	r0, r6
 3058 0100 FEFFFFEB 		bl	__aeabi_fmul
 3059 0104 0010A0E1 		mov	r1, r0
 3060 0108 0400A0E1 		mov	r0, r4
 3061 010c FEFFFFEB 		bl	__aeabi_fadd
 3062 0110 FEFFFFEB 		bl	__aeabi_f2d
 3063 0114 FEFFFFEB 		bl	sqrt
 3064 0118 FEFFFFEB 		bl	__aeabi_d2f
 3065 011c 00A0A0E1 		mov	sl, r0
 3066 0120 0A10A0E1 		mov	r1, sl
 3067 0124 0500A0E1 		mov	r0, r5
 3068 0128 FEFFFFEB 		bl	__aeabi_fdiv
 3069 012c 0A10A0E1 		mov	r1, sl
 3070 0130 0070A0E1 		mov	r7, r0
 3071 0134 0600A0E1 		mov	r0, r6
 3072 0138 FEFFFFEB 		bl	__aeabi_fdiv
 3073 013c 0B10A0E1 		mov	r1, fp
 3074 0140 0060A0E1 		mov	r6, r0
 3075 0144 020187E2 		add	r0, r7, #-2147483648
 3076 0148 FEFFFFEB 		bl	__aeabi_fmul
 3077 014c 0B10A0E1 		mov	r1, fp
 3078 0150 0040A0E1 		mov	r4, r0
 3079 0154 020186E2 		add	r0, r6, #-2147483648
 3080 0158 FEFFFFEB 		bl	__aeabi_fmul
 3081 015c 50109DE5 		ldr	r1, [sp, #80]	@ float
 3082 0160 0050A0E1 		mov	r5, r0
 3083 0164 0A00A0E1 		mov	r0, sl
 3084 0168 FEFFFFEB 		bl	__aeabi_fadd
 3085 016c F4339FE5 		ldr	r3, .L387+8
 3086 0170 009093E5 		ldr	r9, [r3, #0]	@ float
 3087 0174 00A0A0E1 		mov	sl, r0
 3088 0178 0910A0E1 		mov	r1, r9
 3089 017c 0600A0E1 		mov	r0, r6
 3090 0180 FEFFFFEB 		bl	__aeabi_fmul
 3091 0184 0010A0E1 		mov	r1, r0
 3092 0188 0400A0E1 		mov	r0, r4
 3093 018c FEFFFFEB 		bl	__aeabi_fadd
 3094 0190 0910A0E1 		mov	r1, r9
 3095 0194 08008DE5 		str	r0, [sp, #8]	@ float
 3096 0198 0700A0E1 		mov	r0, r7
 3097 019c FEFFFFEB 		bl	__aeabi_fmul
 3098 01a0 0010A0E1 		mov	r1, r0
 3099 01a4 0500A0E1 		mov	r0, r5
 3100 01a8 FEFFFFEB 		bl	__aeabi_fsub
 3101 01ac 08109DE5 		ldr	r1, [sp, #8]	@ float
 3102 01b0 14008DE5 		str	r0, [sp, #20]	@ float
 3103 01b4 0400A0E1 		mov	r0, r4
 3104 01b8 FEFFFFEB 		bl	__aeabi_fsub
 3105 01bc FEFFFFEB 		bl	__aeabi_f2d
 3106 01c0 18008DE5 		str	r0, [sp, #24]
 3107 01c4 1C108DE5 		str	r1, [sp, #28]
 3108 01c8 14109DE5 		ldr	r1, [sp, #20]	@ float
 3109 01cc 0500A0E1 		mov	r0, r5
 3110 01d0 FEFFFFEB 		bl	__aeabi_fsub
 3111 01d4 FEFFFFEB 		bl	__aeabi_f2d
 3112 01d8 0020A0E1 		mov	r2, r0
 3113 01dc 0130A0E1 		mov	r3, r1
 3114 01e0 18108DE2 		add	r1, sp, #24
 3115 01e4 030091E8 		ldmia	r1, {r0-r1}
 3116 01e8 FEFFFFEB 		bl	atan2
 3117 01ec FEFFFFEB 		bl	__aeabi_d2f
 3118 01f0 0C20A0E3 		mov	r2, #12
 3119 01f4 920808E0 		mul	r8, r2, r8
 3120 01f8 6C339FE5 		ldr	r3, .L387+12
 3121 01fc 000083E5 		str	r0, [r3, #0]	@ float
 3122 0200 5C339FE5 		ldr	r3, .L387+4
 3123 0204 08B083E0 		add	fp, r3, r8
 3124 0208 088093E7 		ldr	r8, [r3, r8]	@ float
 3125 020c 0400A0E1 		mov	r0, r4
 3126 0210 0810A0E1 		mov	r1, r8
 3127 0214 FEFFFFEB 		bl	__aeabi_fadd
 3128 0218 50939FE5 		ldr	r9, .L387+16
 3129 021c 000089E5 		str	r0, [r9, #0]	@ float
 3130 0220 04409BE5 		ldr	r4, [fp, #4]	@ float
 3131 0224 0500A0E1 		mov	r0, r5
 3132 0228 0410A0E1 		mov	r1, r4
 3133 022c FEFFFFEB 		bl	__aeabi_fadd
 3134 0230 0A10A0E1 		mov	r1, sl
 3135 0234 040089E5 		str	r0, [r9, #4]	@ float
 3136 0238 0700A0E1 		mov	r0, r7
 3137 023c FEFFFFEB 		bl	__aeabi_fmul
 3138 0240 0810A0E1 		mov	r1, r8
 3139 0244 FEFFFFEB 		bl	__aeabi_fadd
 3140 0248 24539FE5 		ldr	r5, .L387+20
 3141 024c 0A10A0E1 		mov	r1, sl
 3142 0250 000085E5 		str	r0, [r5, #0]	@ float
 3143 0254 0600A0E1 		mov	r0, r6
 3144 0258 FEFFFFEB 		bl	__aeabi_fmul
 3145 025c 0410A0E1 		mov	r1, r4
 3146 0260 FEFFFFEB 		bl	__aeabi_fadd
 3147 0264 0810A0E1 		mov	r1, r8
 3148 0268 040085E5 		str	r0, [r5, #4]	@ float
 3149 026c 08009DE5 		ldr	r0, [sp, #8]	@ float
 3150 0270 FEFFFFEB 		bl	__aeabi_fadd
 3151 0274 FC529FE5 		ldr	r5, .L387+24
 3152 0278 0410A0E1 		mov	r1, r4
 3153 027c 000085E5 		str	r0, [r5, #0]	@ float
 3154 0280 14009DE5 		ldr	r0, [sp, #20]	@ float
 3155 0284 FEFFFFEB 		bl	__aeabi_fadd
 3156 0288 D0329FE5 		ldr	r3, .L387
 3157 028c 0140A0E3 		mov	r4, #1
 3158 0290 040085E5 		str	r0, [r5, #4]	@ float
 3159 0294 0040C3E5 		strb	r4, [r3, #0]
 3160 0298 A90000EA 		b	.L385
 3161              	.L343:
 3162 029c D8329FE5 		ldr	r3, .L387+28
 3163 02a0 0040A0E3 		mov	r4, #0
 3164 02a4 D4229FE5 		ldr	r2, .L387+32
 3165 02a8 0040C3E5 		strb	r4, [r3, #0]
 3166 02ac 0030A0E3 		mov	r3, #0
 3167 02b0 003082E5 		str	r3, [r2, #0]	@ float
 3168 02b4 C8229FE5 		ldr	r2, .L387+36
 3169 02b8 0310A0E3 		mov	r1, #3
 3170 02bc 0010C2E5 		strb	r1, [r2, #0]
 3171 02c0 9C229FE5 		ldr	r2, .L387+4
 3172 02c4 0C10A0E3 		mov	r1, #12
 3173 02c8 912828E0 		mla	r8, r1, r8, r2
 3174 02cc B4229FE5 		ldr	r2, .L387+40
 3175 02d0 081098E5 		ldr	r1, [r8, #8]	@ float
 3176 02d4 001082E5 		str	r1, [r2, #0]	@ float
 3177 02d8 AC229FE5 		ldr	r2, .L387+44
 3178 02dc 003082E5 		str	r3, [r2, #0]	@ float
 3179 02e0 90329FE5 		ldr	r3, .L387+24
 3180 02e4 000093E5 		ldr	r0, [r3, #0]	@ float
 3181 02e8 041093E5 		ldr	r1, [r3, #4]	@ float
 3182 02ec 74329FE5 		ldr	r3, .L387+8
 3183 02f0 002093E5 		ldr	r2, [r3, #0]	@ float
 3184 02f4 FEFFFFEB 		bl	nav_circle_XY
 3185 02f8 90329FE5 		ldr	r3, .L387+48
 3186 02fc 000093E5 		ldr	r0, [r3, #0]
 3187 0300 0201C0E3 		bic	r0, r0, #-2147483648
 3188 0304 FEFFFFEB 		bl	__aeabi_f2d
 3189 0308 84229FE5 		ldr	r2, .L387+52
 3190 030c 84329FE5 		ldr	r3, .L387+56
 3191 0310 FEFFFFEB 		bl	__aeabi_ddiv
 3192 0314 80229FE5 		ldr	r2, .L387+60
 3193 0318 80329FE5 		ldr	r3, .L387+64
 3194 031c FEFFFFEB 		bl	__aeabi_dcmpgt
 3195 0320 040050E1 		cmp	r0, r4
 3196 0324 8900000A 		beq	.L372
 3197 0328 3C329FE5 		ldr	r3, .L387+12
 3198 032c 000093E5 		ldr	r0, [r3, #0]	@ float
 3199 0330 FEFFFFEB 		bl	__aeabi_f2d
 3200 0334 68229FE5 		ldr	r2, .L387+68
 3201 0338 68329FE5 		ldr	r3, .L387+72
 3202 033c FEFFFFEB 		bl	__aeabi_dmul
 3203 0340 64329FE5 		ldr	r3, .L387+76
 3204 0344 0060A0E1 		mov	r6, r0
 3205 0348 000093E5 		ldr	r0, [r3, #0]	@ float
 3206 034c 0170A0E1 		mov	r7, r1
 3207 0350 FEFFFFEB 		bl	__aeabi_f2d
 3208 0354 0020A0E1 		mov	r2, r0
 3209 0358 0130A0E1 		mov	r3, r1
 3210 035c 30029FE5 		ldr	r0, .L387+52
 3211 0360 48129FE5 		ldr	r1, .L387+80
 3212 0364 FEFFFFEB 		bl	__aeabi_dsub
 3213 0368 34229FE5 		ldr	r2, .L387+68
 3214 036c 34329FE5 		ldr	r3, .L387+72
 3215 0370 FEFFFFEB 		bl	__aeabi_dmul
 3216 0374 FEFFFFEB 		bl	__aeabi_d2f
 3217 0378 020000EA 		b	.L384
 3218              	.L354:
 3219 037c 0500A0E1 		mov	r0, r5
 3220 0380 2C129FE5 		ldr	r1, .L387+84
 3221 0384 FEFFFFEB 		bl	__aeabi_fadd
 3222              	.L384:
 3223 0388 0010A0E3 		mov	r1, #0
 3224 038c 0050A0E1 		mov	r5, r0
 3225 0390 FEFFFFEB 		bl	__aeabi_fcmplt
 3226 0394 000050E3 		cmp	r0, #0
 3227 0398 FF8004E2 		and	r8, r4, #255
 3228 039c 0700000A 		beq	.L381
 3229 03a0 014084E2 		add	r4, r4, #1
 3230 03a4 010C54E3 		cmp	r4, #256
 3231 03a8 F3FFFF1A 		bne	.L354
 3232 03ac 0080A0E3 		mov	r8, #0
 3233 03b0 020000EA 		b	.L381
 3234              	.L358:
 3235 03b4 F8119FE5 		ldr	r1, .L387+84
 3236 03b8 FEFFFFEB 		bl	__aeabi_fsub
 3237 03bc 0050A0E1 		mov	r5, r0
 3238              	.L381:
 3239 03c0 0500A0E1 		mov	r0, r5
 3240 03c4 E8119FE5 		ldr	r1, .L387+84
 3241 03c8 FEFFFFEB 		bl	__aeabi_fcmpge
 3242 03cc 000050E3 		cmp	r0, #0
 3243 03d0 0500A0E1 		mov	r0, r5
 3244 03d4 0200000A 		beq	.L356
 3245 03d8 018088E2 		add	r8, r8, #1
 3246 03dc FF8018E2 		ands	r8, r8, #255
 3247 03e0 F3FFFF1A 		bne	.L358
 3248              	.L356:
 3249 03e4 FEFFFFEB 		bl	__aeabi_f2d
 3250 03e8 0020A0E1 		mov	r2, r0
 3251 03ec 0130A0E1 		mov	r3, r1
 3252 03f0 0600A0E1 		mov	r0, r6
 3253 03f4 0710A0E1 		mov	r1, r7
 3254 03f8 FEFFFFEB 		bl	__aeabi_dsub
 3255 03fc FEFFFFEB 		bl	__aeabi_d2f
 3256 0400 0050A0E3 		mov	r5, #0
 3257 0404 0040A0E1 		mov	r4, r0
 3258 0408 030000EA 		b	.L359
 3259              	.L362:
 3260 040c 0400A0E1 		mov	r0, r4
 3261 0410 9C119FE5 		ldr	r1, .L387+84
 3262 0414 FEFFFFEB 		bl	__aeabi_fadd
 3263 0418 0040A0E1 		mov	r4, r0
 3264              	.L359:
 3265 041c 0400A0E1 		mov	r0, r4
 3266 0420 0010A0E3 		mov	r1, #0
 3267 0424 FEFFFFEB 		bl	__aeabi_fcmplt
 3268 0428 000050E3 		cmp	r0, #0
 3269 042c FF6005E2 		and	r6, r5, #255
 3270 0430 0700000A 		beq	.L382
 3271 0434 015085E2 		add	r5, r5, #1
 3272 0438 010C55E3 		cmp	r5, #256
 3273 043c F2FFFF1A 		bne	.L362
 3274 0440 0060A0E3 		mov	r6, #0
 3275 0444 020000EA 		b	.L382
 3276              	.L366:
 3277 0448 64119FE5 		ldr	r1, .L387+84
 3278 044c FEFFFFEB 		bl	__aeabi_fsub
 3279 0450 0040A0E1 		mov	r4, r0
 3280              	.L382:
 3281 0454 0400A0E1 		mov	r0, r4
 3282 0458 54119FE5 		ldr	r1, .L387+84
 3283 045c FEFFFFEB 		bl	__aeabi_fcmpge
 3284 0460 000050E3 		cmp	r0, #0
 3285 0464 0400A0E1 		mov	r0, r4
 3286 0468 0200000A 		beq	.L364
 3287 046c 016086E2 		add	r6, r6, #1
 3288 0470 FF6016E2 		ands	r6, r6, #255
 3289 0474 F3FFFF1A 		bne	.L366
 3290              	.L364:
 3291 0478 38119FE5 		ldr	r1, .L387+88
 3292 047c FEFFFFEB 		bl	__aeabi_fcmpgt
 3293 0480 000050E3 		cmp	r0, #0
 3294 0484 0400001A 		bne	.L367
 3295 0488 0400A0E1 		mov	r0, r4
 3296 048c 28119FE5 		ldr	r1, .L387+92
 3297 0490 FEFFFFEB 		bl	__aeabi_fcmplt
 3298 0494 000050E3 		cmp	r0, #0
 3299 0498 2C00000A 		beq	.L372
 3300              	.L367:
 3301 049c BC309FE5 		ldr	r3, .L387
 3302 04a0 0220A0E3 		mov	r2, #2
 3303 04a4 0020C3E5 		strb	r2, [r3, #0]
 3304 04a8 210000EA 		b	.L386
 3305              	.L344:
 3306 04ac C8309FE5 		ldr	r3, .L387+28
 3307 04b0 0020A0E3 		mov	r2, #0
 3308 04b4 0020C3E5 		strb	r2, [r3, #0]
 3309 04b8 C0309FE5 		ldr	r3, .L387+32
 3310 04bc 0050A0E3 		mov	r5, #0
 3311 04c0 005083E5 		str	r5, [r3, #0]	@ float
 3312 04c4 B8309FE5 		ldr	r3, .L387+36
 3313 04c8 0360A0E3 		mov	r6, #3
 3314 04cc 0060C3E5 		strb	r6, [r3, #0]
 3315 04d0 8C309FE5 		ldr	r3, .L387+4
 3316 04d4 0C20A0E3 		mov	r2, #12
 3317 04d8 923828E0 		mla	r8, r2, r8, r3
 3318 04dc A4309FE5 		ldr	r3, .L387+40
 3319 04e0 082098E5 		ldr	r2, [r8, #8]	@ float
 3320 04e4 84409FE5 		ldr	r4, .L387+16
 3321 04e8 002083E5 		str	r2, [r3, #0]	@ float
 3322 04ec 80709FE5 		ldr	r7, .L387+20
 3323 04f0 94309FE5 		ldr	r3, .L387+44
 3324 04f4 000094E5 		ldr	r0, [r4, #0]	@ float
 3325 04f8 005083E5 		str	r5, [r3, #0]	@ float
 3326 04fc 041094E5 		ldr	r1, [r4, #4]	@ float
 3327 0500 002097E5 		ldr	r2, [r7, #0]	@ float
 3328 0504 043097E5 		ldr	r3, [r7, #4]	@ float
 3329 0508 FEFFFFEB 		bl	nav_route_xy
 3330 050c 00508DE5 		str	r5, [sp, #0]	@ float
 3331 0510 000097E5 		ldr	r0, [r7, #0]	@ float
 3332 0514 041097E5 		ldr	r1, [r7, #4]	@ float
 3333 0518 002094E5 		ldr	r2, [r4, #0]	@ float
 3334 051c 043094E5 		ldr	r3, [r4, #4]	@ float
 3335 0520 FEFFFFEB 		bl	nav_approaching_xy
 3336 0524 000050E3 		cmp	r0, #0
 3337 0528 0800000A 		beq	.L372
 3338 052c 2C309FE5 		ldr	r3, .L387
 3339 0530 0060C3E5 		strb	r6, [r3, #0]
 3340              	.L386:
 3341 0534 FEFFFFEB 		bl	nav_init_stage
 3342 0538 040000EA 		b	.L372
 3343              	.L345:
 3344 053c 0040A0E3 		mov	r4, #0
 3345 0540 0040C2E5 		strb	r4, [r2, #0]
 3346              	.L385:
 3347 0544 FEFFFFEB 		bl	nav_init_stage
 3348 0548 0400A0E1 		mov	r0, r4
 3349 054c 000000EA 		b	.L341
 3350              	.L372:
 3351 0550 0100A0E3 		mov	r0, #1
 3352              	.L341:
 3353 0554 2CD08DE2 		add	sp, sp, #44
 3354 0558 F04FBDE8 		ldmfd	sp!, {r4, r5, r6, r7, r8, r9, sl, fp, lr}
 3355 055c 1EFF2FE1 		bx	lr
 3356              	.L388:
 3357              		.align	2
 3358              	.L387:
 3359 0560 00000000 		.word	.LANCHOR37
 3360 0564 00000000 		.word	waypoints
 3361 0568 00000000 		.word	.LANCHOR38
 3362 056c 00000000 		.word	.LANCHOR39
 3363 0570 00000000 		.word	.LANCHOR40
 3364 0574 00000000 		.word	.LANCHOR41
 3365 0578 00000000 		.word	.LANCHOR42
 3366 057c 00000000 		.word	v_ctl_climb_mode
 3367 0580 00000000 		.word	nav_pitch
 3368 0584 00000000 		.word	v_ctl_mode
 3369 0588 00000000 		.word	nav_altitude
 3370 058c 00000000 		.word	v_ctl_altitude_pre_climb
 3371 0590 00000000 		.word	nav_circle_radians
 3372 0594 182D4454 		.word	1413754136
 3373 0598 FB211940 		.word	1075388923
 3374 059c 9A999999 		.word	-1717986918
 3375 05a0 9999C93F 		.word	1070176665
 3376 05a4 F8C1631A 		.word	442745336
 3377 05a8 DCA54C40 		.word	1078765020
 3378 05ac 00000000 		.word	nav_circle_trigo_qdr
 3379 05b0 FB21F93F 		.word	1073291771
 3380 05b4 0000B443 		.word	1135869952
 3381 05b8 0000AF43 		.word	1135542272
 3382 05bc 00002041 		.word	1092616192
 3384              		.section	.text.FlightLineBlock,"ax",%progbits
 3385              		.align	2
 3386              		.global	FlightLineBlock
 3388              	FlightLineBlock:
 3389              		@ Function supports interworking.
 3390              		@ args = 4, pretend = 0, frame = 0
 3391              		@ frame_needed = 0, uses_anonymous_args = 0
 3392 0000 73402DE9 		stmfd	sp!, {r0, r1, r4, r5, r6, lr}
 3393 0004 B4409FE5 		ldr	r4, .L397
 3394 0008 010050E1 		cmp	r0, r1
 3395 000c 0050A0E1 		mov	r5, r0
 3396 0010 0160A0E1 		mov	r6, r1
 3397 0014 18C09DE5 		ldr	ip, [sp, #24]	@ float
 3398 0018 0000D4E5 		ldrb	r0, [r4, #0]	@ zero_extendqisi2
 3399 001c 1100002A 		bcs	.L390
 3400 0020 000085E0 		add	r0, r5, r0
 3401 0024 FF0000E2 		and	r0, r0, #255
 3402 0028 011080E2 		add	r1, r0, #1
 3403 002c FF1001E2 		and	r1, r1, #255
 3404 0030 00C08DE5 		str	ip, [sp, #0]	@ float
 3405 0034 FEFFFFEB 		bl	FlightLine
 3406 0038 84309FE5 		ldr	r3, .L397+4
 3407 003c 0000D3E5 		ldrb	r0, [r3, #0]	@ zero_extendqisi2
 3408 0040 000050E3 		cmp	r0, #0
 3409 0044 1A00001A 		bne	.L395
 3410 0048 0030D4E5 		ldrb	r3, [r4, #0]	@ zero_extendqisi2
 3411 004c 013083E2 		add	r3, r3, #1
 3412 0050 FF3003E2 		and	r3, r3, #255
 3413 0054 035085E0 		add	r5, r5, r3
 3414 0058 060055E1 		cmp	r5, r6
 3415 005c 0030C4E5 		strb	r3, [r4, #0]
 3416 0060 130000BA 		blt	.L395
 3417 0064 100000EA 		b	.L396
 3418              	.L390:
 3419 0068 050060E0 		rsb	r0, r0, r5
 3420 006c FF0000E2 		and	r0, r0, #255
 3421 0070 011040E2 		sub	r1, r0, #1
 3422 0074 FF1001E2 		and	r1, r1, #255
 3423 0078 00C08DE5 		str	ip, [sp, #0]	@ float
 3424 007c FEFFFFEB 		bl	FlightLine
 3425 0080 3C309FE5 		ldr	r3, .L397+4
 3426 0084 0000D3E5 		ldrb	r0, [r3, #0]	@ zero_extendqisi2
 3427 0088 000050E3 		cmp	r0, #0
 3428 008c 0800001A 		bne	.L395
 3429 0090 0030D4E5 		ldrb	r3, [r4, #0]	@ zero_extendqisi2
 3430 0094 013083E2 		add	r3, r3, #1
 3431 0098 FF3003E2 		and	r3, r3, #255
 3432 009c 055063E0 		rsb	r5, r3, r5
 3433 00a0 060055E1 		cmp	r5, r6
 3434 00a4 0030C4E5 		strb	r3, [r4, #0]
 3435 00a8 010000CA 		bgt	.L395
 3436              	.L396:
 3437 00ac 0000C4E5 		strb	r0, [r4, #0]
 3438 00b0 000000EA 		b	.L391
 3439              	.L395:
 3440 00b4 0100A0E3 		mov	r0, #1
 3441              	.L391:
 3442 00b8 7C40BDE8 		ldmfd	sp!, {r2, r3, r4, r5, r6, lr}
 3443 00bc 1EFF2FE1 		bx	lr
 3444              	.L398:
 3445              		.align	2
 3446              	.L397:
 3447 00c0 00000000 		.word	.LANCHOR43
 3448 00c4 00000000 		.word	.LANCHOR37
 3450              		.global	__aeabi_fcmple
 3451              		.global	__aeabi_fcmpeq
 3452              		.section	.text.InitializePolygonSurvey,"ax",%progbits
 3453              		.align	2
 3454              		.global	InitializePolygonSurvey
 3456              	InitializePolygonSurvey:
 3457              		@ Function supports interworking.
 3458              		@ args = 0, pretend = 0, frame = 112
 3459              		@ frame_needed = 0, uses_anonymous_args = 0
 3460 0000 F04F2DE9 		stmfd	sp!, {r4, r5, r6, r7, r8, r9, sl, fp, lr}
 3461 0004 0350A0E1 		mov	r5, r3
 3462 0008 74D04DE2 		sub	sp, sp, #116
 3463 000c 38389FE5 		ldr	r3, .L496
 3464 0010 18208DE5 		str	r2, [sp, #24]	@ float
 3465 0014 0020A0E3 		mov	r2, #0
 3466 0018 002083E5 		str	r2, [r3, #0]	@ float
 3467 001c 042083E5 		str	r2, [r3, #4]	@ float
 3468 0020 0070A0E1 		mov	r7, r0
 3469 0024 0500A0E1 		mov	r0, r5
 3470 0028 0140A0E1 		mov	r4, r1
 3471 002c FEFFFFEB 		bl	__aeabi_f2d
 3472 0030 18389FE5 		ldr	r3, .L496+4
 3473 0034 18289FE5 		ldr	r2, .L496+8
 3474 0038 FEFFFFEB 		bl	__aeabi_dmul
 3475 003c FEFFFFEB 		bl	__aeabi_d2f
 3476 0040 10389FE5 		ldr	r3, .L496+12
 3477 0044 000083E5 		str	r0, [r3, #0]	@ float
 3478 0048 0C389FE5 		ldr	r3, .L496+16
 3479 004c 0080A0E3 		mov	r8, #0
 3480 0050 B080C3E1 		strh	r8, [r3, #0]	@ movhi
 3481 0054 04389FE5 		ldr	r3, .L496+20
 3482 0058 B080C3E1 		strh	r8, [r3, #0]	@ movhi
 3483 005c 00389FE5 		ldr	r3, .L496+24
 3484 0060 0070C3E5 		strb	r7, [r3, #0]
 3485 0064 FC379FE5 		ldr	r3, .L496+28
 3486 0068 0040C3E5 		strb	r4, [r3, #0]
 3487 006c F8379FE5 		ldr	r3, .L496+32
 3488 0070 080054E1 		cmp	r4, r8
 3489 0074 0080C3E5 		strb	r8, [r3, #0]
 3490 0078 0060A0E1 		mov	r6, r0
 3491 007c 0180A003 		moveq	r8, #1
 3492 0080 ED01000A 		beq	.L400
 3493 0084 0A0054E3 		cmp	r4, #10
 3494 0088 EB01008A 		bhi	.L400
 3495 008c 0500A0E1 		mov	r0, r5
 3496 0090 D8179FE5 		ldr	r1, .L496+36
 3497 0094 FEFFFFEB 		bl	__aeabi_fcmpge
 3498 0098 080050E1 		cmp	r0, r8
 3499 009c E601000A 		beq	.L400
 3500 00a0 0500A0E1 		mov	r0, r5
 3501 00a4 C8179FE5 		ldr	r1, .L496+40
 3502 00a8 FEFFFFEB 		bl	__aeabi_fcmple
 3503 00ac 080050E1 		cmp	r0, r8
 3504 00b0 E101000A 		beq	.L400
 3505 00b4 BC179FE5 		ldr	r1, .L496+44
 3506 00b8 0C00A0E3 		mov	r0, #12
 3507 00bc 20308DE2 		add	r3, sp, #32
 3508 00c0 0820A0E1 		mov	r2, r8
 3509 00c4 901727E0 		mla	r7, r0, r7, r1
 3510 00c8 060000EA 		b	.L403
 3511              	.L404:
 3512 00cc 0710A0E1 		mov	r1, r7
 3513 00d0 0800B1E7 		ldr	r0, [r1, r8]!	@ float
 3514 00d4 041091E5 		ldr	r1, [r1, #4]	@ float
 3515 00d8 080003E5 		str	r0, [r3, #-8]	@ float
 3516 00dc 041003E5 		str	r1, [r3, #-4]	@ float
 3517 00e0 012082E2 		add	r2, r2, #1
 3518 00e4 0C8088E2 		add	r8, r8, #12
 3519              	.L403:
 3520 00e8 040052E1 		cmp	r2, r4
 3521 00ec 083083E2 		add	r3, r3, #8
 3522 00f0 F5FFFFBA 		blt	.L404
 3523 00f4 0050A0E3 		mov	r5, #0
 3524              	.L405:
 3525 00f8 20108DE2 		add	r1, sp, #32
 3526 00fc 0020A0E3 		mov	r2, #0
 3527 0100 850181E0 		add	r0, r1, r5, asl #3
 3528 0104 0230A0E1 		mov	r3, r2
 3529 0108 0610A0E1 		mov	r1, r6
 3530 010c 015085E2 		add	r5, r5, #1
 3531 0110 FEFFFFEB 		bl	TranslateAndRotateFromWorld
 3532 0114 040055E1 		cmp	r5, r4
 3533 0118 F6FFFFBA 		blt	.L405
 3534 011c 20709DE5 		ldr	r7, [sp, #32]	@ float
 3535 0120 24809DE5 		ldr	r8, [sp, #36]	@ float
 3536 0124 20508DE2 		add	r5, sp, #32
 3537 0128 0160A0E3 		mov	r6, #1
 3538 012c 0D0000EA 		b	.L406
 3539              	.L411:
 3540 0130 0CA095E5 		ldr	sl, [r5, #12]	@ float
 3541 0134 0810A0E1 		mov	r1, r8
 3542 0138 0A00A0E1 		mov	r0, sl
 3543 013c FEFFFFEB 		bl	__aeabi_fcmplt
 3544 0140 000050E3 		cmp	r0, #0
 3545 0144 0A80A011 		movne	r8, sl
 3546 0148 08A095E5 		ldr	sl, [r5, #8]	@ float
 3547 014c 0710A0E1 		mov	r1, r7
 3548 0150 0A00A0E1 		mov	r0, sl
 3549 0154 FEFFFFEB 		bl	__aeabi_fcmplt
 3550 0158 000050E3 		cmp	r0, #0
 3551 015c 0A70A011 		movne	r7, sl
 3552 0160 016086E2 		add	r6, r6, #1
 3553 0164 085085E2 		add	r5, r5, #8
 3554              	.L406:
 3555 0168 040056E1 		cmp	r6, r4
 3556 016c EFFFFFBA 		blt	.L411
 3557 0170 D4669FE5 		ldr	r6, .L496
 3558 0174 048086E5 		str	r8, [r6, #4]	@ float
 3559 0178 007086E5 		str	r7, [r6, #0]	@ float
 3560 017c 0050A0E3 		mov	r5, #0
 3561              	.L412:
 3562 0180 20208DE2 		add	r2, sp, #32
 3563 0184 850182E0 		add	r0, r2, r5, asl #3
 3564 0188 0010A0E3 		mov	r1, #0
 3565 018c 002096E5 		ldr	r2, [r6, #0]	@ float
 3566 0190 043096E5 		ldr	r3, [r6, #4]	@ float
 3567 0194 015085E2 		add	r5, r5, #1
 3568 0198 FEFFFFEB 		bl	TranslateAndRotateFromWorld
 3569 019c 040055E1 		cmp	r5, r4
 3570 01a0 F6FFFFBA 		blt	.L412
 3571 01a4 D0369FE5 		ldr	r3, .L496+48
 3572 01a8 20209DE5 		ldr	r2, [sp, #32]	@ float
 3573 01ac 24509DE5 		ldr	r5, [sp, #36]	@ float
 3574 01b0 002083E5 		str	r2, [r3, #0]	@ float
 3575 01b4 045083E5 		str	r5, [r3, #4]	@ float
 3576 01b8 0160A0E3 		mov	r6, #1
 3577 01bc 080000EA 		b	.L413
 3578              	.L416:
 3579 01c0 20108DE2 		add	r1, sp, #32
 3580 01c4 863181E0 		add	r3, r1, r6, asl #3
 3581 01c8 047093E5 		ldr	r7, [r3, #4]	@ float
 3582 01cc 0510A0E1 		mov	r1, r5
 3583 01d0 0700A0E1 		mov	r0, r7
 3584 01d4 FEFFFFEB 		bl	__aeabi_fcmpgt
 3585 01d8 000050E3 		cmp	r0, #0
 3586 01dc 0750A011 		movne	r5, r7
 3587 01e0 016086E2 		add	r6, r6, #1
 3588              	.L413:
 3589 01e4 040056E1 		cmp	r6, r4
 3590 01e8 F4FFFFBA 		blt	.L416
 3591 01ec 8C369FE5 		ldr	r3, .L496+52
 3592 01f0 24209DE5 		ldr	r2, [sp, #36]	@ float
 3593 01f4 005083E5 		str	r5, [r3, #0]	@ float
 3594 01f8 10208DE5 		str	r2, [sp, #16]	@ float
 3595 01fc 013044E2 		sub	r3, r4, #1
 3596 0200 70208DE2 		add	r2, sp, #112
 3597 0204 832182E0 		add	r2, r2, r3, asl #3
 3598 0208 0060A0E3 		mov	r6, #0
 3599 020c 20909DE5 		ldr	r9, [sp, #32]	@ float
 3600 0210 6C869FE5 		ldr	r8, .L496+56
 3601 0214 0C208DE5 		str	r2, [sp, #12]
 3602 0218 1C708DE2 		add	r7, sp, #28
 3603 021c 06A0A0E1 		mov	sl, r6
 3604              	.L423:
 3605 0220 00005AE3 		cmp	sl, #0
 3606 0224 1500001A 		bne	.L417
 3607 0228 0C309DE5 		ldr	r3, [sp, #12]
 3608 022c 505013E5 		ldr	r5, [r3, #-80]	@ float
 3609 0230 0910A0E1 		mov	r1, r9
 3610 0234 0500A0E1 		mov	r0, r5
 3611 0238 FEFFFFEB 		bl	__aeabi_fcmpeq
 3612 023c 000050E3 		cmp	r0, #0
 3613 0240 40169F15 		ldrne	r1, .L496+60
 3614 0244 00108815 		strne	r1, [r8, #0]	@ float
 3615 0248 2200001A 		bne	.L420
 3616 024c 0C209DE5 		ldr	r2, [sp, #12]
 3617 0250 10109DE5 		ldr	r1, [sp, #16]	@ float
 3618 0254 4C0012E5 		ldr	r0, [r2, #-76]	@ float
 3619 0258 FEFFFFEB 		bl	__aeabi_fsub
 3620 025c 0910A0E1 		mov	r1, r9
 3621 0260 00B0A0E1 		mov	fp, r0
 3622 0264 0500A0E1 		mov	r0, r5
 3623 0268 FEFFFFEB 		bl	__aeabi_fsub
 3624 026c 0010A0E1 		mov	r1, r0
 3625 0270 0B00A0E1 		mov	r0, fp
 3626 0274 FEFFFFEB 		bl	__aeabi_fdiv
 3627 0278 000088E5 		str	r0, [r8, #0]	@ float
 3628 027c 150000EA 		b	.L420
 3629              	.L417:
 3630 0280 04B097E5 		ldr	fp, [r7, #4]	@ float
 3631 0284 045017E5 		ldr	r5, [r7, #-4]	@ float
 3632 0288 0B00A0E1 		mov	r0, fp
 3633 028c 0510A0E1 		mov	r1, r5
 3634 0290 FEFFFFEB 		bl	__aeabi_fcmpeq
 3635 0294 000050E3 		cmp	r0, #0
 3636 0298 E8359F15 		ldrne	r3, .L496+60
 3637 029c 06308817 		strne	r3, [r8, r6]	@ float
 3638 02a0 0C00001A 		bne	.L420
 3639 02a4 001097E5 		ldr	r1, [r7, #0]	@ float
 3640 02a8 080097E5 		ldr	r0, [r7, #8]	@ float
 3641 02ac FEFFFFEB 		bl	__aeabi_fsub
 3642 02b0 0510A0E1 		mov	r1, r5
 3643 02b4 0030A0E1 		mov	r3, r0
 3644 02b8 0B00A0E1 		mov	r0, fp
 3645 02bc 04308DE5 		str	r3, [sp, #4]
 3646 02c0 FEFFFFEB 		bl	__aeabi_fsub
 3647 02c4 04309DE5 		ldr	r3, [sp, #4]
 3648 02c8 0010A0E1 		mov	r1, r0
 3649 02cc 0300A0E1 		mov	r0, r3
 3650 02d0 FEFFFFEB 		bl	__aeabi_fdiv
 3651 02d4 060088E7 		str	r0, [r8, r6]	@ float
 3652              	.L420:
 3653 02d8 081096E7 		ldr	r1, [r6, r8]	@ float
 3654 02dc 040097E5 		ldr	r0, [r7, #4]	@ float
 3655 02e0 FEFFFFEB 		bl	__aeabi_fmul
 3656 02e4 0010A0E1 		mov	r1, r0
 3657 02e8 0800B7E5 		ldr	r0, [r7, #8]!	@ float
 3658 02ec FEFFFFEB 		bl	__aeabi_fsub
 3659 02f0 01A08AE2 		add	sl, sl, #1
 3660 02f4 06B088E0 		add	fp, r8, r6
 3661 02f8 04005AE1 		cmp	sl, r4
 3662 02fc 80559FE5 		ldr	r5, .L496+56
 3663 0300 04008BE5 		str	r0, [fp, #4]	@ float
 3664 0304 0C6086E2 		add	r6, r6, #12
 3665 0308 C4FFFFBA 		blt	.L423
 3666 030c 047095E5 		ldr	r7, [r5, #4]	@ float
 3667 0310 100095E5 		ldr	r0, [r5, #16]	@ float
 3668 0314 0710A0E1 		mov	r1, r7
 3669 0318 FEFFFFEB 		bl	__aeabi_fsub
 3670 031c 008095E5 		ldr	r8, [r5, #0]	@ float
 3671 0320 0060A0E1 		mov	r6, r0
 3672 0324 0C1095E5 		ldr	r1, [r5, #12]	@ float
 3673 0328 0800A0E1 		mov	r0, r8
 3674 032c FEFFFFEB 		bl	__aeabi_fsub
 3675 0330 0010A0E1 		mov	r1, r0
 3676 0334 0600A0E1 		mov	r0, r6
 3677 0338 FEFFFFEB 		bl	__aeabi_fdiv
 3678 033c 0010A0E1 		mov	r1, r0
 3679 0340 0800A0E1 		mov	r0, r8
 3680 0344 FEFFFFEB 		bl	__aeabi_fmul
 3681 0348 0710A0E1 		mov	r1, r7
 3682 034c FEFFFFEB 		bl	__aeabi_fadd
 3683 0350 016044E2 		sub	r6, r4, #1
 3684 0354 0C30A0E3 		mov	r3, #12
 3685 0358 930602E0 		mul	r2, r3, r6
 3686 035c 023085E0 		add	r3, r5, r2
 3687 0360 00A0A0E1 		mov	sl, r0
 3688 0364 0710A0E1 		mov	r1, r7
 3689 0368 040093E5 		ldr	r0, [r3, #4]	@ float
 3690 036c 10308DE5 		str	r3, [sp, #16]
 3691 0370 0C208DE5 		str	r2, [sp, #12]
 3692 0374 FEFFFFEB 		bl	__aeabi_fsub
 3693 0378 0C209DE5 		ldr	r2, [sp, #12]
 3694 037c 0090A0E1 		mov	r9, r0
 3695 0380 021095E7 		ldr	r1, [r5, r2]	@ float
 3696 0384 0800A0E1 		mov	r0, r8
 3697 0388 FEFFFFEB 		bl	__aeabi_fsub
 3698 038c 0010A0E1 		mov	r1, r0
 3699 0390 0900A0E1 		mov	r0, r9
 3700 0394 FEFFFFEB 		bl	__aeabi_fdiv
 3701 0398 0010A0E1 		mov	r1, r0
 3702 039c 0800A0E1 		mov	r0, r8
 3703 03a0 FEFFFFEB 		bl	__aeabi_fmul
 3704 03a4 0710A0E1 		mov	r1, r7
 3705 03a8 FEFFFFEB 		bl	__aeabi_fadd
 3706 03ac 0070A0E1 		mov	r7, r0
 3707 03b0 0710A0E1 		mov	r1, r7
 3708 03b4 0A00A0E1 		mov	r0, sl
 3709 03b8 FEFFFFEB 		bl	__aeabi_fcmpgt
 3710 03bc C8349FE5 		ldr	r3, .L496+64
 3711 03c0 000050E3 		cmp	r0, #0
 3712 03c4 C4249FE5 		ldr	r2, .L496+68
 3713 03c8 00708315 		strne	r7, [r3, #0]	@ float
 3714 03cc 00A08305 		streq	sl, [r3, #0]	@ float
 3715 03d0 B4349FE5 		ldr	r3, .L496+64
 3716 03d4 00A08215 		strne	sl, [r2, #0]	@ float
 3717 03d8 00708205 		streq	r7, [r2, #0]	@ float
 3718 03dc 06B0A0E1 		mov	fp, r6
 3719 03e0 A8A49FE5 		ldr	sl, .L496+68
 3720 03e4 0180A0E3 		mov	r8, #1
 3721 03e8 94749FE5 		ldr	r7, .L496+56
 3722 03ec 0CC0A0E3 		mov	ip, #12
 3723 03f0 0360A0E1 		mov	r6, r3
 3724 03f4 1C408DE5 		str	r4, [sp, #28]
 3725 03f8 420000EA 		b	.L427
 3726              	.L431:
 3727 03fc 9C0801E0 		mul	r1, ip, r8
 3728 0400 013088E2 		add	r3, r8, #1
 3729 0404 14308DE5 		str	r3, [sp, #20]
 3730 0408 013087E0 		add	r3, r7, r1
 3731 040c 044093E5 		ldr	r4, [r3, #4]	@ float
 3732 0410 14309DE5 		ldr	r3, [sp, #20]
 3733 0414 9C0303E0 		mul	r3, ip, r3
 3734 0418 019097E7 		ldr	r9, [r7, r1]	@ float
 3735 041c 031087E0 		add	r1, r7, r3
 3736 0420 040091E5 		ldr	r0, [r1, #4]	@ float
 3737 0424 0410A0E1 		mov	r1, r4
 3738 0428 00C08DE5 		str	ip, [sp, #0]
 3739 042c 04308DE5 		str	r3, [sp, #4]
 3740 0430 FEFFFFEB 		bl	__aeabi_fsub
 3741 0434 04309DE5 		ldr	r3, [sp, #4]
 3742 0438 0020A0E1 		mov	r2, r0
 3743 043c 031097E7 		ldr	r1, [r7, r3]	@ float
 3744 0440 0900A0E1 		mov	r0, r9
 3745 0444 08208DE5 		str	r2, [sp, #8]
 3746 0448 FEFFFFEB 		bl	__aeabi_fsub
 3747 044c 08209DE5 		ldr	r2, [sp, #8]
 3748 0450 0010A0E1 		mov	r1, r0
 3749 0454 0200A0E1 		mov	r0, r2
 3750 0458 FEFFFFEB 		bl	__aeabi_fdiv
 3751 045c 0010A0E1 		mov	r1, r0
 3752 0460 0900A0E1 		mov	r0, r9
 3753 0464 FEFFFFEB 		bl	__aeabi_fmul
 3754 0468 0410A0E1 		mov	r1, r4
 3755 046c FEFFFFEB 		bl	__aeabi_fadd
 3756 0470 00C09DE5 		ldr	ip, [sp, #0]
 3757 0474 018048E2 		sub	r8, r8, #1
 3758 0478 9C0808E0 		mul	r8, ip, r8
 3759 047c 081087E0 		add	r1, r7, r8
 3760 0480 0030A0E1 		mov	r3, r0
 3761 0484 040091E5 		ldr	r0, [r1, #4]	@ float
 3762 0488 0410A0E1 		mov	r1, r4
 3763 048c 04308DE5 		str	r3, [sp, #4]
 3764 0490 FEFFFFEB 		bl	__aeabi_fsub
 3765 0494 081097E7 		ldr	r1, [r7, r8]	@ float
 3766 0498 0020A0E1 		mov	r2, r0
 3767 049c 0900A0E1 		mov	r0, r9
 3768 04a0 08208DE5 		str	r2, [sp, #8]
 3769 04a4 FEFFFFEB 		bl	__aeabi_fsub
 3770 04a8 08209DE5 		ldr	r2, [sp, #8]
 3771 04ac 0010A0E1 		mov	r1, r0
 3772 04b0 0200A0E1 		mov	r0, r2
 3773 04b4 FEFFFFEB 		bl	__aeabi_fdiv
 3774 04b8 0010A0E1 		mov	r1, r0
 3775 04bc 0900A0E1 		mov	r0, r9
 3776 04c0 FEFFFFEB 		bl	__aeabi_fmul
 3777 04c4 0410A0E1 		mov	r1, r4
 3778 04c8 FEFFFFEB 		bl	__aeabi_fadd
 3779 04cc 04309DE5 		ldr	r3, [sp, #4]
 3780 04d0 0040A0E1 		mov	r4, r0
 3781 04d4 0410A0E1 		mov	r1, r4
 3782 04d8 0300A0E1 		mov	r0, r3
 3783 04dc FEFFFFEB 		bl	__aeabi_fcmpgt
 3784 04e0 04309DE5 		ldr	r3, [sp, #4]
 3785 04e4 000050E3 		cmp	r0, #0
 3786 04e8 14809DE5 		ldr	r8, [sp, #20]
 3787 04ec 00C09DE5 		ldr	ip, [sp, #0]
 3788 04f0 04308A15 		strne	r3, [sl, #4]	@ float
 3789 04f4 04408615 		strne	r4, [r6, #4]	@ float
 3790 04f8 04408A05 		streq	r4, [sl, #4]	@ float
 3791 04fc 04308605 		streq	r3, [r6, #4]	@ float
 3792 0500 04A08AE2 		add	sl, sl, #4
 3793 0504 046086E2 		add	r6, r6, #4
 3794              	.L427:
 3795 0508 0B0058E1 		cmp	r8, fp
 3796 050c 70939FE5 		ldr	r9, .L496+56
 3797 0510 B9FFFFBA 		blt	.L431
 3798 0514 0C209DE5 		ldr	r2, [sp, #12]
 3799 0518 10309DE5 		ldr	r3, [sp, #16]
 3800 051c 027095E7 		ldr	r7, [r5, r2]	@ float
 3801 0520 045093E5 		ldr	r5, [r3, #4]	@ float
 3802 0524 040099E5 		ldr	r0, [r9, #4]	@ float
 3803 0528 0510A0E1 		mov	r1, r5
 3804 052c FEFFFFEB 		bl	__aeabi_fsub
 3805 0530 001099E5 		ldr	r1, [r9, #0]	@ float
 3806 0534 0080A0E1 		mov	r8, r0
 3807 0538 0700A0E1 		mov	r0, r7
 3808 053c FEFFFFEB 		bl	__aeabi_fsub
 3809 0540 0010A0E1 		mov	r1, r0
 3810 0544 0800A0E1 		mov	r0, r8
 3811 0548 FEFFFFEB 		bl	__aeabi_fdiv
 3812 054c 0010A0E1 		mov	r1, r0
 3813 0550 0700A0E1 		mov	r0, r7
 3814 0554 FEFFFFEB 		bl	__aeabi_fmul
 3815 0558 0510A0E1 		mov	r1, r5
 3816 055c FEFFFFEB 		bl	__aeabi_fadd
 3817 0560 1C409DE5 		ldr	r4, [sp, #28]
 3818 0564 0C30A0E3 		mov	r3, #12
 3819 0568 024044E2 		sub	r4, r4, #2
 3820 056c 930404E0 		mul	r4, r3, r4
 3821 0570 043089E0 		add	r3, r9, r4
 3822 0574 0080A0E1 		mov	r8, r0
 3823 0578 0510A0E1 		mov	r1, r5
 3824 057c 040093E5 		ldr	r0, [r3, #4]	@ float
 3825 0580 FEFFFFEB 		bl	__aeabi_fsub
 3826 0584 041099E7 		ldr	r1, [r9, r4]	@ float
 3827 0588 00A0A0E1 		mov	sl, r0
 3828 058c 0700A0E1 		mov	r0, r7
 3829 0590 FEFFFFEB 		bl	__aeabi_fsub
 3830 0594 0010A0E1 		mov	r1, r0
 3831 0598 0A00A0E1 		mov	r0, sl
 3832 059c FEFFFFEB 		bl	__aeabi_fdiv
 3833 05a0 0010A0E1 		mov	r1, r0
 3834 05a4 0700A0E1 		mov	r0, r7
 3835 05a8 FEFFFFEB 		bl	__aeabi_fmul
 3836 05ac 0510A0E1 		mov	r1, r5
 3837 05b0 FEFFFFEB 		bl	__aeabi_fadd
 3838 05b4 0040A0E1 		mov	r4, r0
 3839 05b8 0410A0E1 		mov	r1, r4
 3840 05bc 0800A0E1 		mov	r0, r8
 3841 05c0 FEFFFFEB 		bl	__aeabi_fcmpgt
 3842 05c4 C0329FE5 		ldr	r3, .L496+64
 3843 05c8 000050E3 		cmp	r0, #0
 3844 05cc 0B418317 		strne	r4, [r3, fp, asl #2]	@ float
 3845 05d0 0B818307 		streq	r8, [r3, fp, asl #2]	@ float
 3846 05d4 A0329FE5 		ldr	r3, .L496+48
 3847 05d8 B0229FE5 		ldr	r2, .L496+68
 3848 05dc 046093E5 		ldr	r6, [r3, #4]	@ float
 3849 05e0 98329FE5 		ldr	r3, .L496+52
 3850 05e4 0B418207 		streq	r4, [r2, fp, asl #2]	@ float
 3851 05e8 0B818217 		strne	r8, [r2, fp, asl #2]	@ float
 3852 05ec 000093E5 		ldr	r0, [r3, #0]	@ float
 3853 05f0 3F14A0E3 		mov	r1, #1056964608
 3854 05f4 FEFFFFEB 		bl	__aeabi_fmul
 3855 05f8 0010A0E1 		mov	r1, r0
 3856 05fc 0600A0E1 		mov	r0, r6
 3857 0600 FEFFFFEB 		bl	__aeabi_fcmpge
 3858 0604 000050E3 		cmp	r0, #0
 3859 0608 18109D15 		ldrne	r1, [sp, #24]
 3860 060c 80329FE5 		ldr	r3, .L496+72
 3861 0610 18209D05 		ldreq	r2, [sp, #24]	@ float
 3862 0614 02218112 		addne	r2, r1, #-2147483648
 3863 0618 002083E5 		str	r2, [r3, #0]	@ float
 3864 061c 004093E5 		ldr	r4, [r3, #0]	@ float
 3865 0620 0010A0E3 		mov	r1, #0
 3866 0624 0400A0E1 		mov	r0, r4
 3867 0628 FEFFFFEB 		bl	__aeabi_fcmpge
 3868 062c 24329FE5 		ldr	r3, .L496+12
 3869 0630 000050E3 		cmp	r0, #0
 3870 0634 5C529FE5 		ldr	r5, .L496+76
 3871 0638 000093E5 		ldr	r0, [r3, #0]	@ float
 3872 063c 0600000A 		beq	.L490
 3873 0640 FEFFFFEB 		bl	__aeabi_f2d
 3874 0644 50229FE5 		ldr	r2, .L496+80
 3875 0648 50329FE5 		ldr	r3, .L496+84
 3876 064c FEFFFFEB 		bl	__aeabi_dmul
 3877 0650 FEFFFFEB 		bl	__aeabi_d2f
 3878 0654 020180E2 		add	r0, r0, #-2147483648
 3879 0658 090000EA 		b	.L493
 3880              	.L490:
 3881 065c FEFFFFEB 		bl	__aeabi_f2d
 3882 0660 34229FE5 		ldr	r2, .L496+80
 3883 0664 34329FE5 		ldr	r3, .L496+84
 3884 0668 FEFFFFEB 		bl	__aeabi_dmul
 3885 066c 0020A0E1 		mov	r2, r0
 3886 0670 0130A0E1 		mov	r3, r1
 3887 0674 0000A0E3 		mov	r0, #0
 3888 0678 24129FE5 		ldr	r1, .L496+88
 3889 067c FEFFFFEB 		bl	__aeabi_dsub
 3890 0680 FEFFFFEB 		bl	__aeabi_d2f
 3891              	.L493:
 3892 0684 000085E5 		str	r0, [r5, #0]	@ float
 3893 0688 3F14A0E3 		mov	r1, #1056964608
 3894 068c 0400A0E1 		mov	r0, r4
 3895 0690 FEFFFFEB 		bl	__aeabi_fmul
 3896 0694 0090A0E1 		mov	r9, r0
 3897 0698 0910A0E1 		mov	r1, r9
 3898 069c 0600A0E1 		mov	r0, r6
 3899 06a0 FEFFFFEB 		bl	__aeabi_fadd
 3900 06a4 BC319FE5 		ldr	r3, .L496+28
 3901 06a8 0030D3E5 		ldrb	r3, [r3, #0]	@ zero_extendqisi2
 3902 06ac 0080A0E3 		mov	r8, #0
 3903 06b0 0070A0E3 		mov	r7, #0
 3904 06b4 0050A0E1 		mov	r5, r0
 3905 06b8 0C308DE5 		str	r3, [sp, #12]
 3906 06bc 0760A0E1 		mov	r6, r7
 3907 06c0 08A0A0E1 		mov	sl, r8
 3908 06c4 B8B19FE5 		ldr	fp, .L496+56
 3909 06c8 170000EA 		b	.L441
 3910              	.L445:
 3911 06cc B8319FE5 		ldr	r3, .L496+64
 3912 06d0 0510A0E1 		mov	r1, r5
 3913 06d4 030098E7 		ldr	r0, [r8, r3]	@ float
 3914 06d8 FEFFFFEB 		bl	__aeabi_fcmple
 3915 06dc 000050E3 		cmp	r0, #0
 3916 06e0 0F00000A 		beq	.L442
 3917 06e4 A4119FE5 		ldr	r1, .L496+68
 3918 06e8 010098E7 		ldr	r0, [r8, r1]	@ float
 3919 06ec 0510A0E1 		mov	r1, r5
 3920 06f0 FEFFFFEB 		bl	__aeabi_fcmpgt
 3921 06f4 000050E3 		cmp	r0, #0
 3922 06f8 0900000A 		beq	.L442
 3923 06fc 0C20A0E3 		mov	r2, #12
 3924 0700 920A07E0 		mul	r7, r2, sl
 3925 0704 07308BE0 		add	r3, fp, r7
 3926 0708 041093E5 		ldr	r1, [r3, #4]	@ float
 3927 070c 0500A0E1 		mov	r0, r5
 3928 0710 FEFFFFEB 		bl	__aeabi_fsub
 3929 0714 07109BE7 		ldr	r1, [fp, r7]	@ float
 3930 0718 FEFFFFEB 		bl	__aeabi_fdiv
 3931 071c 0670A0E1 		mov	r7, r6
 3932 0720 0060A0E1 		mov	r6, r0
 3933              	.L442:
 3934 0724 01A08AE2 		add	sl, sl, #1
 3935 0728 048088E2 		add	r8, r8, #4
 3936              	.L441:
 3937 072c 0C309DE5 		ldr	r3, [sp, #12]
 3938 0730 03005AE1 		cmp	sl, r3
 3939 0734 E4FFFFBA 		blt	.L445
 3940 0738 3C319FE5 		ldr	r3, .L496+48
 3941 073c 008093E5 		ldr	r8, [r3, #0]	@ float
 3942 0740 0710A0E1 		mov	r1, r7
 3943 0744 0800A0E1 		mov	r0, r8
 3944 0748 FEFFFFEB 		bl	__aeabi_fsub
 3945 074c 0610A0E1 		mov	r1, r6
 3946 0750 02A1C0E3 		bic	sl, r0, #-2147483648
 3947 0754 0800A0E1 		mov	r0, r8
 3948 0758 FEFFFFEB 		bl	__aeabi_fsub
 3949 075c 0211C0E3 		bic	r1, r0, #-2147483648
 3950 0760 0A00A0E1 		mov	r0, sl
 3951 0764 FEFFFFEB 		bl	__aeabi_fcmple
 3952 0768 38219FE5 		ldr	r2, .L496+92
 3953 076c 38319FE5 		ldr	r3, .L496+96
 3954 0770 000050E3 		cmp	r0, #0
 3955 0774 00608215 		strne	r6, [r2, #0]	@ float
 3956 0778 04508215 		strne	r5, [r2, #4]	@ float
 3957 077c 00708315 		strne	r7, [r3, #0]	@ float
 3958 0780 00708205 		streq	r7, [r2, #0]	@ float
 3959 0784 04508205 		streq	r5, [r2, #4]	@ float
 3960 0788 00608305 		streq	r6, [r3, #0]	@ float
 3961 078c 045083E5 		str	r5, [r3, #4]	@ float
 3962 0790 0500A0E1 		mov	r0, r5
 3963 0794 0010A0E3 		mov	r1, #0
 3964 0798 FEFFFFEB 		bl	__aeabi_fcmpgt
 3965 079c 000050E3 		cmp	r0, #0
 3966 07a0 0600000A 		beq	.L449
 3967 07a4 FC309FE5 		ldr	r3, .L496+92
 3968 07a8 000093E5 		ldr	r0, [r3, #0]	@ float
 3969 07ac F8309FE5 		ldr	r3, .L496+96
 3970 07b0 001093E5 		ldr	r1, [r3, #0]	@ float
 3971 07b4 FEFFFFEB 		bl	__aeabi_fcmpgt
 3972 07b8 000050E3 		cmp	r0, #0
 3973 07bc 0B00001A 		bne	.L495
 3974              	.L449:
 3975 07c0 0500A0E1 		mov	r0, r5
 3976 07c4 0010A0E3 		mov	r1, #0
 3977 07c8 FEFFFFEB 		bl	__aeabi_fcmplt
 3978 07cc 000050E3 		cmp	r0, #0
 3979 07d0 0900000A 		beq	.L453
 3980 07d4 CC309FE5 		ldr	r3, .L496+92
 3981 07d8 000093E5 		ldr	r0, [r3, #0]	@ float
 3982 07dc C8309FE5 		ldr	r3, .L496+96
 3983 07e0 001093E5 		ldr	r1, [r3, #0]	@ float
 3984 07e4 FEFFFFEB 		bl	__aeabi_fcmplt
 3985 07e8 000050E3 		cmp	r0, #0
 3986 07ec 0200000A 		beq	.L453
 3987              	.L495:
 3988 07f0 B8309FE5 		ldr	r3, .L496+100
 3989 07f4 009083E5 		str	r9, [r3, #0]	@ float
 3990 07f8 040000EA 		b	.L452
 3991              	.L453:
 3992 07fc 020184E2 		add	r0, r4, #-2147483648
 3993 0800 3F14A0E3 		mov	r1, #1056964608
 3994 0804 FEFFFFEB 		bl	__aeabi_fmul
 3995 0808 A0309FE5 		ldr	r3, .L496+100
 3996 080c 000083E5 		str	r0, [r3, #0]	@ float
 3997              	.L452:
 3998 0810 94209FE5 		ldr	r2, .L496+96
 3999 0814 98309FE5 		ldr	r3, .L496+104
 4000 0818 002092E5 		ldr	r2, [r2, #0]	@ float
 4001 081c 002083E5 		str	r2, [r3, #0]	@ float
 4002 0820 54209FE5 		ldr	r2, .L496+48
 4003 0824 042092E5 		ldr	r2, [r2, #4]	@ float
 4004 0828 042083E5 		str	r2, [r3, #4]	@ float
 4005 082c 38309FE5 		ldr	r3, .L496+32
 4006 0830 0120A0E3 		mov	r2, #1
 4007 0834 0020C3E5 		strb	r2, [r3, #0]
 4008 0838 0080A0E3 		mov	r8, #0
 4009              	.L400:
 4010 083c 0800A0E1 		mov	r0, r8
 4011 0840 74D08DE2 		add	sp, sp, #116
 4012 0844 F04FBDE8 		ldmfd	sp!, {r4, r5, r6, r7, r8, r9, sl, fp, lr}
 4013 0848 1EFF2FE1 		bx	lr
 4014              	.L497:
 4015              		.align	2
 4016              	.L496:
 4017 084c 00000000 		.word	.LANCHOR44
 4018 0850 46DF913F 		.word	1066524486
 4019 0854 399D52A2 		.word	-1571644103
 4020 0858 00000000 		.word	.LANCHOR45
 4021 085c 00000000 		.word	PolySurveySweepNum
 4022 0860 00000000 		.word	PolySurveySweepBackNum
 4023 0864 00000000 		.word	.LANCHOR46
 4024 0868 00000000 		.word	.LANCHOR47
 4025 086c 00000000 		.word	.LANCHOR48
 4026 0870 0000B4C2 		.word	-1028390912
 4027 0874 0000B442 		.word	1119092736
 4028 0878 00000000 		.word	waypoints
 4029 087c 00000000 		.word	.LANCHOR49
 4030 0880 00000000 		.word	.LANCHOR50
 4031 0884 00000000 		.word	.LANCHOR51
 4032 0888 286B6E4E 		.word	1315859240
 4033 088c 00000000 		.word	.LANCHOR53
 4034 0890 00000000 		.word	.LANCHOR52
 4035 0894 00000000 		.word	.LANCHOR54
 4036 0898 00000000 		.word	.LANCHOR55
 4037 089c F8C1631A 		.word	442745336
 4038 08a0 DCA54C40 		.word	1078765020
 4039 08a4 00806640 		.word	1080459264
 4040 08a8 00000000 		.word	.LANCHOR56
 4041 08ac 00000000 		.word	.LANCHOR57
 4042 08b0 00000000 		.word	.LANCHOR58
 4043 08b4 00000000 		.word	.LANCHOR59
 4045              		.section	.text.RotateAndTranslateToWorld,"ax",%progbits
 4046              		.align	2
 4047              		.global	RotateAndTranslateToWorld
 4049              	RotateAndTranslateToWorld:
 4050              		@ Function supports interworking.
 4051              		@ args = 0, pretend = 0, frame = 24
 4052              		@ frame_needed = 0, uses_anonymous_args = 0
 4053 0000 F04F2DE9 		stmfd	sp!, {r4, r5, r6, r7, r8, r9, sl, fp, lr}
 4054 0004 0040A0E1 		mov	r4, r0
 4055 0008 1CD04DE2 		sub	sp, sp, #28
 4056 000c 000090E5 		ldr	r0, [r0, #0]	@ float
 4057 0010 0260A0E1 		mov	r6, r2
 4058 0014 0370A0E1 		mov	r7, r3
 4059 0018 0150A0E1 		mov	r5, r1
 4060 001c FEFFFFEB 		bl	__aeabi_f2d
 4061 0020 00A0A0E1 		mov	sl, r0
 4062 0024 0500A0E1 		mov	r0, r5
 4063 0028 01B0A0E1 		mov	fp, r1
 4064 002c FEFFFFEB 		bl	__aeabi_f2d
 4065 0030 0080A0E1 		mov	r8, r0
 4066 0034 0190A0E1 		mov	r9, r1
 4067 0038 FEFFFFEB 		bl	cos
 4068 003c 03008DE8 		stmia	sp, {r0-r1}
 4069 0040 040094E5 		ldr	r0, [r4, #4]	@ float
 4070 0044 FEFFFFEB 		bl	__aeabi_f2d
 4071 0048 08008DE5 		str	r0, [sp, #8]
 4072 004c 0C108DE5 		str	r1, [sp, #12]
 4073 0050 0800A0E1 		mov	r0, r8
 4074 0054 0910A0E1 		mov	r1, r9
 4075 0058 FEFFFFEB 		bl	sin
 4076 005c 0C009DE8 		ldmia	sp, {r2-r3}
 4077 0060 0080A0E1 		mov	r8, r0
 4078 0064 0190A0E1 		mov	r9, r1
 4079 0068 0A00A0E1 		mov	r0, sl
 4080 006c 0B10A0E1 		mov	r1, fp
 4081 0070 FEFFFFEB 		bl	__aeabi_dmul
 4082 0074 0820A0E1 		mov	r2, r8
 4083 0078 0930A0E1 		mov	r3, r9
 4084 007c 10008DE5 		str	r0, [sp, #16]
 4085 0080 14108DE5 		str	r1, [sp, #20]
 4086 0084 08108DE2 		add	r1, sp, #8
 4087 0088 030091E8 		ldmia	r1, {r0-r1}
 4088 008c FEFFFFEB 		bl	__aeabi_dmul
 4089 0090 0020A0E1 		mov	r2, r0
 4090 0094 0130A0E1 		mov	r3, r1
 4091 0098 10108DE2 		add	r1, sp, #16
 4092 009c 030091E8 		ldmia	r1, {r0-r1}
 4093 00a0 FEFFFFEB 		bl	__aeabi_dsub
 4094 00a4 FEFFFFEB 		bl	__aeabi_d2f
 4095 00a8 0610A0E1 		mov	r1, r6
 4096 00ac FEFFFFEB 		bl	__aeabi_fadd
 4097 00b0 0820A0E1 		mov	r2, r8
 4098 00b4 0930A0E1 		mov	r3, r9
 4099 00b8 000084E5 		str	r0, [r4, #0]	@ float
 4100 00bc 0B10A0E1 		mov	r1, fp
 4101 00c0 0A00A0E1 		mov	r0, sl
 4102 00c4 FEFFFFEB 		bl	__aeabi_dmul
 4103 00c8 0C009DE8 		ldmia	sp, {r2-r3}
 4104 00cc 0080A0E1 		mov	r8, r0
 4105 00d0 0190A0E1 		mov	r9, r1
 4106 00d4 08108DE2 		add	r1, sp, #8
 4107 00d8 030091E8 		ldmia	r1, {r0-r1}
 4108 00dc FEFFFFEB 		bl	__aeabi_dmul
 4109 00e0 0020A0E1 		mov	r2, r0
 4110 00e4 0130A0E1 		mov	r3, r1
 4111 00e8 0800A0E1 		mov	r0, r8
 4112 00ec 0910A0E1 		mov	r1, r9
 4113 00f0 FEFFFFEB 		bl	__aeabi_dadd
 4114 00f4 FEFFFFEB 		bl	__aeabi_d2f
 4115 00f8 0710A0E1 		mov	r1, r7
 4116 00fc FEFFFFEB 		bl	__aeabi_fadd
 4117 0100 040084E5 		str	r0, [r4, #4]	@ float
 4118 0104 1CD08DE2 		add	sp, sp, #28
 4119 0108 F04FBDE8 		ldmfd	sp!, {r4, r5, r6, r7, r8, r9, sl, fp, lr}
 4120 010c 1EFF2FE1 		bx	lr
 4122              		.section	.text.PolygonSurvey,"ax",%progbits
 4123              		.align	2
 4124              		.global	PolygonSurvey
 4126              	PolygonSurvey:
 4127              		@ Function supports interworking.
 4128              		@ args = 0, pretend = 0, frame = 32
 4129              		@ frame_needed = 0, uses_anonymous_args = 0
 4130 0000 F0389FE5 		ldr	r3, .L635
 4131 0004 F04F2DE9 		stmfd	sp!, {r4, r5, r6, r7, r8, r9, sl, fp, lr}
 4132 0008 0080A0E3 		mov	r8, #0
 4133 000c 0080C3E5 		strb	r8, [r3, #0]
 4134 0010 E4389FE5 		ldr	r3, .L635+4
 4135 0014 0070A0E3 		mov	r7, #0
 4136 0018 007083E5 		str	r7, [r3, #0]	@ float
 4137 001c DC389FE5 		ldr	r3, .L635+8
 4138 0020 0320A0E3 		mov	r2, #3
 4139 0024 0020C3E5 		strb	r2, [r3, #0]
 4140 0028 D4389FE5 		ldr	r3, .L635+12
 4141 002c D4289FE5 		ldr	r2, .L635+16
 4142 0030 0030D3E5 		ldrb	r3, [r3, #0]	@ zero_extendqisi2
 4143 0034 0C10A0E3 		mov	r1, #12
 4144 0038 912323E0 		mla	r3, r1, r3, r2
 4145 003c 082093E5 		ldr	r2, [r3, #8]	@ float
 4146 0040 C4389FE5 		ldr	r3, .L635+20
 4147 0044 002083E5 		str	r2, [r3, #0]	@ float
 4148 0048 C0389FE5 		ldr	r3, .L635+24
 4149 004c 007083E5 		str	r7, [r3, #0]	@ float
 4150 0050 BC389FE5 		ldr	r3, .L635+28
 4151 0054 0030D3E5 		ldrb	r3, [r3, #0]	@ zero_extendqisi2
 4152 0058 020053E3 		cmp	r3, #2
 4153 005c 2CD04DE2 		sub	sp, sp, #44
 4154 0060 8700000A 		beq	.L502
 4155 0064 030053E3 		cmp	r3, #3
 4156 0068 A601000A 		beq	.L503
 4157 006c 010053E3 		cmp	r3, #1
 4158 0070 0800A011 		movne	r0, r8
 4159 0074 1C02001A 		bne	.L500
 4160 0078 98389FE5 		ldr	r3, .L635+32
 4161 007c 002093E5 		ldr	r2, [r3, #0]	@ float
 4162 0080 043093E5 		ldr	r3, [r3, #4]	@ float
 4163 0084 14308DE5 		str	r3, [sp, #20]	@ float
 4164 0088 8C389FE5 		ldr	r3, .L635+36
 4165 008c 10208DE5 		str	r2, [sp, #16]	@ float
 4166 0090 10008DE2 		add	r0, sp, #16
 4167 0094 0710A0E1 		mov	r1, r7
 4168 0098 002093E5 		ldr	r2, [r3, #0]	@ float
 4169 009c 043093E5 		ldr	r3, [r3, #4]	@ float
 4170 00a0 FEFFFFEB 		bl	RotateAndTranslateToWorld
 4171 00a4 74389FE5 		ldr	r3, .L635+40
 4172 00a8 10008DE2 		add	r0, sp, #16
 4173 00ac 001093E5 		ldr	r1, [r3, #0]	@ float
 4174 00b0 0720A0E1 		mov	r2, r7
 4175 00b4 0730A0E1 		mov	r3, r7
 4176 00b8 FEFFFFEB 		bl	RotateAndTranslateToWorld
 4177 00bc 60389FE5 		ldr	r3, .L635+44
 4178 00c0 10009DE5 		ldr	r0, [sp, #16]	@ float
 4179 00c4 002093E5 		ldr	r2, [r3, #0]	@ float
 4180 00c8 14109DE5 		ldr	r1, [sp, #20]	@ float
 4181 00cc FEFFFFEB 		bl	nav_circle_XY
 4182 00d0 50389FE5 		ldr	r3, .L635+48
 4183 00d4 004093E5 		ldr	r4, [r3, #0]	@ float
 4184 00d8 4C389FE5 		ldr	r3, .L635+52
 4185 00dc 000093E5 		ldr	r0, [r3, #0]	@ float
 4186 00e0 FEFFFFEB 		bl	__aeabi_f2d
 4187 00e4 0020A0E1 		mov	r2, r0
 4188 00e8 0130A0E1 		mov	r3, r1
 4189 00ec 3C089FE5 		ldr	r0, .L635+56
 4190 00f0 3C189FE5 		ldr	r1, .L635+60
 4191 00f4 FEFFFFEB 		bl	__aeabi_dsub
 4192 00f8 38289FE5 		ldr	r2, .L635+64
 4193 00fc 38389FE5 		ldr	r3, .L635+68
 4194 0100 FEFFFFEB 		bl	__aeabi_dmul
 4195 0104 FEFFFFEB 		bl	__aeabi_d2f
 4196 0108 020000EA 		b	.L625
 4197              	.L507:
 4198 010c 0500A0E1 		mov	r0, r5
 4199 0110 28189FE5 		ldr	r1, .L635+72
 4200 0114 FEFFFFEB 		bl	__aeabi_fadd
 4201              	.L625:
 4202 0118 0010A0E3 		mov	r1, #0
 4203 011c 0050A0E1 		mov	r5, r0
 4204 0120 FEFFFFEB 		bl	__aeabi_fcmplt
 4205 0124 000050E3 		cmp	r0, #0
 4206 0128 FF6008E2 		and	r6, r8, #255
 4207 012c 0800000A 		beq	.L607
 4208 0130 018088E2 		add	r8, r8, #1
 4209 0134 010C58E3 		cmp	r8, #256
 4210 0138 F3FFFF1A 		bne	.L507
 4211 013c 0060A0E3 		mov	r6, #0
 4212 0140 030000EA 		b	.L607
 4213              	.L511:
 4214 0144 0500A0E1 		mov	r0, r5
 4215 0148 F0179FE5 		ldr	r1, .L635+72
 4216 014c FEFFFFEB 		bl	__aeabi_fsub
 4217 0150 0050A0E1 		mov	r5, r0
 4218              	.L607:
 4219 0154 0500A0E1 		mov	r0, r5
 4220 0158 E0179FE5 		ldr	r1, .L635+72
 4221 015c FEFFFFEB 		bl	__aeabi_fcmpge
 4222 0160 000050E3 		cmp	r0, #0
 4223 0164 0200000A 		beq	.L509
 4224 0168 016086E2 		add	r6, r6, #1
 4225 016c FF6016E2 		ands	r6, r6, #255
 4226 0170 F3FFFF1A 		bne	.L511
 4227              	.L509:
 4228 0174 0400A0E1 		mov	r0, r4
 4229 0178 0510A0E1 		mov	r1, r5
 4230 017c FEFFFFEB 		bl	__aeabi_fsub
 4231 0180 0050A0E3 		mov	r5, #0
 4232 0184 0040A0E1 		mov	r4, r0
 4233 0188 030000EA 		b	.L512
 4234              	.L515:
 4235 018c 0400A0E1 		mov	r0, r4
 4236 0190 A8179FE5 		ldr	r1, .L635+72
 4237 0194 FEFFFFEB 		bl	__aeabi_fadd
 4238 0198 0040A0E1 		mov	r4, r0
 4239              	.L512:
 4240 019c 0400A0E1 		mov	r0, r4
 4241 01a0 0010A0E3 		mov	r1, #0
 4242 01a4 FEFFFFEB 		bl	__aeabi_fcmplt
 4243 01a8 000050E3 		cmp	r0, #0
 4244 01ac FF6005E2 		and	r6, r5, #255
 4245 01b0 0700000A 		beq	.L608
 4246 01b4 015085E2 		add	r5, r5, #1
 4247 01b8 010C55E3 		cmp	r5, #256
 4248 01bc F2FFFF1A 		bne	.L515
 4249 01c0 0060A0E3 		mov	r6, #0
 4250 01c4 020000EA 		b	.L608
 4251              	.L519:
 4252 01c8 70179FE5 		ldr	r1, .L635+72
 4253 01cc FEFFFFEB 		bl	__aeabi_fsub
 4254 01d0 0040A0E1 		mov	r4, r0
 4255              	.L608:
 4256 01d4 0400A0E1 		mov	r0, r4
 4257 01d8 60179FE5 		ldr	r1, .L635+72
 4258 01dc FEFFFFEB 		bl	__aeabi_fcmpge
 4259 01e0 000050E3 		cmp	r0, #0
 4260 01e4 0400A0E1 		mov	r0, r4
 4261 01e8 0200000A 		beq	.L517
 4262 01ec 016086E2 		add	r6, r6, #1
 4263 01f0 FF6016E2 		ands	r6, r6, #255
 4264 01f4 F3FFFF1A 		bne	.L519
 4265              	.L517:
 4266 01f8 44179FE5 		ldr	r1, .L635+76
 4267 01fc FEFFFFEB 		bl	__aeabi_fcmpgt
 4268 0200 000050E3 		cmp	r0, #0
 4269 0204 0400001A 		bne	.L520
 4270 0208 0400A0E1 		mov	r0, r4
 4271 020c 34179FE5 		ldr	r1, .L635+80
 4272 0210 FEFFFFEB 		bl	__aeabi_fcmplt
 4273 0214 000050E3 		cmp	r0, #0
 4274 0218 B201000A 		beq	.L620
 4275              	.L520:
 4276 021c 28379FE5 		ldr	r3, .L635+84
 4277 0220 000093E5 		ldr	r0, [r3, #0]
 4278 0224 0201C0E3 		bic	r0, r0, #-2147483648
 4279 0228 FEFFFFEB 		bl	__aeabi_f2d
 4280 022c FC269FE5 		ldr	r2, .L635+56
 4281 0230 18379FE5 		ldr	r3, .L635+88
 4282 0234 FEFFFFEB 		bl	__aeabi_ddiv
 4283 0238 14279FE5 		ldr	r2, .L635+92
 4284 023c 14379FE5 		ldr	r3, .L635+96
 4285 0240 FEFFFFEB 		bl	__aeabi_dcmpgt
 4286 0244 000050E3 		cmp	r0, #0
 4287 0248 A601000A 		beq	.L620
 4288 024c FEFFFFEB 		bl	stateGetPositionEnu_f
 4289 0250 AC369FE5 		ldr	r3, .L635+12
 4290 0254 AC269FE5 		ldr	r2, .L635+16
 4291 0258 0030D3E5 		ldrb	r3, [r3, #0]	@ zero_extendqisi2
 4292 025c 0C10A0E3 		mov	r1, #12
 4293 0260 912323E0 		mla	r3, r1, r3, r2
 4294 0264 0040A0E1 		mov	r4, r0
 4295 0268 D8169FE5 		ldr	r1, .L635+80
 4296 026c 080093E5 		ldr	r0, [r3, #8]	@ float
 4297 0270 FEFFFFEB 		bl	__aeabi_fsub
 4298 0274 0010A0E1 		mov	r1, r0
 4299 0278 080094E5 		ldr	r0, [r4, #8]	@ float
 4300 027c FEFFFFEB 		bl	__aeabi_fcmpgt
 4301 0280 930100EA 		b	.L634
 4302              	.L502:
 4303 0284 D0469FE5 		ldr	r4, .L635+100
 4304 0288 003094E5 		ldr	r3, [r4, #0]	@ float
 4305 028c 18308DE5 		str	r3, [sp, #24]	@ float
 4306 0290 043094E5 		ldr	r3, [r4, #4]	@ float
 4307 0294 1C308DE5 		str	r3, [sp, #28]	@ float
 4308 0298 C0369FE5 		ldr	r3, .L635+104
 4309 029c 002093E5 		ldr	r2, [r3, #0]	@ float
 4310 02a0 043093E5 		ldr	r3, [r3, #4]	@ float
 4311 02a4 24308DE5 		str	r3, [sp, #36]	@ float
 4312 02a8 6C369FE5 		ldr	r3, .L635+36
 4313 02ac 005093E5 		ldr	r5, [r3, #0]	@ float
 4314 02b0 046093E5 		ldr	r6, [r3, #4]	@ float
 4315 02b4 20208DE5 		str	r2, [sp, #32]	@ float
 4316 02b8 18008DE2 		add	r0, sp, #24
 4317 02bc 0710A0E1 		mov	r1, r7
 4318 02c0 0520A0E1 		mov	r2, r5
 4319 02c4 0630A0E1 		mov	r3, r6
 4320 02c8 FEFFFFEB 		bl	RotateAndTranslateToWorld
 4321 02cc 4C369FE5 		ldr	r3, .L635+40
 4322 02d0 00A093E5 		ldr	sl, [r3, #0]	@ float
 4323 02d4 18008DE2 		add	r0, sp, #24
 4324 02d8 0A10A0E1 		mov	r1, sl
 4325 02dc 0720A0E1 		mov	r2, r7
 4326 02e0 0730A0E1 		mov	r3, r7
 4327 02e4 FEFFFFEB 		bl	RotateAndTranslateToWorld
 4328 02e8 20008DE2 		add	r0, sp, #32
 4329 02ec 0710A0E1 		mov	r1, r7
 4330 02f0 0520A0E1 		mov	r2, r5
 4331 02f4 0630A0E1 		mov	r3, r6
 4332 02f8 FEFFFFEB 		bl	RotateAndTranslateToWorld
 4333 02fc 20008DE2 		add	r0, sp, #32
 4334 0300 0A10A0E1 		mov	r1, sl
 4335 0304 0720A0E1 		mov	r2, r7
 4336 0308 0730A0E1 		mov	r3, r7
 4337 030c FEFFFFEB 		bl	RotateAndTranslateToWorld
 4338 0310 20009DE5 		ldr	r0, [sp, #32]	@ float
 4339 0314 24109DE5 		ldr	r1, [sp, #36]	@ float
 4340 0318 18209DE5 		ldr	r2, [sp, #24]	@ float
 4341 031c 1C309DE5 		ldr	r3, [sp, #28]	@ float
 4342 0320 FEFFFFEB 		bl	nav_route_xy
 4343 0324 18009DE5 		ldr	r0, [sp, #24]	@ float
 4344 0328 1C109DE5 		ldr	r1, [sp, #28]	@ float
 4345 032c 20209DE5 		ldr	r2, [sp, #32]	@ float
 4346 0330 24309DE5 		ldr	r3, [sp, #36]	@ float
 4347 0334 00708DE5 		str	r7, [sp, #0]	@ float
 4348 0338 FEFFFFEB 		bl	nav_approaching_xy
 4349 033c 000050E3 		cmp	r0, #0
 4350 0340 6801000A 		beq	.L620
 4351 0344 18969FE5 		ldr	r9, .L635+108
 4352 0348 18369FE5 		ldr	r3, .L635+112
 4353 034c 046094E5 		ldr	r6, [r4, #4]	@ float
 4354 0350 005094E5 		ldr	r5, [r4, #0]	@ float
 4355 0354 00A099E5 		ldr	sl, [r9, #0]	@ float
 4356 0358 005083E5 		str	r5, [r3, #0]	@ float
 4357 035c 046083E5 		str	r6, [r3, #4]	@ float
 4358 0360 0A10A0E1 		mov	r1, sl
 4359 0364 0600A0E1 		mov	r0, r6
 4360 0368 FEFFFFEB 		bl	__aeabi_fadd
 4361 036c F8359FE5 		ldr	r3, .L635+116
 4362 0370 001093E5 		ldr	r1, [r3, #0]	@ float
 4363 0374 0040A0E1 		mov	r4, r0
 4364 0378 FEFFFFEB 		bl	__aeabi_fcmpge
 4365 037c 000050E3 		cmp	r0, #0
 4366 0380 0500001A 		bne	.L524
 4367 0384 0400A0E1 		mov	r0, r4
 4368 0388 0710A0E1 		mov	r1, r7
 4369 038c FEFFFFEB 		bl	__aeabi_fcmple
 4370 0390 000050E3 		cmp	r0, #0
 4371 0394 08808D05 		streq	r8, [sp, #8]
 4372 0398 2800000A 		beq	.L525
 4373              	.L524:
 4374 039c 02718AE2 		add	r7, sl, #-2147483648
 4375 03a0 007089E5 		str	r7, [r9, #0]	@ float
 4376 03a4 0700A0E1 		mov	r0, r7
 4377 03a8 3F14A0E3 		mov	r1, #1056964608
 4378 03ac FEFFFFEB 		bl	__aeabi_fmul
 4379 03b0 0010A0E1 		mov	r1, r0
 4380 03b4 0600A0E1 		mov	r0, r6
 4381 03b8 FEFFFFEB 		bl	__aeabi_fadd
 4382 03bc 0010A0E3 		mov	r1, #0
 4383 03c0 0040A0E1 		mov	r4, r0
 4384 03c4 0700A0E1 		mov	r0, r7
 4385 03c8 FEFFFFEB 		bl	__aeabi_fcmpge
 4386 03cc 4C359FE5 		ldr	r3, .L635+40
 4387 03d0 000050E3 		cmp	r0, #0
 4388 03d4 4C759FE5 		ldr	r7, .L635+48
 4389 03d8 000093E5 		ldr	r0, [r3, #0]	@ float
 4390 03dc 0600000A 		beq	.L613
 4391 03e0 FEFFFFEB 		bl	__aeabi_f2d
 4392 03e4 4C259FE5 		ldr	r2, .L635+64
 4393 03e8 4C359FE5 		ldr	r3, .L635+68
 4394 03ec FEFFFFEB 		bl	__aeabi_dmul
 4395 03f0 FEFFFFEB 		bl	__aeabi_d2f
 4396 03f4 020180E2 		add	r0, r0, #-2147483648
 4397 03f8 090000EA 		b	.L626
 4398              	.L613:
 4399 03fc FEFFFFEB 		bl	__aeabi_f2d
 4400 0400 30259FE5 		ldr	r2, .L635+64
 4401 0404 30359FE5 		ldr	r3, .L635+68
 4402 0408 FEFFFFEB 		bl	__aeabi_dmul
 4403 040c 0020A0E1 		mov	r2, r0
 4404 0410 0130A0E1 		mov	r3, r1
 4405 0414 0000A0E3 		mov	r0, #0
 4406 0418 50159FE5 		ldr	r1, .L635+120
 4407 041c FEFFFFEB 		bl	__aeabi_dsub
 4408 0420 FEFFFFEB 		bl	__aeabi_d2f
 4409              	.L626:
 4410 0424 48359FE5 		ldr	r3, .L635+124
 4411 0428 B020D3E1 		ldrh	r2, [r3, #0]
 4412 042c 012082E2 		add	r2, r2, #1
 4413 0430 B020C3E1 		strh	r2, [r3, #0]	@ movhi
 4414 0434 0130A0E3 		mov	r3, #1
 4415 0438 000087E5 		str	r0, [r7, #0]	@ float
 4416 043c 08308DE5 		str	r3, [sp, #8]
 4417              	.L525:
 4418 0440 30359FE5 		ldr	r3, .L635+128
 4419 0444 0030D3E5 		ldrb	r3, [r3, #0]	@ zero_extendqisi2
 4420 0448 00A0A0E3 		mov	sl, #0
 4421 044c 0080A0E3 		mov	r8, #0
 4422 0450 0C308DE5 		str	r3, [sp, #12]
 4423 0454 0870A0E1 		mov	r7, r8
 4424 0458 0A90A0E1 		mov	r9, sl
 4425 045c 18B59FE5 		ldr	fp, .L635+132
 4426 0460 170000EA 		b	.L530
 4427              	.L534:
 4428 0464 14359FE5 		ldr	r3, .L635+136
 4429 0468 0410A0E1 		mov	r1, r4
 4430 046c 03009AE7 		ldr	r0, [sl, r3]	@ float
 4431 0470 FEFFFFEB 		bl	__aeabi_fcmplt
 4432 0474 000050E3 		cmp	r0, #0
 4433 0478 0F00000A 		beq	.L531
 4434 047c 00359FE5 		ldr	r3, .L635+140
 4435 0480 0410A0E1 		mov	r1, r4
 4436 0484 03009AE7 		ldr	r0, [sl, r3]	@ float
 4437 0488 FEFFFFEB 		bl	__aeabi_fcmpge
 4438 048c 000050E3 		cmp	r0, #0
 4439 0490 0900000A 		beq	.L531
 4440 0494 0C30A0E3 		mov	r3, #12
 4441 0498 930908E0 		mul	r8, r3, r9
 4442 049c 08308BE0 		add	r3, fp, r8
 4443 04a0 041093E5 		ldr	r1, [r3, #4]	@ float
 4444 04a4 0400A0E1 		mov	r0, r4
 4445 04a8 FEFFFFEB 		bl	__aeabi_fsub
 4446 04ac 08109BE7 		ldr	r1, [fp, r8]	@ float
 4447 04b0 FEFFFFEB 		bl	__aeabi_fdiv
 4448 04b4 0780A0E1 		mov	r8, r7
 4449 04b8 0070A0E1 		mov	r7, r0
 4450              	.L531:
 4451 04bc 019089E2 		add	r9, r9, #1
 4452 04c0 04A08AE2 		add	sl, sl, #4
 4453              	.L530:
 4454 04c4 0C309DE5 		ldr	r3, [sp, #12]
 4455 04c8 030059E1 		cmp	r9, r3
 4456 04cc E4FFFFBA 		blt	.L534
 4457 04d0 0510A0E1 		mov	r1, r5
 4458 04d4 0700A0E1 		mov	r0, r7
 4459 04d8 FEFFFFEB 		bl	__aeabi_fsub
 4460 04dc 0510A0E1 		mov	r1, r5
 4461 04e0 0090A0E1 		mov	r9, r0
 4462 04e4 0800A0E1 		mov	r0, r8
 4463 04e8 FEFFFFEB 		bl	__aeabi_fsub
 4464 04ec 00A0A0E1 		mov	sl, r0
 4465 04f0 0A10A0E1 		mov	r1, sl
 4466 04f4 0900A0E1 		mov	r0, r9
 4467 04f8 FEFFFFEB 		bl	__aeabi_fmul
 4468 04fc 0010A0E3 		mov	r1, #0
 4469 0500 FEFFFFEB 		bl	__aeabi_fcmpge
 4470 0504 000050E3 		cmp	r0, #0
 4471 0508 0B00000A 		beq	.L614
 4472 050c 0201CAE3 		bic	r0, sl, #-2147483648
 4473 0510 0211C9E3 		bic	r1, r9, #-2147483648
 4474 0514 FEFFFFEB 		bl	__aeabi_fcmple
 4475 0518 3C249FE5 		ldr	r2, .L635+100
 4476 051c 000050E3 		cmp	r0, #0
 4477 0520 38349FE5 		ldr	r3, .L635+104
 4478 0524 00708215 		strne	r7, [r2, #0]	@ float
 4479 0528 04408215 		strne	r4, [r2, #4]	@ float
 4480 052c 00808205 		streq	r8, [r2, #0]	@ float
 4481 0530 04408205 		streq	r4, [r2, #4]	@ float
 4482 0534 2700000A 		beq	.L631
 4483 0538 210000EA 		b	.L630
 4484              	.L614:
 4485 053c 1C949FE5 		ldr	r9, .L635+104
 4486 0540 0500A0E1 		mov	r0, r5
 4487 0544 001099E5 		ldr	r1, [r9, #0]	@ float
 4488 0548 FEFFFFEB 		bl	__aeabi_fsub
 4489 054c 0010A0E3 		mov	r1, #0
 4490 0550 00B0A0E1 		mov	fp, r0
 4491 0554 FEFFFFEB 		bl	__aeabi_fcmpgt
 4492 0558 000050E3 		cmp	r0, #0
 4493 055c 0A00000A 		beq	.L540
 4494 0560 0A00A0E1 		mov	r0, sl
 4495 0564 0010A0E3 		mov	r1, #0
 4496 0568 FEFFFFEB 		bl	__aeabi_fcmpgt
 4497 056c 000050E3 		cmp	r0, #0
 4498 0570 0500000A 		beq	.L540
 4499 0574 E0339FE5 		ldr	r3, .L635+100
 4500 0578 008089E5 		str	r8, [r9, #0]	@ float
 4501 057c 007083E5 		str	r7, [r3, #0]	@ float
 4502 0580 044083E5 		str	r4, [r3, #4]	@ float
 4503 0584 044089E5 		str	r4, [r9, #4]	@ float
 4504 0588 140000EA 		b	.L539
 4505              	.L540:
 4506 058c 0B00A0E1 		mov	r0, fp
 4507 0590 0010A0E3 		mov	r1, #0
 4508 0594 FEFFFFEB 		bl	__aeabi_fcmplt
 4509 0598 000050E3 		cmp	r0, #0
 4510 059c B8939FE5 		ldr	r9, .L635+100
 4511 05a0 0900000A 		beq	.L543
 4512 05a4 0A00A0E1 		mov	r0, sl
 4513 05a8 0010A0E3 		mov	r1, #0
 4514 05ac FEFFFFEB 		bl	__aeabi_fcmplt
 4515 05b0 000050E3 		cmp	r0, #0
 4516 05b4 0400000A 		beq	.L543
 4517 05b8 007089E5 		str	r7, [r9, #0]	@ float
 4518 05bc 044089E5 		str	r4, [r9, #4]	@ float
 4519 05c0 98339FE5 		ldr	r3, .L635+104
 4520              	.L630:
 4521 05c4 008083E5 		str	r8, [r3, #0]	@ float
 4522 05c8 030000EA 		b	.L627
 4523              	.L543:
 4524 05cc 008089E5 		str	r8, [r9, #0]	@ float
 4525 05d0 044089E5 		str	r4, [r9, #4]	@ float
 4526 05d4 84339FE5 		ldr	r3, .L635+104
 4527              	.L631:
 4528 05d8 007083E5 		str	r7, [r3, #0]	@ float
 4529              	.L627:
 4530 05dc 044083E5 		str	r4, [r3, #4]	@ float
 4531              	.L539:
 4532 05e0 74339FE5 		ldr	r3, .L635+100
 4533 05e4 008093E5 		ldr	r8, [r3, #0]	@ float
 4534 05e8 70339FE5 		ldr	r3, .L635+104
 4535 05ec 0810A0E1 		mov	r1, r8
 4536 05f0 0500A0E1 		mov	r0, r5
 4537 05f4 007093E5 		ldr	r7, [r3, #0]	@ float
 4538 05f8 FEFFFFEB 		bl	__aeabi_fsub
 4539 05fc 0810A0E1 		mov	r1, r8
 4540 0600 02A1C0E3 		bic	sl, r0, #-2147483648
 4541 0604 0700A0E1 		mov	r0, r7
 4542 0608 FEFFFFEB 		bl	__aeabi_fsub
 4543 060c 0211C0E3 		bic	r1, r0, #-2147483648
 4544 0610 0A00A0E1 		mov	r0, sl
 4545 0614 FEFFFFEB 		bl	__aeabi_fcmpgt
 4546 0618 F8A29FE5 		ldr	sl, .L635+32
 4547 061c 08309DE5 		ldr	r3, [sp, #8]
 4548 0620 000050E3 		cmp	r0, #0
 4549 0624 00508A15 		strne	r5, [sl, #0]	@ float
 4550 0628 00708A05 		streq	r7, [sl, #0]	@ float
 4551 062c 000053E3 		cmp	r3, #0
 4552 0630 04608A15 		strne	r6, [sl, #4]	@ float
 4553 0634 0700001A 		bne	.L550
 4554 0638 24339FE5 		ldr	r3, .L635+108
 4555 063c 3F14A0E3 		mov	r1, #1056964608
 4556 0640 000093E5 		ldr	r0, [r3, #0]	@ float
 4557 0644 FEFFFFEB 		bl	__aeabi_fmul
 4558 0648 0010A0E1 		mov	r1, r0
 4559 064c 0600A0E1 		mov	r0, r6
 4560 0650 FEFFFFEB 		bl	__aeabi_fadd
 4561 0654 04008AE5 		str	r0, [sl, #4]	@ float
 4562              	.L550:
 4563 0658 0400A0E1 		mov	r0, r4
 4564 065c 0010A0E3 		mov	r1, #0
 4565 0660 FEFFFFEB 		bl	__aeabi_fcmpgt
 4566 0664 000050E3 		cmp	r0, #0
 4567 0668 0B00000A 		beq	.L551
 4568 066c 0800A0E1 		mov	r0, r8
 4569 0670 0710A0E1 		mov	r1, r7
 4570 0674 FEFFFFEB 		bl	__aeabi_fcmpgt
 4571 0678 000050E3 		cmp	r0, #0
 4572 067c 0600000A 		beq	.L551
 4573 0680 DC329FE5 		ldr	r3, .L635+108
 4574 0684 3F14A0E3 		mov	r1, #1056964608
 4575 0688 000093E5 		ldr	r0, [r3, #0]	@ float
 4576 068c FEFFFFEB 		bl	__aeabi_fmul
 4577 0690 8C329FE5 		ldr	r3, .L635+44
 4578 0694 000083E5 		str	r0, [r3, #0]	@ float
 4579 0698 110000EA 		b	.L554
 4580              	.L551:
 4581 069c 0400A0E1 		mov	r0, r4
 4582 06a0 0010A0E3 		mov	r1, #0
 4583 06a4 FEFFFFEB 		bl	__aeabi_fcmplt
 4584 06a8 000050E3 		cmp	r0, #0
 4585 06ac 70429FE5 		ldr	r4, .L635+44
 4586 06b0 AC529FE5 		ldr	r5, .L635+108
 4587 06b4 0500000A 		beq	.L555
 4588 06b8 0800A0E1 		mov	r0, r8
 4589 06bc 0710A0E1 		mov	r1, r7
 4590 06c0 FEFFFFEB 		bl	__aeabi_fcmplt
 4591 06c4 000050E3 		cmp	r0, #0
 4592 06c8 00009515 		ldrne	r0, [r5, #0]	@ float
 4593 06cc 0100001A 		bne	.L628
 4594              	.L555:
 4595 06d0 000095E5 		ldr	r0, [r5, #0]
 4596 06d4 020180E2 		add	r0, r0, #-2147483648
 4597              	.L628:
 4598 06d8 3F14A0E3 		mov	r1, #1056964608
 4599 06dc FEFFFFEB 		bl	__aeabi_fmul
 4600 06e0 000084E5 		str	r0, [r4, #0]	@ float
 4601              	.L554:
 4602 06e4 28329FE5 		ldr	r3, .L635+28
 4603 06e8 0320A0E3 		mov	r2, #3
 4604 06ec 0020C3E5 		strb	r2, [r3, #0]
 4605 06f0 FEFFFFEB 		bl	nav_init_stage
 4606 06f4 8C329FE5 		ldr	r3, .L635+144
 4607 06f8 B020D3E1 		ldrh	r2, [r3, #0]
 4608 06fc 012082E2 		add	r2, r2, #1
 4609 0700 B020C3E1 		strh	r2, [r3, #0]	@ movhi
 4610 0704 770000EA 		b	.L620
 4611              	.L503:
 4612 0708 08329FE5 		ldr	r3, .L635+32
 4613 070c 002093E5 		ldr	r2, [r3, #0]	@ float
 4614 0710 043093E5 		ldr	r3, [r3, #4]	@ float
 4615 0714 14308DE5 		str	r3, [sp, #20]	@ float
 4616 0718 FC319FE5 		ldr	r3, .L635+36
 4617 071c 10208DE5 		str	r2, [sp, #16]	@ float
 4618 0720 10008DE2 		add	r0, sp, #16
 4619 0724 0710A0E1 		mov	r1, r7
 4620 0728 002093E5 		ldr	r2, [r3, #0]	@ float
 4621 072c 043093E5 		ldr	r3, [r3, #4]	@ float
 4622 0730 FEFFFFEB 		bl	RotateAndTranslateToWorld
 4623 0734 E4319FE5 		ldr	r3, .L635+40
 4624 0738 10008DE2 		add	r0, sp, #16
 4625 073c 001093E5 		ldr	r1, [r3, #0]	@ float
 4626 0740 0720A0E1 		mov	r2, r7
 4627 0744 0730A0E1 		mov	r3, r7
 4628 0748 FEFFFFEB 		bl	RotateAndTranslateToWorld
 4629 074c D0319FE5 		ldr	r3, .L635+44
 4630 0750 10009DE5 		ldr	r0, [sp, #16]	@ float
 4631 0754 002093E5 		ldr	r2, [r3, #0]	@ float
 4632 0758 14109DE5 		ldr	r1, [sp, #20]	@ float
 4633 075c FEFFFFEB 		bl	nav_circle_XY
 4634 0760 C0319FE5 		ldr	r3, .L635+48
 4635 0764 004093E5 		ldr	r4, [r3, #0]	@ float
 4636 0768 BC319FE5 		ldr	r3, .L635+52
 4637 076c 000093E5 		ldr	r0, [r3, #0]	@ float
 4638 0770 FEFFFFEB 		bl	__aeabi_f2d
 4639 0774 0020A0E1 		mov	r2, r0
 4640 0778 0130A0E1 		mov	r3, r1
 4641 077c AC019FE5 		ldr	r0, .L635+56
 4642 0780 AC119FE5 		ldr	r1, .L635+60
 4643 0784 FEFFFFEB 		bl	__aeabi_dsub
 4644 0788 A8219FE5 		ldr	r2, .L635+64
 4645 078c A8319FE5 		ldr	r3, .L635+68
 4646 0790 FEFFFFEB 		bl	__aeabi_dmul
 4647 0794 FEFFFFEB 		bl	__aeabi_d2f
 4648 0798 020000EA 		b	.L629
 4649              	.L561:
 4650 079c 0500A0E1 		mov	r0, r5
 4651 07a0 98119FE5 		ldr	r1, .L635+72
 4652 07a4 FEFFFFEB 		bl	__aeabi_fadd
 4653              	.L629:
 4654 07a8 0010A0E3 		mov	r1, #0
 4655 07ac 0050A0E1 		mov	r5, r0
 4656 07b0 FEFFFFEB 		bl	__aeabi_fcmplt
 4657 07b4 000050E3 		cmp	r0, #0
 4658 07b8 FF6008E2 		and	r6, r8, #255
 4659 07bc 0800000A 		beq	.L617
 4660 07c0 018088E2 		add	r8, r8, #1
 4661 07c4 010C58E3 		cmp	r8, #256
 4662 07c8 F3FFFF1A 		bne	.L561
 4663 07cc 0060A0E3 		mov	r6, #0
 4664 07d0 030000EA 		b	.L617
 4665              	.L565:
 4666 07d4 0500A0E1 		mov	r0, r5
 4667 07d8 60119FE5 		ldr	r1, .L635+72
 4668 07dc FEFFFFEB 		bl	__aeabi_fsub
 4669 07e0 0050A0E1 		mov	r5, r0
 4670              	.L617:
 4671 07e4 0500A0E1 		mov	r0, r5
 4672 07e8 50119FE5 		ldr	r1, .L635+72
 4673 07ec FEFFFFEB 		bl	__aeabi_fcmpge
 4674 07f0 000050E3 		cmp	r0, #0
 4675 07f4 0200000A 		beq	.L563
 4676 07f8 016086E2 		add	r6, r6, #1
 4677 07fc FF6016E2 		ands	r6, r6, #255
 4678 0800 F3FFFF1A 		bne	.L565
 4679              	.L563:
 4680 0804 0400A0E1 		mov	r0, r4
 4681 0808 0510A0E1 		mov	r1, r5
 4682 080c FEFFFFEB 		bl	__aeabi_fsub
 4683 0810 0050A0E3 		mov	r5, #0
 4684 0814 0040A0E1 		mov	r4, r0
 4685 0818 030000EA 		b	.L566
 4686              	.L569:
 4687 081c 0400A0E1 		mov	r0, r4
 4688 0820 18119FE5 		ldr	r1, .L635+72
 4689 0824 FEFFFFEB 		bl	__aeabi_fadd
 4690 0828 0040A0E1 		mov	r4, r0
 4691              	.L566:
 4692 082c 0400A0E1 		mov	r0, r4
 4693 0830 0010A0E3 		mov	r1, #0
 4694 0834 FEFFFFEB 		bl	__aeabi_fcmplt
 4695 0838 000050E3 		cmp	r0, #0
 4696 083c FF6005E2 		and	r6, r5, #255
 4697 0840 0700000A 		beq	.L618
 4698 0844 015085E2 		add	r5, r5, #1
 4699 0848 010C55E3 		cmp	r5, #256
 4700 084c F2FFFF1A 		bne	.L569
 4701 0850 0060A0E3 		mov	r6, #0
 4702 0854 020000EA 		b	.L618
 4703              	.L573:
 4704 0858 E0109FE5 		ldr	r1, .L635+72
 4705 085c FEFFFFEB 		bl	__aeabi_fsub
 4706 0860 0040A0E1 		mov	r4, r0
 4707              	.L618:
 4708 0864 0400A0E1 		mov	r0, r4
 4709 0868 D0109FE5 		ldr	r1, .L635+72
 4710 086c FEFFFFEB 		bl	__aeabi_fcmpge
 4711 0870 000050E3 		cmp	r0, #0
 4712 0874 0400A0E1 		mov	r0, r4
 4713 0878 0200000A 		beq	.L571
 4714 087c 016086E2 		add	r6, r6, #1
 4715 0880 FF6016E2 		ands	r6, r6, #255
 4716 0884 F3FFFF1A 		bne	.L573
 4717              	.L571:
 4718 0888 B4109FE5 		ldr	r1, .L635+76
 4719 088c FEFFFFEB 		bl	__aeabi_fcmpgt
 4720 0890 000050E3 		cmp	r0, #0
 4721 0894 0400001A 		bne	.L574
 4722 0898 0400A0E1 		mov	r0, r4
 4723 089c A4109FE5 		ldr	r1, .L635+80
 4724 08a0 FEFFFFEB 		bl	__aeabi_fcmplt
 4725 08a4 000050E3 		cmp	r0, #0
 4726 08a8 0E00000A 		beq	.L620
 4727              	.L574:
 4728 08ac 98309FE5 		ldr	r3, .L635+84
 4729 08b0 000093E5 		ldr	r0, [r3, #0]
 4730 08b4 0201C0E3 		bic	r0, r0, #-2147483648
 4731 08b8 FEFFFFEB 		bl	__aeabi_f2d
 4732 08bc 6C209FE5 		ldr	r2, .L635+56
 4733 08c0 88309FE5 		ldr	r3, .L635+88
 4734 08c4 FEFFFFEB 		bl	__aeabi_ddiv
 4735 08c8 0020A0E3 		mov	r2, #0
 4736 08cc 0030A0E3 		mov	r3, #0
 4737 08d0 FEFFFFEB 		bl	__aeabi_dcmpgt
 4738              	.L634:
 4739 08d4 000050E3 		cmp	r0, #0
 4740 08d8 34309F15 		ldrne	r3, .L635+28
 4741 08dc 0220A013 		movne	r2, #2
 4742 08e0 0020C315 		strneb	r2, [r3, #0]
 4743 08e4 FEFFFF1B 		blne	nav_init_stage
 4744              	.L620:
 4745 08e8 0100A0E3 		mov	r0, #1
 4746              	.L500:
 4747 08ec 2CD08DE2 		add	sp, sp, #44
 4748 08f0 F04FBDE8 		ldmfd	sp!, {r4, r5, r6, r7, r8, r9, sl, fp, lr}
 4749 08f4 1EFF2FE1 		bx	lr
 4750              	.L636:
 4751              		.align	2
 4752              	.L635:
 4753 08f8 00000000 		.word	v_ctl_climb_mode
 4754 08fc 00000000 		.word	nav_pitch
 4755 0900 00000000 		.word	v_ctl_mode
 4756 0904 00000000 		.word	.LANCHOR46
 4757 0908 00000000 		.word	waypoints
 4758 090c 00000000 		.word	nav_altitude
 4759 0910 00000000 		.word	v_ctl_altitude_pre_climb
 4760 0914 00000000 		.word	.LANCHOR48
 4761 0918 00000000 		.word	.LANCHOR59
 4762 091c 00000000 		.word	.LANCHOR44
 4763 0920 00000000 		.word	.LANCHOR45
 4764 0924 00000000 		.word	.LANCHOR58
 4765 0928 00000000 		.word	.LANCHOR55
 4766 092c 00000000 		.word	nav_circle_trigo_qdr
 4767 0930 182D4454 		.word	1413754136
 4768 0934 FB21F93F 		.word	1073291771
 4769 0938 F8C1631A 		.word	442745336
 4770 093c DCA54C40 		.word	1078765020
 4771 0940 0000B443 		.word	1135869952
 4772 0944 0000AF43 		.word	1135542272
 4773 0948 00002041 		.word	1092616192
 4774 094c 00000000 		.word	nav_circle_radians
 4775 0950 FB211940 		.word	1075388923
 4776 0954 9A999999 		.word	-1717986918
 4777 0958 9999B93F 		.word	1069128089
 4778 095c 00000000 		.word	.LANCHOR56
 4779 0960 00000000 		.word	.LANCHOR57
 4780 0964 00000000 		.word	.LANCHOR54
 4781 0968 00000000 		.word	.LANCHOR60
 4782 096c 00000000 		.word	.LANCHOR50
 4783 0970 00806640 		.word	1080459264
 4784 0974 00000000 		.word	PolySurveySweepBackNum
 4785 0978 00000000 		.word	.LANCHOR47
 4786 097c 00000000 		.word	.LANCHOR51
 4787 0980 00000000 		.word	.LANCHOR53
 4788 0984 00000000 		.word	.LANCHOR52
 4789 0988 00000000 		.word	PolySurveySweepNum
 4791              		.section	.text.FindInterceptOfTwoLines,"ax",%progbits
 4792              		.align	2
 4793              		.global	FindInterceptOfTwoLines
 4795              	FindInterceptOfTwoLines:
 4796              		@ Function supports interworking.
 4797              		@ args = 24, pretend = 8, frame = 0
 4798              		@ frame_needed = 0, uses_anonymous_args = 0
 4799 0000 08D04DE2 		sub	sp, sp, #8
 4800 0004 F0412DE9 		stmfd	sp!, {r4, r5, r6, r7, r8, lr}
 4801 0008 0140A0E1 		mov	r4, r1
 4802 000c 14108DE2 		add	r1, sp, #20
 4803 0010 0C0081E9 		stmib	r1, {r2, r3}
 4804 0014 1C609DE5 		ldr	r6, [sp, #28]	@ float
 4805 0018 0050A0E1 		mov	r5, r0
 4806 001c 0610A0E1 		mov	r1, r6
 4807 0020 28009DE5 		ldr	r0, [sp, #40]	@ float
 4808 0024 FEFFFFEB 		bl	__aeabi_fsub
 4809 0028 18709DE5 		ldr	r7, [sp, #24]	@ float
 4810 002c 0080A0E1 		mov	r8, r0
 4811 0030 24109DE5 		ldr	r1, [sp, #36]	@ float
 4812 0034 0700A0E1 		mov	r0, r7
 4813 0038 FEFFFFEB 		bl	__aeabi_fsub
 4814 003c 0010A0E1 		mov	r1, r0
 4815 0040 0800A0E1 		mov	r0, r8
 4816 0044 FEFFFFEB 		bl	__aeabi_fdiv
 4817 0048 0010A0E1 		mov	r1, r0
 4818 004c 000085E5 		str	r0, [r5, #0]	@ float
 4819 0050 0700A0E1 		mov	r0, r7
 4820 0054 FEFFFFEB 		bl	__aeabi_fmul
 4821 0058 0610A0E1 		mov	r1, r6
 4822 005c FEFFFFEB 		bl	__aeabi_fadd
 4823 0060 000084E5 		str	r0, [r4, #0]	@ float
 4824 0064 F041BDE8 		ldmfd	sp!, {r4, r5, r6, r7, r8, lr}
 4825 0068 08D08DE2 		add	sp, sp, #8
 4826 006c 1EFF2FE1 		bx	lr
 4828              		.section	.text.EvaluateLineForY,"ax",%progbits
 4829              		.align	2
 4830              		.global	EvaluateLineForY
 4832              	EvaluateLineForY:
 4833              		@ Function supports interworking.
 4834              		@ args = 0, pretend = 0, frame = 16
 4835              		@ frame_needed = 0, uses_anonymous_args = 0
 4836 0000 1F402DE9 		stmfd	sp!, {r0, r1, r2, r3, r4, lr}
 4837 0004 10C08DE2 		add	ip, sp, #16
 4838 0008 0E000CE9 		stmdb	ip, {r1, r2, r3}
 4839 000c 04109DE5 		ldr	r1, [sp, #4]	@ float
 4840 0010 FEFFFFEB 		bl	__aeabi_fmul
 4841 0014 08109DE5 		ldr	r1, [sp, #8]	@ float
 4842 0018 FEFFFFEB 		bl	__aeabi_fadd
 4843 001c 14D08DE2 		add	sp, sp, #20
 4844 0020 04E09DE4 		ldr	lr, [sp], #4
 4845 0024 1EFF2FE1 		bx	lr
 4847              		.section	.text.EvaluateLineForX,"ax",%progbits
 4848              		.align	2
 4849              		.global	EvaluateLineForX
 4851              	EvaluateLineForX:
 4852              		@ Function supports interworking.
 4853              		@ args = 0, pretend = 0, frame = 16
 4854              		@ frame_needed = 0, uses_anonymous_args = 0
 4855 0000 1F402DE9 		stmfd	sp!, {r0, r1, r2, r3, r4, lr}
 4856 0004 10C08DE2 		add	ip, sp, #16
 4857 0008 0E000CE9 		stmdb	ip, {r1, r2, r3}
 4858 000c 08109DE5 		ldr	r1, [sp, #8]	@ float
 4859 0010 FEFFFFEB 		bl	__aeabi_fsub
 4860 0014 04109DE5 		ldr	r1, [sp, #4]	@ float
 4861 0018 FEFFFFEB 		bl	__aeabi_fdiv
 4862 001c 14D08DE2 		add	sp, sp, #20
 4863 0020 04E09DE4 		ldr	lr, [sp], #4
 4864 0024 1EFF2FE1 		bx	lr
 4866              		.section	.text.DistanceEquation,"ax",%progbits
 4867              		.align	2
 4868              		.global	DistanceEquation
 4870              	DistanceEquation:
 4871              		@ Function supports interworking.
 4872              		@ args = 0, pretend = 0, frame = 16
 4873              		@ frame_needed = 0, uses_anonymous_args = 0
 4874 0000 30402DE9 		stmfd	sp!, {r4, r5, lr}
 4875 0004 14D04DE2 		sub	sp, sp, #20
 4876 0008 10C08DE2 		add	ip, sp, #16
 4877 000c 03000CE9 		stmdb	ip, {r0, r1}
 4878 0010 0C008DE8 		stmia	sp, {r2, r3}
 4879 0014 08009DE5 		ldr	r0, [sp, #8]	@ float
 4880 0018 00109DE5 		ldr	r1, [sp, #0]	@ float
 4881 001c FEFFFFEB 		bl	__aeabi_fsub
 4882 0020 04109DE5 		ldr	r1, [sp, #4]	@ float
 4883 0024 0040A0E1 		mov	r4, r0
 4884 0028 0C009DE5 		ldr	r0, [sp, #12]	@ float
 4885 002c FEFFFFEB 		bl	__aeabi_fsub
 4886 0030 0410A0E1 		mov	r1, r4
 4887 0034 0050A0E1 		mov	r5, r0
 4888 0038 0400A0E1 		mov	r0, r4
 4889 003c FEFFFFEB 		bl	__aeabi_fmul
 4890 0040 0510A0E1 		mov	r1, r5
 4891 0044 0040A0E1 		mov	r4, r0
 4892 0048 0500A0E1 		mov	r0, r5
 4893 004c FEFFFFEB 		bl	__aeabi_fmul
 4894 0050 0010A0E1 		mov	r1, r0
 4895 0054 0400A0E1 		mov	r0, r4
 4896 0058 FEFFFFEB 		bl	__aeabi_fadd
 4897 005c FEFFFFEB 		bl	__aeabi_f2d
 4898 0060 FEFFFFEB 		bl	sqrt
 4899 0064 FEFFFFEB 		bl	__aeabi_d2f
 4900 0068 14D08DE2 		add	sp, sp, #20
 4901 006c 3040BDE8 		ldmfd	sp!, {r4, r5, lr}
 4902 0070 1EFF2FE1 		bx	lr
 4904              		.comm	PolySurveySweepBackNum,2,2
 4905              		.comm	PolySurveySweepNum,2,2
 4906              		.section	.bss.DistanceFromCenter,"aw",%nobits
 4907              		.align	2
 4908              		.set	.LANCHOR7,. + 0
 4911              	DistanceFromCenter:
 4912 0000 00000000 		.space	4
 4913              		.section	.bss.EdgeMinY,"aw",%nobits
 4914              		.align	2
 4915              		.set	.LANCHOR53,. + 0
 4918              	EdgeMinY:
 4919 0000 00000000 		.space	40
 4919      00000000 
 4919      00000000 
 4919      00000000 
 4919      00000000 
 4920              		.section	.bss.SurveyTheta,"aw",%nobits
 4921              		.align	2
 4922              		.set	.LANCHOR45,. + 0
 4925              	SurveyTheta:
 4926 0000 00000000 		.space	4
 4927              		.section	.bss.SurveyCircleQdr,"aw",%nobits
 4928              		.align	2
 4929              		.set	.LANCHOR55,. + 0
 4932              	SurveyCircleQdr:
 4933 0000 00000000 		.space	4
 4934              		.section	.bss.EntryPoint.3974,"aw",%nobits
 4935              		.align	2
 4936              		.set	.LANCHOR49,. + 0
 4939              	EntryPoint.3974:
 4940 0000 00000000 		.space	8
 4940      00000000 
 4941              		.section	.bss.FlyFromX,"aw",%nobits
 4942              		.align	2
 4943              		.set	.LANCHOR11,. + 0
 4946              	FlyFromX:
 4947 0000 00000000 		.space	4
 4948              		.section	.bss.FlyFromY,"aw",%nobits
 4949              		.align	2
 4950              		.set	.LANCHOR12,. + 0
 4953              	FlyFromY:
 4954 0000 00000000 		.space	4
 4955              		.section	.bss.FLBlockCount,"aw",%nobits
 4956              		.set	.LANCHOR43,. + 0
 4959              	FLBlockCount:
 4960 0000 00       		.space	1
 4961              		.section	.bss.LandAppAlt,"aw",%nobits
 4962              		.align	2
 4963              		.set	.LANCHOR31,. + 0
 4966              	LandAppAlt:
 4967 0000 00000000 		.space	4
 4968              		.section	.bss.SurveyCircle,"aw",%nobits
 4969              		.align	2
 4970              		.set	.LANCHOR59,. + 0
 4973              	SurveyCircle:
 4974 0000 00000000 		.space	8
 4974      00000000 
 4975              		.section	.bss.Fly2X,"aw",%nobits
 4976              		.align	2
 4977              		.set	.LANCHOR9,. + 0
 4980              	Fly2X:
 4981 0000 00000000 		.space	4
 4982              		.section	.bss.Fly2Y,"aw",%nobits
 4983              		.align	2
 4984              		.set	.LANCHOR10,. + 0
 4987              	Fly2Y:
 4988 0000 00000000 		.space	4
 4989              		.section	.bss.Flowerradius,"aw",%nobits
 4990              		.align	2
 4991              		.set	.LANCHOR4,. + 0
 4994              	Flowerradius:
 4995 0000 00000000 		.space	4
 4996              		.section	.bss.SurveySize,"aw",%nobits
 4997              		.set	.LANCHOR47,. + 0
 5000              	SurveySize:
 5001 0000 00       		.space	1
 5002              		.section	.bss.LandCircle,"aw",%nobits
 5003              		.align	2
 5004              		.set	.LANCHOR34,. + 0
 5007              	LandCircle:
 5008 0000 00000000 		.space	8
 5008      00000000 
 5009              		.section	.bss.TDWaypoint,"aw",%nobits
 5010              		.set	.LANCHOR28,. + 0
 5013              	TDWaypoint:
 5014 0000 00       		.space	1
 5015              		.section	.bss.line_status,"aw",%nobits
 5016              		.set	.LANCHOR26,. + 0
 5019              	line_status:
 5020 0000 00       		.space	1
 5021              		.section	.bss.FLCircle,"aw",%nobits
 5022              		.align	2
 5023              		.set	.LANCHOR42,. + 0
 5026              	FLCircle:
 5027 0000 00000000 		.space	8
 5027      00000000 
 5028              		.section	.bss.FLFROMWP,"aw",%nobits
 5029              		.align	2
 5030              		.set	.LANCHOR40,. + 0
 5033              	FLFROMWP:
 5034 0000 00000000 		.space	8
 5034      00000000 
 5035              		.section	.bss.EdgeCurrentX,"aw",%nobits
 5036              		.align	2
 5037              		.set	.LANCHOR2,. + 0
 5040              	EdgeCurrentX:
 5041 0000 00000000 		.space	4
 5042              		.section	.bss.Edge,"aw",%nobits
 5043              		.set	.LANCHOR1,. + 0
 5046              	Edge:
 5047 0000 00       		.space	1
 5048              		.section	.bss.EdgeCurrentY,"aw",%nobits
 5049              		.align	2
 5050              		.set	.LANCHOR3,. + 0
 5053              	EdgeCurrentY:
 5054 0000 00000000 		.space	4
 5055              		.section	.bss.BungeeAlt,"aw",%nobits
 5056              		.align	2
 5057              		.set	.LANCHOR20,. + 0
 5060              	BungeeAlt:
 5061 0000 00000000 		.space	4
 5062              		.section	.bss.LastPoint.4012,"aw",%nobits
 5063              		.align	2
 5064              		.set	.LANCHOR60,. + 0
 5067              	LastPoint.4012:
 5068 0000 00000000 		.space	8
 5068      00000000 
 5069              		.section	.bss.ThrottleSlope,"aw",%nobits
 5070              		.align	2
 5071              		.set	.LANCHOR23,. + 0
 5074              	ThrottleSlope:
 5075 0000 00000000 		.space	4
 5076              		.section	.bss.throttlePy,"aw",%nobits
 5077              		.align	2
 5078              		.set	.LANCHOR22,. + 0
 5081              	throttlePy:
 5082 0000 00000000 		.space	4
 5083              		.section	.bss.Edges,"aw",%nobits
 5084              		.align	2
 5085              		.set	.LANCHOR51,. + 0
 5088              	Edges:
 5089 0000 00000000 		.space	120
 5089      00000000 
 5089      00000000 
 5089      00000000 
 5089      00000000 
 5090              		.section	.bss.throttlePx,"aw",%nobits
 5091              		.align	2
 5092              		.set	.LANCHOR21,. + 0
 5095              	throttlePx:
 5096 0000 00000000 		.space	4
 5097              		.section	.bss.TDistance,"aw",%nobits
 5098              		.align	2
 5099              		.set	.LANCHOR19,. + 0
 5102              	TDistance:
 5103 0000 00000000 		.space	4
 5104              		.section	.bss.FinalLandAltitude,"aw",%nobits
 5105              		.align	2
 5106              		.set	.LANCHOR32,. + 0
 5109              	FinalLandAltitude:
 5110 0000 00000000 		.space	4
 5111              		.section	.bss.LandCircleQDR,"aw",%nobits
 5112              		.align	2
 5113              		.set	.LANCHOR35,. + 0
 5116              	LandCircleQDR:
 5117 0000 00000000 		.space	4
 5118              		.section	.bss.SurveyEntryWP,"aw",%nobits
 5119              		.set	.LANCHOR46,. + 0
 5122              	SurveyEntryWP:
 5123 0000 00       		.space	1
 5124              		.section	.bss.CircleX,"aw",%nobits
 5125              		.align	2
 5126              		.set	.LANCHOR14,. + 0
 5129              	CircleX:
 5130 0000 00000000 		.space	4
 5131              		.section	.bss.CircleY,"aw",%nobits
 5132              		.align	2
 5133              		.set	.LANCHOR15,. + 0
 5136              	CircleY:
 5137 0000 00000000 		.space	4
 5138              		.section	.bss.CFLStatus,"aw",%nobits
 5139              		.set	.LANCHOR37,. + 0
 5142              	CFLStatus:
 5143 0000 00       		.space	1
 5144              		.section	.bss.BungeeWaypoint,"aw",%nobits
 5145              		.set	.LANCHOR18,. + 0
 5148              	BungeeWaypoint:
 5149 0000 00       		.space	1
 5150              		.section	.bss.FinalLandCount,"aw",%nobits
 5151              		.set	.LANCHOR33,. + 0
 5154              	FinalLandCount:
 5155 0000 00       		.space	1
 5156              		.section	.bss.dSweep,"aw",%nobits
 5157              		.align	2
 5158              		.set	.LANCHOR54,. + 0
 5161              	dSweep:
 5162 0000 00000000 		.space	4
 5163              		.section	.bss.FlowerTheta,"aw",%nobits
 5164              		.align	2
 5165              		.set	.LANCHOR8,. + 0
 5168              	FlowerTheta:
 5169 0000 00000000 		.space	4
 5170              		.section	.bss.AFWaypoint,"aw",%nobits
 5171              		.set	.LANCHOR27,. + 0
 5174              	AFWaypoint:
 5175 0000 00       		.space	1
 5176              		.section	.bss.TransCurrentX,"aw",%nobits
 5177              		.align	2
 5178              		.set	.LANCHOR5,. + 0
 5181              	TransCurrentX:
 5182 0000 00000000 		.space	4
 5183              		.section	.bss.CLandingStatus,"aw",%nobits
 5184              		.set	.LANCHOR29,. + 0
 5187              	CLandingStatus:
 5188 0000 00       		.space	1
 5189              		.section	.bss.initialx,"aw",%nobits
 5190              		.align	2
 5191              		.set	.LANCHOR16,. + 0
 5194              	initialx:
 5195 0000 00000000 		.space	4
 5196              		.section	.bss.initialy,"aw",%nobits
 5197              		.align	2
 5198              		.set	.LANCHOR17,. + 0
 5201              	initialy:
 5202 0000 00000000 		.space	4
 5203              		.section	.bss.EdgeMaxY,"aw",%nobits
 5204              		.align	2
 5205              		.set	.LANCHOR52,. + 0
 5208              	EdgeMaxY:
 5209 0000 00000000 		.space	40
 5209      00000000 
 5209      00000000 
 5209      00000000 
 5209      00000000 
 5210              		.section	.bss.CTakeoffStatus,"aw",%nobits
 5211              		.set	.LANCHOR25,. + 0
 5214              	CTakeoffStatus:
 5215 0000 00       		.space	1
 5216              		.section	.bss.TransCurrentY,"aw",%nobits
 5217              		.align	2
 5218              		.set	.LANCHOR6,. + 0
 5221              	TransCurrentY:
 5222 0000 00000000 		.space	4
 5223              		.section	.bss.SmallestCorner,"aw",%nobits
 5224              		.align	2
 5225              		.set	.LANCHOR44,. + 0
 5228              	SmallestCorner:
 5229 0000 00000000 		.space	8
 5229      00000000 
 5230              		.section	.bss.CFlowerStatus,"aw",%nobits
 5231              		.set	.LANCHOR13,. + 0
 5234              	CFlowerStatus:
 5235 0000 00       		.space	1
 5236              		.section	.bss.SurveyFromWP,"aw",%nobits
 5237              		.align	2
 5238              		.set	.LANCHOR57,. + 0
 5241              	SurveyFromWP:
 5242 0000 00000000 		.space	8
 5242      00000000 
 5243              		.section	.bss.SurveyToWP,"aw",%nobits
 5244              		.align	2
 5245              		.set	.LANCHOR56,. + 0
 5248              	SurveyToWP:
 5249 0000 00000000 		.space	8
 5249      00000000 
 5250              		.section	.bss.MaxY,"aw",%nobits
 5251              		.align	2
 5252              		.set	.LANCHOR50,. + 0
 5255              	MaxY:
 5256 0000 00000000 		.space	4
 5257              		.section	.bss.FLTOWP,"aw",%nobits
 5258              		.align	2
 5259              		.set	.LANCHOR41,. + 0
 5262              	FLTOWP:
 5263 0000 00000000 		.space	8
 5263      00000000 
 5264              		.section	.bss.LandRadius,"aw",%nobits
 5265              		.align	2
 5266              		.set	.LANCHOR30,. + 0
 5269              	LandRadius:
 5270 0000 00000000 		.space	4
 5271              		.section	.bss.Center,"aw",%nobits
 5272              		.set	.LANCHOR0,. + 0
 5275              	Center:
 5276 0000 00       		.space	1
 5277              		.section	.bss.FLQDR,"aw",%nobits
 5278              		.align	2
 5279              		.set	.LANCHOR39,. + 0
 5282              	FLQDR:
 5283 0000 00000000 		.space	4
 5284              		.section	.bss.SurveyRadius,"aw",%nobits
 5285              		.align	2
 5286              		.set	.LANCHOR58,. + 0
 5289              	SurveyRadius:
 5290 0000 00000000 		.space	4
 5291              		.section	.bss.AboveLine,"aw",%nobits
 5292              		.set	.LANCHOR24,. + 0
 5295              	AboveLine:
 5296 0000 00       		.space	1
 5297              		.section	.bss.CSurveyStatus,"aw",%nobits
 5298              		.set	.LANCHOR48,. + 0
 5301              	CSurveyStatus:
 5302 0000 00       		.space	1
 5303              		.section	.bss.FLRadius,"aw",%nobits
 5304              		.align	2
 5305              		.set	.LANCHOR38,. + 0
 5308              	FLRadius:
 5309 0000 00000000 		.space	4
 5310              		.section	.bss.ApproachQDR,"aw",%nobits
 5311              		.align	2
 5312              		.set	.LANCHOR36,. + 0
 5315              	ApproachQDR:
 5316 0000 00000000 		.space	4
 5317              		.ident	"GCC: (Linaro GCC 4.6-2011.09-1) 4.6.2 20110908 (prerelease)"