   1              		.cpu arm7tdmi
   2              		.fpu softvfp
   3              		.eabi_attribute 20, 1
   4              		.eabi_attribute 21, 1
   5              		.eabi_attribute 23, 3
   6              		.eabi_attribute 24, 1
   7              		.eabi_attribute 25, 1
   8              		.eabi_attribute 26, 1
   9              		.eabi_attribute 30, 4
  10              		.eabi_attribute 18, 4
  11              		.file	"poly_survey_adv.c"
  12              		.global	__aeabi_fsub
  13              		.global	__aeabi_fmul
  14              		.global	__aeabi_fadd
  15              		.global	__aeabi_fcmpeq
  16              		.global	__aeabi_fdiv
  17              		.global	__aeabi_fcmpgt
  18              		.global	__aeabi_fcmplt
  19              		.section	.text.intercept_two_lines,"ax",%progbits
  20              		.align	2
  22              	intercept_two_lines:
  23              		@ Function supports interworking.
  24              		@ args = 28, pretend = 8, frame = 24
  25              		@ frame_needed = 0, uses_anonymous_args = 0
  26 0000 08D04DE2 		sub	sp, sp, #8
  27 0004 F04F2DE9 		stmfd	sp!, {r4, r5, r6, r7, r8, r9, sl, fp, lr}
  28 0008 1CD04DE2 		sub	sp, sp, #28
  29 000c 50409DE5 		ldr	r4, [sp, #80]	@ float
  30 0010 08008DE5 		str	r0, [sp, #8]
  31 0014 18008DE2 		add	r0, sp, #24
  32 0018 060000E9 		stmdb	r0, {r1, r2}
  33 001c 0410A0E1 		mov	r1, r4
  34 0020 58009DE5 		ldr	r0, [sp, #88]	@ float
  35 0024 44308DE5 		str	r3, [sp, #68]
  36 0028 FEFFFFEB 		bl	__aeabi_fsub
  37 002c 4C509DE5 		ldr	r5, [sp, #76]	@ float
  38 0030 0080A0E1 		mov	r8, r0
  39 0034 0510A0E1 		mov	r1, r5
  40 0038 54009DE5 		ldr	r0, [sp, #84]	@ float
  41 003c FEFFFFEB 		bl	__aeabi_fsub
  42 0040 10909DE5 		ldr	r9, [sp, #16]	@ float
  43 0044 44B09DE5 		ldr	fp, [sp, #68]	@ float
  44 0048 00A0A0E1 		mov	sl, r0
  45 004c 0910A0E1 		mov	r1, r9
  46 0050 0B00A0E1 		mov	r0, fp
  47 0054 FEFFFFEB 		bl	__aeabi_fsub
  48 0058 0010A0E1 		mov	r1, r0
  49 005c 0800A0E1 		mov	r0, r8
  50 0060 FEFFFFEB 		bl	__aeabi_fmul
  51 0064 14609DE5 		ldr	r6, [sp, #20]	@ float
  52 0068 48709DE5 		ldr	r7, [sp, #72]	@ float
  53 006c 0030A0E1 		mov	r3, r0
  54 0070 0710A0E1 		mov	r1, r7
  55 0074 0600A0E1 		mov	r0, r6
  56 0078 04308DE5 		str	r3, [sp, #4]
  57 007c FEFFFFEB 		bl	__aeabi_fsub
  58 0080 0A10A0E1 		mov	r1, sl
  59 0084 FEFFFFEB 		bl	__aeabi_fmul
  60 0088 04309DE5 		ldr	r3, [sp, #4]
  61 008c 0010A0E1 		mov	r1, r0
  62 0090 0300A0E1 		mov	r0, r3
  63 0094 FEFFFFEB 		bl	__aeabi_fadd
  64 0098 0010A0E3 		mov	r1, #0
  65 009c 0C008DE5 		str	r0, [sp, #12]	@ float
  66 00a0 FEFFFFEB 		bl	__aeabi_fcmpeq
  67 00a4 000050E3 		cmp	r0, #0
  68 00a8 3700001A 		bne	.L5
  69 00ac 0600A0E1 		mov	r0, r6
  70 00b0 0410A0E1 		mov	r1, r4
  71 00b4 FEFFFFEB 		bl	__aeabi_fsub
  72 00b8 0010A0E1 		mov	r1, r0
  73 00bc 0B00A0E1 		mov	r0, fp
  74 00c0 FEFFFFEB 		bl	__aeabi_fmul
  75 00c4 0710A0E1 		mov	r1, r7
  76 00c8 00B0A0E1 		mov	fp, r0
  77 00cc 0400A0E1 		mov	r0, r4
  78 00d0 FEFFFFEB 		bl	__aeabi_fsub
  79 00d4 0010A0E1 		mov	r1, r0
  80 00d8 0900A0E1 		mov	r0, r9
  81 00dc FEFFFFEB 		bl	__aeabi_fmul
  82 00e0 0010A0E1 		mov	r1, r0
  83 00e4 0B00A0E1 		mov	r0, fp
  84 00e8 FEFFFFEB 		bl	__aeabi_fadd
  85 00ec 0610A0E1 		mov	r1, r6
  86 00f0 0090A0E1 		mov	r9, r0
  87 00f4 0700A0E1 		mov	r0, r7
  88 00f8 FEFFFFEB 		bl	__aeabi_fsub
  89 00fc 0010A0E1 		mov	r1, r0
  90 0100 0500A0E1 		mov	r0, r5
  91 0104 FEFFFFEB 		bl	__aeabi_fmul
  92 0108 0010A0E1 		mov	r1, r0
  93 010c 0900A0E1 		mov	r0, r9
  94 0110 FEFFFFEB 		bl	__aeabi_fadd
  95 0114 0C109DE5 		ldr	r1, [sp, #12]	@ float
  96 0118 FEFFFFEB 		bl	__aeabi_fdiv
  97 011c FE15A0E3 		mov	r1, #1065353216
  98 0120 0060A0E1 		mov	r6, r0
  99 0124 FEFFFFEB 		bl	__aeabi_fcmpgt
 100 0128 000050E3 		cmp	r0, #0
 101 012c 1600001A 		bne	.L5
 102 0130 0600A0E1 		mov	r0, r6
 103 0134 0010A0E3 		mov	r1, #0
 104 0138 FEFFFFEB 		bl	__aeabi_fcmplt
 105 013c 000050E3 		cmp	r0, #0
 106 0140 1100001A 		bne	.L5
 107 0144 0A10A0E1 		mov	r1, sl
 108 0148 0600A0E1 		mov	r0, r6
 109 014c FEFFFFEB 		bl	__aeabi_fmul
 110 0150 0010A0E1 		mov	r1, r0
 111 0154 0500A0E1 		mov	r0, r5
 112 0158 FEFFFFEB 		bl	__aeabi_fadd
 113 015c 08309DE5 		ldr	r3, [sp, #8]
 114 0160 0810A0E1 		mov	r1, r8
 115 0164 000083E5 		str	r0, [r3, #0]	@ float
 116 0168 0600A0E1 		mov	r0, r6
 117 016c FEFFFFEB 		bl	__aeabi_fmul
 118 0170 0010A0E1 		mov	r1, r0
 119 0174 0400A0E1 		mov	r0, r4
 120 0178 FEFFFFEB 		bl	__aeabi_fadd
 121 017c 08309DE5 		ldr	r3, [sp, #8]
 122 0180 040083E5 		str	r0, [r3, #4]	@ float
 123 0184 0100A0E3 		mov	r0, #1
 124 0188 000000EA 		b	.L2
 125              	.L5:
 126 018c 0000A0E3 		mov	r0, #0
 127              	.L2:
 128 0190 1CD08DE2 		add	sp, sp, #28
 129 0194 F04FBDE8 		ldmfd	sp!, {r4, r5, r6, r7, r8, r9, sl, fp, lr}
 130 0198 08D08DE2 		add	sp, sp, #8
 131 019c 1EFF2FE1 		bx	lr
 133              		.section	.text.stateGetHorizontalSpeedDir_f,"ax",%progbits
 134              		.align	2
 136              	stateGetHorizontalSpeedDir_f:
 137              		@ Function supports interworking.
 138              		@ args = 0, pretend = 0, frame = 0
 139              		@ frame_needed = 0, uses_anonymous_args = 0
 140 0000 1C209FE5 		ldr	r2, .L8
 141 0004 08402DE9 		stmfd	sp!, {r3, lr}
 142 0008 453FA0E3 		mov	r3, #276
 143 000c B33092E1 		ldrh	r3, [r2, r3]
 144 0010 020C13E3 		tst	r3, #512
 145 0014 FEFFFF0B 		bleq	stateCalcHorizontalSpeedDir_f
 146              	.L7:
 147 0018 08009FE5 		ldr	r0, .L8+4
 148 001c 0840BDE8 		ldmfd	sp!, {r3, lr}
 149 0020 1EFF2FE1 		bx	lr
 150              	.L9:
 151              		.align	2
 152              	.L8:
 153 0024 00000000 		.word	state
 154 0028 6C010000 		.word	state+364
 156              		.section	.text.get_two_intersects.constprop.0,"ax",%progbits
 157              		.align	2
 159              	get_two_intersects.constprop.0:
 160              		@ Function supports interworking.
 161              		@ args = 0, pretend = 0, frame = 24
 162              		@ frame_needed = 0, uses_anonymous_args = 0
 163 0000 F04F2DE9 		stmfd	sp!, {r4, r5, r6, r7, r8, r9, sl, fp, lr}
 164 0004 34D04DE2 		sub	sp, sp, #52
 165 0008 20C08DE2 		add	ip, sp, #32
 166 000c 03008CE8 		stmia	ip, {r0, r1}
 167 0010 0050A0E3 		mov	r5, #0
 168 0014 18108DE2 		add	r1, sp, #24
 169 0018 0C0081E8 		stmia	r1, {r2, r3}
 170 001c 0570A0E1 		mov	r7, r5
 171 0020 B0A19FE5 		ldr	sl, .L35
 172 0024 B0919FE5 		ldr	r9, .L35+4
 173 0028 28408DE2 		add	r4, sp, #40
 174 002c AC619FE5 		ldr	r6, .L35+8
 175 0030 0C80A0E3 		mov	r8, #12
 176 0034 A8B19FE5 		ldr	fp, .L35+12
 177 0038 1D0000EA 		b	.L11
 178              	.L15:
 179 003c 0020D9E5 		ldrb	r2, [r9, #0]	@ zero_extendqisi2
 180 0040 072082E0 		add	r2, r2, r7
 181 0044 013082E2 		add	r3, r2, #1
 182 0048 980202E0 		mul	r2, r8, r2
 183 004c 980303E0 		mul	r3, r8, r3
 184 0050 021086E0 		add	r1, r6, r2
 185 0054 022096E7 		ldr	r2, [r6, r2]	@ float
 186 0058 04208DE5 		str	r2, [sp, #4]	@ float
 187 005c 042091E5 		ldr	r2, [r1, #4]	@ float
 188 0060 08208DE5 		str	r2, [sp, #8]	@ float
 189 0064 032086E0 		add	r2, r6, r3
 190 0068 033096E7 		ldr	r3, [r6, r3]	@ float
 191 006c 0C308DE5 		str	r3, [sp, #12]	@ float
 192 0070 043092E5 		ldr	r3, [r2, #4]	@ float
 193 0074 10308DE5 		str	r3, [sp, #16]	@ float
 194 0078 1C309DE5 		ldr	r3, [sp, #28]
 195 007c 00308DE5 		str	r3, [sp, #0]
 196 0080 20208DE2 		add	r2, sp, #32
 197 0084 18309DE5 		ldr	r3, [sp, #24]
 198 0088 0400A0E1 		mov	r0, r4
 199 008c 060092E8 		ldmia	r2, {r1, r2}
 200 0090 FEFFFFEB 		bl	intercept_two_lines
 201 0094 000050E3 		cmp	r0, #0
 202 0098 0400000A 		beq	.L12
 203 009c 000055E3 		cmp	r5, #0
 204 00a0 2600001A 		bne	.L31
 205 00a4 030094E8 		ldmia	r4, {r0, r1}
 206 00a8 03008BE8 		stmia	fp, {r0, r1}
 207 00ac 0150A0E3 		mov	r5, #1
 208              	.L12:
 209 00b0 017087E2 		add	r7, r7, #1
 210              	.L11:
 211 00b4 0030DAE5 		ldrb	r3, [sl, #0]	@ zero_extendqisi2
 212 00b8 012043E2 		sub	r2, r3, #1
 213 00bc 020057E1 		cmp	r7, r2
 214 00c0 DDFFFFBA 		blt	.L15
 215 00c4 010055E3 		cmp	r5, #1
 216 00c8 0000A013 		movne	r0, #0
 217 00cc 3E00001A 		bne	.L16
 218 00d0 04219FE5 		ldr	r2, .L35+4
 219 00d4 0010D2E5 		ldrb	r1, [r2, #0]	@ zero_extendqisi2
 220 00d8 030081E0 		add	r0, r1, r3
 221 00dc 010040E2 		sub	r0, r0, #1
 222 00e0 0C30A0E3 		mov	r3, #12
 223 00e4 930000E0 		mul	r0, r3, r0
 224 00e8 910303E0 		mul	r3, r1, r3
 225 00ec EC209FE5 		ldr	r2, .L35+8
 226 00f0 00C082E0 		add	ip, r2, r0
 227 00f4 000092E7 		ldr	r0, [r2, r0]	@ float
 228 00f8 04008DE5 		str	r0, [sp, #4]	@ float
 229 00fc 04009CE5 		ldr	r0, [ip, #4]	@ float
 230 0100 08008DE5 		str	r0, [sp, #8]	@ float
 231 0104 031082E0 		add	r1, r2, r3
 232 0108 033092E7 		ldr	r3, [r2, r3]	@ float
 233 010c 0C308DE5 		str	r3, [sp, #12]	@ float
 234 0110 043091E5 		ldr	r3, [r1, #4]	@ float
 235 0114 10308DE5 		str	r3, [sp, #16]	@ float
 236 0118 1C309DE5 		ldr	r3, [sp, #28]
 237 011c 00308DE5 		str	r3, [sp, #0]
 238 0120 28408DE2 		add	r4, sp, #40
 239 0124 20208DE2 		add	r2, sp, #32
 240 0128 18309DE5 		ldr	r3, [sp, #24]
 241 012c 0400A0E1 		mov	r0, r4
 242 0130 060092E8 		ldmia	r2, {r1, r2}
 243 0134 FEFFFFEB 		bl	intercept_two_lines
 244 0138 000050E3 		cmp	r0, #0
 245 013c 2200000A 		beq	.L16
 246              	.L31:
 247 0140 030094E8 		ldmia	r4, {r0, r1}
 248 0144 9C309FE5 		ldr	r3, .L35+16
 249 0148 030083E8 		stmia	r3, {r0, r1}
 250 014c 98309FE5 		ldr	r3, .L35+20
 251 0150 007093E5 		ldr	r7, [r3, #0]	@ float
 252 0154 046093E5 		ldr	r6, [r3, #4]	@ float
 253 0158 0201C7E3 		bic	r0, r7, #-2147483648
 254 015c 0211C6E3 		bic	r1, r6, #-2147483648
 255 0160 FEFFFFEB 		bl	__aeabi_fcmpgt
 256 0164 000050E3 		cmp	r0, #0
 257 0168 74509FE5 		ldr	r5, .L35+12
 258 016c 74409FE5 		ldr	r4, .L35+16
 259 0170 0400000A 		beq	.L28
 260 0174 001095E5 		ldr	r1, [r5, #0]	@ float
 261 0178 000094E5 		ldr	r0, [r4, #0]	@ float
 262 017c FEFFFFEB 		bl	__aeabi_fsub
 263 0180 0710A0E1 		mov	r1, r7
 264 0184 030000EA 		b	.L34
 265              	.L28:
 266 0188 041095E5 		ldr	r1, [r5, #4]	@ float
 267 018c 040094E5 		ldr	r0, [r4, #4]	@ float
 268 0190 FEFFFFEB 		bl	__aeabi_fsub
 269 0194 0610A0E1 		mov	r1, r6
 270              	.L34:
 271 0198 FEFFFFEB 		bl	__aeabi_fdiv
 272 019c 0010A0E3 		mov	r1, #0
 273 01a0 FEFFFFEB 		bl	__aeabi_fcmplt
 274 01a4 000050E3 		cmp	r0, #0
 275 01a8 0600000A 		beq	.L30
 276 01ac 030095E8 		ldmia	r5, {r0, r1}
 277 01b0 28308DE2 		add	r3, sp, #40
 278 01b4 030083E8 		stmia	r3, {r0, r1}
 279 01b8 030094E8 		ldmia	r4, {r0, r1}
 280 01bc 030085E8 		stmia	r5, {r0, r1}
 281 01c0 030093E8 		ldmia	r3, {r0, r1}
 282 01c4 030084E8 		stmia	r4, {r0, r1}
 283              	.L30:
 284 01c8 0100A0E3 		mov	r0, #1
 285              	.L16:
 286 01cc 34D08DE2 		add	sp, sp, #52
 287 01d0 F04FBDE8 		ldmfd	sp!, {r4, r5, r6, r7, r8, r9, sl, fp, lr}
 288 01d4 1EFF2FE1 		bx	lr
 289              	.L36:
 290              		.align	2
 291              	.L35:
 292 01d8 00000000 		.word	poly_count
 293 01dc 00000000 		.word	poly_first
 294 01e0 00000000 		.word	waypoints
 295 01e4 00000000 		.word	seg_start
 296 01e8 00000000 		.word	seg_end
 297 01ec 00000000 		.word	dir_vec
 299              		.global	__aeabi_f2d
 300              		.global	__aeabi_ddiv
 301              		.global	__aeabi_dmul
 302              		.global	__aeabi_d2f
 303              		.global	__aeabi_fcmpge
 304              		.global	__aeabi_f2iz
 305              		.global	__aeabi_fcmple
 306              		.global	__aeabi_dadd
 307              		.section	.text.init_poly_survey_adv,"ax",%progbits
 308              		.align	2
 309              		.global	init_poly_survey_adv
 311              	init_poly_survey_adv:
 312              		@ Function supports interworking.
 313              		@ args = 12, pretend = 0, frame = 24
 314              		@ frame_needed = 0, uses_anonymous_args = 0
 315 0000 F04F2DE9 		stmfd	sp!, {r4, r5, r6, r7, r8, r9, sl, fp, lr}
 316 0004 0070A0E1 		mov	r7, r0
 317 0008 1CD04DE2 		sub	sp, sp, #28
 318 000c 0200A0E1 		mov	r0, r2
 319 0010 0240A0E1 		mov	r4, r2
 320 0014 0350A0E1 		mov	r5, r3
 321 0018 0160A0E1 		mov	r6, r1
 322 001c FEFFFFEB 		bl	__aeabi_f2d
 323 0020 0020A0E3 		mov	r2, #0
 324 0024 74359FE5 		ldr	r3, .L69
 325 0028 FEFFFFEB 		bl	__aeabi_ddiv
 326 002c 70259FE5 		ldr	r2, .L69+4
 327 0030 70359FE5 		ldr	r3, .L69+8
 328 0034 FEFFFFEB 		bl	__aeabi_dmul
 329 0038 FEFFFFEB 		bl	__aeabi_d2f
 330 003c 0010A0E3 		mov	r1, #0
 331 0040 0080A0E1 		mov	r8, r0
 332 0044 0400A0E1 		mov	r0, r4
 333 0048 FEFFFFEB 		bl	__aeabi_fcmplt
 334 004c 000050E3 		cmp	r0, #0
 335 0050 0300000A 		beq	.L38
 336 0054 0400A0E1 		mov	r0, r4
 337 0058 4C159FE5 		ldr	r1, .L69+12
 338 005c FEFFFFEB 		bl	__aeabi_fadd
 339 0060 0040A0E1 		mov	r4, r0
 340              	.L38:
 341 0064 0400A0E1 		mov	r0, r4
 342 0068 3C159FE5 		ldr	r1, .L69+12
 343 006c FEFFFFEB 		bl	__aeabi_fcmpge
 344 0070 000050E3 		cmp	r0, #0
 345 0074 0300000A 		beq	.L40
 346 0078 0400A0E1 		mov	r0, r4
 347 007c 28159FE5 		ldr	r1, .L69+12
 348 0080 FEFFFFEB 		bl	__aeabi_fsub
 349 0084 0040A0E1 		mov	r4, r0
 350              	.L40:
 351 0088 20359FE5 		ldr	r3, .L69+16
 352 008c 0070C3E5 		strb	r7, [r3, #0]
 353 0090 1C359FE5 		ldr	r3, .L69+20
 354 0094 0060C3E5 		strb	r6, [r3, #0]
 355 0098 18359FE5 		ldr	r3, .L69+24
 356 009c 44209DE5 		ldr	r2, [sp, #68]	@ float
 357 00a0 005083E5 		str	r5, [r3, #0]	@ float
 358 00a4 10359FE5 		ldr	r3, .L69+28
 359 00a8 002083E5 		str	r2, [r3, #0]	@ float
 360 00ac 0C359FE5 		ldr	r3, .L69+32
 361 00b0 40209DE5 		ldr	r2, [sp, #64]	@ float
 362 00b4 002083E5 		str	r2, [r3, #0]	@ float
 363 00b8 48209DE5 		ldr	r2, [sp, #72]	@ float
 364 00bc 00359FE5 		ldr	r3, .L69+36
 365 00c0 0400A0E1 		mov	r0, r4
 366 00c4 002083E5 		str	r2, [r3, #0]	@ float
 367 00c8 FEFFFFEB 		bl	__aeabi_f2iz
 368 00cc F4349FE5 		ldr	r3, .L69+40
 369 00d0 F4149FE5 		ldr	r1, .L69+44
 370 00d4 000083E5 		str	r0, [r3, #0]
 371 00d8 0400A0E1 		mov	r0, r4
 372 00dc FEFFFFEB 		bl	__aeabi_fadd
 373 00e0 FEFFFFEB 		bl	__aeabi_f2iz
 374 00e4 E4349FE5 		ldr	r3, .L69+48
 375 00e8 5A0F50E3 		cmp	r0, #360
 376 00ec 000083E5 		str	r0, [r3, #0]
 377 00f0 5A0F40A2 		subge	r0, r0, #360
 378 00f4 000083A5 		strge	r0, [r3, #0]
 379 00f8 D4149FE5 		ldr	r1, .L69+52
 380 00fc 0400A0E1 		mov	r0, r4
 381 0100 FEFFFFEB 		bl	__aeabi_fcmple
 382 0104 000050E3 		cmp	r0, #0
 383 0108 0400001A 		bne	.L43
 384 010c 0400A0E1 		mov	r0, r4
 385 0110 C0149FE5 		ldr	r1, .L69+56
 386 0114 FEFFFFEB 		bl	__aeabi_fcmpge
 387 0118 000050E3 		cmp	r0, #0
 388 011c 0700000A 		beq	.L65
 389              	.L43:
 390 0120 B4649FE5 		ldr	r6, .L69+60
 391 0124 FE45A0E3 		mov	r4, #1065353216
 392 0128 044086E5 		str	r4, [r6, #4]	@ float
 393 012c 0800A0E1 		mov	r0, r8
 394 0130 FEFFFFEB 		bl	tanf
 395 0134 000086E5 		str	r0, [r6, #0]	@ float
 396 0138 025180E2 		add	r5, r0, #-2147483648
 397 013c 270000EA 		b	.L46
 398              	.L65:
 399 0140 0400A0E1 		mov	r0, r4
 400 0144 94149FE5 		ldr	r1, .L69+64
 401 0148 FEFFFFEB 		bl	__aeabi_fcmple
 402 014c 000050E3 		cmp	r0, #0
 403 0150 84649FE5 		ldr	r6, .L69+60
 404 0154 88749FE5 		ldr	r7, .L69+68
 405 0158 0A00000A 		beq	.L66
 406 015c FE45A0E3 		mov	r4, #1065353216
 407 0160 004086E5 		str	r4, [r6, #0]	@ float
 408 0164 0800A0E1 		mov	r0, r8
 409 0168 FEFFFFEB 		bl	tanf
 410 016c 0010A0E1 		mov	r1, r0
 411 0170 0400A0E1 		mov	r0, r4
 412 0174 FEFFFFEB 		bl	__aeabi_fdiv
 413 0178 0750A0E1 		mov	r5, r7
 414 017c 0040A0E1 		mov	r4, r0
 415 0180 040086E5 		str	r0, [r6, #4]	@ float
 416 0184 150000EA 		b	.L46
 417              	.L66:
 418 0188 0400A0E1 		mov	r0, r4
 419 018c 54149FE5 		ldr	r1, .L69+72
 420 0190 FEFFFFEB 		bl	__aeabi_fcmple
 421 0194 000050E3 		cmp	r0, #0
 422 0198 0700000A 		beq	.L67
 423 019c 047086E5 		str	r7, [r6, #4]	@ float
 424 01a0 0800A0E1 		mov	r0, r8
 425 01a4 FEFFFFEB 		bl	tanf
 426 01a8 023180E2 		add	r3, r0, #-2147483648
 427 01ac 0050A0E1 		mov	r5, r0
 428 01b0 003086E5 		str	r3, [r6, #0]	@ float
 429 01b4 0740A0E1 		mov	r4, r7
 430 01b8 080000EA 		b	.L46
 431              	.L67:
 432 01bc 007086E5 		str	r7, [r6, #0]	@ float
 433 01c0 0800A0E1 		mov	r0, r8
 434 01c4 FEFFFFEB 		bl	tanf
 435 01c8 0010A0E1 		mov	r1, r0
 436 01cc 0700A0E1 		mov	r0, r7
 437 01d0 FEFFFFEB 		bl	__aeabi_fdiv
 438 01d4 040086E5 		str	r0, [r6, #4]	@ float
 439 01d8 0040A0E1 		mov	r4, r0
 440 01dc FE55A0E3 		mov	r5, #1065353216
 441              	.L46:
 442 01e0 0410A0E1 		mov	r1, r4
 443 01e4 0400A0E1 		mov	r0, r4
 444 01e8 FEFFFFEB 		bl	__aeabi_fmul
 445 01ec 0510A0E1 		mov	r1, r5
 446 01f0 0060A0E1 		mov	r6, r0
 447 01f4 0500A0E1 		mov	r0, r5
 448 01f8 FEFFFFEB 		bl	__aeabi_fmul
 449 01fc 0010A0E1 		mov	r1, r0
 450 0200 0600A0E1 		mov	r0, r6
 451 0204 FEFFFFEB 		bl	__aeabi_fadd
 452 0208 FEFFFFEB 		bl	__aeabi_f2d
 453 020c FEFFFFEB 		bl	sqrt
 454 0210 FEFFFFEB 		bl	__aeabi_d2f
 455 0214 0060A0E1 		mov	r6, r0
 456 0218 0610A0E1 		mov	r1, r6
 457 021c 0400A0E1 		mov	r0, r4
 458 0220 FEFFFFEB 		bl	__aeabi_fdiv
 459 0224 0610A0E1 		mov	r1, r6
 460 0228 0040A0E1 		mov	r4, r0
 461 022c 0500A0E1 		mov	r0, r5
 462 0230 FEFFFFEB 		bl	__aeabi_fdiv
 463 0234 80339FE5 		ldr	r3, .L69+28
 464 0238 006093E5 		ldr	r6, [r3, #0]	@ float
 465 023c 0070A0E1 		mov	r7, r0
 466 0240 0610A0E1 		mov	r1, r6
 467 0244 0400A0E1 		mov	r0, r4
 468 0248 FEFFFFEB 		bl	__aeabi_fmul
 469 024c 98539FE5 		ldr	r5, .L69+76
 470 0250 0610A0E1 		mov	r1, r6
 471 0254 000085E5 		str	r0, [r5, #0]	@ float
 472 0258 0700A0E1 		mov	r0, r7
 473 025c FEFFFFEB 		bl	__aeabi_fmul
 474 0260 50339FE5 		ldr	r3, .L69+24
 475 0264 040085E5 		str	r0, [r5, #4]	@ float
 476 0268 005093E5 		ldr	r5, [r3, #0]	@ float
 477 026c 0400A0E1 		mov	r0, r4
 478 0270 0510A0E1 		mov	r1, r5
 479 0274 FEFFFFEB 		bl	__aeabi_fmul
 480 0278 70439FE5 		ldr	r4, .L69+80
 481 027c 0060A0E1 		mov	r6, r0
 482 0280 000084E5 		str	r0, [r4, #0]	@ float
 483 0284 0510A0E1 		mov	r1, r5
 484 0288 0700A0E1 		mov	r0, r7
 485 028c FEFFFFEB 		bl	__aeabi_fmul
 486 0290 18339FE5 		ldr	r3, .L69+16
 487 0294 0090D3E5 		ldrb	r9, [r3, #0]	@ zero_extendqisi2
 488 0298 0CA0A0E3 		mov	sl, #12
 489 029c 990A0AE0 		mul	sl, r9, sl
 490 02a0 040084E5 		str	r0, [r4, #4]	@ float
 491 02a4 48239FE5 		ldr	r2, .L69+84
 492 02a8 2C339FE5 		ldr	r3, .L69+60
 493 02ac 0A5092E7 		ldr	r5, [r2, sl]	@ float
 494 02b0 0A8082E0 		add	r8, r2, sl
 495 02b4 002093E5 		ldr	r2, [r3, #0]	@ float
 496 02b8 043093E5 		ldr	r3, [r3, #4]	@ float
 497 02bc 0210A0E1 		mov	r1, r2
 498 02c0 044098E5 		ldr	r4, [r8, #4]	@ float
 499 02c4 14008DE5 		str	r0, [sp, #20]	@ float
 500 02c8 08208DE5 		str	r2, [sp, #8]	@ float
 501 02cc 0C308DE5 		str	r3, [sp, #12]	@ float
 502 02d0 FEFFFFEB 		bl	__aeabi_fmul
 503 02d4 0C109DE5 		ldr	r1, [sp, #12]	@ float
 504 02d8 0070A0E1 		mov	r7, r0
 505 02dc 0600A0E1 		mov	r0, r6
 506 02e0 FEFFFFEB 		bl	__aeabi_fmul
 507 02e4 0010A0E1 		mov	r1, r0
 508 02e8 0700A0E1 		mov	r0, r7
 509 02ec FEFFFFEB 		bl	__aeabi_fsub
 510 02f0 0010A0E3 		mov	r1, #0
 511 02f4 FEFFFFEB 		bl	__aeabi_fcmplt
 512 02f8 0B20E0E3 		mvn	r2, #11
 513 02fc 990202E0 		mul	r2, r9, r2
 514 0300 AC329FE5 		ldr	r3, .L69+20
 515 0304 00C0D3E5 		ldrb	ip, [r3, #0]	@ zero_extendqisi2
 516 0308 000050E3 		cmp	r0, #0
 517 030c 0A30A0E1 		mov	r3, sl
 518 0310 0170A0E3 		mov	r7, #1
 519 0314 10608DE5 		str	r6, [sp, #16]	@ float
 520 0318 0CA0A0E1 		mov	sl, ip
 521 031c 0290A0E1 		mov	r9, r2
 522 0320 03B0A0E1 		mov	fp, r3
 523 0324 2200001A 		bne	.L53
 524 0328 460000EA 		b	.L52
 525              	.L55:
 526 032c 093088E0 		add	r3, r8, r9
 527 0330 0B3083E0 		add	r3, r3, fp
 528 0334 106093E5 		ldr	r6, [r3, #16]	@ float
 529 0338 0C3093E5 		ldr	r3, [r3, #12]	@ float
 530 033c 0410A0E1 		mov	r1, r4
 531 0340 0600A0E1 		mov	r0, r6
 532 0344 00308DE5 		str	r3, [sp, #0]
 533 0348 FEFFFFEB 		bl	__aeabi_fsub
 534 034c 0010A0E1 		mov	r1, r0
 535 0350 08009DE5 		ldr	r0, [sp, #8]	@ float
 536 0354 FEFFFFEB 		bl	__aeabi_fmul
 537 0358 00309DE5 		ldr	r3, [sp, #0]
 538 035c 00C0A0E1 		mov	ip, r0
 539 0360 0310A0E1 		mov	r1, r3
 540 0364 0500A0E1 		mov	r0, r5
 541 0368 04C08DE5 		str	ip, [sp, #4]
 542 036c FEFFFFEB 		bl	__aeabi_fsub
 543 0370 0010A0E1 		mov	r1, r0
 544 0374 0C009DE5 		ldr	r0, [sp, #12]	@ float
 545 0378 FEFFFFEB 		bl	__aeabi_fmul
 546 037c 04C09DE5 		ldr	ip, [sp, #4]
 547 0380 0010A0E1 		mov	r1, r0
 548 0384 0C00A0E1 		mov	r0, ip
 549 0388 FEFFFFEB 		bl	__aeabi_fadd
 550 038c 0010A0E3 		mov	r1, #0
 551 0390 FEFFFFEB 		bl	__aeabi_fcmpgt
 552 0394 00309DE5 		ldr	r3, [sp, #0]
 553 0398 000050E3 		cmp	r0, #0
 554 039c 0460A001 		moveq	r6, r4
 555 03a0 0530A001 		moveq	r3, r5
 556 03a4 017087E2 		add	r7, r7, #1
 557 03a8 0C8088E2 		add	r8, r8, #12
 558 03ac 0640A0E1 		mov	r4, r6
 559 03b0 0350A0E1 		mov	r5, r3
 560              	.L53:
 561 03b4 0A0057E1 		cmp	r7, sl
 562 03b8 DBFFFFBA 		blt	.L55
 563 03bc 230000EA 		b	.L68
 564              	.L58:
 565 03c0 093088E0 		add	r3, r8, r9
 566 03c4 0B3083E0 		add	r3, r3, fp
 567 03c8 106093E5 		ldr	r6, [r3, #16]	@ float
 568 03cc 0C3093E5 		ldr	r3, [r3, #12]	@ float
 569 03d0 0410A0E1 		mov	r1, r4
 570 03d4 0600A0E1 		mov	r0, r6
 571 03d8 00308DE5 		str	r3, [sp, #0]
 572 03dc FEFFFFEB 		bl	__aeabi_fsub
 573 03e0 0010A0E1 		mov	r1, r0
 574 03e4 08009DE5 		ldr	r0, [sp, #8]	@ float
 575 03e8 FEFFFFEB 		bl	__aeabi_fmul
 576 03ec 00309DE5 		ldr	r3, [sp, #0]
 577 03f0 00C0A0E1 		mov	ip, r0
 578 03f4 0310A0E1 		mov	r1, r3
 579 03f8 0500A0E1 		mov	r0, r5
 580 03fc 04C08DE5 		str	ip, [sp, #4]
 581 0400 FEFFFFEB 		bl	__aeabi_fsub
 582 0404 0010A0E1 		mov	r1, r0
 583 0408 0C009DE5 		ldr	r0, [sp, #12]	@ float
 584 040c FEFFFFEB 		bl	__aeabi_fmul
 585 0410 04C09DE5 		ldr	ip, [sp, #4]
 586 0414 0010A0E1 		mov	r1, r0
 587 0418 0C00A0E1 		mov	r0, ip
 588 041c FEFFFFEB 		bl	__aeabi_fadd
 589 0420 0010A0E3 		mov	r1, #0
 590 0424 FEFFFFEB 		bl	__aeabi_fcmpgt
 591 0428 00309DE5 		ldr	r3, [sp, #0]
 592 042c 000050E3 		cmp	r0, #0
 593 0430 0460A001 		moveq	r6, r4
 594 0434 0530A001 		moveq	r3, r5
 595 0438 017087E2 		add	r7, r7, #1
 596 043c 0C8088E2 		add	r8, r8, #12
 597 0440 0640A0E1 		mov	r4, r6
 598 0444 0350A0E1 		mov	r5, r3
 599              	.L52:
 600 0448 0A0057E1 		cmp	r7, sl
 601 044c DBFFFFBA 		blt	.L58
 602              	.L68:
 603 0450 0500A0E1 		mov	r0, r5
 604 0454 FEFFFFEB 		bl	__aeabi_f2d
 605 0458 10609DE5 		ldr	r6, [sp, #16]	@ float
 606 045c 0080A0E1 		mov	r8, r0
 607 0460 0600A0E1 		mov	r0, r6
 608 0464 0190A0E1 		mov	r9, r1
 609 0468 FEFFFFEB 		bl	__aeabi_f2d
 610 046c 0020A0E3 		mov	r2, #0
 611 0470 80319FE5 		ldr	r3, .L69+88
 612 0474 FEFFFFEB 		bl	__aeabi_dmul
 613 0478 0020A0E1 		mov	r2, r0
 614 047c 0130A0E1 		mov	r3, r1
 615 0480 0800A0E1 		mov	r0, r8
 616 0484 0910A0E1 		mov	r1, r9
 617 0488 FEFFFFEB 		bl	__aeabi_dadd
 618 048c FEFFFFEB 		bl	__aeabi_d2f
 619 0490 64519FE5 		ldr	r5, .L69+92
 620 0494 0060A0E1 		mov	r6, r0
 621 0498 000085E5 		str	r0, [r5, #0]	@ float
 622 049c 0400A0E1 		mov	r0, r4
 623 04a0 FEFFFFEB 		bl	__aeabi_f2d
 624 04a4 0080A0E1 		mov	r8, r0
 625 04a8 14009DE5 		ldr	r0, [sp, #20]	@ float
 626 04ac 0190A0E1 		mov	r9, r1
 627 04b0 FEFFFFEB 		bl	__aeabi_f2d
 628 04b4 0020A0E3 		mov	r2, #0
 629 04b8 38319FE5 		ldr	r3, .L69+88
 630 04bc FEFFFFEB 		bl	__aeabi_dmul
 631 04c0 0020A0E1 		mov	r2, r0
 632 04c4 0130A0E1 		mov	r3, r1
 633 04c8 0800A0E1 		mov	r0, r8
 634 04cc 0910A0E1 		mov	r1, r9
 635 04d0 FEFFFFEB 		bl	__aeabi_dadd
 636 04d4 FEFFFFEB 		bl	__aeabi_d2f
 637 04d8 08109DE5 		ldr	r1, [sp, #8]	@ float
 638 04dc 0070A0E1 		mov	r7, r0
 639 04e0 040085E5 		str	r0, [r5, #4]	@ float
 640 04e4 0600A0E1 		mov	r0, r6
 641 04e8 FEFFFFEB 		bl	__aeabi_fadd
 642 04ec 0C419FE5 		ldr	r4, .L69+96
 643 04f0 0C109DE5 		ldr	r1, [sp, #12]	@ float
 644 04f4 000084E5 		str	r0, [r4, #0]	@ float
 645 04f8 0700A0E1 		mov	r0, r7
 646 04fc FEFFFFEB 		bl	__aeabi_fadd
 647 0500 040084E5 		str	r0, [r4, #4]	@ float
 648 0504 030095E8 		ldmia	r5, {r0, r1}
 649 0508 0C0094E8 		ldmia	r4, {r2, r3}
 650 050c FEFFFFEB 		bl	get_two_intersects.constprop.0
 651 0510 000050E3 		cmp	r0, #0
 652 0514 E8309F05 		ldreq	r3, .L69+100
 653 0518 0000C305 		streqb	r0, [r3, #0]
 654 051c 1B00000A 		beq	.L60
 655 0520 C4609FE5 		ldr	r6, .L69+76
 656 0524 000095E5 		ldr	r0, [r5, #0]	@ float
 657 0528 001096E5 		ldr	r1, [r6, #0]	@ float
 658 052c FEFFFFEB 		bl	__aeabi_fsub
 659 0530 D0409FE5 		ldr	r4, .L69+104
 660 0534 041096E5 		ldr	r1, [r6, #4]	@ float
 661 0538 000084E5 		str	r0, [r4, #0]	@ float
 662 053c 040095E5 		ldr	r0, [r5, #4]	@ float
 663 0540 FEFFFFEB 		bl	__aeabi_fsub
 664 0544 C0309FE5 		ldr	r3, .L69+108
 665 0548 0020A0E3 		mov	r2, #0
 666 054c 0020C3E5 		strb	r2, [r3, #0]
 667 0550 B8209FE5 		ldr	r2, .L69+112
 668 0554 0030A0E3 		mov	r3, #0
 669 0558 003082E5 		str	r3, [r2, #0]	@ float
 670 055c B0209FE5 		ldr	r2, .L69+116
 671 0560 0310A0E3 		mov	r1, #3
 672 0564 0010C2E5 		strb	r1, [r2, #0]
 673 0568 54209FE5 		ldr	r2, .L69+36
 674 056c 001092E5 		ldr	r1, [r2, #0]	@ float
 675 0570 A0209FE5 		ldr	r2, .L69+120
 676 0574 001082E5 		str	r1, [r2, #0]	@ float
 677 0578 9C209FE5 		ldr	r2, .L69+124
 678 057c 003082E5 		str	r3, [r2, #0]	@ float
 679 0580 7C309FE5 		ldr	r3, .L69+100
 680 0584 0120A0E3 		mov	r2, #1
 681 0588 040084E5 		str	r0, [r4, #4]	@ float
 682 058c 0020C3E5 		strb	r2, [r3, #0]
 683              	.L60:
 684 0590 0000A0E3 		mov	r0, #0
 685 0594 1CD08DE2 		add	sp, sp, #28
 686 0598 F04FBDE8 		ldmfd	sp!, {r4, r5, r6, r7, r8, r9, sl, fp, lr}
 687 059c 1EFF2FE1 		bx	lr
 688              	.L70:
 689              		.align	2
 690              	.L69:
 691 05a0 00806640 		.word	1080459264
 692 05a4 182D4454 		.word	1413754136
 693 05a8 FB210940 		.word	1074340347
 694 05ac 0000B443 		.word	1135869952
 695 05b0 00000000 		.word	poly_first
 696 05b4 00000000 		.word	poly_count
 697 05b8 00000000 		.word	psa_sweep_width
 698 05bc 00000000 		.word	psa_min_rad
 699 05c0 00000000 		.word	psa_shot_dist
 700 05c4 00000000 		.word	psa_altitude
 701 05c8 00000000 		.word	segment_angle
 702 05cc 00003443 		.word	1127481344
 703 05d0 00000000 		.word	return_angle
 704 05d4 00003442 		.word	1110704128
 705 05d8 00809D43 		.word	1134395392
 706 05dc 00000000 		.word	dir_vec
 707 05e0 00000743 		.word	1124532224
 708 05e4 000080BF 		.word	-1082130432
 709 05e8 00006143 		.word	1130430464
 710 05ec 00000000 		.word	rad_vec
 711 05f0 00000000 		.word	sweep_vec
 712 05f4 00000000 		.word	waypoints
 713 05f8 0000E03F 		.word	1071644672
 714 05fc 00000000 		.word	seg_start
 715 0600 00000000 		.word	seg_end
 716 0604 00000000 		.word	psa_stage
 717 0608 00000000 		.word	entry_center
 718 060c 00000000 		.word	v_ctl_climb_mode
 719 0610 00000000 		.word	nav_pitch
 720 0614 00000000 		.word	v_ctl_mode
 721 0618 00000000 		.word	nav_altitude
 722 061c 00000000 		.word	v_ctl_altitude_pre_climb
 724              		.global	__aeabi_i2d
 725              		.global	__aeabi_dsub
 726              		.section	.text.poly_survey_adv,"ax",%progbits
 727              		.align	2
 728              		.global	poly_survey_adv
 730              	poly_survey_adv:
 731              		@ Function supports interworking.
 732              		@ args = 0, pretend = 0, frame = 24
 733              		@ frame_needed = 0, uses_anonymous_args = 0
 734 0000 E4369FE5 		ldr	r3, .L127
 735 0004 F04F2DE9 		stmfd	sp!, {r4, r5, r6, r7, r8, r9, sl, fp, lr}
 736 0008 0040A0E3 		mov	r4, #0
 737 000c 0040C3E5 		strb	r4, [r3, #0]
 738 0010 D8369FE5 		ldr	r3, .L127+4
 739 0014 0050A0E3 		mov	r5, #0
 740 0018 005083E5 		str	r5, [r3, #0]	@ float
 741 001c D0369FE5 		ldr	r3, .L127+8
 742 0020 0320A0E3 		mov	r2, #3
 743 0024 0020C3E5 		strb	r2, [r3, #0]
 744 0028 C8369FE5 		ldr	r3, .L127+12
 745 002c 002093E5 		ldr	r2, [r3, #0]	@ float
 746 0030 C4369FE5 		ldr	r3, .L127+16
 747 0034 002083E5 		str	r2, [r3, #0]	@ float
 748 0038 C0369FE5 		ldr	r3, .L127+20
 749 003c 005083E5 		str	r5, [r3, #0]	@ float
 750 0040 BC369FE5 		ldr	r3, .L127+24
 751 0044 0030D3E5 		ldrb	r3, [r3, #0]	@ zero_extendqisi2
 752 0048 010053E3 		cmp	r3, #1
 753 004c 24D04DE2 		sub	sp, sp, #36
 754 0050 5700001A 		bne	.L72
 755 0054 AC269FE5 		ldr	r2, .L127+28
 756 0058 AC369FE5 		ldr	r3, .L127+32
 757 005c 002092E5 		ldr	r2, [r2, #0]
 758 0060 000093E5 		ldr	r0, [r3, #0]	@ float
 759 0064 022182E2 		add	r2, r2, #-2147483648
 760 0068 041093E5 		ldr	r1, [r3, #4]	@ float
 761 006c FEFFFFEB 		bl	nav_circle_XY
 762 0070 98369FE5 		ldr	r3, .L127+36
 763 0074 000093E5 		ldr	r0, [r3, #0]
 764 0078 FEFFFFEB 		bl	__aeabi_i2d
 765 007c 0170A0E1 		mov	r7, r1
 766 0080 0060A0E1 		mov	r6, r0
 767 0084 FEFFFFEB 		bl	stateGetHorizontalSpeedDir_f
 768 0088 000090E5 		ldr	r0, [r0, #0]	@ float
 769 008c FEFFFFEB 		bl	__aeabi_f2d
 770 0090 7C269FE5 		ldr	r2, .L127+40
 771 0094 7C369FE5 		ldr	r3, .L127+44
 772 0098 FEFFFFEB 		bl	__aeabi_dmul
 773 009c 0020A0E1 		mov	r2, r0
 774 00a0 0130A0E1 		mov	r3, r1
 775 00a4 0600A0E1 		mov	r0, r6
 776 00a8 0710A0E1 		mov	r1, r7
 777 00ac FEFFFFEB 		bl	__aeabi_dsub
 778 00b0 FEFFFFEB 		bl	__aeabi_d2f
 779 00b4 020000EA 		b	.L124
 780              	.L76:
 781 00b8 0600A0E1 		mov	r0, r6
 782 00bc 58169FE5 		ldr	r1, .L127+48
 783 00c0 FEFFFFEB 		bl	__aeabi_fadd
 784              	.L124:
 785 00c4 0010A0E3 		mov	r1, #0
 786 00c8 0060A0E1 		mov	r6, r0
 787 00cc FEFFFFEB 		bl	__aeabi_fcmplt
 788 00d0 000050E3 		cmp	r0, #0
 789 00d4 FF7004E2 		and	r7, r4, #255
 790 00d8 0700000A 		beq	.L119
 791 00dc 014084E2 		add	r4, r4, #1
 792 00e0 010C54E3 		cmp	r4, #256
 793 00e4 F3FFFF1A 		bne	.L76
 794 00e8 0070A0E3 		mov	r7, #0
 795 00ec 020000EA 		b	.L119
 796              	.L80:
 797 00f0 24169FE5 		ldr	r1, .L127+48
 798 00f4 FEFFFFEB 		bl	__aeabi_fsub
 799 00f8 0060A0E1 		mov	r6, r0
 800              	.L119:
 801 00fc 0600A0E1 		mov	r0, r6
 802 0100 14169FE5 		ldr	r1, .L127+48
 803 0104 FEFFFFEB 		bl	__aeabi_fcmpge
 804 0108 000050E3 		cmp	r0, #0
 805 010c 0600A0E1 		mov	r0, r6
 806 0110 0200000A 		beq	.L78
 807 0114 017087E2 		add	r7, r7, #1
 808 0118 FF7017E2 		ands	r7, r7, #255
 809 011c F3FFFF1A 		bne	.L80
 810              	.L78:
 811 0120 F8159FE5 		ldr	r1, .L127+52
 812 0124 FEFFFFEB 		bl	__aeabi_fcmpgt
 813 0128 000050E3 		cmp	r0, #0
 814 012c 0400001A 		bne	.L81
 815 0130 0600A0E1 		mov	r0, r6
 816 0134 E8159FE5 		ldr	r1, .L127+56
 817 0138 FEFFFFEB 		bl	__aeabi_fcmplt
 818 013c 000050E3 		cmp	r0, #0
 819 0140 1B00000A 		beq	.L72
 820              	.L81:
 821 0144 DC259FE5 		ldr	r2, .L127+60
 822 0148 DC359FE5 		ldr	r3, .L127+64
 823 014c 00208DE5 		str	r2, [sp, #0]	@ float
 824 0150 000093E5 		ldr	r0, [r3, #0]	@ float
 825 0154 041093E5 		ldr	r1, [r3, #4]	@ float
 826 0158 D0359FE5 		ldr	r3, .L127+68
 827 015c 002093E5 		ldr	r2, [r3, #0]	@ float
 828 0160 CC359FE5 		ldr	r3, .L127+72
 829 0164 003093E5 		ldr	r3, [r3, #0]	@ float
 830 0168 FEFFFFEB 		bl	nav_approaching_xy
 831 016c 000050E3 		cmp	r0, #0
 832 0170 0F00000A 		beq	.L72
 833 0174 BC459FE5 		ldr	r4, .L127+76
 834 0178 B030D4E1 		ldrh	r3, [r4, #0]
 835 017c 800013E3 		tst	r3, #128
 836 0180 FEFFFF0B 		bleq	stateCalcPositionEnu_f
 837              	.L83:
 838 0184 6C359FE5 		ldr	r3, .L127+12
 839 0188 100194E5 		ldr	r0, [r4, #272]	@ float
 840 018c 001093E5 		ldr	r1, [r3, #0]	@ float
 841 0190 FEFFFFEB 		bl	__aeabi_fsub
 842 0194 A0159FE5 		ldr	r1, .L127+80
 843 0198 0201C0E3 		bic	r0, r0, #-2147483648
 844 019c FEFFFFEB 		bl	__aeabi_fcmple
 845 01a0 000050E3 		cmp	r0, #0
 846 01a4 58359F15 		ldrne	r3, .L127+24
 847 01a8 0220A013 		movne	r2, #2
 848 01ac 0020C315 		strneb	r2, [r3, #0]
 849 01b0 FEFFFF1B 		blne	nav_init_stage
 850              	.L72:
 851 01b4 48259FE5 		ldr	r2, .L127+24
 852 01b8 0030D2E5 		ldrb	r3, [r2, #0]	@ zero_extendqisi2
 853 01bc 020053E3 		cmp	r3, #2
 854 01c0 A000001A 		bne	.L85
 855 01c4 60659FE5 		ldr	r6, .L127+64
 856 01c8 70459FE5 		ldr	r4, .L127+84
 857 01cc 000096E5 		ldr	r0, [r6, #0]	@ float
 858 01d0 041096E5 		ldr	r1, [r6, #4]	@ float
 859 01d4 002094E5 		ldr	r2, [r4, #0]	@ float
 860 01d8 043094E5 		ldr	r3, [r4, #4]	@ float
 861 01dc FEFFFFEB 		bl	nav_route_xy
 862 01e0 00508DE5 		str	r5, [sp, #0]	@ float
 863 01e4 000094E5 		ldr	r0, [r4, #0]	@ float
 864 01e8 041094E5 		ldr	r1, [r4, #4]	@ float
 865 01ec 002096E5 		ldr	r2, [r6, #0]	@ float
 866 01f0 043096E5 		ldr	r3, [r6, #4]	@ float
 867 01f4 FEFFFFEB 		bl	nav_approaching_xy
 868 01f8 000050E3 		cmp	r0, #0
 869 01fc 3601000A 		beq	.L123
 870 0200 3C559FE5 		ldr	r5, .L127+88
 871 0204 008094E5 		ldr	r8, [r4, #0]	@ float
 872 0208 007095E5 		ldr	r7, [r5, #0]	@ float
 873 020c 0800A0E1 		mov	r0, r8
 874 0210 0710A0E1 		mov	r1, r7
 875 0214 FEFFFFEB 		bl	__aeabi_fsub
 876 0218 28A59FE5 		ldr	sl, .L127+92
 877 021c 049095E5 		ldr	r9, [r5, #4]	@ float
 878 0220 044094E5 		ldr	r4, [r4, #4]	@ float
 879 0224 00008AE5 		str	r0, [sl, #0]	@ float
 880 0228 0910A0E1 		mov	r1, r9
 881 022c 0400A0E1 		mov	r0, r4
 882 0230 FEFFFFEB 		bl	__aeabi_fsub
 883 0234 0710A0E1 		mov	r1, r7
 884 0238 04008AE5 		str	r0, [sl, #4]	@ float
 885 023c 0700A0E1 		mov	r0, r7
 886 0240 FEFFFFEB 		bl	__aeabi_fadd
 887 0244 0010A0E1 		mov	r1, r0
 888 0248 0800A0E1 		mov	r0, r8
 889 024c FEFFFFEB 		bl	__aeabi_fsub
 890 0250 F4A49FE5 		ldr	sl, .L127+96
 891 0254 0910A0E1 		mov	r1, r9
 892 0258 00008AE5 		str	r0, [sl, #0]	@ float
 893 025c 0900A0E1 		mov	r0, r9
 894 0260 FEFFFFEB 		bl	__aeabi_fadd
 895 0264 0010A0E1 		mov	r1, r0
 896 0268 0400A0E1 		mov	r0, r4
 897 026c FEFFFFEB 		bl	__aeabi_fsub
 898 0270 D8749FE5 		ldr	r7, .L127+100
 899 0274 04008AE5 		str	r0, [sl, #4]	@ float
 900 0278 04A097E5 		ldr	sl, [r7, #4]	@ float
 901 027c 041096E5 		ldr	r1, [r6, #4]	@ float
 902 0280 0A00A0E1 		mov	r0, sl
 903 0284 FEFFFFEB 		bl	__aeabi_fadd
 904 0288 009097E5 		ldr	r9, [r7, #0]	@ float
 905 028c 00B0A0E1 		mov	fp, r0
 906 0290 0910A0E1 		mov	r1, r9
 907 0294 000096E5 		ldr	r0, [r6, #0]	@ float
 908 0298 FEFFFFEB 		bl	__aeabi_fadd
 909 029c 0910A0E1 		mov	r1, r9
 910 02a0 10008DE5 		str	r0, [sp, #16]	@ float
 911 02a4 0800A0E1 		mov	r0, r8
 912 02a8 14B08DE5 		str	fp, [sp, #20]	@ float
 913 02ac FEFFFFEB 		bl	__aeabi_fadd
 914 02b0 0A10A0E1 		mov	r1, sl
 915 02b4 18008DE5 		str	r0, [sp, #24]	@ float
 916 02b8 0400A0E1 		mov	r0, r4
 917 02bc FEFFFFEB 		bl	__aeabi_fadd
 918 02c0 1C008DE5 		str	r0, [sp, #28]	@ float
 919 02c4 10308DE2 		add	r3, sp, #16
 920 02c8 20C08DE2 		add	ip, sp, #32
 921 02cc 030093E8 		ldmia	r3, {r0, r1}
 922 02d0 0C001CE9 		ldmdb	ip, {r2, r3}
 923 02d4 FEFFFFEB 		bl	get_two_intersects.constprop.0
 924 02d8 000050E3 		cmp	r0, #0
 925 02dc FF00000A 		beq	.L86
 926 02e0 00A096E5 		ldr	sl, [r6, #0]	@ float
 927 02e4 004097E5 		ldr	r4, [r7, #0]	@ float
 928 02e8 0A00A0E1 		mov	r0, sl
 929 02ec 0410A0E1 		mov	r1, r4
 930 02f0 FEFFFFEB 		bl	__aeabi_fsub
 931 02f4 008095E5 		ldr	r8, [r5, #0]	@ float
 932 02f8 00B0A0E1 		mov	fp, r0
 933 02fc 0810A0E1 		mov	r1, r8
 934 0300 0800A0E1 		mov	r0, r8
 935 0304 FEFFFFEB 		bl	__aeabi_fadd
 936 0308 0010A0E1 		mov	r1, r0
 937 030c 0B00A0E1 		mov	r0, fp
 938 0310 FEFFFFEB 		bl	__aeabi_fsub
 939 0314 38949FE5 		ldr	r9, .L127+104
 940 0318 046096E5 		ldr	r6, [r6, #4]	@ float
 941 031c 047097E5 		ldr	r7, [r7, #4]	@ float
 942 0320 000089E5 		str	r0, [r9, #0]	@ float
 943 0324 0710A0E1 		mov	r1, r7
 944 0328 0600A0E1 		mov	r0, r6
 945 032c FEFFFFEB 		bl	__aeabi_fsub
 946 0330 045095E5 		ldr	r5, [r5, #4]	@ float
 947 0334 00B0A0E1 		mov	fp, r0
 948 0338 0510A0E1 		mov	r1, r5
 949 033c 0500A0E1 		mov	r0, r5
 950 0340 FEFFFFEB 		bl	__aeabi_fadd
 951 0344 0010A0E1 		mov	r1, r0
 952 0348 0B00A0E1 		mov	r0, fp
 953 034c FEFFFFEB 		bl	__aeabi_fsub
 954 0350 040089E5 		str	r0, [r9, #4]	@ float
 955 0354 0A00A0E1 		mov	r0, sl
 956 0358 FEFFFFEB 		bl	__aeabi_f2d
 957 035c 08008DE5 		str	r0, [sp, #8]
 958 0360 0C108DE5 		str	r1, [sp, #12]
 959 0364 0800A0E1 		mov	r0, r8
 960 0368 FEFFFFEB 		bl	__aeabi_f2d
 961 036c 0020A0E1 		mov	r2, r0
 962 0370 0130A0E1 		mov	r3, r1
 963 0374 FEFFFFEB 		bl	__aeabi_dadd
 964 0378 00A0A0E1 		mov	sl, r0
 965 037c 0400A0E1 		mov	r0, r4
 966 0380 01B0A0E1 		mov	fp, r1
 967 0384 FEFFFFEB 		bl	__aeabi_f2d
 968 0388 0020A0E1 		mov	r2, r0
 969 038c 0130A0E1 		mov	r3, r1
 970 0390 0A00A0E1 		mov	r0, sl
 971 0394 0B10A0E1 		mov	r1, fp
 972 0398 FEFFFFEB 		bl	__aeabi_dadd
 973 039c 0020A0E3 		mov	r2, #0
 974 03a0 B0339FE5 		ldr	r3, .L127+108
 975 03a4 FEFFFFEB 		bl	__aeabi_dmul
 976 03a8 0020A0E1 		mov	r2, r0
 977 03ac 0130A0E1 		mov	r3, r1
 978 03b0 08108DE2 		add	r1, sp, #8
 979 03b4 030091E8 		ldmia	r1, {r0-r1}
 980 03b8 FEFFFFEB 		bl	__aeabi_dsub
 981 03bc FEFFFFEB 		bl	__aeabi_d2f
 982 03c0 94939FE5 		ldr	r9, .L127+112
 983 03c4 000089E5 		str	r0, [r9, #0]	@ float
 984 03c8 0600A0E1 		mov	r0, r6
 985 03cc FEFFFFEB 		bl	__aeabi_f2d
 986 03d0 00A0A0E1 		mov	sl, r0
 987 03d4 0500A0E1 		mov	r0, r5
 988 03d8 01B0A0E1 		mov	fp, r1
 989 03dc FEFFFFEB 		bl	__aeabi_f2d
 990 03e0 0020A0E1 		mov	r2, r0
 991 03e4 0130A0E1 		mov	r3, r1
 992 03e8 FEFFFFEB 		bl	__aeabi_dadd
 993 03ec 0040A0E1 		mov	r4, r0
 994 03f0 0700A0E1 		mov	r0, r7
 995 03f4 0150A0E1 		mov	r5, r1
 996 03f8 FEFFFFEB 		bl	__aeabi_f2d
 997 03fc 0020A0E1 		mov	r2, r0
 998 0400 0130A0E1 		mov	r3, r1
 999 0404 0400A0E1 		mov	r0, r4
 1000 0408 0510A0E1 		mov	r1, r5
 1001 040c FEFFFFEB 		bl	__aeabi_dadd
 1002 0410 0020A0E3 		mov	r2, #0
 1003 0414 3C339FE5 		ldr	r3, .L127+108
 1004 0418 FEFFFFEB 		bl	__aeabi_dmul
 1005 041c 0020A0E1 		mov	r2, r0
 1006 0420 0130A0E1 		mov	r3, r1
 1007 0424 0A00A0E1 		mov	r0, sl
 1008 0428 0B10A0E1 		mov	r1, fp
 1009 042c FEFFFFEB 		bl	__aeabi_dsub
 1010 0430 FEFFFFEB 		bl	__aeabi_d2f
 1011 0434 C8229FE5 		ldr	r2, .L127+24
 1012 0438 0330A0E3 		mov	r3, #3
 1013 043c 040089E5 		str	r0, [r9, #4]	@ float
 1014 0440 0030C2E5 		strb	r3, [r2, #0]
 1015 0444 A30000EA 		b	.L125
 1016              	.L85:
 1017 0448 030053E3 		cmp	r3, #3
 1018 044c 4000001A 		bne	.L87
 1019 0450 B0229FE5 		ldr	r2, .L127+28
 1020 0454 EC329FE5 		ldr	r3, .L127+92
 1021 0458 002092E5 		ldr	r2, [r2, #0]
 1022 045c 000093E5 		ldr	r0, [r3, #0]	@ float
 1023 0460 022182E2 		add	r2, r2, #-2147483648
 1024 0464 041093E5 		ldr	r1, [r3, #4]	@ float
 1025 0468 FEFFFFEB 		bl	nav_circle_XY
 1026 046c EC329FE5 		ldr	r3, .L127+116
 1027 0470 000093E5 		ldr	r0, [r3, #0]
 1028 0474 FEFFFFEB 		bl	__aeabi_i2d
 1029 0478 0150A0E1 		mov	r5, r1
 1030 047c 0040A0E1 		mov	r4, r0
 1031 0480 FEFFFFEB 		bl	stateGetHorizontalSpeedDir_f
 1032 0484 000090E5 		ldr	r0, [r0, #0]	@ float
 1033 0488 FEFFFFEB 		bl	__aeabi_f2d
 1034 048c 80229FE5 		ldr	r2, .L127+40
 1035 0490 80329FE5 		ldr	r3, .L127+44
 1036 0494 FEFFFFEB 		bl	__aeabi_dmul
 1037 0498 0020A0E1 		mov	r2, r0
 1038 049c 0130A0E1 		mov	r3, r1
 1039 04a0 0400A0E1 		mov	r0, r4
 1040 04a4 0510A0E1 		mov	r1, r5
 1041 04a8 FEFFFFEB 		bl	__aeabi_dsub
 1042 04ac FEFFFFEB 		bl	__aeabi_d2f
 1043 04b0 0050A0E3 		mov	r5, #0
 1044 04b4 0040A0E1 		mov	r4, r0
 1045 04b8 030000EA 		b	.L88
 1046              	.L91:
 1047 04bc 0400A0E1 		mov	r0, r4
 1048 04c0 54129FE5 		ldr	r1, .L127+48
 1049 04c4 FEFFFFEB 		bl	__aeabi_fadd
 1050 04c8 0040A0E1 		mov	r4, r0
 1051              	.L88:
 1052 04cc 0400A0E1 		mov	r0, r4
 1053 04d0 0010A0E3 		mov	r1, #0
 1054 04d4 FEFFFFEB 		bl	__aeabi_fcmplt
 1055 04d8 000050E3 		cmp	r0, #0
 1056 04dc FF6005E2 		and	r6, r5, #255
 1057 04e0 0700000A 		beq	.L120
 1058 04e4 015085E2 		add	r5, r5, #1
 1059 04e8 010C55E3 		cmp	r5, #256
 1060 04ec F2FFFF1A 		bne	.L91
 1061 04f0 0060A0E3 		mov	r6, #0
 1062 04f4 020000EA 		b	.L120
 1063              	.L95:
 1064 04f8 1C129FE5 		ldr	r1, .L127+48
 1065 04fc FEFFFFEB 		bl	__aeabi_fsub
 1066 0500 0040A0E1 		mov	r4, r0
 1067              	.L120:
 1068 0504 0400A0E1 		mov	r0, r4
 1069 0508 0C129FE5 		ldr	r1, .L127+48
 1070 050c FEFFFFEB 		bl	__aeabi_fcmpge
 1071 0510 000050E3 		cmp	r0, #0
 1072 0514 0400A0E1 		mov	r0, r4
 1073 0518 0200000A 		beq	.L93
 1074 051c 016086E2 		add	r6, r6, #1
 1075 0520 FF6016E2 		ands	r6, r6, #255
 1076 0524 F3FFFF1A 		bne	.L95
 1077              	.L93:
 1078 0528 F0119FE5 		ldr	r1, .L127+52
 1079 052c FEFFFFEB 		bl	__aeabi_fcmpgt
 1080 0530 000050E3 		cmp	r0, #0
 1081 0534 0400001A 		bne	.L96
 1082 0538 0400A0E1 		mov	r0, r4
 1083 053c E0119FE5 		ldr	r1, .L127+56
 1084 0540 FEFFFFEB 		bl	__aeabi_fcmplt
 1085 0544 000050E3 		cmp	r0, #0
 1086 0548 6300000A 		beq	.L123
 1087              	.L96:
 1088 054c 0420A0E3 		mov	r2, #4
 1089 0550 5E0000EA 		b	.L126
 1090              	.L87:
 1091 0554 040053E3 		cmp	r3, #4
 1092 0558 1200001A 		bne	.L98
 1093 055c E8419FE5 		ldr	r4, .L127+96
 1094 0560 EC619FE5 		ldr	r6, .L127+104
 1095 0564 000094E5 		ldr	r0, [r4, #0]	@ float
 1096 0568 041094E5 		ldr	r1, [r4, #4]	@ float
 1097 056c 002096E5 		ldr	r2, [r6, #0]	@ float
 1098 0570 043096E5 		ldr	r3, [r6, #4]	@ float
 1099 0574 FEFFFFEB 		bl	nav_route_xy
 1100 0578 00508DE5 		str	r5, [sp, #0]	@ float
 1101 057c 000096E5 		ldr	r0, [r6, #0]	@ float
 1102 0580 041096E5 		ldr	r1, [r6, #4]	@ float
 1103 0584 002094E5 		ldr	r2, [r4, #0]	@ float
 1104 0588 043094E5 		ldr	r3, [r4, #4]	@ float
 1105 058c FEFFFFEB 		bl	nav_approaching_xy
 1106 0590 000050E3 		cmp	r0, #0
 1107 0594 5000000A 		beq	.L123
 1108 0598 64C19FE5 		ldr	ip, .L127+24
 1109 059c 0530A0E3 		mov	r3, #5
 1110 05a0 0030CCE5 		strb	r3, [ip, #0]
 1111 05a4 4B0000EA 		b	.L125
 1112              	.L98:
 1113 05a8 050053E3 		cmp	r3, #5
 1114 05ac 4A00001A 		bne	.L123
 1115 05b0 50319FE5 		ldr	r3, .L127+28
 1116 05b4 000093E5 		ldr	r0, [r3, #0]	@ float
 1117 05b8 0010A0E1 		mov	r1, r0
 1118 05bc FEFFFFEB 		bl	__aeabi_fadd
 1119 05c0 9C319FE5 		ldr	r3, .L127+120
 1120 05c4 001093E5 		ldr	r1, [r3, #0]	@ float
 1121 05c8 FEFFFFEB 		bl	__aeabi_fadd
 1122 05cc 3F14A0E3 		mov	r1, #1056964608
 1123 05d0 020180E2 		add	r0, r0, #-2147483648
 1124 05d4 FEFFFFEB 		bl	__aeabi_fmul
 1125 05d8 7C419FE5 		ldr	r4, .L127+112
 1126 05dc 0020A0E1 		mov	r2, r0
 1127 05e0 041094E5 		ldr	r1, [r4, #4]	@ float
 1128 05e4 000094E5 		ldr	r0, [r4, #0]	@ float
 1129 05e8 FEFFFFEB 		bl	nav_circle_XY
 1130 05ec 1C319FE5 		ldr	r3, .L127+36
 1131 05f0 000093E5 		ldr	r0, [r3, #0]
 1132 05f4 FEFFFFEB 		bl	__aeabi_i2d
 1133 05f8 0150A0E1 		mov	r5, r1
 1134 05fc 0040A0E1 		mov	r4, r0
 1135 0600 FEFFFFEB 		bl	stateGetHorizontalSpeedDir_f
 1136 0604 000090E5 		ldr	r0, [r0, #0]	@ float
 1137 0608 FEFFFFEB 		bl	__aeabi_f2d
 1138 060c 00219FE5 		ldr	r2, .L127+40
 1139 0610 00319FE5 		ldr	r3, .L127+44
 1140 0614 FEFFFFEB 		bl	__aeabi_dmul
 1141 0618 0020A0E1 		mov	r2, r0
 1142 061c 0130A0E1 		mov	r3, r1
 1143 0620 0400A0E1 		mov	r0, r4
 1144 0624 0510A0E1 		mov	r1, r5
 1145 0628 FEFFFFEB 		bl	__aeabi_dsub
 1146 062c FEFFFFEB 		bl	__aeabi_d2f
 1147 0630 0050A0E3 		mov	r5, #0
 1148 0634 0040A0E1 		mov	r4, r0
 1149 0638 030000EA 		b	.L99
 1150              	.L102:
 1151 063c 0400A0E1 		mov	r0, r4
 1152 0640 D4109FE5 		ldr	r1, .L127+48
 1153 0644 FEFFFFEB 		bl	__aeabi_fadd
 1154 0648 0040A0E1 		mov	r4, r0
 1155              	.L99:
 1156 064c 0400A0E1 		mov	r0, r4
 1157 0650 0010A0E3 		mov	r1, #0
 1158 0654 FEFFFFEB 		bl	__aeabi_fcmplt
 1159 0658 000050E3 		cmp	r0, #0
 1160 065c FF6005E2 		and	r6, r5, #255
 1161 0660 0700000A 		beq	.L122
 1162 0664 015085E2 		add	r5, r5, #1
 1163 0668 010C55E3 		cmp	r5, #256
 1164 066c F2FFFF1A 		bne	.L102
 1165 0670 0060A0E3 		mov	r6, #0
 1166 0674 020000EA 		b	.L122
 1167              	.L106:
 1168 0678 9C109FE5 		ldr	r1, .L127+48
 1169 067c FEFFFFEB 		bl	__aeabi_fsub
 1170 0680 0040A0E1 		mov	r4, r0
 1171              	.L122:
 1172 0684 0400A0E1 		mov	r0, r4
 1173 0688 8C109FE5 		ldr	r1, .L127+48
 1174 068c FEFFFFEB 		bl	__aeabi_fcmpge
 1175 0690 000050E3 		cmp	r0, #0
 1176 0694 0400A0E1 		mov	r0, r4
 1177 0698 0200000A 		beq	.L104
 1178 069c 016086E2 		add	r6, r6, #1
 1179 06a0 FF6016E2 		ands	r6, r6, #255
 1180 06a4 F3FFFF1A 		bne	.L106
 1181              	.L104:
 1182 06a8 70109FE5 		ldr	r1, .L127+52
 1183 06ac FEFFFFEB 		bl	__aeabi_fcmpgt
 1184 06b0 000050E3 		cmp	r0, #0
 1185 06b4 0400001A 		bne	.L107
 1186 06b8 0400A0E1 		mov	r0, r4
 1187 06bc 60109FE5 		ldr	r1, .L127+56
 1188 06c0 FEFFFFEB 		bl	__aeabi_fcmplt
 1189 06c4 000050E3 		cmp	r0, #0
 1190 06c8 0300000A 		beq	.L123
 1191              	.L107:
 1192 06cc 0220A0E3 		mov	r2, #2
 1193              	.L126:
 1194 06d0 2C309FE5 		ldr	r3, .L127+24
 1195 06d4 0020C3E5 		strb	r2, [r3, #0]
 1196              	.L125:
 1197 06d8 FEFFFFEB 		bl	nav_init_stage
 1198              	.L123:
 1199 06dc 0100A0E3 		mov	r0, #1
 1200              	.L86:
 1201 06e0 24D08DE2 		add	sp, sp, #36
 1202 06e4 F04FBDE8 		ldmfd	sp!, {r4, r5, r6, r7, r8, r9, sl, fp, lr}
 1203 06e8 1EFF2FE1 		bx	lr
 1204              	.L128:
 1205              		.align	2
 1206              	.L127:
 1207 06ec 00000000 		.word	v_ctl_climb_mode
 1208 06f0 00000000 		.word	nav_pitch
 1209 06f4 00000000 		.word	v_ctl_mode
 1210 06f8 00000000 		.word	psa_altitude
 1211 06fc 00000000 		.word	nav_altitude
 1212 0700 00000000 		.word	v_ctl_altitude_pre_climb
 1213 0704 00000000 		.word	psa_stage
 1214 0708 00000000 		.word	psa_min_rad
 1215 070c 00000000 		.word	entry_center
 1216 0710 00000000 		.word	segment_angle
 1217 0714 F8C1631A 		.word	442745336
 1218 0718 DCA54C40 		.word	1078765020
 1219 071c 0000B443 		.word	1135869952
 1220 0720 0000AF43 		.word	1135542272
 1221 0724 00002041 		.word	1092616192
 1222 0728 0000A040 		.word	1084227584
 1223 072c 00000000 		.word	seg_start
 1224 0730 00000000 		.word	last_x
 1225 0734 00000000 		.word	last_y
 1226 0738 00000000 		.word	state
 1227 073c 0000A041 		.word	1101004800
 1228 0740 00000000 		.word	seg_end
 1229 0744 00000000 		.word	rad_vec
 1230 0748 00000000 		.word	seg_center1
 1231 074c 00000000 		.word	ret_start
 1232 0750 00000000 		.word	sweep_vec
 1233 0754 00000000 		.word	ret_end
 1234 0758 0000E03F 		.word	1071644672
 1235 075c 00000000 		.word	seg_center2
 1236 0760 00000000 		.word	return_angle
 1237 0764 00000000 		.word	psa_sweep_width
 1239              		.comm	ret_end,8,4
 1240              		.comm	ret_start,8,4
 1241              		.comm	entry_center,8,4
 1242              		.comm	seg_center2,8,4
 1243              		.comm	seg_center1,8,4
 1244              		.comm	seg_end,8,4
 1245              		.comm	seg_start,8,4
 1246              		.comm	psa_stage,1,1
 1247              		.comm	return_angle,4,4
 1248              		.comm	segment_angle,4,4
 1249              		.comm	psa_altitude,4,4
 1250              		.comm	psa_shot_dist,4,4
 1251              		.comm	psa_sweep_width,4,4
 1252              		.comm	psa_min_rad,4,4
 1253              		.comm	poly_count,1,1
 1254              		.comm	poly_first,1,1
 1255              		.comm	rad_vec,8,4
 1256              		.comm	sweep_vec,8,4
 1257              		.comm	dir_vec,8,4
 1258              		.ident	"GCC: (Linaro GCC 4.6-2011.09-1) 4.6.2 20110908 (prerelease)"