   1              		.cpu arm7tdmi
   2              		.fpu softvfp
   3              		.eabi_attribute 20, 1
   4              		.eabi_attribute 21, 1
   5              		.eabi_attribute 23, 3
   6              		.eabi_attribute 24, 1
   7              		.eabi_attribute 25, 1
   8              		.eabi_attribute 26, 1
   9              		.eabi_attribute 30, 4
  10              		.eabi_attribute 18, 4
  11              		.file	"spiral.c"
  12              		.section	.text.stateGetPositionEnu_f,"ax",%progbits
  13              		.align	2
  15              	stateGetPositionEnu_f:
  16              		@ Function supports interworking.
  17              		@ args = 0, pretend = 0, frame = 0
  18              		@ frame_needed = 0, uses_anonymous_args = 0
  19 0000 08402DE9 		stmfd	sp!, {r3, lr}
  20 0004 14309FE5 		ldr	r3, .L3
  21 0008 B030D3E1 		ldrh	r3, [r3, #0]
  22 000c 800013E3 		tst	r3, #128
  23 0010 FEFFFF0B 		bleq	stateCalcPositionEnu_f
  24              	.L2:
  25 0014 08009FE5 		ldr	r0, .L3+4
  26 0018 0840BDE8 		ldmfd	sp!, {r3, lr}
  27 001c 1EFF2FE1 		bx	lr
  28              	.L4:
  29              		.align	2
  30              	.L3:
  31 0020 00000000 		.word	state
  32 0024 08010000 		.word	state+264
  34              		.global	__aeabi_fcmplt
  35              		.global	__aeabi_fsub
  36              		.global	__aeabi_fmul
  37              		.global	__aeabi_fadd
  38              		.global	__aeabi_f2d
  39              		.global	__aeabi_d2f
  40              		.global	__aeabi_ddiv
  41              		.global	__aeabi_fcmpgt
  42              		.section	.text.InitializeSpiral,"ax",%progbits
  43              		.align	2
  44              		.global	InitializeSpiral
  46              	InitializeSpiral:
  47              		@ Function supports interworking.
  48              		@ args = 8, pretend = 0, frame = 0
  49              		@ frame_needed = 0, uses_anonymous_args = 0
  50 0000 F0472DE9 		stmfd	sp!, {r4, r5, r6, r7, r8, r9, sl, lr}
  51 0004 03A0A0E1 		mov	sl, r3
  52 0008 EC319FE5 		ldr	r3, .L12
  53 000c 0000C3E5 		strb	r0, [r3, #0]
  54 0010 E8319FE5 		ldr	r3, .L12+4
  55 0014 20809DE5 		ldr	r8, [sp, #32]	@ float
  56 0018 0010C3E5 		strb	r1, [r3, #0]
  57 001c E0319FE5 		ldr	r3, .L12+8
  58 0020 0150A0E1 		mov	r5, r1
  59 0024 008083E5 		str	r8, [r3, #0]	@ float
  60 0028 24109DE5 		ldr	r1, [sp, #36]	@ float
  61 002c D4319FE5 		ldr	r3, .L12+12
  62 0030 D4619FE5 		ldr	r6, .L12+16
  63 0034 001083E5 		str	r1, [r3, #0]	@ float
  64 0038 D0719FE5 		ldr	r7, .L12+20
  65 003c D0319FE5 		ldr	r3, .L12+24
  66 0040 002087E5 		str	r2, [r7, #0]	@ float
  67 0044 006083E5 		str	r6, [r3, #0]	@ float
  68 0048 0610A0E1 		mov	r1, r6
  69 004c 0040A0E1 		mov	r4, r0
  70 0050 0200A0E1 		mov	r0, r2
  71 0054 FEFFFFEB 		bl	__aeabi_fcmplt
  72 0058 000050E3 		cmp	r0, #0
  73 005c 00608715 		strne	r6, [r7, #0]	@ float
  74 0060 0C70A0E3 		mov	r7, #12
  75 0064 970505E0 		mul	r5, r7, r5
  76 0068 970404E0 		mul	r4, r7, r4
  77 006c A4319FE5 		ldr	r3, .L12+28
  78 0070 A4619FE5 		ldr	r6, .L12+32
  79 0074 00A083E5 		str	sl, [r3, #0]	@ float
  80 0078 041096E7 		ldr	r1, [r6, r4]	@ float
  81 007c 050096E7 		ldr	r0, [r6, r5]	@ float
  82 0080 FEFFFFEB 		bl	__aeabi_fsub
  83 0084 94319FE5 		ldr	r3, .L12+36
  84 0088 000083E5 		str	r0, [r3, #0]	@ float
  85 008c 059086E0 		add	r9, r6, r5
  86 0090 04A086E0 		add	sl, r6, r4
  87 0094 04109AE5 		ldr	r1, [sl, #4]	@ float
  88 0098 0050A0E1 		mov	r5, r0
  89 009c 040099E5 		ldr	r0, [r9, #4]	@ float
  90 00a0 FEFFFFEB 		bl	__aeabi_fsub
  91 00a4 78319FE5 		ldr	r3, .L12+40
  92 00a8 0040A0E1 		mov	r4, r0
  93 00ac 000083E5 		str	r0, [r3, #0]	@ float
  94 00b0 0510A0E1 		mov	r1, r5
  95 00b4 0500A0E1 		mov	r0, r5
  96 00b8 FEFFFFEB 		bl	__aeabi_fmul
  97 00bc 0410A0E1 		mov	r1, r4
  98 00c0 0050A0E1 		mov	r5, r0
  99 00c4 0400A0E1 		mov	r0, r4
 100 00c8 FEFFFFEB 		bl	__aeabi_fmul
 101 00cc 0010A0E1 		mov	r1, r0
 102 00d0 0500A0E1 		mov	r0, r5
 103 00d4 FEFFFFEB 		bl	__aeabi_fadd
 104 00d8 FEFFFFEB 		bl	__aeabi_f2d
 105 00dc FEFFFFEB 		bl	sqrt
 106 00e0 FEFFFFEB 		bl	__aeabi_d2f
 107 00e4 3C419FE5 		ldr	r4, .L12+44
 108 00e8 000084E5 		str	r0, [r4, #0]	@ float
 109 00ec FEFFFFEB 		bl	stateGetPositionEnu_f
 110 00f0 04919FE5 		ldr	r9, .L12
 111 00f4 0030D9E5 		ldrb	r3, [r9, #0]	@ zero_extendqisi2
 112 00f8 970303E0 		mul	r3, r7, r3
 113 00fc 000090E5 		ldr	r0, [r0, #0]	@ float
 114 0100 031096E7 		ldr	r1, [r6, r3]	@ float
 115 0104 FEFFFFEB 		bl	__aeabi_fsub
 116 0108 1CA19FE5 		ldr	sl, .L12+48
 117 010c 00008AE5 		str	r0, [sl, #0]	@ float
 118 0110 FEFFFFEB 		bl	stateGetPositionEnu_f
 119 0114 0030D9E5 		ldrb	r3, [r9, #0]	@ zero_extendqisi2
 120 0118 976326E0 		mla	r6, r7, r3, r6
 121 011c 040090E5 		ldr	r0, [r0, #4]	@ float
 122 0120 041096E5 		ldr	r1, [r6, #4]	@ float
 123 0124 FEFFFFEB 		bl	__aeabi_fsub
 124 0128 00519FE5 		ldr	r5, .L12+52
 125 012c 000085E5 		str	r0, [r5, #0]	@ float
 126 0130 FEFFFFEB 		bl	stateGetPositionEnu_f
 127 0134 CC309FE5 		ldr	r3, .L12+12
 128 0138 080090E5 		ldr	r0, [r0, #8]	@ float
 129 013c 001093E5 		ldr	r1, [r3, #0]	@ float
 130 0140 FEFFFFEB 		bl	__aeabi_fsub
 131 0144 E8309FE5 		ldr	r3, .L12+56
 132 0148 000083E5 		str	r0, [r3, #0]	@ float
 133 014c 00009AE5 		ldr	r0, [sl, #0]	@ float
 134 0150 0010A0E1 		mov	r1, r0
 135 0154 FEFFFFEB 		bl	__aeabi_fmul
 136 0158 006095E5 		ldr	r6, [r5, #0]	@ float
 137 015c 0050A0E1 		mov	r5, r0
 138 0160 0610A0E1 		mov	r1, r6
 139 0164 0600A0E1 		mov	r0, r6
 140 0168 FEFFFFEB 		bl	__aeabi_fmul
 141 016c 0010A0E1 		mov	r1, r0
 142 0170 0500A0E1 		mov	r0, r5
 143 0174 FEFFFFEB 		bl	__aeabi_fadd
 144 0178 FEFFFFEB 		bl	__aeabi_f2d
 145 017c FEFFFFEB 		bl	sqrt
 146 0180 FEFFFFEB 		bl	__aeabi_d2f
 147 0184 AC509FE5 		ldr	r5, .L12+60
 148 0188 000085E5 		str	r0, [r5, #0]	@ float
 149 018c 0800A0E1 		mov	r0, r8
 150 0190 FEFFFFEB 		bl	__aeabi_f2d
 151 0194 0020A0E1 		mov	r2, r0
 152 0198 0130A0E1 		mov	r3, r1
 153 019c 98009FE5 		ldr	r0, .L12+64
 154 01a0 98109FE5 		ldr	r1, .L12+68
 155 01a4 FEFFFFEB 		bl	__aeabi_ddiv
 156 01a8 FEFFFFEB 		bl	__aeabi_d2f
 157 01ac 90309FE5 		ldr	r3, .L12+72
 158 01b0 000083E5 		str	r0, [r3, #0]	@ float
 159 01b4 FEFFFFEB 		bl	stateGetPositionEnu_f
 160 01b8 88309FE5 		ldr	r3, .L12+76
 161 01bc 002090E5 		ldr	r2, [r0, #0]	@ float
 162 01c0 002083E5 		str	r2, [r3, #0]	@ float
 163 01c4 FEFFFFEB 		bl	stateGetPositionEnu_f
 164 01c8 7C309FE5 		ldr	r3, .L12+80
 165 01cc 042090E5 		ldr	r2, [r0, #4]	@ float
 166 01d0 001094E5 		ldr	r1, [r4, #0]	@ float
 167 01d4 002083E5 		str	r2, [r3, #0]	@ float
 168 01d8 000095E5 		ldr	r0, [r5, #0]	@ float
 169 01dc FEFFFFEB 		bl	__aeabi_fcmpgt
 170 01e0 000050E3 		cmp	r0, #0
 171 01e4 64309F15 		ldrne	r3, .L12+84
 172 01e8 0020A013 		movne	r2, #0
 173 01ec 0020C315 		strneb	r2, [r3, #0]
 174 01f0 0000A0E3 		mov	r0, #0
 175 01f4 F047BDE8 		ldmfd	sp!, {r4, r5, r6, r7, r8, r9, sl, lr}
 176 01f8 1EFF2FE1 		bx	lr
 177              	.L13:
 178              		.align	2
 179              	.L12:
 180 01fc 00000000 		.word	.LANCHOR0
 181 0200 00000000 		.word	.LANCHOR1
 182 0204 00000000 		.word	.LANCHOR3
 183 0208 00000000 		.word	.LANCHOR4
 184 020c 0000F042 		.word	1123024896
 185 0210 00000000 		.word	.LANCHOR2
 186 0214 00000000 		.word	.LANCHOR5
 187 0218 00000000 		.word	.LANCHOR6
 188 021c 00000000 		.word	waypoints
 189 0220 00000000 		.word	.LANCHOR7
 190 0224 00000000 		.word	.LANCHOR8
 191 0228 00000000 		.word	.LANCHOR9
 192 022c 00000000 		.word	.LANCHOR10
 193 0230 00000000 		.word	.LANCHOR11
 194 0234 00000000 		.word	.LANCHOR12
 195 0238 00000000 		.word	.LANCHOR13
 196 023c 182D4454 		.word	1413754136
 197 0240 FB211940 		.word	1075388923
 198 0244 00000000 		.word	.LANCHOR14
 199 0248 00000000 		.word	.LANCHOR15
 200 024c 00000000 		.word	.LANCHOR16
 201 0250 00000000 		.word	.LANCHOR17
 203              		.global	__aeabi_fcmpge
 204              		.global	__aeabi_fdiv
 205              		.global	__aeabi_dadd
 206              		.section	.text.SpiralNav,"ax",%progbits
 207              		.align	2
 208              		.global	SpiralNav
 210              	SpiralNav:
 211              		@ Function supports interworking.
 212              		@ args = 0, pretend = 0, frame = 0
 213              		@ frame_needed = 0, uses_anonymous_args = 0
 214 0000 F7452DE9 		stmfd	sp!, {r0, r1, r2, r4, r5, r6, r7, r8, sl, lr}
 215 0004 FEFFFFEB 		bl	stateGetPositionEnu_f
 216 0008 D0629FE5 		ldr	r6, .L31
 217 000c 0030D6E5 		ldrb	r3, [r6, #0]	@ zero_extendqisi2
 218 0010 0C50A0E3 		mov	r5, #12
 219 0014 950303E0 		mul	r3, r5, r3
 220 0018 C4429FE5 		ldr	r4, .L31+4
 221 001c 000090E5 		ldr	r0, [r0, #0]	@ float
 222 0020 031094E7 		ldr	r1, [r4, r3]	@ float
 223 0024 FEFFFFEB 		bl	__aeabi_fsub
 224 0028 B8729FE5 		ldr	r7, .L31+8
 225 002c 000087E5 		str	r0, [r7, #0]	@ float
 226 0030 FEFFFFEB 		bl	stateGetPositionEnu_f
 227 0034 0080D6E5 		ldrb	r8, [r6, #0]	@ zero_extendqisi2
 228 0038 954823E0 		mla	r3, r5, r8, r4
 229 003c 040090E5 		ldr	r0, [r0, #4]	@ float
 230 0040 041093E5 		ldr	r1, [r3, #4]	@ float
 231 0044 FEFFFFEB 		bl	__aeabi_fsub
 232 0048 9C329FE5 		ldr	r3, .L31+12
 233 004c 0060A0E1 		mov	r6, r0
 234 0050 000083E5 		str	r0, [r3, #0]	@ float
 235 0054 000097E5 		ldr	r0, [r7, #0]	@ float
 236 0058 0010A0E1 		mov	r1, r0
 237 005c FEFFFFEB 		bl	__aeabi_fmul
 238 0060 0610A0E1 		mov	r1, r6
 239 0064 0070A0E1 		mov	r7, r0
 240 0068 0600A0E1 		mov	r0, r6
 241 006c FEFFFFEB 		bl	__aeabi_fmul
 242 0070 0010A0E1 		mov	r1, r0
 243 0074 0700A0E1 		mov	r0, r7
 244 0078 FEFFFFEB 		bl	__aeabi_fadd
 245 007c FEFFFFEB 		bl	__aeabi_f2d
 246 0080 FEFFFFEB 		bl	sqrt
 247 0084 FEFFFFEB 		bl	__aeabi_d2f
 248 0088 60329FE5 		ldr	r3, .L31+16
 249 008c 000083E5 		str	r0, [r3, #0]	@ float
 250 0090 5C329FE5 		ldr	r3, .L31+20
 251 0094 0030D3E5 		ldrb	r3, [r3, #0]	@ zero_extendqisi2
 252 0098 030053E3 		cmp	r3, #3
 253 009c 03F19F97 		ldrls	pc, [pc, r3, asl #2]
 254 00a0 8B0000EA 		b	.L15
 255              	.L20:
 256 00a4 B4000000 		.word	.L16
 257 00a8 14010000 		.word	.L17
 258 00ac 6C010000 		.word	.L18
 259 00b0 94020000 		.word	.L19
 260              	.L16:
 261 00b4 950808E0 		mul	r8, r5, r8
 262 00b8 38729FE5 		ldr	r7, .L31+24
 263 00bc 38629FE5 		ldr	r6, .L31+28
 264 00c0 083084E0 		add	r3, r4, r8
 265 00c4 000097E5 		ldr	r0, [r7, #0]	@ float
 266 00c8 001096E5 		ldr	r1, [r6, #0]	@ float
 267 00cc 082094E7 		ldr	r2, [r4, r8]	@ float
 268 00d0 043093E5 		ldr	r3, [r3, #4]	@ float
 269 00d4 FEFFFFEB 		bl	nav_route_xy
 270 00d8 00329FE5 		ldr	r3, .L31
 271 00dc 0030D3E5 		ldrb	r3, [r3, #0]	@ zero_extendqisi2
 272 00e0 930505E0 		mul	r5, r3, r5
 273 00e4 0020A0E3 		mov	r2, #0
 274 00e8 00208DE5 		str	r2, [sp, #0]	@ float
 275 00ec 053084E0 		add	r3, r4, r5
 276 00f0 041093E5 		ldr	r1, [r3, #4]	@ float
 277 00f4 002097E5 		ldr	r2, [r7, #0]	@ float
 278 00f8 050094E7 		ldr	r0, [r4, r5]	@ float
 279 00fc 003096E5 		ldr	r3, [r6, #0]	@ float
 280 0100 FEFFFFEB 		bl	nav_approaching_xy
 281 0104 000050E3 		cmp	r0, #0
 282 0108 0120A013 		movne	r2, #1
 283 010c 6E00001A 		bne	.L30
 284 0110 6F0000EA 		b	.L15
 285              	.L17:
 286 0114 980505E0 		mul	r5, r8, r5
 287 0118 E0619FE5 		ldr	r6, .L31+32
 288 011c 053084E0 		add	r3, r4, r5
 289 0120 041093E5 		ldr	r1, [r3, #4]	@ float
 290 0124 050094E7 		ldr	r0, [r4, r5]	@ float
 291 0128 002096E5 		ldr	r2, [r6, #0]	@ float
 292 012c FEFFFFEB 		bl	nav_circle_XY
 293 0130 B8319FE5 		ldr	r3, .L31+16
 294 0134 001096E5 		ldr	r1, [r6, #0]	@ float
 295 0138 000093E5 		ldr	r0, [r3, #0]	@ float
 296 013c FEFFFFEB 		bl	__aeabi_fcmpge
 297 0140 000050E3 		cmp	r0, #0
 298 0144 6200000A 		beq	.L15
 299 0148 FEFFFFEB 		bl	stateGetPositionEnu_f
 300 014c B0319FE5 		ldr	r3, .L31+36
 301 0150 002090E5 		ldr	r2, [r0, #0]	@ float
 302 0154 002083E5 		str	r2, [r3, #0]	@ float
 303 0158 FEFFFFEB 		bl	stateGetPositionEnu_f
 304 015c A4319FE5 		ldr	r3, .L31+40
 305 0160 042090E5 		ldr	r2, [r0, #4]	@ float
 306 0164 002083E5 		str	r2, [r3, #0]	@ float
 307 0168 560000EA 		b	.L25
 308              	.L18:
 309 016c 980505E0 		mul	r5, r8, r5
 310 0170 88619FE5 		ldr	r6, .L31+32
 311 0174 053084E0 		add	r3, r4, r5
 312 0178 050094E7 		ldr	r0, [r4, r5]	@ float
 313 017c 80519FE5 		ldr	r5, .L31+36
 314 0180 002096E5 		ldr	r2, [r6, #0]	@ float
 315 0184 041093E5 		ldr	r1, [r3, #4]	@ float
 316 0188 FEFFFFEB 		bl	nav_circle_XY
 317 018c 004095E5 		ldr	r4, [r5, #0]	@ float
 318 0190 FEFFFFEB 		bl	stateGetPositionEnu_f
 319 0194 0030A0E1 		mov	r3, r0
 320 0198 001093E5 		ldr	r1, [r3, #0]	@ float
 321 019c 0400A0E1 		mov	r0, r4
 322 01a0 FEFFFFEB 		bl	__aeabi_fsub
 323 01a4 007095E5 		ldr	r7, [r5, #0]	@ float
 324 01a8 0040A0E1 		mov	r4, r0
 325 01ac FEFFFFEB 		bl	stateGetPositionEnu_f
 326 01b0 0030A0E1 		mov	r3, r0
 327 01b4 001093E5 		ldr	r1, [r3, #0]	@ float
 328 01b8 0700A0E1 		mov	r0, r7
 329 01bc FEFFFFEB 		bl	__aeabi_fsub
 330 01c0 0010A0E1 		mov	r1, r0
 331 01c4 0400A0E1 		mov	r0, r4
 332 01c8 FEFFFFEB 		bl	__aeabi_fmul
 333 01cc 34419FE5 		ldr	r4, .L31+40
 334 01d0 0070A0E1 		mov	r7, r0
 335 01d4 008094E5 		ldr	r8, [r4, #0]	@ float
 336 01d8 FEFFFFEB 		bl	stateGetPositionEnu_f
 337 01dc 0030A0E1 		mov	r3, r0
 338 01e0 041093E5 		ldr	r1, [r3, #4]	@ float
 339 01e4 0800A0E1 		mov	r0, r8
 340 01e8 FEFFFFEB 		bl	__aeabi_fsub
 341 01ec 00A094E5 		ldr	sl, [r4, #0]	@ float
 342 01f0 0080A0E1 		mov	r8, r0
 343 01f4 FEFFFFEB 		bl	stateGetPositionEnu_f
 344 01f8 0030A0E1 		mov	r3, r0
 345 01fc 041093E5 		ldr	r1, [r3, #4]	@ float
 346 0200 0A00A0E1 		mov	r0, sl
 347 0204 FEFFFFEB 		bl	__aeabi_fsub
 348 0208 0010A0E1 		mov	r1, r0
 349 020c 0800A0E1 		mov	r0, r8
 350 0210 FEFFFFEB 		bl	__aeabi_fmul
 351 0214 0010A0E1 		mov	r1, r0
 352 0218 0700A0E1 		mov	r0, r7
 353 021c FEFFFFEB 		bl	__aeabi_fadd
 354 0220 FEFFFFEB 		bl	__aeabi_f2d
 355 0224 FEFFFFEB 		bl	sqrt
 356 0228 FEFFFFEB 		bl	__aeabi_d2f
 357 022c 0070A0E1 		mov	r7, r0
 358 0230 000096E5 		ldr	r0, [r6, #0]	@ float
 359 0234 0010A0E1 		mov	r1, r0
 360 0238 FEFFFFEB 		bl	__aeabi_fadd
 361 023c 0010A0E1 		mov	r1, r0
 362 0240 0700A0E1 		mov	r0, r7
 363 0244 FEFFFFEB 		bl	__aeabi_fdiv
 364 0248 FEFFFFEB 		bl	__aeabi_f2d
 365 024c FEFFFFEB 		bl	asin
 366 0250 0020A0E1 		mov	r2, r0
 367 0254 0130A0E1 		mov	r3, r1
 368 0258 FEFFFFEB 		bl	__aeabi_dadd
 369 025c FEFFFFEB 		bl	__aeabi_d2f
 370 0260 A4309FE5 		ldr	r3, .L31+44
 371 0264 001093E5 		ldr	r1, [r3, #0]	@ float
 372 0268 FEFFFFEB 		bl	__aeabi_fcmpge
 373 026c 000050E3 		cmp	r0, #0
 374 0270 1700000A 		beq	.L15
 375 0274 FEFFFFEB 		bl	stateGetPositionEnu_f
 376 0278 003090E5 		ldr	r3, [r0, #0]	@ float
 377 027c 003085E5 		str	r3, [r5, #0]	@ float
 378 0280 FEFFFFEB 		bl	stateGetPositionEnu_f
 379 0284 043090E5 		ldr	r3, [r0, #4]	@ float
 380 0288 0320A0E3 		mov	r2, #3
 381 028c 003084E5 		str	r3, [r4, #0]	@ float
 382 0290 0D0000EA 		b	.L30
 383              	.L19:
 384 0294 64409FE5 		ldr	r4, .L31+32
 385 0298 70309FE5 		ldr	r3, .L31+48
 386 029c 000094E5 		ldr	r0, [r4, #0]	@ float
 387 02a0 001093E5 		ldr	r1, [r3, #0]	@ float
 388 02a4 FEFFFFEB 		bl	__aeabi_fadd
 389 02a8 64309FE5 		ldr	r3, .L31+52
 390 02ac 005093E5 		ldr	r5, [r3, #0]	@ float
 391 02b0 0510A0E1 		mov	r1, r5
 392 02b4 0060A0E1 		mov	r6, r0
 393 02b8 FEFFFFEB 		bl	__aeabi_fcmplt
 394 02bc 000050E3 		cmp	r0, #0
 395 02c0 00608415 		strne	r6, [r4, #0]	@ float
 396 02c4 00508405 		streq	r5, [r4, #0]	@ float
 397              	.L25:
 398 02c8 0220A0E3 		mov	r2, #2
 399              	.L30:
 400 02cc 20309FE5 		ldr	r3, .L31+20
 401 02d0 0020C3E5 		strb	r2, [r3, #0]
 402              	.L15:
 403 02d4 0100A0E3 		mov	r0, #1
 404 02d8 FE45BDE8 		ldmfd	sp!, {r1, r2, r3, r4, r5, r6, r7, r8, sl, lr}
 405 02dc 1EFF2FE1 		bx	lr
 406              	.L32:
 407              		.align	2
 408              	.L31:
 409 02e0 00000000 		.word	.LANCHOR0
 410 02e4 00000000 		.word	waypoints
 411 02e8 00000000 		.word	.LANCHOR10
 412 02ec 00000000 		.word	.LANCHOR11
 413 02f0 00000000 		.word	.LANCHOR13
 414 02f4 00000000 		.word	.LANCHOR17
 415 02f8 00000000 		.word	.LANCHOR15
 416 02fc 00000000 		.word	.LANCHOR16
 417 0300 00000000 		.word	.LANCHOR2
 418 0304 00000000 		.word	.LANCHOR18
 419 0308 00000000 		.word	.LANCHOR19
 420 030c 00000000 		.word	.LANCHOR14
 421 0310 00000000 		.word	.LANCHOR6
 422 0314 00000000 		.word	.LANCHOR9
 424              		.section	.bss.LastCircleY,"aw",%nobits
 425              		.align	2
 426              		.set	.LANCHOR19,. + 0
 429              	LastCircleY:
 430 0000 00000000 		.space	4
 431              		.section	.bss.SRad,"aw",%nobits
 432              		.align	2
 433              		.set	.LANCHOR2,. + 0
 436              	SRad:
 437 0000 00000000 		.space	4
 438              		.section	.bss.Edge,"aw",%nobits
 439              		.set	.LANCHOR1,. + 0
 442              	Edge:
 443 0000 00       		.space	1
 444              		.section	.bss.nav_radius_min,"aw",%nobits
 445              		.align	2
 446              		.set	.LANCHOR5,. + 0
 449              	nav_radius_min:
 450 0000 00000000 		.space	4
 451              		.section	.bss.Segmente,"aw",%nobits
 452              		.align	2
 453              		.set	.LANCHOR3,. + 0
 456              	Segmente:
 457 0000 00000000 		.space	4
 458              		.section	.bss.Spiralradius,"aw",%nobits
 459              		.align	2
 460              		.set	.LANCHOR9,. + 0
 463              	Spiralradius:
 464 0000 00000000 		.space	4
 465              		.section	.bss.TransCurrentX,"aw",%nobits
 466              		.align	2
 467              		.set	.LANCHOR10,. + 0
 470              	TransCurrentX:
 471 0000 00000000 		.space	4
 472              		.section	.bss.Alphalimit,"aw",%nobits
 473              		.align	2
 474              		.set	.LANCHOR14,. + 0
 477              	Alphalimit:
 478 0000 00000000 		.space	4
 479              		.section	.bss.ZPoint,"aw",%nobits
 480              		.align	2
 481              		.set	.LANCHOR4,. + 0
 484              	ZPoint:
 485 0000 00000000 		.space	4
 486              		.section	.bss.LastCircleX,"aw",%nobits
 487              		.align	2
 488              		.set	.LANCHOR18,. + 0
 491              	LastCircleX:
 492 0000 00000000 		.space	4
 493              		.section	.bss.Center,"aw",%nobits
 494              		.set	.LANCHOR0,. + 0
 497              	Center:
 498 0000 00       		.space	1
 499              		.section	.bss.FlyFromX,"aw",%nobits
 500              		.align	2
 501              		.set	.LANCHOR15,. + 0
 504              	FlyFromX:
 505 0000 00000000 		.space	4
 506              		.section	.bss.FlyFromY,"aw",%nobits
 507              		.align	2
 508              		.set	.LANCHOR16,. + 0
 511              	FlyFromY:
 512 0000 00000000 		.space	4
 513              		.section	.bss.IRad,"aw",%nobits
 514              		.align	2
 515              		.set	.LANCHOR6,. + 0
 518              	IRad:
 519 0000 00000000 		.space	4
 520              		.section	.bss.EdgeCurrentX,"aw",%nobits
 521              		.align	2
 522              		.set	.LANCHOR7,. + 0
 525              	EdgeCurrentX:
 526 0000 00000000 		.space	4
 527              		.section	.bss.EdgeCurrentY,"aw",%nobits
 528              		.align	2
 529              		.set	.LANCHOR8,. + 0
 532              	EdgeCurrentY:
 533 0000 00000000 		.space	4
 534              		.section	.bss.TransCurrentY,"aw",%nobits
 535              		.align	2
 536              		.set	.LANCHOR11,. + 0
 539              	TransCurrentY:
 540 0000 00000000 		.space	4
 541              		.section	.bss.TransCurrentZ,"aw",%nobits
 542              		.align	2
 543              		.set	.LANCHOR12,. + 0
 546              	TransCurrentZ:
 547 0000 00000000 		.space	4
 548              		.section	.bss.DistanceFromCenter,"aw",%nobits
 549              		.align	2
 550              		.set	.LANCHOR13,. + 0
 553              	DistanceFromCenter:
 554 0000 00000000 		.space	4
 555              		.section	.bss.CSpiralStatus,"aw",%nobits
 556              		.set	.LANCHOR17,. + 0
 559              	CSpiralStatus:
 560 0000 00       		.space	1
 561              		.ident	"GCC: (Linaro GCC 4.6-2011.09-1) 4.6.2 20110908 (prerelease)"