   1              		.cpu arm7tdmi
   2              		.fpu softvfp
   3              		.eabi_attribute 20, 1
   4              		.eabi_attribute 21, 1
   5              		.eabi_attribute 23, 3
   6              		.eabi_attribute 24, 1
   7              		.eabi_attribute 25, 1
   8              		.eabi_attribute 26, 1
   9              		.eabi_attribute 30, 4
  10              		.eabi_attribute 18, 4
  11              		.file	"state.c"
  12              		.section	.text.stateInit,"ax",%progbits
  13              		.align	2
  14              		.global	stateInit
  16              	stateInit:
  17              		@ Function supports interworking.
  18              		@ args = 0, pretend = 0, frame = 0
  19              		@ frame_needed = 0, uses_anonymous_args = 0
  20              		@ link register save eliminated.
  21 0000 2C309FE5 		ldr	r3, .L2
  22 0004 0010A0E3 		mov	r1, #0
  23 0008 450FA0E3 		mov	r0, #276
  24 000c B010C3E1 		strh	r1, [r3, #0]	@ movhi
  25 0010 B01083E1 		strh	r1, [r3, r0]	@ movhi
  26 0014 7011C3E5 		strb	r1, [r3, #368]
  27 0018 A411C3E5 		strb	r1, [r3, #420]
  28 001c 2812C3E5 		strb	r1, [r3, #552]
  29 0020 4412C3E5 		strb	r1, [r3, #580]
  30 0024 5C10C3E5 		strb	r1, [r3, #92]
  31 0028 E410C3E5 		strb	r1, [r3, #228]
  32 002c F810C3E5 		strb	r1, [r3, #248]
  33 0030 1EFF2FE1 		bx	lr
  34              	.L3:
  35              		.align	2
  36              	.L2:
  37 0034 00000000 		.word	state
  39              		.global	__aeabi_f2d
  40              		.global	__aeabi_dmul
  41              		.global	__aeabi_d2iz
  42              		.section	.text.stateCalcPositionEcef_i,"ax",%progbits
  43              		.align	2
  44              		.global	stateCalcPositionEcef_i
  46              	stateCalcPositionEcef_i:
  47              		@ Function supports interworking.
  48              		@ args = 0, pretend = 0, frame = 0
  49              		@ frame_needed = 0, uses_anonymous_args = 0
  50 0000 10402DE9 		stmfd	sp!, {r4, lr}
  51 0004 E8409FE5 		ldr	r4, .L13
  52 0008 B030D4E1 		ldrh	r3, [r4, #0]
  53 000c 010013E3 		tst	r3, #1
  54 0010 3500001A 		bne	.L4
  55 0014 200013E3 		tst	r3, #32
  56 0018 0F00001A 		bne	.L11
  57              	.L6:
  58 001c 020013E3 		tst	r3, #2
  59 0020 0400000A 		beq	.L8
  60 0024 040084E2 		add	r0, r4, #4
  61 0028 1C1084E2 		add	r1, r4, #28
  62 002c 602084E2 		add	r2, r4, #96
  63 0030 FEFFFFEB 		bl	ecef_of_ned_point_i
  64 0034 280000EA 		b	.L7
  65              	.L8:
  66 0038 400013E3 		tst	r3, #64
  67 003c 1C00000A 		beq	.L9
  68 0040 980084E2 		add	r0, r4, #152
  69 0044 A41084E2 		add	r1, r4, #164
  70 0048 FC2084E2 		add	r2, r4, #252
  71 004c FEFFFFEB 		bl	ecef_of_ned_point_f
  72              	.L12:
  73 0050 B030D4E1 		ldrh	r3, [r4, #0]
  74 0054 203083E3 		orr	r3, r3, #32
  75 0058 B030C4E1 		strh	r3, [r4, #0]	@ movhi
  76              	.L11:
  77 005c 980094E5 		ldr	r0, [r4, #152]	@ float
  78 0060 FEFFFFEB 		bl	__aeabi_f2d
  79 0064 0020A0E3 		mov	r2, #0
  80 0068 88309FE5 		ldr	r3, .L13+4
  81 006c FEFFFFEB 		bl	__aeabi_dmul
  82 0070 FEFFFFEB 		bl	__aeabi_d2iz
  83 0074 040084E5 		str	r0, [r4, #4]
  84 0078 9C0094E5 		ldr	r0, [r4, #156]	@ float
  85 007c FEFFFFEB 		bl	__aeabi_f2d
  86 0080 0020A0E3 		mov	r2, #0
  87 0084 6C309FE5 		ldr	r3, .L13+4
  88 0088 FEFFFFEB 		bl	__aeabi_dmul
  89 008c FEFFFFEB 		bl	__aeabi_d2iz
  90 0090 080084E5 		str	r0, [r4, #8]
  91 0094 A00094E5 		ldr	r0, [r4, #160]	@ float
  92 0098 FEFFFFEB 		bl	__aeabi_f2d
  93 009c 0020A0E3 		mov	r2, #0
  94 00a0 50309FE5 		ldr	r3, .L13+4
  95 00a4 FEFFFFEB 		bl	__aeabi_dmul
  96 00a8 FEFFFFEB 		bl	__aeabi_d2iz
  97 00ac 0C0084E5 		str	r0, [r4, #12]
  98 00b0 090000EA 		b	.L7
  99              	.L9:
 100 00b4 010C13E3 		tst	r3, #256
 101 00b8 0300000A 		beq	.L10
 102 00bc 980084E2 		add	r0, r4, #152
 103 00c0 8C1084E2 		add	r1, r4, #140
 104 00c4 FEFFFFEB 		bl	ecef_of_lla_f
 105 00c8 E0FFFFEA 		b	.L12
 106              	.L10:
 107 00cc 080013E3 		tst	r3, #8
 108 00d0 04008412 		addne	r0, r4, #4
 109 00d4 10108412 		addne	r1, r4, #16
 110 00d8 FEFFFF1B 		blne	ecef_of_lla_i
 111              	.L7:
 112 00dc 10309FE5 		ldr	r3, .L13
 113 00e0 B020D3E1 		ldrh	r2, [r3, #0]
 114 00e4 012082E3 		orr	r2, r2, #1
 115 00e8 B020C3E1 		strh	r2, [r3, #0]	@ movhi
 116              	.L4:
 117 00ec 1040BDE8 		ldmfd	sp!, {r4, lr}
 118 00f0 1EFF2FE1 		bx	lr
 119              	.L14:
 120              		.align	2
 121              	.L13:
 122 00f4 00000000 		.word	state
 123 00f8 00005940 		.word	1079574528
 125              		.global	__aeabi_fmul
 126              		.global	__aeabi_f2iz
 127              		.global	__aeabi_fsub
 128              		.global	__aeabi_i2d
 129              		.global	__aeabi_ddiv
 130              		.global	__aeabi_d2f
 131              		.section	.text.stateCalcPositionNed_i,"ax",%progbits
 132              		.align	2
 133              		.global	stateCalcPositionNed_i
 135              	stateCalcPositionNed_i:
 136              		@ Function supports interworking.
 137              		@ args = 0, pretend = 0, frame = 0
 138              		@ frame_needed = 0, uses_anonymous_args = 0
 139 0000 F0412DE9 		stmfd	sp!, {r4, r5, r6, r7, r8, lr}
 140 0004 14439FE5 		ldr	r4, .L37
 141 0008 B050D4E1 		ldrh	r5, [r4, #0]
 142 000c 020015E3 		tst	r5, #2
 143 0010 C000001A 		bne	.L15
 144 0014 5C30D4E5 		ldrb	r3, [r4, #92]	@ zero_extendqisi2
 145 0018 000053E3 		cmp	r3, #0
 146 001c 2600000A 		beq	.L17
 147 0020 400015E3 		tst	r5, #64
 148 0024 2900001A 		bne	.L34
 149              	.L18:
 150 0028 040015E3 		tst	r5, #4
 151 002c 3500001A 		bne	.L32
 152              	.L20:
 153 0030 800015E3 		tst	r5, #128
 154 0034 3D00001A 		bne	.L35
 155              	.L21:
 156 0038 010015E3 		tst	r5, #1
 157 003c 0400000A 		beq	.L22
 158 0040 600084E2 		add	r0, r4, #96
 159 0044 1C1084E2 		add	r1, r4, #28
 160 0048 042084E2 		add	r2, r4, #4
 161 004c FEFFFFEB 		bl	ned_of_ecef_point_i
 162 0050 AC0000EA 		b	.L19
 163              	.L22:
 164 0054 200015E3 		tst	r5, #32
 165 0058 FC008412 		addne	r0, r4, #252
 166 005c 0800001A 		bne	.L36
 167 0060 010C15E3 		tst	r5, #256
 168 0064 0D00000A 		beq	.L24
 169 0068 980084E2 		add	r0, r4, #152
 170 006c 8C1084E2 		add	r1, r4, #140
 171 0070 FEFFFFEB 		bl	ecef_of_lla_f
 172 0074 B030D4E1 		ldrh	r3, [r4, #0]
 173 0078 0400A0E1 		mov	r0, r4
 174 007c 203083E3 		orr	r3, r3, #32
 175 0080 BC3FC0E0 		strh	r3, [r0], #252	@ movhi
 176              	.L36:
 177 0084 A41084E2 		add	r1, r4, #164
 178 0088 982084E2 		add	r2, r4, #152
 179 008c FEFFFFEB 		bl	ned_of_ecef_point_f
 180 0090 B030D4E1 		ldrh	r3, [r4, #0]
 181 0094 403083E3 		orr	r3, r3, #64
 182 0098 B030C4E1 		strh	r3, [r4, #0]	@ movhi
 183 009c 0B0000EA 		b	.L34
 184              	.L24:
 185 00a0 080015E3 		tst	r5, #8
 186 00a4 9700000A 		beq	.L19
 187 00a8 600084E2 		add	r0, r4, #96
 188 00ac 1C1084E2 		add	r1, r4, #28
 189 00b0 102084E2 		add	r2, r4, #16
 190 00b4 FEFFFFEB 		bl	ned_of_lla_point_i
 191 00b8 920000EA 		b	.L19
 192              	.L17:
 193 00bc F830D4E5 		ldrb	r3, [r4, #248]	@ zero_extendqisi2
 194 00c0 000053E3 		cmp	r3, #0
 195 00c4 8F00000A 		beq	.L19
 196 00c8 400015E3 		tst	r5, #64
 197 00cc 0B00000A 		beq	.L25
 198              	.L34:
 199 00d0 4C129FE5 		ldr	r1, .L37+4
 200 00d4 FC0094E5 		ldr	r0, [r4, #252]	@ float
 201 00d8 FEFFFFEB 		bl	__aeabi_fmul
 202 00dc FEFFFFEB 		bl	__aeabi_f2iz
 203 00e0 3C129FE5 		ldr	r1, .L37+4
 204 00e4 600084E5 		str	r0, [r4, #96]
 205 00e8 000194E5 		ldr	r0, [r4, #256]	@ float
 206 00ec FEFFFFEB 		bl	__aeabi_fmul
 207 00f0 FEFFFFEB 		bl	__aeabi_f2iz
 208 00f4 640084E5 		str	r0, [r4, #100]
 209 00f8 040194E5 		ldr	r0, [r4, #260]	@ float
 210 00fc 7D0000EA 		b	.L30
 211              	.L25:
 212 0100 040015E3 		tst	r5, #4
 213 0104 0700000A 		beq	.L26
 214              	.L32:
 215 0108 703094E5 		ldr	r3, [r4, #112]
 216 010c 603084E5 		str	r3, [r4, #96]
 217 0110 6C3094E5 		ldr	r3, [r4, #108]
 218 0114 643084E5 		str	r3, [r4, #100]
 219 0118 743094E5 		ldr	r3, [r4, #116]
 220 011c 003063E2 		rsb	r3, r3, #0
 221 0120 683084E5 		str	r3, [r4, #104]
 222 0124 770000EA 		b	.L19
 223              	.L26:
 224 0128 800015E3 		tst	r5, #128
 225 012c 1600000A 		beq	.L27
 226              	.L35:
 227 0130 EC119FE5 		ldr	r1, .L37+4
 228 0134 080194E5 		ldr	r0, [r4, #264]	@ float
 229 0138 FEFFFFEB 		bl	__aeabi_fmul
 230 013c FEFFFFEB 		bl	__aeabi_f2iz
 231 0140 DC119FE5 		ldr	r1, .L37+4
 232 0144 0060A0E1 		mov	r6, r0
 233 0148 6C0084E5 		str	r0, [r4, #108]
 234 014c 0C0194E5 		ldr	r0, [r4, #268]	@ float
 235 0150 FEFFFFEB 		bl	__aeabi_fmul
 236 0154 FEFFFFEB 		bl	__aeabi_f2iz
 237 0158 C4119FE5 		ldr	r1, .L37+4
 238 015c 0070A0E1 		mov	r7, r0
 239 0160 700084E5 		str	r0, [r4, #112]
 240 0164 100194E5 		ldr	r0, [r4, #272]	@ float
 241 0168 FEFFFFEB 		bl	__aeabi_fmul
 242 016c FEFFFFEB 		bl	__aeabi_f2iz
 243 0170 045085E3 		orr	r5, r5, #4
 244 0174 740084E5 		str	r0, [r4, #116]
 245 0178 B050C4E1 		strh	r5, [r4, #0]	@ movhi
 246 017c 607084E5 		str	r7, [r4, #96]
 247 0180 646084E5 		str	r6, [r4, #100]
 248 0184 000060E2 		rsb	r0, r0, #0
 249 0188 5D0000EA 		b	.L31
 250              	.L27:
 251 018c 020C15E3 		tst	r5, #512
 252 0190 1C00000A 		beq	.L28
 253 0194 E81094E5 		ldr	r1, [r4, #232]	@ float
 254 0198 780094E5 		ldr	r0, [r4, #120]	@ float
 255 019c FEFFFFEB 		bl	__aeabi_fsub
 256 01a0 EC1094E5 		ldr	r1, [r4, #236]	@ float
 257 01a4 0080A0E1 		mov	r8, r0
 258 01a8 FC0084E5 		str	r0, [r4, #252]	@ float
 259 01ac 7C0094E5 		ldr	r0, [r4, #124]	@ float
 260 01b0 FEFFFFEB 		bl	__aeabi_fsub
 261 01b4 801094E5 		ldr	r1, [r4, #128]	@ float
 262 01b8 0070A0E1 		mov	r7, r0
 263 01bc 000184E5 		str	r0, [r4, #256]	@ float
 264 01c0 F00094E5 		ldr	r0, [r4, #240]	@ float
 265 01c4 FEFFFFEB 		bl	__aeabi_fsub
 266 01c8 405085E3 		orr	r5, r5, #64
 267 01cc 50119FE5 		ldr	r1, .L37+4
 268 01d0 0060A0E1 		mov	r6, r0
 269 01d4 040184E5 		str	r0, [r4, #260]	@ float
 270 01d8 0800A0E1 		mov	r0, r8
 271 01dc B050C4E1 		strh	r5, [r4, #0]	@ movhi
 272 01e0 FEFFFFEB 		bl	__aeabi_fmul
 273 01e4 FEFFFFEB 		bl	__aeabi_f2iz
 274 01e8 34119FE5 		ldr	r1, .L37+4
 275 01ec 600084E5 		str	r0, [r4, #96]
 276 01f0 0700A0E1 		mov	r0, r7
 277 01f4 FEFFFFEB 		bl	__aeabi_fmul
 278 01f8 FEFFFFEB 		bl	__aeabi_f2iz
 279 01fc 640084E5 		str	r0, [r4, #100]
 280 0200 0600A0E1 		mov	r0, r6
 281 0204 3B0000EA 		b	.L30
 282              	.L28:
 283 0208 010C15E3 		tst	r5, #256
 284 020c 78008412 		addne	r0, r4, #120
 285 0210 1900001A 		bne	.L33
 286 0214 080015E3 		tst	r5, #8
 287 0218 3A00000A 		beq	.L19
 288 021c 140094E5 		ldr	r0, [r4, #20]
 289 0220 FEFFFFEB 		bl	__aeabi_i2d
 290 0224 0020A0E3 		mov	r2, #0
 291 0228 F8309FE5 		ldr	r3, .L37+8
 292 022c FEFFFFEB 		bl	__aeabi_ddiv
 293 0230 FEFFFFEB 		bl	__aeabi_d2f
 294 0234 900084E5 		str	r0, [r4, #144]	@ float
 295 0238 100094E5 		ldr	r0, [r4, #16]
 296 023c FEFFFFEB 		bl	__aeabi_i2d
 297 0240 0020A0E3 		mov	r2, #0
 298 0244 DC309FE5 		ldr	r3, .L37+8
 299 0248 FEFFFFEB 		bl	__aeabi_ddiv
 300 024c FEFFFFEB 		bl	__aeabi_d2f
 301 0250 8C0084E5 		str	r0, [r4, #140]	@ float
 302 0254 180094E5 		ldr	r0, [r4, #24]
 303 0258 FEFFFFEB 		bl	__aeabi_i2d
 304 025c 0020A0E3 		mov	r2, #0
 305 0260 C4309FE5 		ldr	r3, .L37+12
 306 0264 FEFFFFEB 		bl	__aeabi_ddiv
 307 0268 FEFFFFEB 		bl	__aeabi_d2f
 308 026c 015C85E3 		orr	r5, r5, #256
 309 0270 940084E5 		str	r0, [r4, #148]	@ float
 310 0274 0400A0E1 		mov	r0, r4
 311 0278 B857C0E0 		strh	r5, [r0], #120	@ movhi
 312              	.L33:
 313 027c 8C1084E2 		add	r1, r4, #140
 314 0280 FEFFFFEB 		bl	utm_of_lla_f
 315 0284 E81094E5 		ldr	r1, [r4, #232]	@ float
 316 0288 780094E5 		ldr	r0, [r4, #120]	@ float
 317 028c FEFFFFEB 		bl	__aeabi_fsub
 318 0290 EC1094E5 		ldr	r1, [r4, #236]	@ float
 319 0294 0070A0E1 		mov	r7, r0
 320 0298 FC0084E5 		str	r0, [r4, #252]	@ float
 321 029c 7C0094E5 		ldr	r0, [r4, #124]	@ float
 322 02a0 FEFFFFEB 		bl	__aeabi_fsub
 323 02a4 801094E5 		ldr	r1, [r4, #128]	@ float
 324 02a8 0060A0E1 		mov	r6, r0
 325 02ac 000184E5 		str	r0, [r4, #256]	@ float
 326 02b0 F00094E5 		ldr	r0, [r4, #240]	@ float
 327 02b4 FEFFFFEB 		bl	__aeabi_fsub
 328 02b8 B080D4E1 		ldrh	r8, [r4, #0]
 329 02bc 60109FE5 		ldr	r1, .L37+4
 330 02c0 0050A0E1 		mov	r5, r0
 331 02c4 040184E5 		str	r0, [r4, #260]	@ float
 332 02c8 098D88E3 		orr	r8, r8, #576
 333 02cc 0700A0E1 		mov	r0, r7
 334 02d0 B080C4E1 		strh	r8, [r4, #0]	@ movhi
 335 02d4 FEFFFFEB 		bl	__aeabi_fmul
 336 02d8 FEFFFFEB 		bl	__aeabi_f2iz
 337 02dc 40109FE5 		ldr	r1, .L37+4
 338 02e0 600084E5 		str	r0, [r4, #96]
 339 02e4 0600A0E1 		mov	r0, r6
 340 02e8 FEFFFFEB 		bl	__aeabi_fmul
 341 02ec FEFFFFEB 		bl	__aeabi_f2iz
 342 02f0 640084E5 		str	r0, [r4, #100]
 343 02f4 0500A0E1 		mov	r0, r5
 344              	.L30:
 345 02f8 24109FE5 		ldr	r1, .L37+4
 346 02fc FEFFFFEB 		bl	__aeabi_fmul
 347 0300 FEFFFFEB 		bl	__aeabi_f2iz
 348              	.L31:
 349 0304 680084E5 		str	r0, [r4, #104]
 350              	.L19:
 351 0308 10309FE5 		ldr	r3, .L37
 352 030c B020D3E1 		ldrh	r2, [r3, #0]
 353 0310 022082E3 		orr	r2, r2, #2
 354 0314 B020C3E1 		strh	r2, [r3, #0]	@ movhi
 355              	.L15:
 356 0318 F041BDE8 		ldmfd	sp!, {r4, r5, r6, r7, r8, lr}
 357 031c 1EFF2FE1 		bx	lr
 358              	.L38:
 359              		.align	2
 360              	.L37:
 361 0320 00000000 		.word	state
 362 0324 00008043 		.word	1132462080
 363 0328 D0126341 		.word	1097011920
 364 032c 00408F40 		.word	1083129856
 366              		.section	.text.stateCalcPositionEnu_i,"ax",%progbits
 367              		.align	2
 368              		.global	stateCalcPositionEnu_i
 370              	stateCalcPositionEnu_i:
 371              		@ Function supports interworking.
 372              		@ args = 0, pretend = 0, frame = 0
 373              		@ frame_needed = 0, uses_anonymous_args = 0
 374 0000 F0412DE9 		stmfd	sp!, {r4, r5, r6, r7, r8, lr}
 375 0004 10439FE5 		ldr	r4, .L61
 376 0008 B050D4E1 		ldrh	r5, [r4, #0]
 377 000c 040015E3 		tst	r5, #4
 378 0010 BF00001A 		bne	.L39
 379 0014 5C30D4E5 		ldrb	r3, [r4, #92]	@ zero_extendqisi2
 380 0018 000053E3 		cmp	r3, #0
 381 001c 2500000A 		beq	.L41
 382 0020 020015E3 		tst	r5, #2
 383 0024 3600001A 		bne	.L55
 384              	.L42:
 385 0028 800015E3 		tst	r5, #128
 386 002c 2600001A 		bne	.L59
 387              	.L44:
 388 0030 400015E3 		tst	r5, #64
 389 0034 3C00001A 		bne	.L58
 390              	.L45:
 391 0038 010015E3 		tst	r5, #1
 392 003c 0400000A 		beq	.L46
 393 0040 6C0084E2 		add	r0, r4, #108
 394 0044 1C1084E2 		add	r1, r4, #28
 395 0048 042084E2 		add	r2, r4, #4
 396 004c FEFFFFEB 		bl	enu_of_ecef_point_i
 397 0050 AB0000EA 		b	.L43
 398              	.L46:
 399 0054 200015E3 		tst	r5, #32
 400 0058 0700001A 		bne	.L60
 401              	.L47:
 402 005c 010C15E3 		tst	r5, #256
 403 0060 0D00000A 		beq	.L48
 404 0064 980084E2 		add	r0, r4, #152
 405 0068 8C1084E2 		add	r1, r4, #140
 406 006c FEFFFFEB 		bl	ecef_of_lla_f
 407 0070 B030D4E1 		ldrh	r3, [r4, #0]
 408 0074 203083E3 		orr	r3, r3, #32
 409 0078 B030C4E1 		strh	r3, [r4, #0]	@ movhi
 410              	.L60:
 411 007c 420F84E2 		add	r0, r4, #264
 412 0080 A41084E2 		add	r1, r4, #164
 413 0084 982084E2 		add	r2, r4, #152
 414 0088 FEFFFFEB 		bl	enu_of_ecef_point_f
 415 008c B030D4E1 		ldrh	r3, [r4, #0]
 416 0090 803083E3 		orr	r3, r3, #128
 417 0094 B030C4E1 		strh	r3, [r4, #0]	@ movhi
 418 0098 0B0000EA 		b	.L59
 419              	.L48:
 420 009c 080015E3 		tst	r5, #8
 421 00a0 9700000A 		beq	.L43
 422 00a4 6C0084E2 		add	r0, r4, #108
 423 00a8 1C1084E2 		add	r1, r4, #28
 424 00ac 102084E2 		add	r2, r4, #16
 425 00b0 FEFFFFEB 		bl	enu_of_lla_point_i
 426 00b4 920000EA 		b	.L43
 427              	.L41:
 428 00b8 F830D4E5 		ldrb	r3, [r4, #248]	@ zero_extendqisi2
 429 00bc 000053E3 		cmp	r3, #0
 430 00c0 8F00000A 		beq	.L43
 431 00c4 800015E3 		tst	r5, #128
 432 00c8 0B00000A 		beq	.L49
 433              	.L59:
 434 00cc 4C129FE5 		ldr	r1, .L61+4
 435 00d0 080194E5 		ldr	r0, [r4, #264]	@ float
 436 00d4 FEFFFFEB 		bl	__aeabi_fmul
 437 00d8 FEFFFFEB 		bl	__aeabi_f2iz
 438 00dc 3C129FE5 		ldr	r1, .L61+4
 439 00e0 6C0084E5 		str	r0, [r4, #108]
 440 00e4 0C0194E5 		ldr	r0, [r4, #268]	@ float
 441 00e8 FEFFFFEB 		bl	__aeabi_fmul
 442 00ec FEFFFFEB 		bl	__aeabi_f2iz
 443 00f0 700084E5 		str	r0, [r4, #112]
 444 00f4 100194E5 		ldr	r0, [r4, #272]	@ float
 445 00f8 7D0000EA 		b	.L54
 446              	.L49:
 447 00fc 020015E3 		tst	r5, #2
 448 0100 0700000A 		beq	.L50
 449              	.L55:
 450 0104 643094E5 		ldr	r3, [r4, #100]
 451 0108 6C3084E5 		str	r3, [r4, #108]
 452 010c 603094E5 		ldr	r3, [r4, #96]
 453 0110 703084E5 		str	r3, [r4, #112]
 454 0114 683094E5 		ldr	r3, [r4, #104]
 455 0118 003063E2 		rsb	r3, r3, #0
 456 011c 743084E5 		str	r3, [r4, #116]
 457 0120 770000EA 		b	.L43
 458              	.L50:
 459 0124 400015E3 		tst	r5, #64
 460 0128 1600000A 		beq	.L51
 461              	.L58:
 462 012c EC119FE5 		ldr	r1, .L61+4
 463 0130 FC0094E5 		ldr	r0, [r4, #252]	@ float
 464 0134 FEFFFFEB 		bl	__aeabi_fmul
 465 0138 FEFFFFEB 		bl	__aeabi_f2iz
 466 013c DC119FE5 		ldr	r1, .L61+4
 467 0140 0060A0E1 		mov	r6, r0
 468 0144 600084E5 		str	r0, [r4, #96]
 469 0148 000194E5 		ldr	r0, [r4, #256]	@ float
 470 014c FEFFFFEB 		bl	__aeabi_fmul
 471 0150 FEFFFFEB 		bl	__aeabi_f2iz
 472 0154 C4119FE5 		ldr	r1, .L61+4
 473 0158 0070A0E1 		mov	r7, r0
 474 015c 640084E5 		str	r0, [r4, #100]
 475 0160 040194E5 		ldr	r0, [r4, #260]	@ float
 476 0164 FEFFFFEB 		bl	__aeabi_fmul
 477 0168 FEFFFFEB 		bl	__aeabi_f2iz
 478 016c 025085E3 		orr	r5, r5, #2
 479 0170 680084E5 		str	r0, [r4, #104]
 480 0174 B050C4E1 		strh	r5, [r4, #0]	@ movhi
 481 0178 6C7084E5 		str	r7, [r4, #108]
 482 017c 706084E5 		str	r6, [r4, #112]
 483 0180 000060E2 		rsb	r0, r0, #0
 484 0184 5D0000EA 		b	.L56
 485              	.L51:
 486 0188 020C15E3 		tst	r5, #512
 487 018c 1C00000A 		beq	.L52
 488 0190 EC1094E5 		ldr	r1, [r4, #236]	@ float
 489 0194 7C0094E5 		ldr	r0, [r4, #124]	@ float
 490 0198 FEFFFFEB 		bl	__aeabi_fsub
 491 019c E81094E5 		ldr	r1, [r4, #232]	@ float
 492 01a0 0080A0E1 		mov	r8, r0
 493 01a4 080184E5 		str	r0, [r4, #264]	@ float
 494 01a8 780094E5 		ldr	r0, [r4, #120]	@ float
 495 01ac FEFFFFEB 		bl	__aeabi_fsub
 496 01b0 F01094E5 		ldr	r1, [r4, #240]	@ float
 497 01b4 0070A0E1 		mov	r7, r0
 498 01b8 0C0184E5 		str	r0, [r4, #268]	@ float
 499 01bc 800094E5 		ldr	r0, [r4, #128]	@ float
 500 01c0 FEFFFFEB 		bl	__aeabi_fsub
 501 01c4 805085E3 		orr	r5, r5, #128
 502 01c8 50119FE5 		ldr	r1, .L61+4
 503 01cc 0060A0E1 		mov	r6, r0
 504 01d0 100184E5 		str	r0, [r4, #272]	@ float
 505 01d4 0800A0E1 		mov	r0, r8
 506 01d8 B050C4E1 		strh	r5, [r4, #0]	@ movhi
 507 01dc FEFFFFEB 		bl	__aeabi_fmul
 508 01e0 FEFFFFEB 		bl	__aeabi_f2iz
 509 01e4 34119FE5 		ldr	r1, .L61+4
 510 01e8 6C0084E5 		str	r0, [r4, #108]
 511 01ec 0700A0E1 		mov	r0, r7
 512 01f0 FEFFFFEB 		bl	__aeabi_fmul
 513 01f4 FEFFFFEB 		bl	__aeabi_f2iz
 514 01f8 700084E5 		str	r0, [r4, #112]
 515 01fc 0600A0E1 		mov	r0, r6
 516 0200 3B0000EA 		b	.L54
 517              	.L52:
 518 0204 010C15E3 		tst	r5, #256
 519 0208 78008412 		addne	r0, r4, #120
 520 020c 1900001A 		bne	.L57
 521 0210 080015E3 		tst	r5, #8
 522 0214 3A00000A 		beq	.L43
 523 0218 140094E5 		ldr	r0, [r4, #20]
 524 021c FEFFFFEB 		bl	__aeabi_i2d
 525 0220 0020A0E3 		mov	r2, #0
 526 0224 F8309FE5 		ldr	r3, .L61+8
 527 0228 FEFFFFEB 		bl	__aeabi_ddiv
 528 022c FEFFFFEB 		bl	__aeabi_d2f
 529 0230 900084E5 		str	r0, [r4, #144]	@ float
 530 0234 100094E5 		ldr	r0, [r4, #16]
 531 0238 FEFFFFEB 		bl	__aeabi_i2d
 532 023c 0020A0E3 		mov	r2, #0
 533 0240 DC309FE5 		ldr	r3, .L61+8
 534 0244 FEFFFFEB 		bl	__aeabi_ddiv
 535 0248 FEFFFFEB 		bl	__aeabi_d2f
 536 024c 8C0084E5 		str	r0, [r4, #140]	@ float
 537 0250 180094E5 		ldr	r0, [r4, #24]
 538 0254 FEFFFFEB 		bl	__aeabi_i2d
 539 0258 0020A0E3 		mov	r2, #0
 540 025c C4309FE5 		ldr	r3, .L61+12
 541 0260 FEFFFFEB 		bl	__aeabi_ddiv
 542 0264 FEFFFFEB 		bl	__aeabi_d2f
 543 0268 015C85E3 		orr	r5, r5, #256
 544 026c 940084E5 		str	r0, [r4, #148]	@ float
 545 0270 0400A0E1 		mov	r0, r4
 546 0274 B857C0E0 		strh	r5, [r0], #120	@ movhi
 547              	.L57:
 548 0278 8C1084E2 		add	r1, r4, #140
 549 027c FEFFFFEB 		bl	utm_of_lla_f
 550 0280 EC1094E5 		ldr	r1, [r4, #236]	@ float
 551 0284 7C0094E5 		ldr	r0, [r4, #124]	@ float
 552 0288 FEFFFFEB 		bl	__aeabi_fsub
 553 028c E81094E5 		ldr	r1, [r4, #232]	@ float
 554 0290 0070A0E1 		mov	r7, r0
 555 0294 080184E5 		str	r0, [r4, #264]	@ float
 556 0298 780094E5 		ldr	r0, [r4, #120]	@ float
 557 029c FEFFFFEB 		bl	__aeabi_fsub
 558 02a0 F01094E5 		ldr	r1, [r4, #240]	@ float
 559 02a4 0060A0E1 		mov	r6, r0
 560 02a8 0C0184E5 		str	r0, [r4, #268]	@ float
 561 02ac 800094E5 		ldr	r0, [r4, #128]	@ float
 562 02b0 FEFFFFEB 		bl	__aeabi_fsub
 563 02b4 B080D4E1 		ldrh	r8, [r4, #0]
 564 02b8 60109FE5 		ldr	r1, .L61+4
 565 02bc 0050A0E1 		mov	r5, r0
 566 02c0 100184E5 		str	r0, [r4, #272]	@ float
 567 02c4 0A8D88E3 		orr	r8, r8, #640
 568 02c8 0700A0E1 		mov	r0, r7
 569 02cc B080C4E1 		strh	r8, [r4, #0]	@ movhi
 570 02d0 FEFFFFEB 		bl	__aeabi_fmul
 571 02d4 FEFFFFEB 		bl	__aeabi_f2iz
 572 02d8 40109FE5 		ldr	r1, .L61+4
 573 02dc 6C0084E5 		str	r0, [r4, #108]
 574 02e0 0600A0E1 		mov	r0, r6
 575 02e4 FEFFFFEB 		bl	__aeabi_fmul
 576 02e8 FEFFFFEB 		bl	__aeabi_f2iz
 577 02ec 700084E5 		str	r0, [r4, #112]
 578 02f0 0500A0E1 		mov	r0, r5
 579              	.L54:
 580 02f4 24109FE5 		ldr	r1, .L61+4
 581 02f8 FEFFFFEB 		bl	__aeabi_fmul
 582 02fc FEFFFFEB 		bl	__aeabi_f2iz
 583              	.L56:
 584 0300 740084E5 		str	r0, [r4, #116]
 585              	.L43:
 586 0304 10309FE5 		ldr	r3, .L61
 587 0308 B020D3E1 		ldrh	r2, [r3, #0]
 588 030c 042082E3 		orr	r2, r2, #4
 589 0310 B020C3E1 		strh	r2, [r3, #0]	@ movhi
 590              	.L39:
 591 0314 F041BDE8 		ldmfd	sp!, {r4, r5, r6, r7, r8, lr}
 592 0318 1EFF2FE1 		bx	lr
 593              	.L62:
 594              		.align	2
 595              	.L61:
 596 031c 00000000 		.word	state
 597 0320 00008043 		.word	1132462080
 598 0324 D0126341 		.word	1097011920
 599 0328 00408F40 		.word	1083129856
 601              		.section	.text.stateCalcPositionLla_i,"ax",%progbits
 602              		.align	2
 603              		.global	stateCalcPositionLla_i
 605              	stateCalcPositionLla_i:
 606              		@ Function supports interworking.
 607              		@ args = 0, pretend = 0, frame = 0
 608              		@ frame_needed = 0, uses_anonymous_args = 0
 609 0000 10402DE9 		stmfd	sp!, {r4, lr}
 610 0004 1C419FE5 		ldr	r4, .L75
 611 0008 B030D4E1 		ldrh	r3, [r4, #0]
 612 000c 080013E3 		tst	r3, #8
 613 0010 4200001A 		bne	.L63
 614 0014 010C13E3 		tst	r3, #256
 615 0018 2700001A 		bne	.L71
 616              	.L65:
 617 001c 010013E3 		tst	r3, #1
 618 0020 10008412 		addne	r0, r4, #16
 619 0024 1900001A 		bne	.L72
 620 0028 200013E3 		tst	r3, #32
 621 002c 8C008412 		addne	r0, r4, #140
 622 0030 0900001A 		bne	.L74
 623 0034 400013E3 		tst	r3, #64
 624 0038 0A00000A 		beq	.L69
 625 003c 980084E2 		add	r0, r4, #152
 626 0040 A41084E2 		add	r1, r4, #164
 627 0044 FC2084E2 		add	r2, r4, #252
 628 0048 FEFFFFEB 		bl	ecef_of_ned_point_f
 629 004c B030D4E1 		ldrh	r3, [r4, #0]
 630 0050 0400A0E1 		mov	r0, r4
 631 0054 203083E3 		orr	r3, r3, #32
 632 0058 BC38C0E0 		strh	r3, [r0], #140	@ movhi
 633              	.L74:
 634 005c 981084E2 		add	r1, r4, #152
 635 0060 FEFFFFEB 		bl	lla_of_ecef_f
 636 0064 110000EA 		b	.L73
 637              	.L69:
 638 0068 020013E3 		tst	r3, #2
 639 006c 0A00000A 		beq	.L70
 640 0070 040084E2 		add	r0, r4, #4
 641 0074 1C1084E2 		add	r1, r4, #28
 642 0078 602084E2 		add	r2, r4, #96
 643 007c FEFFFFEB 		bl	ecef_of_ned_point_i
 644 0080 B030D4E1 		ldrh	r3, [r4, #0]
 645 0084 0400A0E1 		mov	r0, r4
 646 0088 013083E3 		orr	r3, r3, #1
 647 008c B031C0E0 		strh	r3, [r0], #16	@ movhi
 648              	.L72:
 649 0090 041084E2 		add	r1, r4, #4
 650 0094 FEFFFFEB 		bl	lla_of_ecef_i
 651 0098 1C0000EA 		b	.L66
 652              	.L70:
 653 009c 020C13E3 		tst	r3, #512
 654 00a0 1A00000A 		beq	.L66
 655 00a4 8C0084E2 		add	r0, r4, #140
 656 00a8 781084E2 		add	r1, r4, #120
 657 00ac FEFFFFEB 		bl	lla_of_utm_f
 658              	.L73:
 659 00b0 B030D4E1 		ldrh	r3, [r4, #0]
 660 00b4 013C83E3 		orr	r3, r3, #256
 661 00b8 B030C4E1 		strh	r3, [r4, #0]	@ movhi
 662              	.L71:
 663 00bc 900094E5 		ldr	r0, [r4, #144]	@ float
 664 00c0 FEFFFFEB 		bl	__aeabi_f2d
 665 00c4 0020A0E3 		mov	r2, #0
 666 00c8 5C309FE5 		ldr	r3, .L75+4
 667 00cc FEFFFFEB 		bl	__aeabi_dmul
 668 00d0 FEFFFFEB 		bl	__aeabi_d2iz
 669 00d4 140084E5 		str	r0, [r4, #20]
 670 00d8 8C0094E5 		ldr	r0, [r4, #140]	@ float
 671 00dc FEFFFFEB 		bl	__aeabi_f2d
 672 00e0 0020A0E3 		mov	r2, #0
 673 00e4 40309FE5 		ldr	r3, .L75+4
 674 00e8 FEFFFFEB 		bl	__aeabi_dmul
 675 00ec FEFFFFEB 		bl	__aeabi_d2iz
 676 00f0 100084E5 		str	r0, [r4, #16]
 677 00f4 940094E5 		ldr	r0, [r4, #148]	@ float
 678 00f8 FEFFFFEB 		bl	__aeabi_f2d
 679 00fc 0020A0E3 		mov	r2, #0
 680 0100 28309FE5 		ldr	r3, .L75+8
 681 0104 FEFFFFEB 		bl	__aeabi_dmul
 682 0108 FEFFFFEB 		bl	__aeabi_d2iz
 683 010c 180084E5 		str	r0, [r4, #24]
 684              	.L66:
 685 0110 10309FE5 		ldr	r3, .L75
 686 0114 B020D3E1 		ldrh	r2, [r3, #0]
 687 0118 082082E3 		orr	r2, r2, #8
 688 011c B020C3E1 		strh	r2, [r3, #0]	@ movhi
 689              	.L63:
 690 0120 1040BDE8 		ldmfd	sp!, {r4, lr}
 691 0124 1EFF2FE1 		bx	lr
 692              	.L76:
 693              		.align	2
 694              	.L75:
 695 0128 00000000 		.word	state
 696 012c D0126341 		.word	1097011920
 697 0130 00408F40 		.word	1083129856
 699              		.section	.text.stateCalcPositionUtm_f,"ax",%progbits
 700              		.align	2
 701              		.global	stateCalcPositionUtm_f
 703              	stateCalcPositionUtm_f:
 704              		@ Function supports interworking.
 705              		@ args = 0, pretend = 0, frame = 0
 706              		@ frame_needed = 0, uses_anonymous_args = 0
 707 0000 38402DE9 		stmfd	sp!, {r3, r4, r5, lr}
 708 0004 9C409FE5 		ldr	r4, .L82
 709 0008 B050D4E1 		ldrh	r5, [r4, #0]
 710 000c 020C15E3 		tst	r5, #512
 711 0010 2200001A 		bne	.L77
 712 0014 010C15E3 		tst	r5, #256
 713 0018 78008412 		addne	r0, r4, #120
 714 001c 1900001A 		bne	.L81
 715 0020 080015E3 		tst	r5, #8
 716 0024 1900000A 		beq	.L80
 717 0028 140094E5 		ldr	r0, [r4, #20]
 718 002c FEFFFFEB 		bl	__aeabi_i2d
 719 0030 0020A0E3 		mov	r2, #0
 720 0034 70309FE5 		ldr	r3, .L82+4
 721 0038 FEFFFFEB 		bl	__aeabi_ddiv
 722 003c FEFFFFEB 		bl	__aeabi_d2f
 723 0040 900084E5 		str	r0, [r4, #144]	@ float
 724 0044 100094E5 		ldr	r0, [r4, #16]
 725 0048 FEFFFFEB 		bl	__aeabi_i2d
 726 004c 0020A0E3 		mov	r2, #0
 727 0050 54309FE5 		ldr	r3, .L82+4
 728 0054 FEFFFFEB 		bl	__aeabi_ddiv
 729 0058 FEFFFFEB 		bl	__aeabi_d2f
 730 005c 8C0084E5 		str	r0, [r4, #140]	@ float
 731 0060 180094E5 		ldr	r0, [r4, #24]
 732 0064 FEFFFFEB 		bl	__aeabi_i2d
 733 0068 0020A0E3 		mov	r2, #0
 734 006c 3C309FE5 		ldr	r3, .L82+8
 735 0070 FEFFFFEB 		bl	__aeabi_ddiv
 736 0074 FEFFFFEB 		bl	__aeabi_d2f
 737 0078 015C85E3 		orr	r5, r5, #256
 738 007c 940084E5 		str	r0, [r4, #148]	@ float
 739 0080 0400A0E1 		mov	r0, r4
 740 0084 B857C0E0 		strh	r5, [r0], #120	@ movhi
 741              	.L81:
 742 0088 8C1084E2 		add	r1, r4, #140
 743 008c FEFFFFEB 		bl	utm_of_lla_f
 744              	.L80:
 745 0090 10309FE5 		ldr	r3, .L82
 746 0094 B020D3E1 		ldrh	r2, [r3, #0]
 747 0098 022C82E3 		orr	r2, r2, #512
 748 009c B020C3E1 		strh	r2, [r3, #0]	@ movhi
 749              	.L77:
 750 00a0 3840BDE8 		ldmfd	sp!, {r3, r4, r5, lr}
 751 00a4 1EFF2FE1 		bx	lr
 752              	.L83:
 753              		.align	2
 754              	.L82:
 755 00a8 00000000 		.word	state
 756 00ac D0126341 		.word	1097011920
 757 00b0 00408F40 		.word	1083129856
 759              		.section	.text.stateCalcPositionEcef_f,"ax",%progbits
 760              		.align	2
 761              		.global	stateCalcPositionEcef_f
 763              	stateCalcPositionEcef_f:
 764              		@ Function supports interworking.
 765              		@ args = 0, pretend = 0, frame = 0
 766              		@ frame_needed = 0, uses_anonymous_args = 0
 767 0000 38402DE9 		stmfd	sp!, {r3, r4, r5, lr}
 768 0004 3C419FE5 		ldr	r4, .L93
 769 0008 B050D4E1 		ldrh	r5, [r4, #0]
 770 000c 200015E3 		tst	r5, #32
 771 0010 4A00001A 		bne	.L84
 772 0014 010015E3 		tst	r5, #1
 773 0018 0F00001A 		bne	.L91
 774              	.L86:
 775 001c 400015E3 		tst	r5, #64
 776 0020 0400000A 		beq	.L88
 777 0024 980084E2 		add	r0, r4, #152
 778 0028 A41084E2 		add	r1, r4, #164
 779 002c FC2084E2 		add	r2, r4, #252
 780 0030 FEFFFFEB 		bl	ecef_of_ned_point_f
 781 0034 3D0000EA 		b	.L87
 782              	.L88:
 783 0038 020015E3 		tst	r5, #2
 784 003c 1C00000A 		beq	.L89
 785 0040 040084E2 		add	r0, r4, #4
 786 0044 1C1084E2 		add	r1, r4, #28
 787 0048 602084E2 		add	r2, r4, #96
 788 004c FEFFFFEB 		bl	ecef_of_ned_point_i
 789 0050 B030D4E1 		ldrh	r3, [r4, #0]
 790 0054 203083E3 		orr	r3, r3, #32
 791 0058 B030C4E1 		strh	r3, [r4, #0]	@ movhi
 792              	.L91:
 793 005c 040094E5 		ldr	r0, [r4, #4]
 794 0060 FEFFFFEB 		bl	__aeabi_i2d
 795 0064 0020A0E3 		mov	r2, #0
 796 0068 DC309FE5 		ldr	r3, .L93+4
 797 006c FEFFFFEB 		bl	__aeabi_ddiv
 798 0070 FEFFFFEB 		bl	__aeabi_d2f
 799 0074 980084E5 		str	r0, [r4, #152]	@ float
 800 0078 080094E5 		ldr	r0, [r4, #8]
 801 007c FEFFFFEB 		bl	__aeabi_i2d
 802 0080 0020A0E3 		mov	r2, #0
 803 0084 C0309FE5 		ldr	r3, .L93+4
 804 0088 FEFFFFEB 		bl	__aeabi_ddiv
 805 008c FEFFFFEB 		bl	__aeabi_d2f
 806 0090 9C0084E5 		str	r0, [r4, #156]	@ float
 807 0094 0C0094E5 		ldr	r0, [r4, #12]
 808 0098 FEFFFFEB 		bl	__aeabi_i2d
 809 009c 0020A0E3 		mov	r2, #0
 810 00a0 A4309FE5 		ldr	r3, .L93+4
 811 00a4 FEFFFFEB 		bl	__aeabi_ddiv
 812 00a8 FEFFFFEB 		bl	__aeabi_d2f
 813 00ac A00084E5 		str	r0, [r4, #160]	@ float
 814 00b0 1E0000EA 		b	.L87
 815              	.L89:
 816 00b4 010C15E3 		tst	r5, #256
 817 00b8 98008412 		addne	r0, r4, #152
 818 00bc 1900001A 		bne	.L92
 819 00c0 080015E3 		tst	r5, #8
 820 00c4 1900000A 		beq	.L87
 821 00c8 140094E5 		ldr	r0, [r4, #20]
 822 00cc FEFFFFEB 		bl	__aeabi_i2d
 823 00d0 0020A0E3 		mov	r2, #0
 824 00d4 74309FE5 		ldr	r3, .L93+8
 825 00d8 FEFFFFEB 		bl	__aeabi_ddiv
 826 00dc FEFFFFEB 		bl	__aeabi_d2f
 827 00e0 900084E5 		str	r0, [r4, #144]	@ float
 828 00e4 100094E5 		ldr	r0, [r4, #16]
 829 00e8 FEFFFFEB 		bl	__aeabi_i2d
 830 00ec 0020A0E3 		mov	r2, #0
 831 00f0 58309FE5 		ldr	r3, .L93+8
 832 00f4 FEFFFFEB 		bl	__aeabi_ddiv
 833 00f8 FEFFFFEB 		bl	__aeabi_d2f
 834 00fc 8C0084E5 		str	r0, [r4, #140]	@ float
 835 0100 180094E5 		ldr	r0, [r4, #24]
 836 0104 FEFFFFEB 		bl	__aeabi_i2d
 837 0108 0020A0E3 		mov	r2, #0
 838 010c 40309FE5 		ldr	r3, .L93+12
 839 0110 FEFFFFEB 		bl	__aeabi_ddiv
 840 0114 FEFFFFEB 		bl	__aeabi_d2f
 841 0118 015C85E3 		orr	r5, r5, #256
 842 011c 940084E5 		str	r0, [r4, #148]	@ float
 843 0120 0400A0E1 		mov	r0, r4
 844 0124 B859C0E0 		strh	r5, [r0], #152	@ movhi
 845              	.L92:
 846 0128 8C1084E2 		add	r1, r4, #140
 847 012c FEFFFFEB 		bl	ecef_of_lla_f
 848              	.L87:
 849 0130 10309FE5 		ldr	r3, .L93
 850 0134 B020D3E1 		ldrh	r2, [r3, #0]
 851 0138 202082E3 		orr	r2, r2, #32
 852 013c B020C3E1 		strh	r2, [r3, #0]	@ movhi
 853              	.L84:
 854 0140 3840BDE8 		ldmfd	sp!, {r3, r4, r5, lr}
 855 0144 1EFF2FE1 		bx	lr
 856              	.L94:
 857              		.align	2
 858              	.L93:
 859 0148 00000000 		.word	state
 860 014c 00005940 		.word	1079574528
 861 0150 D0126341 		.word	1097011920
 862 0154 00408F40 		.word	1083129856
 864              		.global	__aeabi_i2f
 865              		.section	.text.stateCalcPositionNed_f,"ax",%progbits
 866              		.align	2
 867              		.global	stateCalcPositionNed_f
 869              	stateCalcPositionNed_f:
 870              		@ Function supports interworking.
 871              		@ args = 0, pretend = 0, frame = 0
 872              		@ frame_needed = 0, uses_anonymous_args = 0
 873 0000 F8402DE9 		stmfd	sp!, {r3, r4, r5, r6, r7, lr}
 874 0004 54429FE5 		ldr	r4, .L113
 875 0008 B050D4E1 		ldrh	r5, [r4, #0]
 876 000c 400015E3 		tst	r5, #64
 877 0010 9000001A 		bne	.L95
 878 0014 E430D4E5 		ldrb	r3, [r4, #228]	@ zero_extendqisi2
 879 0018 000053E3 		cmp	r3, #0
 880 001c 2200000A 		beq	.L97
 881 0020 020015E3 		tst	r5, #2
 882 0024 2500001A 		bne	.L110
 883              	.L98:
 884 0028 200015E3 		tst	r5, #32
 885 002c 0400000A 		beq	.L100
 886 0030 FC0084E2 		add	r0, r4, #252
 887 0034 A41084E2 		add	r1, r4, #164
 888 0038 982084E2 		add	r2, r4, #152
 889 003c FEFFFFEB 		bl	ned_of_ecef_point_f
 890 0040 800000EA 		b	.L99
 891              	.L100:
 892 0044 010015E3 		tst	r5, #1
 893 0048 60008412 		addne	r0, r4, #96
 894 004c 0F00001A 		bne	.L112
 895 0050 010C15E3 		tst	r5, #256
 896 0054 0400000A 		beq	.L102
 897 0058 FC0084E2 		add	r0, r4, #252
 898 005c A41084E2 		add	r1, r4, #164
 899 0060 8C2084E2 		add	r2, r4, #140
 900 0064 FEFFFFEB 		bl	ned_of_lla_point_f
 901 0068 760000EA 		b	.L99
 902              	.L102:
 903 006c 080015E3 		tst	r5, #8
 904 0070 7400000A 		beq	.L99
 905 0074 040084E2 		add	r0, r4, #4
 906 0078 101084E2 		add	r1, r4, #16
 907 007c FEFFFFEB 		bl	ecef_of_lla_i
 908 0080 B030D4E1 		ldrh	r3, [r4, #0]
 909 0084 0400A0E1 		mov	r0, r4
 910 0088 013083E3 		orr	r3, r3, #1
 911 008c B036C0E0 		strh	r3, [r0], #96	@ movhi
 912              	.L112:
 913 0090 1C1084E2 		add	r1, r4, #28
 914 0094 042084E2 		add	r2, r4, #4
 915 0098 FEFFFFEB 		bl	ned_of_ecef_point_i
 916 009c B030D4E1 		ldrh	r3, [r4, #0]
 917 00a0 023083E3 		orr	r3, r3, #2
 918 00a4 B030C4E1 		strh	r3, [r4, #0]	@ movhi
 919 00a8 040000EA 		b	.L110
 920              	.L97:
 921 00ac F830D4E5 		ldrb	r3, [r4, #248]	@ zero_extendqisi2
 922 00b0 000053E3 		cmp	r3, #0
 923 00b4 6300000A 		beq	.L99
 924 00b8 020015E3 		tst	r5, #2
 925 00bc 0E00000A 		beq	.L103
 926              	.L110:
 927 00c0 600094E5 		ldr	r0, [r4, #96]
 928 00c4 FEFFFFEB 		bl	__aeabi_i2f
 929 00c8 EE15A0E3 		mov	r1, #998244352
 930 00cc FEFFFFEB 		bl	__aeabi_fmul
 931 00d0 FC0084E5 		str	r0, [r4, #252]	@ float
 932 00d4 640094E5 		ldr	r0, [r4, #100]
 933 00d8 FEFFFFEB 		bl	__aeabi_i2f
 934 00dc EE15A0E3 		mov	r1, #998244352
 935 00e0 FEFFFFEB 		bl	__aeabi_fmul
 936 00e4 000184E5 		str	r0, [r4, #256]	@ float
 937 00e8 680094E5 		ldr	r0, [r4, #104]
 938 00ec FEFFFFEB 		bl	__aeabi_i2f
 939 00f0 EE15A0E3 		mov	r1, #998244352
 940 00f4 FEFFFFEB 		bl	__aeabi_fmul
 941 00f8 510000EA 		b	.L108
 942              	.L103:
 943 00fc 040015E3 		tst	r5, #4
 944 0100 1600000A 		beq	.L104
 945 0104 6C0094E5 		ldr	r0, [r4, #108]
 946 0108 FEFFFFEB 		bl	__aeabi_i2f
 947 010c EE15A0E3 		mov	r1, #998244352
 948 0110 FEFFFFEB 		bl	__aeabi_fmul
 949 0114 0060A0E1 		mov	r6, r0
 950 0118 080184E5 		str	r0, [r4, #264]	@ float
 951 011c 700094E5 		ldr	r0, [r4, #112]
 952 0120 FEFFFFEB 		bl	__aeabi_i2f
 953 0124 EE15A0E3 		mov	r1, #998244352
 954 0128 FEFFFFEB 		bl	__aeabi_fmul
 955 012c 0070A0E1 		mov	r7, r0
 956 0130 0C0184E5 		str	r0, [r4, #268]	@ float
 957 0134 740094E5 		ldr	r0, [r4, #116]
 958 0138 FEFFFFEB 		bl	__aeabi_i2f
 959 013c EE15A0E3 		mov	r1, #998244352
 960 0140 FEFFFFEB 		bl	__aeabi_fmul
 961 0144 805085E3 		orr	r5, r5, #128
 962 0148 100184E5 		str	r0, [r4, #272]	@ float
 963 014c B050C4E1 		strh	r5, [r4, #0]	@ movhi
 964 0150 FC7084E5 		str	r7, [r4, #252]	@ float
 965 0154 006184E5 		str	r6, [r4, #256]	@ float
 966 0158 020180E2 		add	r0, r0, #-2147483648
 967 015c 380000EA 		b	.L108
 968              	.L104:
 969 0160 800015E3 		tst	r5, #128
 970 0164 0700000A 		beq	.L105
 971 0168 0C3194E5 		ldr	r3, [r4, #268]	@ float
 972 016c FC3084E5 		str	r3, [r4, #252]	@ float
 973 0170 083194E5 		ldr	r3, [r4, #264]	@ float
 974 0174 003184E5 		str	r3, [r4, #256]	@ float
 975 0178 103194E5 		ldr	r3, [r4, #272]
 976 017c 023183E2 		add	r3, r3, #-2147483648
 977 0180 043184E5 		str	r3, [r4, #260]	@ float
 978 0184 2F0000EA 		b	.L99
 979              	.L105:
 980 0188 020C15E3 		tst	r5, #512
 981 018c 2100001A 		bne	.L111
 982              	.L106:
 983 0190 010C15E3 		tst	r5, #256
 984 0194 78008412 		addne	r0, r4, #120
 985 0198 1900001A 		bne	.L109
 986 019c 080015E3 		tst	r5, #8
 987 01a0 2800000A 		beq	.L99
 988 01a4 140094E5 		ldr	r0, [r4, #20]
 989 01a8 FEFFFFEB 		bl	__aeabi_i2d
 990 01ac 0020A0E3 		mov	r2, #0
 991 01b0 AC309FE5 		ldr	r3, .L113+4
 992 01b4 FEFFFFEB 		bl	__aeabi_ddiv
 993 01b8 FEFFFFEB 		bl	__aeabi_d2f
 994 01bc 900084E5 		str	r0, [r4, #144]	@ float
 995 01c0 100094E5 		ldr	r0, [r4, #16]
 996 01c4 FEFFFFEB 		bl	__aeabi_i2d
 997 01c8 0020A0E3 		mov	r2, #0
 998 01cc 90309FE5 		ldr	r3, .L113+4
 999 01d0 FEFFFFEB 		bl	__aeabi_ddiv
 1000 01d4 FEFFFFEB 		bl	__aeabi_d2f
 1001 01d8 8C0084E5 		str	r0, [r4, #140]	@ float
 1002 01dc 180094E5 		ldr	r0, [r4, #24]
 1003 01e0 FEFFFFEB 		bl	__aeabi_i2d
 1004 01e4 0020A0E3 		mov	r2, #0
 1005 01e8 78309FE5 		ldr	r3, .L113+8
 1006 01ec FEFFFFEB 		bl	__aeabi_ddiv
 1007 01f0 FEFFFFEB 		bl	__aeabi_d2f
 1008 01f4 015C85E3 		orr	r5, r5, #256
 1009 01f8 940084E5 		str	r0, [r4, #148]	@ float
 1010 01fc 0400A0E1 		mov	r0, r4
 1011 0200 B857C0E0 		strh	r5, [r0], #120	@ movhi
 1012              	.L109:
 1013 0204 8C1084E2 		add	r1, r4, #140
 1014 0208 FEFFFFEB 		bl	utm_of_lla_f
 1015 020c B030D4E1 		ldrh	r3, [r4, #0]
 1016 0210 023C83E3 		orr	r3, r3, #512
 1017 0214 B030C4E1 		strh	r3, [r4, #0]	@ movhi
 1018              	.L111:
 1019 0218 E81094E5 		ldr	r1, [r4, #232]	@ float
 1020 021c 780094E5 		ldr	r0, [r4, #120]	@ float
 1021 0220 FEFFFFEB 		bl	__aeabi_fsub
 1022 0224 EC1094E5 		ldr	r1, [r4, #236]	@ float
 1023 0228 FC0084E5 		str	r0, [r4, #252]	@ float
 1024 022c 7C0094E5 		ldr	r0, [r4, #124]	@ float
 1025 0230 FEFFFFEB 		bl	__aeabi_fsub
 1026 0234 801094E5 		ldr	r1, [r4, #128]	@ float
 1027 0238 000184E5 		str	r0, [r4, #256]	@ float
 1028 023c F00094E5 		ldr	r0, [r4, #240]	@ float
 1029 0240 FEFFFFEB 		bl	__aeabi_fsub
 1030              	.L108:
 1031 0244 040184E5 		str	r0, [r4, #260]	@ float
 1032              	.L99:
 1033 0248 10309FE5 		ldr	r3, .L113
 1034 024c B020D3E1 		ldrh	r2, [r3, #0]
 1035 0250 402082E3 		orr	r2, r2, #64
 1036 0254 B020C3E1 		strh	r2, [r3, #0]	@ movhi
 1037              	.L95:
 1038 0258 F840BDE8 		ldmfd	sp!, {r3, r4, r5, r6, r7, lr}
 1039 025c 1EFF2FE1 		bx	lr
 1040              	.L114:
 1041              		.align	2
 1042              	.L113:
 1043 0260 00000000 		.word	state
 1044 0264 D0126341 		.word	1097011920
 1045 0268 00408F40 		.word	1083129856
 1047              		.section	.text.stateCalcPositionEnu_f,"ax",%progbits
 1048              		.align	2
 1049              		.global	stateCalcPositionEnu_f
 1051              	stateCalcPositionEnu_f:
 1052              		@ Function supports interworking.
 1053              		@ args = 0, pretend = 0, frame = 0
 1054              		@ frame_needed = 0, uses_anonymous_args = 0
 1055 0000 F8402DE9 		stmfd	sp!, {r3, r4, r5, r6, r7, lr}
 1056 0004 64429FE5 		ldr	r4, .L137
 1057 0008 B050D4E1 		ldrh	r5, [r4, #0]
 1058 000c 800015E3 		tst	r5, #128
 1059 0010 9400001A 		bne	.L115
 1060 0014 E430D4E5 		ldrb	r3, [r4, #228]	@ zero_extendqisi2
 1061 0018 000053E3 		cmp	r3, #0
 1062 001c 2600000A 		beq	.L117
 1063 0020 400015E3 		tst	r5, #64
 1064 0024 3A00001A 		bne	.L131
 1065              	.L118:
 1066 0028 040015E3 		tst	r5, #4
 1067 002c 2700001A 		bne	.L133
 1068              	.L120:
 1069 0030 020015E3 		tst	r5, #2
 1070 0034 4000001A 		bne	.L134
 1071              	.L121:
 1072 0038 200015E3 		tst	r5, #32
 1073 003c 0400000A 		beq	.L122
 1074 0040 420F84E2 		add	r0, r4, #264
 1075 0044 A41084E2 		add	r1, r4, #164
 1076 0048 982084E2 		add	r2, r4, #152
 1077 004c FEFFFFEB 		bl	enu_of_ecef_point_f
 1078 0050 800000EA 		b	.L119
 1079              	.L122:
 1080 0054 010015E3 		tst	r5, #1
 1081 0058 6C008412 		addne	r0, r4, #108
 1082 005c 0F00001A 		bne	.L136
 1083 0060 010C15E3 		tst	r5, #256
 1084 0064 0400000A 		beq	.L124
 1085 0068 420F84E2 		add	r0, r4, #264
 1086 006c A41084E2 		add	r1, r4, #164
 1087 0070 8C2084E2 		add	r2, r4, #140
 1088 0074 FEFFFFEB 		bl	enu_of_lla_point_f
 1089 0078 760000EA 		b	.L119
 1090              	.L124:
 1091 007c 080015E3 		tst	r5, #8
 1092 0080 7400000A 		beq	.L119
 1093 0084 040084E2 		add	r0, r4, #4
 1094 0088 101084E2 		add	r1, r4, #16
 1095 008c FEFFFFEB 		bl	ecef_of_lla_i
 1096 0090 B030D4E1 		ldrh	r3, [r4, #0]
 1097 0094 0400A0E1 		mov	r0, r4
 1098 0098 013083E3 		orr	r3, r3, #1
 1099 009c BC36C0E0 		strh	r3, [r0], #108	@ movhi
 1100              	.L136:
 1101 00a0 1C1084E2 		add	r1, r4, #28
 1102 00a4 042084E2 		add	r2, r4, #4
 1103 00a8 FEFFFFEB 		bl	enu_of_ecef_point_i
 1104 00ac B030D4E1 		ldrh	r3, [r4, #0]
 1105 00b0 043083E3 		orr	r3, r3, #4
 1106 00b4 B030C4E1 		strh	r3, [r4, #0]	@ movhi
 1107 00b8 040000EA 		b	.L133
 1108              	.L117:
 1109 00bc F830D4E5 		ldrb	r3, [r4, #248]	@ zero_extendqisi2
 1110 00c0 000053E3 		cmp	r3, #0
 1111 00c4 6300000A 		beq	.L119
 1112 00c8 040015E3 		tst	r5, #4
 1113 00cc 0E00000A 		beq	.L125
 1114              	.L133:
 1115 00d0 6C0094E5 		ldr	r0, [r4, #108]
 1116 00d4 FEFFFFEB 		bl	__aeabi_i2f
 1117 00d8 EE15A0E3 		mov	r1, #998244352
 1118 00dc FEFFFFEB 		bl	__aeabi_fmul
 1119 00e0 080184E5 		str	r0, [r4, #264]	@ float
 1120 00e4 700094E5 		ldr	r0, [r4, #112]
 1121 00e8 FEFFFFEB 		bl	__aeabi_i2f
 1122 00ec EE15A0E3 		mov	r1, #998244352
 1123 00f0 FEFFFFEB 		bl	__aeabi_fmul
 1124 00f4 0C0184E5 		str	r0, [r4, #268]	@ float
 1125 00f8 740094E5 		ldr	r0, [r4, #116]
 1126 00fc FEFFFFEB 		bl	__aeabi_i2f
 1127 0100 EE15A0E3 		mov	r1, #998244352
 1128 0104 FEFFFFEB 		bl	__aeabi_fmul
 1129 0108 510000EA 		b	.L130
 1130              	.L125:
 1131 010c 400015E3 		tst	r5, #64
 1132 0110 0700000A 		beq	.L126
 1133              	.L131:
 1134 0114 003194E5 		ldr	r3, [r4, #256]	@ float
 1135 0118 083184E5 		str	r3, [r4, #264]	@ float
 1136 011c FC3094E5 		ldr	r3, [r4, #252]	@ float
 1137 0120 0C3184E5 		str	r3, [r4, #268]	@ float
 1138 0124 043194E5 		ldr	r3, [r4, #260]
 1139 0128 023183E2 		add	r3, r3, #-2147483648
 1140 012c 103184E5 		str	r3, [r4, #272]	@ float
 1141 0130 480000EA 		b	.L119
 1142              	.L126:
 1143 0134 020015E3 		tst	r5, #2
 1144 0138 1600000A 		beq	.L127
 1145              	.L134:
 1146 013c 600094E5 		ldr	r0, [r4, #96]
 1147 0140 FEFFFFEB 		bl	__aeabi_i2f
 1148 0144 EE15A0E3 		mov	r1, #998244352
 1149 0148 FEFFFFEB 		bl	__aeabi_fmul
 1150 014c 0060A0E1 		mov	r6, r0
 1151 0150 FC0084E5 		str	r0, [r4, #252]	@ float
 1152 0154 640094E5 		ldr	r0, [r4, #100]
 1153 0158 FEFFFFEB 		bl	__aeabi_i2f
 1154 015c EE15A0E3 		mov	r1, #998244352
 1155 0160 FEFFFFEB 		bl	__aeabi_fmul
 1156 0164 0070A0E1 		mov	r7, r0
 1157 0168 000184E5 		str	r0, [r4, #256]	@ float
 1158 016c 680094E5 		ldr	r0, [r4, #104]
 1159 0170 FEFFFFEB 		bl	__aeabi_i2f
 1160 0174 EE15A0E3 		mov	r1, #998244352
 1161 0178 FEFFFFEB 		bl	__aeabi_fmul
 1162 017c 405085E3 		orr	r5, r5, #64
 1163 0180 040184E5 		str	r0, [r4, #260]	@ float
 1164 0184 B050C4E1 		strh	r5, [r4, #0]	@ movhi
 1165 0188 087184E5 		str	r7, [r4, #264]	@ float
 1166 018c 0C6184E5 		str	r6, [r4, #268]	@ float
 1167 0190 020180E2 		add	r0, r0, #-2147483648
 1168 0194 2E0000EA 		b	.L130
 1169              	.L127:
 1170 0198 020C15E3 		tst	r5, #512
 1171 019c 2100001A 		bne	.L135
 1172              	.L128:
 1173 01a0 010C15E3 		tst	r5, #256
 1174 01a4 78008412 		addne	r0, r4, #120
 1175 01a8 1900001A 		bne	.L132
 1176 01ac 080015E3 		tst	r5, #8
 1177 01b0 2800000A 		beq	.L119
 1178 01b4 140094E5 		ldr	r0, [r4, #20]
 1179 01b8 FEFFFFEB 		bl	__aeabi_i2d
 1180 01bc 0020A0E3 		mov	r2, #0
 1181 01c0 AC309FE5 		ldr	r3, .L137+4
 1182 01c4 FEFFFFEB 		bl	__aeabi_ddiv
 1183 01c8 FEFFFFEB 		bl	__aeabi_d2f
 1184 01cc 900084E5 		str	r0, [r4, #144]	@ float
 1185 01d0 100094E5 		ldr	r0, [r4, #16]
 1186 01d4 FEFFFFEB 		bl	__aeabi_i2d
 1187 01d8 0020A0E3 		mov	r2, #0
 1188 01dc 90309FE5 		ldr	r3, .L137+4
 1189 01e0 FEFFFFEB 		bl	__aeabi_ddiv
 1190 01e4 FEFFFFEB 		bl	__aeabi_d2f
 1191 01e8 8C0084E5 		str	r0, [r4, #140]	@ float
 1192 01ec 180094E5 		ldr	r0, [r4, #24]
 1193 01f0 FEFFFFEB 		bl	__aeabi_i2d
 1194 01f4 0020A0E3 		mov	r2, #0
 1195 01f8 78309FE5 		ldr	r3, .L137+8
 1196 01fc FEFFFFEB 		bl	__aeabi_ddiv
 1197 0200 FEFFFFEB 		bl	__aeabi_d2f
 1198 0204 015C85E3 		orr	r5, r5, #256
 1199 0208 940084E5 		str	r0, [r4, #148]	@ float
 1200 020c 0400A0E1 		mov	r0, r4
 1201 0210 B857C0E0 		strh	r5, [r0], #120	@ movhi
 1202              	.L132:
 1203 0214 8C1084E2 		add	r1, r4, #140
 1204 0218 FEFFFFEB 		bl	utm_of_lla_f
 1205 021c B030D4E1 		ldrh	r3, [r4, #0]
 1206 0220 023C83E3 		orr	r3, r3, #512
 1207 0224 B030C4E1 		strh	r3, [r4, #0]	@ movhi
 1208              	.L135:
 1209 0228 EC1094E5 		ldr	r1, [r4, #236]	@ float
 1210 022c 7C0094E5 		ldr	r0, [r4, #124]	@ float
 1211 0230 FEFFFFEB 		bl	__aeabi_fsub
 1212 0234 E81094E5 		ldr	r1, [r4, #232]	@ float
 1213 0238 080184E5 		str	r0, [r4, #264]	@ float
 1214 023c 780094E5 		ldr	r0, [r4, #120]	@ float
 1215 0240 FEFFFFEB 		bl	__aeabi_fsub
 1216 0244 F01094E5 		ldr	r1, [r4, #240]	@ float
 1217 0248 0C0184E5 		str	r0, [r4, #268]	@ float
 1218 024c 800094E5 		ldr	r0, [r4, #128]	@ float
 1219 0250 FEFFFFEB 		bl	__aeabi_fsub
 1220              	.L130:
 1221 0254 100184E5 		str	r0, [r4, #272]	@ float
 1222              	.L119:
 1223 0258 10309FE5 		ldr	r3, .L137
 1224 025c B020D3E1 		ldrh	r2, [r3, #0]
 1225 0260 802082E3 		orr	r2, r2, #128
 1226 0264 B020C3E1 		strh	r2, [r3, #0]	@ movhi
 1227              	.L115:
 1228 0268 F840BDE8 		ldmfd	sp!, {r3, r4, r5, r6, r7, lr}
 1229 026c 1EFF2FE1 		bx	lr
 1230              	.L138:
 1231              		.align	2
 1232              	.L137:
 1233 0270 00000000 		.word	state
 1234 0274 D0126341 		.word	1097011920
 1235 0278 00408F40 		.word	1083129856
 1237              		.global	__aeabi_fdiv
 1238              		.section	.text.stateCalcPositionLla_f,"ax",%progbits
 1239              		.align	2
 1240              		.global	stateCalcPositionLla_f
 1242              	stateCalcPositionLla_f:
 1243              		@ Function supports interworking.
 1244              		@ args = 0, pretend = 0, frame = 0
 1245              		@ frame_needed = 0, uses_anonymous_args = 0
 1246 0000 38402DE9 		stmfd	sp!, {r3, r4, r5, lr}
 1247 0004 68419FE5 		ldr	r4, .L149
 1248 0008 B050D4E1 		ldrh	r5, [r4, #0]
 1249 000c 010C15E3 		tst	r5, #256
 1250 0010 5500001A 		bne	.L139
 1251 0014 080015E3 		tst	r5, #8
 1252 0018 0C00000A 		beq	.L141
 1253 001c 900094E5 		ldr	r0, [r4, #144]	@ float
 1254 0020 50119FE5 		ldr	r1, .L149+4
 1255 0024 FEFFFFEB 		bl	__aeabi_fdiv
 1256 0028 48119FE5 		ldr	r1, .L149+4
 1257 002c 900084E5 		str	r0, [r4, #144]	@ float
 1258 0030 8C0094E5 		ldr	r0, [r4, #140]	@ float
 1259 0034 FEFFFFEB 		bl	__aeabi_fdiv
 1260 0038 3C119FE5 		ldr	r1, .L149+8
 1261 003c 8C0084E5 		str	r0, [r4, #140]	@ float
 1262 0040 940094E5 		ldr	r0, [r4, #148]	@ float
 1263 0044 FEFFFFEB 		bl	__aeabi_fdiv
 1264 0048 940084E5 		str	r0, [r4, #148]	@ float
 1265 004c 420000EA 		b	.L142
 1266              	.L141:
 1267 0050 200015E3 		tst	r5, #32
 1268 0054 8C008412 		addne	r0, r4, #140
 1269 0058 1900001A 		bne	.L147
 1270 005c 010015E3 		tst	r5, #1
 1271 0060 1A00000A 		beq	.L144
 1272 0064 040094E5 		ldr	r0, [r4, #4]
 1273 0068 FEFFFFEB 		bl	__aeabi_i2d
 1274 006c 0020A0E3 		mov	r2, #0
 1275 0070 08319FE5 		ldr	r3, .L149+12
 1276 0074 FEFFFFEB 		bl	__aeabi_ddiv
 1277 0078 FEFFFFEB 		bl	__aeabi_d2f
 1278 007c 980084E5 		str	r0, [r4, #152]	@ float
 1279 0080 080094E5 		ldr	r0, [r4, #8]
 1280 0084 FEFFFFEB 		bl	__aeabi_i2d
 1281 0088 0020A0E3 		mov	r2, #0
 1282 008c EC309FE5 		ldr	r3, .L149+12
 1283 0090 FEFFFFEB 		bl	__aeabi_ddiv
 1284 0094 FEFFFFEB 		bl	__aeabi_d2f
 1285 0098 9C0084E5 		str	r0, [r4, #156]	@ float
 1286 009c 0C0094E5 		ldr	r0, [r4, #12]
 1287 00a0 FEFFFFEB 		bl	__aeabi_i2d
 1288 00a4 0020A0E3 		mov	r2, #0
 1289 00a8 D0309FE5 		ldr	r3, .L149+12
 1290 00ac FEFFFFEB 		bl	__aeabi_ddiv
 1291 00b0 FEFFFFEB 		bl	__aeabi_d2f
 1292 00b4 205085E3 		orr	r5, r5, #32
 1293 00b8 A00084E5 		str	r0, [r4, #160]	@ float
 1294 00bc 0400A0E1 		mov	r0, r4
 1295 00c0 BC58C0E0 		strh	r5, [r0], #140	@ movhi
 1296              	.L147:
 1297 00c4 981084E2 		add	r1, r4, #152
 1298 00c8 FEFFFFEB 		bl	lla_of_ecef_f
 1299 00cc 220000EA 		b	.L142
 1300              	.L144:
 1301 00d0 400015E3 		tst	r5, #64
 1302 00d4 98008412 		addne	r0, r4, #152
 1303 00d8 1300001A 		bne	.L148
 1304 00dc 020015E3 		tst	r5, #2
 1305 00e0 1900000A 		beq	.L146
 1306 00e4 600094E5 		ldr	r0, [r4, #96]
 1307 00e8 FEFFFFEB 		bl	__aeabi_i2f
 1308 00ec EE15A0E3 		mov	r1, #998244352
 1309 00f0 FEFFFFEB 		bl	__aeabi_fmul
 1310 00f4 FC0084E5 		str	r0, [r4, #252]	@ float
 1311 00f8 640094E5 		ldr	r0, [r4, #100]
 1312 00fc FEFFFFEB 		bl	__aeabi_i2f
 1313 0100 EE15A0E3 		mov	r1, #998244352
 1314 0104 FEFFFFEB 		bl	__aeabi_fmul
 1315 0108 000184E5 		str	r0, [r4, #256]	@ float
 1316 010c 680094E5 		ldr	r0, [r4, #104]
 1317 0110 FEFFFFEB 		bl	__aeabi_i2f
 1318 0114 EE15A0E3 		mov	r1, #998244352
 1319 0118 FEFFFFEB 		bl	__aeabi_fmul
 1320 011c 405085E3 		orr	r5, r5, #64
 1321 0120 040184E5 		str	r0, [r4, #260]	@ float
 1322 0124 0400A0E1 		mov	r0, r4
 1323 0128 B859C0E0 		strh	r5, [r0], #152	@ movhi
 1324              	.L148:
 1325 012c A41084E2 		add	r1, r4, #164
 1326 0130 FC2084E2 		add	r2, r4, #252
 1327 0134 FEFFFFEB 		bl	ecef_of_ned_point_f
 1328 0138 B030D4E1 		ldrh	r3, [r4, #0]
 1329 013c 0400A0E1 		mov	r0, r4
 1330 0140 203083E3 		orr	r3, r3, #32
 1331 0144 BC38C0E0 		strh	r3, [r0], #140	@ movhi
 1332 0148 DDFFFFEA 		b	.L147
 1333              	.L146:
 1334 014c 020C15E3 		tst	r5, #512
 1335 0150 8C008412 		addne	r0, r4, #140
 1336 0154 78108412 		addne	r1, r4, #120
 1337 0158 FEFFFF1B 		blne	lla_of_utm_f
 1338              	.L142:
 1339 015c 10309FE5 		ldr	r3, .L149
 1340 0160 B020D3E1 		ldrh	r2, [r3, #0]
 1341 0164 012C82E3 		orr	r2, r2, #256
 1342 0168 B020C3E1 		strh	r2, [r3, #0]	@ movhi
 1343              	.L139:
 1344 016c 3840BDE8 		ldmfd	sp!, {r3, r4, r5, lr}
 1345 0170 1EFF2FE1 		bx	lr
 1346              	.L150:
 1347              		.align	2
 1348              	.L149:
 1349 0174 00000000 		.word	state
 1350 0178 8096184B 		.word	1259902592
 1351 017c 00007A44 		.word	1148846080
 1352 0180 00005940 		.word	1079574528
 1354              		.section	.text.stateCalcSpeedNed_i,"ax",%progbits
 1355              		.align	2
 1356              		.global	stateCalcSpeedNed_i
 1358              	stateCalcSpeedNed_i:
 1359              		@ Function supports interworking.
 1360              		@ args = 0, pretend = 0, frame = 0
 1361              		@ frame_needed = 0, uses_anonymous_args = 0
 1362 0000 F0412DE9 		stmfd	sp!, {r4, r5, r6, r7, r8, lr}
 1363 0004 90419FE5 		ldr	r4, .L166
 1364 0008 456FA0E3 		mov	r6, #276
 1365 000c B65094E1 		ldrh	r5, [r4, r6]
 1366 0010 020015E3 		tst	r5, #2
 1367 0014 5E00001A 		bne	.L151
 1368 0018 5C30D4E5 		ldrb	r3, [r4, #92]	@ zero_extendqisi2
 1369 001c 000053E3 		cmp	r3, #0
 1370 0020 1F00000A 		beq	.L153
 1371 0024 400015E3 		tst	r5, #64
 1372 0028 2200001A 		bne	.L164
 1373              	.L154:
 1374 002c 040015E3 		tst	r5, #4
 1375 0030 3100001A 		bne	.L162
 1376              	.L156:
 1377 0034 800015E3 		tst	r5, #128
 1378 0038 3900001A 		bne	.L165
 1379              	.L157:
 1380 003c 010015E3 		tst	r5, #1
 1381 0040 1200001A 		bne	.L163
 1382              	.L158:
 1383 0044 200015E3 		tst	r5, #32
 1384 0048 4C00000A 		beq	.L155
 1385 004c 4914A0E3 		mov	r1, #1224736768
 1386 0050 440194E5 		ldr	r0, [r4, #324]	@ float
 1387 0054 FEFFFFEB 		bl	__aeabi_fmul
 1388 0058 FEFFFFEB 		bl	__aeabi_f2iz
 1389 005c 4914A0E3 		mov	r1, #1224736768
 1390 0060 180184E5 		str	r0, [r4, #280]
 1391 0064 480194E5 		ldr	r0, [r4, #328]	@ float
 1392 0068 FEFFFFEB 		bl	__aeabi_fmul
 1393 006c FEFFFFEB 		bl	__aeabi_f2iz
 1394 0070 4914A0E3 		mov	r1, #1224736768
 1395 0074 1C0184E5 		str	r0, [r4, #284]
 1396 0078 4C0194E5 		ldr	r0, [r4, #332]	@ float
 1397 007c FEFFFFEB 		bl	__aeabi_fmul
 1398 0080 FEFFFFEB 		bl	__aeabi_f2iz
 1399 0084 015085E3 		orr	r5, r5, #1
 1400 0088 200184E5 		str	r0, [r4, #288]
 1401 008c B65084E1 		strh	r5, [r4, r6]	@ movhi
 1402              	.L163:
 1403 0090 490F84E2 		add	r0, r4, #292
 1404 0094 1C1084E2 		add	r1, r4, #28
 1405 0098 462F84E2 		add	r2, r4, #280
 1406 009c FEFFFFEB 		bl	ned_of_ecef_vect_i
 1407 00a0 360000EA 		b	.L155
 1408              	.L153:
 1409 00a4 F830D4E5 		ldrb	r3, [r4, #248]	@ zero_extendqisi2
 1410 00a8 000053E3 		cmp	r3, #0
 1411 00ac 3300000A 		beq	.L155
 1412 00b0 400015E3 		tst	r5, #64
 1413 00b4 0E00000A 		beq	.L159
 1414              	.L164:
 1415 00b8 4914A0E3 		mov	r1, #1224736768
 1416 00bc 500194E5 		ldr	r0, [r4, #336]	@ float
 1417 00c0 FEFFFFEB 		bl	__aeabi_fmul
 1418 00c4 FEFFFFEB 		bl	__aeabi_f2iz
 1419 00c8 4914A0E3 		mov	r1, #1224736768
 1420 00cc 240184E5 		str	r0, [r4, #292]
 1421 00d0 540194E5 		ldr	r0, [r4, #340]	@ float
 1422 00d4 FEFFFFEB 		bl	__aeabi_fmul
 1423 00d8 FEFFFFEB 		bl	__aeabi_f2iz
 1424 00dc 4914A0E3 		mov	r1, #1224736768
 1425 00e0 280184E5 		str	r0, [r4, #296]
 1426 00e4 580194E5 		ldr	r0, [r4, #344]	@ float
 1427 00e8 FEFFFFEB 		bl	__aeabi_fmul
 1428 00ec FEFFFFEB 		bl	__aeabi_f2iz
 1429 00f0 210000EA 		b	.L161
 1430              	.L159:
 1431 00f4 040015E3 		tst	r5, #4
 1432 00f8 0700000A 		beq	.L160
 1433              	.L162:
 1434 00fc 343194E5 		ldr	r3, [r4, #308]
 1435 0100 243184E5 		str	r3, [r4, #292]
 1436 0104 303194E5 		ldr	r3, [r4, #304]
 1437 0108 283184E5 		str	r3, [r4, #296]
 1438 010c 383194E5 		ldr	r3, [r4, #312]
 1439 0110 003063E2 		rsb	r3, r3, #0
 1440 0114 2C3184E5 		str	r3, [r4, #300]
 1441 0118 180000EA 		b	.L155
 1442              	.L160:
 1443 011c 800015E3 		tst	r5, #128
 1444 0120 1600000A 		beq	.L155
 1445              	.L165:
 1446 0124 4914A0E3 		mov	r1, #1224736768
 1447 0128 5C0194E5 		ldr	r0, [r4, #348]	@ float
 1448 012c FEFFFFEB 		bl	__aeabi_fmul
 1449 0130 FEFFFFEB 		bl	__aeabi_f2iz
 1450 0134 4914A0E3 		mov	r1, #1224736768
 1451 0138 0070A0E1 		mov	r7, r0
 1452 013c 300184E5 		str	r0, [r4, #304]
 1453 0140 600194E5 		ldr	r0, [r4, #352]	@ float
 1454 0144 FEFFFFEB 		bl	__aeabi_fmul
 1455 0148 FEFFFFEB 		bl	__aeabi_f2iz
 1456 014c 4914A0E3 		mov	r1, #1224736768
 1457 0150 0080A0E1 		mov	r8, r0
 1458 0154 340184E5 		str	r0, [r4, #308]
 1459 0158 640194E5 		ldr	r0, [r4, #356]	@ float
 1460 015c FEFFFFEB 		bl	__aeabi_fmul
 1461 0160 FEFFFFEB 		bl	__aeabi_f2iz
 1462 0164 045085E3 		orr	r5, r5, #4
 1463 0168 B65084E1 		strh	r5, [r4, r6]	@ movhi
 1464 016c 248184E5 		str	r8, [r4, #292]
 1465 0170 287184E5 		str	r7, [r4, #296]
 1466 0174 380184E5 		str	r0, [r4, #312]
 1467 0178 000060E2 		rsb	r0, r0, #0
 1468              	.L161:
 1469 017c 2C0184E5 		str	r0, [r4, #300]
 1470              	.L155:
 1471 0180 14209FE5 		ldr	r2, .L166
 1472 0184 453FA0E3 		mov	r3, #276
 1473 0188 B31092E1 		ldrh	r1, [r2, r3]
 1474 018c 021081E3 		orr	r1, r1, #2
 1475 0190 B31082E1 		strh	r1, [r2, r3]	@ movhi
 1476              	.L151:
 1477 0194 F041BDE8 		ldmfd	sp!, {r4, r5, r6, r7, r8, lr}
 1478 0198 1EFF2FE1 		bx	lr
 1479              	.L167:
 1480              		.align	2
 1481              	.L166:
 1482 019c 00000000 		.word	state
 1484              		.section	.text.stateCalcSpeedEnu_i,"ax",%progbits
 1485              		.align	2
 1486              		.global	stateCalcSpeedEnu_i
 1488              	stateCalcSpeedEnu_i:
 1489              		@ Function supports interworking.
 1490              		@ args = 0, pretend = 0, frame = 0
 1491              		@ frame_needed = 0, uses_anonymous_args = 0
 1492 0000 BC319FE5 		ldr	r3, .L182
 1493 0004 452FA0E3 		mov	r2, #276
 1494 0008 70402DE9 		stmfd	sp!, {r4, r5, r6, lr}
 1495 000c B25093E1 		ldrh	r5, [r3, r2]
 1496 0010 040015E3 		tst	r5, #4
 1497 0014 6800001A 		bne	.L168
 1498 0018 5C20D3E5 		ldrb	r2, [r3, #92]	@ zero_extendqisi2
 1499 001c 000052E3 		cmp	r2, #0
 1500 0020 2800000A 		beq	.L170
 1501 0024 020015E3 		tst	r5, #2
 1502 0028 0600000A 		beq	.L171
 1503 002c 282193E5 		ldr	r2, [r3, #296]
 1504 0030 302183E5 		str	r2, [r3, #304]
 1505 0034 242193E5 		ldr	r2, [r3, #292]
 1506 0038 342183E5 		str	r2, [r3, #308]
 1507 003c 2C2193E5 		ldr	r2, [r3, #300]
 1508 0040 002062E2 		rsb	r2, r2, #0
 1509 0044 382183E5 		str	r2, [r3, #312]
 1510              	.L171:
 1511 0048 800015E3 		tst	r5, #128
 1512 004c 70419FE5 		ldr	r4, .L182
 1513 0050 2B00001A 		bne	.L180
 1514              	.L172:
 1515 0054 400015E3 		tst	r5, #64
 1516 0058 3A00001A 		bne	.L181
 1517              	.L174:
 1518 005c 010015E3 		tst	r5, #1
 1519 0060 1300001A 		bne	.L179
 1520              	.L175:
 1521 0064 200015E3 		tst	r5, #32
 1522 0068 4E00000A 		beq	.L173
 1523 006c 4914A0E3 		mov	r1, #1224736768
 1524 0070 440194E5 		ldr	r0, [r4, #324]	@ float
 1525 0074 FEFFFFEB 		bl	__aeabi_fmul
 1526 0078 FEFFFFEB 		bl	__aeabi_f2iz
 1527 007c 4914A0E3 		mov	r1, #1224736768
 1528 0080 180184E5 		str	r0, [r4, #280]
 1529 0084 480194E5 		ldr	r0, [r4, #328]	@ float
 1530 0088 FEFFFFEB 		bl	__aeabi_fmul
 1531 008c FEFFFFEB 		bl	__aeabi_f2iz
 1532 0090 4914A0E3 		mov	r1, #1224736768
 1533 0094 1C0184E5 		str	r0, [r4, #284]
 1534 0098 4C0194E5 		ldr	r0, [r4, #332]	@ float
 1535 009c FEFFFFEB 		bl	__aeabi_fmul
 1536 00a0 FEFFFFEB 		bl	__aeabi_f2iz
 1537 00a4 015085E3 		orr	r5, r5, #1
 1538 00a8 453FA0E3 		mov	r3, #276
 1539 00ac 200184E5 		str	r0, [r4, #288]
 1540 00b0 B35084E1 		strh	r5, [r4, r3]	@ movhi
 1541              	.L179:
 1542 00b4 130E84E2 		add	r0, r4, #304
 1543 00b8 1C1084E2 		add	r1, r4, #28
 1544 00bc 462F84E2 		add	r2, r4, #280
 1545 00c0 FEFFFFEB 		bl	enu_of_ecef_vect_i
 1546 00c4 370000EA 		b	.L173
 1547              	.L170:
 1548 00c8 F820D3E5 		ldrb	r2, [r3, #248]	@ zero_extendqisi2
 1549 00cc 000052E3 		cmp	r2, #0
 1550 00d0 3400000A 		beq	.L173
 1551 00d4 020015E3 		tst	r5, #2
 1552 00d8 0600000A 		beq	.L176
 1553 00dc 282193E5 		ldr	r2, [r3, #296]
 1554 00e0 302183E5 		str	r2, [r3, #304]
 1555 00e4 242193E5 		ldr	r2, [r3, #292]
 1556 00e8 342183E5 		str	r2, [r3, #308]
 1557 00ec 2C2193E5 		ldr	r2, [r3, #300]
 1558 00f0 002062E2 		rsb	r2, r2, #0
 1559 00f4 382183E5 		str	r2, [r3, #312]
 1560              	.L176:
 1561 00f8 800015E3 		tst	r5, #128
 1562 00fc C0409FE5 		ldr	r4, .L182
 1563 0100 0E00000A 		beq	.L177
 1564              	.L180:
 1565 0104 BC109FE5 		ldr	r1, .L182+4
 1566 0108 5C0194E5 		ldr	r0, [r4, #348]	@ float
 1567 010c FEFFFFEB 		bl	__aeabi_fmul
 1568 0110 FEFFFFEB 		bl	__aeabi_f2iz
 1569 0114 AC109FE5 		ldr	r1, .L182+4
 1570 0118 300184E5 		str	r0, [r4, #304]
 1571 011c 600194E5 		ldr	r0, [r4, #352]	@ float
 1572 0120 FEFFFFEB 		bl	__aeabi_fmul
 1573 0124 FEFFFFEB 		bl	__aeabi_f2iz
 1574 0128 98109FE5 		ldr	r1, .L182+4
 1575 012c 340184E5 		str	r0, [r4, #308]
 1576 0130 640194E5 		ldr	r0, [r4, #356]	@ float
 1577 0134 FEFFFFEB 		bl	__aeabi_fmul
 1578 0138 FEFFFFEB 		bl	__aeabi_f2iz
 1579 013c 180000EA 		b	.L178
 1580              	.L177:
 1581 0140 400015E3 		tst	r5, #64
 1582 0144 1700000A 		beq	.L173
 1583              	.L181:
 1584 0148 4914A0E3 		mov	r1, #1224736768
 1585 014c 500194E5 		ldr	r0, [r4, #336]	@ float
 1586 0150 FEFFFFEB 		bl	__aeabi_fmul
 1587 0154 FEFFFFEB 		bl	__aeabi_f2iz
 1588 0158 4914A0E3 		mov	r1, #1224736768
 1589 015c 0050A0E1 		mov	r5, r0
 1590 0160 240184E5 		str	r0, [r4, #292]
 1591 0164 540194E5 		ldr	r0, [r4, #340]	@ float
 1592 0168 FEFFFFEB 		bl	__aeabi_fmul
 1593 016c FEFFFFEB 		bl	__aeabi_f2iz
 1594 0170 4914A0E3 		mov	r1, #1224736768
 1595 0174 0060A0E1 		mov	r6, r0
 1596 0178 280184E5 		str	r0, [r4, #296]
 1597 017c 580194E5 		ldr	r0, [r4, #344]	@ float
 1598 0180 FEFFFFEB 		bl	__aeabi_fmul
 1599 0184 FEFFFFEB 		bl	__aeabi_f2iz
 1600 0188 B030D4E1 		ldrh	r3, [r4, #0]
 1601 018c 023083E3 		orr	r3, r3, #2
 1602 0190 B030C4E1 		strh	r3, [r4, #0]	@ movhi
 1603 0194 306184E5 		str	r6, [r4, #304]
 1604 0198 345184E5 		str	r5, [r4, #308]
 1605 019c 2C0184E5 		str	r0, [r4, #300]
 1606 01a0 000060E2 		rsb	r0, r0, #0
 1607              	.L178:
 1608 01a4 380184E5 		str	r0, [r4, #312]
 1609              	.L173:
 1610 01a8 14209FE5 		ldr	r2, .L182
 1611 01ac 453FA0E3 		mov	r3, #276
 1612 01b0 B31092E1 		ldrh	r1, [r2, r3]
 1613 01b4 041081E3 		orr	r1, r1, #4
 1614 01b8 B31082E1 		strh	r1, [r2, r3]	@ movhi
 1615              	.L168:
 1616 01bc 7040BDE8 		ldmfd	sp!, {r4, r5, r6, lr}
 1617 01c0 1EFF2FE1 		bx	lr
 1618              	.L183:
 1619              		.align	2
 1620              	.L182:
 1621 01c4 00000000 		.word	state
 1622 01c8 00008043 		.word	1132462080
 1624              		.section	.text.stateCalcSpeedEcef_i,"ax",%progbits
 1625              		.align	2
 1626              		.global	stateCalcSpeedEcef_i
 1628              	stateCalcSpeedEcef_i:
 1629              		@ Function supports interworking.
 1630              		@ args = 0, pretend = 0, frame = 0
 1631              		@ frame_needed = 0, uses_anonymous_args = 0
 1632 0000 70402DE9 		stmfd	sp!, {r4, r5, r6, lr}
 1633 0004 D4409FE5 		ldr	r4, .L190
 1634 0008 456FA0E3 		mov	r6, #276
 1635 000c B65094E1 		ldrh	r5, [r4, r6]
 1636 0010 010015E3 		tst	r5, #1
 1637 0014 2F00001A 		bne	.L184
 1638 0018 200015E3 		tst	r5, #32
 1639 001c 0F00000A 		beq	.L186
 1640 0020 4914A0E3 		mov	r1, #1224736768
 1641 0024 440194E5 		ldr	r0, [r4, #324]	@ float
 1642 0028 FEFFFFEB 		bl	__aeabi_fmul
 1643 002c FEFFFFEB 		bl	__aeabi_f2iz
 1644 0030 4914A0E3 		mov	r1, #1224736768
 1645 0034 180184E5 		str	r0, [r4, #280]
 1646 0038 480194E5 		ldr	r0, [r4, #328]	@ float
 1647 003c FEFFFFEB 		bl	__aeabi_fmul
 1648 0040 FEFFFFEB 		bl	__aeabi_f2iz
 1649 0044 4914A0E3 		mov	r1, #1224736768
 1650 0048 1C0184E5 		str	r0, [r4, #284]
 1651 004c 4C0194E5 		ldr	r0, [r4, #332]	@ float
 1652 0050 FEFFFFEB 		bl	__aeabi_fmul
 1653 0054 FEFFFFEB 		bl	__aeabi_f2iz
 1654 0058 200184E5 		str	r0, [r4, #288]
 1655 005c 180000EA 		b	.L187
 1656              	.L186:
 1657 0060 020015E3 		tst	r5, #2
 1658 0064 1200001A 		bne	.L189
 1659              	.L188:
 1660 0068 400015E3 		tst	r5, #64
 1661 006c 1400000A 		beq	.L187
 1662 0070 4914A0E3 		mov	r1, #1224736768
 1663 0074 500194E5 		ldr	r0, [r4, #336]	@ float
 1664 0078 FEFFFFEB 		bl	__aeabi_fmul
 1665 007c FEFFFFEB 		bl	__aeabi_f2iz
 1666 0080 4914A0E3 		mov	r1, #1224736768
 1667 0084 240184E5 		str	r0, [r4, #292]
 1668 0088 540194E5 		ldr	r0, [r4, #340]	@ float
 1669 008c FEFFFFEB 		bl	__aeabi_fmul
 1670 0090 FEFFFFEB 		bl	__aeabi_f2iz
 1671 0094 4914A0E3 		mov	r1, #1224736768
 1672 0098 280184E5 		str	r0, [r4, #296]
 1673 009c 580194E5 		ldr	r0, [r4, #344]	@ float
 1674 00a0 FEFFFFEB 		bl	__aeabi_fmul
 1675 00a4 FEFFFFEB 		bl	__aeabi_f2iz
 1676 00a8 025085E3 		orr	r5, r5, #2
 1677 00ac 2C0184E5 		str	r0, [r4, #300]
 1678 00b0 B65084E1 		strh	r5, [r4, r6]	@ movhi
 1679              	.L189:
 1680 00b4 460F84E2 		add	r0, r4, #280
 1681 00b8 1C1084E2 		add	r1, r4, #28
 1682 00bc 492F84E2 		add	r2, r4, #292
 1683 00c0 FEFFFFEB 		bl	ecef_of_ned_vect_i
 1684              	.L187:
 1685 00c4 14209FE5 		ldr	r2, .L190
 1686 00c8 453FA0E3 		mov	r3, #276
 1687 00cc B31092E1 		ldrh	r1, [r2, r3]
 1688 00d0 011081E3 		orr	r1, r1, #1
 1689 00d4 B31082E1 		strh	r1, [r2, r3]	@ movhi
 1690              	.L184:
 1691 00d8 7040BDE8 		ldmfd	sp!, {r4, r5, r6, lr}
 1692 00dc 1EFF2FE1 		bx	lr
 1693              	.L191:
 1694              		.align	2
 1695              	.L190:
 1696 00e0 00000000 		.word	state
 1698              		.global	__aeabi_uidiv
 1699              		.global	__aeabi_fadd
 1700              		.section	.text.stateCalcHorizontalSpeedNorm_i,"ax",%progbits
 1701              		.align	2
 1702              		.global	stateCalcHorizontalSpeedNorm_i
 1704              	stateCalcHorizontalSpeedNorm_i:
 1705              		@ Function supports interworking.
 1706              		@ args = 0, pretend = 0, frame = 0
 1707              		@ frame_needed = 0, uses_anonymous_args = 0
 1708 0000 F8402DE9 		stmfd	sp!, {r3, r4, r5, r6, r7, lr}
 1709 0004 C4419FE5 		ldr	r4, .L211
 1710 0008 455FA0E3 		mov	r5, #276
 1711 000c B53094E1 		ldrh	r3, [r4, r5]
 1712 0010 080013E3 		tst	r3, #8
 1713 0014 6B00001A 		bne	.L192
 1714 0018 2364A0E1 		mov	r6, r3, lsr #8
 1715 001c 016016E2 		ands	r6, r6, #1
 1716 0020 68019415 		ldrne	r0, [r4, #360]	@ float
 1717 0024 5E00001A 		bne	.L208
 1718 0028 020013E3 		tst	r3, #2
 1719 002c 1A00000A 		beq	.L196
 1720 0030 283194E5 		ldr	r3, [r4, #296]
 1721 0034 930302E0 		mul	r2, r3, r3
 1722 0038 245194E5 		ldr	r5, [r4, #292]
 1723 003c 0230A0E1 		mov	r3, r2
 1724 0040 953522E0 		mla	r2, r5, r5, r3
 1725 0044 000052E3 		cmp	r2, #0
 1726 0048 0250A0E1 		mov	r5, r2
 1727 004c 0240A011 		movne	r4, r2
 1728 0050 0100001A 		bne	.L198
 1729 0054 1E0000EA 		b	.L209
 1730              	.L204:
 1731 0058 0040A0E1 		mov	r4, r0
 1732              	.L198:
 1733 005c 0410A0E1 		mov	r1, r4
 1734 0060 0500A0E1 		mov	r0, r5
 1735 0064 FEFFFFEB 		bl	__aeabi_uidiv
 1736 0068 016086E2 		add	r6, r6, #1
 1737 006c 040080E0 		add	r0, r0, r4
 1738 0070 A000A0E1 		mov	r0, r0, lsr #1
 1739 0074 FF6006E2 		and	r6, r6, #255
 1740 0078 270056E3 		cmp	r6, #39
 1741 007c 044060E0 		rsb	r4, r0, r4
 1742 0080 0030A083 		movhi	r3, #0
 1743 0084 0130A093 		movls	r3, #1
 1744 0088 010054E3 		cmp	r4, #1
 1745 008c 0030A093 		movls	r3, #0
 1746 0090 000053E3 		cmp	r3, #0
 1747 0094 EFFFFF1A 		bne	.L204
 1748 0098 1F0000EA 		b	.L210
 1749              	.L196:
 1750 009c 2363A0E1 		mov	r6, r3, lsr #6
 1751 00a0 016016E2 		ands	r6, r6, #1
 1752 00a4 2E00001A 		bne	.L206
 1753              	.L199:
 1754 00a8 040013E3 		tst	r3, #4
 1755 00ac 1D00000A 		beq	.L200
 1756 00b0 343194E5 		ldr	r3, [r4, #308]
 1757 00b4 930302E0 		mul	r2, r3, r3
 1758 00b8 305194E5 		ldr	r5, [r4, #304]
 1759 00bc 0230A0E1 		mov	r3, r2
 1760 00c0 953522E0 		mla	r2, r5, r5, r3
 1761 00c4 000052E3 		cmp	r2, #0
 1762 00c8 0250A0E1 		mov	r5, r2
 1763 00cc 0240A011 		movne	r4, r2
 1764 00d0 0200001A 		bne	.L202
 1765              	.L209:
 1766 00d4 3C5184E5 		str	r5, [r4, #316]
 1767 00d8 350000EA 		b	.L195
 1768              	.L205:
 1769 00dc 0040A0E1 		mov	r4, r0
 1770              	.L202:
 1771 00e0 0410A0E1 		mov	r1, r4
 1772 00e4 0500A0E1 		mov	r0, r5
 1773 00e8 FEFFFFEB 		bl	__aeabi_uidiv
 1774 00ec 016086E2 		add	r6, r6, #1
 1775 00f0 040080E0 		add	r0, r0, r4
 1776 00f4 A000A0E1 		mov	r0, r0, lsr #1
 1777 00f8 FF6006E2 		and	r6, r6, #255
 1778 00fc 270056E3 		cmp	r6, #39
 1779 0100 044060E0 		rsb	r4, r0, r4
 1780 0104 0030A083 		movhi	r3, #0
 1781 0108 0130A093 		movls	r3, #1
 1782 010c 010054E3 		cmp	r4, #1
 1783 0110 0030A093 		movls	r3, #0
 1784 0114 000053E3 		cmp	r3, #0
 1785 0118 EFFFFF1A 		bne	.L205
 1786              	.L210:
 1787 011c AC309FE5 		ldr	r3, .L211
 1788 0120 3C0183E5 		str	r0, [r3, #316]
 1789 0124 220000EA 		b	.L195
 1790              	.L200:
 1791 0128 800013E3 		tst	r3, #128
 1792 012c 5C019415 		ldrne	r0, [r4, #348]	@ float
 1793 0130 60719415 		ldrne	r7, [r4, #352]	@ float
 1794 0134 0C00001A 		bne	.L207
 1795 0138 010013E3 		tst	r3, #1
 1796 013c 1C00001A 		bne	.L195
 1797 0140 200013E3 		tst	r3, #32
 1798 0144 1A00000A 		beq	.L195
 1799 0148 150E84E2 		add	r0, r4, #336
 1800 014c A41084E2 		add	r1, r4, #164
 1801 0150 512F84E2 		add	r2, r4, #324
 1802 0154 FEFFFFEB 		bl	ned_of_ecef_vect_f
 1803 0158 B53094E1 		ldrh	r3, [r4, r5]
 1804 015c 403083E3 		orr	r3, r3, #64
 1805 0160 B53084E1 		strh	r3, [r4, r5]	@ movhi
 1806              	.L206:
 1807 0164 500194E5 		ldr	r0, [r4, #336]	@ float
 1808 0168 547194E5 		ldr	r7, [r4, #340]	@ float
 1809              	.L207:
 1810 016c 0010A0E1 		mov	r1, r0
 1811 0170 FEFFFFEB 		bl	__aeabi_fmul
 1812 0174 0710A0E1 		mov	r1, r7
 1813 0178 0060A0E1 		mov	r6, r0
 1814 017c 0700A0E1 		mov	r0, r7
 1815 0180 FEFFFFEB 		bl	__aeabi_fmul
 1816 0184 0010A0E1 		mov	r1, r0
 1817 0188 0600A0E1 		mov	r0, r6
 1818 018c FEFFFFEB 		bl	__aeabi_fadd
 1819 0190 FEFFFFEB 		bl	sqrtf
 1820 0194 B53094E1 		ldrh	r3, [r4, r5]
 1821 0198 013C83E3 		orr	r3, r3, #256
 1822 019c 680184E5 		str	r0, [r4, #360]	@ float
 1823 01a0 B53084E1 		strh	r3, [r4, r5]	@ movhi
 1824              	.L208:
 1825 01a4 4914A0E3 		mov	r1, #1224736768
 1826 01a8 FEFFFFEB 		bl	__aeabi_fmul
 1827 01ac FEFFFFEB 		bl	__aeabi_f2iz
 1828 01b0 3C0184E5 		str	r0, [r4, #316]
 1829              	.L195:
 1830 01b4 14209FE5 		ldr	r2, .L211
 1831 01b8 453FA0E3 		mov	r3, #276
 1832 01bc B31092E1 		ldrh	r1, [r2, r3]
 1833 01c0 081081E3 		orr	r1, r1, #8
 1834 01c4 B31082E1 		strh	r1, [r2, r3]	@ movhi
 1835              	.L192:
 1836 01c8 F840BDE8 		ldmfd	sp!, {r3, r4, r5, r6, r7, lr}
 1837 01cc 1EFF2FE1 		bx	lr
 1838              	.L212:
 1839              		.align	2
 1840              	.L211:
 1841 01d0 00000000 		.word	state
 1843              		.global	__aeabi_idiv
 1844              		.section	.text.stateCalcHorizontalSpeedDir_i,"ax",%progbits
 1845              		.align	2
 1846              		.global	stateCalcHorizontalSpeedDir_i
 1848              	stateCalcHorizontalSpeedDir_i:
 1849              		@ Function supports interworking.
 1850              		@ args = 0, pretend = 0, frame = 0
 1851              		@ frame_needed = 0, uses_anonymous_args = 0
 1852 0000 F0412DE9 		stmfd	sp!, {r4, r5, r6, r7, r8, lr}
 1853 0004 B4439FE5 		ldr	r4, .L265
 1854 0008 458FA0E3 		mov	r8, #276
 1855 000c B85094E1 		ldrh	r5, [r4, r8]
 1856 0010 100015E3 		tst	r5, #16
 1857 0014 E700001A 		bne	.L213
 1858 0018 020C15E3 		tst	r5, #512
 1859 001c 0500000A 		beq	.L215
 1860 0020 4914A0E3 		mov	r1, #1224736768
 1861 0024 6C0194E5 		ldr	r0, [r4, #364]	@ float
 1862 0028 FEFFFFEB 		bl	__aeabi_fmul
 1863 002c FEFFFFEB 		bl	__aeabi_f2iz
 1864 0030 400184E5 		str	r0, [r4, #320]
 1865 0034 DA0000EA 		b	.L216
 1866              	.L215:
 1867 0038 020015E3 		tst	r5, #2
 1868 003c 2B00000A 		beq	.L217
 1869 0040 285194E5 		ldr	r5, [r4, #296]
 1870 0044 243194E5 		ldr	r3, [r4, #292]
 1871 0048 C52F25E0 		eor	r2, r5, r5, asr #31
 1872 004c C52F42E0 		sub	r2, r2, r5, asr #31
 1873 0050 012082E2 		add	r2, r2, #1
 1874 0054 000053E3 		cmp	r3, #0
 1875 0058 021083E0 		add	r1, r3, r2
 1876 005c 070000BA 		blt	.L218
 1877 0060 033062E0 		rsb	r3, r2, r3
 1878 0064 0307A0E1 		mov	r0, r3, asl #14
 1879 0068 FEFFFFEB 		bl	__aeabi_idiv
 1880 006c C93EA0E3 		mov	r3, #3216
 1881 0070 900303E0 		mul	r3, r0, r3
 1882 0074 4337A0E1 		mov	r3, r3, asr #14
 1883 0078 C93E63E2 		rsb	r3, r3, #3216
 1884 007c 070000EA 		b	.L256
 1885              	.L218:
 1886 0080 0107A0E1 		mov	r0, r1, asl #14
 1887 0084 021063E0 		rsb	r1, r3, r2
 1888 0088 FEFFFFEB 		bl	__aeabi_idiv
 1889 008c C93EA0E3 		mov	r3, #3216
 1890 0090 900303E0 		mul	r3, r0, r3
 1891 0094 4337A0E1 		mov	r3, r3, asr #14
 1892 0098 963D63E2 		rsb	r3, r3, #9600
 1893 009c 303083E2 		add	r3, r3, #48
 1894              	.L256:
 1895 00a0 403184E5 		str	r3, [r4, #320]
 1896 00a4 14339FE5 		ldr	r3, .L265
 1897 00a8 000055E3 		cmp	r5, #0
 1898 00ac 402193B5 		ldrlt	r2, [r3, #320]
 1899 00b0 002062B2 		rsblt	r2, r2, #0
 1900 00b4 402183B5 		strlt	r2, [r3, #320]
 1901 00b8 403193E5 		ldr	r3, [r3, #320]
 1902 00bc 010000EA 		b	.L221
 1903              	.L222:
 1904 00c0 193B83E2 		add	r3, r3, #25600
 1905 00c4 873083E2 		add	r3, r3, #135
 1906              	.L221:
 1907 00c8 000053E3 		cmp	r3, #0
 1908 00cc FBFFFFBA 		blt	.L222
 1909 00d0 020000EA 		b	.L261
 1910              	.L224:
 1911 00d4 193B43E2 		sub	r3, r3, #25600
 1912 00d8 873043E2 		sub	r3, r3, #135
 1913 00dc 000000EA 		b	.L249
 1914              	.L261:
 1915 00e0 DC229FE5 		ldr	r2, .L265+4
 1916              	.L249:
 1917 00e4 020053E1 		cmp	r3, r2
 1918 00e8 F9FFFFCA 		bgt	.L224
 1919 00ec AA0000EA 		b	.L260
 1920              	.L217:
 1921 00f0 040015E3 		tst	r5, #4
 1922 00f4 2B00000A 		beq	.L225
 1923 00f8 305194E5 		ldr	r5, [r4, #304]
 1924 00fc 343194E5 		ldr	r3, [r4, #308]
 1925 0100 C52F25E0 		eor	r2, r5, r5, asr #31
 1926 0104 C52F42E0 		sub	r2, r2, r5, asr #31
 1927 0108 012082E2 		add	r2, r2, #1
 1928 010c 000053E3 		cmp	r3, #0
 1929 0110 021083E0 		add	r1, r3, r2
 1930 0114 070000BA 		blt	.L226
 1931 0118 033062E0 		rsb	r3, r2, r3
 1932 011c 0307A0E1 		mov	r0, r3, asl #14
 1933 0120 FEFFFFEB 		bl	__aeabi_idiv
 1934 0124 C93EA0E3 		mov	r3, #3216
 1935 0128 900303E0 		mul	r3, r0, r3
 1936 012c 4337A0E1 		mov	r3, r3, asr #14
 1937 0130 C93E63E2 		rsb	r3, r3, #3216
 1938 0134 070000EA 		b	.L257
 1939              	.L226:
 1940 0138 0107A0E1 		mov	r0, r1, asl #14
 1941 013c 021063E0 		rsb	r1, r3, r2
 1942 0140 FEFFFFEB 		bl	__aeabi_idiv
 1943 0144 C93EA0E3 		mov	r3, #3216
 1944 0148 900303E0 		mul	r3, r0, r3
 1945 014c 4337A0E1 		mov	r3, r3, asr #14
 1946 0150 963D63E2 		rsb	r3, r3, #9600
 1947 0154 303083E2 		add	r3, r3, #48
 1948              	.L257:
 1949 0158 403184E5 		str	r3, [r4, #320]
 1950 015c 5C329FE5 		ldr	r3, .L265
 1951 0160 000055E3 		cmp	r5, #0
 1952 0164 402193B5 		ldrlt	r2, [r3, #320]
 1953 0168 002062B2 		rsblt	r2, r2, #0
 1954 016c 402183B5 		strlt	r2, [r3, #320]
 1955 0170 403193E5 		ldr	r3, [r3, #320]
 1956 0174 010000EA 		b	.L229
 1957              	.L230:
 1958 0178 193B83E2 		add	r3, r3, #25600
 1959 017c 873083E2 		add	r3, r3, #135
 1960              	.L229:
 1961 0180 000053E3 		cmp	r3, #0
 1962 0184 FBFFFFBA 		blt	.L230
 1963 0188 020000EA 		b	.L262
 1964              	.L232:
 1965 018c 193B43E2 		sub	r3, r3, #25600
 1966 0190 873043E2 		sub	r3, r3, #135
 1967 0194 000000EA 		b	.L251
 1968              	.L262:
 1969 0198 24229FE5 		ldr	r2, .L265+4
 1970              	.L251:
 1971 019c 020053E1 		cmp	r3, r2
 1972 01a0 F9FFFFCA 		bgt	.L232
 1973 01a4 7C0000EA 		b	.L260
 1974              	.L225:
 1975 01a8 400015E3 		tst	r5, #64
 1976 01ac 3C00000A 		beq	.L233
 1977 01b0 4914A0E3 		mov	r1, #1224736768
 1978 01b4 500194E5 		ldr	r0, [r4, #336]	@ float
 1979 01b8 FEFFFFEB 		bl	__aeabi_fmul
 1980 01bc FEFFFFEB 		bl	__aeabi_f2iz
 1981 01c0 4914A0E3 		mov	r1, #1224736768
 1982 01c4 0060A0E1 		mov	r6, r0
 1983 01c8 240184E5 		str	r0, [r4, #292]
 1984 01cc 540194E5 		ldr	r0, [r4, #340]	@ float
 1985 01d0 FEFFFFEB 		bl	__aeabi_fmul
 1986 01d4 FEFFFFEB 		bl	__aeabi_f2iz
 1987 01d8 4914A0E3 		mov	r1, #1224736768
 1988 01dc 0070A0E1 		mov	r7, r0
 1989 01e0 280184E5 		str	r0, [r4, #296]
 1990 01e4 580194E5 		ldr	r0, [r4, #344]	@ float
 1991 01e8 FEFFFFEB 		bl	__aeabi_fmul
 1992 01ec FEFFFFEB 		bl	__aeabi_f2iz
 1993 01f0 C73F27E0 		eor	r3, r7, r7, asr #31
 1994 01f4 C73F43E0 		sub	r3, r3, r7, asr #31
 1995 01f8 025085E3 		orr	r5, r5, #2
 1996 01fc 013083E2 		add	r3, r3, #1
 1997 0200 000056E3 		cmp	r6, #0
 1998 0204 2C0184E5 		str	r0, [r4, #300]
 1999 0208 B85084E1 		strh	r5, [r4, r8]	@ movhi
 2000 020c 031086E0 		add	r1, r6, r3
 2001 0210 070000BA 		blt	.L234
 2002 0214 066063E0 		rsb	r6, r3, r6
 2003 0218 0607A0E1 		mov	r0, r6, asl #14
 2004 021c FEFFFFEB 		bl	__aeabi_idiv
 2005 0220 C93EA0E3 		mov	r3, #3216
 2006 0224 900303E0 		mul	r3, r0, r3
 2007 0228 4337A0E1 		mov	r3, r3, asr #14
 2008 022c C93E63E2 		rsb	r3, r3, #3216
 2009 0230 070000EA 		b	.L258
 2010              	.L234:
 2011 0234 0107A0E1 		mov	r0, r1, asl #14
 2012 0238 031066E0 		rsb	r1, r6, r3
 2013 023c FEFFFFEB 		bl	__aeabi_idiv
 2014 0240 C93EA0E3 		mov	r3, #3216
 2015 0244 900303E0 		mul	r3, r0, r3
 2016 0248 4337A0E1 		mov	r3, r3, asr #14
 2017 024c 963D63E2 		rsb	r3, r3, #9600
 2018 0250 303083E2 		add	r3, r3, #48
 2019              	.L258:
 2020 0254 403184E5 		str	r3, [r4, #320]
 2021 0258 60319FE5 		ldr	r3, .L265
 2022 025c 000057E3 		cmp	r7, #0
 2023 0260 402193B5 		ldrlt	r2, [r3, #320]
 2024 0264 002062B2 		rsblt	r2, r2, #0
 2025 0268 402183B5 		strlt	r2, [r3, #320]
 2026 026c 403193E5 		ldr	r3, [r3, #320]
 2027 0270 010000EA 		b	.L237
 2028              	.L238:
 2029 0274 193B83E2 		add	r3, r3, #25600
 2030 0278 873083E2 		add	r3, r3, #135
 2031              	.L237:
 2032 027c 000053E3 		cmp	r3, #0
 2033 0280 FBFFFFBA 		blt	.L238
 2034 0284 020000EA 		b	.L263
 2035              	.L240:
 2036 0288 193B43E2 		sub	r3, r3, #25600
 2037 028c 873043E2 		sub	r3, r3, #135
 2038 0290 000000EA 		b	.L253
 2039              	.L263:
 2040 0294 28219FE5 		ldr	r2, .L265+4
 2041              	.L253:
 2042 0298 020053E1 		cmp	r3, r2
 2043 029c F9FFFFCA 		bgt	.L240
 2044 02a0 3D0000EA 		b	.L260
 2045              	.L233:
 2046 02a4 800015E3 		tst	r5, #128
 2047 02a8 3D00000A 		beq	.L216
 2048 02ac 4914A0E3 		mov	r1, #1224736768
 2049 02b0 5C0194E5 		ldr	r0, [r4, #348]	@ float
 2050 02b4 FEFFFFEB 		bl	__aeabi_fmul
 2051 02b8 FEFFFFEB 		bl	__aeabi_f2iz
 2052 02bc 4914A0E3 		mov	r1, #1224736768
 2053 02c0 0070A0E1 		mov	r7, r0
 2054 02c4 300184E5 		str	r0, [r4, #304]
 2055 02c8 600194E5 		ldr	r0, [r4, #352]	@ float
 2056 02cc FEFFFFEB 		bl	__aeabi_fmul
 2057 02d0 FEFFFFEB 		bl	__aeabi_f2iz
 2058 02d4 4914A0E3 		mov	r1, #1224736768
 2059 02d8 0060A0E1 		mov	r6, r0
 2060 02dc 340184E5 		str	r0, [r4, #308]
 2061 02e0 640194E5 		ldr	r0, [r4, #356]	@ float
 2062 02e4 FEFFFFEB 		bl	__aeabi_fmul
 2063 02e8 FEFFFFEB 		bl	__aeabi_f2iz
 2064 02ec C73F27E0 		eor	r3, r7, r7, asr #31
 2065 02f0 C73F43E0 		sub	r3, r3, r7, asr #31
 2066 02f4 045085E3 		orr	r5, r5, #4
 2067 02f8 013083E2 		add	r3, r3, #1
 2068 02fc 000056E3 		cmp	r6, #0
 2069 0300 380184E5 		str	r0, [r4, #312]
 2070 0304 B85084E1 		strh	r5, [r4, r8]	@ movhi
 2071 0308 031086E0 		add	r1, r6, r3
 2072 030c 070000BA 		blt	.L241
 2073 0310 066063E0 		rsb	r6, r3, r6
 2074 0314 0607A0E1 		mov	r0, r6, asl #14
 2075 0318 FEFFFFEB 		bl	__aeabi_idiv
 2076 031c C93EA0E3 		mov	r3, #3216
 2077 0320 900303E0 		mul	r3, r0, r3
 2078 0324 4337A0E1 		mov	r3, r3, asr #14
 2079 0328 C93E63E2 		rsb	r3, r3, #3216
 2080 032c 070000EA 		b	.L259
 2081              	.L241:
 2082 0330 0107A0E1 		mov	r0, r1, asl #14
 2083 0334 031066E0 		rsb	r1, r6, r3
 2084 0338 FEFFFFEB 		bl	__aeabi_idiv
 2085 033c C93EA0E3 		mov	r3, #3216
 2086 0340 900303E0 		mul	r3, r0, r3
 2087 0344 4337A0E1 		mov	r3, r3, asr #14
 2088 0348 963D63E2 		rsb	r3, r3, #9600
 2089 034c 303083E2 		add	r3, r3, #48
 2090              	.L259:
 2091 0350 403184E5 		str	r3, [r4, #320]
 2092 0354 64309FE5 		ldr	r3, .L265
 2093 0358 000057E3 		cmp	r7, #0
 2094 035c 402193B5 		ldrlt	r2, [r3, #320]
 2095 0360 002062B2 		rsblt	r2, r2, #0
 2096 0364 402183B5 		strlt	r2, [r3, #320]
 2097 0368 403193E5 		ldr	r3, [r3, #320]
 2098 036c 010000EA 		b	.L244
 2099              	.L245:
 2100 0370 193B83E2 		add	r3, r3, #25600
 2101 0374 873083E2 		add	r3, r3, #135
 2102              	.L244:
 2103 0378 000053E3 		cmp	r3, #0
 2104 037c FBFFFFBA 		blt	.L245
 2105 0380 020000EA 		b	.L264
 2106              	.L247:
 2107 0384 193B43E2 		sub	r3, r3, #25600
 2108 0388 873043E2 		sub	r3, r3, #135
 2109 038c 000000EA 		b	.L255
 2110              	.L264:
 2111 0390 2C209FE5 		ldr	r2, .L265+4
 2112              	.L255:
 2113 0394 020053E1 		cmp	r3, r2
 2114 0398 F9FFFFCA 		bgt	.L247
 2115              	.L260:
 2116 039c 1C209FE5 		ldr	r2, .L265
 2117 03a0 403182E5 		str	r3, [r2, #320]
 2118              	.L216:
 2119 03a4 14209FE5 		ldr	r2, .L265
 2120 03a8 453FA0E3 		mov	r3, #276
 2121 03ac B31092E1 		ldrh	r1, [r2, r3]
 2122 03b0 101081E3 		orr	r1, r1, #16
 2123 03b4 B31082E1 		strh	r1, [r2, r3]	@ movhi
 2124              	.L213:
 2125 03b8 F041BDE8 		ldmfd	sp!, {r4, r5, r6, r7, r8, lr}
 2126 03bc 1EFF2FE1 		bx	lr
 2127              	.L266:
 2128              		.align	2
 2129              	.L265:
 2130 03c0 00000000 		.word	state
 2131 03c4 86640000 		.word	25734
 2133              		.section	.text.stateCalcSpeedNed_f,"ax",%progbits
 2134              		.align	2
 2135              		.global	stateCalcSpeedNed_f
 2137              	stateCalcSpeedNed_f:
 2138              		@ Function supports interworking.
 2139              		@ args = 0, pretend = 0, frame = 0
 2140              		@ frame_needed = 0, uses_anonymous_args = 0
 2141 0000 F0412DE9 		stmfd	sp!, {r4, r5, r6, r7, r8, lr}
 2142 0004 90419FE5 		ldr	r4, .L282
 2143 0008 456FA0E3 		mov	r6, #276
 2144 000c B65094E1 		ldrh	r5, [r4, r6]
 2145 0010 400015E3 		tst	r5, #64
 2146 0014 5E00001A 		bne	.L267
 2147 0018 E430D4E5 		ldrb	r3, [r4, #228]	@ zero_extendqisi2
 2148 001c 000053E3 		cmp	r3, #0
 2149 0020 1F00000A 		beq	.L269
 2150 0024 020015E3 		tst	r5, #2
 2151 0028 2200001A 		bne	.L280
 2152              	.L270:
 2153 002c 800015E3 		tst	r5, #128
 2154 0030 3100001A 		bne	.L278
 2155              	.L272:
 2156 0034 040015E3 		tst	r5, #4
 2157 0038 3900001A 		bne	.L281
 2158              	.L273:
 2159 003c 200015E3 		tst	r5, #32
 2160 0040 1200001A 		bne	.L279
 2161              	.L274:
 2162 0044 010015E3 		tst	r5, #1
 2163 0048 4C00000A 		beq	.L271
 2164 004c 180194E5 		ldr	r0, [r4, #280]
 2165 0050 FEFFFFEB 		bl	__aeabi_i2f
 2166 0054 3614A0E3 		mov	r1, #905969664
 2167 0058 FEFFFFEB 		bl	__aeabi_fmul
 2168 005c 440184E5 		str	r0, [r4, #324]	@ float
 2169 0060 1C0194E5 		ldr	r0, [r4, #284]
 2170 0064 FEFFFFEB 		bl	__aeabi_i2f
 2171 0068 3614A0E3 		mov	r1, #905969664
 2172 006c FEFFFFEB 		bl	__aeabi_fmul
 2173 0070 480184E5 		str	r0, [r4, #328]	@ float
 2174 0074 200194E5 		ldr	r0, [r4, #288]
 2175 0078 FEFFFFEB 		bl	__aeabi_i2f
 2176 007c 3614A0E3 		mov	r1, #905969664
 2177 0080 FEFFFFEB 		bl	__aeabi_fmul
 2178 0084 205085E3 		orr	r5, r5, #32
 2179 0088 4C0184E5 		str	r0, [r4, #332]	@ float
 2180 008c B65084E1 		strh	r5, [r4, r6]	@ movhi
 2181              	.L279:
 2182 0090 150E84E2 		add	r0, r4, #336
 2183 0094 A41084E2 		add	r1, r4, #164
 2184 0098 512F84E2 		add	r2, r4, #324
 2185 009c FEFFFFEB 		bl	ned_of_ecef_vect_f
 2186 00a0 360000EA 		b	.L271
 2187              	.L269:
 2188 00a4 F830D4E5 		ldrb	r3, [r4, #248]	@ zero_extendqisi2
 2189 00a8 000053E3 		cmp	r3, #0
 2190 00ac 3300000A 		beq	.L271
 2191 00b0 020015E3 		tst	r5, #2
 2192 00b4 0E00000A 		beq	.L275
 2193              	.L280:
 2194 00b8 240194E5 		ldr	r0, [r4, #292]
 2195 00bc FEFFFFEB 		bl	__aeabi_i2f
 2196 00c0 3614A0E3 		mov	r1, #905969664
 2197 00c4 FEFFFFEB 		bl	__aeabi_fmul
 2198 00c8 500184E5 		str	r0, [r4, #336]	@ float
 2199 00cc 280194E5 		ldr	r0, [r4, #296]
 2200 00d0 FEFFFFEB 		bl	__aeabi_i2f
 2201 00d4 3614A0E3 		mov	r1, #905969664
 2202 00d8 FEFFFFEB 		bl	__aeabi_fmul
 2203 00dc 540184E5 		str	r0, [r4, #340]	@ float
 2204 00e0 2C0194E5 		ldr	r0, [r4, #300]
 2205 00e4 FEFFFFEB 		bl	__aeabi_i2f
 2206 00e8 3614A0E3 		mov	r1, #905969664
 2207 00ec FEFFFFEB 		bl	__aeabi_fmul
 2208 00f0 210000EA 		b	.L277
 2209              	.L275:
 2210 00f4 800015E3 		tst	r5, #128
 2211 00f8 0700000A 		beq	.L276
 2212              	.L278:
 2213 00fc 603194E5 		ldr	r3, [r4, #352]	@ float
 2214 0100 503184E5 		str	r3, [r4, #336]	@ float
 2215 0104 5C3194E5 		ldr	r3, [r4, #348]	@ float
 2216 0108 543184E5 		str	r3, [r4, #340]	@ float
 2217 010c 643194E5 		ldr	r3, [r4, #356]
 2218 0110 023183E2 		add	r3, r3, #-2147483648
 2219 0114 583184E5 		str	r3, [r4, #344]	@ float
 2220 0118 180000EA 		b	.L271
 2221              	.L276:
 2222 011c 040015E3 		tst	r5, #4
 2223 0120 1600000A 		beq	.L271
 2224              	.L281:
 2225 0124 300194E5 		ldr	r0, [r4, #304]
 2226 0128 FEFFFFEB 		bl	__aeabi_i2f
 2227 012c 3614A0E3 		mov	r1, #905969664
 2228 0130 FEFFFFEB 		bl	__aeabi_fmul
 2229 0134 0070A0E1 		mov	r7, r0
 2230 0138 5C0184E5 		str	r0, [r4, #348]	@ float
 2231 013c 340194E5 		ldr	r0, [r4, #308]
 2232 0140 FEFFFFEB 		bl	__aeabi_i2f
 2233 0144 3614A0E3 		mov	r1, #905969664
 2234 0148 FEFFFFEB 		bl	__aeabi_fmul
 2235 014c 0080A0E1 		mov	r8, r0
 2236 0150 600184E5 		str	r0, [r4, #352]	@ float
 2237 0154 380194E5 		ldr	r0, [r4, #312]
 2238 0158 FEFFFFEB 		bl	__aeabi_i2f
 2239 015c 3614A0E3 		mov	r1, #905969664
 2240 0160 FEFFFFEB 		bl	__aeabi_fmul
 2241 0164 805085E3 		orr	r5, r5, #128
 2242 0168 B65084E1 		strh	r5, [r4, r6]	@ movhi
 2243 016c 508184E5 		str	r8, [r4, #336]	@ float
 2244 0170 547184E5 		str	r7, [r4, #340]	@ float
 2245 0174 640184E5 		str	r0, [r4, #356]	@ float
 2246 0178 020180E2 		add	r0, r0, #-2147483648
 2247              	.L277:
 2248 017c 580184E5 		str	r0, [r4, #344]	@ float
 2249              	.L271:
 2250 0180 14209FE5 		ldr	r2, .L282
 2251 0184 453FA0E3 		mov	r3, #276
 2252 0188 B31092E1 		ldrh	r1, [r2, r3]
 2253 018c 401081E3 		orr	r1, r1, #64
 2254 0190 B31082E1 		strh	r1, [r2, r3]	@ movhi
 2255              	.L267:
 2256 0194 F041BDE8 		ldmfd	sp!, {r4, r5, r6, r7, r8, lr}
 2257 0198 1EFF2FE1 		bx	lr
 2258              	.L283:
 2259              		.align	2
 2260              	.L282:
 2261 019c 00000000 		.word	state
 2263              		.section	.text.stateCalcSpeedEnu_f,"ax",%progbits
 2264              		.align	2
 2265              		.global	stateCalcSpeedEnu_f
 2267              	stateCalcSpeedEnu_f:
 2268              		@ Function supports interworking.
 2269              		@ args = 0, pretend = 0, frame = 0
 2270              		@ frame_needed = 0, uses_anonymous_args = 0
 2271 0000 70402DE9 		stmfd	sp!, {r4, r5, r6, lr}
 2272 0004 94419FE5 		ldr	r4, .L299
 2273 0008 456FA0E3 		mov	r6, #276
 2274 000c B65094E1 		ldrh	r5, [r4, r6]
 2275 0010 800015E3 		tst	r5, #128
 2276 0014 5F00001A 		bne	.L284
 2277 0018 E430D4E5 		ldrb	r3, [r4, #228]	@ zero_extendqisi2
 2278 001c 000053E3 		cmp	r3, #0
 2279 0020 1F00000A 		beq	.L286
 2280 0024 400015E3 		tst	r5, #64
 2281 0028 2200001A 		bne	.L294
 2282              	.L287:
 2283 002c 040015E3 		tst	r5, #4
 2284 0030 2A00001A 		bne	.L297
 2285              	.L289:
 2286 0034 020015E3 		tst	r5, #2
 2287 0038 3900001A 		bne	.L298
 2288              	.L290:
 2289 003c 200015E3 		tst	r5, #32
 2290 0040 1200001A 		bne	.L296
 2291              	.L291:
 2292 0044 010015E3 		tst	r5, #1
 2293 0048 4D00000A 		beq	.L288
 2294 004c 180194E5 		ldr	r0, [r4, #280]
 2295 0050 FEFFFFEB 		bl	__aeabi_i2f
 2296 0054 3614A0E3 		mov	r1, #905969664
 2297 0058 FEFFFFEB 		bl	__aeabi_fmul
 2298 005c 440184E5 		str	r0, [r4, #324]	@ float
 2299 0060 1C0194E5 		ldr	r0, [r4, #284]
 2300 0064 FEFFFFEB 		bl	__aeabi_i2f
 2301 0068 3614A0E3 		mov	r1, #905969664
 2302 006c FEFFFFEB 		bl	__aeabi_fmul
 2303 0070 480184E5 		str	r0, [r4, #328]	@ float
 2304 0074 200194E5 		ldr	r0, [r4, #288]
 2305 0078 FEFFFFEB 		bl	__aeabi_i2f
 2306 007c 3614A0E3 		mov	r1, #905969664
 2307 0080 FEFFFFEB 		bl	__aeabi_fmul
 2308 0084 205085E3 		orr	r5, r5, #32
 2309 0088 4C0184E5 		str	r0, [r4, #332]	@ float
 2310 008c B65084E1 		strh	r5, [r4, r6]	@ movhi
 2311              	.L296:
 2312 0090 570F84E2 		add	r0, r4, #348
 2313 0094 A41084E2 		add	r1, r4, #164
 2314 0098 512F84E2 		add	r2, r4, #324
 2315 009c FEFFFFEB 		bl	enu_of_ecef_vect_f
 2316 00a0 370000EA 		b	.L288
 2317              	.L286:
 2318 00a4 F830D4E5 		ldrb	r3, [r4, #248]	@ zero_extendqisi2
 2319 00a8 000053E3 		cmp	r3, #0
 2320 00ac 3400000A 		beq	.L288
 2321 00b0 400015E3 		tst	r5, #64
 2322 00b4 0700000A 		beq	.L292
 2323              	.L294:
 2324 00b8 543194E5 		ldr	r3, [r4, #340]	@ float
 2325 00bc 5C3184E5 		str	r3, [r4, #348]	@ float
 2326 00c0 503194E5 		ldr	r3, [r4, #336]	@ float
 2327 00c4 603184E5 		str	r3, [r4, #352]	@ float
 2328 00c8 583194E5 		ldr	r3, [r4, #344]
 2329 00cc 023183E2 		add	r3, r3, #-2147483648
 2330 00d0 643184E5 		str	r3, [r4, #356]	@ float
 2331 00d4 2A0000EA 		b	.L288
 2332              	.L292:
 2333 00d8 040015E3 		tst	r5, #4
 2334 00dc 0E00000A 		beq	.L293
 2335              	.L297:
 2336 00e0 300194E5 		ldr	r0, [r4, #304]
 2337 00e4 FEFFFFEB 		bl	__aeabi_i2f
 2338 00e8 EE15A0E3 		mov	r1, #998244352
 2339 00ec FEFFFFEB 		bl	__aeabi_fmul
 2340 00f0 5C0184E5 		str	r0, [r4, #348]	@ float
 2341 00f4 340194E5 		ldr	r0, [r4, #308]
 2342 00f8 FEFFFFEB 		bl	__aeabi_i2f
 2343 00fc EE15A0E3 		mov	r1, #998244352
 2344 0100 FEFFFFEB 		bl	__aeabi_fmul
 2345 0104 600184E5 		str	r0, [r4, #352]	@ float
 2346 0108 380194E5 		ldr	r0, [r4, #312]
 2347 010c FEFFFFEB 		bl	__aeabi_i2f
 2348 0110 EE15A0E3 		mov	r1, #998244352
 2349 0114 FEFFFFEB 		bl	__aeabi_fmul
 2350 0118 180000EA 		b	.L295
 2351              	.L293:
 2352 011c 020015E3 		tst	r5, #2
 2353 0120 1700000A 		beq	.L288
 2354              	.L298:
 2355 0124 240194E5 		ldr	r0, [r4, #292]
 2356 0128 FEFFFFEB 		bl	__aeabi_i2f
 2357 012c 3614A0E3 		mov	r1, #905969664
 2358 0130 FEFFFFEB 		bl	__aeabi_fmul
 2359 0134 0050A0E1 		mov	r5, r0
 2360 0138 500184E5 		str	r0, [r4, #336]	@ float
 2361 013c 280194E5 		ldr	r0, [r4, #296]
 2362 0140 FEFFFFEB 		bl	__aeabi_i2f
 2363 0144 3614A0E3 		mov	r1, #905969664
 2364 0148 FEFFFFEB 		bl	__aeabi_fmul
 2365 014c 0060A0E1 		mov	r6, r0
 2366 0150 540184E5 		str	r0, [r4, #340]	@ float
 2367 0154 2C0194E5 		ldr	r0, [r4, #300]
 2368 0158 FEFFFFEB 		bl	__aeabi_i2f
 2369 015c 3614A0E3 		mov	r1, #905969664
 2370 0160 FEFFFFEB 		bl	__aeabi_fmul
 2371 0164 B030D4E1 		ldrh	r3, [r4, #0]
 2372 0168 403083E3 		orr	r3, r3, #64
 2373 016c B030C4E1 		strh	r3, [r4, #0]	@ movhi
 2374 0170 5C6184E5 		str	r6, [r4, #348]	@ float
 2375 0174 605184E5 		str	r5, [r4, #352]	@ float
 2376 0178 580184E5 		str	r0, [r4, #344]	@ float
 2377 017c 020180E2 		add	r0, r0, #-2147483648
 2378              	.L295:
 2379 0180 640184E5 		str	r0, [r4, #356]	@ float
 2380              	.L288:
 2381 0184 14209FE5 		ldr	r2, .L299
 2382 0188 453FA0E3 		mov	r3, #276
 2383 018c B31092E1 		ldrh	r1, [r2, r3]
 2384 0190 801081E3 		orr	r1, r1, #128
 2385 0194 B31082E1 		strh	r1, [r2, r3]	@ movhi
 2386              	.L284:
 2387 0198 7040BDE8 		ldmfd	sp!, {r4, r5, r6, lr}
 2388 019c 1EFF2FE1 		bx	lr
 2389              	.L300:
 2390              		.align	2
 2391              	.L299:
 2392 01a0 00000000 		.word	state
 2394              		.section	.text.stateCalcSpeedEcef_f,"ax",%progbits
 2395              		.align	2
 2396              		.global	stateCalcSpeedEcef_f
 2398              	stateCalcSpeedEcef_f:
 2399              		@ Function supports interworking.
 2400              		@ args = 0, pretend = 0, frame = 0
 2401              		@ frame_needed = 0, uses_anonymous_args = 0
 2402 0000 70402DE9 		stmfd	sp!, {r4, r5, r6, lr}
 2403 0004 D4409FE5 		ldr	r4, .L307
 2404 0008 456FA0E3 		mov	r6, #276
 2405 000c B65094E1 		ldrh	r5, [r4, r6]
 2406 0010 200015E3 		tst	r5, #32
 2407 0014 2F00001A 		bne	.L301
 2408 0018 010015E3 		tst	r5, #1
 2409 001c 0F00000A 		beq	.L303
 2410 0020 240194E5 		ldr	r0, [r4, #292]
 2411 0024 FEFFFFEB 		bl	__aeabi_i2f
 2412 0028 3614A0E3 		mov	r1, #905969664
 2413 002c FEFFFFEB 		bl	__aeabi_fmul
 2414 0030 440184E5 		str	r0, [r4, #324]	@ float
 2415 0034 280194E5 		ldr	r0, [r4, #296]
 2416 0038 FEFFFFEB 		bl	__aeabi_i2f
 2417 003c 3614A0E3 		mov	r1, #905969664
 2418 0040 FEFFFFEB 		bl	__aeabi_fmul
 2419 0044 480184E5 		str	r0, [r4, #328]	@ float
 2420 0048 2C0194E5 		ldr	r0, [r4, #300]
 2421 004c FEFFFFEB 		bl	__aeabi_i2f
 2422 0050 3614A0E3 		mov	r1, #905969664
 2423 0054 FEFFFFEB 		bl	__aeabi_fmul
 2424 0058 4C0184E5 		str	r0, [r4, #332]	@ float
 2425 005c 180000EA 		b	.L304
 2426              	.L303:
 2427 0060 400015E3 		tst	r5, #64
 2428 0064 1200001A 		bne	.L306
 2429              	.L305:
 2430 0068 020015E3 		tst	r5, #2
 2431 006c 1400000A 		beq	.L304
 2432 0070 240194E5 		ldr	r0, [r4, #292]
 2433 0074 FEFFFFEB 		bl	__aeabi_i2f
 2434 0078 3614A0E3 		mov	r1, #905969664
 2435 007c FEFFFFEB 		bl	__aeabi_fmul
 2436 0080 500184E5 		str	r0, [r4, #336]	@ float
 2437 0084 280194E5 		ldr	r0, [r4, #296]
 2438 0088 FEFFFFEB 		bl	__aeabi_i2f
 2439 008c 3614A0E3 		mov	r1, #905969664
 2440 0090 FEFFFFEB 		bl	__aeabi_fmul
 2441 0094 540184E5 		str	r0, [r4, #340]	@ float
 2442 0098 2C0194E5 		ldr	r0, [r4, #300]
 2443 009c FEFFFFEB 		bl	__aeabi_i2f
 2444 00a0 3614A0E3 		mov	r1, #905969664
 2445 00a4 FEFFFFEB 		bl	__aeabi_fmul
 2446 00a8 405085E3 		orr	r5, r5, #64
 2447 00ac 580184E5 		str	r0, [r4, #344]	@ float
 2448 00b0 B65084E1 		strh	r5, [r4, r6]	@ movhi
 2449              	.L306:
 2450 00b4 510F84E2 		add	r0, r4, #324
 2451 00b8 A41084E2 		add	r1, r4, #164
 2452 00bc 152E84E2 		add	r2, r4, #336
 2453 00c0 FEFFFFEB 		bl	ecef_of_ned_vect_f
 2454              	.L304:
 2455 00c4 14209FE5 		ldr	r2, .L307
 2456 00c8 453FA0E3 		mov	r3, #276
 2457 00cc B31092E1 		ldrh	r1, [r2, r3]
 2458 00d0 201081E3 		orr	r1, r1, #32
 2459 00d4 B31082E1 		strh	r1, [r2, r3]	@ movhi
 2460              	.L301:
 2461 00d8 7040BDE8 		ldmfd	sp!, {r4, r5, r6, lr}
 2462 00dc 1EFF2FE1 		bx	lr
 2463              	.L308:
 2464              		.align	2
 2465              	.L307:
 2466 00e0 00000000 		.word	state
 2468              		.section	.text.stateCalcHorizontalSpeedNorm_f,"ax",%progbits
 2469              		.align	2
 2470              		.global	stateCalcHorizontalSpeedNorm_f
 2472              	stateCalcHorizontalSpeedNorm_f:
 2473              		@ Function supports interworking.
 2474              		@ args = 0, pretend = 0, frame = 0
 2475              		@ frame_needed = 0, uses_anonymous_args = 0
 2476 0000 F0412DE9 		stmfd	sp!, {r4, r5, r6, r7, r8, lr}
 2477 0004 50419FE5 		ldr	r4, .L320
 2478 0008 456FA0E3 		mov	r6, #276
 2479 000c B65094E1 		ldrh	r5, [r4, r6]
 2480 0010 010C15E3 		tst	r5, #256
 2481 0014 4E00001A 		bne	.L309
 2482 0018 080015E3 		tst	r5, #8
 2483 001c 0400000A 		beq	.L311
 2484 0020 3C0194E5 		ldr	r0, [r4, #316]
 2485 0024 FEFFFFEB 		bl	__aeabi_i2f
 2486 0028 3614A0E3 		mov	r1, #905969664
 2487 002c FEFFFFEB 		bl	__aeabi_fmul
 2488 0030 410000EA 		b	.L316
 2489              	.L311:
 2490 0034 400015E3 		tst	r5, #64
 2491 0038 50019415 		ldrne	r0, [r4, #336]	@ float
 2492 003c 54619415 		ldrne	r6, [r4, #340]	@ float
 2493 0040 0300001A 		bne	.L319
 2494 0044 800015E3 		tst	r5, #128
 2495 0048 0600000A 		beq	.L314
 2496 004c 5C0194E5 		ldr	r0, [r4, #348]	@ float
 2497 0050 606194E5 		ldr	r6, [r4, #352]	@ float
 2498              	.L319:
 2499 0054 0010A0E1 		mov	r1, r0
 2500 0058 FEFFFFEB 		bl	__aeabi_fmul
 2501 005c 0050A0E1 		mov	r5, r0
 2502 0060 0600A0E1 		mov	r0, r6
 2503 0064 2E0000EA 		b	.L318
 2504              	.L314:
 2505 0068 020015E3 		tst	r5, #2
 2506 006c 1200000A 		beq	.L315
 2507 0070 240194E5 		ldr	r0, [r4, #292]
 2508 0074 FEFFFFEB 		bl	__aeabi_i2f
 2509 0078 3614A0E3 		mov	r1, #905969664
 2510 007c FEFFFFEB 		bl	__aeabi_fmul
 2511 0080 500184E5 		str	r0, [r4, #336]	@ float
 2512 0084 0080A0E1 		mov	r8, r0
 2513 0088 280194E5 		ldr	r0, [r4, #296]
 2514 008c FEFFFFEB 		bl	__aeabi_i2f
 2515 0090 3614A0E3 		mov	r1, #905969664
 2516 0094 FEFFFFEB 		bl	__aeabi_fmul
 2517 0098 540184E5 		str	r0, [r4, #340]	@ float
 2518 009c 0070A0E1 		mov	r7, r0
 2519 00a0 2C0194E5 		ldr	r0, [r4, #300]
 2520 00a4 FEFFFFEB 		bl	__aeabi_i2f
 2521 00a8 3614A0E3 		mov	r1, #905969664
 2522 00ac FEFFFFEB 		bl	__aeabi_fmul
 2523 00b0 405085E3 		orr	r5, r5, #64
 2524 00b4 580184E5 		str	r0, [r4, #344]	@ float
 2525 00b8 130000EA 		b	.L317
 2526              	.L315:
 2527 00bc 040015E3 		tst	r5, #4
 2528 00c0 1E00000A 		beq	.L312
 2529 00c4 300194E5 		ldr	r0, [r4, #304]
 2530 00c8 FEFFFFEB 		bl	__aeabi_i2f
 2531 00cc 3614A0E3 		mov	r1, #905969664
 2532 00d0 FEFFFFEB 		bl	__aeabi_fmul
 2533 00d4 5C0184E5 		str	r0, [r4, #348]	@ float
 2534 00d8 0080A0E1 		mov	r8, r0
 2535 00dc 340194E5 		ldr	r0, [r4, #308]
 2536 00e0 FEFFFFEB 		bl	__aeabi_i2f
 2537 00e4 3614A0E3 		mov	r1, #905969664
 2538 00e8 FEFFFFEB 		bl	__aeabi_fmul
 2539 00ec 600184E5 		str	r0, [r4, #352]	@ float
 2540 00f0 0070A0E1 		mov	r7, r0
 2541 00f4 380194E5 		ldr	r0, [r4, #312]
 2542 00f8 FEFFFFEB 		bl	__aeabi_i2f
 2543 00fc 3614A0E3 		mov	r1, #905969664
 2544 0100 FEFFFFEB 		bl	__aeabi_fmul
 2545 0104 640184E5 		str	r0, [r4, #356]	@ float
 2546 0108 805085E3 		orr	r5, r5, #128
 2547              	.L317:
 2548 010c 0800A0E1 		mov	r0, r8
 2549 0110 0810A0E1 		mov	r1, r8
 2550 0114 B65084E1 		strh	r5, [r4, r6]	@ movhi
 2551 0118 FEFFFFEB 		bl	__aeabi_fmul
 2552 011c 0050A0E1 		mov	r5, r0
 2553 0120 0700A0E1 		mov	r0, r7
 2554              	.L318:
 2555 0124 0010A0E1 		mov	r1, r0
 2556 0128 FEFFFFEB 		bl	__aeabi_fmul
 2557 012c 0010A0E1 		mov	r1, r0
 2558 0130 0500A0E1 		mov	r0, r5
 2559 0134 FEFFFFEB 		bl	__aeabi_fadd
 2560 0138 FEFFFFEB 		bl	sqrtf
 2561              	.L316:
 2562 013c 680184E5 		str	r0, [r4, #360]	@ float
 2563              	.L312:
 2564 0140 14209FE5 		ldr	r2, .L320
 2565 0144 453FA0E3 		mov	r3, #276
 2566 0148 B31092E1 		ldrh	r1, [r2, r3]
 2567 014c 011C81E3 		orr	r1, r1, #256
 2568 0150 B31082E1 		strh	r1, [r2, r3]	@ movhi
 2569              	.L309:
 2570 0154 F041BDE8 		ldmfd	sp!, {r4, r5, r6, r7, r8, lr}
 2571 0158 1EFF2FE1 		bx	lr
 2572              	.L321:
 2573              		.align	2
 2574              	.L320:
 2575 015c 00000000 		.word	state
 2577              		.section	.text.stateCalcHorizontalSpeedDir_f,"ax",%progbits
 2578              		.align	2
 2579              		.global	stateCalcHorizontalSpeedDir_f
 2581              	stateCalcHorizontalSpeedDir_f:
 2582              		@ Function supports interworking.
 2583              		@ args = 0, pretend = 0, frame = 0
 2584              		@ frame_needed = 0, uses_anonymous_args = 0
 2585 0000 F0412DE9 		stmfd	sp!, {r4, r5, r6, r7, r8, lr}
 2586 0004 1C419FE5 		ldr	r4, .L332
 2587 0008 456FA0E3 		mov	r6, #276
 2588 000c B65094E1 		ldrh	r5, [r4, r6]
 2589 0010 020C15E3 		tst	r5, #512
 2590 0014 4100001A 		bne	.L322
 2591 0018 100015E3 		tst	r5, #16
 2592 001c 0400000A 		beq	.L324
 2593 0020 400194E5 		ldr	r0, [r4, #320]
 2594 0024 FEFFFFEB 		bl	__aeabi_i2f
 2595 0028 3614A0E3 		mov	r1, #905969664
 2596 002c FEFFFFEB 		bl	__aeabi_fmul
 2597 0030 340000EA 		b	.L329
 2598              	.L324:
 2599 0034 400015E3 		tst	r5, #64
 2600 0038 54019415 		ldrne	r0, [r4, #340]	@ float
 2601 003c 50119415 		ldrne	r1, [r4, #336]	@ float
 2602 0040 2F00001A 		bne	.L331
 2603 0044 800015E3 		tst	r5, #128
 2604 0048 5C019415 		ldrne	r0, [r4, #348]	@ float
 2605 004c 60119415 		ldrne	r1, [r4, #352]	@ float
 2606 0050 2B00001A 		bne	.L331
 2607 0054 020015E3 		tst	r5, #2
 2608 0058 1200000A 		beq	.L328
 2609 005c 240194E5 		ldr	r0, [r4, #292]
 2610 0060 FEFFFFEB 		bl	__aeabi_i2f
 2611 0064 3614A0E3 		mov	r1, #905969664
 2612 0068 FEFFFFEB 		bl	__aeabi_fmul
 2613 006c 500184E5 		str	r0, [r4, #336]	@ float
 2614 0070 0070A0E1 		mov	r7, r0
 2615 0074 280194E5 		ldr	r0, [r4, #296]
 2616 0078 FEFFFFEB 		bl	__aeabi_i2f
 2617 007c 3614A0E3 		mov	r1, #905969664
 2618 0080 FEFFFFEB 		bl	__aeabi_fmul
 2619 0084 540184E5 		str	r0, [r4, #340]	@ float
 2620 0088 0080A0E1 		mov	r8, r0
 2621 008c 2C0194E5 		ldr	r0, [r4, #300]
 2622 0090 FEFFFFEB 		bl	__aeabi_i2f
 2623 0094 3614A0E3 		mov	r1, #905969664
 2624 0098 FEFFFFEB 		bl	__aeabi_fmul
 2625 009c 405085E3 		orr	r5, r5, #64
 2626 00a0 580184E5 		str	r0, [r4, #344]	@ float
 2627 00a4 130000EA 		b	.L330
 2628              	.L328:
 2629 00a8 040015E3 		tst	r5, #4
 2630 00ac 1600000A 		beq	.L325
 2631 00b0 300194E5 		ldr	r0, [r4, #304]
 2632 00b4 FEFFFFEB 		bl	__aeabi_i2f
 2633 00b8 3614A0E3 		mov	r1, #905969664
 2634 00bc FEFFFFEB 		bl	__aeabi_fmul
 2635 00c0 5C0184E5 		str	r0, [r4, #348]	@ float
 2636 00c4 0080A0E1 		mov	r8, r0
 2637 00c8 340194E5 		ldr	r0, [r4, #308]
 2638 00cc FEFFFFEB 		bl	__aeabi_i2f
 2639 00d0 3614A0E3 		mov	r1, #905969664
 2640 00d4 FEFFFFEB 		bl	__aeabi_fmul
 2641 00d8 600184E5 		str	r0, [r4, #352]	@ float
 2642 00dc 0070A0E1 		mov	r7, r0
 2643 00e0 380194E5 		ldr	r0, [r4, #312]
 2644 00e4 FEFFFFEB 		bl	__aeabi_i2f
 2645 00e8 3614A0E3 		mov	r1, #905969664
 2646 00ec FEFFFFEB 		bl	__aeabi_fmul
 2647 00f0 640184E5 		str	r0, [r4, #356]	@ float
 2648 00f4 805085E3 		orr	r5, r5, #128
 2649              	.L330:
 2650 00f8 B65084E1 		strh	r5, [r4, r6]	@ movhi
 2651 00fc 0800A0E1 		mov	r0, r8
 2652 0100 0710A0E1 		mov	r1, r7
 2653              	.L331:
 2654 0104 FEFFFFEB 		bl	atan2f
 2655              	.L329:
 2656 0108 6C0184E5 		str	r0, [r4, #364]	@ float
 2657              	.L325:
 2658 010c 14209FE5 		ldr	r2, .L332
 2659 0110 453FA0E3 		mov	r3, #276
 2660 0114 B31092E1 		ldrh	r1, [r2, r3]
 2661 0118 021C81E3 		orr	r1, r1, #512
 2662 011c B31082E1 		strh	r1, [r2, r3]	@ movhi
 2663              	.L322:
 2664 0120 F041BDE8 		ldmfd	sp!, {r4, r5, r6, r7, r8, lr}
 2665 0124 1EFF2FE1 		bx	lr
 2666              	.L333:
 2667              		.align	2
 2668              	.L332:
 2669 0128 00000000 		.word	state
 2671              		.section	.text.stateCalcAccelNed_i,"ax",%progbits
 2672              		.align	2
 2673              		.global	stateCalcAccelNed_i
 2675              	stateCalcAccelNed_i:
 2676              		@ Function supports interworking.
 2677              		@ args = 0, pretend = 0, frame = 0
 2678              		@ frame_needed = 0, uses_anonymous_args = 0
 2679 0000 38402DE9 		stmfd	sp!, {r3, r4, r5, lr}
 2680 0004 D8409FE5 		ldr	r4, .L340
 2681 0008 7051D4E5 		ldrb	r5, [r4, #368]	@ zero_extendqisi2
 2682 000c 020015E3 		tst	r5, #2
 2683 0010 3100001A 		bne	.L334
 2684 0014 5C30D4E5 		ldrb	r3, [r4, #92]	@ zero_extendqisi2
 2685 0018 000053E3 		cmp	r3, #0
 2686 001c 2A00000A 		beq	.L336
 2687 0020 080015E3 		tst	r5, #8
 2688 0024 0F00000A 		beq	.L337
 2689 0028 B8109FE5 		ldr	r1, .L340+4
 2690 002c 8C0194E5 		ldr	r0, [r4, #396]	@ float
 2691 0030 FEFFFFEB 		bl	__aeabi_fmul
 2692 0034 FEFFFFEB 		bl	__aeabi_f2iz
 2693 0038 A8109FE5 		ldr	r1, .L340+4
 2694 003c 740184E5 		str	r0, [r4, #372]
 2695 0040 900194E5 		ldr	r0, [r4, #400]	@ float
 2696 0044 FEFFFFEB 		bl	__aeabi_fmul
 2697 0048 FEFFFFEB 		bl	__aeabi_f2iz
 2698 004c 94109FE5 		ldr	r1, .L340+4
 2699 0050 780184E5 		str	r0, [r4, #376]
 2700 0054 940194E5 		ldr	r0, [r4, #404]	@ float
 2701 0058 FEFFFFEB 		bl	__aeabi_fmul
 2702 005c FEFFFFEB 		bl	__aeabi_f2iz
 2703 0060 7C0184E5 		str	r0, [r4, #380]
 2704 0064 180000EA 		b	.L336
 2705              	.L337:
 2706 0068 010015E3 		tst	r5, #1
 2707 006c 1200001A 		bne	.L339
 2708              	.L338:
 2709 0070 040015E3 		tst	r5, #4
 2710 0074 1400000A 		beq	.L336
 2711 0078 68109FE5 		ldr	r1, .L340+4
 2712 007c 980194E5 		ldr	r0, [r4, #408]	@ float
 2713 0080 FEFFFFEB 		bl	__aeabi_fmul
 2714 0084 FEFFFFEB 		bl	__aeabi_f2iz
 2715 0088 58109FE5 		ldr	r1, .L340+4
 2716 008c 800184E5 		str	r0, [r4, #384]
 2717 0090 9C0194E5 		ldr	r0, [r4, #412]	@ float
 2718 0094 FEFFFFEB 		bl	__aeabi_fmul
 2719 0098 FEFFFFEB 		bl	__aeabi_f2iz
 2720 009c 44109FE5 		ldr	r1, .L340+4
 2721 00a0 840184E5 		str	r0, [r4, #388]
 2722 00a4 A00194E5 		ldr	r0, [r4, #416]	@ float
 2723 00a8 FEFFFFEB 		bl	__aeabi_fmul
 2724 00ac FEFFFFEB 		bl	__aeabi_f2iz
 2725 00b0 015085E3 		orr	r5, r5, #1
 2726 00b4 880184E5 		str	r0, [r4, #392]
 2727 00b8 7051C4E5 		strb	r5, [r4, #368]
 2728              	.L339:
 2729 00bc 5D0F84E2 		add	r0, r4, #372
 2730 00c0 1C1084E2 		add	r1, r4, #28
 2731 00c4 062D84E2 		add	r2, r4, #384
 2732 00c8 FEFFFFEB 		bl	ned_of_ecef_vect_i
 2733              	.L336:
 2734 00cc 10309FE5 		ldr	r3, .L340
 2735 00d0 7021D3E5 		ldrb	r2, [r3, #368]	@ zero_extendqisi2
 2736 00d4 022082E3 		orr	r2, r2, #2
 2737 00d8 7021C3E5 		strb	r2, [r3, #368]
 2738              	.L334:
 2739 00dc 3840BDE8 		ldmfd	sp!, {r3, r4, r5, lr}
 2740 00e0 1EFF2FE1 		bx	lr
 2741              	.L341:
 2742              		.align	2
 2743              	.L340:
 2744 00e4 00000000 		.word	state
 2745 00e8 00008044 		.word	1149239296
 2747              		.section	.text.stateCalcAccelEcef_i,"ax",%progbits
 2748              		.align	2
 2749              		.global	stateCalcAccelEcef_i
 2751              	stateCalcAccelEcef_i:
 2752              		@ Function supports interworking.
 2753              		@ args = 0, pretend = 0, frame = 0
 2754              		@ frame_needed = 0, uses_anonymous_args = 0
 2755 0000 38402DE9 		stmfd	sp!, {r3, r4, r5, lr}
 2756 0004 CC409FE5 		ldr	r4, .L348
 2757 0008 7051D4E5 		ldrb	r5, [r4, #368]	@ zero_extendqisi2
 2758 000c 010015E3 		tst	r5, #1
 2759 0010 2E00001A 		bne	.L342
 2760 0014 040015E3 		tst	r5, #4
 2761 0018 0F00000A 		beq	.L344
 2762 001c B8109FE5 		ldr	r1, .L348+4
 2763 0020 980194E5 		ldr	r0, [r4, #408]	@ float
 2764 0024 FEFFFFEB 		bl	__aeabi_fmul
 2765 0028 FEFFFFEB 		bl	__aeabi_f2iz
 2766 002c A8109FE5 		ldr	r1, .L348+4
 2767 0030 800184E5 		str	r0, [r4, #384]
 2768 0034 9C0194E5 		ldr	r0, [r4, #412]	@ float
 2769 0038 FEFFFFEB 		bl	__aeabi_fmul
 2770 003c FEFFFFEB 		bl	__aeabi_f2iz
 2771 0040 94109FE5 		ldr	r1, .L348+4
 2772 0044 840184E5 		str	r0, [r4, #388]
 2773 0048 A00194E5 		ldr	r0, [r4, #416]	@ float
 2774 004c FEFFFFEB 		bl	__aeabi_fmul
 2775 0050 FEFFFFEB 		bl	__aeabi_f2iz
 2776 0054 880184E5 		str	r0, [r4, #392]
 2777 0058 180000EA 		b	.L345
 2778              	.L344:
 2779 005c 020015E3 		tst	r5, #2
 2780 0060 1200001A 		bne	.L347
 2781              	.L346:
 2782 0064 080015E3 		tst	r5, #8
 2783 0068 1400000A 		beq	.L345
 2784 006c 68109FE5 		ldr	r1, .L348+4
 2785 0070 8C0194E5 		ldr	r0, [r4, #396]	@ float
 2786 0074 FEFFFFEB 		bl	__aeabi_fmul
 2787 0078 FEFFFFEB 		bl	__aeabi_f2iz
 2788 007c 58109FE5 		ldr	r1, .L348+4
 2789 0080 740184E5 		str	r0, [r4, #372]
 2790 0084 900194E5 		ldr	r0, [r4, #400]	@ float
 2791 0088 FEFFFFEB 		bl	__aeabi_fmul
 2792 008c FEFFFFEB 		bl	__aeabi_f2iz
 2793 0090 44109FE5 		ldr	r1, .L348+4
 2794 0094 780184E5 		str	r0, [r4, #376]
 2795 0098 940194E5 		ldr	r0, [r4, #404]	@ float
 2796 009c FEFFFFEB 		bl	__aeabi_fmul
 2797 00a0 FEFFFFEB 		bl	__aeabi_f2iz
 2798 00a4 025085E3 		orr	r5, r5, #2
 2799 00a8 7C0184E5 		str	r0, [r4, #380]
 2800 00ac 7051C4E5 		strb	r5, [r4, #368]
 2801              	.L347:
 2802 00b0 060D84E2 		add	r0, r4, #384
 2803 00b4 1C1084E2 		add	r1, r4, #28
 2804 00b8 5D2F84E2 		add	r2, r4, #372
 2805 00bc FEFFFFEB 		bl	ecef_of_ned_vect_i
 2806              	.L345:
 2807 00c0 10309FE5 		ldr	r3, .L348
 2808 00c4 7021D3E5 		ldrb	r2, [r3, #368]	@ zero_extendqisi2
 2809 00c8 012082E3 		orr	r2, r2, #1
 2810 00cc 7021C3E5 		strb	r2, [r3, #368]
 2811              	.L342:
 2812 00d0 3840BDE8 		ldmfd	sp!, {r3, r4, r5, lr}
 2813 00d4 1EFF2FE1 		bx	lr
 2814              	.L349:
 2815              		.align	2
 2816              	.L348:
 2817 00d8 00000000 		.word	state
 2818 00dc 00008044 		.word	1149239296
 2820              		.section	.text.stateCalcAccelNed_f,"ax",%progbits
 2821              		.align	2
 2822              		.global	stateCalcAccelNed_f
 2824              	stateCalcAccelNed_f:
 2825              		@ Function supports interworking.
 2826              		@ args = 0, pretend = 0, frame = 0
 2827              		@ frame_needed = 0, uses_anonymous_args = 0
 2828 0000 38402DE9 		stmfd	sp!, {r3, r4, r5, lr}
 2829 0004 D8409FE5 		ldr	r4, .L356
 2830 0008 7051D4E5 		ldrb	r5, [r4, #368]	@ zero_extendqisi2
 2831 000c 080015E3 		tst	r5, #8
 2832 0010 3100001A 		bne	.L350
 2833 0014 E430D4E5 		ldrb	r3, [r4, #228]	@ zero_extendqisi2
 2834 0018 000053E3 		cmp	r3, #0
 2835 001c 2A00000A 		beq	.L352
 2836 0020 020015E3 		tst	r5, #2
 2837 0024 0F00000A 		beq	.L353
 2838 0028 740194E5 		ldr	r0, [r4, #372]
 2839 002c FEFFFFEB 		bl	__aeabi_i2f
 2840 0030 EA15A0E3 		mov	r1, #981467136
 2841 0034 FEFFFFEB 		bl	__aeabi_fmul
 2842 0038 8C0184E5 		str	r0, [r4, #396]	@ float
 2843 003c 780194E5 		ldr	r0, [r4, #376]
 2844 0040 FEFFFFEB 		bl	__aeabi_i2f
 2845 0044 EA15A0E3 		mov	r1, #981467136
 2846 0048 FEFFFFEB 		bl	__aeabi_fmul
 2847 004c 900184E5 		str	r0, [r4, #400]	@ float
 2848 0050 7C0194E5 		ldr	r0, [r4, #380]
 2849 0054 FEFFFFEB 		bl	__aeabi_i2f
 2850 0058 EA15A0E3 		mov	r1, #981467136
 2851 005c FEFFFFEB 		bl	__aeabi_fmul
 2852 0060 940184E5 		str	r0, [r4, #404]	@ float
 2853 0064 180000EA 		b	.L352
 2854              	.L353:
 2855 0068 040015E3 		tst	r5, #4
 2856 006c 1200001A 		bne	.L355
 2857              	.L354:
 2858 0070 010015E3 		tst	r5, #1
 2859 0074 1400000A 		beq	.L352
 2860 0078 800194E5 		ldr	r0, [r4, #384]
 2861 007c FEFFFFEB 		bl	__aeabi_i2f
 2862 0080 EA15A0E3 		mov	r1, #981467136
 2863 0084 FEFFFFEB 		bl	__aeabi_fmul
 2864 0088 980184E5 		str	r0, [r4, #408]	@ float
 2865 008c 840194E5 		ldr	r0, [r4, #388]
 2866 0090 FEFFFFEB 		bl	__aeabi_i2f
 2867 0094 EA15A0E3 		mov	r1, #981467136
 2868 0098 FEFFFFEB 		bl	__aeabi_fmul
 2869 009c 9C0184E5 		str	r0, [r4, #412]	@ float
 2870 00a0 880194E5 		ldr	r0, [r4, #392]
 2871 00a4 FEFFFFEB 		bl	__aeabi_i2f
 2872 00a8 EA15A0E3 		mov	r1, #981467136
 2873 00ac FEFFFFEB 		bl	__aeabi_fmul
 2874 00b0 045085E3 		orr	r5, r5, #4
 2875 00b4 A00184E5 		str	r0, [r4, #416]	@ float
 2876 00b8 7051C4E5 		strb	r5, [r4, #368]
 2877              	.L355:
 2878 00bc 630F84E2 		add	r0, r4, #396
 2879 00c0 A41084E2 		add	r1, r4, #164
 2880 00c4 662F84E2 		add	r2, r4, #408
 2881 00c8 FEFFFFEB 		bl	ned_of_ecef_vect_f
 2882              	.L352:
 2883 00cc 10309FE5 		ldr	r3, .L356
 2884 00d0 7021D3E5 		ldrb	r2, [r3, #368]	@ zero_extendqisi2
 2885 00d4 082082E3 		orr	r2, r2, #8
 2886 00d8 7021C3E5 		strb	r2, [r3, #368]
 2887              	.L350:
 2888 00dc 3840BDE8 		ldmfd	sp!, {r3, r4, r5, lr}
 2889 00e0 1EFF2FE1 		bx	lr
 2890              	.L357:
 2891              		.align	2
 2892              	.L356:
 2893 00e4 00000000 		.word	state
 2895              		.section	.text.stateCalcAccelEcef_f,"ax",%progbits
 2896              		.align	2
 2897              		.global	stateCalcAccelEcef_f
 2899              	stateCalcAccelEcef_f:
 2900              		@ Function supports interworking.
 2901              		@ args = 0, pretend = 0, frame = 0
 2902              		@ frame_needed = 0, uses_anonymous_args = 0
 2903 0000 38402DE9 		stmfd	sp!, {r3, r4, r5, lr}
 2904 0004 CC409FE5 		ldr	r4, .L364
 2905 0008 7051D4E5 		ldrb	r5, [r4, #368]	@ zero_extendqisi2
 2906 000c 040015E3 		tst	r5, #4
 2907 0010 2E00001A 		bne	.L358
 2908 0014 010015E3 		tst	r5, #1
 2909 0018 0F00000A 		beq	.L360
 2910 001c 740194E5 		ldr	r0, [r4, #372]
 2911 0020 FEFFFFEB 		bl	__aeabi_i2f
 2912 0024 EA15A0E3 		mov	r1, #981467136
 2913 0028 FEFFFFEB 		bl	__aeabi_fmul
 2914 002c 980184E5 		str	r0, [r4, #408]	@ float
 2915 0030 780194E5 		ldr	r0, [r4, #376]
 2916 0034 FEFFFFEB 		bl	__aeabi_i2f
 2917 0038 EA15A0E3 		mov	r1, #981467136
 2918 003c FEFFFFEB 		bl	__aeabi_fmul
 2919 0040 9C0184E5 		str	r0, [r4, #412]	@ float
 2920 0044 7C0194E5 		ldr	r0, [r4, #380]
 2921 0048 FEFFFFEB 		bl	__aeabi_i2f
 2922 004c EA15A0E3 		mov	r1, #981467136
 2923 0050 FEFFFFEB 		bl	__aeabi_fmul
 2924 0054 A00184E5 		str	r0, [r4, #416]	@ float
 2925 0058 180000EA 		b	.L361
 2926              	.L360:
 2927 005c 080015E3 		tst	r5, #8
 2928 0060 1200001A 		bne	.L363
 2929              	.L362:
 2930 0064 020015E3 		tst	r5, #2
 2931 0068 1400000A 		beq	.L361
 2932 006c 740194E5 		ldr	r0, [r4, #372]
 2933 0070 FEFFFFEB 		bl	__aeabi_i2f
 2934 0074 EA15A0E3 		mov	r1, #981467136
 2935 0078 FEFFFFEB 		bl	__aeabi_fmul
 2936 007c 8C0184E5 		str	r0, [r4, #396]	@ float
 2937 0080 780194E5 		ldr	r0, [r4, #376]
 2938 0084 FEFFFFEB 		bl	__aeabi_i2f
 2939 0088 EA15A0E3 		mov	r1, #981467136
 2940 008c FEFFFFEB 		bl	__aeabi_fmul
 2941 0090 900184E5 		str	r0, [r4, #400]	@ float
 2942 0094 7C0194E5 		ldr	r0, [r4, #380]
 2943 0098 FEFFFFEB 		bl	__aeabi_i2f
 2944 009c EA15A0E3 		mov	r1, #981467136
 2945 00a0 FEFFFFEB 		bl	__aeabi_fmul
 2946 00a4 085085E3 		orr	r5, r5, #8
 2947 00a8 940184E5 		str	r0, [r4, #404]	@ float
 2948 00ac 7051C4E5 		strb	r5, [r4, #368]
 2949              	.L363:
 2950 00b0 660F84E2 		add	r0, r4, #408
 2951 00b4 A41084E2 		add	r1, r4, #164
 2952 00b8 632F84E2 		add	r2, r4, #396
 2953 00bc FEFFFFEB 		bl	ecef_of_ned_vect_f
 2954              	.L361:
 2955 00c0 10309FE5 		ldr	r3, .L364
 2956 00c4 7021D3E5 		ldrb	r2, [r3, #368]	@ zero_extendqisi2
 2957 00c8 042082E3 		orr	r2, r2, #4
 2958 00cc 7021C3E5 		strb	r2, [r3, #368]
 2959              	.L358:
 2960 00d0 3840BDE8 		ldmfd	sp!, {r3, r4, r5, lr}
 2961 00d4 1EFF2FE1 		bx	lr
 2962              	.L365:
 2963              		.align	2
 2964              	.L364:
 2965 00d8 00000000 		.word	state
 2967              		.section	.text.stateCalcBodyRates_i,"ax",%progbits
 2968              		.align	2
 2969              		.global	stateCalcBodyRates_i
 2971              	stateCalcBodyRates_i:
 2972              		@ Function supports interworking.
 2973              		@ args = 0, pretend = 0, frame = 0
 2974              		@ frame_needed = 0, uses_anonymous_args = 0
 2975 0000 38402DE9 		stmfd	sp!, {r3, r4, r5, lr}
 2976 0004 60409FE5 		ldr	r4, .L369
 2977 0008 2852D4E5 		ldrb	r5, [r4, #552]	@ zero_extendqisi2
 2978 000c 010015E3 		tst	r5, #1
 2979 0010 1300001A 		bne	.L366
 2980 0014 020015E3 		tst	r5, #2
 2981 0018 0E00000A 		beq	.L368
 2982 001c 4C109FE5 		ldr	r1, .L369+4
 2983 0020 380294E5 		ldr	r0, [r4, #568]	@ float
 2984 0024 FEFFFFEB 		bl	__aeabi_fmul
 2985 0028 FEFFFFEB 		bl	__aeabi_f2iz
 2986 002c 3C109FE5 		ldr	r1, .L369+4
 2987 0030 2C0284E5 		str	r0, [r4, #556]
 2988 0034 3C0294E5 		ldr	r0, [r4, #572]	@ float
 2989 0038 FEFFFFEB 		bl	__aeabi_fmul
 2990 003c FEFFFFEB 		bl	__aeabi_f2iz
 2991 0040 28109FE5 		ldr	r1, .L369+4
 2992 0044 300284E5 		str	r0, [r4, #560]
 2993 0048 400294E5 		ldr	r0, [r4, #576]	@ float
 2994 004c FEFFFFEB 		bl	__aeabi_fmul
 2995 0050 FEFFFFEB 		bl	__aeabi_f2iz
 2996 0054 340284E5 		str	r0, [r4, #564]
 2997              	.L368:
 2998 0058 0C309FE5 		ldr	r3, .L369
 2999 005c 015085E3 		orr	r5, r5, #1
 3000 0060 2852C3E5 		strb	r5, [r3, #552]
 3001              	.L366:
 3002 0064 3840BDE8 		ldmfd	sp!, {r3, r4, r5, lr}
 3003 0068 1EFF2FE1 		bx	lr
 3004              	.L370:
 3005              		.align	2
 3006              	.L369:
 3007 006c 00000000 		.word	state
 3008 0070 00008045 		.word	1166016512
 3010              		.section	.text.stateCalcBodyRates_f,"ax",%progbits
 3011              		.align	2
 3012              		.global	stateCalcBodyRates_f
 3014              	stateCalcBodyRates_f:
 3015              		@ Function supports interworking.
 3016              		@ args = 0, pretend = 0, frame = 0
 3017              		@ frame_needed = 0, uses_anonymous_args = 0
 3018 0000 38402DE9 		stmfd	sp!, {r3, r4, r5, lr}
 3019 0004 60409FE5 		ldr	r4, .L374
 3020 0008 2852D4E5 		ldrb	r5, [r4, #552]	@ zero_extendqisi2
 3021 000c 020015E3 		tst	r5, #2
 3022 0010 1300001A 		bne	.L371
 3023 0014 010015E3 		tst	r5, #1
 3024 0018 0E00000A 		beq	.L373
 3025 001c 2C0294E5 		ldr	r0, [r4, #556]
 3026 0020 FEFFFFEB 		bl	__aeabi_i2f
 3027 0024 E615A0E3 		mov	r1, #964689920
 3028 0028 FEFFFFEB 		bl	__aeabi_fmul
 3029 002c 380284E5 		str	r0, [r4, #568]	@ float
 3030 0030 300294E5 		ldr	r0, [r4, #560]
 3031 0034 FEFFFFEB 		bl	__aeabi_i2f
 3032 0038 E615A0E3 		mov	r1, #964689920
 3033 003c FEFFFFEB 		bl	__aeabi_fmul
 3034 0040 3C0284E5 		str	r0, [r4, #572]	@ float
 3035 0044 340294E5 		ldr	r0, [r4, #564]
 3036 0048 FEFFFFEB 		bl	__aeabi_i2f
 3037 004c E615A0E3 		mov	r1, #964689920
 3038 0050 FEFFFFEB 		bl	__aeabi_fmul
 3039 0054 400284E5 		str	r0, [r4, #576]	@ float
 3040              	.L373:
 3041 0058 0C309FE5 		ldr	r3, .L374
 3042 005c 025085E3 		orr	r5, r5, #2
 3043 0060 2852C3E5 		strb	r5, [r3, #552]
 3044              	.L371:
 3045 0064 3840BDE8 		ldmfd	sp!, {r3, r4, r5, lr}
 3046 0068 1EFF2FE1 		bx	lr
 3047              	.L375:
 3048              		.align	2
 3049              	.L374:
 3050 006c 00000000 		.word	state
 3052              		.section	.text.stateCalcHorizontalWindspeed_i,"ax",%progbits
 3053              		.align	2
 3054              		.global	stateCalcHorizontalWindspeed_i
 3056              	stateCalcHorizontalWindspeed_i:
 3057              		@ Function supports interworking.
 3058              		@ args = 0, pretend = 0, frame = 0
 3059              		@ frame_needed = 0, uses_anonymous_args = 0
 3060 0000 10402DE9 		stmfd	sp!, {r4, lr}
 3061 0004 50409FE5 		ldr	r4, .L379
 3062 0008 4432D4E5 		ldrb	r3, [r4, #580]	@ zero_extendqisi2
 3063 000c 010013E3 		tst	r3, #1
 3064 0010 0F00001A 		bne	.L376
 3065 0014 040013E3 		tst	r3, #4
 3066 0018 0900000A 		beq	.L378
 3067 001c 4914A0E3 		mov	r1, #1224736768
 3068 0020 540294E5 		ldr	r0, [r4, #596]	@ float
 3069 0024 FEFFFFEB 		bl	__aeabi_fmul
 3070 0028 FEFFFFEB 		bl	__aeabi_f2iz
 3071 002c 4914A0E3 		mov	r1, #1224736768
 3072 0030 480284E5 		str	r0, [r4, #584]
 3073 0034 580294E5 		ldr	r0, [r4, #600]	@ float
 3074 0038 FEFFFFEB 		bl	__aeabi_fmul
 3075 003c FEFFFFEB 		bl	__aeabi_f2iz
 3076 0040 4C0284E5 		str	r0, [r4, #588]
 3077              	.L378:
 3078 0044 10309FE5 		ldr	r3, .L379
 3079 0048 2822D3E5 		ldrb	r2, [r3, #552]	@ zero_extendqisi2
 3080 004c 012082E3 		orr	r2, r2, #1
 3081 0050 2822C3E5 		strb	r2, [r3, #552]
 3082              	.L376:
 3083 0054 1040BDE8 		ldmfd	sp!, {r4, lr}
 3084 0058 1EFF2FE1 		bx	lr
 3085              	.L380:
 3086              		.align	2
 3087              	.L379:
 3088 005c 00000000 		.word	state
 3090              		.section	.text.stateCalcAirspeed_i,"ax",%progbits
 3091              		.align	2
 3092              		.global	stateCalcAirspeed_i
 3094              	stateCalcAirspeed_i:
 3095              		@ Function supports interworking.
 3096              		@ args = 0, pretend = 0, frame = 0
 3097              		@ frame_needed = 0, uses_anonymous_args = 0
 3098 0000 38402DE9 		stmfd	sp!, {r3, r4, r5, lr}
 3099 0004 34409FE5 		ldr	r4, .L384
 3100 0008 4452D4E5 		ldrb	r5, [r4, #580]	@ zero_extendqisi2
 3101 000c 020015E3 		tst	r5, #2
 3102 0010 0800001A 		bne	.L381
 3103 0014 080015E3 		tst	r5, #8
 3104 0018 0400000A 		beq	.L383
 3105 001c 4914A0E3 		mov	r1, #1224736768
 3106 0020 5C0294E5 		ldr	r0, [r4, #604]	@ float
 3107 0024 FEFFFFEB 		bl	__aeabi_fmul
 3108 0028 FEFFFFEB 		bl	__aeabi_f2iz
 3109 002c 500284E5 		str	r0, [r4, #592]
 3110              	.L383:
 3111 0030 025085E3 		orr	r5, r5, #2
 3112 0034 4452C4E5 		strb	r5, [r4, #580]
 3113              	.L381:
 3114 0038 3840BDE8 		ldmfd	sp!, {r3, r4, r5, lr}
 3115 003c 1EFF2FE1 		bx	lr
 3116              	.L385:
 3117              		.align	2
 3118              	.L384:
 3119 0040 00000000 		.word	state
 3121              		.section	.text.stateCalcHorizontalWindspeed_f,"ax",%progbits
 3122              		.align	2
 3123              		.global	stateCalcHorizontalWindspeed_f
 3125              	stateCalcHorizontalWindspeed_f:
 3126              		@ Function supports interworking.
 3127              		@ args = 0, pretend = 0, frame = 0
 3128              		@ frame_needed = 0, uses_anonymous_args = 0
 3129 0000 10402DE9 		stmfd	sp!, {r4, lr}
 3130 0004 38409FE5 		ldr	r4, .L389
 3131 0008 4432D4E5 		ldrb	r3, [r4, #580]	@ zero_extendqisi2
 3132 000c 040013E3 		tst	r3, #4
 3133 0010 0900001A 		bne	.L386
 3134 0014 010013E3 		tst	r3, #1
 3135 0018 0400000A 		beq	.L388
 3136 001c 4C0294E5 		ldr	r0, [r4, #588]
 3137 0020 FEFFFFEB 		bl	__aeabi_i2f
 3138 0024 3614A0E3 		mov	r1, #905969664
 3139 0028 FEFFFFEB 		bl	__aeabi_fmul
 3140 002c 540284E5 		str	r0, [r4, #596]	@ float
 3141              	.L388:
 3142 0030 2832D4E5 		ldrb	r3, [r4, #552]	@ zero_extendqisi2
 3143 0034 043083E3 		orr	r3, r3, #4
 3144 0038 2832C4E5 		strb	r3, [r4, #552]
 3145              	.L386:
 3146 003c 1040BDE8 		ldmfd	sp!, {r4, lr}
 3147 0040 1EFF2FE1 		bx	lr
 3148              	.L390:
 3149              		.align	2
 3150              	.L389:
 3151 0044 00000000 		.word	state
 3153              		.section	.text.stateCalcAirspeed_f,"ax",%progbits
 3154              		.align	2
 3155              		.global	stateCalcAirspeed_f
 3157              	stateCalcAirspeed_f:
 3158              		@ Function supports interworking.
 3159              		@ args = 0, pretend = 0, frame = 0
 3160              		@ frame_needed = 0, uses_anonymous_args = 0
 3161 0000 38402DE9 		stmfd	sp!, {r3, r4, r5, lr}
 3162 0004 34409FE5 		ldr	r4, .L394
 3163 0008 4452D4E5 		ldrb	r5, [r4, #580]	@ zero_extendqisi2
 3164 000c 080015E3 		tst	r5, #8
 3165 0010 0800001A 		bne	.L391
 3166 0014 020015E3 		tst	r5, #2
 3167 0018 0400000A 		beq	.L393
 3168 001c 500294E5 		ldr	r0, [r4, #592]
 3169 0020 FEFFFFEB 		bl	__aeabi_i2f
 3170 0024 3614A0E3 		mov	r1, #905969664
 3171 0028 FEFFFFEB 		bl	__aeabi_fmul
 3172 002c 5C0284E5 		str	r0, [r4, #604]	@ float
 3173              	.L393:
 3174 0030 085085E3 		orr	r5, r5, #8
 3175 0034 4452C4E5 		strb	r5, [r4, #580]
 3176              	.L391:
 3177 0038 3840BDE8 		ldmfd	sp!, {r3, r4, r5, lr}
 3178 003c 1EFF2FE1 		bx	lr
 3179              	.L395:
 3180              		.align	2
 3181              	.L394:
 3182 0040 00000000 		.word	state
 3184              		.comm	state,616,4
 3185              		.ident	"GCC: (Linaro GCC 4.6-2011.09-1) 4.6.2 20110908 (prerelease)"