   1              		.cpu arm7tdmi
   2              		.fpu softvfp
   3              		.eabi_attribute 20, 1
   4              		.eabi_attribute 21, 1
   5              		.eabi_attribute 23, 3
   6              		.eabi_attribute 24, 1
   7              		.eabi_attribute 25, 1
   8              		.eabi_attribute 26, 1
   9              		.eabi_attribute 30, 4
  10              		.eabi_attribute 18, 4
  11              		.file	"sys_time_arch.c"
  12              		.section	.text.TIMER0_ISR,"ax",%progbits
  13              		.align	2
  14              		.global	TIMER0_ISR
  16              	TIMER0_ISR:
  17              		@ Function supports interworking.
  18              		@ Naked Function: prologue and epilogue provided by programmer.
  19              		@ args = 0, pretend = 0, frame = 8
  20              		@ frame_needed = 0, uses_anonymous_args = 0
  21              	@ 155 "arch/lpc21/mcu_periph/sys_time_arch.c" 1
  22 0000 04E04EE2 		 sub   lr, lr,#4
  23 0004 FF5F2DE9 	 stmfd sp!,{r0-r12,lr}
  24 0008 00104FE1 	 mrs   r1, spsr
  25 000c 02002DE9 	 stmfd sp!,{r1}
  26              	@ 0 "" 2
  27 0010 8C519FE5 		ldr	r5, .L15
  28 0014 8C419FE5 		ldr	r4, .L15+4
  29 0018 8C919FE5 		ldr	r9, .L15+8
  30 001c 8C619FE5 		ldr	r6, .L15+12
  31 0020 8CA19FE5 		ldr	sl, .L15+16
  32 0024 560000EA 		b	.L14
  33              	.L10:
  34 0028 003095E5 		ldr	r3, [r5, #0]
  35 002c 010013E3 		tst	r3, #1
  36 0030 3700000A 		beq	.L3
  37 0034 183095E5 		ldr	r3, [r5, #24]
  38 0038 3D3A83E2 		add	r3, r3, #249856
  39 003c 8F3083E2 		add	r3, r3, #143
  40 0040 183085E5 		str	r3, [r5, #24]
  41 0044 083094E5 		ldr	r3, [r4, #8]
  42 0048 013083E2 		add	r3, r3, #1
  43 004c 083084E5 		str	r3, [r4, #8]
  44 0050 043094E5 		ldr	r3, [r4, #4]
  45 0054 3D3A83E2 		add	r3, r3, #249856
  46 0058 903083E2 		add	r3, r3, #144
  47 005c 043084E5 		str	r3, [r4, #4]
  48 0060 043094E5 		ldr	r3, [r4, #4]
  49 0064 090053E1 		cmp	r3, r9
  50 0068 0B00009A 		bls	.L4
  51 006c 042094E5 		ldr	r2, [r4, #4]
  52 0070 40319FE5 		ldr	r3, .L15+20
  53 0074 033082E0 		add	r3, r2, r3
  54 0078 043084E5 		str	r3, [r4, #4]
  55 007c 003094E5 		ldr	r3, [r4, #0]
  56 0080 013083E2 		add	r3, r3, #1
  57 0084 003084E5 		str	r3, [r4, #0]
  58 0088 103096E5 		ldr	r3, [r6, #16]
  59 008c 020813E3 		tst	r3, #131072
  60 0090 0238A0E3 		mov	r3, #131072
  61 0094 14308605 		streq	r3, [r6, #20]
  62 0098 1C308615 		strne	r3, [r6, #28]
  63              	.L4:
  64 009c 04719FE5 		ldr	r7, .L15+4
  65 00a0 0080A0E3 		mov	r8, #0
  66 00a4 1420A0E3 		mov	r2, #20
  67 00a8 01B0A0E3 		mov	fp, #1
  68              	.L6:
  69 00ac 0C30D7E5 		ldrb	r3, [r7, #12]	@ zero_extendqisi2
  70 00b0 000053E3 		cmp	r3, #0
  71 00b4 1000000A 		beq	.L7
  72 00b8 081094E5 		ldr	r1, [r4, #8]
  73 00bc 183097E5 		ldr	r3, [r7, #24]
  74 00c0 030051E1 		cmp	r1, r3
  75 00c4 0C00003A 		bcc	.L7
  76 00c8 1C1097E5 		ldr	r1, [r7, #28]
  77 00cc 033081E0 		add	r3, r1, r3
  78 00d0 183087E5 		str	r3, [r7, #24]
  79 00d4 924823E0 		mla	r3, r2, r8, r4
  80 00d8 14B0C3E5 		strb	fp, [r3, #20]
  81 00dc 103097E5 		ldr	r3, [r7, #16]
  82 00e0 000053E3 		cmp	r3, #0
  83 00e4 0400000A 		beq	.L7
  84 00e8 04208DE5 		str	r2, [sp, #4]
  85 00ec FF0008E2 		and	r0, r8, #255
  86 00f0 0FE0A0E1 		mov	lr, pc
  87 00f4 13FF2FE1 		bx	r3
  88 00f8 04209DE5 		ldr	r2, [sp, #4]
  89              	.L7:
  90 00fc 018088E2 		add	r8, r8, #1
  91 0100 080058E3 		cmp	r8, #8
  92 0104 147087E2 		add	r7, r7, #20
  93 0108 E7FFFF1A 		bne	.L6
  94 010c 0130A0E3 		mov	r3, #1
  95 0110 003085E5 		str	r3, [r5, #0]
  96              	.L3:
  97 0114 003095E5 		ldr	r3, [r5, #0]
  98 0118 020013E3 		tst	r3, #2
  99 011c 1800000A 		beq	.L14
 100 0120 0030DAE5 		ldrb	r3, [sl, #0]	@ zero_extendqisi2
 101 0124 090053E3 		cmp	r3, #9
 102 0128 0700009A 		bls	.L9
 103 012c 143096E5 		ldr	r3, [r6, #20]
 104 0130 013683E3 		orr	r3, r3, #1048576
 105 0134 143086E5 		str	r3, [r6, #20]
 106 0138 0030A0E3 		mov	r3, #0
 107 013c 0030CAE5 		strb	r3, [sl, #0]
 108 0140 1C3096E5 		ldr	r3, [r6, #28]
 109 0144 013683E3 		orr	r3, r3, #1048576
 110 0148 1C3086E5 		str	r3, [r6, #28]
 111              	.L9:
 112 014c 0030DAE5 		ldrb	r3, [sl, #0]	@ zero_extendqisi2
 113 0150 64009FE5 		ldr	r0, .L15+24
 114 0154 8310A0E1 		mov	r1, r3, asl #1
 115 0158 1C2095E5 		ldr	r2, [r5, #28]
 116 015c B11090E1 		ldrh	r1, [r0, r1]
 117 0160 022081E0 		add	r2, r1, r2
 118 0164 1C2085E5 		str	r2, [r5, #28]
 119 0168 3C2095E5 		ldr	r2, [r5, #60]
 120 016c 013083E2 		add	r3, r3, #1
 121 0170 0220C2E3 		bic	r2, r2, #2
 122 0174 3C2085E5 		str	r2, [r5, #60]
 123 0178 0030CAE5 		strb	r3, [sl, #0]
 124 017c 0230A0E3 		mov	r3, #2
 125 0180 003085E5 		str	r3, [r5, #0]
 126              	.L14:
 127 0184 003095E5 		ldr	r3, [r5, #0]
 128 0188 033013E2 		ands	r3, r3, #3
 129 018c A5FFFF1A 		bne	.L10
 130 0190 0020E0E3 		mvn	r2, #0
 131 0194 CF3F02E5 		str	r3, [r2, #-4047]
 132              	@ 224 "arch/lpc21/mcu_periph/sys_time_arch.c" 1
 133 0198 0200BDE8 		 ldmfd sp!,{r1}
 134 019c 01F061E1 	 msr   spsr_c,r1
 135 01a0 FF9FFDE8 	 ldmfd sp!,{r0-r12,pc}^
 136              	@ 0 "" 2
 137              	.L16:
 138              		.align	2
 139              	.L15:
 140 01a4 004000E0 		.word	-536854528
 141 01a8 00000000 		.word	sys_time
 142 01ac BFE1E400 		.word	14999999
 143 01b0 008002E0 		.word	-536707072
 144 01b4 00000000 		.word	servos_4017_idx
 145 01b8 401E1BFF 		.word	-15000000
 146 01bc 00000000 		.word	servos_values
 148              		.section	.text.sys_time_arch_init,"ax",%progbits
 149              		.align	2
 150              		.global	sys_time_arch_init
 152              	sys_time_arch_init:
 153              		@ Function supports interworking.
 154              		@ args = 0, pretend = 0, frame = 0
 155              		@ frame_needed = 0, uses_anonymous_args = 0
 156              		@ link register save eliminated.
 157 0000 54309FE5 		ldr	r3, .L18
 158 0004 0220A0E3 		mov	r2, #2
 159 0008 042083E5 		str	r2, [r3, #4]
 160 000c 0110A0E3 		mov	r1, #1
 161 0010 0020A0E3 		mov	r2, #0
 162 0014 0C2083E5 		str	r2, [r3, #12]
 163 0018 141083E5 		str	r1, [r3, #20]
 164 001c 282083E5 		str	r2, [r3, #40]
 165 0020 3C2083E5 		str	r2, [r3, #60]
 166 0024 34209FE5 		ldr	r2, .L18+4
 167 0028 182083E5 		str	r2, [r3, #24]
 168 002c 041083E5 		str	r1, [r3, #4]
 169 0030 0030E0E3 		mvn	r3, #0
 170 0034 F32F13E5 		ldr	r2, [r3, #-4083]
 171 0038 1020C2E3 		bic	r2, r2, #16
 172 003c F32F03E5 		str	r2, [r3, #-4083]
 173 0040 1020A0E3 		mov	r2, #16
 174 0044 EF2F03E5 		str	r2, [r3, #-4079]
 175 0048 2420A0E3 		mov	r2, #36
 176 004c FB2D03E5 		str	r2, [r3, #-3579]
 177 0050 0C209FE5 		ldr	r2, .L18+8
 178 0054 FB2E03E5 		str	r2, [r3, #-3835]
 179 0058 1EFF2FE1 		bx	lr
 180              	.L19:
 181              		.align	2
 182              	.L18:
 183 005c 004000E0 		.word	-536854528
 184 0060 90D00300 		.word	250000
 185 0064 00000000 		.word	TIMER0_ISR
 187              		.ident	"GCC: (Linaro GCC 4.6-2011.09-1) 4.6.2 20110908 (prerelease)"
DEFINED SYMBOLS
                            *ABS*:00000000 sys_time_arch.c
     /tmp/ccFqGwtu.s:13     .text.TIMER0_ISR:00000000 $a
     /tmp/ccFqGwtu.s:16     .text.TIMER0_ISR:00000000 TIMER0_ISR
     /tmp/ccFqGwtu.s:140    .text.TIMER0_ISR:000001a4 $d
     /tmp/ccFqGwtu.s:149    .text.sys_time_arch_init:00000000 $a
     /tmp/ccFqGwtu.s:152    .text.sys_time_arch_init:00000000 sys_time_arch_init
     /tmp/ccFqGwtu.s:183    .text.sys_time_arch_init:0000005c $d

UNDEFINED SYMBOLS
sys_time
servos_4017_idx
servos_values
