   1              		.cpu arm7tdmi
   2              		.fpu softvfp
   3              		.eabi_attribute 20, 1
   4              		.eabi_attribute 21, 1
   5              		.eabi_attribute 23, 3
   6              		.eabi_attribute 24, 1
   7              		.eabi_attribute 25, 1
   8              		.eabi_attribute 26, 1
   9              		.eabi_attribute 30, 4
  10              		.eabi_attribute 34, 0
  11              		.eabi_attribute 18, 4
  12              		.file	"ahrs_infrared.c"
  13              		.section	.text.ahrs_init,"ax",%progbits
  14              		.align	2
  15              		.global	ahrs_init
  17              	ahrs_init:
  18              		@ Function supports interworking.
  19              		@ args = 0, pretend = 0, frame = 0
  20              		@ frame_needed = 0, uses_anonymous_args = 0
  21              		@ link register save eliminated.
  22 0000 AC309FE5 		ldr	r3, .L2
  23 0004 0020A0E3 		mov	r2, #0
  24 0008 9820C3E5 		strb	r2, [r3, #152]
  25 000c A4309FE5 		ldr	r3, .L2+4
  26 0010 0020A0E3 		mov	r2, #0
  27 0014 FE15A0E3 		mov	r1, #1065353216
  28 0018 641083E5 		str	r1, [r3, #100]	@ float
  29 001c 682083E5 		str	r2, [r3, #104]	@ float
  30 0020 6C2083E5 		str	r2, [r3, #108]	@ float
  31 0024 702083E5 		str	r2, [r3, #112]	@ float
  32 0028 742083E5 		str	r2, [r3, #116]	@ float
  33 002c 782083E5 		str	r2, [r3, #120]	@ float
  34 0030 7C2083E5 		str	r2, [r3, #124]	@ float
  35 0034 801083E5 		str	r1, [r3, #128]	@ float
  36 0038 842083E5 		str	r2, [r3, #132]	@ float
  37 003c 882083E5 		str	r2, [r3, #136]	@ float
  38 0040 8C2083E5 		str	r2, [r3, #140]	@ float
  39 0044 901083E5 		str	r1, [r3, #144]	@ float
  40 0048 942083E5 		str	r2, [r3, #148]	@ float
  41 004c 982083E5 		str	r2, [r3, #152]	@ float
  42 0050 9C2083E5 		str	r2, [r3, #156]	@ float
  43 0054 A01083E5 		str	r1, [r3, #160]	@ float
  44 0058 A42083E5 		str	r2, [r3, #164]	@ float
  45 005c A82083E5 		str	r2, [r3, #168]	@ float
  46 0060 AC2083E5 		str	r2, [r3, #172]	@ float
  47 0064 001083E5 		str	r1, [r3]	@ float
  48 0068 042083E5 		str	r2, [r3, #4]	@ float
  49 006c 082083E5 		str	r2, [r3, #8]	@ float
  50 0070 0C2083E5 		str	r2, [r3, #12]	@ float
  51 0074 102083E5 		str	r2, [r3, #16]	@ float
  52 0078 142083E5 		str	r2, [r3, #20]	@ float
  53 007c 182083E5 		str	r2, [r3, #24]	@ float
  54 0080 1C1083E5 		str	r1, [r3, #28]	@ float
  55 0084 202083E5 		str	r2, [r3, #32]	@ float
  56 0088 242083E5 		str	r2, [r3, #36]	@ float
  57 008c 282083E5 		str	r2, [r3, #40]	@ float
  58 0090 2C1083E5 		str	r1, [r3, #44]	@ float
  59 0094 302083E5 		str	r2, [r3, #48]	@ float
  60 0098 342083E5 		str	r2, [r3, #52]	@ float
  61 009c 382083E5 		str	r2, [r3, #56]	@ float
  62 00a0 3C1083E5 		str	r1, [r3, #60]	@ float
  63 00a4 402083E5 		str	r2, [r3, #64]	@ float
  64 00a8 442083E5 		str	r2, [r3, #68]	@ float
  65 00ac 482083E5 		str	r2, [r3, #72]	@ float
  66 00b0 1EFF2FE1 		bx	lr
  67              	.L3:
  68              		.align	2
  69              	.L2:
  70 00b4 00000000 		.word	ahrs
  71 00b8 00000000 		.word	ahrs_float
  73              		.section	.text.ahrs_align,"ax",%progbits
  74              		.align	2
  75              		.global	ahrs_align
  77              	ahrs_align:
  78              		@ Function supports interworking.
  79              		@ args = 0, pretend = 0, frame = 0
  80              		@ frame_needed = 0, uses_anonymous_args = 0
  81              		@ link register save eliminated.
  82 0000 08309FE5 		ldr	r3, .L5
  83 0004 0120A0E3 		mov	r2, #1
  84 0008 9820C3E5 		strb	r2, [r3, #152]
  85 000c 1EFF2FE1 		bx	lr
  86              	.L6:
  87              		.align	2
  88              	.L5:
  89 0010 00000000 		.word	ahrs
  91              		.section	.text.ahrs_propagate,"ax",%progbits
  92              		.align	2
  93              		.global	ahrs_propagate
  95              	ahrs_propagate:
  96              		@ Function supports interworking.
  97              		@ args = 0, pretend = 0, frame = 0
  98              		@ frame_needed = 0, uses_anonymous_args = 0
  99              		@ link register save eliminated.
 100 0000 1EFF2FE1 		bx	lr
 102              		.section	.text.ahrs_update_accel,"ax",%progbits
 103              		.align	2
 104              		.global	ahrs_update_accel
 106              	ahrs_update_accel:
 107              		@ Function supports interworking.
 108              		@ args = 0, pretend = 0, frame = 0
 109              		@ frame_needed = 0, uses_anonymous_args = 0
 110              		@ link register save eliminated.
 111 0000 1EFF2FE1 		bx	lr
 113              		.section	.text.ahrs_update_mag,"ax",%progbits
 114              		.align	2
 115              		.global	ahrs_update_mag
 117              	ahrs_update_mag:
 118              		@ Function supports interworking.
 119              		@ args = 0, pretend = 0, frame = 0
 120              		@ frame_needed = 0, uses_anonymous_args = 0
 121              		@ link register save eliminated.
 122 0000 1EFF2FE1 		bx	lr
 124              		.section	.text.ahrs_update_fw_estimator,"ax",%progbits
 125              		.align	2
 126              		.global	ahrs_update_fw_estimator
 128              	ahrs_update_fw_estimator:
 129              		@ Function supports interworking.
 130              		@ args = 0, pretend = 0, frame = 0
 131              		@ frame_needed = 0, uses_anonymous_args = 0
 132              		@ link register save eliminated.
 133 0000 48309FE5 		ldr	r3, .L11
 134 0004 48209FE5 		ldr	r2, .L11+4
 135 0008 741093E5 		ldr	r1, [r3, #116]	@ float
 136 000c 001082E5 		str	r1, [r2]	@ float
 137 0010 781093E5 		ldr	r1, [r3, #120]	@ float
 138 0014 3C209FE5 		ldr	r2, .L11+8
 139 0018 001082E5 		str	r1, [r2]	@ float
 140 001c 7C1093E5 		ldr	r1, [r3, #124]	@ float
 141 0020 34209FE5 		ldr	r2, .L11+12
 142 0024 001082E5 		str	r1, [r2]	@ float
 143 0028 A41093E5 		ldr	r1, [r3, #164]	@ float
 144 002c 2C209FE5 		ldr	r2, .L11+16
 145 0030 001082E5 		str	r1, [r2]	@ float
 146 0034 A81093E5 		ldr	r1, [r3, #168]	@ float
 147 0038 24209FE5 		ldr	r2, .L11+20
 148 003c 001082E5 		str	r1, [r2]	@ float
 149 0040 AC2093E5 		ldr	r2, [r3, #172]	@ float
 150 0044 1C309FE5 		ldr	r3, .L11+24
 151 0048 002083E5 		str	r2, [r3]	@ float
 152 004c 1EFF2FE1 		bx	lr
 153              	.L12:
 154              		.align	2
 155              	.L11:
 156 0050 00000000 		.word	ahrs_float
 157 0054 00000000 		.word	estimator_phi
 158 0058 00000000 		.word	estimator_theta
 159 005c 00000000 		.word	estimator_psi
 160 0060 00000000 		.word	estimator_p
 161 0064 00000000 		.word	estimator_q
 162 0068 00000000 		.word	estimator_r
 164              		.global	__aeabi_i2d
 165              		.global	__aeabi_ddiv
 166              		.global	__aeabi_d2f
 167              		.global	__aeabi_fmul
 168              		.global	__aeabi_fsub
 169              		.global	__aeabi_fcmplt
 170              		.global	__aeabi_f2d
 171              		.global	__aeabi_dadd
 172              		.section	.text.ahrs_update_gps,"ax",%progbits
 173              		.align	2
 174              		.global	ahrs_update_gps
 176              	ahrs_update_gps:
 177              		@ Function supports interworking.
 178              		@ args = 0, pretend = 0, frame = 0
 179              		@ frame_needed = 0, uses_anonymous_args = 0
 180 0000 70402DE9 		stmfd	sp!, {r4, r5, r6, lr}
 181 0004 C0509FE5 		ldr	r5, .L17
 182 0008 F404D5E1 		ldrsh	r0, [r5, #68]
 183 000c FEFFFFEB 		bl	__aeabi_i2d
 184 0010 0020A0E3 		mov	r2, #0
 185 0014 B4309FE5 		ldr	r3, .L17+4
 186 0018 FEFFFFEB 		bl	__aeabi_ddiv
 187 001c FEFFFFEB 		bl	__aeabi_d2f
 188 0020 0040A0E1 		mov	r4, r0
 189 0024 480095E5 		ldr	r0, [r5, #72]
 190 0028 FEFFFFEB 		bl	__aeabi_i2d
 191 002c 0020A0E3 		mov	r2, #0
 192 0030 9C309FE5 		ldr	r3, .L17+8
 193 0034 FEFFFFEB 		bl	__aeabi_ddiv
 194 0038 FEFFFFEB 		bl	__aeabi_d2f
 195 003c 0050A0E1 		mov	r5, r0
 196 0040 FEFFFFEB 		bl	cosf
 197 0044 0060A0E1 		mov	r6, r0
 198 0048 0500A0E1 		mov	r0, r5
 199 004c FEFFFFEB 		bl	sinf
 200 0050 0410A0E1 		mov	r1, r4
 201 0054 FEFFFFEB 		bl	__aeabi_fmul
 202 0058 78309FE5 		ldr	r3, .L17+12
 203 005c 001093E5 		ldr	r1, [r3]	@ float
 204 0060 FEFFFFEB 		bl	__aeabi_fsub
 205 0064 0410A0E1 		mov	r1, r4
 206 0068 0050A0E1 		mov	r5, r0
 207 006c 0600A0E1 		mov	r0, r6
 208 0070 FEFFFFEB 		bl	__aeabi_fmul
 209 0074 60309FE5 		ldr	r3, .L17+16
 210 0078 001093E5 		ldr	r1, [r3]	@ float
 211 007c FEFFFFEB 		bl	__aeabi_fsub
 212 0080 0010A0E1 		mov	r1, r0
 213 0084 0500A0E1 		mov	r0, r5
 214 0088 FEFFFFEB 		bl	atan2f
 215 008c 0010A0E3 		mov	r1, #0
 216 0090 0050A0E1 		mov	r5, r0
 217 0094 FEFFFFEB 		bl	__aeabi_fcmplt
 218 0098 40409FE5 		ldr	r4, .L17+20
 219 009c 000050E3 		cmp	r0, #0
 220 00a0 7C508405 		streq	r5, [r4, #124]	@ float
 221 00a4 0600000A 		beq	.L15
 222 00a8 0500A0E1 		mov	r0, r5
 223 00ac FEFFFFEB 		bl	__aeabi_f2d
 224 00b0 2C209FE5 		ldr	r2, .L17+24
 225 00b4 2C309FE5 		ldr	r3, .L17+28
 226 00b8 FEFFFFEB 		bl	__aeabi_dadd
 227 00bc FEFFFFEB 		bl	__aeabi_d2f
 228 00c0 7C0084E5 		str	r0, [r4, #124]	@ float
 229              	.L15:
 230 00c4 7040BDE8 		ldmfd	sp!, {r4, r5, r6, lr}
 231 00c8 FEFFFFEA 		b	ahrs_update_fw_estimator
 232              	.L18:
 233              		.align	2
 234              	.L17:
 235 00cc 00000000 		.word	gps
 236 00d0 00005940 		.word	1079574528
 237 00d4 D0126341 		.word	1097011920
 238 00d8 00000000 		.word	wind_east
 239 00dc 00000000 		.word	wind_north
 240 00e0 00000000 		.word	ahrs_float
 241 00e4 182D4454 		.word	1413754136
 242 00e8 FB211940 		.word	1075388923
 244              		.global	__aeabi_dsub
 245              		.global	__aeabi_dcmplt
 246              		.global	__aeabi_dcmpgt
 247              		.global	__aeabi_fcmpge
 248              		.section	.text.ahrs_update_infrared,"ax",%progbits
 249              		.align	2
 250              		.global	ahrs_update_infrared
 252              	ahrs_update_infrared:
 253              		@ Function supports interworking.
 254              		@ args = 0, pretend = 0, frame = 0
 255              		@ frame_needed = 0, uses_anonymous_args = 0
 256 0000 F0412DE9 		stmfd	sp!, {r4, r5, r6, r7, r8, lr}
 257 0004 78619FE5 		ldr	r6, .L39
 258 0008 F401D6E1 		ldrsh	r0, [r6, #20]
 259 000c FEFFFFEB 		bl	__aeabi_i2d
 260 0010 0040A0E1 		mov	r4, r0
 261 0014 F801D6E1 		ldrsh	r0, [r6, #24]
 262 0018 0150A0E1 		mov	r5, r1
 263 001c FEFFFFEB 		bl	__aeabi_i2d
 264 0020 0020A0E1 		mov	r2, r0
 265 0024 0130A0E1 		mov	r3, r1
 266 0028 0400A0E1 		mov	r0, r4
 267 002c 0510A0E1 		mov	r1, r5
 268 0030 FEFFFFEB 		bl	atan2
 269 0034 0040A0E1 		mov	r4, r0
 270 0038 080096E5 		ldr	r0, [r6, #8]	@ float
 271 003c 0150A0E1 		mov	r5, r1
 272 0040 FEFFFFEB 		bl	__aeabi_f2d
 273 0044 0020A0E1 		mov	r2, r0
 274 0048 0130A0E1 		mov	r3, r1
 275 004c 0400A0E1 		mov	r0, r4
 276 0050 0510A0E1 		mov	r1, r5
 277 0054 FEFFFFEB 		bl	__aeabi_dsub
 278 0058 FEFFFFEB 		bl	__aeabi_d2f
 279 005c 24719FE5 		ldr	r7, .L39+4
 280 0060 740087E5 		str	r0, [r7, #116]	@ float
 281 0064 F601D6E1 		ldrsh	r0, [r6, #22]
 282 0068 FEFFFFEB 		bl	__aeabi_i2d
 283 006c 0040A0E1 		mov	r4, r0
 284 0070 F801D6E1 		ldrsh	r0, [r6, #24]
 285 0074 0150A0E1 		mov	r5, r1
 286 0078 FEFFFFEB 		bl	__aeabi_i2d
 287 007c 0020A0E1 		mov	r2, r0
 288 0080 0130A0E1 		mov	r3, r1
 289 0084 0400A0E1 		mov	r0, r4
 290 0088 0510A0E1 		mov	r1, r5
 291 008c FEFFFFEB 		bl	atan2
 292 0090 0040A0E1 		mov	r4, r0
 293 0094 0C0096E5 		ldr	r0, [r6, #12]	@ float
 294 0098 0150A0E1 		mov	r5, r1
 295 009c FEFFFFEB 		bl	__aeabi_f2d
 296 00a0 0020A0E1 		mov	r2, r0
 297 00a4 0130A0E1 		mov	r3, r1
 298 00a8 0400A0E1 		mov	r0, r4
 299 00ac 0510A0E1 		mov	r1, r5
 300 00b0 FEFFFFEB 		bl	__aeabi_dsub
 301 00b4 FEFFFFEB 		bl	__aeabi_d2f
 302 00b8 0080A0E1 		mov	r8, r0
 303 00bc FEFFFFEB 		bl	__aeabi_f2d
 304 00c0 C4209FE5 		ldr	r2, .L39+8
 305 00c4 C4309FE5 		ldr	r3, .L39+12
 306 00c8 0040A0E1 		mov	r4, r0
 307 00cc 0150A0E1 		mov	r5, r1
 308 00d0 FEFFFFEB 		bl	__aeabi_dcmplt
 309 00d4 000050E3 		cmp	r0, #0
 310 00d8 0510A0E1 		mov	r1, r5
 311 00dc 0400A0E1 		mov	r0, r4
 312 00e0 A4209FE5 		ldr	r2, .L39+8
 313 00e4 0200000A 		beq	.L33
 314 00e8 A4309FE5 		ldr	r3, .L39+16
 315 00ec FEFFFFEB 		bl	__aeabi_dadd
 316 00f0 090000EA 		b	.L36
 317              	.L33:
 318 00f4 9C309FE5 		ldr	r3, .L39+20
 319 00f8 FEFFFFEB 		bl	__aeabi_dcmpgt
 320 00fc 000050E3 		cmp	r0, #0
 321 0100 78808705 		streq	r8, [r7, #120]	@ float
 322 0104 0600000A 		beq	.L22
 323 0108 0400A0E1 		mov	r0, r4
 324 010c 0510A0E1 		mov	r1, r5
 325 0110 74209FE5 		ldr	r2, .L39+8
 326 0114 78309FE5 		ldr	r3, .L39+16
 327 0118 FEFFFFEB 		bl	__aeabi_dsub
 328              	.L36:
 329 011c FEFFFFEB 		bl	__aeabi_d2f
 330 0120 780087E5 		str	r0, [r7, #120]	@ float
 331              	.L22:
 332 0124 744097E5 		ldr	r4, [r7, #116]	@ float
 333 0128 0010A0E3 		mov	r1, #0
 334 012c 0400A0E1 		mov	r0, r4
 335 0130 FEFFFFEB 		bl	__aeabi_fcmpge
 336 0134 000050E3 		cmp	r0, #0
 337 0138 2C109615 		ldrne	r1, [r6, #44]	@ float
 338 013c 28109605 		ldreq	r1, [r6, #40]	@ float
 339 0140 0400A0E1 		mov	r0, r4
 340 0144 FEFFFFEB 		bl	__aeabi_fmul
 341 0148 38509FE5 		ldr	r5, .L39+4
 342 014c 784097E5 		ldr	r4, [r7, #120]	@ float
 343 0150 0010A0E3 		mov	r1, #0
 344 0154 740085E5 		str	r0, [r5, #116]	@ float
 345 0158 0400A0E1 		mov	r0, r4
 346 015c FEFFFFEB 		bl	__aeabi_fcmpge
 347 0160 000050E3 		cmp	r0, #0
 348 0164 30109615 		ldrne	r1, [r6, #48]	@ float
 349 0168 0400A0E1 		mov	r0, r4
 350 016c 34109605 		ldreq	r1, [r6, #52]	@ float
 351 0170 FEFFFFEB 		bl	__aeabi_fmul
 352 0174 0C509FE5 		ldr	r5, .L39+4
 353 0178 780085E5 		str	r0, [r5, #120]	@ float
 354 017c F041BDE8 		ldmfd	sp!, {r4, r5, r6, r7, r8, lr}
 355 0180 FEFFFFEA 		b	ahrs_update_fw_estimator
 356              	.L40:
 357              		.align	2
 358              	.L39:
 359 0184 00000000 		.word	infrared
 360 0188 00000000 		.word	ahrs_float
 361 018c 182D4454 		.word	1413754136
 362 0190 FB21F9BF 		.word	-1074191877
 363 0194 FB210940 		.word	1074340347
 364 0198 FB21F93F 		.word	1073291771
 366              		.ident	"GCC: (GNU Tools for ARM Embedded Processors) 4.8.3 20131129 (release) [ARM/embedded-4_8-br