Archive member included because of file (symbol)

/opt/gcc-arm-none-eabi-4_8-2013q4/bin/../lib/gcc/arm-none-eabi/4.8.3/../../../../arm-none-eabi/lib/thumb/libm.a(lib_a-s_atan.o)
                              /home/colibri/paparazziProto1/var/Colibri/ap/math/pprz_geodetic_float.o (atan)
/opt/gcc-arm-none-eabi-4_8-2013q4/bin/../lib/gcc/arm-none-eabi/4.8.3/../../../../arm-none-eabi/lib/thumb/libm.a(lib_a-s_cos.o)
                              /home/colibri/paparazziProto1/var/Colibri/ap/math/pprz_geodetic_float.o (cos)
/opt/gcc-arm-none-eabi-4_8-2013q4/bin/../lib/gcc/arm-none-eabi/4.8.3/../../../../arm-none-eabi/lib/thumb/libm.a(lib_a-s_fabs.o)
                              /opt/gcc-arm-none-eabi-4_8-2013q4/bin/../lib/gcc/arm-none-eabi/4.8.3/../../../../arm-none-eabi/lib/thumb/libm.a(lib_a-s_atan.o) (fabs)
/opt/gcc-arm-none-eabi-4_8-2013q4/bin/../lib/gcc/arm-none-eabi/4.8.3/../../../../arm-none-eabi/lib/thumb/libm.a(lib_a-s_rint.o)
                              /home/colibri/paparazziProto1/var/Colibri/ap/math/pprz_geodetic_int.o (rint)
/opt/gcc-arm-none-eabi-4_8-2013q4/bin/../lib/gcc/arm-none-eabi/4.8.3/../../../../arm-none-eabi/lib/thumb/libm.a(lib_a-s_sin.o)
                              /home/colibri/paparazziProto1/var/Colibri/ap/math/pprz_geodetic_float.o (sin)
/opt/gcc-arm-none-eabi-4_8-2013q4/bin/../lib/gcc/arm-none-eabi/4.8.3/../../../../arm-none-eabi/lib/thumb/libm.a(lib_a-s_tan.o)
                              /home/colibri/paparazziProto1/var/Colibri/ap/math/pprz_geodetic_float.o (tan)
/opt/gcc-arm-none-eabi-4_8-2013q4/bin/../lib/gcc/arm-none-eabi/4.8.3/../../../../arm-none-eabi/lib/thumb/libm.a(lib_a-sf_atan.o)
                              /home/colibri/paparazziProto1/var/Colibri/ap/math/pprz_geodetic_float.o (atanf)
/opt/gcc-arm-none-eabi-4_8-2013q4/bin/../lib/gcc/arm-none-eabi/4.8.3/../../../../arm-none-eabi/lib/thumb/libm.a(lib_a-sf_cos.o)
                              /home/colibri/paparazziProto1/var/Colibri/ap/math/pprz_geodetic_int.o (cosf)
/opt/gcc-arm-none-eabi-4_8-2013q4/bin/../lib/gcc/arm-none-eabi/4.8.3/../../../../arm-none-eabi/lib/thumb/libm.a(lib_a-sf_fabs.o)
                              /opt/gcc-arm-none-eabi-4_8-2013q4/bin/../lib/gcc/arm-none-eabi/4.8.3/../../../../arm-none-eabi/lib/thumb/libm.a(lib_a-sf_atan.o) (fabsf)
/opt/gcc-arm-none-eabi-4_8-2013q4/bin/../lib/gcc/arm-none-eabi/4.8.3/../../../../arm-none-eabi/lib/thumb/libm.a(lib_a-sf_sin.o)
                              /home/colibri/paparazziProto1/var/Colibri/ap/math/pprz_geodetic_int.o (sinf)
/opt/gcc-arm-none-eabi-4_8-2013q4/bin/../lib/gcc/arm-none-eabi/4.8.3/../../../../arm-none-eabi/lib/thumb/libm.a(lib_a-sf_tan.o)
                              /home/colibri/paparazziProto1/var/Colibri/ap/subsystems/navigation/poly_survey_adv.o (tanf)
/opt/gcc-arm-none-eabi-4_8-2013q4/bin/../lib/gcc/arm-none-eabi/4.8.3/../../../../arm-none-eabi/lib/thumb/libm.a(lib_a-w_acos.o)
                              /home/colibri/paparazziProto1/var/Colibri/ap/subsystems/navigation/snav.o (acos)
/opt/gcc-arm-none-eabi-4_8-2013q4/bin/../lib/gcc/arm-none-eabi/4.8.3/../../../../arm-none-eabi/lib/thumb/libm.a(lib_a-w_asin.o)
                              /home/colibri/paparazziProto1/var/Colibri/ap/math/pprz_geodetic_float.o (asin)
/opt/gcc-arm-none-eabi-4_8-2013q4/bin/../lib/gcc/arm-none-eabi/4.8.3/../../../../arm-none-eabi/lib/thumb/libm.a(lib_a-w_atan2.o)
                              /home/colibri/paparazziProto1/var/Colibri/ap/math/pprz_geodetic_double.o (atan2)
/opt/gcc-arm-none-eabi-4_8-2013q4/bin/../lib/gcc/arm-none-eabi/4.8.3/../../../../arm-none-eabi/lib/thumb/libm.a(lib_a-w_cosh.o)
                              /home/colibri/paparazziProto1/var/Colibri/ap/math/pprz_geodetic_float.o (cosh)
/opt/gcc-arm-none-eabi-4_8-2013q4/bin/../lib/gcc/arm-none-eabi/4.8.3/../../../../arm-none-eabi/lib/thumb/libm.a(lib_a-w_exp.o)
                              /home/colibri/paparazziProto1/var/Colibri/ap/math/pprz_geodetic_float.o (exp)
/opt/gcc-arm-none-eabi-4_8-2013q4/bin/../lib/gcc/arm-none-eabi/4.8.3/../../../../arm-none-eabi/lib/thumb/libm.a(lib_a-w_log.o)
                              /home/colibri/paparazziProto1/var/Colibri/ap/math/pprz_geodetic_float.o (log)
/opt/gcc-arm-none-eabi-4_8-2013q4/bin/../lib/gcc/arm-none-eabi/4.8.3/../../../../arm-none-eabi/lib/thumb/libm.a(lib_a-w_pow.o)
                              /home/colibri/paparazziProto1/var/Colibri/ap/math/pprz_geodetic_float.o (pow)
/opt/gcc-arm-none-eabi-4_8-2013q4/bin/../lib/gcc/arm-none-eabi/4.8.3/../../../../arm-none-eabi/lib/thumb/libm.a(lib_a-w_sinh.o)
                              /home/colibri/paparazziProto1/var/Colibri/ap/math/pprz_geodetic_float.o (sinh)
/opt/gcc-arm-none-eabi-4_8-2013q4/bin/../lib/gcc/arm-none-eabi/4.8.3/../../../../arm-none-eabi/lib/thumb/libm.a(lib_a-w_sqrt.o)
                              /home/colibri/paparazziProto1/var/Colibri/ap/math/pprz_geodetic_double.o (sqrt)
/opt/gcc-arm-none-eabi-4_8-2013q4/bin/../lib/gcc/arm-none-eabi/4.8.3/../../../../arm-none-eabi/lib/thumb/libm.a(lib_a-wf_atan2.o)
                              /home/colibri/paparazziProto1/var/Colibri/ap/math/pprz_geodetic_float.o (atan2f)
/opt/gcc-arm-none-eabi-4_8-2013q4/bin/../lib/gcc/arm-none-eabi/4.8.3/../../../../arm-none-eabi/lib/thumb/libm.a(lib_a-wf_pow.o)
                              /home/colibri/paparazziProto1/var/Colibri/ap/math/pprz_geodetic_float.o (powf)
/opt/gcc-arm-none-eabi-4_8-2013q4/bin/../lib/gcc/arm-none-eabi/4.8.3/../../../../arm-none-eabi/lib/thumb/libm.a(lib_a-wf_sqrt.o)
                              /home/colibri/paparazziProto1/var/Colibri/ap/math/pprz_geodetic_float.o (sqrtf)
/opt/gcc-arm-none-eabi-4_8-2013q4/bin/../lib/gcc/arm-none-eabi/4.8.3/../../../../arm-none-eabi/lib/thumb/libm.a(lib_a-e_acos.o)
                              /opt/gcc-arm-none-eabi-4_8-2013q4/bin/../lib/gcc/arm-none-eabi/4.8.3/../../../../arm-none-eabi/lib/thumb/libm.a(lib_a-w_acos.o) (__ieee754_acos)
/opt/gcc-arm-none-eabi-4_8-2013q4/bin/../lib/gcc/arm-none-eabi/4.8.3/../../../../arm-none-eabi/lib/thumb/libm.a(lib_a-e_asin.o)
                              /opt/gcc-arm-none-eabi-4_8-2013q4/bin/../lib/gcc/arm-none-eabi/4.8.3/../../../../arm-none-eabi/lib/thumb/libm.a(lib_a-w_asin.o) (__ieee754_asin)
/opt/gcc-arm-none-eabi-4_8-2013q4/bin/../lib/gcc/arm-none-eabi/4.8.3/../../../../arm-none-eabi/lib/thumb/libm.a(lib_a-e_atan2.o)
                              /opt/gcc-arm-none-eabi-4_8-2013q4/bin/../lib/gcc/arm-none-eabi/4.8.3/../../../../arm-none-eabi/lib/thumb/libm.a(lib_a-w_atan2.o) (__ieee754_atan2)
/opt/gcc-arm-none-eabi-4_8-2013q4/bin/../lib/gcc/arm-none-eabi/4.8.3/../../../../arm-none-eabi/lib/thumb/libm.a(lib_a-e_cosh.o)
                              /opt/gcc-arm-none-eabi-4_8-2013q4/bin/../lib/gcc/arm-none-eabi/4.8.3/../../../../arm-none-eabi/lib/thumb/libm.a(lib_a-w_cosh.o) (__ieee754_cosh)
/opt/gcc-arm-none-eabi-4_8-2013q4/bin/../lib/gcc/arm-none-eabi/4.8.3/../../../../arm-none-eabi/lib/thumb/libm.a(lib_a-e_exp.o)
                              /opt/gcc-arm-none-eabi-4_8-2013q4/bin/../lib/gcc/arm-none-eabi/4.8.3/../../../../arm-none-eabi/lib/thumb/libm.a(lib_a-w_exp.o) (__ieee754_exp)
/opt/gcc-arm-none-eabi-4_8-2013q4/bin/../lib/gcc/arm-none-eabi/4.8.3/../../../../arm-none-eabi/lib/thumb/libm.a(lib_a-e_log.o)
                              /opt/gcc-arm-none-eabi-4_8-2013q4/bin/../lib/gcc/arm-none-eabi/4.8.3/../../../../arm-none-eabi/lib/thumb/libm.a(lib_a-w_log.o) (__ieee754_log)
/opt/gcc-arm-none-eabi-4_8-2013q4/bin/../lib/gcc/arm-none-eabi/4.8.3/../../../../arm-none-eabi/lib/thumb/libm.a(lib_a-e_pow.o)
                              /opt/gcc-arm-none-eabi-4_8-2013q4/bin/../lib/gcc/arm-none-eabi/4.8.3/../../../../arm-none-eabi/lib/thumb/libm.a(lib_a-w_pow.o) (__ieee754_pow)
/opt/gcc-arm-none-eabi-4_8-2013q4/bin/../lib/gcc/arm-none-eabi/4.8.3/../../../../arm-none-eabi/lib/thumb/libm.a(lib_a-e_rem_pio2.o)
                              /opt/gcc-arm-none-eabi-4_8-2013q4/bin/../lib/gcc/arm-none-eabi/4.8.3/../../../../arm-none-eabi/lib/thumb/libm.a(lib_a-s_cos.o) (__ieee754_rem_pio2)
/opt/gcc-arm-none-eabi-4_8-2013q4/bin/../lib/gcc/arm-none-eabi/4.8.3/../../../../arm-none-eabi/lib/thumb/libm.a(lib_a-e_sinh.o)
                              /opt/gcc-arm-none-eabi-4_8-2013q4/bin/../lib/gcc/arm-none-eabi/4.8.3/../../../../arm-none-eabi/lib/thumb/libm.a(lib_a-w_sinh.o) (__ieee754_sinh)
/opt/gcc-arm-none-eabi-4_8-2013q4/bin/../lib/gcc/arm-none-eabi/4.8.3/../../../../arm-none-eabi/lib/thumb/libm.a(lib_a-e_sqrt.o)
                              /opt/gcc-arm-none-eabi-4_8-2013q4/bin/../lib/gcc/arm-none-eabi/4.8.3/../../../../arm-none-eabi/lib/thumb/libm.a(lib_a-w_sqrt.o) (__ieee754_sqrt)
/opt/gcc-arm-none-eabi-4_8-2013q4/bin/../lib/gcc/arm-none-eabi/4.8.3/../../../../arm-none-eabi/lib/thumb/libm.a(lib_a-ef_atan2.o)
                              /opt/gcc-arm-none-eabi-4_8-2013q4/bin/../lib/gcc/arm-none-eabi/4.8.3/../../../../arm-none-eabi/lib/thumb/libm.a(lib_a-wf_atan2.o) (__ieee754_atan2f)
/opt/gcc-arm-none-eabi-4_8-2013q4/bin/../lib/gcc/arm-none-eabi/4.8.3/../../../../arm-none-eabi/lib/thumb/libm.a(lib_a-ef_pow.o)
                              /opt/gcc-arm-none-eabi-4_8-2013q4/bin/../lib/gcc/arm-none-eabi/4.8.3/../../../../arm-none-eabi/lib/thumb/libm.a(lib_a-wf_pow.o) (__ieee754_powf)
/opt/gcc-arm-none-eabi-4_8-2013q4/bin/../lib/gcc/arm-none-eabi/4.8.3/../../../../arm-none-eabi/lib/thumb/libm.a(lib_a-ef_rem_pio2.o)
                              /opt/gcc-arm-none-eabi-4_8-2013q4/bin/../lib/gcc/arm-none-eabi/4.8.3/../../../../arm-none-eabi/lib/thumb/libm.a(lib_a-sf_cos.o) (__ieee754_rem_pio2f)
/opt/gcc-arm-none-eabi-4_8-2013q4/bin/../lib/gcc/arm-none-eabi/4.8.3/../../../../arm-none-eabi/lib/thumb/libm.a(lib_a-ef_sqrt.o)
                              /opt/gcc-arm-none-eabi-4_8-2013q4/bin/../lib/gcc/arm-none-eabi/4.8.3/../../../../arm-none-eabi/lib/thumb/libm.a(lib_a-wf_sqrt.o) (__ieee754_sqrtf)
/opt/gcc-arm-none-eabi-4_8-2013q4/bin/../lib/gcc/arm-none-eabi/4.8.3/../../../../arm-none-eabi/lib/thumb/libm.a(lib_a-k_cos.o)
                              /opt/gcc-arm-none-eabi-4_8-2013q4/bin/../lib/gcc/arm-none-eabi/4.8.3/../../../../arm-none-eabi/lib/thumb/libm.a(lib_a-s_cos.o) (__kernel_cos)
/opt/gcc-arm-none-eabi-4_8-2013q4/bin/../lib/gcc/arm-none-eabi/4.8.3/../../../../arm-none-eabi/lib/thumb/libm.a(lib_a-k_rem_pio2.o)
                              /opt/gcc-arm-none-eabi-4_8-2013q4/bin/../lib/gcc/arm-none-eabi/4.8.3/../../../../arm-none-eabi/lib/thumb/libm.a(lib_a-e_rem_pio2.o) (__kernel_rem_pio2)
/opt/gcc-arm-none-eabi-4_8-2013q4/bin/../lib/gcc/arm-none-eabi/4.8.3/../../../../arm-none-eabi/lib/thumb/libm.a(lib_a-k_sin.o)
                              /opt/gcc-arm-none-eabi-4_8-2013q4/bin/../lib/gcc/arm-none-eabi/4.8.3/../../../../arm-none-eabi/lib/thumb/libm.a(lib_a-s_cos.o) (__kernel_sin)
/opt/gcc-arm-none-eabi-4_8-2013q4/bin/../lib/gcc/arm-none-eabi/4.8.3/../../../../arm-none-eabi/lib/thumb/libm.a(lib_a-k_tan.o)
                              /opt/gcc-arm-none-eabi-4_8-2013q4/bin/../lib/gcc/arm-none-eabi/4.8.3/../../../../arm-none-eabi/lib/thumb/libm.a(lib_a-s_tan.o) (__kernel_tan)
/opt/gcc-arm-none-eabi-4_8-2013q4/bin/../lib/gcc/arm-none-eabi/4.8.3/../../../../arm-none-eabi/lib/thumb/libm.a(lib_a-kf_cos.o)
                              /opt/gcc-arm-none-eabi-4_8-2013q4/bin/../lib/gcc/arm-none-eabi/4.8.3/../../../../arm-none-eabi/lib/thumb/libm.a(lib_a-sf_cos.o) (__kernel_cosf)
/opt/gcc-arm-none-eabi-4_8-2013q4/bin/../lib/gcc/arm-none-eabi/4.8.3/../../../../arm-none-eabi/lib/thumb/libm.a(lib_a-kf_rem_pio2.o)
                              /opt/gcc-arm-none-eabi-4_8-2013q4/bin/../lib/gcc/arm-none-eabi/4.8.3/../../../../arm-none-eabi/lib/thumb/libm.a(lib_a-ef_rem_pio2.o) (__kernel_rem_pio2f)
/opt/gcc-arm-none-eabi-4_8-2013q4/bin/../lib/gcc/arm-none-eabi/4.8.3/../../../../arm-none-eabi/lib/thumb/libm.a(lib_a-kf_sin.o)
                              /opt/gcc-arm-none-eabi-4_8-2013q4/bin/../lib/gcc/arm-none-eabi/4.8.3/../../../../arm-none-eabi/lib/thumb/libm.a(lib_a-sf_cos.o) (__kernel_sinf)
/opt/gcc-arm-none-eabi-4_8-2013q4/bin/../lib/gcc/arm-none-eabi/4.8.3/../../../../arm-none-eabi/lib/thumb/libm.a(lib_a-kf_tan.o)
                              /opt/gcc-arm-none-eabi-4_8-2013q4/bin/../lib/gcc/arm-none-eabi/4.8.3/../../../../arm-none-eabi/lib/thumb/libm.a(lib_a-sf_tan.o) (__kernel_tanf)
/opt/gcc-arm-none-eabi-4_8-2013q4/bin/../lib/gcc/arm-none-eabi/4.8.3/../../../../arm-none-eabi/lib/thumb/libm.a(lib_a-s_expm1.o)
                              /opt/gcc-arm-none-eabi-4_8-2013q4/bin/../lib/gcc/arm-none-eabi/4.8.3/../../../../arm-none-eabi/lib/thumb/libm.a(lib_a-e_cosh.o) (expm1)
/opt/gcc-arm-none-eabi-4_8-2013q4/bin/../lib/gcc/arm-none-eabi/4.8.3/../../../../arm-none-eabi/lib/thumb/libm.a(lib_a-s_finite.o)
                              /opt/gcc-arm-none-eabi-4_8-2013q4/bin/../lib/gcc/arm-none-eabi/4.8.3/../../../../arm-none-eabi/lib/thumb/libm.a(lib_a-w_exp.o) (finite)
/opt/gcc-arm-none-eabi-4_8-2013q4/bin/../lib/gcc/arm-none-eabi/4.8.3/../../../../arm-none-eabi/lib/thumb/libm.a(lib_a-s_floor.o)
                              /opt/gcc-arm-none-eabi-4_8-2013q4/bin/../lib/gcc/arm-none-eabi/4.8.3/../../../../arm-none-eabi/lib/thumb/libm.a(lib_a-k_rem_pio2.o) (floor)
/opt/gcc-arm-none-eabi-4_8-2013q4/bin/../lib/gcc/arm-none-eabi/4.8.3/../../../../arm-none-eabi/lib/thumb/libm.a(lib_a-s_fpclassify.o)
                              /opt/gcc-arm-none-eabi-4_8-2013q4/bin/../lib/gcc/arm-none-eabi/4.8.3/../../../../arm-none-eabi/lib/thumb/libm.a(lib_a-w_acos.o) (__fpclassifyd)
/opt/gcc-arm-none-eabi-4_8-2013q4/bin/../lib/gcc/arm-none-eabi/4.8.3/../../../../arm-none-eabi/lib/thumb/libm.a(lib_a-s_lib_ver.o)
                              /opt/gcc-arm-none-eabi-4_8-2013q4/bin/../lib/gcc/arm-none-eabi/4.8.3/../../../../arm-none-eabi/lib/thumb/libm.a(lib_a-w_acos.o) (__fdlib_version)
/opt/gcc-arm-none-eabi-4_8-2013q4/bin/../lib/gcc/arm-none-eabi/4.8.3/../../../../arm-none-eabi/lib/thumb/libm.a(lib_a-s_matherr.o)
                              /opt/gcc-arm-none-eabi-4_8-2013q4/bin/../lib/gcc/arm-none-eabi/4.8.3/../../../../arm-none-eabi/lib/thumb/libm.a(lib_a-w_acos.o) (matherr)
/opt/gcc-arm-none-eabi-4_8-2013q4/bin/../lib/gcc/arm-none-eabi/4.8.3/../../../../arm-none-eabi/lib/thumb/libm.a(lib_a-s_nan.o)
                              /opt/gcc-arm-none-eabi-4_8-2013q4/bin/../lib/gcc/arm-none-eabi/4.8.3/../../../../arm-none-eabi/lib/thumb/libm.a(lib_a-w_acos.o) (nan)
/opt/gcc-arm-none-eabi-4_8-2013q4/bin/../lib/gcc/arm-none-eabi/4.8.3/../../../../arm-none-eabi/lib/thumb/libm.a(lib_a-s_scalbn.o)
                              /opt/gcc-arm-none-eabi-4_8-2013q4/bin/../lib/gcc/arm-none-eabi/4.8.3/../../../../arm-none-eabi/lib/thumb/libm.a(lib_a-e_pow.o) (scalbn)
/opt/gcc-arm-none-eabi-4_8-2013q4/bin/../lib/gcc/arm-none-eabi/4.8.3/../../../../arm-none-eabi/lib/thumb/libm.a(lib_a-sf_finite.o)
                              /opt/gcc-arm-none-eabi-4_8-2013q4/bin/../lib/gcc/arm-none-eabi/4.8.3/../../../../arm-none-eabi/lib/thumb/libm.a(lib_a-wf_pow.o) (finitef)
/opt/gcc-arm-none-eabi-4_8-2013q4/bin/../lib/gcc/arm-none-eabi/4.8.3/../../../../arm-none-eabi/lib/thumb/libm.a(lib_a-sf_floor.o)
                              /opt/gcc-arm-none-eabi-4_8-2013q4/bin/../lib/gcc/arm-none-eabi/4.8.3/../../../../arm-none-eabi/lib/thumb/libm.a(lib_a-kf_rem_pio2.o) (floorf)
/opt/gcc-arm-none-eabi-4_8-2013q4/bin/../lib/gcc/arm-none-eabi/4.8.3/../../../../arm-none-eabi/lib/thumb/libm.a(lib_a-sf_fpclassify.o)
                              /opt/gcc-arm-none-eabi-4_8-2013q4/bin/../lib/gcc/arm-none-eabi/4.8.3/../../../../arm-none-eabi/lib/thumb/libm.a(lib_a-wf_pow.o) (__fpclassifyf)
/opt/gcc-arm-none-eabi-4_8-2013q4/bin/../lib/gcc/arm-none-eabi/4.8.3/../../../../arm-none-eabi/lib/thumb/libm.a(lib_a-sf_nan.o)
                              /opt/gcc-arm-none-eabi-4_8-2013q4/bin/../lib/gcc/arm-none-eabi/4.8.3/../../../../arm-none-eabi/lib/thumb/libm.a(lib_a-ef_pow.o) (nanf)
/opt/gcc-arm-none-eabi-4_8-2013q4/bin/../lib/gcc/arm-none-eabi/4.8.3/../../../../arm-none-eabi/lib/thumb/libm.a(lib_a-sf_scalbn.o)
                              /opt/gcc-arm-none-eabi-4_8-2013q4/bin/../lib/gcc/arm-none-eabi/4.8.3/../../../../arm-none-eabi/lib/thumb/libm.a(lib_a-ef_pow.o) (scalbnf)
/opt/gcc-arm-none-eabi-4_8-2013q4/bin/../lib/gcc/arm-none-eabi/4.8.3/../../../../arm-none-eabi/lib/thumb/libm.a(lib_a-s_copysign.o)
                              /opt/gcc-arm-none-eabi-4_8-2013q4/bin/../lib/gcc/arm-none-eabi/4.8.3/../../../../arm-none-eabi/lib/thumb/libm.a(lib_a-s_scalbn.o) (copysign)
/opt/gcc-arm-none-eabi-4_8-2013q4/bin/../lib/gcc/arm-none-eabi/4.8.3/../../../../arm-none-eabi/lib/thumb/libm.a(lib_a-sf_copysign.o)
                              /opt/gcc-arm-none-eabi-4_8-2013q4/bin/../lib/gcc/arm-none-eabi/4.8.3/../../../../arm-none-eabi/lib/thumb/libm.a(lib_a-sf_scalbn.o) (copysignf)
/opt/gcc-arm-none-eabi-4_8-2013q4/bin/../lib/gcc/arm-none-eabi/4.8.3/../../../../arm-none-eabi/lib/thumb/libc.a(lib_a-errno.o)
                              /opt/gcc-arm-none-eabi-4_8-2013q4/bin/../lib/gcc/arm-none-eabi/4.8.3/../../../../arm-none-eabi/lib/thumb/libm.a(lib_a-w_acos.o) (__errno)
/opt/gcc-arm-none-eabi-4_8-2013q4/bin/../lib/gcc/arm-none-eabi/4.8.3/../../../../arm-none-eabi/lib/thumb/libc.a(lib_a-impure.o)
                              /opt/gcc-arm-none-eabi-4_8-2013q4/bin/../lib/gcc/arm-none-eabi/4.8.3/../../../../arm-none-eabi/lib/thumb/libc.a(lib_a-errno.o) (_impure_ptr)
/opt/gcc-arm-none-eabi-4_8-2013q4/bin/../lib/gcc/arm-none-eabi/4.8.3/thumb/libgcc.a(_udivsi3.o)
                              /home/colibri/paparazziProto1/var/Colibri/ap/subsystems/electrical.o (__aeabi_uidiv)
/opt/gcc-arm-none-eabi-4_8-2013q4/bin/../lib/gcc/arm-none-eabi/4.8.3/thumb/libgcc.a(_divsi3.o)
                              /home/colibri/paparazziProto1/var/Colibri/ap/arch/lpc21/mcu_periph/i2c_arch.o (__aeabi_idiv)
/opt/gcc-arm-none-eabi-4_8-2013q4/bin/../lib/gcc/arm-none-eabi/4.8.3/thumb/libgcc.a(_dvmd_tls.o)
                              /opt/gcc-arm-none-eabi-4_8-2013q4/bin/../lib/gcc/arm-none-eabi/4.8.3/thumb/libgcc.a(_udivsi3.o) (__aeabi_idiv0)
/opt/gcc-arm-none-eabi-4_8-2013q4/bin/../lib/gcc/arm-none-eabi/4.8.3/thumb/libgcc.a(_arm_addsubdf3.o)
                              /home/colibri/paparazziProto1/var/Colibri/ap/math/pprz_geodetic_float.o (__aeabi_dsub)
/opt/gcc-arm-none-eabi-4_8-2013q4/bin/../lib/gcc/arm-none-eabi/4.8.3/thumb/libgcc.a(_arm_muldivdf3.o)
                              /home/colibri/paparazziProto1/var/Colibri/ap/math/pprz_geodetic_int.o (__aeabi_dmul)
/opt/gcc-arm-none-eabi-4_8-2013q4/bin/../lib/gcc/arm-none-eabi/4.8.3/thumb/libgcc.a(_arm_cmpdf2.o)
                              /opt/gcc-arm-none-eabi-4_8-2013q4/bin/../lib/gcc/arm-none-eabi/4.8.3/../../../../arm-none-eabi/lib/thumb/libm.a(lib_a-w_log.o) (__aeabi_dcmpeq)
/opt/gcc-arm-none-eabi-4_8-2013q4/bin/../lib/gcc/arm-none-eabi/4.8.3/thumb/libgcc.a(_arm_fixdfsi.o)
                              /home/colibri/paparazziProto1/var/Colibri/ap/math/pprz_geodetic_int.o (__aeabi_d2iz)
/opt/gcc-arm-none-eabi-4_8-2013q4/bin/../lib/gcc/arm-none-eabi/4.8.3/thumb/libgcc.a(_arm_fixunsdfsi.o)
                              /home/colibri/paparazziProto1/var/Colibri/ap/mcu_periph/sys_time.o (__aeabi_d2uiz)
/opt/gcc-arm-none-eabi-4_8-2013q4/bin/../lib/gcc/arm-none-eabi/4.8.3/thumb/libgcc.a(_arm_truncdfsf2.o)
                              /home/colibri/paparazziProto1/var/Colibri/ap/math/pprz_geodetic_float.o (__aeabi_d2f)
/opt/gcc-arm-none-eabi-4_8-2013q4/bin/../lib/gcc/arm-none-eabi/4.8.3/thumb/libgcc.a(_arm_addsubsf3.o)
                              /home/colibri/paparazziProto1/var/Colibri/ap/math/pprz_geodetic_float.o (__aeabi_fsub)
/opt/gcc-arm-none-eabi-4_8-2013q4/bin/../lib/gcc/arm-none-eabi/4.8.3/thumb/libgcc.a(_arm_muldivsf3.o)
                              /home/colibri/paparazziProto1/var/Colibri/ap/math/pprz_geodetic_int.o (__aeabi_fmul)
/opt/gcc-arm-none-eabi-4_8-2013q4/bin/../lib/gcc/arm-none-eabi/4.8.3/thumb/libgcc.a(_arm_cmpsf2.o)
                              /home/colibri/paparazziProto1/var/Colibri/ap/subsystems/navigation/OSAMNav.o (__aeabi_fcmpeq)
/opt/gcc-arm-none-eabi-4_8-2013q4/bin/../lib/gcc/arm-none-eabi/4.8.3/thumb/libgcc.a(_arm_fixsfsi.o)
                              /home/colibri/paparazziProto1/var/Colibri/ap/firmwares/fixedwing/main_fbw.o (__aeabi_f2iz)
/opt/gcc-arm-none-eabi-4_8-2013q4/bin/../lib/gcc/arm-none-eabi/4.8.3/thumb/libgcc.a(_arm_fixunssfsi.o)
                              /home/colibri/paparazziProto1/var/Colibri/ap/subsystems/electrical.o (__aeabi_f2uiz)

Allocating common symbols
Common symbol       size              file

radio_control       0x12              /home/colibri/paparazziProto1/var/Colibri/ap/subsystems/radio_control.o
estimator_z_dot     0x4               /home/colibri/paparazziProto1/var/Colibri/ap/./estimator.o
dl_msg_available    0x1               /home/colibri/paparazziProto1/var/Colibri/ap/firmwares/fixedwing/datalink.o
h_ctl_auto1_rate    0x1               /home/colibri/paparazziProto1/var/Colibri/ap/firmwares/fixedwing/stabilization/stabilization_attitude.o
h_ctl_course_setpoint
                    0x4               /home/colibri/paparazziProto1/var/Colibri/ap/firmwares/fixedwing/stabilization/stabilization_attitude.o
estimator_flight_time
                    0x2               /home/colibri/paparazziProto1/var/Colibri/ap/./estimator.o
uart0               0x120             /home/colibri/paparazziProto1/var/Colibri/ap/mcu_periph/uart.o
v_ctl_auto_throttle_nominal_cruise_throttle
                    0x4               /home/colibri/paparazziProto1/var/Colibri/ap/firmwares/fixedwing/guidance/guidance_v.o
nav_glide_pitch_trim
                    0x4               /home/colibri/paparazziProto1/var/Colibri/ap/subsystems/nav.o
gps                 0xf4              /home/colibri/paparazziProto1/var/Colibri/ap/subsystems/gps.o
v_ctl_altitude_error
                    0x4               /home/colibri/paparazziProto1/var/Colibri/ap/firmwares/fixedwing/guidance/guidance_v.o
dist2_to_wp         0x4               /home/colibri/paparazziProto1/var/Colibri/ap/subsystems/nav.o
nav_segment_x_1     0x4               /home/colibri/paparazziProto1/var/Colibri/ap/subsystems/nav.o
ahrs                0x9c              /home/colibri/paparazziProto1/var/Colibri/ap/subsystems/ahrs.o
sweep_vec           0x8               /home/colibri/paparazziProto1/var/Colibri/ap/subsystems/navigation/poly_survey_adv.o
estimator_psi       0x4               /home/colibri/paparazziProto1/var/Colibri/ap/./estimator.o
estimator_z         0x4               /home/colibri/paparazziProto1/var/Colibri/ap/./estimator.o
combi_switch_status
                    0x1               /home/colibri/paparazziProto1/var/Colibri/ap/firmwares/fixedwing/main_ap.o
cube_alpha          0x4               /home/colibri/paparazziProto1/var/Colibri/ap/subsystems/navigation/nav_cube.o
desired_x           0x4               /home/colibri/paparazziProto1/var/Colibri/ap/subsystems/nav.o
nav_survey_east     0x4               /home/colibri/paparazziProto1/var/Colibri/ap/subsystems/nav.o
psa_sweep_width     0x4               /home/colibri/paparazziProto1/var/Colibri/ap/subsystems/navigation/poly_survey_adv.o
infrared            0x38              /home/colibri/paparazziProto1/var/Colibri/ap/subsystems/sensors/infrared.o
sys_time            0xac              /home/colibri/paparazziProto1/var/Colibri/ap/mcu_periph/sys_time.o
nav_segment_x_2     0x4               /home/colibri/paparazziProto1/var/Colibri/ap/subsystems/nav.o
navigation_tid      0x1               /home/colibri/paparazziProto1/var/Colibri/ap/firmwares/fixedwing/main_ap.o
rc_dl_frame_available
                    0x1               /home/colibri/paparazziProto1/var/Colibri/ap/subsystems/radio_control/rc_datalink.o
nav_circle_radius   0x4               /home/colibri/paparazziProto1/var/Colibri/ap/subsystems/nav.o
ck_b                0x1               /home/colibri/paparazziProto1/var/Colibri/ap/subsystems/datalink/pprz_transport.o
v_ctl_climb_mode    0x1               /home/colibri/paparazziProto1/var/Colibri/ap/firmwares/fixedwing/guidance/guidance_v.o
nav_ground_speed_setpoint
                    0x4               /home/colibri/paparazziProto1/var/Colibri/ap/subsystems/nav.o
nav_circle_radians  0x4               /home/colibri/paparazziProto1/var/Colibri/ap/subsystems/nav.o
h_ctl_roll_max_setpoint
                    0x4               /home/colibri/paparazziProto1/var/Colibri/ap/firmwares/fixedwing/stabilization/stabilization_attitude.o
fbw_periodic_tid    0x1               /home/colibri/paparazziProto1/var/Colibri/ap/firmwares/fixedwing/main_fbw.o
cube_offs_y         0x4               /home/colibri/paparazziProto1/var/Colibri/ap/subsystems/navigation/nav_cube.o
nav_throttle_setpoint
                    0x2               /home/colibri/paparazziProto1/var/Colibri/ap/subsystems/nav.o
ret_start           0x8               /home/colibri/paparazziProto1/var/Colibri/ap/subsystems/navigation/poly_survey_adv.o
estimator_t         0x4               /home/colibri/paparazziProto1/var/Colibri/ap/./estimator.o
h_ctl_course_pre_bank_correction
                    0x4               /home/colibri/paparazziProto1/var/Colibri/ap/firmwares/fixedwing/stabilization/stabilization_attitude.o
return_angle        0x4               /home/colibri/paparazziProto1/var/Colibri/ap/subsystems/navigation/poly_survey_adv.o
entry_center        0x8               /home/colibri/paparazziProto1/var/Colibri/ap/subsystems/navigation/poly_survey_adv.o
cube_size_x         0x4               /home/colibri/paparazziProto1/var/Colibri/ap/subsystems/navigation/nav_cube.o
wind_east           0x4               /home/colibri/paparazziProto1/var/Colibri/ap/./estimator.o
desired_y           0x4               /home/colibri/paparazziProto1/var/Colibri/ap/subsystems/nav.o
nav_shift           0x4               /home/colibri/paparazziProto1/var/Colibri/ap/subsystems/nav.o
uart1               0x120             /home/colibri/paparazziProto1/var/Colibri/ap/mcu_periph/uart.o
the_acs_id          0x100             /home/colibri/paparazziProto1/var/Colibri/ap/subsystems/navigation/traffic_info.o
carrot_x            0x4               /home/colibri/paparazziProto1/var/Colibri/ap/subsystems/nav.o
last_y              0x4               /home/colibri/paparazziProto1/var/Colibri/ap/subsystems/nav.o
v_ctl_auto_throttle_pitch_of_vz_dgain
                    0x4               /home/colibri/paparazziProto1/var/Colibri/ap/firmwares/fixedwing/guidance/guidance_v.o
the_acs             0x300             /home/colibri/paparazziProto1/var/Colibri/ap/subsystems/navigation/traffic_info.o
servos_4017_idx     0x1               /home/colibri/paparazziProto1/var/Colibri/ap/arch/lpc21/servos_4017_hw.o
PolySurveySweepBackNum
                    0x2               /home/colibri/paparazziProto1/var/Colibri/ap/subsystems/navigation/OSAMNav.o
horizontal_mode     0x1               /home/colibri/paparazziProto1/var/Colibri/ap/subsystems/nav.o
v_ctl_altitude_pre_climb_correction
                    0x4               /home/colibri/paparazziProto1/var/Colibri/ap/firmwares/fixedwing/guidance/guidance_v.o
monitor_tid         0x1               /home/colibri/paparazziProto1/var/Colibri/ap/firmwares/fixedwing/main_ap.o
estimator_airspeed  0x4               /home/colibri/paparazziProto1/var/Colibri/ap/./estimator.o
cube_offs_x         0x4               /home/colibri/paparazziProto1/var/Colibri/ap/subsystems/navigation/nav_cube.o
cube_offs_z         0x4               /home/colibri/paparazziProto1/var/Colibri/ap/subsystems/navigation/nav_cube.o
v_ctl_auto_throttle_sum_err
                    0x4               /home/colibri/paparazziProto1/var/Colibri/ap/firmwares/fixedwing/guidance/guidance_v.o
estimator_p         0x4               /home/colibri/paparazziProto1/var/Colibri/ap/./estimator.o
v_ctl_auto_throttle_submode
                    0x1               /home/colibri/paparazziProto1/var/Colibri/ap/firmwares/fixedwing/guidance/guidance_v.o
h_ctl_elevator_setpoint
                    0x2               /home/colibri/paparazziProto1/var/Colibri/ap/firmwares/fixedwing/stabilization/stabilization_attitude.o
fbw_mode            0x1               /home/colibri/paparazziProto1/var/Colibri/ap/firmwares/fixedwing/main_fbw.o
actuators           0x10              /home/colibri/paparazziProto1/var/Colibri/ap/actuators.o
cube_nline_z        0x4               /home/colibri/paparazziProto1/var/Colibri/ap/subsystems/navigation/nav_cube.o
settings_store_now  0x1               /home/colibri/paparazziProto1/var/Colibri/ap/subsystems/settings.o
rad_vec             0x8               /home/colibri/paparazziProto1/var/Colibri/ap/subsystems/navigation/poly_survey_adv.o
estimator_theta     0x4               /home/colibri/paparazziProto1/var/Colibri/ap/./estimator.o
nav_block           0x1               /home/colibri/paparazziProto1/var/Colibri/ap/subsystems/navigation/common_flight_plan.o
v_ctl_auto_throttle_pitch_of_vz_pgain
                    0x4               /home/colibri/paparazziProto1/var/Colibri/ap/firmwares/fixedwing/guidance/guidance_v.o
v_ctl_altitude_max_climb
                    0x4               /home/colibri/paparazziProto1/var/Colibri/ap/firmwares/fixedwing/guidance/guidance_v.o
nav_circle_y        0x4               /home/colibri/paparazziProto1/var/Colibri/ap/subsystems/nav.o
too_far_from_home   0x1               /home/colibri/paparazziProto1/var/Colibri/ap/subsystems/nav.o
cube_grid_z         0x4               /home/colibri/paparazziProto1/var/Colibri/ap/subsystems/navigation/nav_cube.o
segment_angle       0x4               /home/colibri/paparazziProto1/var/Colibri/ap/subsystems/navigation/poly_survey_adv.o
sensors_tid         0x1               /home/colibri/paparazziProto1/var/Colibri/ap/firmwares/fixedwing/main_ap.o
nav_pitch           0x4               /home/colibri/paparazziProto1/var/Colibri/ap/subsystems/nav.o
downlink_nb_ovrn    0x1               /home/colibri/paparazziProto1/var/Colibri/ap/subsystems/datalink/downlink.o
psa_shot_dist       0x4               /home/colibri/paparazziProto1/var/Colibri/ap/subsystems/navigation/poly_survey_adv.o
seg_center2         0x8               /home/colibri/paparazziProto1/var/Colibri/ap/subsystems/navigation/poly_survey_adv.o
ret_end             0x8               /home/colibri/paparazziProto1/var/Colibri/ap/subsystems/navigation/poly_survey_adv.o
poly_first          0x1               /home/colibri/paparazziProto1/var/Colibri/ap/subsystems/navigation/poly_survey_adv.o
h_ctl_aileron_of_throttle
                    0x4               /home/colibri/paparazziProto1/var/Colibri/ap/firmwares/fixedwing/stabilization/stabilization_attitude.o
estimator_hspeed_mod
                    0x4               /home/colibri/paparazziProto1/var/Colibri/ap/./estimator.o
estimator_phi       0x4               /home/colibri/paparazziProto1/var/Colibri/ap/./estimator.o
rc_pitch            0x4               /home/colibri/paparazziProto1/var/Colibri/ap/subsystems/nav.o
h_ctl_aileron_setpoint
                    0x2               /home/colibri/paparazziProto1/var/Colibri/ap/firmwares/fixedwing/stabilization/stabilization_attitude.o
v_ctl_altitude_setpoint
                    0x4               /home/colibri/paparazziProto1/var/Colibri/ap/firmwares/fixedwing/guidance/guidance_v.o
h_ctl_pitch_setpoint
                    0x4               /home/colibri/paparazziProto1/var/Colibri/ap/firmwares/fixedwing/stabilization/stabilization_attitude.o
servos_values       0x14              /home/colibri/paparazziProto1/var/Colibri/ap/arch/lpc21/servos_4017_hw.o
v_ctl_mode          0x1               /home/colibri/paparazziProto1/var/Colibri/ap/firmwares/fixedwing/guidance/guidance_v.o
v_ctl_auto_throttle_cruise_throttle
                    0x4               /home/colibri/paparazziProto1/var/Colibri/ap/firmwares/fixedwing/guidance/guidance_v.o
estimator_r         0x4               /home/colibri/paparazziProto1/var/Colibri/ap/./estimator.o
v_ctl_altitude_pgain
                    0x4               /home/colibri/paparazziProto1/var/Colibri/ap/firmwares/fixedwing/guidance/guidance_v.o
electrical          0xc               /home/colibri/paparazziProto1/var/Colibri/ap/subsystems/electrical.o
downlink_nb_msgs    0x2               /home/colibri/paparazziProto1/var/Colibri/ap/subsystems/datalink/downlink.o
h_ctl_roll_slew     0x4               /home/colibri/paparazziProto1/var/Colibri/ap/firmwares/fixedwing/stabilization/stabilization_attitude.o
estimator_x         0x4               /home/colibri/paparazziProto1/var/Colibri/ap/./estimator.o
ap_ok               0x1               /home/colibri/paparazziProto1/var/Colibri/ap/./inter_mcu.o
cube_size_z         0x4               /home/colibri/paparazziProto1/var/Colibri/ap/subsystems/navigation/nav_cube.o
downlink_nb_bytes   0x2               /home/colibri/paparazziProto1/var/Colibri/ap/subsystems/datalink/downlink.o
h_ctl_course_pgain  0x4               /home/colibri/paparazziProto1/var/Colibri/ap/firmwares/fixedwing/stabilization/stabilization_attitude.o
nav_oval_count      0x1               /home/colibri/paparazziProto1/var/Colibri/ap/subsystems/nav.o
nav_mode            0x4               /home/colibri/paparazziProto1/var/Colibri/ap/subsystems/nav.o
h_ctl_pitch_pgain   0x4               /home/colibri/paparazziProto1/var/Colibri/ap/firmwares/fixedwing/stabilization/stabilization_attitude.o
h_ctl_pitch_loop_setpoint
                    0x4               /home/colibri/paparazziProto1/var/Colibri/ap/firmwares/fixedwing/stabilization/stabilization_attitude.o
attitude_tid        0x1               /home/colibri/paparazziProto1/var/Colibri/ap/firmwares/fixedwing/main_ap.o
dist2_to_home       0x4               /home/colibri/paparazziProto1/var/Colibri/ap/subsystems/nav.o
nav_climb           0x4               /home/colibri/paparazziProto1/var/Colibri/ap/subsystems/nav.o
h_ctl_course_pre_bank
                    0x4               /home/colibri/paparazziProto1/var/Colibri/ap/firmwares/fixedwing/stabilization/stabilization_attitude.o
PolySurveySweepNum  0x2               /home/colibri/paparazziProto1/var/Colibri/ap/subsystems/navigation/OSAMNav.o
v_ctl_auto_pitch_pgain
                    0x4               /home/colibri/paparazziProto1/var/Colibri/ap/firmwares/fixedwing/guidance/guidance_v.o
last_x              0x4               /home/colibri/paparazziProto1/var/Colibri/ap/subsystems/nav.o
dl_buffer           0x80              /home/colibri/paparazziProto1/var/Colibri/ap/firmwares/fixedwing/datalink.o
acs_idx             0x1               /home/colibri/paparazziProto1/var/Colibri/ap/subsystems/navigation/traffic_info.o
last_block          0x1               /home/colibri/paparazziProto1/var/Colibri/ap/subsystems/navigation/common_flight_plan.o
estimator_AOA       0x4               /home/colibri/paparazziProto1/var/Colibri/ap/./estimator.o
app_intercept_af_tod
                    0x4               /home/colibri/paparazziProto1/var/Colibri/ap/subsystems/navigation/gls.o
v_ctl_auto_throttle_climb_throttle_increment
                    0x4               /home/colibri/paparazziProto1/var/Colibri/ap/firmwares/fixedwing/guidance/guidance_v.o
cube_size_y         0x4               /home/colibri/paparazziProto1/var/Colibri/ap/subsystems/navigation/nav_cube.o
v_ctl_auto_throttle_igain
                    0x4               /home/colibri/paparazziProto1/var/Colibri/ap/firmwares/fixedwing/guidance/guidance_v.o
poly_count          0x1               /home/colibri/paparazziProto1/var/Colibri/ap/subsystems/navigation/poly_survey_adv.o
gps_ubx             0x118             /home/colibri/paparazziProto1/var/Colibri/ap/subsystems/gps/gps_ubx.o
nav_survey_active   0x1               /home/colibri/paparazziProto1/var/Colibri/ap/subsystems/nav.o
h_ctl_pitch_dgain   0x4               /home/colibri/paparazziProto1/var/Colibri/ap/firmwares/fixedwing/stabilization/stabilization_attitude.o
time_since_last_ap  0x1               /home/colibri/paparazziProto1/var/Colibri/ap/./inter_mcu.o
v_ctl_auto_throttle_min_cruise_throttle
                    0x4               /home/colibri/paparazziProto1/var/Colibri/ap/firmwares/fixedwing/guidance/guidance_v.o
nav_stage           0x1               /home/colibri/paparazziProto1/var/Colibri/ap/subsystems/navigation/common_flight_plan.o
psa_stage           0x1               /home/colibri/paparazziProto1/var/Colibri/ap/subsystems/navigation/poly_survey_adv.o
oval_status         0x1               /home/colibri/paparazziProto1/var/Colibri/ap/subsystems/nav.o
energy              0x4               /home/colibri/paparazziProto1/var/Colibri/ap/firmwares/fixedwing/main_ap.o
last_stage          0x1               /home/colibri/paparazziProto1/var/Colibri/ap/subsystems/navigation/common_flight_plan.o
nav_ground_speed_pgain
                    0x4               /home/colibri/paparazziProto1/var/Colibri/ap/subsystems/nav.o
pprz_tp             0x108             /home/colibri/paparazziProto1/var/Colibri/ap/subsystems/datalink/pprz_transport.o
cube_grid_x         0x4               /home/colibri/paparazziProto1/var/Colibri/ap/subsystems/navigation/nav_cube.o
pers_settings       0x0               /home/colibri/paparazziProto1/var/Colibri/ap/subsystems/settings.o
v_ctl_throttle_setpoint
                    0x2               /home/colibri/paparazziProto1/var/Colibri/ap/firmwares/fixedwing/guidance/guidance_v.o
telemetry_tid       0x1               /home/colibri/paparazziProto1/var/Colibri/ap/firmwares/fixedwing/main_ap.o
v_ctl_climb_setpoint
                    0x4               /home/colibri/paparazziProto1/var/Colibri/ap/firmwares/fixedwing/guidance/guidance_v.o
estimator_q         0x4               /home/colibri/paparazziProto1/var/Colibri/ap/./estimator.o
dir_vec             0x8               /home/colibri/paparazziProto1/var/Colibri/ap/subsystems/navigation/poly_survey_adv.o
estimator_hspeed_dir
                    0x4               /home/colibri/paparazziProto1/var/Colibri/ap/./estimator.o
v_ctl_auto_throttle_dgain
                    0x4               /home/colibri/paparazziProto1/var/Colibri/ap/firmwares/fixedwing/guidance/guidance_v.o
ahrs_mag_offset     0x4               /home/colibri/paparazziProto1/var/Colibri/ap/subsystems/ahrs.o
ck_a                0x1               /home/colibri/paparazziProto1/var/Colibri/ap/subsystems/datalink/pprz_transport.o
electrical_tid      0x1               /home/colibri/paparazziProto1/var/Colibri/ap/firmwares/fixedwing/main_fbw.o
nav_circle_x        0x4               /home/colibri/paparazziProto1/var/Colibri/ap/subsystems/nav.o
nav_segment_y_2     0x4               /home/colibri/paparazziProto1/var/Colibri/ap/subsystems/nav.o
seg_end             0x8               /home/colibri/paparazziProto1/var/Colibri/ap/subsystems/navigation/poly_survey_adv.o
wind_north          0x4               /home/colibri/paparazziProto1/var/Colibri/ap/./estimator.o
datalink_time       0x2               /home/colibri/paparazziProto1/var/Colibri/ap/firmwares/fixedwing/datalink.o
snav_desired_tow    0x4               /home/colibri/paparazziProto1/var/Colibri/ap/subsystems/navigation/snav.o
h_ctl_course_dgain  0x4               /home/colibri/paparazziProto1/var/Colibri/ap/firmwares/fixedwing/stabilization/stabilization_attitude.o
power_switch        0x1               /home/colibri/paparazziProto1/var/Colibri/ap/firmwares/fixedwing/main_ap.o
psa_min_rad         0x4               /home/colibri/paparazziProto1/var/Colibri/ap/subsystems/navigation/poly_survey_adv.o
app_angle           0x4               /home/colibri/paparazziProto1/var/Colibri/ap/subsystems/navigation/gls.o
nav_segment_y_1     0x4               /home/colibri/paparazziProto1/var/Colibri/ap/subsystems/nav.o
target_speed        0x4               /home/colibri/paparazziProto1/var/Colibri/ap/subsystems/navigation/gls.o
combi_switch_value  0x4               /home/colibri/paparazziProto1/var/Colibri/ap/firmwares/fixedwing/main_ap.o
h_ctl_roll_attitude_gain
                    0x4               /home/colibri/paparazziProto1/var/Colibri/ap/firmwares/fixedwing/stabilization/stabilization_attitude.o
h_ctl_roll_rate_gain
                    0x4               /home/colibri/paparazziProto1/var/Colibri/ap/firmwares/fixedwing/stabilization/stabilization_attitude.o
h_ctl_disabled      0x1               /home/colibri/paparazziProto1/var/Colibri/ap/firmwares/fixedwing/stabilization/stabilization_attitude.o
rc_dl_values        0x5               /home/colibri/paparazziProto1/var/Colibri/ap/subsystems/radio_control/rc_datalink.o
modules_tid         0x1               /home/colibri/paparazziProto1/var/Colibri/ap/firmwares/fixedwing/main_ap.o
commands            0xa               /home/colibri/paparazziProto1/var/Colibri/ap/./commands.o
ground_alt          0x4               /home/colibri/paparazziProto1/var/Colibri/ap/subsystems/nav.o
nav_survey_west     0x4               /home/colibri/paparazziProto1/var/Colibri/ap/subsystems/nav.o
v_ctl_auto_pitch_igain
                    0x4               /home/colibri/paparazziProto1/var/Colibri/ap/firmwares/fixedwing/guidance/guidance_v.o
ahrs_float          0xbc              /home/colibri/paparazziProto1/var/Colibri/ap/subsystems/ahrs.o
h_ctl_roll_pgain    0x4               /home/colibri/paparazziProto1/var/Colibri/ap/firmwares/fixedwing/stabilization/stabilization_attitude.o
v_ctl_altitude_pre_climb
                    0x4               /home/colibri/paparazziProto1/var/Colibri/ap/firmwares/fixedwing/guidance/guidance_v.o
nav_radius          0x4               /home/colibri/paparazziProto1/var/Colibri/ap/subsystems/nav.o
nav_course          0x4               /home/colibri/paparazziProto1/var/Colibri/ap/subsystems/nav.o
nav_survey_shift    0x4               /home/colibri/paparazziProto1/var/Colibri/ap/subsystems/nav.o
carrot_y            0x4               /home/colibri/paparazziProto1/var/Colibri/ap/subsystems/nav.o
v_ctl_auto_throttle_max_cruise_throttle
                    0x4               /home/colibri/paparazziProto1/var/Colibri/ap/firmwares/fixedwing/guidance/guidance_v.o
v_ctl_throttle_slewed
                    0x2               /home/colibri/paparazziProto1/var/Colibri/ap/firmwares/fixedwing/guidance/guidance_v.o
seg_center1         0x8               /home/colibri/paparazziProto1/var/Colibri/ap/subsystems/navigation/poly_survey_adv.o
alt_kalman_enabled  0x1               /home/colibri/paparazziProto1/var/Colibri/ap/./estimator.o
psa_altitude        0x4               /home/colibri/paparazziProto1/var/Colibri/ap/subsystems/navigation/poly_survey_adv.o
ir_adc              0x6               /home/colibri/paparazziProto1/var/Colibri/ap/subsystems/sensors/infrared_adc.o
stage_time          0x2               /home/colibri/paparazziProto1/var/Colibri/ap/subsystems/navigation/common_flight_plan.o
h_ctl_roll_setpoint
                    0x4               /home/colibri/paparazziProto1/var/Colibri/ap/firmwares/fixedwing/stabilization/stabilization_attitude.o
seg_start           0x8               /home/colibri/paparazziProto1/var/Colibri/ap/subsystems/navigation/poly_survey_adv.o
estimator_y         0x4               /home/colibri/paparazziProto1/var/Colibri/ap/./estimator.o
cube_nline_x        0x4               /home/colibri/paparazziProto1/var/Colibri/ap/subsystems/navigation/nav_cube.o
nav_survey_south    0x4               /home/colibri/paparazziProto1/var/Colibri/ap/subsystems/nav.o
v_ctl_auto_throttle_pgain
                    0x4               /home/colibri/paparazziProto1/var/Colibri/ap/firmwares/fixedwing/guidance/guidance_v.o
vsupply             0x2               /home/colibri/paparazziProto1/var/Colibri/ap/firmwares/fixedwing/main_ap.o
block_time          0x2               /home/colibri/paparazziProto1/var/Colibri/ap/subsystems/navigation/common_flight_plan.o
nav_circle_trigo_qdr
                    0x4               /home/colibri/paparazziProto1/var/Colibri/ap/subsystems/nav.o
fp_pitch            0x4               /home/colibri/paparazziProto1/var/Colibri/ap/subsystems/nav.o
flight_altitude     0x4               /home/colibri/paparazziProto1/var/Colibri/ap/subsystems/nav.o
nav_survey_north    0x4               /home/colibri/paparazziProto1/var/Colibri/ap/subsystems/nav.o
h_ctl_elevator_of_roll
                    0x4               /home/colibri/paparazziProto1/var/Colibri/ap/firmwares/fixedwing/stabilization/stabilization_attitude.o
v_ctl_auto_pitch_sum_err
                    0x4               /home/colibri/paparazziProto1/var/Colibri/ap/firmwares/fixedwing/guidance/guidance_v.o

Discarded input sections

 .text          0x00000000        0x0 /home/colibri/paparazziProto1/var/Colibri/ap/crt0.o
 .data          0x00000000        0x0 /home/colibri/paparazziProto1/var/Colibri/ap/crt0.o
 .bss           0x00000000        0x0 /home/colibri/paparazziProto1/var/Colibri/ap/crt0.o
 .text          0x00000000        0x0 /home/colibri/paparazziProto1/var/Colibri/ap/mcu.o
 .data          0x00000000        0x0 /home/colibri/paparazziProto1/var/Colibri/ap/mcu.o
 .bss           0x00000000        0x0 /home/colibri/paparazziProto1/var/Colibri/ap/mcu.o
 .text          0x00000000        0x0 /home/colibri/paparazziProto1/var/Colibri/ap/arch/lpc21/mcu_arch.o
 .data          0x00000000        0x0 /home/colibri/paparazziProto1/var/Colibri/ap/arch/lpc21/mcu_arch.o
 .bss           0x00000000        0x0 /home/colibri/paparazziProto1/var/Colibri/ap/arch/lpc21/mcu_arch.o
 .text          0x00000000        0x0 /home/colibri/paparazziProto1/var/Colibri/ap/mcu_periph/sys_time.o
 .data          0x00000000        0x0 /home/colibri/paparazziProto1/var/Colibri/ap/mcu_periph/sys_time.o
 .bss           0x00000000        0x0 /home/colibri/paparazziProto1/var/Colibri/ap/mcu_periph/sys_time.o
 .text.sys_time_cancel_timer
                0x00000000       0x1c /home/colibri/paparazziProto1/var/Colibri/ap/mcu_periph/sys_time.o
 .text.sys_time_update_timer
                0x00000000       0x74 /home/colibri/paparazziProto1/var/Colibri/ap/mcu_periph/sys_time.o
 .text          0x00000000        0x0 /home/colibri/paparazziProto1/var/Colibri/ap/arch/lpc21/mcu_periph/sys_time_arch.o
 .data          0x00000000        0x0 /home/colibri/paparazziProto1/var/Colibri/ap/arch/lpc21/mcu_periph/sys_time_arch.o
 .bss           0x00000000        0x0 /home/colibri/paparazziProto1/var/Colibri/ap/arch/lpc21/mcu_periph/sys_time_arch.o
 .text          0x00000000        0x0 /home/colibri/paparazziProto1/var/Colibri/ap/./inter_mcu.o
 .data          0x00000000        0x0 /home/colibri/paparazziProto1/var/Colibri/ap/./inter_mcu.o
 .bss           0x00000000        0x0 /home/colibri/paparazziProto1/var/Colibri/ap/./inter_mcu.o
 .text          0x00000000        0x0 /home/colibri/paparazziProto1/var/Colibri/ap/math/pprz_geodetic_int.o
 .data          0x00000000        0x0 /home/colibri/paparazziProto1/var/Colibri/ap/math/pprz_geodetic_int.o
 .bss           0x00000000        0x0 /home/colibri/paparazziProto1/var/Colibri/ap/math/pprz_geodetic_int.o
 .text.enu_of_ecef_point_i
                0x00000000       0x94 /home/colibri/paparazziProto1/var/Colibri/ap/math/pprz_geodetic_int.o
 .text.ned_of_ecef_point_i
                0x00000000       0x38 /home/colibri/paparazziProto1/var/Colibri/ap/math/pprz_geodetic_int.o
 .text.enu_of_ecef_vect_i
                0x00000000       0x7c /home/colibri/paparazziProto1/var/Colibri/ap/math/pprz_geodetic_int.o
 .text.ned_of_ecef_vect_i
                0x00000000       0x38 /home/colibri/paparazziProto1/var/Colibri/ap/math/pprz_geodetic_int.o
 .text.ecef_of_enu_point_i
                0x00000000       0x9c /home/colibri/paparazziProto1/var/Colibri/ap/math/pprz_geodetic_int.o
 .text.ecef_of_ned_point_i
                0x00000000       0x34 /home/colibri/paparazziProto1/var/Colibri/ap/math/pprz_geodetic_int.o
 .text.ecef_of_enu_vect_i
                0x00000000       0x78 /home/colibri/paparazziProto1/var/Colibri/ap/math/pprz_geodetic_int.o
 .text.ecef_of_ned_vect_i
                0x00000000       0x34 /home/colibri/paparazziProto1/var/Colibri/ap/math/pprz_geodetic_int.o
 .text.lla_of_ecef_i
                0x00000000       0xe0 /home/colibri/paparazziProto1/var/Colibri/ap/math/pprz_geodetic_int.o
 .text.ltp_def_from_ecef_i
                0x00000000      0x174 /home/colibri/paparazziProto1/var/Colibri/ap/math/pprz_geodetic_int.o
 .text.ecef_of_lla_i
                0x00000000       0xd8 /home/colibri/paparazziProto1/var/Colibri/ap/math/pprz_geodetic_int.o
 .text.ltp_def_from_lla_i
                0x00000000      0x170 /home/colibri/paparazziProto1/var/Colibri/ap/math/pprz_geodetic_int.o
 .text.enu_of_lla_point_i
                0x00000000       0x38 /home/colibri/paparazziProto1/var/Colibri/ap/math/pprz_geodetic_int.o
 .text.ned_of_lla_point_i
                0x00000000       0x38 /home/colibri/paparazziProto1/var/Colibri/ap/math/pprz_geodetic_int.o
 .text.enu_of_lla_vect_i
                0x00000000       0x38 /home/colibri/paparazziProto1/var/Colibri/ap/math/pprz_geodetic_int.o
 .text.ned_of_lla_vect_i
                0x00000000       0x38 /home/colibri/paparazziProto1/var/Colibri/ap/math/pprz_geodetic_int.o
 .comment       0x00000000       0x71 /home/colibri/paparazziProto1/var/Colibri/ap/math/pprz_geodetic_int.o
 .ARM.attributes
                0x00000000       0x30 /home/colibri/paparazziProto1/var/Colibri/ap/math/pprz_geodetic_int.o
 .text          0x00000000        0x0 /home/colibri/paparazziProto1/var/Colibri/ap/math/pprz_geodetic_float.o
 .data          0x00000000        0x0 /home/colibri/paparazziProto1/var/Colibri/ap/math/pprz_geodetic_float.o
 .bss           0x00000000        0x0 /home/colibri/paparazziProto1/var/Colibri/ap/math/pprz_geodetic_float.o
 .text.enu_of_ecef_point_f
                0x00000000      0x120 /home/colibri/paparazziProto1/var/Colibri/ap/math/pprz_geodetic_float.o
 .text.ned_of_ecef_point_f
                0x00000000       0x38 /home/colibri/paparazziProto1/var/Colibri/ap/math/pprz_geodetic_float.o
 .text.enu_of_ecef_vect_f
                0x00000000       0xf8 /home/colibri/paparazziProto1/var/Colibri/ap/math/pprz_geodetic_float.o
 .text.ned_of_ecef_vect_f
                0x00000000       0x38 /home/colibri/paparazziProto1/var/Colibri/ap/math/pprz_geodetic_float.o
 .text.ecef_of_enu_point_f
                0x00000000      0x1ec /home/colibri/paparazziProto1/var/Colibri/ap/math/pprz_geodetic_float.o
 .text.ecef_of_ned_point_f
                0x00000000       0x34 /home/colibri/paparazziProto1/var/Colibri/ap/math/pprz_geodetic_float.o
 .text.ecef_of_enu_vect_f
                0x00000000      0x1d4 /home/colibri/paparazziProto1/var/Colibri/ap/math/pprz_geodetic_float.o
 .text.ecef_of_ned_vect_f
                0x00000000       0x34 /home/colibri/paparazziProto1/var/Colibri/ap/math/pprz_geodetic_float.o
 .text.lla_of_ecef_f
                0x00000000      0x378 /home/colibri/paparazziProto1/var/Colibri/ap/math/pprz_geodetic_float.o
 .text.ltp_def_from_ecef_f
                0x00000000       0xcc /home/colibri/paparazziProto1/var/Colibri/ap/math/pprz_geodetic_float.o
 .text.ecef_of_lla_f
                0x00000000      0x128 /home/colibri/paparazziProto1/var/Colibri/ap/math/pprz_geodetic_float.o
 .text.ltp_def_from_lla_f
                0x00000000       0xc8 /home/colibri/paparazziProto1/var/Colibri/ap/math/pprz_geodetic_float.o
 .text.enu_of_lla_point_f
                0x00000000       0x38 /home/colibri/paparazziProto1/var/Colibri/ap/math/pprz_geodetic_float.o
 .text.ned_of_lla_point_f
                0x00000000       0x38 /home/colibri/paparazziProto1/var/Colibri/ap/math/pprz_geodetic_float.o
 .text.lla_of_utm_f
                0x00000000      0x360 /home/colibri/paparazziProto1/var/Colibri/ap/math/pprz_geodetic_float.o
 .text          0x00000000        0x0 /home/colibri/paparazziProto1/var/Colibri/ap/math/pprz_geodetic_double.o
 .data          0x00000000        0x0 /home/colibri/paparazziProto1/var/Colibri/ap/math/pprz_geodetic_double.o
 .bss           0x00000000        0x0 /home/colibri/paparazziProto1/var/Colibri/ap/math/pprz_geodetic_double.o
 .text.lla_of_ecef_d
                0x00000000      0x534 /home/colibri/paparazziProto1/var/Colibri/ap/math/pprz_geodetic_double.o
 .text.ltp_def_from_ecef_d
                0x00000000      0x174 /home/colibri/paparazziProto1/var/Colibri/ap/math/pprz_geodetic_double.o
 .text.ecef_of_lla_d
                0x00000000      0x184 /home/colibri/paparazziProto1/var/Colibri/ap/math/pprz_geodetic_double.o
 .text.enu_of_ecef_point_d
                0x00000000      0x1c8 /home/colibri/paparazziProto1/var/Colibri/ap/math/pprz_geodetic_double.o
 .text.ned_of_ecef_point_d
                0x00000000       0x4c /home/colibri/paparazziProto1/var/Colibri/ap/math/pprz_geodetic_double.o
 .text.enu_of_ecef_vect_d
                0x00000000      0x194 /home/colibri/paparazziProto1/var/Colibri/ap/math/pprz_geodetic_double.o
 .text.ned_of_ecef_vect_d
                0x00000000       0x4c /home/colibri/paparazziProto1/var/Colibri/ap/math/pprz_geodetic_double.o
 .text.ecef_of_enu_point_d
                0x00000000      0x1fc /home/colibri/paparazziProto1/var/Colibri/ap/math/pprz_geodetic_double.o
 .text.ecef_of_ned_point_d
                0x00000000       0x48 /home/colibri/paparazziProto1/var/Colibri/ap/math/pprz_geodetic_double.o
 .text.ecef_of_enu_vect_d
                0x00000000      0x194 /home/colibri/paparazziProto1/var/Colibri/ap/math/pprz_geodetic_double.o
 .text.ecef_of_ned_vect_d
                0x00000000       0x48 /home/colibri/paparazziProto1/var/Colibri/ap/math/pprz_geodetic_double.o
 .text.gc_of_gd_lat_d
                0x00000000      0x148 /home/colibri/paparazziProto1/var/Colibri/ap/math/pprz_geodetic_double.o
 .text.lla_of_utm_d
                0x00000000      0x460 /home/colibri/paparazziProto1/var/Colibri/ap/math/pprz_geodetic_double.o
 .comment       0x00000000       0x71 /home/colibri/paparazziProto1/var/Colibri/ap/math/pprz_geodetic_double.o
 .ARM.attributes
                0x00000000       0x30 /home/colibri/paparazziProto1/var/Colibri/ap/math/pprz_geodetic_double.o
 .text          0x00000000        0x0 /home/colibri/paparazziProto1/var/Colibri/ap/math/pprz_trig_int.o
 .data          0x00000000        0x0 /home/colibri/paparazziProto1/var/Colibri/ap/math/pprz_trig_int.o
 .bss           0x00000000        0x0 /home/colibri/paparazziProto1/var/Colibri/ap/math/pprz_trig_int.o
 .data.pprz_trig_int
                0x00000000     0x3244 /home/colibri/paparazziProto1/var/Colibri/ap/math/pprz_trig_int.o
 .comment       0x00000000       0x71 /home/colibri/paparazziProto1/var/Colibri/ap/math/pprz_trig_int.o
 .ARM.attributes
                0x00000000       0x30 /home/colibri/paparazziProto1/var/Colibri/ap/math/pprz_trig_int.o
 .text          0x00000000        0x0 /home/colibri/paparazziProto1/var/Colibri/ap/mcu_periph/i2c.o
 .data          0x00000000        0x0 /home/colibri/paparazziProto1/var/Colibri/ap/mcu_periph/i2c.o
 .bss           0x00000000        0x0 /home/colibri/paparazziProto1/var/Colibri/ap/mcu_periph/i2c.o
 .text.i2c_init
                0x00000000       0x14 /home/colibri/paparazziProto1/var/Colibri/ap/mcu_periph/i2c.o
 .comment       0x00000000       0x71 /home/colibri/paparazziProto1/var/Colibri/ap/mcu_periph/i2c.o
 .ARM.attributes
                0x00000000       0x30 /home/colibri/paparazziProto1/var/Colibri/ap/mcu_periph/i2c.o
 .text          0x00000000        0x0 /home/colibri/paparazziProto1/var/Colibri/ap/arch/lpc21/mcu_periph/i2c_arch.o
 .data          0x00000000        0x0 /home/colibri/paparazziProto1/var/Colibri/ap/arch/lpc21/mcu_periph/i2c_arch.o
 .bss           0x00000000        0x0 /home/colibri/paparazziProto1/var/Colibri/ap/arch/lpc21/mcu_periph/i2c_arch.o
 .text.i2c_idle
                0x00000000       0x10 /home/colibri/paparazziProto1/var/Colibri/ap/arch/lpc21/mcu_periph/i2c_arch.o
 .text.i2c_submit
                0x00000000       0x78 /home/colibri/paparazziProto1/var/Colibri/ap/arch/lpc21/mcu_periph/i2c_arch.o
 .text.i2c_setbitrate
                0x00000000       0x4c /home/colibri/paparazziProto1/var/Colibri/ap/arch/lpc21/mcu_periph/i2c_arch.o
 .text          0x00000000        0x0 /home/colibri/paparazziProto1/var/Colibri/ap/firmwares/fixedwing/main_fbw.o
 .data          0x00000000        0x0 /home/colibri/paparazziProto1/var/Colibri/ap/firmwares/fixedwing/main_fbw.o
 .bss           0x00000000        0x0 /home/colibri/paparazziProto1/var/Colibri/ap/firmwares/fixedwing/main_fbw.o
 .text          0x00000000        0x0 /home/colibri/paparazziProto1/var/Colibri/ap/subsystems/electrical.o
 .data          0x00000000        0x0 /home/colibri/paparazziProto1/var/Colibri/ap/subsystems/electrical.o
 .bss           0x00000000        0x0 /home/colibri/paparazziProto1/var/Colibri/ap/subsystems/electrical.o
 .text          0x00000000        0x0 /home/colibri/paparazziProto1/var/Colibri/ap/./commands.o
 .data          0x00000000        0x0 /home/colibri/paparazziProto1/var/Colibri/ap/./commands.o
 .bss           0x00000000        0x0 /home/colibri/paparazziProto1/var/Colibri/ap/./commands.o
 .text          0x00000000        0x0 /home/colibri/paparazziProto1/var/Colibri/ap/firmwares/fixedwing/fbw_downlink.o
 .data          0x00000000        0x0 /home/colibri/paparazziProto1/var/Colibri/ap/firmwares/fixedwing/fbw_downlink.o
 .bss           0x00000000        0x0 /home/colibri/paparazziProto1/var/Colibri/ap/firmwares/fixedwing/fbw_downlink.o
 .text          0x00000000        0x0 /home/colibri/paparazziProto1/var/Colibri/ap/firmwares/fixedwing/main_ap.o
 .data          0x00000000        0x0 /home/colibri/paparazziProto1/var/Colibri/ap/firmwares/fixedwing/main_ap.o
 .bss           0x00000000        0x0 /home/colibri/paparazziProto1/var/Colibri/ap/firmwares/fixedwing/main_ap.o
 .text.sensors_task
                0x00000000        0x4 /home/colibri/paparazziProto1/var/Colibri/ap/firmwares/fixedwing/main_ap.o
 .bss.gps_lost  0x00000000        0x1 /home/colibri/paparazziProto1/var/Colibri/ap/firmwares/fixedwing/main_ap.o
 .text          0x00000000        0x0 /home/colibri/paparazziProto1/var/Colibri/ap/./estimator.o
 .data          0x00000000        0x0 /home/colibri/paparazziProto1/var/Colibri/ap/./estimator.o
 .bss           0x00000000        0x0 /home/colibri/paparazziProto1/var/Colibri/ap/./estimator.o
 .text          0x00000000        0x0 /home/colibri/paparazziProto1/var/Colibri/ap/firmwares/fixedwing/ap_downlink.o
 .data          0x00000000        0x0 /home/colibri/paparazziProto1/var/Colibri/ap/firmwares/fixedwing/ap_downlink.o
 .bss           0x00000000        0x0 /home/colibri/paparazziProto1/var/Colibri/ap/firmwares/fixedwing/ap_downlink.o
 .text          0x00000000        0x0 /home/colibri/paparazziProto1/var/Colibri/ap/arch/lpc21/armVIC.o
 .data          0x00000000        0x0 /home/colibri/paparazziProto1/var/Colibri/ap/arch/lpc21/armVIC.o
 .bss           0x00000000        0x0 /home/colibri/paparazziProto1/var/Colibri/ap/arch/lpc21/armVIC.o
 .text.disableFIQ
                0x00000000       0x10 /home/colibri/paparazziProto1/var/Colibri/ap/arch/lpc21/armVIC.o
 .text.restoreFIQ
                0x00000000       0x1c /home/colibri/paparazziProto1/var/Colibri/ap/arch/lpc21/armVIC.o
 .text.enableFIQ
                0x00000000       0x10 /home/colibri/paparazziProto1/var/Colibri/ap/arch/lpc21/armVIC.o
 .text          0x00000000        0x0 /home/colibri/paparazziProto1/var/Colibri/ap/firmwares/fixedwing/main.o
 .data          0x00000000        0x0 /home/colibri/paparazziProto1/var/Colibri/ap/firmwares/fixedwing/main.o
 .bss           0x00000000        0x0 /home/colibri/paparazziProto1/var/Colibri/ap/firmwares/fixedwing/main.o
 .text          0x00000000        0x0 /home/colibri/paparazziProto1/var/Colibri/ap/mcu_periph/uart.o
 .data          0x00000000        0x0 /home/colibri/paparazziProto1/var/Colibri/ap/mcu_periph/uart.o
 .bss           0x00000000        0x0 /home/colibri/paparazziProto1/var/Colibri/ap/mcu_periph/uart.o
 .text          0x00000000        0x0 /home/colibri/paparazziProto1/var/Colibri/ap/arch/lpc21/mcu_periph/uart_arch.o
 .data          0x00000000        0x0 /home/colibri/paparazziProto1/var/Colibri/ap/arch/lpc21/mcu_periph/uart_arch.o
 .bss           0x00000000        0x0 /home/colibri/paparazziProto1/var/Colibri/ap/arch/lpc21/mcu_periph/uart_arch.o
 .text.uart_periph_set_baudrate
                0x00000000       0x3c /home/colibri/paparazziProto1/var/Colibri/ap/arch/lpc21/mcu_periph/uart_arch.o
 .text          0x00000000        0x0 /home/colibri/paparazziProto1/var/Colibri/ap/subsystems/settings.o
 .data          0x00000000        0x0 /home/colibri/paparazziProto1/var/Colibri/ap/subsystems/settings.o
 .bss           0x00000000        0x0 /home/colibri/paparazziProto1/var/Colibri/ap/subsystems/settings.o
 .text.settings_store
                0x00000000        0x4 /home/colibri/paparazziProto1/var/Colibri/ap/subsystems/settings.o
 COMMON         0x00000000        0x1 /home/colibri/paparazziProto1/var/Colibri/ap/subsystems/settings.o
 .text          0x00000000        0x0 /home/colibri/paparazziProto1/var/Colibri/ap/arch/lpc21/subsystems/settings_arch.o
 .data          0x00000000        0x0 /home/colibri/paparazziProto1/var/Colibri/ap/arch/lpc21/subsystems/settings_arch.o
 .bss           0x00000000        0x0 /home/colibri/paparazziProto1/var/Colibri/ap/arch/lpc21/subsystems/settings_arch.o
 .text.flash_detect
                0x00000000       0x78 /home/colibri/paparazziProto1/var/Colibri/ap/arch/lpc21/subsystems/settings_arch.o
 .text.pflash_program_array.isra.1
                0x00000000       0x94 /home/colibri/paparazziProto1/var/Colibri/ap/arch/lpc21/subsystems/settings_arch.o
 .text.pflash_program_bytes
                0x00000000      0x1d0 /home/colibri/paparazziProto1/var/Colibri/ap/arch/lpc21/subsystems/settings_arch.o
 .text.persistent_write
                0x00000000       0x7c /home/colibri/paparazziProto1/var/Colibri/ap/arch/lpc21/subsystems/settings_arch.o
 .text.persistent_read
                0x00000000       0xb4 /home/colibri/paparazziProto1/var/Colibri/ap/arch/lpc21/subsystems/settings_arch.o
 .comment       0x00000000       0x71 /home/colibri/paparazziProto1/var/Colibri/ap/arch/lpc21/subsystems/settings_arch.o
 .ARM.attributes
                0x00000000       0x30 /home/colibri/paparazziProto1/var/Colibri/ap/arch/lpc21/subsystems/settings_arch.o
 .text          0x00000000        0x0 /home/colibri/paparazziProto1/var/Colibri/ap/arch/lpc21/mcu_periph/adc_arch.o
 .data          0x00000000        0x0 /home/colibri/paparazziProto1/var/Colibri/ap/arch/lpc21/mcu_periph/adc_arch.o
 .bss           0x00000000        0x0 /home/colibri/paparazziProto1/var/Colibri/ap/arch/lpc21/mcu_periph/adc_arch.o
 .text          0x00000000        0x0 /home/colibri/paparazziProto1/var/Colibri/ap/arch/lpc21/servos_4017_hw.o
 .data          0x00000000        0x0 /home/colibri/paparazziProto1/var/Colibri/ap/arch/lpc21/servos_4017_hw.o
 .bss           0x00000000        0x0 /home/colibri/paparazziProto1/var/Colibri/ap/arch/lpc21/servos_4017_hw.o
 .text          0x00000000        0x0 /home/colibri/paparazziProto1/var/Colibri/ap/actuators.o
 .data          0x00000000        0x0 /home/colibri/paparazziProto1/var/Colibri/ap/actuators.o
 .bss           0x00000000        0x0 /home/colibri/paparazziProto1/var/Colibri/ap/actuators.o
 .text          0x00000000        0x0 /home/colibri/paparazziProto1/var/Colibri/ap/subsystems/radio_control.o
 .data          0x00000000        0x0 /home/colibri/paparazziProto1/var/Colibri/ap/subsystems/radio_control.o
 .bss           0x00000000        0x0 /home/colibri/paparazziProto1/var/Colibri/ap/subsystems/radio_control.o
 .text          0x00000000        0x0 /home/colibri/paparazziProto1/var/Colibri/ap/subsystems/radio_control/rc_datalink.o
 .data          0x00000000        0x0 /home/colibri/paparazziProto1/var/Colibri/ap/subsystems/radio_control/rc_datalink.o
 .bss           0x00000000        0x0 /home/colibri/paparazziProto1/var/Colibri/ap/subsystems/radio_control/rc_datalink.o
 .text          0x00000000        0x0 /home/colibri/paparazziProto1/var/Colibri/ap/firmwares/fixedwing/stabilization/stabilization_attitude.o
 .data          0x00000000        0x0 /home/colibri/paparazziProto1/var/Colibri/ap/firmwares/fixedwing/stabilization/stabilization_attitude.o
 .bss           0x00000000        0x0 /home/colibri/paparazziProto1/var/Colibri/ap/firmwares/fixedwing/stabilization/stabilization_attitude.o
 .text          0x00000000        0x0 /home/colibri/paparazziProto1/var/Colibri/ap/firmwares/fixedwing/guidance/guidance_v.o
 .data          0x00000000        0x0 /home/colibri/paparazziProto1/var/Colibri/ap/firmwares/fixedwing/guidance/guidance_v.o
 .bss           0x00000000        0x0 /home/colibri/paparazziProto1/var/Colibri/ap/firmwares/fixedwing/guidance/guidance_v.o
 .text          0x00000000        0x0 /home/colibri/paparazziProto1/var/Colibri/ap/subsystems/nav.o
 .data          0x00000000        0x0 /home/colibri/paparazziProto1/var/Colibri/ap/subsystems/nav.o
 .bss           0x00000000        0x0 /home/colibri/paparazziProto1/var/Colibri/ap/subsystems/nav.o
 .text.nav_eight_init
                0x00000000       0x14 /home/colibri/paparazziProto1/var/Colibri/ap/subsystems/nav.o
 .text          0x00000000        0x0 /home/colibri/paparazziProto1/var/Colibri/ap/subsystems/navigation/common_flight_plan.o
 .data          0x00000000        0x0 /home/colibri/paparazziProto1/var/Colibri/ap/subsystems/navigation/common_flight_plan.o
 .bss           0x00000000        0x0 /home/colibri/paparazziProto1/var/Colibri/ap/subsystems/navigation/common_flight_plan.o
 .text          0x00000000        0x0 /home/colibri/paparazziProto1/var/Colibri/ap/subsystems/navigation/traffic_info.o
 .data          0x00000000        0x0 /home/colibri/paparazziProto1/var/Colibri/ap/subsystems/navigation/traffic_info.o
 .bss           0x00000000        0x0 /home/colibri/paparazziProto1/var/Colibri/ap/subsystems/navigation/traffic_info.o
 .text.get_ac_info
                0x00000000       0x1c /home/colibri/paparazziProto1/var/Colibri/ap/subsystems/navigation/traffic_info.o
 .text          0x00000000        0x0 /home/colibri/paparazziProto1/var/Colibri/ap/subsystems/navigation/nav_survey_rectangle.o
 .data          0x00000000        0x0 /home/colibri/paparazziProto1/var/Colibri/ap/subsystems/navigation/nav_survey_rectangle.o
 .bss           0x00000000        0x0 /home/colibri/paparazziProto1/var/Colibri/ap/subsystems/navigation/nav_survey_rectangle.o
 .text.nav_survey_rectangle_init
                0x00000000      0x418 /home/colibri/paparazziProto1/var/Colibri/ap/subsystems/navigation/nav_survey_rectangle.o
 .text.nav_survey_rectangle
                0x00000000      0x998 /home/colibri/paparazziProto1/var/Colibri/ap/subsystems/navigation/nav_survey_rectangle.o
 .bss.survey_from
                0x00000000        0xc /home/colibri/paparazziProto1/var/Colibri/ap/subsystems/navigation/nav_survey_rectangle.o
 .bss.survey_orientation
                0x00000000        0x1 /home/colibri/paparazziProto1/var/Colibri/ap/subsystems/navigation/nav_survey_rectangle.o
 .bss.survey_to
                0x00000000        0xc /home/colibri/paparazziProto1/var/Colibri/ap/subsystems/navigation/nav_survey_rectangle.o
 .bss.survey_uturn
                0x00000000        0x1 /home/colibri/paparazziProto1/var/Colibri/ap/subsystems/navigation/nav_survey_rectangle.o
 .bss.survey_radius.4998
                0x00000000        0x4 /home/colibri/paparazziProto1/var/Colibri/ap/subsystems/navigation/nav_survey_rectangle.o
 .comment       0x00000000       0x71 /home/colibri/paparazziProto1/var/Colibri/ap/subsystems/navigation/nav_survey_rectangle.o
 .ARM.attributes
                0x00000000       0x30 /home/colibri/paparazziProto1/var/Colibri/ap/subsystems/navigation/nav_survey_rectangle.o
 .text          0x00000000        0x0 /home/colibri/paparazziProto1/var/Colibri/ap/subsystems/navigation/nav_line.o
 .data          0x00000000        0x0 /home/colibri/paparazziProto1/var/Colibri/ap/subsystems/navigation/nav_line.o
 .bss           0x00000000        0x0 /home/colibri/paparazziProto1/var/Colibri/ap/subsystems/navigation/nav_line.o
 .text.nav_line_init
                0x00000000       0x14 /home/colibri/paparazziProto1/var/Colibri/ap/subsystems/navigation/nav_line.o
 .text.nav_line
                0x00000000      0xf54 /home/colibri/paparazziProto1/var/Colibri/ap/subsystems/navigation/nav_line.o
 .bss.line_status
                0x00000000        0x1 /home/colibri/paparazziProto1/var/Colibri/ap/subsystems/navigation/nav_line.o
 .comment       0x00000000       0x71 /home/colibri/paparazziProto1/var/Colibri/ap/subsystems/navigation/nav_line.o
 .ARM.attributes
                0x00000000       0x30 /home/colibri/paparazziProto1/var/Colibri/ap/subsystems/navigation/nav_line.o
 .text          0x00000000        0x0 /home/colibri/paparazziProto1/var/Colibri/ap/subsystems/navigation/nav_cube.o
 .data          0x00000000        0x0 /home/colibri/paparazziProto1/var/Colibri/ap/subsystems/navigation/nav_cube.o
 .bss           0x00000000        0x0 /home/colibri/paparazziProto1/var/Colibri/ap/subsystems/navigation/nav_cube.o
 .text.nav_cube_init
                0x00000000      0x54c /home/colibri/paparazziProto1/var/Colibri/ap/subsystems/navigation/nav_cube.o
 .text.nav_cube
                0x00000000      0x168 /home/colibri/paparazziProto1/var/Colibri/ap/subsystems/navigation/nav_cube.o
 .data.cube_sect
                0x00000000        0x4 /home/colibri/paparazziProto1/var/Colibri/ap/subsystems/navigation/nav_cube.o
 .data.cube_nsect_x
                0x00000000        0x4 /home/colibri/paparazziProto1/var/Colibri/ap/subsystems/navigation/nav_cube.o
 .data.cube_nsect_z
                0x00000000        0x4 /home/colibri/paparazziProto1/var/Colibri/ap/subsystems/navigation/nav_cube.o
 .comment       0x00000000       0x71 /home/colibri/paparazziProto1/var/Colibri/ap/subsystems/navigation/nav_cube.o
 .ARM.attributes
                0x00000000       0x30 /home/colibri/paparazziProto1/var/Colibri/ap/subsystems/navigation/nav_cube.o
 COMMON         0x00000000       0x2c /home/colibri/paparazziProto1/var/Colibri/ap/subsystems/navigation/nav_cube.o
 .text          0x00000000        0x0 /home/colibri/paparazziProto1/var/Colibri/ap/subsystems/navigation/discsurvey.o
 .data          0x00000000        0x0 /home/colibri/paparazziProto1/var/Colibri/ap/subsystems/navigation/discsurvey.o
 .bss           0x00000000        0x0 /home/colibri/paparazziProto1/var/Colibri/ap/subsystems/navigation/discsurvey.o
 .text.disc_survey_init
                0x00000000       0x5c /home/colibri/paparazziProto1/var/Colibri/ap/subsystems/navigation/discsurvey.o
 .text.disc_survey
                0x00000000      0x5c8 /home/colibri/paparazziProto1/var/Colibri/ap/subsystems/navigation/discsurvey.o
 .bss.c1        0x00000000        0xc /home/colibri/paparazziProto1/var/Colibri/ap/subsystems/navigation/discsurvey.o
 .bss.c2        0x00000000        0xc /home/colibri/paparazziProto1/var/Colibri/ap/subsystems/navigation/discsurvey.o
 .bss.c         0x00000000        0xc /home/colibri/paparazziProto1/var/Colibri/ap/subsystems/navigation/discsurvey.o
 .bss.sign      0x00000000        0x1 /home/colibri/paparazziProto1/var/Colibri/ap/subsystems/navigation/discsurvey.o
 .bss.status    0x00000000        0x1 /home/colibri/paparazziProto1/var/Colibri/ap/subsystems/navigation/discsurvey.o
 .comment       0x00000000       0x71 /home/colibri/paparazziProto1/var/Colibri/ap/subsystems/navigation/discsurvey.o
 .ARM.attributes
                0x00000000       0x30 /home/colibri/paparazziProto1/var/Colibri/ap/subsystems/navigation/discsurvey.o
 .text          0x00000000        0x0 /home/colibri/paparazziProto1/var/Colibri/ap/subsystems/navigation/OSAMNav.o
 .data          0x00000000        0x0 /home/colibri/paparazziProto1/var/Colibri/ap/subsystems/navigation/OSAMNav.o
 .bss           0x00000000        0x0 /home/colibri/paparazziProto1/var/Colibri/ap/subsystems/navigation/OSAMNav.o
 .text.InitializeFlower
                0x00000000      0x2d0 /home/colibri/paparazziProto1/var/Colibri/ap/subsystems/navigation/OSAMNav.o
 .text.FlowerNav
                0x00000000      0x654 /home/colibri/paparazziProto1/var/Colibri/ap/subsystems/navigation/OSAMNav.o
 .text.InitializeBungeeTakeoff
                0x00000000      0x2b0 /home/colibri/paparazziProto1/var/Colibri/ap/subsystems/navigation/OSAMNav.o
 .text.BungeeTakeoff
                0x00000000      0x518 /home/colibri/paparazziProto1/var/Colibri/ap/subsystems/navigation/OSAMNav.o
 .text.InitializeVerticalRaster
                0x00000000       0x14 /home/colibri/paparazziProto1/var/Colibri/ap/subsystems/navigation/OSAMNav.o
 .text.VerticalRaster
                0x00000000      0xfcc /home/colibri/paparazziProto1/var/Colibri/ap/subsystems/navigation/OSAMNav.o
 .text.InitializeSkidLanding
                0x00000000      0x258 /home/colibri/paparazziProto1/var/Colibri/ap/subsystems/navigation/OSAMNav.o
 .text.SkidLanding
                0x00000000      0x66c /home/colibri/paparazziProto1/var/Colibri/ap/subsystems/navigation/OSAMNav.o
 .text.TranslateAndRotateFromWorld
                0x00000000      0x104 /home/colibri/paparazziProto1/var/Colibri/ap/subsystems/navigation/OSAMNav.o
 .text.FlightLine
                0x00000000      0x5e4 /home/colibri/paparazziProto1/var/Colibri/ap/subsystems/navigation/OSAMNav.o
 .text.FlightLineBlock
                0x00000000       0xc8 /home/colibri/paparazziProto1/var/Colibri/ap/subsystems/navigation/OSAMNav.o
 .text.InitializePolygonSurvey
                0x00000000      0x860 /home/colibri/paparazziProto1/var/Colibri/ap/subsystems/navigation/OSAMNav.o
 .text.RotateAndTranslateToWorld
                0x00000000      0x120 /home/colibri/paparazziProto1/var/Colibri/ap/subsystems/navigation/OSAMNav.o
 .text.PolygonSurvey
                0x00000000      0x938 /home/colibri/paparazziProto1/var/Colibri/ap/subsystems/navigation/OSAMNav.o
 .text.FindInterceptOfTwoLines
                0x00000000       0x70 /home/colibri/paparazziProto1/var/Colibri/ap/subsystems/navigation/OSAMNav.o
 .text.EvaluateLineForY
                0x00000000       0x28 /home/colibri/paparazziProto1/var/Colibri/ap/subsystems/navigation/OSAMNav.o
 .text.EvaluateLineForX
                0x00000000       0x28 /home/colibri/paparazziProto1/var/Colibri/ap/subsystems/navigation/OSAMNav.o
 .text.DistanceEquation
                0x00000000       0x74 /home/colibri/paparazziProto1/var/Colibri/ap/subsystems/navigation/OSAMNav.o
 .bss.DistanceFromCenter
                0x00000000        0x4 /home/colibri/paparazziProto1/var/Colibri/ap/subsystems/navigation/OSAMNav.o
 .bss.EdgeMinY  0x00000000       0x28 /home/colibri/paparazziProto1/var/Colibri/ap/subsystems/navigation/OSAMNav.o
 .bss.SurveyTheta
                0x00000000        0x4 /home/colibri/paparazziProto1/var/Colibri/ap/subsystems/navigation/OSAMNav.o
 .bss.SurveyCircleQdr
                0x00000000        0x4 /home/colibri/paparazziProto1/var/Colibri/ap/subsystems/navigation/OSAMNav.o
 .bss.FlyFromX  0x00000000        0x4 /home/colibri/paparazziProto1/var/Colibri/ap/subsystems/navigation/OSAMNav.o
 .bss.FlyFromY  0x00000000        0x4 /home/colibri/paparazziProto1/var/Colibri/ap/subsystems/navigation/OSAMNav.o
 .bss.FLBlockCount
                0x00000000        0x1 /home/colibri/paparazziProto1/var/Colibri/ap/subsystems/navigation/OSAMNav.o
 .bss.LandAppAlt
                0x00000000        0x4 /home/colibri/paparazziProto1/var/Colibri/ap/subsystems/navigation/OSAMNav.o
 .bss.SurveyCircle
                0x00000000        0x8 /home/colibri/paparazziProto1/var/Colibri/ap/subsystems/navigation/OSAMNav.o
 .bss.Fly2X     0x00000000        0x4 /home/colibri/paparazziProto1/var/Colibri/ap/subsystems/navigation/OSAMNav.o
 .bss.Fly2Y     0x00000000        0x4 /home/colibri/paparazziProto1/var/Colibri/ap/subsystems/navigation/OSAMNav.o
 .bss.Flowerradius
                0x00000000        0x4 /home/colibri/paparazziProto1/var/Colibri/ap/subsystems/navigation/OSAMNav.o
 .bss.SurveySize
                0x00000000        0x1 /home/colibri/paparazziProto1/var/Colibri/ap/subsystems/navigation/OSAMNav.o
 .bss.LandCircle
                0x00000000        0x8 /home/colibri/paparazziProto1/var/Colibri/ap/subsystems/navigation/OSAMNav.o
 .bss.TDWaypoint
                0x00000000        0x1 /home/colibri/paparazziProto1/var/Colibri/ap/subsystems/navigation/OSAMNav.o
 .bss.EntryPoint.5928
                0x00000000        0x8 /home/colibri/paparazziProto1/var/Colibri/ap/subsystems/navigation/OSAMNav.o
 .bss.line_status
                0x00000000        0x1 /home/colibri/paparazziProto1/var/Colibri/ap/subsystems/navigation/OSAMNav.o
 .bss.FLCircle  0x00000000        0x8 /home/colibri/paparazziProto1/var/Colibri/ap/subsystems/navigation/OSAMNav.o
 .bss.FLFROMWP  0x00000000        0x8 /home/colibri/paparazziProto1/var/Colibri/ap/subsystems/navigation/OSAMNav.o
 .bss.EdgeCurrentX
                0x00000000        0x4 /home/colibri/paparazziProto1/var/Colibri/ap/subsystems/navigation/OSAMNav.o
 .bss.Edge      0x00000000        0x1 /home/colibri/paparazziProto1/var/Colibri/ap/subsystems/navigation/OSAMNav.o
 .bss.EdgeCurrentY
                0x00000000        0x4 /home/colibri/paparazziProto1/var/Colibri/ap/subsystems/navigation/OSAMNav.o
 .bss.BungeeAlt
                0x00000000        0x4 /home/colibri/paparazziProto1/var/Colibri/ap/subsystems/navigation/OSAMNav.o
 .bss.LastPoint.5966
                0x00000000        0x8 /home/colibri/paparazziProto1/var/Colibri/ap/subsystems/navigation/OSAMNav.o
 .bss.ThrottleSlope
                0x00000000        0x4 /home/colibri/paparazziProto1/var/Colibri/ap/subsystems/navigation/OSAMNav.o
 .bss.throttlePy
                0x00000000        0x4 /home/colibri/paparazziProto1/var/Colibri/ap/subsystems/navigation/OSAMNav.o
 .bss.Edges     0x00000000       0x78 /home/colibri/paparazziProto1/var/Colibri/ap/subsystems/navigation/OSAMNav.o
 .bss.throttlePx
                0x00000000        0x4 /home/colibri/paparazziProto1/var/Colibri/ap/subsystems/navigation/OSAMNav.o
 .bss.TDistance
                0x00000000        0x4 /home/colibri/paparazziProto1/var/Colibri/ap/subsystems/navigation/OSAMNav.o
 .bss.FinalLandAltitude
                0x00000000        0x4 /home/colibri/paparazziProto1/var/Colibri/ap/subsystems/navigation/OSAMNav.o
 .bss.LandCircleQDR
                0x00000000        0x4 /home/colibri/paparazziProto1/var/Colibri/ap/subsystems/navigation/OSAMNav.o
 .bss.SurveyEntryWP
                0x00000000        0x1 /home/colibri/paparazziProto1/var/Colibri/ap/subsystems/navigation/OSAMNav.o
 .bss.CircleX   0x00000000        0x4 /home/colibri/paparazziProto1/var/Colibri/ap/subsystems/navigation/OSAMNav.o
 .bss.CircleY   0x00000000        0x4 /home/colibri/paparazziProto1/var/Colibri/ap/subsystems/navigation/OSAMNav.o
 .bss.CFLStatus
                0x00000000        0x1 /home/colibri/paparazziProto1/var/Colibri/ap/subsystems/navigation/OSAMNav.o
 .bss.BungeeWaypoint
                0x00000000        0x1 /home/colibri/paparazziProto1/var/Colibri/ap/subsystems/navigation/OSAMNav.o
 .bss.FinalLandCount
                0x00000000        0x1 /home/colibri/paparazziProto1/var/Colibri/ap/subsystems/navigation/OSAMNav.o
 .bss.dSweep    0x00000000        0x4 /home/colibri/paparazziProto1/var/Colibri/ap/subsystems/navigation/OSAMNav.o
 .bss.FlowerTheta
                0x00000000        0x4 /home/colibri/paparazziProto1/var/Colibri/ap/subsystems/navigation/OSAMNav.o
 .bss.AFWaypoint
                0x00000000        0x1 /home/colibri/paparazziProto1/var/Colibri/ap/subsystems/navigation/OSAMNav.o
 .bss.TransCurrentX
                0x00000000        0x4 /home/colibri/paparazziProto1/var/Colibri/ap/subsystems/navigation/OSAMNav.o
 .bss.CLandingStatus
                0x00000000        0x1 /home/colibri/paparazziProto1/var/Colibri/ap/subsystems/navigation/OSAMNav.o
 .bss.initialx  0x00000000        0x4 /home/colibri/paparazziProto1/var/Colibri/ap/subsystems/navigation/OSAMNav.o
 .bss.initialy  0x00000000        0x4 /home/colibri/paparazziProto1/var/Colibri/ap/subsystems/navigation/OSAMNav.o
 .bss.EdgeMaxY  0x00000000       0x28 /home/colibri/paparazziProto1/var/Colibri/ap/subsystems/navigation/OSAMNav.o
 .bss.CTakeoffStatus
                0x00000000        0x1 /home/colibri/paparazziProto1/var/Colibri/ap/subsystems/navigation/OSAMNav.o
 .bss.TransCurrentY
                0x00000000        0x4 /home/colibri/paparazziProto1/var/Colibri/ap/subsystems/navigation/OSAMNav.o
 .bss.SmallestCorner
                0x00000000        0x8 /home/colibri/paparazziProto1/var/Colibri/ap/subsystems/navigation/OSAMNav.o
 .bss.CFlowerStatus
                0x00000000        0x1 /home/colibri/paparazziProto1/var/Colibri/ap/subsystems/navigation/OSAMNav.o
 .bss.SurveyFromWP
                0x00000000        0x8 /home/colibri/paparazziProto1/var/Colibri/ap/subsystems/navigation/OSAMNav.o
 .bss.SurveyToWP
                0x00000000        0x8 /home/colibri/paparazziProto1/var/Colibri/ap/subsystems/navigation/OSAMNav.o
 .bss.MaxY      0x00000000        0x4 /home/colibri/paparazziProto1/var/Colibri/ap/subsystems/navigation/OSAMNav.o
 .bss.FLTOWP    0x00000000        0x8 /home/colibri/paparazziProto1/var/Colibri/ap/subsystems/navigation/OSAMNav.o
 .bss.LandRadius
                0x00000000        0x4 /home/colibri/paparazziProto1/var/Colibri/ap/subsystems/navigation/OSAMNav.o
 .bss.Center    0x00000000        0x1 /home/colibri/paparazziProto1/var/Colibri/ap/subsystems/navigation/OSAMNav.o
 .bss.FLQDR     0x00000000        0x4 /home/colibri/paparazziProto1/var/Colibri/ap/subsystems/navigation/OSAMNav.o
 .bss.SurveyRadius
                0x00000000        0x4 /home/colibri/paparazziProto1/var/Colibri/ap/subsystems/navigation/OSAMNav.o
 .bss.AboveLine
                0x00000000        0x1 /home/colibri/paparazziProto1/var/Colibri/ap/subsystems/navigation/OSAMNav.o
 .bss.CSurveyStatus
                0x00000000        0x1 /home/colibri/paparazziProto1/var/Colibri/ap/subsystems/navigation/OSAMNav.o
 .bss.FLRadius  0x00000000        0x4 /home/colibri/paparazziProto1/var/Colibri/ap/subsystems/navigation/OSAMNav.o
 .bss.ApproachQDR
                0x00000000        0x4 /home/colibri/paparazziProto1/var/Colibri/ap/subsystems/navigation/OSAMNav.o
 .comment       0x00000000       0x71 /home/colibri/paparazziProto1/var/Colibri/ap/subsystems/navigation/OSAMNav.o
 .ARM.attributes
                0x00000000       0x30 /home/colibri/paparazziProto1/var/Colibri/ap/subsystems/navigation/OSAMNav.o
 COMMON         0x00000000        0x4 /home/colibri/paparazziProto1/var/Colibri/ap/subsystems/navigation/OSAMNav.o
 .text          0x00000000        0x0 /home/colibri/paparazziProto1/var/Colibri/ap/subsystems/navigation/snav.o
 .data          0x00000000        0x0 /home/colibri/paparazziProto1/var/Colibri/ap/subsystems/navigation/snav.o
 .bss           0x00000000        0x0 /home/colibri/paparazziProto1/var/Colibri/ap/subsystems/navigation/snav.o
 .text.snav_init
                0x00000000      0x764 /home/colibri/paparazziProto1/var/Colibri/ap/subsystems/navigation/snav.o
 .text.snav_circle1
                0x00000000      0x228 /home/colibri/paparazziProto1/var/Colibri/ap/subsystems/navigation/snav.o
 .text.snav_route
                0x00000000       0xb0 /home/colibri/paparazziProto1/var/Colibri/ap/subsystems/navigation/snav.o
 .text.snav_circle2
                0x00000000      0x230 /home/colibri/paparazziProto1/var/Colibri/ap/subsystems/navigation/snav.o
 .text.snav_on_time
                0x00000000      0x790 /home/colibri/paparazziProto1/var/Colibri/ap/subsystems/navigation/snav.o
 .bss.wp_ta     0x00000000        0xc /home/colibri/paparazziProto1/var/Colibri/ap/subsystems/navigation/snav.o
 .bss.ground_speed_timer
                0x00000000        0x1 /home/colibri/paparazziProto1/var/Colibri/ap/subsystems/navigation/snav.o
 .bss.wp_td     0x00000000        0xc /home/colibri/paparazziProto1/var/Colibri/ap/subsystems/navigation/snav.o
 .bss.wp_ca     0x00000000        0xc /home/colibri/paparazziProto1/var/Colibri/ap/subsystems/navigation/snav.o
 .bss.wp_cd     0x00000000        0xc /home/colibri/paparazziProto1/var/Colibri/ap/subsystems/navigation/snav.o
 .bss.a_radius  0x00000000        0x4 /home/colibri/paparazziProto1/var/Colibri/ap/subsystems/navigation/snav.o
 .bss.ground_speeds
                0x00000000       0x60 /home/colibri/paparazziProto1/var/Colibri/ap/subsystems/navigation/snav.o
 .bss.qdr_a     0x00000000        0x4 /home/colibri/paparazziProto1/var/Colibri/ap/subsystems/navigation/snav.o
 .bss.u_a_ca_y  0x00000000        0x4 /home/colibri/paparazziProto1/var/Colibri/ap/subsystems/navigation/snav.o
 .bss.d_radius  0x00000000        0x4 /home/colibri/paparazziProto1/var/Colibri/ap/subsystems/navigation/snav.o
 .bss.qdr_td    0x00000000        0x4 /home/colibri/paparazziProto1/var/Colibri/ap/subsystems/navigation/snav.o
 .bss.u_a_ca_x  0x00000000        0x4 /home/colibri/paparazziProto1/var/Colibri/ap/subsystems/navigation/snav.o
 .bss.wp_a      0x00000000        0x1 /home/colibri/paparazziProto1/var/Colibri/ap/subsystems/navigation/snav.o
 .comment       0x00000000       0x71 /home/colibri/paparazziProto1/var/Colibri/ap/subsystems/navigation/snav.o
 .ARM.attributes
                0x00000000       0x30 /home/colibri/paparazziProto1/var/Colibri/ap/subsystems/navigation/snav.o
 COMMON         0x00000000        0x4 /home/colibri/paparazziProto1/var/Colibri/ap/subsystems/navigation/snav.o
 .text          0x00000000        0x0 /home/colibri/paparazziProto1/var/Colibri/ap/subsystems/navigation/spiral.o
 .data          0x00000000        0x0 /home/colibri/paparazziProto1/var/Colibri/ap/subsystems/navigation/spiral.o
 .bss           0x00000000        0x0 /home/colibri/paparazziProto1/var/Colibri/ap/subsystems/navigation/spiral.o
 .text.InitializeSpiral
                0x00000000      0x24c /home/colibri/paparazziProto1/var/Colibri/ap/subsystems/navigation/spiral.o
 .text.SpiralNav
                0x00000000      0x2c8 /home/colibri/paparazziProto1/var/Colibri/ap/subsystems/navigation/spiral.o
 .bss.LastCircleY
                0x00000000        0x4 /home/colibri/paparazziProto1/var/Colibri/ap/subsystems/navigation/spiral.o
 .bss.SRad      0x00000000        0x4 /home/colibri/paparazziProto1/var/Colibri/ap/subsystems/navigation/spiral.o
 .bss.Edge      0x00000000        0x1 /home/colibri/paparazziProto1/var/Colibri/ap/subsystems/navigation/spiral.o
 .bss.nav_radius_min
                0x00000000        0x4 /home/colibri/paparazziProto1/var/Colibri/ap/subsystems/navigation/spiral.o
 .bss.Segmente  0x00000000        0x4 /home/colibri/paparazziProto1/var/Colibri/ap/subsystems/navigation/spiral.o
 .bss.Spiralradius
                0x00000000        0x4 /home/colibri/paparazziProto1/var/Colibri/ap/subsystems/navigation/spiral.o
 .bss.TransCurrentX
                0x00000000        0x4 /home/colibri/paparazziProto1/var/Colibri/ap/subsystems/navigation/spiral.o
 .bss.Alphalimit
                0x00000000        0x4 /home/colibri/paparazziProto1/var/Colibri/ap/subsystems/navigation/spiral.o
 .bss.ZPoint    0x00000000        0x4 /home/colibri/paparazziProto1/var/Colibri/ap/subsystems/navigation/spiral.o
 .bss.LastCircleX
                0x00000000        0x4 /home/colibri/paparazziProto1/var/Colibri/ap/subsystems/navigation/spiral.o
 .bss.Center    0x00000000        0x1 /home/colibri/paparazziProto1/var/Colibri/ap/subsystems/navigation/spiral.o
 .bss.FlyFromX  0x00000000        0x4 /home/colibri/paparazziProto1/var/Colibri/ap/subsystems/navigation/spiral.o
 .bss.FlyFromY  0x00000000        0x4 /home/colibri/paparazziProto1/var/Colibri/ap/subsystems/navigation/spiral.o
 .bss.IRad      0x00000000        0x4 /home/colibri/paparazziProto1/var/Colibri/ap/subsystems/navigation/spiral.o
 .bss.EdgeCurrentX
                0x00000000        0x4 /home/colibri/paparazziProto1/var/Colibri/ap/subsystems/navigation/spiral.o
 .bss.EdgeCurrentY
                0x00000000        0x4 /home/colibri/paparazziProto1/var/Colibri/ap/subsystems/navigation/spiral.o
 .bss.TransCurrentY
                0x00000000        0x4 /home/colibri/paparazziProto1/var/Colibri/ap/subsystems/navigation/spiral.o
 .bss.TransCurrentZ
                0x00000000        0x4 /home/colibri/paparazziProto1/var/Colibri/ap/subsystems/navigation/spiral.o
 .bss.DistanceFromCenter
                0x00000000        0x4 /home/colibri/paparazziProto1/var/Colibri/ap/subsystems/navigation/spiral.o
 .bss.CSpiralStatus
                0x00000000        0x1 /home/colibri/paparazziProto1/var/Colibri/ap/subsystems/navigation/spiral.o
 .comment       0x00000000       0x71 /home/colibri/paparazziProto1/var/Colibri/ap/subsystems/navigation/spiral.o
 .ARM.attributes
                0x00000000       0x30 /home/colibri/paparazziProto1/var/Colibri/ap/subsystems/navigation/spiral.o
 .text          0x00000000        0x0 /home/colibri/paparazziProto1/var/Colibri/ap/subsystems/navigation/poly_survey_adv.o
 .data          0x00000000        0x0 /home/colibri/paparazziProto1/var/Colibri/ap/subsystems/navigation/poly_survey_adv.o
 .bss           0x00000000        0x0 /home/colibri/paparazziProto1/var/Colibri/ap/subsystems/navigation/poly_survey_adv.o
 .text.get_two_intersects.constprop.0
                0x00000000      0x4bc /home/colibri/paparazziProto1/var/Colibri/ap/subsystems/navigation/poly_survey_adv.o
 .text.init_poly_survey_adv
                0x00000000      0x5f0 /home/colibri/paparazziProto1/var/Colibri/ap/subsystems/navigation/poly_survey_adv.o
 .text.poly_survey_adv
                0x00000000      0x77c /home/colibri/paparazziProto1/var/Colibri/ap/subsystems/navigation/poly_survey_adv.o
 .comment       0x00000000       0x71 /home/colibri/paparazziProto1/var/Colibri/ap/subsystems/navigation/poly_survey_adv.o
 .ARM.attributes
                0x00000000       0x30 /home/colibri/paparazziProto1/var/Colibri/ap/subsystems/navigation/poly_survey_adv.o
 COMMON         0x00000000       0x6c /home/colibri/paparazziProto1/var/Colibri/ap/subsystems/navigation/poly_survey_adv.o
 .text          0x00000000        0x0 /home/colibri/paparazziProto1/var/Colibri/ap/subsystems/navigation/gls.o
 .data          0x00000000        0x0 /home/colibri/paparazziProto1/var/Colibri/ap/subsystems/navigation/gls.o
 .bss           0x00000000        0x0 /home/colibri/paparazziProto1/var/Colibri/ap/subsystems/navigation/gls.o
 .text.gls_init
                0x00000000      0x248 /home/colibri/paparazziProto1/var/Colibri/ap/subsystems/navigation/gls.o
 .text.gls      0x00000000      0x2dc /home/colibri/paparazziProto1/var/Colibri/ap/subsystems/navigation/gls.o
 .data.init     0x00000000        0x1 /home/colibri/paparazziProto1/var/Colibri/ap/subsystems/navigation/gls.o
 .comment       0x00000000       0x71 /home/colibri/paparazziProto1/var/Colibri/ap/subsystems/navigation/gls.o
 .ARM.attributes
                0x00000000       0x30 /home/colibri/paparazziProto1/var/Colibri/ap/subsystems/navigation/gls.o
 COMMON         0x00000000        0xc /home/colibri/paparazziProto1/var/Colibri/ap/subsystems/navigation/gls.o
 .text          0x00000000        0x0 /home/colibri/paparazziProto1/var/Colibri/ap/subsystems/navigation/border_line.o
 .data          0x00000000        0x0 /home/colibri/paparazziProto1/var/Colibri/ap/subsystems/navigation/border_line.o
 .bss           0x00000000        0x0 /home/colibri/paparazziProto1/var/Colibri/ap/subsystems/navigation/border_line.o
 .text.border_line_init
                0x00000000       0x14 /home/colibri/paparazziProto1/var/Colibri/ap/subsystems/navigation/border_line.o
 .text.border_line
                0x00000000      0xb80 /home/colibri/paparazziProto1/var/Colibri/ap/subsystems/navigation/border_line.o
 .bss.border_line_status
                0x00000000        0x1 /home/colibri/paparazziProto1/var/Colibri/ap/subsystems/navigation/border_line.o
 .comment       0x00000000       0x71 /home/colibri/paparazziProto1/var/Colibri/ap/subsystems/navigation/border_line.o
 .ARM.attributes
                0x00000000       0x30 /home/colibri/paparazziProto1/var/Colibri/ap/subsystems/navigation/border_line.o
 .text          0x00000000        0x0 /home/colibri/paparazziProto1/var/Colibri/ap/subsystems/datalink/downlink.o
 .data          0x00000000        0x0 /home/colibri/paparazziProto1/var/Colibri/ap/subsystems/datalink/downlink.o
 .bss           0x00000000        0x0 /home/colibri/paparazziProto1/var/Colibri/ap/subsystems/datalink/downlink.o
 .text          0x00000000        0x0 /home/colibri/paparazziProto1/var/Colibri/ap/subsystems/datalink/pprz_transport.o
 .data          0x00000000        0x0 /home/colibri/paparazziProto1/var/Colibri/ap/subsystems/datalink/pprz_transport.o
 .bss           0x00000000        0x0 /home/colibri/paparazziProto1/var/Colibri/ap/subsystems/datalink/pprz_transport.o
 .text          0x00000000        0x0 /home/colibri/paparazziProto1/var/Colibri/ap/firmwares/fixedwing/datalink.o
 .data          0x00000000        0x0 /home/colibri/paparazziProto1/var/Colibri/ap/firmwares/fixedwing/datalink.o
 .bss           0x00000000        0x0 /home/colibri/paparazziProto1/var/Colibri/ap/firmwares/fixedwing/datalink.o
 .text          0x00000000        0x0 /home/colibri/paparazziProto1/var/Colibri/ap/subsystems/ahrs.o
 .data          0x00000000        0x0 /home/colibri/paparazziProto1/var/Colibri/ap/subsystems/ahrs.o
 .bss           0x00000000        0x0 /home/colibri/paparazziProto1/var/Colibri/ap/subsystems/ahrs.o
 .text          0x00000000        0x0 /home/colibri/paparazziProto1/var/Colibri/ap/subsystems/ahrs/ahrs_infrared.o
 .data          0x00000000        0x0 /home/colibri/paparazziProto1/var/Colibri/ap/subsystems/ahrs/ahrs_infrared.o
 .bss           0x00000000        0x0 /home/colibri/paparazziProto1/var/Colibri/ap/subsystems/ahrs/ahrs_infrared.o
 .text.ahrs_align
                0x00000000       0x14 /home/colibri/paparazziProto1/var/Colibri/ap/subsystems/ahrs/ahrs_infrared.o
 .text.ahrs_propagate
                0x00000000        0x4 /home/colibri/paparazziProto1/var/Colibri/ap/subsystems/ahrs/ahrs_infrared.o
 .text.ahrs_update_accel
                0x00000000        0x4 /home/colibri/paparazziProto1/var/Colibri/ap/subsystems/ahrs/ahrs_infrared.o
 .text.ahrs_update_mag
                0x00000000        0x4 /home/colibri/paparazziProto1/var/Colibri/ap/subsystems/ahrs/ahrs_infrared.o
 .text          0x00000000        0x0 /home/colibri/paparazziProto1/var/Colibri/ap/subsystems/gps/gps_ubx.o
 .data          0x00000000        0x0 /home/colibri/paparazziProto1/var/Colibri/ap/subsystems/gps/gps_ubx.o
 .bss           0x00000000        0x0 /home/colibri/paparazziProto1/var/Colibri/ap/subsystems/gps/gps_ubx.o
 .text.ubxsend_cfg_rst
                0x00000000      0x194 /home/colibri/paparazziProto1/var/Colibri/ap/subsystems/gps/gps_ubx.o
 .text          0x00000000        0x0 /home/colibri/paparazziProto1/var/Colibri/ap/subsystems/gps.o
 .data          0x00000000        0x0 /home/colibri/paparazziProto1/var/Colibri/ap/subsystems/gps.o
 .bss           0x00000000        0x0 /home/colibri/paparazziProto1/var/Colibri/ap/subsystems/gps.o
 .text          0x00000000        0x0 /home/colibri/paparazziProto1/var/Colibri/ap/subsystems/sensors/infrared.o
 .data          0x00000000        0x0 /home/colibri/paparazziProto1/var/Colibri/ap/subsystems/sensors/infrared.o
 .bss           0x00000000        0x0 /home/colibri/paparazziProto1/var/Colibri/ap/subsystems/sensors/infrared.o
 .text          0x00000000        0x0 /home/colibri/paparazziProto1/var/Colibri/ap/subsystems/sensors/infrared_adc.o
 .data          0x00000000        0x0 /home/colibri/paparazziProto1/var/Colibri/ap/subsystems/sensors/infrared_adc.o
 .bss           0x00000000        0x0 /home/colibri/paparazziProto1/var/Colibri/ap/subsystems/sensors/infrared_adc.o
 .text.infrared_event
                0x00000000        0x4 /home/colibri/paparazziProto1/var/Colibri/ap/subsystems/sensors/infrared_adc.o
 .text.infrared_init
                0x00000000        0x4 /home/colibri/paparazziProto1/var/Colibri/ap/subsystems/sensors/infrared_adc.o
 .text.infrared_update
                0x00000000        0x4 /home/colibri/paparazziProto1/var/Colibri/ap/subsystems/sensors/infrared_adc.o
 .text          0x00000000        0x0 /opt/gcc-arm-none-eabi-4_8-2013q4/bin/../lib/gcc/arm-none-eabi/4.8.3/../../../../arm-none-eabi/lib/thumb/libm.a(lib_a-s_atan.o)
 .data          0x00000000        0x0 /opt/gcc-arm-none-eabi-4_8-2013q4/bin/../lib/gcc/arm-none-eabi/4.8.3/../../../../arm-none-eabi/lib/thumb/libm.a(lib_a-s_atan.o)
 .bss           0x00000000        0x0 /opt/gcc-arm-none-eabi-4_8-2013q4/bin/../lib/gcc/arm-none-eabi/4.8.3/../../../../arm-none-eabi/lib/thumb/libm.a(lib_a-s_atan.o)
 .text          0x00000000        0x0 /opt/gcc-arm-none-eabi-4_8-2013q4/bin/../lib/gcc/arm-none-eabi/4.8.3/../../../../arm-none-eabi/lib/thumb/libm.a(lib_a-s_cos.o)
 .data          0x00000000        0x0 /opt/gcc-arm-none-eabi-4_8-2013q4/bin/../lib/gcc/arm-none-eabi/4.8.3/../../../../arm-none-eabi/lib/thumb/libm.a(lib_a-s_cos.o)
 .bss           0x00000000        0x0 /opt/gcc-arm-none-eabi-4_8-2013q4/bin/../lib/gcc/arm-none-eabi/4.8.3/../../../../arm-none-eabi/lib/thumb/libm.a(lib_a-s_cos.o)
 .text          0x00000000        0x0 /opt/gcc-arm-none-eabi-4_8-2013q4/bin/../lib/gcc/arm-none-eabi/4.8.3/../../../../arm-none-eabi/lib/thumb/libm.a(lib_a-s_fabs.o)
 .data          0x00000000        0x0 /opt/gcc-arm-none-eabi-4_8-2013q4/bin/../lib/gcc/arm-none-eabi/4.8.3/../../../../arm-none-eabi/lib/thumb/libm.a(lib_a-s_fabs.o)
 .bss           0x00000000        0x0 /opt/gcc-arm-none-eabi-4_8-2013q4/bin/../lib/gcc/arm-none-eabi/4.8.3/../../../../arm-none-eabi/lib/thumb/libm.a(lib_a-s_fabs.o)
 .text          0x00000000        0x0 /opt/gcc-arm-none-eabi-4_8-2013q4/bin/../lib/gcc/arm-none-eabi/4.8.3/../../../../arm-none-eabi/lib/thumb/libm.a(lib_a-s_rint.o)
 .data          0x00000000        0x0 /opt/gcc-arm-none-eabi-4_8-2013q4/bin/../lib/gcc/arm-none-eabi/4.8.3/../../../../arm-none-eabi/lib/thumb/libm.a(lib_a-s_rint.o)
 .bss           0x00000000        0x0 /opt/gcc-arm-none-eabi-4_8-2013q4/bin/../lib/gcc/arm-none-eabi/4.8.3/../../../../arm-none-eabi/lib/thumb/libm.a(lib_a-s_rint.o)
 .text.rint     0x00000000      0x158 /opt/gcc-arm-none-eabi-4_8-2013q4/bin/../lib/gcc/arm-none-eabi/4.8.3/../../../../arm-none-eabi/lib/thumb/libm.a(lib_a-s_rint.o)
 .rodata.TWO52  0x00000000       0x10 /opt/gcc-arm-none-eabi-4_8-2013q4/bin/../lib/gcc/arm-none-eabi/4.8.3/../../../../arm-none-eabi/lib/thumb/libm.a(lib_a-s_rint.o)
 .ARM.attributes
                0x00000000       0x30 /opt/gcc-arm-none-eabi-4_8-2013q4/bin/../lib/gcc/arm-none-eabi/4.8.3/../../../../arm-none-eabi/lib/thumb/libm.a(lib_a-s_rint.o)
 .debug_frame   0x00000000       0x38 /opt/gcc-arm-none-eabi-4_8-2013q4/bin/../lib/gcc/arm-none-eabi/4.8.3/../../../../arm-none-eabi/lib/thumb/libm.a(lib_a-s_rint.o)
 .text          0x00000000        0x0 /opt/gcc-arm-none-eabi-4_8-2013q4/bin/../lib/gcc/arm-none-eabi/4.8.3/../../../../arm-none-eabi/lib/thumb/libm.a(lib_a-s_sin.o)
 .data          0x00000000        0x0 /opt/gcc-arm-none-eabi-4_8-2013q4/bin/../lib/gcc/arm-none-eabi/4.8.3/../../../../arm-none-eabi/lib/thumb/libm.a(lib_a-s_sin.o)
 .bss           0x00000000        0x0 /opt/gcc-arm-none-eabi-4_8-2013q4/bin/../lib/gcc/arm-none-eabi/4.8.3/../../../../arm-none-eabi/lib/thumb/libm.a(lib_a-s_sin.o)
 .text          0x00000000        0x0 /opt/gcc-arm-none-eabi-4_8-2013q4/bin/../lib/gcc/arm-none-eabi/4.8.3/../../../../arm-none-eabi/lib/thumb/libm.a(lib_a-s_tan.o)
 .data          0x00000000        0x0 /opt/gcc-arm-none-eabi-4_8-2013q4/bin/../lib/gcc/arm-none-eabi/4.8.3/../../../../arm-none-eabi/lib/thumb/libm.a(lib_a-s_tan.o)
 .bss           0x00000000        0x0 /opt/gcc-arm-none-eabi-4_8-2013q4/bin/../lib/gcc/arm-none-eabi/4.8.3/../../../../arm-none-eabi/lib/thumb/libm.a(lib_a-s_tan.o)
 .text          0x00000000        0x0 /opt/gcc-arm-none-eabi-4_8-2013q4/bin/../lib/gcc/arm-none-eabi/4.8.3/../../../../arm-none-eabi/lib/thumb/libm.a(lib_a-sf_atan.o)
 .data          0x00000000        0x0 /opt/gcc-arm-none-eabi-4_8-2013q4/bin/../lib/gcc/arm-none-eabi/4.8.3/../../../../arm-none-eabi/lib/thumb/libm.a(lib_a-sf_atan.o)
 .bss           0x00000000        0x0 /opt/gcc-arm-none-eabi-4_8-2013q4/bin/../lib/gcc/arm-none-eabi/4.8.3/../../../../arm-none-eabi/lib/thumb/libm.a(lib_a-sf_atan.o)
 .text          0x00000000        0x0 /opt/gcc-arm-none-eabi-4_8-2013q4/bin/../lib/gcc/arm-none-eabi/4.8.3/../../../../arm-none-eabi/lib/thumb/libm.a(lib_a-sf_cos.o)
 .data          0x00000000        0x0 /opt/gcc-arm-none-eabi-4_8-2013q4/bin/../lib/gcc/arm-none-eabi/4.8.3/../../../../arm-none-eabi/lib/thumb/libm.a(lib_a-sf_cos.o)
 .bss           0x00000000        0x0 /opt/gcc-arm-none-eabi-4_8-2013q4/bin/../lib/gcc/arm-none-eabi/4.8.3/../../../../arm-none-eabi/lib/thumb/libm.a(lib_a-sf_cos.o)
 .text          0x00000000        0x0 /opt/gcc-arm-none-eabi-4_8-2013q4/bin/../lib/gcc/arm-none-eabi/4.8.3/../../../../arm-none-eabi/lib/thumb/libm.a(lib_a-sf_fabs.o)
 .data          0x00000000        0x0 /opt/gcc-arm-none-eabi-4_8-2013q4/bin/../lib/gcc/arm-none-eabi/4.8.3/../../../../arm-none-eabi/lib/thumb/libm.a(lib_a-sf_fabs.o)
 .bss           0x00000000        0x0 /opt/gcc-arm-none-eabi-4_8-2013q4/bin/../lib/gcc/arm-none-eabi/4.8.3/../../../../arm-none-eabi/lib/thumb/libm.a(lib_a-sf_fabs.o)
 .text          0x00000000        0x0 /opt/gcc-arm-none-eabi-4_8-2013q4/bin/../lib/gcc/arm-none-eabi/4.8.3/../../../../arm-none-eabi/lib/thumb/libm.a(lib_a-sf_sin.o)
 .data          0x00000000        0x0 /opt/gcc-arm-none-eabi-4_8-2013q4/bin/../lib/gcc/arm-none-eabi/4.8.3/../../../../arm-none-eabi/lib/thumb/libm.a(lib_a-sf_sin.o)
 .bss           0x00000000        0x0 /opt/gcc-arm-none-eabi-4_8-2013q4/bin/../lib/gcc/arm-none-eabi/4.8.3/../../../../arm-none-eabi/lib/thumb/libm.a(lib_a-sf_sin.o)
 .text          0x00000000        0x0 /opt/gcc-arm-none-eabi-4_8-2013q4/bin/../lib/gcc/arm-none-eabi/4.8.3/../../../../arm-none-eabi/lib/thumb/libm.a(lib_a-sf_tan.o)
 .data          0x00000000        0x0 /opt/gcc-arm-none-eabi-4_8-2013q4/bin/../lib/gcc/arm-none-eabi/4.8.3/../../../../arm-none-eabi/lib/thumb/libm.a(lib_a-sf_tan.o)
 .bss           0x00000000        0x0 /opt/gcc-arm-none-eabi-4_8-2013q4/bin/../lib/gcc/arm-none-eabi/4.8.3/../../../../arm-none-eabi/lib/thumb/libm.a(lib_a-sf_tan.o)
 .text.tanf     0x00000000       0x4c /opt/gcc-arm-none-eabi-4_8-2013q4/bin/../lib/gcc/arm-none-eabi/4.8.3/../../../../arm-none-eabi/lib/thumb/libm.a(lib_a-sf_tan.o)
 .ARM.attributes
                0x00000000       0x30 /opt/gcc-arm-none-eabi-4_8-2013q4/bin/../lib/gcc/arm-none-eabi/4.8.3/../../../../arm-none-eabi/lib/thumb/libm.a(lib_a-sf_tan.o)
 .debug_frame   0x00000000       0x28 /opt/gcc-arm-none-eabi-4_8-2013q4/bin/../lib/gcc/arm-none-eabi/4.8.3/../../../../arm-none-eabi/lib/thumb/libm.a(lib_a-sf_tan.o)
 .text          0x00000000        0x0 /opt/gcc-arm-none-eabi-4_8-2013q4/bin/../lib/gcc/arm-none-eabi/4.8.3/../../../../arm-none-eabi/lib/thumb/libm.a(lib_a-w_acos.o)
 .data          0x00000000        0x0 /opt/gcc-arm-none-eabi-4_8-2013q4/bin/../lib/gcc/arm-none-eabi/4.8.3/../../../../arm-none-eabi/lib/thumb/libm.a(lib_a-w_acos.o)
 .bss           0x00000000        0x0 /opt/gcc-arm-none-eabi-4_8-2013q4/bin/../lib/gcc/arm-none-eabi/4.8.3/../../../../arm-none-eabi/lib/thumb/libm.a(lib_a-w_acos.o)
 .text.acos     0x00000000       0xc0 /opt/gcc-arm-none-eabi-4_8-2013q4/bin/../lib/gcc/arm-none-eabi/4.8.3/../../../../arm-none-eabi/lib/thumb/libm.a(lib_a-w_acos.o)
 .rodata.str1.4
                0x00000000        0xc /opt/gcc-arm-none-eabi-4_8-2013q4/bin/../lib/gcc/arm-none-eabi/4.8.3/../../../../arm-none-eabi/lib/thumb/libm.a(lib_a-w_acos.o)
 .ARM.attributes
                0x00000000       0x30 /opt/gcc-arm-none-eabi-4_8-2013q4/bin/../lib/gcc/arm-none-eabi/4.8.3/../../../../arm-none-eabi/lib/thumb/libm.a(lib_a-w_acos.o)
 .debug_frame   0x00000000       0x38 /opt/gcc-arm-none-eabi-4_8-2013q4/bin/../lib/gcc/arm-none-eabi/4.8.3/../../../../arm-none-eabi/lib/thumb/libm.a(lib_a-w_acos.o)
 .text          0x00000000        0x0 /opt/gcc-arm-none-eabi-4_8-2013q4/bin/../lib/gcc/arm-none-eabi/4.8.3/../../../../arm-none-eabi/lib/thumb/libm.a(lib_a-w_asin.o)
 .data          0x00000000        0x0 /opt/gcc-arm-none-eabi-4_8-2013q4/bin/../lib/gcc/arm-none-eabi/4.8.3/../../../../arm-none-eabi/lib/thumb/libm.a(lib_a-w_asin.o)
 .bss           0x00000000        0x0 /opt/gcc-arm-none-eabi-4_8-2013q4/bin/../lib/gcc/arm-none-eabi/4.8.3/../../../../arm-none-eabi/lib/thumb/libm.a(lib_a-w_asin.o)
 .text          0x00000000        0x0 /opt/gcc-arm-none-eabi-4_8-2013q4/bin/../lib/gcc/arm-none-eabi/4.8.3/../../../../arm-none-eabi/lib/thumb/libm.a(lib_a-w_atan2.o)
 .data          0x00000000        0x0 /opt/gcc-arm-none-eabi-4_8-2013q4/bin/../lib/gcc/arm-none-eabi/4.8.3/../../../../arm-none-eabi/lib/thumb/libm.a(lib_a-w_atan2.o)
 .bss           0x00000000        0x0 /opt/gcc-arm-none-eabi-4_8-2013q4/bin/../lib/gcc/arm-none-eabi/4.8.3/../../../../arm-none-eabi/lib/thumb/libm.a(lib_a-w_atan2.o)
 .text          0x00000000        0x0 /opt/gcc-arm-none-eabi-4_8-2013q4/bin/../lib/gcc/arm-none-eabi/4.8.3/../../../../arm-none-eabi/lib/thumb/libm.a(lib_a-w_cosh.o)
 .data          0x00000000        0x0 /opt/gcc-arm-none-eabi-4_8-2013q4/bin/../lib/gcc/arm-none-eabi/4.8.3/../../../../arm-none-eabi/lib/thumb/libm.a(lib_a-w_cosh.o)
 .bss           0x00000000        0x0 /opt/gcc-arm-none-eabi-4_8-2013q4/bin/../lib/gcc/arm-none-eabi/4.8.3/../../../../arm-none-eabi/lib/thumb/libm.a(lib_a-w_cosh.o)
 .text          0x00000000        0x0 /opt/gcc-arm-none-eabi-4_8-2013q4/bin/../lib/gcc/arm-none-eabi/4.8.3/../../../../arm-none-eabi/lib/thumb/libm.a(lib_a-w_exp.o)
 .data          0x00000000        0x0 /opt/gcc-arm-none-eabi-4_8-2013q4/bin/../lib/gcc/arm-none-eabi/4.8.3/../../../../arm-none-eabi/lib/thumb/libm.a(lib_a-w_exp.o)
 .bss           0x00000000        0x0 /opt/gcc-arm-none-eabi-4_8-2013q4/bin/../lib/gcc/arm-none-eabi/4.8.3/../../../../arm-none-eabi/lib/thumb/libm.a(lib_a-w_exp.o)
 .text          0x00000000        0x0 /opt/gcc-arm-none-eabi-4_8-2013q4/bin/../lib/gcc/arm-none-eabi/4.8.3/../../../../arm-none-eabi/lib/thumb/libm.a(lib_a-w_log.o)
 .data          0x00000000        0x0 /opt/gcc-arm-none-eabi-4_8-2013q4/bin/../lib/gcc/arm-none-eabi/4.8.3/../../../../arm-none-eabi/lib/thumb/libm.a(lib_a-w_log.o)
 .bss           0x00000000        0x0 /opt/gcc-arm-none-eabi-4_8-2013q4/bin/../lib/gcc/arm-none-eabi/4.8.3/../../../../arm-none-eabi/lib/thumb/libm.a(lib_a-w_log.o)
 .text          0x00000000        0x0 /opt/gcc-arm-none-eabi-4_8-2013q4/bin/../lib/gcc/arm-none-eabi/4.8.3/../../../../arm-none-eabi/lib/thumb/libm.a(lib_a-w_pow.o)
 .data          0x00000000        0x0 /opt/gcc-arm-none-eabi-4_8-2013q4/bin/../lib/gcc/arm-none-eabi/4.8.3/../../../../arm-none-eabi/lib/thumb/libm.a(lib_a-w_pow.o)
 .bss           0x00000000        0x0 /opt/gcc-arm-none-eabi-4_8-2013q4/bin/../lib/gcc/arm-none-eabi/4.8.3/../../../../arm-none-eabi/lib/thumb/libm.a(lib_a-w_pow.o)
 .text.pow      0x00000000      0x380 /opt/gcc-arm-none-eabi-4_8-2013q4/bin/../lib/gcc/arm-none-eabi/4.8.3/../../../../arm-none-eabi/lib/thumb/libm.a(lib_a-w_pow.o)
 .rodata.str1.4
                0x00000000        0x4 /opt/gcc-arm-none-eabi-4_8-2013q4/bin/../lib/gcc/arm-none-eabi/4.8.3/../../../../arm-none-eabi/lib/thumb/libm.a(lib_a-w_pow.o)
 .ARM.attributes
                0x00000000       0x30 /opt/gcc-arm-none-eabi-4_8-2013q4/bin/../lib/gcc/arm-none-eabi/4.8.3/../../../../arm-none-eabi/lib/thumb/libm.a(lib_a-w_pow.o)
 .debug_frame   0x00000000       0x38 /opt/gcc-arm-none-eabi-4_8-2013q4/bin/../lib/gcc/arm-none-eabi/4.8.3/../../../../arm-none-eabi/lib/thumb/libm.a(lib_a-w_pow.o)
 .text          0x00000000        0x0 /opt/gcc-arm-none-eabi-4_8-2013q4/bin/../lib/gcc/arm-none-eabi/4.8.3/../../../../arm-none-eabi/lib/thumb/libm.a(lib_a-w_sinh.o)
 .data          0x00000000        0x0 /opt/gcc-arm-none-eabi-4_8-2013q4/bin/../lib/gcc/arm-none-eabi/4.8.3/../../../../arm-none-eabi/lib/thumb/libm.a(lib_a-w_sinh.o)
 .bss           0x00000000        0x0 /opt/gcc-arm-none-eabi-4_8-2013q4/bin/../lib/gcc/arm-none-eabi/4.8.3/../../../../arm-none-eabi/lib/thumb/libm.a(lib_a-w_sinh.o)
 .text          0x00000000        0x0 /opt/gcc-arm-none-eabi-4_8-2013q4/bin/../lib/gcc/arm-none-eabi/4.8.3/../../../../arm-none-eabi/lib/thumb/libm.a(lib_a-w_sqrt.o)
 .data          0x00000000        0x0 /opt/gcc-arm-none-eabi-4_8-2013q4/bin/../lib/gcc/arm-none-eabi/4.8.3/../../../../arm-none-eabi/lib/thumb/libm.a(lib_a-w_sqrt.o)
 .bss           0x00000000        0x0 /opt/gcc-arm-none-eabi-4_8-2013q4/bin/../lib/gcc/arm-none-eabi/4.8.3/../../../../arm-none-eabi/lib/thumb/libm.a(lib_a-w_sqrt.o)
 .text          0x00000000        0x0 /opt/gcc-arm-none-eabi-4_8-2013q4/bin/../lib/gcc/arm-none-eabi/4.8.3/../../../../arm-none-eabi/lib/thumb/libm.a(lib_a-wf_atan2.o)
 .data          0x00000000        0x0 /opt/gcc-arm-none-eabi-4_8-2013q4/bin/../lib/gcc/arm-none-eabi/4.8.3/../../../../arm-none-eabi/lib/thumb/libm.a(lib_a-wf_atan2.o)
 .bss           0x00000000        0x0 /opt/gcc-arm-none-eabi-4_8-2013q4/bin/../lib/gcc/arm-none-eabi/4.8.3/../../../../arm-none-eabi/lib/thumb/libm.a(lib_a-wf_atan2.o)
 .text          0x00000000        0x0 /opt/gcc-arm-none-eabi-4_8-2013q4/bin/../lib/gcc/arm-none-eabi/4.8.3/../../../../arm-none-eabi/lib/thumb/libm.a(lib_a-wf_pow.o)
 .data          0x00000000        0x0 /opt/gcc-arm-none-eabi-4_8-2013q4/bin/../lib/gcc/arm-none-eabi/4.8.3/../../../../arm-none-eabi/lib/thumb/libm.a(lib_a-wf_pow.o)
 .bss           0x00000000        0x0 /opt/gcc-arm-none-eabi-4_8-2013q4/bin/../lib/gcc/arm-none-eabi/4.8.3/../../../../arm-none-eabi/lib/thumb/libm.a(lib_a-wf_pow.o)
 .text.powf     0x00000000      0x388 /opt/gcc-arm-none-eabi-4_8-2013q4/bin/../lib/gcc/arm-none-eabi/4.8.3/../../../../arm-none-eabi/lib/thumb/libm.a(lib_a-wf_pow.o)
 .rodata.str1.4
                0x00000000        0x8 /opt/gcc-arm-none-eabi-4_8-2013q4/bin/../lib/gcc/arm-none-eabi/4.8.3/../../../../arm-none-eabi/lib/thumb/libm.a(lib_a-wf_pow.o)
 .ARM.attributes
                0x00000000       0x30 /opt/gcc-arm-none-eabi-4_8-2013q4/bin/../lib/gcc/arm-none-eabi/4.8.3/../../../../arm-none-eabi/lib/thumb/libm.a(lib_a-wf_pow.o)
 .debug_frame   0x00000000       0x38 /opt/gcc-arm-none-eabi-4_8-2013q4/bin/../lib/gcc/arm-none-eabi/4.8.3/../../../../arm-none-eabi/lib/thumb/libm.a(lib_a-wf_pow.o)
 .text          0x00000000        0x0 /opt/gcc-arm-none-eabi-4_8-2013q4/bin/../lib/gcc/arm-none-eabi/4.8.3/../../../../arm-none-eabi/lib/thumb/libm.a(lib_a-wf_sqrt.o)
 .data          0x00000000        0x0 /opt/gcc-arm-none-eabi-4_8-2013q4/bin/../lib/gcc/arm-none-eabi/4.8.3/../../../../arm-none-eabi/lib/thumb/libm.a(lib_a-wf_sqrt.o)
 .bss           0x00000000        0x0 /opt/gcc-arm-none-eabi-4_8-2013q4/bin/../lib/gcc/arm-none-eabi/4.8.3/../../../../arm-none-eabi/lib/thumb/libm.a(lib_a-wf_sqrt.o)
 .text.sqrtf    0x00000000       0xb8 /opt/gcc-arm-none-eabi-4_8-2013q4/bin/../lib/gcc/arm-none-eabi/4.8.3/../../../../arm-none-eabi/lib/thumb/libm.a(lib_a-wf_sqrt.o)
 .rodata.str1.4
                0x00000000        0x8 /opt/gcc-arm-none-eabi-4_8-2013q4/bin/../lib/gcc/arm-none-eabi/4.8.3/../../../../arm-none-eabi/lib/thumb/libm.a(lib_a-wf_sqrt.o)
 .ARM.attributes
                0x00000000       0x30 /opt/gcc-arm-none-eabi-4_8-2013q4/bin/../lib/gcc/arm-none-eabi/4.8.3/../../../../arm-none-eabi/lib/thumb/libm.a(lib_a-wf_sqrt.o)
 .debug_frame   0x00000000       0x30 /opt/gcc-arm-none-eabi-4_8-2013q4/bin/../lib/gcc/arm-none-eabi/4.8.3/../../../../arm-none-eabi/lib/thumb/libm.a(lib_a-wf_sqrt.o)
 .text          0x00000000        0x0 /opt/gcc-arm-none-eabi-4_8-2013q4/bin/../lib/gcc/arm-none-eabi/4.8.3/../../../../arm-none-eabi/lib/thumb/libm.a(lib_a-e_acos.o)
 .data          0x00000000        0x0 /opt/gcc-arm-none-eabi-4_8-2013q4/bin/../lib/gcc/arm-none-eabi/4.8.3/../../../../arm-none-eabi/lib/thumb/libm.a(lib_a-e_acos.o)
 .bss           0x00000000        0x0 /opt/gcc-arm-none-eabi-4_8-2013q4/bin/../lib/gcc/arm-none-eabi/4.8.3/../../../../arm-none-eabi/lib/thumb/libm.a(lib_a-e_acos.o)
 .text.__ieee754_acos
                0x00000000      0x498 /opt/gcc-arm-none-eabi-4_8-2013q4/bin/../lib/gcc/arm-none-eabi/4.8.3/../../../../arm-none-eabi/lib/thumb/libm.a(lib_a-e_acos.o)
 .ARM.attributes
                0x00000000       0x30 /opt/gcc-arm-none-eabi-4_8-2013q4/bin/../lib/gcc/arm-none-eabi/4.8.3/../../../../arm-none-eabi/lib/thumb/libm.a(lib_a-e_acos.o)
 .debug_frame   0x00000000       0x30 /opt/gcc-arm-none-eabi-4_8-2013q4/bin/../lib/gcc/arm-none-eabi/4.8.3/../../../../arm-none-eabi/lib/thumb/libm.a(lib_a-e_acos.o)
 .text          0x00000000        0x0 /opt/gcc-arm-none-eabi-4_8-2013q4/bin/../lib/gcc/arm-none-eabi/4.8.3/../../../../arm-none-eabi/lib/thumb/libm.a(lib_a-e_asin.o)
 .data          0x00000000        0x0 /opt/gcc-arm-none-eabi-4_8-2013q4/bin/../lib/gcc/arm-none-eabi/4.8.3/../../../../arm-none-eabi/lib/thumb/libm.a(lib_a-e_asin.o)
 .bss           0x00000000        0x0 /opt/gcc-arm-none-eabi-4_8-2013q4/bin/../lib/gcc/arm-none-eabi/4.8.3/../../../../arm-none-eabi/lib/thumb/libm.a(lib_a-e_asin.o)
 .text          0x00000000        0x0 /opt/gcc-arm-none-eabi-4_8-2013q4/bin/../lib/gcc/arm-none-eabi/4.8.3/../../../../arm-none-eabi/lib/thumb/libm.a(lib_a-e_atan2.o)
 .data          0x00000000        0x0 /opt/gcc-arm-none-eabi-4_8-2013q4/bin/../lib/gcc/arm-none-eabi/4.8.3/../../../../arm-none-eabi/lib/thumb/libm.a(lib_a-e_atan2.o)
 .bss           0x00000000        0x0 /opt/gcc-arm-none-eabi-4_8-2013q4/bin/../lib/gcc/arm-none-eabi/4.8.3/../../../../arm-none-eabi/lib/thumb/libm.a(lib_a-e_atan2.o)
 .text          0x00000000        0x0 /opt/gcc-arm-none-eabi-4_8-2013q4/bin/../lib/gcc/arm-none-eabi/4.8.3/../../../../arm-none-eabi/lib/thumb/libm.a(lib_a-e_cosh.o)
 .data          0x00000000        0x0 /opt/gcc-arm-none-eabi-4_8-2013q4/bin/../lib/gcc/arm-none-eabi/4.8.3/../../../../arm-none-eabi/lib/thumb/libm.a(lib_a-e_cosh.o)
 .bss           0x00000000        0x0 /opt/gcc-arm-none-eabi-4_8-2013q4/bin/../lib/gcc/arm-none-eabi/4.8.3/../../../../arm-none-eabi/lib/thumb/libm.a(lib_a-e_cosh.o)
 .text          0x00000000        0x0 /opt/gcc-arm-none-eabi-4_8-2013q4/bin/../lib/gcc/arm-none-eabi/4.8.3/../../../../arm-none-eabi/lib/thumb/libm.a(lib_a-e_exp.o)
 .data          0x00000000        0x0 /opt/gcc-arm-none-eabi-4_8-2013q4/bin/../lib/gcc/arm-none-eabi/4.8.3/../../../../arm-none-eabi/lib/thumb/libm.a(lib_a-e_exp.o)
 .bss           0x00000000        0x0 /opt/gcc-arm-none-eabi-4_8-2013q4/bin/../lib/gcc/arm-none-eabi/4.8.3/../../../../arm-none-eabi/lib/thumb/libm.a(lib_a-e_exp.o)
 .text          0x00000000        0x0 /opt/gcc-arm-none-eabi-4_8-2013q4/bin/../lib/gcc/arm-none-eabi/4.8.3/../../../../arm-none-eabi/lib/thumb/libm.a(lib_a-e_log.o)
 .data          0x00000000        0x0 /opt/gcc-arm-none-eabi-4_8-2013q4/bin/../lib/gcc/arm-none-eabi/4.8.3/../../../../arm-none-eabi/lib/thumb/libm.a(lib_a-e_log.o)
 .bss           0x00000000        0x0 /opt/gcc-arm-none-eabi-4_8-2013q4/bin/../lib/gcc/arm-none-eabi/4.8.3/../../../../arm-none-eabi/lib/thumb/libm.a(lib_a-e_log.o)
 .text          0x00000000        0x0 /opt/gcc-arm-none-eabi-4_8-2013q4/bin/../lib/gcc/arm-none-eabi/4.8.3/../../../../arm-none-eabi/lib/thumb/libm.a(lib_a-e_pow.o)
 .data          0x00000000        0x0 /opt/gcc-arm-none-eabi-4_8-2013q4/bin/../lib/gcc/arm-none-eabi/4.8.3/../../../../arm-none-eabi/lib/thumb/libm.a(lib_a-e_pow.o)
 .bss           0x00000000        0x0 /opt/gcc-arm-none-eabi-4_8-2013q4/bin/../lib/gcc/arm-none-eabi/4.8.3/../../../../arm-none-eabi/lib/thumb/libm.a(lib_a-e_pow.o)
 .text.__ieee754_pow
                0x00000000      0xb18 /opt/gcc-arm-none-eabi-4_8-2013q4/bin/../lib/gcc/arm-none-eabi/4.8.3/../../../../arm-none-eabi/lib/thumb/libm.a(lib_a-e_pow.o)
 .rodata.dp_h   0x00000000       0x10 /opt/gcc-arm-none-eabi-4_8-2013q4/bin/../lib/gcc/arm-none-eabi/4.8.3/../../../../arm-none-eabi/lib/thumb/libm.a(lib_a-e_pow.o)
 .rodata.dp_l   0x00000000       0x10 /opt/gcc-arm-none-eabi-4_8-2013q4/bin/../lib/gcc/arm-none-eabi/4.8.3/../../../../arm-none-eabi/lib/thumb/libm.a(lib_a-e_pow.o)
 .rodata.bp     0x00000000       0x10 /opt/gcc-arm-none-eabi-4_8-2013q4/bin/../lib/gcc/arm-none-eabi/4.8.3/../../../../arm-none-eabi/lib/thumb/libm.a(lib_a-e_pow.o)
 .rodata.str1.4
                0x00000000        0x4 /opt/gcc-arm-none-eabi-4_8-2013q4/bin/../lib/gcc/arm-none-eabi/4.8.3/../../../../arm-none-eabi/lib/thumb/libm.a(lib_a-e_pow.o)
 .ARM.attributes
                0x00000000       0x30 /opt/gcc-arm-none-eabi-4_8-2013q4/bin/../lib/gcc/arm-none-eabi/4.8.3/../../../../arm-none-eabi/lib/thumb/libm.a(lib_a-e_pow.o)
 .debug_frame   0x00000000       0x3c /opt/gcc-arm-none-eabi-4_8-2013q4/bin/../lib/gcc/arm-none-eabi/4.8.3/../../../../arm-none-eabi/lib/thumb/libm.a(lib_a-e_pow.o)
 .text          0x00000000        0x0 /opt/gcc-arm-none-eabi-4_8-2013q4/bin/../lib/gcc/arm-none-eabi/4.8.3/../../../../arm-none-eabi/lib/thumb/libm.a(lib_a-e_rem_pio2.o)
 .data          0x00000000        0x0 /opt/gcc-arm-none-eabi-4_8-2013q4/bin/../lib/gcc/arm-none-eabi/4.8.3/../../../../arm-none-eabi/lib/thumb/libm.a(lib_a-e_rem_pio2.o)
 .bss           0x00000000        0x0 /opt/gcc-arm-none-eabi-4_8-2013q4/bin/../lib/gcc/arm-none-eabi/4.8.3/../../../../arm-none-eabi/lib/thumb/libm.a(lib_a-e_rem_pio2.o)
 .text          0x00000000        0x0 /opt/gcc-arm-none-eabi-4_8-2013q4/bin/../lib/gcc/arm-none-eabi/4.8.3/../../../../arm-none-eabi/lib/thumb/libm.a(lib_a-e_sinh.o)
 .data          0x00000000        0x0 /opt/gcc-arm-none-eabi-4_8-2013q4/bin/../lib/gcc/arm-none-eabi/4.8.3/../../../../arm-none-eabi/lib/thumb/libm.a(lib_a-e_sinh.o)
 .bss           0x00000000        0x0 /opt/gcc-arm-none-eabi-4_8-2013q4/bin/../lib/gcc/arm-none-eabi/4.8.3/../../../../arm-none-eabi/lib/thumb/libm.a(lib_a-e_sinh.o)
 .text          0x00000000        0x0 /opt/gcc-arm-none-eabi-4_8-2013q4/bin/../lib/gcc/arm-none-eabi/4.8.3/../../../../arm-none-eabi/lib/thumb/libm.a(lib_a-e_sqrt.o)
 .data          0x00000000        0x0 /opt/gcc-arm-none-eabi-4_8-2013q4/bin/../lib/gcc/arm-none-eabi/4.8.3/../../../../arm-none-eabi/lib/thumb/libm.a(lib_a-e_sqrt.o)
 .bss           0x00000000        0x0 /opt/gcc-arm-none-eabi-4_8-2013q4/bin/../lib/gcc/arm-none-eabi/4.8.3/../../../../arm-none-eabi/lib/thumb/libm.a(lib_a-e_sqrt.o)
 .text          0x00000000        0x0 /opt/gcc-arm-none-eabi-4_8-2013q4/bin/../lib/gcc/arm-none-eabi/4.8.3/../../../../arm-none-eabi/lib/thumb/libm.a(lib_a-ef_atan2.o)
 .data          0x00000000        0x0 /opt/gcc-arm-none-eabi-4_8-2013q4/bin/../lib/gcc/arm-none-eabi/4.8.3/../../../../arm-none-eabi/lib/thumb/libm.a(lib_a-ef_atan2.o)
 .bss           0x00000000        0x0 /opt/gcc-arm-none-eabi-4_8-2013q4/bin/../lib/gcc/arm-none-eabi/4.8.3/../../../../arm-none-eabi/lib/thumb/libm.a(lib_a-ef_atan2.o)
 .text          0x00000000        0x0 /opt/gcc-arm-none-eabi-4_8-2013q4/bin/../lib/gcc/arm-none-eabi/4.8.3/../../../../arm-none-eabi/lib/thumb/libm.a(lib_a-ef_pow.o)
 .data          0x00000000        0x0 /opt/gcc-arm-none-eabi-4_8-2013q4/bin/../lib/gcc/arm-none-eabi/4.8.3/../../../../arm-none-eabi/lib/thumb/libm.a(lib_a-ef_pow.o)
 .bss           0x00000000        0x0 /opt/gcc-arm-none-eabi-4_8-2013q4/bin/../lib/gcc/arm-none-eabi/4.8.3/../../../../arm-none-eabi/lib/thumb/libm.a(lib_a-ef_pow.o)
 .text.__ieee754_powf
                0x00000000      0x740 /opt/gcc-arm-none-eabi-4_8-2013q4/bin/../lib/gcc/arm-none-eabi/4.8.3/../../../../arm-none-eabi/lib/thumb/libm.a(lib_a-ef_pow.o)
 .rodata.dp_h   0x00000000        0x8 /opt/gcc-arm-none-eabi-4_8-2013q4/bin/../lib/gcc/arm-none-eabi/4.8.3/../../../../arm-none-eabi/lib/thumb/libm.a(lib_a-ef_pow.o)
 .rodata.dp_l   0x00000000        0x8 /opt/gcc-arm-none-eabi-4_8-2013q4/bin/../lib/gcc/arm-none-eabi/4.8.3/../../../../arm-none-eabi/lib/thumb/libm.a(lib_a-ef_pow.o)
 .rodata.bp     0x00000000        0x8 /opt/gcc-arm-none-eabi-4_8-2013q4/bin/../lib/gcc/arm-none-eabi/4.8.3/../../../../arm-none-eabi/lib/thumb/libm.a(lib_a-ef_pow.o)
 .rodata.str1.4
                0x00000000        0x4 /opt/gcc-arm-none-eabi-4_8-2013q4/bin/../lib/gcc/arm-none-eabi/4.8.3/../../../../arm-none-eabi/lib/thumb/libm.a(lib_a-ef_pow.o)
 .ARM.attributes
                0x00000000       0x30 /opt/gcc-arm-none-eabi-4_8-2013q4/bin/../lib/gcc/arm-none-eabi/4.8.3/../../../../arm-none-eabi/lib/thumb/libm.a(lib_a-ef_pow.o)
 .debug_frame   0x00000000       0x3c /opt/gcc-arm-none-eabi-4_8-2013q4/bin/../lib/gcc/arm-none-eabi/4.8.3/../../../../arm-none-eabi/lib/thumb/libm.a(lib_a-ef_pow.o)
 .text          0x00000000        0x0 /opt/gcc-arm-none-eabi-4_8-2013q4/bin/../lib/gcc/arm-none-eabi/4.8.3/../../../../arm-none-eabi/lib/thumb/libm.a(lib_a-ef_rem_pio2.o)
 .data          0x00000000        0x0 /opt/gcc-arm-none-eabi-4_8-2013q4/bin/../lib/gcc/arm-none-eabi/4.8.3/../../../../arm-none-eabi/lib/thumb/libm.a(lib_a-ef_rem_pio2.o)
 .bss           0x00000000        0x0 /opt/gcc-arm-none-eabi-4_8-2013q4/bin/../lib/gcc/arm-none-eabi/4.8.3/../../../../arm-none-eabi/lib/thumb/libm.a(lib_a-ef_rem_pio2.o)
 .text          0x00000000        0x0 /opt/gcc-arm-none-eabi-4_8-2013q4/bin/../lib/gcc/arm-none-eabi/4.8.3/../../../../arm-none-eabi/lib/thumb/libm.a(lib_a-ef_sqrt.o)
 .data          0x00000000        0x0 /opt/gcc-arm-none-eabi-4_8-2013q4/bin/../lib/gcc/arm-none-eabi/4.8.3/../../../../arm-none-eabi/lib/thumb/libm.a(lib_a-ef_sqrt.o)
 .bss           0x00000000        0x0 /opt/gcc-arm-none-eabi-4_8-2013q4/bin/../lib/gcc/arm-none-eabi/4.8.3/../../../../arm-none-eabi/lib/thumb/libm.a(lib_a-ef_sqrt.o)
 .text.__ieee754_sqrtf
                0x00000000       0xc0 /opt/gcc-arm-none-eabi-4_8-2013q4/bin/../lib/gcc/arm-none-eabi/4.8.3/../../../../arm-none-eabi/lib/thumb/libm.a(lib_a-ef_sqrt.o)
 .ARM.attributes
                0x00000000       0x30 /opt/gcc-arm-none-eabi-4_8-2013q4/bin/../lib/gcc/arm-none-eabi/4.8.3/../../../../arm-none-eabi/lib/thumb/libm.a(lib_a-ef_sqrt.o)
 .debug_frame   0x00000000       0x2c /opt/gcc-arm-none-eabi-4_8-2013q4/bin/../lib/gcc/arm-none-eabi/4.8.3/../../../../arm-none-eabi/lib/thumb/libm.a(lib_a-ef_sqrt.o)
 .text          0x00000000        0x0 /opt/gcc-arm-none-eabi-4_8-2013q4/bin/../lib/gcc/arm-none-eabi/4.8.3/../../../../arm-none-eabi/lib/thumb/libm.a(lib_a-k_cos.o)
 .data          0x00000000        0x0 /opt/gcc-arm-none-eabi-4_8-2013q4/bin/../lib/gcc/arm-none-eabi/4.8.3/../../../../arm-none-eabi/lib/thumb/libm.a(lib_a-k_cos.o)
 .bss           0x00000000        0x0 /opt/gcc-arm-none-eabi-4_8-2013q4/bin/../lib/gcc/arm-none-eabi/4.8.3/../../../../arm-none-eabi/lib/thumb/libm.a(lib_a-k_cos.o)
 .text          0x00000000        0x0 /opt/gcc-arm-none-eabi-4_8-2013q4/bin/../lib/gcc/arm-none-eabi/4.8.3/../../../../arm-none-eabi/lib/thumb/libm.a(lib_a-k_rem_pio2.o)
 .data          0x00000000        0x0 /opt/gcc-arm-none-eabi-4_8-2013q4/bin/../lib/gcc/arm-none-eabi/4.8.3/../../../../arm-none-eabi/lib/thumb/libm.a(lib_a-k_rem_pio2.o)
 .bss           0x00000000        0x0 /opt/gcc-arm-none-eabi-4_8-2013q4/bin/../lib/gcc/arm-none-eabi/4.8.3/../../../../arm-none-eabi/lib/thumb/libm.a(lib_a-k_rem_pio2.o)
 .text          0x00000000        0x0 /opt/gcc-arm-none-eabi-4_8-2013q4/bin/../lib/gcc/arm-none-eabi/4.8.3/../../../../arm-none-eabi/lib/thumb/libm.a(lib_a-k_sin.o)
 .data          0x00000000        0x0 /opt/gcc-arm-none-eabi-4_8-2013q4/bin/../lib/gcc/arm-none-eabi/4.8.3/../../../../arm-none-eabi/lib/thumb/libm.a(lib_a-k_sin.o)
 .bss           0x00000000        0x0 /opt/gcc-arm-none-eabi-4_8-2013q4/bin/../lib/gcc/arm-none-eabi/4.8.3/../../../../arm-none-eabi/lib/thumb/libm.a(lib_a-k_sin.o)
 .text          0x00000000        0x0 /opt/gcc-arm-none-eabi-4_8-2013q4/bin/../lib/gcc/arm-none-eabi/4.8.3/../../../../arm-none-eabi/lib/thumb/libm.a(lib_a-k_tan.o)
 .data          0x00000000        0x0 /opt/gcc-arm-none-eabi-4_8-2013q4/bin/../lib/gcc/arm-none-eabi/4.8.3/../../../../arm-none-eabi/lib/thumb/libm.a(lib_a-k_tan.o)
 .bss           0x00000000        0x0 /opt/gcc-arm-none-eabi-4_8-2013q4/bin/../lib/gcc/arm-none-eabi/4.8.3/../../../../arm-none-eabi/lib/thumb/libm.a(lib_a-k_tan.o)
 .text          0x00000000        0x0 /opt/gcc-arm-none-eabi-4_8-2013q4/bin/../lib/gcc/arm-none-eabi/4.8.3/../../../../arm-none-eabi/lib/thumb/libm.a(lib_a-kf_cos.o)
 .data          0x00000000        0x0 /opt/gcc-arm-none-eabi-4_8-2013q4/bin/../lib/gcc/arm-none-eabi/4.8.3/../../../../arm-none-eabi/lib/thumb/libm.a(lib_a-kf_cos.o)
 .bss           0x00000000        0x0 /opt/gcc-arm-none-eabi-4_8-2013q4/bin/../lib/gcc/arm-none-eabi/4.8.3/../../../../arm-none-eabi/lib/thumb/libm.a(lib_a-kf_cos.o)
 .text          0x00000000        0x0 /opt/gcc-arm-none-eabi-4_8-2013q4/bin/../lib/gcc/arm-none-eabi/4.8.3/../../../../arm-none-eabi/lib/thumb/libm.a(lib_a-kf_rem_pio2.o)
 .data          0x00000000        0x0 /opt/gcc-arm-none-eabi-4_8-2013q4/bin/../lib/gcc/arm-none-eabi/4.8.3/../../../../arm-none-eabi/lib/thumb/libm.a(lib_a-kf_rem_pio2.o)
 .bss           0x00000000        0x0 /opt/gcc-arm-none-eabi-4_8-2013q4/bin/../lib/gcc/arm-none-eabi/4.8.3/../../../../arm-none-eabi/lib/thumb/libm.a(lib_a-kf_rem_pio2.o)
 .text          0x00000000        0x0 /opt/gcc-arm-none-eabi-4_8-2013q4/bin/../lib/gcc/arm-none-eabi/4.8.3/../../../../arm-none-eabi/lib/thumb/libm.a(lib_a-kf_sin.o)
 .data          0x00000000        0x0 /opt/gcc-arm-none-eabi-4_8-2013q4/bin/../lib/gcc/arm-none-eabi/4.8.3/../../../../arm-none-eabi/lib/thumb/libm.a(lib_a-kf_sin.o)
 .bss           0x00000000        0x0 /opt/gcc-arm-none-eabi-4_8-2013q4/bin/../lib/gcc/arm-none-eabi/4.8.3/../../../../arm-none-eabi/lib/thumb/libm.a(lib_a-kf_sin.o)
 .text          0x00000000        0x0 /opt/gcc-arm-none-eabi-4_8-2013q4/bin/../lib/gcc/arm-none-eabi/4.8.3/../../../../arm-none-eabi/lib/thumb/libm.a(lib_a-kf_tan.o)
 .data          0x00000000        0x0 /opt/gcc-arm-none-eabi-4_8-2013q4/bin/../lib/gcc/arm-none-eabi/4.8.3/../../../../arm-none-eabi/lib/thumb/libm.a(lib_a-kf_tan.o)
 .bss           0x00000000        0x0 /opt/gcc-arm-none-eabi-4_8-2013q4/bin/../lib/gcc/arm-none-eabi/4.8.3/../../../../arm-none-eabi/lib/thumb/libm.a(lib_a-kf_tan.o)
 .text.__kernel_tanf
                0x00000000      0x284 /opt/gcc-arm-none-eabi-4_8-2013q4/bin/../lib/gcc/arm-none-eabi/4.8.3/../../../../arm-none-eabi/lib/thumb/libm.a(lib_a-kf_tan.o)
 .ARM.attributes
                0x00000000       0x30 /opt/gcc-arm-none-eabi-4_8-2013q4/bin/../lib/gcc/arm-none-eabi/4.8.3/../../../../arm-none-eabi/lib/thumb/libm.a(lib_a-kf_tan.o)
 .debug_frame   0x00000000       0x3c /opt/gcc-arm-none-eabi-4_8-2013q4/bin/../lib/gcc/arm-none-eabi/4.8.3/../../../../arm-none-eabi/lib/thumb/libm.a(lib_a-kf_tan.o)
 .text          0x00000000        0x0 /opt/gcc-arm-none-eabi-4_8-2013q4/bin/../lib/gcc/arm-none-eabi/4.8.3/../../../../arm-none-eabi/lib/thumb/libm.a(lib_a-s_expm1.o)
 .data          0x00000000        0x0 /opt/gcc-arm-none-eabi-4_8-2013q4/bin/../lib/gcc/arm-none-eabi/4.8.3/../../../../arm-none-eabi/lib/thumb/libm.a(lib_a-s_expm1.o)
 .bss           0x00000000        0x0 /opt/gcc-arm-none-eabi-4_8-2013q4/bin/../lib/gcc/arm-none-eabi/4.8.3/../../../../arm-none-eabi/lib/thumb/libm.a(lib_a-s_expm1.o)
 .text          0x00000000        0x0 /opt/gcc-arm-none-eabi-4_8-2013q4/bin/../lib/gcc/arm-none-eabi/4.8.3/../../../../arm-none-eabi/lib/thumb/libm.a(lib_a-s_finite.o)
 .data          0x00000000        0x0 /opt/gcc-arm-none-eabi-4_8-2013q4/bin/../lib/gcc/arm-none-eabi/4.8.3/../../../../arm-none-eabi/lib/thumb/libm.a(lib_a-s_finite.o)
 .bss           0x00000000        0x0 /opt/gcc-arm-none-eabi-4_8-2013q4/bin/../lib/gcc/arm-none-eabi/4.8.3/../../../../arm-none-eabi/lib/thumb/libm.a(lib_a-s_finite.o)
 .text          0x00000000        0x0 /opt/gcc-arm-none-eabi-4_8-2013q4/bin/../lib/gcc/arm-none-eabi/4.8.3/../../../../arm-none-eabi/lib/thumb/libm.a(lib_a-s_floor.o)
 .data          0x00000000        0x0 /opt/gcc-arm-none-eabi-4_8-2013q4/bin/../lib/gcc/arm-none-eabi/4.8.3/../../../../arm-none-eabi/lib/thumb/libm.a(lib_a-s_floor.o)
 .bss           0x00000000        0x0 /opt/gcc-arm-none-eabi-4_8-2013q4/bin/../lib/gcc/arm-none-eabi/4.8.3/../../../../arm-none-eabi/lib/thumb/libm.a(lib_a-s_floor.o)
 .text          0x00000000        0x0 /opt/gcc-arm-none-eabi-4_8-2013q4/bin/../lib/gcc/arm-none-eabi/4.8.3/../../../../arm-none-eabi/lib/thumb/libm.a(lib_a-s_fpclassify.o)
 .data          0x00000000        0x0 /opt/gcc-arm-none-eabi-4_8-2013q4/bin/../lib/gcc/arm-none-eabi/4.8.3/../../../../arm-none-eabi/lib/thumb/libm.a(lib_a-s_fpclassify.o)
 .bss           0x00000000        0x0 /opt/gcc-arm-none-eabi-4_8-2013q4/bin/../lib/gcc/arm-none-eabi/4.8.3/../../../../arm-none-eabi/lib/thumb/libm.a(lib_a-s_fpclassify.o)
 .text          0x00000000        0x0 /opt/gcc-arm-none-eabi-4_8-2013q4/bin/../lib/gcc/arm-none-eabi/4.8.3/../../../../arm-none-eabi/lib/thumb/libm.a(lib_a-s_lib_ver.o)
 .data          0x00000000        0x0 /opt/gcc-arm-none-eabi-4_8-2013q4/bin/../lib/gcc/arm-none-eabi/4.8.3/../../../../arm-none-eabi/lib/thumb/libm.a(lib_a-s_lib_ver.o)
 .bss           0x00000000        0x0 /opt/gcc-arm-none-eabi-4_8-2013q4/bin/../lib/gcc/arm-none-eabi/4.8.3/../../../../arm-none-eabi/lib/thumb/libm.a(lib_a-s_lib_ver.o)
 .text          0x00000000        0x0 /opt/gcc-arm-none-eabi-4_8-2013q4/bin/../lib/gcc/arm-none-eabi/4.8.3/../../../../arm-none-eabi/lib/thumb/libm.a(lib_a-s_matherr.o)
 .data          0x00000000        0x0 /opt/gcc-arm-none-eabi-4_8-2013q4/bin/../lib/gcc/arm-none-eabi/4.8.3/../../../../arm-none-eabi/lib/thumb/libm.a(lib_a-s_matherr.o)
 .bss           0x00000000        0x0 /opt/gcc-arm-none-eabi-4_8-2013q4/bin/../lib/gcc/arm-none-eabi/4.8.3/../../../../arm-none-eabi/lib/thumb/libm.a(lib_a-s_matherr.o)
 .text          0x00000000        0x0 /opt/gcc-arm-none-eabi-4_8-2013q4/bin/../lib/gcc/arm-none-eabi/4.8.3/../../../../arm-none-eabi/lib/thumb/libm.a(lib_a-s_nan.o)
 .data          0x00000000        0x0 /opt/gcc-arm-none-eabi-4_8-2013q4/bin/../lib/gcc/arm-none-eabi/4.8.3/../../../../arm-none-eabi/lib/thumb/libm.a(lib_a-s_nan.o)
 .bss           0x00000000        0x0 /opt/gcc-arm-none-eabi-4_8-2013q4/bin/../lib/gcc/arm-none-eabi/4.8.3/../../../../arm-none-eabi/lib/thumb/libm.a(lib_a-s_nan.o)
 .text          0x00000000        0x0 /opt/gcc-arm-none-eabi-4_8-2013q4/bin/../lib/gcc/arm-none-eabi/4.8.3/../../../../arm-none-eabi/lib/thumb/libm.a(lib_a-s_scalbn.o)
 .data          0x00000000        0x0 /opt/gcc-arm-none-eabi-4_8-2013q4/bin/../lib/gcc/arm-none-eabi/4.8.3/../../../../arm-none-eabi/lib/thumb/libm.a(lib_a-s_scalbn.o)
 .bss           0x00000000        0x0 /opt/gcc-arm-none-eabi-4_8-2013q4/bin/../lib/gcc/arm-none-eabi/4.8.3/../../../../arm-none-eabi/lib/thumb/libm.a(lib_a-s_scalbn.o)
 .text          0x00000000        0x0 /opt/gcc-arm-none-eabi-4_8-2013q4/bin/../lib/gcc/arm-none-eabi/4.8.3/../../../../arm-none-eabi/lib/thumb/libm.a(lib_a-sf_finite.o)
 .data          0x00000000        0x0 /opt/gcc-arm-none-eabi-4_8-2013q4/bin/../lib/gcc/arm-none-eabi/4.8.3/../../../../arm-none-eabi/lib/thumb/libm.a(lib_a-sf_finite.o)
 .bss           0x00000000        0x0 /opt/gcc-arm-none-eabi-4_8-2013q4/bin/../lib/gcc/arm-none-eabi/4.8.3/../../../../arm-none-eabi/lib/thumb/libm.a(lib_a-sf_finite.o)
 .text.finitef  0x00000000       0x14 /opt/gcc-arm-none-eabi-4_8-2013q4/bin/../lib/gcc/arm-none-eabi/4.8.3/../../../../arm-none-eabi/lib/thumb/libm.a(lib_a-sf_finite.o)
 .ARM.attributes
                0x00000000       0x30 /opt/gcc-arm-none-eabi-4_8-2013q4/bin/../lib/gcc/arm-none-eabi/4.8.3/../../../../arm-none-eabi/lib/thumb/libm.a(lib_a-sf_finite.o)
 .debug_frame   0x00000000       0x20 /opt/gcc-arm-none-eabi-4_8-2013q4/bin/../lib/gcc/arm-none-eabi/4.8.3/../../../../arm-none-eabi/lib/thumb/libm.a(lib_a-sf_finite.o)
 .text          0x00000000        0x0 /opt/gcc-arm-none-eabi-4_8-2013q4/bin/../lib/gcc/arm-none-eabi/4.8.3/../../../../arm-none-eabi/lib/thumb/libm.a(lib_a-sf_floor.o)
 .data          0x00000000        0x0 /opt/gcc-arm-none-eabi-4_8-2013q4/bin/../lib/gcc/arm-none-eabi/4.8.3/../../../../arm-none-eabi/lib/thumb/libm.a(lib_a-sf_floor.o)
 .bss           0x00000000        0x0 /opt/gcc-arm-none-eabi-4_8-2013q4/bin/../lib/gcc/arm-none-eabi/4.8.3/../../../../arm-none-eabi/lib/thumb/libm.a(lib_a-sf_floor.o)
 .text          0x00000000        0x0 /opt/gcc-arm-none-eabi-4_8-2013q4/bin/../lib/gcc/arm-none-eabi/4.8.3/../../../../arm-none-eabi/lib/thumb/libm.a(lib_a-sf_fpclassify.o)
 .data          0x00000000        0x0 /opt/gcc-arm-none-eabi-4_8-2013q4/bin/../lib/gcc/arm-none-eabi/4.8.3/../../../../arm-none-eabi/lib/thumb/libm.a(lib_a-sf_fpclassify.o)
 .bss           0x00000000        0x0 /opt/gcc-arm-none-eabi-4_8-2013q4/bin/../lib/gcc/arm-none-eabi/4.8.3/../../../../arm-none-eabi/lib/thumb/libm.a(lib_a-sf_fpclassify.o)
 .text.__fpclassifyf
                0x00000000       0x3c /opt/gcc-arm-none-eabi-4_8-2013q4/bin/../lib/gcc/arm-none-eabi/4.8.3/../../../../arm-none-eabi/lib/thumb/libm.a(lib_a-sf_fpclassify.o)
 .ARM.attributes
                0x00000000       0x30 /opt/gcc-arm-none-eabi-4_8-2013q4/bin/../lib/gcc/arm-none-eabi/4.8.3/../../../../arm-none-eabi/lib/thumb/libm.a(lib_a-sf_fpclassify.o)
 .debug_frame   0x00000000       0x20 /opt/gcc-arm-none-eabi-4_8-2013q4/bin/../lib/gcc/arm-none-eabi/4.8.3/../../../../arm-none-eabi/lib/thumb/libm.a(lib_a-sf_fpclassify.o)
 .text          0x00000000        0x0 /opt/gcc-arm-none-eabi-4_8-2013q4/bin/../lib/gcc/arm-none-eabi/4.8.3/../../../../arm-none-eabi/lib/thumb/libm.a(lib_a-sf_nan.o)
 .data          0x00000000        0x0 /opt/gcc-arm-none-eabi-4_8-2013q4/bin/../lib/gcc/arm-none-eabi/4.8.3/../../../../arm-none-eabi/lib/thumb/libm.a(lib_a-sf_nan.o)
 .bss           0x00000000        0x0 /opt/gcc-arm-none-eabi-4_8-2013q4/bin/../lib/gcc/arm-none-eabi/4.8.3/../../../../arm-none-eabi/lib/thumb/libm.a(lib_a-sf_nan.o)
 .text.nanf     0x00000000        0x8 /opt/gcc-arm-none-eabi-4_8-2013q4/bin/../lib/gcc/arm-none-eabi/4.8.3/../../../../arm-none-eabi/lib/thumb/libm.a(lib_a-sf_nan.o)
 .ARM.attributes
                0x00000000       0x30 /opt/gcc-arm-none-eabi-4_8-2013q4/bin/../lib/gcc/arm-none-eabi/4.8.3/../../../../arm-none-eabi/lib/thumb/libm.a(lib_a-sf_nan.o)
 .debug_frame   0x00000000       0x20 /opt/gcc-arm-none-eabi-4_8-2013q4/bin/../lib/gcc/arm-none-eabi/4.8.3/../../../../arm-none-eabi/lib/thumb/libm.a(lib_a-sf_nan.o)
 .text          0x00000000        0x0 /opt/gcc-arm-none-eabi-4_8-2013q4/bin/../lib/gcc/arm-none-eabi/4.8.3/../../../../arm-none-eabi/lib/thumb/libm.a(lib_a-sf_scalbn.o)
 .data          0x00000000        0x0 /opt/gcc-arm-none-eabi-4_8-2013q4/bin/../lib/gcc/arm-none-eabi/4.8.3/../../../../arm-none-eabi/lib/thumb/libm.a(lib_a-sf_scalbn.o)
 .bss           0x00000000        0x0 /opt/gcc-arm-none-eabi-4_8-2013q4/bin/../lib/gcc/arm-none-eabi/4.8.3/../../../../arm-none-eabi/lib/thumb/libm.a(lib_a-sf_scalbn.o)
 .text          0x00000000        0x0 /opt/gcc-arm-none-eabi-4_8-2013q4/bin/../lib/gcc/arm-none-eabi/4.8.3/../../../../arm-none-eabi/lib/thumb/libm.a(lib_a-s_copysign.o)
 .data          0x00000000        0x0 /opt/gcc-arm-none-eabi-4_8-2013q4/bin/../lib/gcc/arm-none-eabi/4.8.3/../../../../arm-none-eabi/lib/thumb/libm.a(lib_a-s_copysign.o)
 .bss           0x00000000        0x0 /opt/gcc-arm-none-eabi-4_8-2013q4/bin/../lib/gcc/arm-none-eabi/4.8.3/../../../../arm-none-eabi/lib/thumb/libm.a(lib_a-s_copysign.o)
 .text          0x00000000        0x0 /opt/gcc-arm-none-eabi-4_8-2013q4/bin/../lib/gcc/arm-none-eabi/4.8.3/../../../../arm-none-eabi/lib/thumb/libm.a(lib_a-sf_copysign.o)
 .data          0x00000000        0x0 /opt/gcc-arm-none-eabi-4_8-2013q4/bin/../lib/gcc/arm-none-eabi/4.8.3/../../../../arm-none-eabi/lib/thumb/libm.a(lib_a-sf_copysign.o)
 .bss           0x00000000        0x0 /opt/gcc-arm-none-eabi-4_8-2013q4/bin/../lib/gcc/arm-none-eabi/4.8.3/../../../../arm-none-eabi/lib/thumb/libm.a(lib_a-sf_copysign.o)
 .text          0x00000000        0x0 /opt/gcc-arm-none-eabi-4_8-2013q4/bin/../lib/gcc/arm-none-eabi/4.8.3/../../../../arm-none-eabi/lib/thumb/libc.a(lib_a-errno.o)
 .data          0x00000000        0x0 /opt/gcc-arm-none-eabi-4_8-2013q4/bin/../lib/gcc/arm-none-eabi/4.8.3/../../../../arm-none-eabi/lib/thumb/libc.a(lib_a-errno.o)
 .bss           0x00000000        0x0 /opt/gcc-arm-none-eabi-4_8-2013q4/bin/../lib/gcc/arm-none-eabi/4.8.3/../../../../arm-none-eabi/lib/thumb/libc.a(lib_a-errno.o)
 .text          0x00000000        0x0 /opt/gcc-arm-none-eabi-4_8-2013q4/bin/../lib/gcc/arm-none-eabi/4.8.3/../../../../arm-none-eabi/lib/thumb/libc.a(lib_a-impure.o)
 .data          0x00000000        0x0 /opt/gcc-arm-none-eabi-4_8-2013q4/bin/../lib/gcc/arm-none-eabi/4.8.3/../../../../arm-none-eabi/lib/thumb/libc.a(lib_a-impure.o)
 .bss           0x00000000        0x0 /opt/gcc-arm-none-eabi-4_8-2013q4/bin/../lib/gcc/arm-none-eabi/4.8.3/../../../../arm-none-eabi/lib/thumb/libc.a(lib_a-impure.o)
 .rodata._global_impure_ptr
                0x00000000        0x4 /opt/gcc-arm-none-eabi-4_8-2013q4/bin/../lib/gcc/arm-none-eabi/4.8.3/../../../../arm-none-eabi/lib/thumb/libc.a(lib_a-impure.o)
 .data          0x00000000        0x0 /opt/gcc-arm-none-eabi-4_8-2013q4/bin/../lib/gcc/arm-none-eabi/4.8.3/thumb/libgcc.a(_udivsi3.o)
 .bss           0x00000000        0x0 /opt/gcc-arm-none-eabi-4_8-2013q4/bin/../lib/gcc/arm-none-eabi/4.8.3/thumb/libgcc.a(_udivsi3.o)
 .data          0x00000000        0x0 /opt/gcc-arm-none-eabi-4_8-2013q4/bin/../lib/gcc/arm-none-eabi/4.8.3/thumb/libgcc.a(_divsi3.o)
 .bss           0x00000000        0x0 /opt/gcc-arm-none-eabi-4_8-2013q4/bin/../lib/gcc/arm-none-eabi/4.8.3/thumb/libgcc.a(_divsi3.o)
 .data          0x00000000        0x0 /opt/gcc-arm-none-eabi-4_8-2013q4/bin/../lib/gcc/arm-none-eabi/4.8.3/thumb/libgcc.a(_dvmd_tls.o)
 .bss           0x00000000        0x0 /opt/gcc-arm-none-eabi-4_8-2013q4/bin/../lib/gcc/arm-none-eabi/4.8.3/thumb/libgcc.a(_dvmd_tls.o)
 .data          0x00000000        0x0 /opt/gcc-arm-none-eabi-4_8-2013q4/bin/../lib/gcc/arm-none-eabi/4.8.3/thumb/libgcc.a(_arm_addsubdf3.o)
 .bss           0x00000000        0x0 /opt/gcc-arm-none-eabi-4_8-2013q4/bin/../lib/gcc/arm-none-eabi/4.8.3/thumb/libgcc.a(_arm_addsubdf3.o)
 .data          0x00000000        0x0 /opt/gcc-arm-none-eabi-4_8-2013q4/bin/../lib/gcc/arm-none-eabi/4.8.3/thumb/libgcc.a(_arm_muldivdf3.o)
 .bss           0x00000000        0x0 /opt/gcc-arm-none-eabi-4_8-2013q4/bin/../lib/gcc/arm-none-eabi/4.8.3/thumb/libgcc.a(_arm_muldivdf3.o)
 .data          0x00000000        0x0 /opt/gcc-arm-none-eabi-4_8-2013q4/bin/../lib/gcc/arm-none-eabi/4.8.3/thumb/libgcc.a(_arm_cmpdf2.o)
 .bss           0x00000000        0x0 /opt/gcc-arm-none-eabi-4_8-2013q4/bin/../lib/gcc/arm-none-eabi/4.8.3/thumb/libgcc.a(_arm_cmpdf2.o)
 .data          0x00000000        0x0 /opt/gcc-arm-none-eabi-4_8-2013q4/bin/../lib/gcc/arm-none-eabi/4.8.3/thumb/libgcc.a(_arm_fixdfsi.o)
 .bss           0x00000000        0x0 /opt/gcc-arm-none-eabi-4_8-2013q4/bin/../lib/gcc/arm-none-eabi/4.8.3/thumb/libgcc.a(_arm_fixdfsi.o)
 .data          0x00000000        0x0 /opt/gcc-arm-none-eabi-4_8-2013q4/bin/../lib/gcc/arm-none-eabi/4.8.3/thumb/libgcc.a(_arm_fixunsdfsi.o)
 .bss           0x00000000        0x0 /opt/gcc-arm-none-eabi-4_8-2013q4/bin/../lib/gcc/arm-none-eabi/4.8.3/thumb/libgcc.a(_arm_fixunsdfsi.o)
 .data          0x00000000        0x0 /opt/gcc-arm-none-eabi-4_8-2013q4/bin/../lib/gcc/arm-none-eabi/4.8.3/thumb/libgcc.a(_arm_truncdfsf2.o)
 .bss           0x00000000        0x0 /opt/gcc-arm-none-eabi-4_8-2013q4/bin/../lib/gcc/arm-none-eabi/4.8.3/thumb/libgcc.a(_arm_truncdfsf2.o)
 .data          0x00000000        0x0 /opt/gcc-arm-none-eabi-4_8-2013q4/bin/../lib/gcc/arm-none-eabi/4.8.3/thumb/libgcc.a(_arm_addsubsf3.o)
 .bss           0x00000000        0x0 /opt/gcc-arm-none-eabi-4_8-2013q4/bin/../lib/gcc/arm-none-eabi/4.8.3/thumb/libgcc.a(_arm_addsubsf3.o)
 .data          0x00000000        0x0 /opt/gcc-arm-none-eabi-4_8-2013q4/bin/../lib/gcc/arm-none-eabi/4.8.3/thumb/libgcc.a(_arm_muldivsf3.o)
 .bss           0x00000000        0x0 /opt/gcc-arm-none-eabi-4_8-2013q4/bin/../lib/gcc/arm-none-eabi/4.8.3/thumb/libgcc.a(_arm_muldivsf3.o)
 .data          0x00000000        0x0 /opt/gcc-arm-none-eabi-4_8-2013q4/bin/../lib/gcc/arm-none-eabi/4.8.3/thumb/libgcc.a(_arm_cmpsf2.o)
 .bss           0x00000000        0x0 /opt/gcc-arm-none-eabi-4_8-2013q4/bin/../lib/gcc/arm-none-eabi/4.8.3/thumb/libgcc.a(_arm_cmpsf2.o)
 .data          0x00000000        0x0 /opt/gcc-arm-none-eabi-4_8-2013q4/bin/../lib/gcc/arm-none-eabi/4.8.3/thumb/libgcc.a(_arm_fixsfsi.o)
 .bss           0x00000000        0x0 /opt/gcc-arm-none-eabi-4_8-2013q4/bin/../lib/gcc/arm-none-eabi/4.8.3/thumb/libgcc.a(_arm_fixsfsi.o)
 .data          0x00000000        0x0 /opt/gcc-arm-none-eabi-4_8-2013q4/bin/../lib/gcc/arm-none-eabi/4.8.3/thumb/libgcc.a(_arm_fixunssfsi.o)
 .bss           0x00000000        0x0 /opt/gcc-arm-none-eabi-4_8-2013q4/bin/../lib/gcc/arm-none-eabi/4.8.3/thumb/libgcc.a(_arm_fixunssfsi.o)

Memory Configuration

Name             Origin             Length             Attributes
ROM              0x00004000         0x00078000         xr
RAM              0x40000000         0x00007fe0         rw
*default*        0x00000000         0xffffffff

Linker script and memory map

LOAD /home/colibri/paparazziProto1/var/Colibri/ap/crt0.o
LOAD /home/colibri/paparazziProto1/var/Colibri/ap/mcu.o
LOAD /home/colibri/paparazziProto1/var/Colibri/ap/arch/lpc21/mcu_arch.o
LOAD /home/colibri/paparazziProto1/var/Colibri/ap/mcu_periph/sys_time.o
LOAD /home/colibri/paparazziProto1/var/Colibri/ap/arch/lpc21/mcu_periph/sys_time_arch.o
LOAD /home/colibri/paparazziProto1/var/Colibri/ap/./inter_mcu.o
LOAD /home/colibri/paparazziProto1/var/Colibri/ap/math/pprz_geodetic_int.o
LOAD /home/colibri/paparazziProto1/var/Colibri/ap/math/pprz_geodetic_float.o
LOAD /home/colibri/paparazziProto1/var/Colibri/ap/math/pprz_geodetic_double.o
LOAD /home/colibri/paparazziProto1/var/Colibri/ap/math/pprz_trig_int.o
LOAD /home/colibri/paparazziProto1/var/Colibri/ap/mcu_periph/i2c.o
LOAD /home/colibri/paparazziProto1/var/Colibri/ap/arch/lpc21/mcu_periph/i2c_arch.o
LOAD /home/colibri/paparazziProto1/var/Colibri/ap/firmwares/fixedwing/main_fbw.o
LOAD /home/colibri/paparazziProto1/var/Colibri/ap/subsystems/electrical.o
LOAD /home/colibri/paparazziProto1/var/Colibri/ap/./commands.o
LOAD /home/colibri/paparazziProto1/var/Colibri/ap/firmwares/fixedwing/fbw_downlink.o
LOAD /home/colibri/paparazziProto1/var/Colibri/ap/firmwares/fixedwing/main_ap.o
LOAD /home/colibri/paparazziProto1/var/Colibri/ap/./estimator.o
LOAD /home/colibri/paparazziProto1/var/Colibri/ap/firmwares/fixedwing/ap_downlink.o
LOAD /home/colibri/paparazziProto1/var/Colibri/ap/arch/lpc21/armVIC.o
LOAD /home/colibri/paparazziProto1/var/Colibri/ap/firmwares/fixedwing/main.o
LOAD /home/colibri/paparazziProto1/var/Colibri/ap/mcu_periph/uart.o
LOAD /home/colibri/paparazziProto1/var/Colibri/ap/arch/lpc21/mcu_periph/uart_arch.o
LOAD /home/colibri/paparazziProto1/var/Colibri/ap/subsystems/settings.o
LOAD /home/colibri/paparazziProto1/var/Colibri/ap/arch/lpc21/subsystems/settings_arch.o
LOAD /home/colibri/paparazziProto1/var/Colibri/ap/arch/lpc21/mcu_periph/adc_arch.o
LOAD /home/colibri/paparazziProto1/var/Colibri/ap/arch/lpc21/servos_4017_hw.o
LOAD /home/colibri/paparazziProto1/var/Colibri/ap/actuators.o
LOAD /home/colibri/paparazziProto1/var/Colibri/ap/subsystems/radio_control.o
LOAD /home/colibri/paparazziProto1/var/Colibri/ap/subsystems/radio_control/rc_datalink.o
LOAD /home/colibri/paparazziProto1/var/Colibri/ap/firmwares/fixedwing/stabilization/stabilization_attitude.o
LOAD /home/colibri/paparazziProto1/var/Colibri/ap/firmwares/fixedwing/guidance/guidance_v.o
LOAD /home/colibri/paparazziProto1/var/Colibri/ap/subsystems/nav.o
LOAD /home/colibri/paparazziProto1/var/Colibri/ap/subsystems/navigation/common_flight_plan.o
LOAD /home/colibri/paparazziProto1/var/Colibri/ap/subsystems/navigation/traffic_info.o
LOAD /home/colibri/paparazziProto1/var/Colibri/ap/subsystems/navigation/nav_survey_rectangle.o
LOAD /home/colibri/paparazziProto1/var/Colibri/ap/subsystems/navigation/nav_line.o
LOAD /home/colibri/paparazziProto1/var/Colibri/ap/subsystems/navigation/nav_cube.o
LOAD /home/colibri/paparazziProto1/var/Colibri/ap/subsystems/navigation/discsurvey.o
LOAD /home/colibri/paparazziProto1/var/Colibri/ap/subsystems/navigation/OSAMNav.o
LOAD /home/colibri/paparazziProto1/var/Colibri/ap/subsystems/navigation/snav.o
LOAD /home/colibri/paparazziProto1/var/Colibri/ap/subsystems/navigation/spiral.o
LOAD /home/colibri/paparazziProto1/var/Colibri/ap/subsystems/navigation/poly_survey_adv.o
LOAD /home/colibri/paparazziProto1/var/Colibri/ap/subsystems/navigation/gls.o
LOAD /home/colibri/paparazziProto1/var/Colibri/ap/subsystems/navigation/border_line.o
LOAD /home/colibri/paparazziProto1/var/Colibri/ap/subsystems/datalink/downlink.o
LOAD /home/colibri/paparazziProto1/var/Colibri/ap/subsystems/datalink/pprz_transport.o
LOAD /home/colibri/paparazziProto1/var/Colibri/ap/firmwares/fixedwing/datalink.o
LOAD /home/colibri/paparazziProto1/var/Colibri/ap/subsystems/ahrs.o
LOAD /home/colibri/paparazziProto1/var/Colibri/ap/subsystems/ahrs/ahrs_infrared.o
LOAD /home/colibri/paparazziProto1/var/Colibri/ap/subsystems/gps/gps_ubx.o
LOAD /home/colibri/paparazziProto1/var/Colibri/ap/subsystems/gps.o
LOAD /home/colibri/paparazziProto1/var/Colibri/ap/subsystems/sensors/infrared.o
LOAD /home/colibri/paparazziProto1/var/Colibri/ap/subsystems/sensors/infrared_adc.o
LOAD /opt/gcc-arm-none-eabi-4_8-2013q4/bin/../lib/gcc/arm-none-eabi/4.8.3/../../../../arm-none-eabi/lib/thumb/libc.a
LOAD /opt/gcc-arm-none-eabi-4_8-2013q4/bin/../lib/gcc/arm-none-eabi/4.8.3/../../../../arm-none-eabi/lib/thumb/libm.a
LOAD /opt/gcc-arm-none-eabi-4_8-2013q4/bin/../lib/gcc/arm-none-eabi/4.8.3/../../../../arm-none-eabi/lib/thumb/libc.a
LOAD /opt/gcc-arm-none-eabi-4_8-2013q4/bin/../lib/gcc/arm-none-eabi/4.8.3/thumb/libgcc.a
START GROUP
LOAD /opt/gcc-arm-none-eabi-4_8-2013q4/bin/../lib/gcc/arm-none-eabi/4.8.3/thumb/libgcc.a
LOAD /opt/gcc-arm-none-eabi-4_8-2013q4/bin/../lib/gcc/arm-none-eabi/4.8.3/../../../../arm-none-eabi/lib/thumb/libc.a
END GROUP
                0x00001000                STACK_SIZE = 0x1000

.text           0x00004000    0x19da4
 *(.init)
 .init          0x00004000      0x13c /home/colibri/paparazziProto1/var/Colibri/ap/crt0.o
                0x00004000                _boot
                0x00004050                _mainCRTStartup
                0x00004050                _start
                0x00004050                start
                0x00004114                reset
                0x00004114                abort
                0x00004114                _reset
                0x00004114                exit
 *(.text .text.*)
 .text.mcu_init
                0x0000413c       0xa0 /home/colibri/paparazziProto1/var/Colibri/ap/mcu.o
                0x0000413c                mcu_init
 .text.mcu_arch_init
                0x000041dc       0x88 /home/colibri/paparazziProto1/var/Colibri/ap/arch/lpc21/mcu_arch.o
                0x000041dc                mcu_arch_init
 .text.sys_time_register_timer
                0x00004264       0x98 /home/colibri/paparazziProto1/var/Colibri/ap/mcu_periph/sys_time.o
                0x00004264                sys_time_register_timer
 .text.sys_time_init
                0x000042fc       0x5c /home/colibri/paparazziProto1/var/Colibri/ap/mcu_periph/sys_time.o
                0x000042fc                sys_time_init
 .text.TIMER0_ISR
                0x00004358      0x1cc /home/colibri/paparazziProto1/var/Colibri/ap/arch/lpc21/mcu_periph/sys_time_arch.o
                0x00004358                TIMER0_ISR
 .text.sys_time_arch_init
                0x00004524       0x68 /home/colibri/paparazziProto1/var/Colibri/ap/arch/lpc21/mcu_periph/sys_time_arch.o
                0x00004524                sys_time_arch_init
 .text.isometric_latitude_fast_f
                0x0000458c       0x40 /home/colibri/paparazziProto1/var/Colibri/ap/math/pprz_geodetic_float.o
 .text.utm_of_lla_f
                0x000045cc      0x370 /home/colibri/paparazziProto1/var/Colibri/ap/math/pprz_geodetic_float.o
                0x000045cc                utm_of_lla_f
 .text.i2c_event
                0x0000493c        0x4 /home/colibri/paparazziProto1/var/Colibri/ap/arch/lpc21/mcu_periph/i2c_arch.o
                0x0000493c                i2c_event
 .text.inter_mcu_fill_fbw_state
                0x00004940       0xb8 /home/colibri/paparazziProto1/var/Colibri/ap/firmwares/fixedwing/main_fbw.o
 .text.init_fbw
                0x000049f8       0xf4 /home/colibri/paparazziProto1/var/Colibri/ap/firmwares/fixedwing/main_fbw.o
                0x000049f8                init_fbw
 .text.event_task_fbw
                0x00004aec      0x564 /home/colibri/paparazziProto1/var/Colibri/ap/firmwares/fixedwing/main_fbw.o
                0x00004aec                event_task_fbw
 .text.periodic_task_fbw
                0x00005050      0xde0 /home/colibri/paparazziProto1/var/Colibri/ap/firmwares/fixedwing/main_fbw.o
                0x00005050                periodic_task_fbw
 .text.handle_periodic_tasks_fbw
                0x00005e30       0x70 /home/colibri/paparazziProto1/var/Colibri/ap/firmwares/fixedwing/main_fbw.o
                0x00005e30                handle_periodic_tasks_fbw
 .text.electrical_init
                0x00005ea0       0x38 /home/colibri/paparazziProto1/var/Colibri/ap/subsystems/electrical.o
                0x00005ea0                electrical_init
 .text.electrical_periodic
                0x00005ed8       0x7c /home/colibri/paparazziProto1/var/Colibri/ap/subsystems/electrical.o
                0x00005ed8                electrical_periodic
 .text.init_ap  0x00005f54       0xfc /home/colibri/paparazziProto1/var/Colibri/ap/firmwares/fixedwing/main_ap.o
                0x00005f54                init_ap
 .text.reporting_task
                0x00006050     0x9fe8 /home/colibri/paparazziProto1/var/Colibri/ap/firmwares/fixedwing/main_ap.o
                0x00006050                reporting_task
 .text.navigation_task
                0x00010038      0x51c /home/colibri/paparazziProto1/var/Colibri/ap/firmwares/fixedwing/main_ap.o
                0x00010038                navigation_task
 .text.attitude_loop
                0x00010554      0x1d8 /home/colibri/paparazziProto1/var/Colibri/ap/firmwares/fixedwing/main_ap.o
                0x00010554                attitude_loop
 .text.monitor_task
                0x0001072c      0x250 /home/colibri/paparazziProto1/var/Colibri/ap/firmwares/fixedwing/main_ap.o
                0x0001072c                monitor_task
 .text.handle_periodic_tasks_ap
                0x0001097c      0x128 /home/colibri/paparazziProto1/var/Colibri/ap/firmwares/fixedwing/main_ap.o
                0x0001097c                handle_periodic_tasks_ap
 .text.event_task_ap
                0x00010aa4      0x6cc /home/colibri/paparazziProto1/var/Colibri/ap/firmwares/fixedwing/main_ap.o
                0x00010aa4                event_task_ap
 .text.alt_kalman_reset
                0x00011170       0x24 /home/colibri/paparazziProto1/var/Colibri/ap/./estimator.o
                0x00011170                alt_kalman_reset
 .text.alt_kalman_init
                0x00011194       0x14 /home/colibri/paparazziProto1/var/Colibri/ap/./estimator.o
                0x00011194                alt_kalman_init
 .text.alt_kalman
                0x000111a8      0x204 /home/colibri/paparazziProto1/var/Colibri/ap/./estimator.o
                0x000111a8                alt_kalman
 .text.estimator_init
                0x000113ac       0xec /home/colibri/paparazziProto1/var/Colibri/ap/./estimator.o
                0x000113ac                estimator_init
 .text.estimator_update_state_gps
                0x00011498      0x168 /home/colibri/paparazziProto1/var/Colibri/ap/./estimator.o
                0x00011498                estimator_update_state_gps
 .text.disableIRQ
                0x00011600       0x10 /home/colibri/paparazziProto1/var/Colibri/ap/arch/lpc21/armVIC.o
                0x00011600                disableIRQ
 .text.restoreIRQ
                0x00011610       0x1c /home/colibri/paparazziProto1/var/Colibri/ap/arch/lpc21/armVIC.o
                0x00011610                restoreIRQ
 .text.enableIRQ
                0x0001162c       0x10 /home/colibri/paparazziProto1/var/Colibri/ap/arch/lpc21/armVIC.o
                0x0001162c                enableIRQ
 .text.startup.main
                0x0001163c       0x20 /home/colibri/paparazziProto1/var/Colibri/ap/firmwares/fixedwing/main.o
                0x0001163c                main
 .text.uart_periph_init
                0x0001165c       0x24 /home/colibri/paparazziProto1/var/Colibri/ap/mcu_periph/uart.o
                0x0001165c                uart_periph_init
 .text.uart_check_free_space
                0x00011680       0x50 /home/colibri/paparazziProto1/var/Colibri/ap/mcu_periph/uart.o
                0x00011680                uart_check_free_space
 .text.uart_ISR
                0x000116d0       0xf8 /home/colibri/paparazziProto1/var/Colibri/ap/arch/lpc21/mcu_periph/uart_arch.o
 .text.uart0_ISR
                0x000117c8       0x34 /home/colibri/paparazziProto1/var/Colibri/ap/arch/lpc21/mcu_periph/uart_arch.o
                0x000117c8                uart0_ISR
 .text.uart1_ISR
                0x000117fc       0x34 /home/colibri/paparazziProto1/var/Colibri/ap/arch/lpc21/mcu_periph/uart_arch.o
                0x000117fc                uart1_ISR
 .text.uart_set_baudrate.isra.2
                0x00011830       0x44 /home/colibri/paparazziProto1/var/Colibri/ap/arch/lpc21/mcu_periph/uart_arch.o
 .text.uart_transmit
                0x00011874       0x90 /home/colibri/paparazziProto1/var/Colibri/ap/arch/lpc21/mcu_periph/uart_arch.o
                0x00011874                uart_transmit
 .text.uart0_init
                0x00011904       0x98 /home/colibri/paparazziProto1/var/Colibri/ap/arch/lpc21/mcu_periph/uart_arch.o
                0x00011904                uart0_init
 .text.uart1_init
                0x0001199c       0x98 /home/colibri/paparazziProto1/var/Colibri/ap/arch/lpc21/mcu_periph/uart_arch.o
                0x0001199c                uart1_init
 .text.settings_init
                0x00011a34        0x4 /home/colibri/paparazziProto1/var/Colibri/ap/subsystems/settings.o
                0x00011a34                settings_init
 .text.adcISR0  0x00011a38       0xa0 /home/colibri/paparazziProto1/var/Colibri/ap/arch/lpc21/mcu_periph/adc_arch.o
                0x00011a38                adcISR0
 .text.adcISR1  0x00011ad8       0xa4 /home/colibri/paparazziProto1/var/Colibri/ap/arch/lpc21/mcu_periph/adc_arch.o
                0x00011ad8                adcISR1
 .text.adc_buf_channel
                0x00011b7c       0x14 /home/colibri/paparazziProto1/var/Colibri/ap/arch/lpc21/mcu_periph/adc_arch.o
                0x00011b7c                adc_buf_channel
 .text.adc_init
                0x00011b90       0xa0 /home/colibri/paparazziProto1/var/Colibri/ap/arch/lpc21/mcu_periph/adc_arch.o
                0x00011b90                adc_init
 .text.actuators_init
                0x00011c30       0xb4 /home/colibri/paparazziProto1/var/Colibri/ap/arch/lpc21/servos_4017_hw.o
                0x00011c30                actuators_init
 .text.radio_control_impl_init
                0x00011ce4       0x14 /home/colibri/paparazziProto1/var/Colibri/ap/subsystems/radio_control/rc_datalink.o
                0x00011ce4                radio_control_impl_init
 .text.parse_rc_3ch_datalink
                0x00011cf8       0x40 /home/colibri/paparazziProto1/var/Colibri/ap/subsystems/radio_control/rc_datalink.o
                0x00011cf8                parse_rc_3ch_datalink
 .text.parse_rc_4ch_datalink
                0x00011d38       0x34 /home/colibri/paparazziProto1/var/Colibri/ap/subsystems/radio_control/rc_datalink.o
                0x00011d38                parse_rc_4ch_datalink
 .text.h_ctl_init
                0x00011d6c      0x13c /home/colibri/paparazziProto1/var/Colibri/ap/firmwares/fixedwing/stabilization/stabilization_attitude.o
                0x00011d6c                h_ctl_init
 .text.h_ctl_course_loop
                0x00011ea8      0x458 /home/colibri/paparazziProto1/var/Colibri/ap/firmwares/fixedwing/stabilization/stabilization_attitude.o
                0x00011ea8                h_ctl_course_loop
 .text.h_ctl_attitude_loop
                0x00012300      0x388 /home/colibri/paparazziProto1/var/Colibri/ap/firmwares/fixedwing/stabilization/stabilization_attitude.o
                0x00012300                h_ctl_attitude_loop
 .text.v_ctl_init
                0x00012688      0x148 /home/colibri/paparazziProto1/var/Colibri/ap/firmwares/fixedwing/guidance/guidance_v.o
                0x00012688                v_ctl_init
 .text.v_ctl_altitude_loop
                0x000127d0      0x114 /home/colibri/paparazziProto1/var/Colibri/ap/firmwares/fixedwing/guidance/guidance_v.o
                0x000127d0                v_ctl_altitude_loop
 .text.v_ctl_climb_loop
                0x000128e4      0x38c /home/colibri/paparazziProto1/var/Colibri/ap/firmwares/fixedwing/guidance/guidance_v.o
                0x000128e4                v_ctl_climb_loop
 .text.v_ctl_throttle_slew
                0x00012c70       0x8c /home/colibri/paparazziProto1/var/Colibri/ap/firmwares/fixedwing/guidance/guidance_v.o
                0x00012c70                v_ctl_throttle_slew
 .text.nav_set_altitude
                0x00012cfc       0x5c /home/colibri/paparazziProto1/var/Colibri/ap/subsystems/nav.o
 .text.nav_init_stage
                0x00012d58       0x84 /home/colibri/paparazziProto1/var/Colibri/ap/subsystems/nav.o
                0x00012d58                nav_init_stage
 .text.nav_approaching_xy
                0x00012ddc      0x104 /home/colibri/paparazziProto1/var/Colibri/ap/subsystems/nav.o
                0x00012ddc                nav_approaching_xy
 .text.fly_to_xy
                0x00012ee0      0x2d0 /home/colibri/paparazziProto1/var/Colibri/ap/subsystems/nav.o
                0x00012ee0                fly_to_xy
 .text.nav_circle_XY
                0x000131b0      0x478 /home/colibri/paparazziProto1/var/Colibri/ap/subsystems/nav.o
                0x000131b0                nav_circle_XY
 .text.nav_route_xy
                0x00013628      0x230 /home/colibri/paparazziProto1/var/Colibri/ap/subsystems/nav.o
                0x00013628                nav_route_xy
 .text.compute_dist2_to_home
                0x00013858       0x9c /home/colibri/paparazziProto1/var/Colibri/ap/subsystems/nav.o
                0x00013858                compute_dist2_to_home
 .text.nav_reset_reference
                0x000138f4      0x134 /home/colibri/paparazziProto1/var/Colibri/ap/subsystems/nav.o
                0x000138f4                nav_reset_reference
 .text.nav_update_waypoints_alt
                0x00013a28       0x58 /home/colibri/paparazziProto1/var/Colibri/ap/subsystems/nav.o
                0x00013a28                nav_update_waypoints_alt
 .text.common_nav_periodic_task_4Hz
                0x00013a80       0x50 /home/colibri/paparazziProto1/var/Colibri/ap/subsystems/nav.o
                0x00013a80                common_nav_periodic_task_4Hz
 .text.nav_move_waypoint
                0x00013ad0      0x118 /home/colibri/paparazziProto1/var/Colibri/ap/subsystems/nav.o
                0x00013ad0                nav_move_waypoint
 .text.nav_home
                0x00013be8       0x88 /home/colibri/paparazziProto1/var/Colibri/ap/subsystems/nav.o
                0x00013be8                nav_home
 .text.nav_init
                0x00013c70       0x74 /home/colibri/paparazziProto1/var/Colibri/ap/subsystems/nav.o
                0x00013c70                nav_init
 .text.nav_without_gps
                0x00013ce4       0x50 /home/colibri/paparazziProto1/var/Colibri/ap/subsystems/nav.o
                0x00013ce4                nav_without_gps
 .text.nav_eight
                0x00013d34      0x7ec /home/colibri/paparazziProto1/var/Colibri/ap/subsystems/nav.o
                0x00013d34                nav_eight
 .text.nav_oval_init
                0x00014520       0x24 /home/colibri/paparazziProto1/var/Colibri/ap/subsystems/nav.o
                0x00014520                nav_oval_init
 .text.nav_oval
                0x00014544      0x714 /home/colibri/paparazziProto1/var/Colibri/ap/subsystems/nav.o
                0x00014544                nav_oval
 .text.nav_periodic_task
                0x00014c58      0x814 /home/colibri/paparazziProto1/var/Colibri/ap/subsystems/nav.o
                0x00014c58                nav_periodic_task
 .text.nav_init_block
                0x0001546c       0x44 /home/colibri/paparazziProto1/var/Colibri/ap/subsystems/navigation/common_flight_plan.o
                0x0001546c                nav_init_block
 .text.nav_goto_block
                0x000154b0       0x40 /home/colibri/paparazziProto1/var/Colibri/ap/subsystems/navigation/common_flight_plan.o
                0x000154b0                nav_goto_block
 .text.traffic_info_init
                0x000154f0       0x38 /home/colibri/paparazziProto1/var/Colibri/ap/subsystems/navigation/traffic_info.o
                0x000154f0                traffic_info_init
 .text.dl_parse_msg
                0x00015528     0x1300 /home/colibri/paparazziProto1/var/Colibri/ap/firmwares/fixedwing/datalink.o
                0x00015528                dl_parse_msg
 .text.ahrs_init
                0x00016828       0xbc /home/colibri/paparazziProto1/var/Colibri/ap/subsystems/ahrs/ahrs_infrared.o
                0x00016828                ahrs_init
 .text.ahrs_update_fw_estimator
                0x000168e4       0x6c /home/colibri/paparazziProto1/var/Colibri/ap/subsystems/ahrs/ahrs_infrared.o
                0x000168e4                ahrs_update_fw_estimator
 .text.ahrs_update_gps
                0x00016950       0xec /home/colibri/paparazziProto1/var/Colibri/ap/subsystems/ahrs/ahrs_infrared.o
                0x00016950                ahrs_update_gps
 .text.ahrs_update_infrared
                0x00016a3c      0x19c /home/colibri/paparazziProto1/var/Colibri/ap/subsystems/ahrs/ahrs_infrared.o
                0x00016a3c                ahrs_update_infrared
 .text.gps_impl_init
                0x00016bd8       0x24 /home/colibri/paparazziProto1/var/Colibri/ap/subsystems/gps/gps_ubx.o
                0x00016bd8                gps_impl_init
 .text.gps_ubx_read_message
                0x00016bfc      0x530 /home/colibri/paparazziProto1/var/Colibri/ap/subsystems/gps/gps_ubx.o
                0x00016bfc                gps_ubx_read_message
 .text.gps_ubx_parse
                0x0001712c      0x198 /home/colibri/paparazziProto1/var/Colibri/ap/subsystems/gps/gps_ubx.o
                0x0001712c                gps_ubx_parse
 .text.gps_init
                0x000172c4       0x34 /home/colibri/paparazziProto1/var/Colibri/ap/subsystems/gps.o
                0x000172c4                gps_init
 .text.infrared_struct_init
                0x000172f8       0x48 /home/colibri/paparazziProto1/var/Colibri/ap/subsystems/sensors/infrared.o
                0x000172f8                infrared_struct_init
 .text.infrared_adc_init
                0x00017340       0x4c /home/colibri/paparazziProto1/var/Colibri/ap/subsystems/sensors/infrared_adc.o
                0x00017340                infrared_adc_init
 .text.infrared_adc_update
                0x0001738c       0xf0 /home/colibri/paparazziProto1/var/Colibri/ap/subsystems/sensors/infrared_adc.o
                0x0001738c                infrared_adc_update
 *fill*         0x0001747c        0x4 
 .text.atan     0x00017480      0x368 /opt/gcc-arm-none-eabi-4_8-2013q4/bin/../lib/gcc/arm-none-eabi/4.8.3/../../../../arm-none-eabi/lib/thumb/libm.a(lib_a-s_atan.o)
                0x00017480                atan
 .text.cos      0x000177e8       0xb0 /opt/gcc-arm-none-eabi-4_8-2013q4/bin/../lib/gcc/arm-none-eabi/4.8.3/../../../../arm-none-eabi/lib/thumb/libm.a(lib_a-s_cos.o)
                0x000177e8                cos
 .text.fabs     0x00017898        0x8 /opt/gcc-arm-none-eabi-4_8-2013q4/bin/../lib/gcc/arm-none-eabi/4.8.3/../../../../arm-none-eabi/lib/thumb/libm.a(lib_a-s_fabs.o)
                0x00017898                fabs
 .text.sin      0x000178a0       0xb0 /opt/gcc-arm-none-eabi-4_8-2013q4/bin/../lib/gcc/arm-none-eabi/4.8.3/../../../../arm-none-eabi/lib/thumb/libm.a(lib_a-s_sin.o)
                0x000178a0                sin
 .text.tan      0x00017950       0x70 /opt/gcc-arm-none-eabi-4_8-2013q4/bin/../lib/gcc/arm-none-eabi/4.8.3/../../../../arm-none-eabi/lib/thumb/libm.a(lib_a-s_tan.o)
                0x00017950                tan
 .text.atanf    0x000179c0      0x248 /opt/gcc-arm-none-eabi-4_8-2013q4/bin/../lib/gcc/arm-none-eabi/4.8.3/../../../../arm-none-eabi/lib/thumb/libm.a(lib_a-sf_atan.o)
                0x000179c0                atanf
 .text.cosf     0x00017c08       0x80 /opt/gcc-arm-none-eabi-4_8-2013q4/bin/../lib/gcc/arm-none-eabi/4.8.3/../../../../arm-none-eabi/lib/thumb/libm.a(lib_a-sf_cos.o)
                0x00017c08                cosf
 .text.fabsf    0x00017c88        0x8 /opt/gcc-arm-none-eabi-4_8-2013q4/bin/../lib/gcc/arm-none-eabi/4.8.3/../../../../arm-none-eabi/lib/thumb/libm.a(lib_a-sf_fabs.o)
                0x00017c88                fabsf
 .text.sinf     0x00017c90       0x80 /opt/gcc-arm-none-eabi-4_8-2013q4/bin/../lib/gcc/arm-none-eabi/4.8.3/../../../../arm-none-eabi/lib/thumb/libm.a(lib_a-sf_sin.o)
                0x00017c90                sinf
 .text.asin     0x00017d10       0xc0 /opt/gcc-arm-none-eabi-4_8-2013q4/bin/../lib/gcc/arm-none-eabi/4.8.3/../../../../arm-none-eabi/lib/thumb/libm.a(lib_a-w_asin.o)
                0x00017d10                asin
 .text.atan2    0x00017dd0        0xc /opt/gcc-arm-none-eabi-4_8-2013q4/bin/../lib/gcc/arm-none-eabi/4.8.3/../../../../arm-none-eabi/lib/thumb/libm.a(lib_a-w_atan2.o)
                0x00017dd0                atan2
 *fill*         0x00017ddc        0x4 
 .text.cosh     0x00017de0       0xd0 /opt/gcc-arm-none-eabi-4_8-2013q4/bin/../lib/gcc/arm-none-eabi/4.8.3/../../../../arm-none-eabi/lib/thumb/libm.a(lib_a-w_cosh.o)
                0x00017de0                cosh
 .text.exp      0x00017eb0      0x138 /opt/gcc-arm-none-eabi-4_8-2013q4/bin/../lib/gcc/arm-none-eabi/4.8.3/../../../../arm-none-eabi/lib/thumb/libm.a(lib_a-w_exp.o)
                0x00017eb0                exp
 .text.log      0x00017fe8      0x118 /opt/gcc-arm-none-eabi-4_8-2013q4/bin/../lib/gcc/arm-none-eabi/4.8.3/../../../../arm-none-eabi/lib/thumb/libm.a(lib_a-w_log.o)
                0x00017fe8                log
 .text.sinh     0x00018100      0x108 /opt/gcc-arm-none-eabi-4_8-2013q4/bin/../lib/gcc/arm-none-eabi/4.8.3/../../../../arm-none-eabi/lib/thumb/libm.a(lib_a-w_sinh.o)
                0x00018100                sinh
 .text.sqrt     0x00018208       0xc0 /opt/gcc-arm-none-eabi-4_8-2013q4/bin/../lib/gcc/arm-none-eabi/4.8.3/../../../../arm-none-eabi/lib/thumb/libm.a(lib_a-w_sqrt.o)
                0x00018208                sqrt
 .text.atan2f   0x000182c8        0xc /opt/gcc-arm-none-eabi-4_8-2013q4/bin/../lib/gcc/arm-none-eabi/4.8.3/../../../../arm-none-eabi/lib/thumb/libm.a(lib_a-wf_atan2.o)
                0x000182c8                atan2f
 *fill*         0x000182d4        0x4 
 .text.__ieee754_asin
                0x000182d8      0x450 /opt/gcc-arm-none-eabi-4_8-2013q4/bin/../lib/gcc/arm-none-eabi/4.8.3/../../../../arm-none-eabi/lib/thumb/libm.a(lib_a-e_asin.o)
                0x000182d8                __ieee754_asin
 .text.__ieee754_atan2
                0x00018728      0x210 /opt/gcc-arm-none-eabi-4_8-2013q4/bin/../lib/gcc/arm-none-eabi/4.8.3/../../../../arm-none-eabi/lib/thumb/libm.a(lib_a-e_atan2.o)
                0x00018728                __ieee754_atan2
 .text.__ieee754_cosh
                0x00018938      0x170 /opt/gcc-arm-none-eabi-4_8-2013q4/bin/../lib/gcc/arm-none-eabi/4.8.3/../../../../arm-none-eabi/lib/thumb/libm.a(lib_a-e_cosh.o)
                0x00018938                __ieee754_cosh
 .text.__ieee754_exp
                0x00018aa8      0x320 /opt/gcc-arm-none-eabi-4_8-2013q4/bin/../lib/gcc/arm-none-eabi/4.8.3/../../../../arm-none-eabi/lib/thumb/libm.a(lib_a-e_exp.o)
                0x00018aa8                __ieee754_exp
 .text.__ieee754_log
                0x00018dc8      0x420 /opt/gcc-arm-none-eabi-4_8-2013q4/bin/../lib/gcc/arm-none-eabi/4.8.3/../../../../arm-none-eabi/lib/thumb/libm.a(lib_a-e_log.o)
                0x00018dc8                __ieee754_log
 .text.__ieee754_rem_pio2
                0x000191e8      0x478 /opt/gcc-arm-none-eabi-4_8-2013q4/bin/../lib/gcc/arm-none-eabi/4.8.3/../../../../arm-none-eabi/lib/thumb/libm.a(lib_a-e_rem_pio2.o)
                0x000191e8                __ieee754_rem_pio2
 .text.__ieee754_sinh
                0x00019660      0x1b0 /opt/gcc-arm-none-eabi-4_8-2013q4/bin/../lib/gcc/arm-none-eabi/4.8.3/../../../../arm-none-eabi/lib/thumb/libm.a(lib_a-e_sinh.o)
                0x00019660                __ieee754_sinh
 .text.__ieee754_sqrt
                0x00019810      0x1c0 /opt/gcc-arm-none-eabi-4_8-2013q4/bin/../lib/gcc/arm-none-eabi/4.8.3/../../../../arm-none-eabi/lib/thumb/libm.a(lib_a-e_sqrt.o)
                0x00019810                __ieee754_sqrt
 .text.__ieee754_atan2f
                0x000199d0      0x14c /opt/gcc-arm-none-eabi-4_8-2013q4/bin/../lib/gcc/arm-none-eabi/4.8.3/../../../../arm-none-eabi/lib/thumb/libm.a(lib_a-ef_atan2.o)
                0x000199d0                __ieee754_atan2f
 .text.__ieee754_rem_pio2f
                0x00019b1c      0x2fc /opt/gcc-arm-none-eabi-4_8-2013q4/bin/../lib/gcc/arm-none-eabi/4.8.3/../../../../arm-none-eabi/lib/thumb/libm.a(lib_a-ef_rem_pio2.o)
                0x00019b1c                __ieee754_rem_pio2f
 .text.__kernel_cos
                0x00019e18      0x250 /opt/gcc-arm-none-eabi-4_8-2013q4/bin/../lib/gcc/arm-none-eabi/4.8.3/../../../../arm-none-eabi/lib/thumb/libm.a(lib_a-k_cos.o)
                0x00019e18                __kernel_cos
 .text.__kernel_rem_pio2
                0x0001a068      0x830 /opt/gcc-arm-none-eabi-4_8-2013q4/bin/../lib/gcc/arm-none-eabi/4.8.3/../../../../arm-none-eabi/lib/thumb/libm.a(lib_a-k_rem_pio2.o)
                0x0001a068                __kernel_rem_pio2
 .text.__kernel_sin
                0x0001a898      0x160 /opt/gcc-arm-none-eabi-4_8-2013q4/bin/../lib/gcc/arm-none-eabi/4.8.3/../../../../arm-none-eabi/lib/thumb/libm.a(lib_a-k_sin.o)
                0x0001a898                __kernel_sin
 .text.__kernel_tan
                0x0001a9f8      0x3b0 /opt/gcc-arm-none-eabi-4_8-2013q4/bin/../lib/gcc/arm-none-eabi/4.8.3/../../../../arm-none-eabi/lib/thumb/libm.a(lib_a-k_tan.o)
                0x0001a9f8                __kernel_tan
 .text.__kernel_cosf
                0x0001ada8      0x194 /opt/gcc-arm-none-eabi-4_8-2013q4/bin/../lib/gcc/arm-none-eabi/4.8.3/../../../../arm-none-eabi/lib/thumb/libm.a(lib_a-kf_cos.o)
                0x0001ada8                __kernel_cosf
 .text.__kernel_rem_pio2f
                0x0001af3c      0x6c4 /opt/gcc-arm-none-eabi-4_8-2013q4/bin/../lib/gcc/arm-none-eabi/4.8.3/../../../../arm-none-eabi/lib/thumb/libm.a(lib_a-kf_rem_pio2.o)
                0x0001af3c                __kernel_rem_pio2f
 .text.__kernel_sinf
                0x0001b600       0xf8 /opt/gcc-arm-none-eabi-4_8-2013q4/bin/../lib/gcc/arm-none-eabi/4.8.3/../../../../arm-none-eabi/lib/thumb/libm.a(lib_a-kf_sin.o)
                0x0001b600                __kernel_sinf
 .text.expm1    0x0001b6f8      0x4c0 /opt/gcc-arm-none-eabi-4_8-2013q4/bin/../lib/gcc/arm-none-eabi/4.8.3/../../../../arm-none-eabi/lib/thumb/libm.a(lib_a-s_expm1.o)
                0x0001b6f8                expm1
 .text.finite   0x0001bbb8       0x10 /opt/gcc-arm-none-eabi-4_8-2013q4/bin/../lib/gcc/arm-none-eabi/4.8.3/../../../../arm-none-eabi/lib/thumb/libm.a(lib_a-s_finite.o)
                0x0001bbb8                finite
 .text.floor    0x0001bbc8      0x170 /opt/gcc-arm-none-eabi-4_8-2013q4/bin/../lib/gcc/arm-none-eabi/4.8.3/../../../../arm-none-eabi/lib/thumb/libm.a(lib_a-s_floor.o)
                0x0001bbc8                floor
 .text.__fpclassifyd
                0x0001bd38       0x5c /opt/gcc-arm-none-eabi-4_8-2013q4/bin/../lib/gcc/arm-none-eabi/4.8.3/../../../../arm-none-eabi/lib/thumb/libm.a(lib_a-s_fpclassify.o)
                0x0001bd38                __fpclassifyd
 .text.matherr  0x0001bd94        0x4 /opt/gcc-arm-none-eabi-4_8-2013q4/bin/../lib/gcc/arm-none-eabi/4.8.3/../../../../arm-none-eabi/lib/thumb/libm.a(lib_a-s_matherr.o)
                0x0001bd94                matherr
 .text.nan      0x0001bd98       0x10 /opt/gcc-arm-none-eabi-4_8-2013q4/bin/../lib/gcc/arm-none-eabi/4.8.3/../../../../arm-none-eabi/lib/thumb/libm.a(lib_a-s_nan.o)
                0x0001bd98                nan
 .text.scalbn   0x0001bda8      0x110 /opt/gcc-arm-none-eabi-4_8-2013q4/bin/../lib/gcc/arm-none-eabi/4.8.3/../../../../arm-none-eabi/lib/thumb/libm.a(lib_a-s_scalbn.o)
                0x0001bda8                scalbn
 .text.floorf   0x0001beb8       0x9c /opt/gcc-arm-none-eabi-4_8-2013q4/bin/../lib/gcc/arm-none-eabi/4.8.3/../../../../arm-none-eabi/lib/thumb/libm.a(lib_a-sf_floor.o)
                0x0001beb8                floorf
 .text.scalbnf  0x0001bf54       0xd0 /opt/gcc-arm-none-eabi-4_8-2013q4/bin/../lib/gcc/arm-none-eabi/4.8.3/../../../../arm-none-eabi/lib/thumb/libm.a(lib_a-sf_scalbn.o)
                0x0001bf54                scalbnf
 .text.copysign
                0x0001c024       0x14 /opt/gcc-arm-none-eabi-4_8-2013q4/bin/../lib/gcc/arm-none-eabi/4.8.3/../../../../arm-none-eabi/lib/thumb/libm.a(lib_a-s_copysign.o)
                0x0001c024                copysign
 .text.copysignf
                0x0001c038        0xc /opt/gcc-arm-none-eabi-4_8-2013q4/bin/../lib/gcc/arm-none-eabi/4.8.3/../../../../arm-none-eabi/lib/thumb/libm.a(lib_a-sf_copysign.o)
                0x0001c038                copysignf
 .text.__errno  0x0001c044        0xc /opt/gcc-arm-none-eabi-4_8-2013q4/bin/../lib/gcc/arm-none-eabi/4.8.3/../../../../arm-none-eabi/lib/thumb/libc.a(lib_a-errno.o)
                0x0001c044                __errno
 .text          0x0001c050      0x11c /opt/gcc-arm-none-eabi-4_8-2013q4/bin/../lib/gcc/arm-none-eabi/4.8.3/thumb/libgcc.a(_udivsi3.o)
                0x0001c050                __udivsi3
                0x0001c050                __aeabi_uidiv
                0x0001c14c                __aeabi_uidivmod
 .text          0x0001c16c      0x150 /opt/gcc-arm-none-eabi-4_8-2013q4/bin/../lib/gcc/arm-none-eabi/4.8.3/thumb/libgcc.a(_divsi3.o)
                0x0001c16c                __aeabi_idiv
                0x0001c16c                __divsi3
                0x0001c29c                __aeabi_idivmod
 .text          0x0001c2bc        0x4 /opt/gcc-arm-none-eabi-4_8-2013q4/bin/../lib/gcc/arm-none-eabi/4.8.3/thumb/libgcc.a(_dvmd_tls.o)
                0x0001c2bc                __aeabi_ldiv0
                0x0001c2bc                __aeabi_idiv0
 .text          0x0001c2c0      0x41c /opt/gcc-arm-none-eabi-4_8-2013q4/bin/../lib/gcc/arm-none-eabi/4.8.3/thumb/libgcc.a(_arm_addsubdf3.o)
                0x0001c2c0                __aeabi_drsub
                0x0001c2c8                __aeabi_dsub
                0x0001c2c8                __subdf3
                0x0001c2cc                __adddf3
                0x0001c2cc                __aeabi_dadd
                0x0001c5dc                __aeabi_ui2d
                0x0001c5dc                __floatunsidf
                0x0001c600                __floatsidf
                0x0001c600                __aeabi_i2d
                0x0001c628                __extendsfdf2
                0x0001c628                __aeabi_f2d
                0x0001c668                __aeabi_ul2d
                0x0001c668                __floatundidf
                0x0001c67c                __floatdidf
                0x0001c67c                __aeabi_l2d
 .text          0x0001c6dc      0x49c /opt/gcc-arm-none-eabi-4_8-2013q4/bin/../lib/gcc/arm-none-eabi/4.8.3/thumb/libgcc.a(_arm_muldivdf3.o)
                0x0001c6dc                __aeabi_dmul
                0x0001c6dc                __muldf3
                0x0001c96c                __aeabi_ddiv
                0x0001c96c                __divdf3
 .text          0x0001cb78      0x144 /opt/gcc-arm-none-eabi-4_8-2013q4/bin/../lib/gcc/arm-none-eabi/4.8.3/thumb/libgcc.a(_arm_cmpdf2.o)
                0x0001cb78                __gtdf2
                0x0001cb78                __gedf2
                0x0001cb80                __ltdf2
                0x0001cb80                __ledf2
                0x0001cb88                __cmpdf2
                0x0001cb88                __eqdf2
                0x0001cb88                __nedf2
                0x0001cc10                __aeabi_cdrcmple
                0x0001cc2c                __aeabi_cdcmple
                0x0001cc2c                __aeabi_cdcmpeq
                0x0001cc44                __aeabi_dcmpeq
                0x0001cc5c                __aeabi_dcmplt
                0x0001cc74                __aeabi_dcmple
                0x0001cc8c                __aeabi_dcmpge
                0x0001cca4                __aeabi_dcmpgt
 .text          0x0001ccbc       0x5c /opt/gcc-arm-none-eabi-4_8-2013q4/bin/../lib/gcc/arm-none-eabi/4.8.3/thumb/libgcc.a(_arm_fixdfsi.o)
                0x0001ccbc                __fixdfsi
                0x0001ccbc                __aeabi_d2iz
 .text          0x0001cd18       0x54 /opt/gcc-arm-none-eabi-4_8-2013q4/bin/../lib/gcc/arm-none-eabi/4.8.3/thumb/libgcc.a(_arm_fixunsdfsi.o)
                0x0001cd18                __fixunsdfsi
                0x0001cd18                __aeabi_d2uiz
 .text          0x0001cd6c       0xa0 /opt/gcc-arm-none-eabi-4_8-2013q4/bin/../lib/gcc/arm-none-eabi/4.8.3/thumb/libgcc.a(_arm_truncdfsf2.o)
                0x0001cd6c                __aeabi_d2f
                0x0001cd6c                __truncdfsf2
 .text          0x0001ce0c      0x2ac /opt/gcc-arm-none-eabi-4_8-2013q4/bin/../lib/gcc/arm-none-eabi/4.8.3/thumb/libgcc.a(_arm_addsubsf3.o)
                0x0001ce0c                __aeabi_frsub
                0x0001ce14                __subsf3
                0x0001ce14                __aeabi_fsub
                0x0001ce18                __aeabi_fadd
                0x0001ce18                __addsf3
                0x0001cfd4                __aeabi_ui2f
                0x0001cfd4                __floatunsisf
                0x0001cfdc                __aeabi_i2f
                0x0001cfdc                __floatsisf
                0x0001cffc                __floatundisf
                0x0001cffc                __aeabi_ul2f
                0x0001d00c                __floatdisf
                0x0001d00c                __aeabi_l2f
 .text          0x0001d0b8      0x2f8 /opt/gcc-arm-none-eabi-4_8-2013q4/bin/../lib/gcc/arm-none-eabi/4.8.3/thumb/libgcc.a(_arm_muldivsf3.o)
                0x0001d0b8                __mulsf3
                0x0001d0b8                __aeabi_fmul
                0x0001d250                __divsf3
                0x0001d250                __aeabi_fdiv
 .text          0x0001d3b0      0x114 /opt/gcc-arm-none-eabi-4_8-2013q4/bin/../lib/gcc/arm-none-eabi/4.8.3/thumb/libgcc.a(_arm_cmpsf2.o)
                0x0001d3b0                __gtsf2
                0x0001d3b0                __gesf2
                0x0001d3b8                __lesf2
                0x0001d3b8                __ltsf2
                0x0001d3c0                __nesf2
                0x0001d3c0                __eqsf2
                0x0001d3c0                __cmpsf2
                0x0001d424                __aeabi_cfrcmple
                0x0001d434                __aeabi_cfcmple
                0x0001d434                __aeabi_cfcmpeq
                0x0001d44c                __aeabi_fcmpeq
                0x0001d464                __aeabi_fcmplt
                0x0001d47c                __aeabi_fcmple
                0x0001d494                __aeabi_fcmpge
                0x0001d4ac                __aeabi_fcmpgt
 .text          0x0001d4c4       0x5c /opt/gcc-arm-none-eabi-4_8-2013q4/bin/../lib/gcc/arm-none-eabi/4.8.3/thumb/libgcc.a(_arm_fixsfsi.o)
                0x0001d4c4                __fixsfsi
                0x0001d4c4                __aeabi_f2iz
 .text          0x0001d520       0x54 /opt/gcc-arm-none-eabi-4_8-2013q4/bin/../lib/gcc/arm-none-eabi/4.8.3/thumb/libgcc.a(_arm_fixunssfsi.o)
                0x0001d520                __aeabi_f2uiz
                0x0001d520                __fixunssfsi
 *fill*         0x0001d574        0x4 
 .text.__stub   0x0001d578      0x154 linker stubs
 *(.gnu.linkonce.t.*)
 *(.glue_7)
 .glue_7        0x00000000        0x0 linker stubs
 *(.glue_7t)
 .glue_7t       0x00000000        0x0 linker stubs
 *(.gcc_except_table)
 *(.rodata)
 *(.rodata*)
 .rodata.serie_coeff_proj_mercator
                0x0001d708       0x14 /home/colibri/paparazziProto1/var/Colibri/ap/math/pprz_geodetic_float.o
 .rodata.commands_failsafe
                0x0001d71c        0xa /home/colibri/paparazziProto1/var/Colibri/ap/./commands.o
                0x0001d71c                commands_failsafe
 .rodata.version
                0x0001d726        0x2 /home/colibri/paparazziProto1/var/Colibri/ap/firmwares/fixedwing/main_ap.o
 .rodata.str1.1
                0x0001d728       0x11 /home/colibri/paparazziProto1/var/Colibri/ap/firmwares/fixedwing/main_ap.o
 .rodata.nb_waypoint
                0x0001d739        0x1 /home/colibri/paparazziProto1/var/Colibri/ap/subsystems/nav.o
                0x0001d739                nb_waypoint
 *fill*         0x0001d73a        0x6 
 .rodata.atanlo
                0x0001d740       0x20 /opt/gcc-arm-none-eabi-4_8-2013q4/bin/../lib/gcc/arm-none-eabi/4.8.3/../../../../arm-none-eabi/lib/thumb/libm.a(lib_a-s_atan.o)
 .rodata.atanhi
                0x0001d760       0x20 /opt/gcc-arm-none-eabi-4_8-2013q4/bin/../lib/gcc/arm-none-eabi/4.8.3/../../../../arm-none-eabi/lib/thumb/libm.a(lib_a-s_atan.o)
 .rodata.atanlo
                0x0001d780       0x10 /opt/gcc-arm-none-eabi-4_8-2013q4/bin/../lib/gcc/arm-none-eabi/4.8.3/../../../../arm-none-eabi/lib/thumb/libm.a(lib_a-sf_atan.o)
 .rodata.atanhi
                0x0001d790       0x10 /opt/gcc-arm-none-eabi-4_8-2013q4/bin/../lib/gcc/arm-none-eabi/4.8.3/../../../../arm-none-eabi/lib/thumb/libm.a(lib_a-sf_atan.o)
 .rodata.str1.4
                0x0001d7a0        0x5 /opt/gcc-arm-none-eabi-4_8-2013q4/bin/../lib/gcc/arm-none-eabi/4.8.3/../../../../arm-none-eabi/lib/thumb/libm.a(lib_a-w_asin.o)
                                  0xc (size before relaxing)
 *fill*         0x0001d7a5        0x3 
 .rodata.str1.4
                0x0001d7a8        0x5 /opt/gcc-arm-none-eabi-4_8-2013q4/bin/../lib/gcc/arm-none-eabi/4.8.3/../../../../arm-none-eabi/lib/thumb/libm.a(lib_a-w_cosh.o)
                                  0x8 (size before relaxing)
 *fill*         0x0001d7ad        0x3 
 .rodata.str1.4
                0x0001d7b0        0x4 /opt/gcc-arm-none-eabi-4_8-2013q4/bin/../lib/gcc/arm-none-eabi/4.8.3/../../../../arm-none-eabi/lib/thumb/libm.a(lib_a-w_exp.o)
 .rodata.str1.4
                0x0001d7b4        0x4 /opt/gcc-arm-none-eabi-4_8-2013q4/bin/../lib/gcc/arm-none-eabi/4.8.3/../../../../arm-none-eabi/lib/thumb/libm.a(lib_a-w_log.o)
                                  0x8 (size before relaxing)
 .rodata.str1.4
                0x0001d7b8        0x5 /opt/gcc-arm-none-eabi-4_8-2013q4/bin/../lib/gcc/arm-none-eabi/4.8.3/../../../../arm-none-eabi/lib/thumb/libm.a(lib_a-w_sinh.o)
                                  0x8 (size before relaxing)
 *fill*         0x0001d7bd        0x3 
 .rodata.str1.4
                0x0001d7c0        0x5 /opt/gcc-arm-none-eabi-4_8-2013q4/bin/../lib/gcc/arm-none-eabi/4.8.3/../../../../arm-none-eabi/lib/thumb/libm.a(lib_a-w_sqrt.o)
                                  0x8 (size before relaxing)
 *fill*         0x0001d7c5        0x3 
 .rodata.halF   0x0001d7c8       0x10 /opt/gcc-arm-none-eabi-4_8-2013q4/bin/../lib/gcc/arm-none-eabi/4.8.3/../../../../arm-none-eabi/lib/thumb/libm.a(lib_a-e_exp.o)
 .rodata.ln2LO  0x0001d7d8       0x10 /opt/gcc-arm-none-eabi-4_8-2013q4/bin/../lib/gcc/arm-none-eabi/4.8.3/../../../../arm-none-eabi/lib/thumb/libm.a(lib_a-e_exp.o)
 .rodata.ln2HI  0x0001d7e8       0x10 /opt/gcc-arm-none-eabi-4_8-2013q4/bin/../lib/gcc/arm-none-eabi/4.8.3/../../../../arm-none-eabi/lib/thumb/libm.a(lib_a-e_exp.o)
 .rodata.npio2_hw
                0x0001d7f8       0x80 /opt/gcc-arm-none-eabi-4_8-2013q4/bin/../lib/gcc/arm-none-eabi/4.8.3/../../../../arm-none-eabi/lib/thumb/libm.a(lib_a-e_rem_pio2.o)
 .rodata.two_over_pi
                0x0001d878      0x108 /opt/gcc-arm-none-eabi-4_8-2013q4/bin/../lib/gcc/arm-none-eabi/4.8.3/../../../../arm-none-eabi/lib/thumb/libm.a(lib_a-e_rem_pio2.o)
 .rodata.npio2_hw
                0x0001d980       0x80 /opt/gcc-arm-none-eabi-4_8-2013q4/bin/../lib/gcc/arm-none-eabi/4.8.3/../../../../arm-none-eabi/lib/thumb/libm.a(lib_a-ef_rem_pio2.o)
 .rodata.two_over_pi
                0x0001da00      0x318 /opt/gcc-arm-none-eabi-4_8-2013q4/bin/../lib/gcc/arm-none-eabi/4.8.3/../../../../arm-none-eabi/lib/thumb/libm.a(lib_a-ef_rem_pio2.o)
 .rodata.init_jk
                0x0001dd18       0x10 /opt/gcc-arm-none-eabi-4_8-2013q4/bin/../lib/gcc/arm-none-eabi/4.8.3/../../../../arm-none-eabi/lib/thumb/libm.a(lib_a-k_rem_pio2.o)
 .rodata.PIo2   0x0001dd28       0x40 /opt/gcc-arm-none-eabi-4_8-2013q4/bin/../lib/gcc/arm-none-eabi/4.8.3/../../../../arm-none-eabi/lib/thumb/libm.a(lib_a-k_rem_pio2.o)
 .rodata.init_jk
                0x0001dd68        0xc /opt/gcc-arm-none-eabi-4_8-2013q4/bin/../lib/gcc/arm-none-eabi/4.8.3/../../../../arm-none-eabi/lib/thumb/libm.a(lib_a-kf_rem_pio2.o)
 .rodata.PIo2   0x0001dd74       0x2c /opt/gcc-arm-none-eabi-4_8-2013q4/bin/../lib/gcc/arm-none-eabi/4.8.3/../../../../arm-none-eabi/lib/thumb/libm.a(lib_a-kf_rem_pio2.o)
 .rodata.str1.4
                0x0001dda0        0x4 /opt/gcc-arm-none-eabi-4_8-2013q4/bin/../lib/gcc/arm-none-eabi/4.8.3/../../../../arm-none-eabi/lib/thumb/libc.a(lib_a-impure.o)
 *(.gnu.linkonce.r.*)

.vfp11_veneer   0x0001dda4        0x0
 .vfp11_veneer  0x00000000        0x0 linker stubs

.v4_bx          0x0001dda4        0x0
 .v4_bx         0x00000000        0x0 linker stubs

.iplt           0x0001dda4        0x0
 .iplt          0x00000000        0x0 /home/colibri/paparazziProto1/var/Colibri/ap/crt0.o

.rel.dyn        0x0001dda4        0x0
 .rel.iplt      0x00000000        0x0 /home/colibri/paparazziProto1/var/Colibri/ap/crt0.o
                0x0001dda4                . = ALIGN (0x4)

.ARM.exidx      0x0001dda4        0x0
                0x0001dda4                __exidx_start = .
 *(.ARM.exidx* .gnu.linkonce.armexidx.*)
                0x0001dda4                __exidx_end = .
                0x0001dda4                . = ALIGN (0x4)

.ctors          0x0001dda4        0x0
                0x0001dda4                PROVIDE (__ctors_start__, .)
 *(SORT(.ctors.*))
 *(.ctors)
                0x0001dda4                PROVIDE (__ctors_end__, .)

.dtors          0x0001dda4        0x0
                0x0001dda4                PROVIDE (__dtors_start__, .)
 *(SORT(.dtors.*))
 *(.dtors)
                0x0001dda4                PROVIDE (__dtors_end__, .)
                0x0001dda4                . = ALIGN (0x4)
                0x0001dda4                _etext = .
                0x0001dda4                PROVIDE (etext, .)

.data           0x40000000      0x4f4 load address 0x0001dda4
                0x40000000                _data = .
 *(.data)
 *(.data.*)
 .data.fbw_state
                0x40000000        0x4 /home/colibri/paparazziProto1/var/Colibri/ap/./inter_mcu.o
                0x40000000                fbw_state
 .data.ap_state
                0x40000004        0x4 /home/colibri/paparazziProto1/var/Colibri/ap/./inter_mcu.o
                0x40000004                ap_state
 .data.pprz_mode
                0x40000008        0x1 /home/colibri/paparazziProto1/var/Colibri/ap/firmwares/fixedwing/main_ap.o
                0x40000008                pprz_mode
 .data.boot.6676
                0x40000009        0x1 /home/colibri/paparazziProto1/var/Colibri/ap/firmwares/fixedwing/main_ap.o
 .data.adc0_val
                0x4000000a       0x10 /home/colibri/paparazziProto1/var/Colibri/ap/arch/lpc21/mcu_periph/adc_arch.o
                0x4000000a                adc0_val
 .data.adc1_val
                0x4000001a       0x10 /home/colibri/paparazziProto1/var/Colibri/ap/arch/lpc21/mcu_periph/adc_arch.o
                0x4000001a                adc1_val
 *fill*         0x4000002a        0x2 
 .data.v_ctl_auto_throttle_dash_trim
                0x4000002c        0x4 /home/colibri/paparazziProto1/var/Colibri/ap/firmwares/fixedwing/stabilization/stabilization_attitude.o
                0x4000002c                v_ctl_auto_throttle_dash_trim
 .data.v_ctl_auto_throttle_loiter_trim
                0x40000030        0x4 /home/colibri/paparazziProto1/var/Colibri/ap/firmwares/fixedwing/stabilization/stabilization_attitude.o
                0x40000030                v_ctl_auto_throttle_loiter_trim
 .data.max_dist_from_home
                0x40000034        0x4 /home/colibri/paparazziProto1/var/Colibri/ap/subsystems/nav.o
                0x40000034                max_dist_from_home
 .data.nav_utm_zone0
                0x40000038        0x1 /home/colibri/paparazziProto1/var/Colibri/ap/subsystems/nav.o
                0x40000038                nav_utm_zone0
 *fill*         0x40000039        0x3 
 .data.nav_utm_north0
                0x4000003c        0x4 /home/colibri/paparazziProto1/var/Colibri/ap/subsystems/nav.o
                0x4000003c                nav_utm_north0
 .data.nav_altitude
                0x40000040        0x4 /home/colibri/paparazziProto1/var/Colibri/ap/subsystems/nav.o
                0x40000040                nav_altitude
 .data.waypoints
                0x40000044       0x78 /home/colibri/paparazziProto1/var/Colibri/ap/subsystems/nav.o
                0x40000044                waypoints
 .data.nav_utm_east0
                0x400000bc        0x4 /home/colibri/paparazziProto1/var/Colibri/ap/subsystems/nav.o
                0x400000bc                nav_utm_east0
 .data.__fdlib_version
                0x400000c0        0x1 /opt/gcc-arm-none-eabi-4_8-2013q4/bin/../lib/gcc/arm-none-eabi/4.8.3/../../../../arm-none-eabi/lib/thumb/libm.a(lib_a-s_lib_ver.o)
                0x400000c0                __fdlib_version
 *fill*         0x400000c1        0x7 
 .data.impure_data
                0x400000c8      0x428 /opt/gcc-arm-none-eabi-4_8-2013q4/bin/../lib/gcc/arm-none-eabi/4.8.3/../../../../arm-none-eabi/lib/thumb/libc.a(lib_a-impure.o)
 .data._impure_ptr
                0x400004f0        0x4 /opt/gcc-arm-none-eabi-4_8-2013q4/bin/../lib/gcc/arm-none-eabi/4.8.3/../../../../arm-none-eabi/lib/thumb/libc.a(lib_a-impure.o)
                0x400004f0                _impure_ptr
 *(.gnu.linkonce.d*)
                0x400004f4                . = ALIGN (0x4)
 *(.fastrun)

.igot.plt       0x400004f4        0x0 load address 0x0001e298
 .igot.plt      0x00000000        0x0 /home/colibri/paparazziProto1/var/Colibri/ap/crt0.o
                0x400004f4                . = ALIGN (0x4)
                0x400004f4                _edata = .
                0x400004f4                PROVIDE (edata, .)

.bss            0x400004f8     0x109c load address 0x0001e2a0
                0x400004f8                __bss_start = .
                0x400004f8                __bss_start__ = .
 *(.bss)
 *(.bss.*)
 .bss.inter_mcu_received_ap
                0x400004f8        0x1 /home/colibri/paparazziProto1/var/Colibri/ap/./inter_mcu.o
                0x400004f8                inter_mcu_received_ap
 *fill*         0x400004f9        0x1 
 .bss._ap_state
                0x400004fa        0xe /home/colibri/paparazziProto1/var/Colibri/ap/./inter_mcu.o
 .bss.inter_mcu_received_fbw
                0x40000508        0x1 /home/colibri/paparazziProto1/var/Colibri/ap/./inter_mcu.o
                0x40000508                inter_mcu_received_fbw
 *fill*         0x40000509        0x3 
 .bss._fbw_state
                0x4000050c       0x14 /home/colibri/paparazziProto1/var/Colibri/ap/./inter_mcu.o
 .bss.i30.5797  0x40000520        0x1 /home/colibri/paparazziProto1/var/Colibri/ap/firmwares/fixedwing/main_fbw.o
 .bss.i120.5798
                0x40000521        0x1 /home/colibri/paparazziProto1/var/Colibri/ap/firmwares/fixedwing/main_fbw.o
 .bss._1Hz.5581
                0x40000522        0x1 /home/colibri/paparazziProto1/var/Colibri/ap/firmwares/fixedwing/main_fbw.o
 *fill*         0x40000523        0x1 
 .bss.i300.5827
                0x40000524        0x2 /home/colibri/paparazziProto1/var/Colibri/ap/firmwares/fixedwing/main_fbw.o
 .bss.i15.5796  0x40000526        0x1 /home/colibri/paparazziProto1/var/Colibri/ap/firmwares/fixedwing/main_fbw.o
 .bss.fbw_new_actuators
                0x40000527        0x1 /home/colibri/paparazziProto1/var/Colibri/ap/firmwares/fixedwing/main_fbw.o
                0x40000527                fbw_new_actuators
 .bss.i30.5825  0x40000528        0x1 /home/colibri/paparazziProto1/var/Colibri/ap/firmwares/fixedwing/main_fbw.o
 .bss.i60.5826  0x40000529        0x1 /home/colibri/paparazziProto1/var/Colibri/ap/firmwares/fixedwing/main_fbw.o
 *fill*         0x4000052a        0x2 
 .bss.electrical_priv
                0x4000052c       0x48 /home/colibri/paparazziProto1/var/Colibri/ap/subsystems/electrical.o
 .bss.command_roll_trim
                0x40000574        0x2 /home/colibri/paparazziProto1/var/Colibri/ap/./commands.o
                0x40000574                command_roll_trim
 .bss.command_pitch_trim
                0x40000576        0x2 /home/colibri/paparazziProto1/var/Colibri/ap/./commands.o
                0x40000576                command_pitch_trim
 .bss.telemetry_mode_Fbw
                0x40000578        0x1 /home/colibri/paparazziProto1/var/Colibri/ap/firmwares/fixedwing/fbw_downlink.o
                0x40000578                telemetry_mode_Fbw
 .bss.i243.7033
                0x40000579        0x1 /home/colibri/paparazziProto1/var/Colibri/ap/firmwares/fixedwing/main_ap.o
 .bss.i183.7030
                0x4000057a        0x1 /home/colibri/paparazziProto1/var/Colibri/ap/firmwares/fixedwing/main_ap.o
 *fill*         0x4000057b        0x1 
 .bss.last.7444
                0x4000057c        0x2 /home/colibri/paparazziProto1/var/Colibri/ap/firmwares/fixedwing/main_ap.o
 .bss.i66.7024  0x4000057e        0x1 /home/colibri/paparazziProto1/var/Colibri/ap/firmwares/fixedwing/main_ap.o
 .bss.i240.7032
                0x4000057f        0x1 /home/colibri/paparazziProto1/var/Colibri/ap/firmwares/fixedwing/main_ap.o
 .bss.i66.6684  0x40000580        0x1 /home/colibri/paparazziProto1/var/Colibri/ap/firmwares/fixedwing/main_ap.o
 *fill*         0x40000581        0x1 
 .bss.i324.7353
                0x40000582        0x2 /home/colibri/paparazziProto1/var/Colibri/ap/firmwares/fixedwing/main_ap.o
 .bss.i63.7023  0x40000584        0x1 /home/colibri/paparazziProto1/var/Colibri/ap/firmwares/fixedwing/main_ap.o
 .bss.mcu1_ppm_cpt
                0x40000585        0x1 /home/colibri/paparazziProto1/var/Colibri/ap/firmwares/fixedwing/main_ap.o
 .bss.t.7546    0x40000586        0x1 /home/colibri/paparazziProto1/var/Colibri/ap/firmwares/fixedwing/main_ap.o
 .bss.i180.7029
                0x40000587        0x1 /home/colibri/paparazziProto1/var/Colibri/ap/firmwares/fixedwing/main_ap.o
 .bss.i.6890    0x40000588        0x1 /home/colibri/paparazziProto1/var/Colibri/ap/firmwares/fixedwing/main_ap.o
 .bss.i60.6682  0x40000589        0x1 /home/colibri/paparazziProto1/var/Colibri/ap/firmwares/fixedwing/main_ap.o
 .bss.launch    0x4000058a        0x1 /home/colibri/paparazziProto1/var/Colibri/ap/firmwares/fixedwing/main_ap.o
                0x4000058a                launch
 *fill*         0x4000058b        0x1 
 .bss.i330.7354
                0x4000058c        0x2 /home/colibri/paparazziProto1/var/Colibri/ap/firmwares/fixedwing/main_ap.o
 .bss.i6.6680   0x4000058e        0x1 /home/colibri/paparazziProto1/var/Colibri/ap/firmwares/fixedwing/main_ap.o
 *fill*         0x4000058f        0x1 
 .bss.i318.7352
                0x40000590        0x2 /home/colibri/paparazziProto1/var/Colibri/ap/firmwares/fixedwing/main_ap.o
 .bss.i.7126    0x40000592        0x1 /home/colibri/paparazziProto1/var/Colibri/ap/firmwares/fixedwing/main_ap.o
 *fill*         0x40000593        0x1 
 .bss.i306.7035
                0x40000594        0x2 /home/colibri/paparazziProto1/var/Colibri/ap/firmwares/fixedwing/main_ap.o
 .bss.i312.7036
                0x40000596        0x2 /home/colibri/paparazziProto1/var/Colibri/ap/firmwares/fixedwing/main_ap.o
 .bss.lateral_mode
                0x40000598        0x1 /home/colibri/paparazziProto1/var/Colibri/ap/firmwares/fixedwing/main_ap.o
                0x40000598                lateral_mode
 .bss.mcu1_status
                0x40000599        0x1 /home/colibri/paparazziProto1/var/Colibri/ap/firmwares/fixedwing/main_ap.o
 .bss.i126.7028
                0x4000059a        0x1 /home/colibri/paparazziProto1/var/Colibri/ap/firmwares/fixedwing/main_ap.o
 .bss.i192.7031
                0x4000059b        0x1 /home/colibri/paparazziProto1/var/Colibri/ap/firmwares/fixedwing/main_ap.o
 .bss.i300.7034
                0x4000059c        0x2 /home/colibri/paparazziProto1/var/Colibri/ap/firmwares/fixedwing/main_ap.o
 .bss.i.6693    0x4000059e        0x1 /home/colibri/paparazziProto1/var/Colibri/ap/firmwares/fixedwing/main_ap.o
 .bss.i90.7027  0x4000059f        0x1 /home/colibri/paparazziProto1/var/Colibri/ap/firmwares/fixedwing/main_ap.o
 .bss.i.7039    0x400005a0        0x1 /home/colibri/paparazziProto1/var/Colibri/ap/firmwares/fixedwing/main_ap.o
 .bss.i90.6686  0x400005a1        0x1 /home/colibri/paparazziProto1/var/Colibri/ap/firmwares/fixedwing/main_ap.o
 .bss.i300.6690
                0x400005a2        0x2 /home/colibri/paparazziProto1/var/Colibri/ap/firmwares/fixedwing/main_ap.o
 .bss.i306.6691
                0x400005a4        0x2 /home/colibri/paparazziProto1/var/Colibri/ap/firmwares/fixedwing/main_ap.o
 .bss.i540.6692
                0x400005a6        0x2 /home/colibri/paparazziProto1/var/Colibri/ap/firmwares/fixedwing/main_ap.o
 .bss.i540.7037
                0x400005a8        0x2 /home/colibri/paparazziProto1/var/Colibri/ap/firmwares/fixedwing/main_ap.o
 .bss.i300.7350
                0x400005aa        0x2 /home/colibri/paparazziProto1/var/Colibri/ap/firmwares/fixedwing/main_ap.o
 .bss.i126.6688
                0x400005ac        0x1 /home/colibri/paparazziProto1/var/Colibri/ap/firmwares/fixedwing/main_ap.o
 .bss.kill_throttle
                0x400005ad        0x1 /home/colibri/paparazziProto1/var/Colibri/ap/firmwares/fixedwing/main_ap.o
                0x400005ad                kill_throttle
 .bss.i.7108    0x400005ae        0x1 /home/colibri/paparazziProto1/var/Colibri/ap/firmwares/fixedwing/main_ap.o
 *fill*         0x400005af        0x1 
 .bss.i420.7356
                0x400005b0        0x2 /home/colibri/paparazziProto1/var/Colibri/ap/firmwares/fixedwing/main_ap.o
 .bss.last.7005
                0x400005b2        0x2 /home/colibri/paparazziProto1/var/Colibri/ap/firmwares/fixedwing/main_ap.o
 .bss.i84.7026  0x400005b4        0x1 /home/colibri/paparazziProto1/var/Colibri/ap/firmwares/fixedwing/main_ap.o
 *fill*         0x400005b5        0x1 
 .bss.i306.7351
                0x400005b6        0x2 /home/colibri/paparazziProto1/var/Colibri/ap/firmwares/fixedwing/main_ap.o
 .bss.i1.6448   0x400005b8        0x1 /home/colibri/paparazziProto1/var/Colibri/ap/firmwares/fixedwing/main_ap.o
 .bss.i63.6683  0x400005b9        0x1 /home/colibri/paparazziProto1/var/Colibri/ap/firmwares/fixedwing/main_ap.o
 .bss.i120.6687
                0x400005ba        0x1 /home/colibri/paparazziProto1/var/Colibri/ap/firmwares/fixedwing/main_ap.o
 *fill*         0x400005bb        0x1 
 .bss.last.7321
                0x400005bc        0x2 /home/colibri/paparazziProto1/var/Colibri/ap/firmwares/fixedwing/main_ap.o
 .bss.i.6755    0x400005be        0x1 /home/colibri/paparazziProto1/var/Colibri/ap/firmwares/fixedwing/main_ap.o
 .bss.i78.7025  0x400005bf        0x1 /home/colibri/paparazziProto1/var/Colibri/ap/firmwares/fixedwing/main_ap.o
 .bss.i342.7355
                0x400005c0        0x2 /home/colibri/paparazziProto1/var/Colibri/ap/firmwares/fixedwing/main_ap.o
 .bss.i612.7358
                0x400005c2        0x2 /home/colibri/paparazziProto1/var/Colibri/ap/firmwares/fixedwing/main_ap.o
 .bss.current   0x400005c4        0x4 /home/colibri/paparazziProto1/var/Colibri/ap/firmwares/fixedwing/main_ap.o
 .bss.i.7365    0x400005c8        0x1 /home/colibri/paparazziProto1/var/Colibri/ap/firmwares/fixedwing/main_ap.o
 .bss.i150.6689
                0x400005c9        0x1 /home/colibri/paparazziProto1/var/Colibri/ap/firmwares/fixedwing/main_ap.o
 .bss.i72.6685  0x400005ca        0x1 /home/colibri/paparazziProto1/var/Colibri/ap/firmwares/fixedwing/main_ap.o
 .bss.i30.6681  0x400005cb        0x1 /home/colibri/paparazziProto1/var/Colibri/ap/firmwares/fixedwing/main_ap.o
 .bss.i606.7038
                0x400005cc        0x2 /home/colibri/paparazziProto1/var/Colibri/ap/firmwares/fixedwing/main_ap.o
 .bss.i606.7357
                0x400005ce        0x2 /home/colibri/paparazziProto1/var/Colibri/ap/firmwares/fixedwing/main_ap.o
 .bss.p         0x400005d0       0x10 /home/colibri/paparazziProto1/var/Colibri/ap/./estimator.o
 .bss.telemetry_mode_Ap
                0x400005e0        0x1 /home/colibri/paparazziProto1/var/Colibri/ap/firmwares/fixedwing/ap_downlink.o
                0x400005e0                telemetry_mode_Ap
 *fill*         0x400005e1        0x3 
 .bss.buffers   0x400005e4       0x40 /home/colibri/paparazziProto1/var/Colibri/ap/arch/lpc21/mcu_periph/adc_arch.o
 .bss.last_elevator_trim.5817
                0x40000624        0x4 /home/colibri/paparazziProto1/var/Colibri/ap/firmwares/fixedwing/stabilization/stabilization_attitude.o
 .bss.route_ap_time
                0x40000628        0x1 /home/colibri/paparazziProto1/var/Colibri/ap/firmwares/fixedwing/stabilization/stabilization_attitude.o
                0x40000628                route_ap_time
 *fill*         0x40000629        0x3 
 .bss.last_err.5826
                0x4000062c        0x4 /home/colibri/paparazziProto1/var/Colibri/ap/firmwares/fixedwing/stabilization/stabilization_attitude.o
 .bss.nav_ratio
                0x40000630        0x4 /home/colibri/paparazziProto1/var/Colibri/ap/firmwares/fixedwing/stabilization/stabilization_attitude.o
 .bss.last_err.5785
                0x40000634        0x4 /home/colibri/paparazziProto1/var/Colibri/ap/firmwares/fixedwing/stabilization/stabilization_attitude.o
 .bss.last_err.5764
                0x40000638        0x4 /home/colibri/paparazziProto1/var/Colibri/ap/firmwares/fixedwing/guidance/guidance_v.o
 .bss.previous_ground_alt
                0x4000063c        0x4 /home/colibri/paparazziProto1/var/Colibri/ap/subsystems/nav.o
 .bss.last_nav_altitude.6718
                0x40000640        0x4 /home/colibri/paparazziProto1/var/Colibri/ap/subsystems/nav.o
 .bss.last_wp   0x40000644        0x1 /home/colibri/paparazziProto1/var/Colibri/ap/subsystems/nav.o
 .bss.nav_in_segment
                0x40000645        0x1 /home/colibri/paparazziProto1/var/Colibri/ap/subsystems/nav.o
                0x40000645                nav_in_segment
 .bss.prescaler.6706
                0x40000646        0x2 /home/colibri/paparazziProto1/var/Colibri/ap/subsystems/nav.o
 .bss.nav_in_circle
                0x40000648        0x1 /home/colibri/paparazziProto1/var/Colibri/ap/subsystems/nav.o
                0x40000648                nav_in_circle
 *fill*         0x40000649        0x3 
 .bss.nav_leg_length
                0x4000064c        0x4 /home/colibri/paparazziProto1/var/Colibri/ap/subsystems/nav.o
 .bss.eight_status
                0x40000650        0x1 /home/colibri/paparazziProto1/var/Colibri/ap/subsystems/nav.o
 *fill*         0x40000651        0x3 
 .bss.circle_bank
                0x40000654        0x4 /home/colibri/paparazziProto1/var/Colibri/ap/subsystems/nav.o
                0x40000654                circle_bank
 .bss.nav_leg_progress
                0x40000658        0x4 /home/colibri/paparazziProto1/var/Colibri/ap/subsystems/nav.o
 .bss.buf_ir1   0x4000065c       0x48 /home/colibri/paparazziProto1/var/Colibri/ap/subsystems/sensors/infrared_adc.o
 .bss.buf_ir2   0x400006a4       0x48 /home/colibri/paparazziProto1/var/Colibri/ap/subsystems/sensors/infrared_adc.o
 .bss.buf_ir3   0x400006ec       0x48 /home/colibri/paparazziProto1/var/Colibri/ap/subsystems/sensors/infrared_adc.o
 *(.gnu.linkonce.b*)
 *(COMMON)
 COMMON         0x40000734       0xac /home/colibri/paparazziProto1/var/Colibri/ap/mcu_periph/sys_time.o
                0x40000734                sys_time
 COMMON         0x400007e0        0x2 /home/colibri/paparazziProto1/var/Colibri/ap/./inter_mcu.o
                0x400007e0                ap_ok
                0x400007e1                time_since_last_ap
 COMMON         0x400007e2        0x3 /home/colibri/paparazziProto1/var/Colibri/ap/firmwares/fixedwing/main_fbw.o
                0x400007e2                fbw_periodic_tid
                0x400007e3                fbw_mode
                0x400007e4                electrical_tid
 *fill*         0x400007e5        0x3 
 COMMON         0x400007e8        0xc /home/colibri/paparazziProto1/var/Colibri/ap/subsystems/electrical.o
                0x400007e8                electrical
 COMMON         0x400007f4        0xa /home/colibri/paparazziProto1/var/Colibri/ap/./commands.o
                0x400007f4                commands
 *fill*         0x400007fe        0x2 
 COMMON         0x40000800       0x18 /home/colibri/paparazziProto1/var/Colibri/ap/firmwares/fixedwing/main_ap.o
                0x40000800                combi_switch_status
                0x40000801                navigation_tid
                0x40000802                monitor_tid
                0x40000803                sensors_tid
                0x40000804                attitude_tid
                0x40000808                energy
                0x4000080c                telemetry_tid
                0x4000080d                power_switch
                0x40000810                combi_switch_value
                0x40000814                modules_tid
                0x40000816                vsupply
 COMMON         0x40000818       0x4c /home/colibri/paparazziProto1/var/Colibri/ap/./estimator.o
                0x40000818                estimator_z_dot
                0x4000081c                estimator_flight_time
                0x40000820                estimator_psi
                0x40000824                estimator_z
                0x40000828                estimator_t
                0x4000082c                wind_east
                0x40000830                estimator_airspeed
                0x40000834                estimator_p
                0x40000838                estimator_theta
                0x4000083c                estimator_hspeed_mod
                0x40000840                estimator_phi
                0x40000844                estimator_r
                0x40000848                estimator_x
                0x4000084c                estimator_AOA
                0x40000850                estimator_q
                0x40000854                estimator_hspeed_dir
                0x40000858                wind_north
                0x4000085c                alt_kalman_enabled
                0x40000860                estimator_y
 COMMON         0x40000864      0x240 /home/colibri/paparazziProto1/var/Colibri/ap/mcu_periph/uart.o
                0x40000864                uart0
                0x40000984                uart1
 COMMON         0x40000aa4       0x16 /home/colibri/paparazziProto1/var/Colibri/ap/arch/lpc21/servos_4017_hw.o
                0x40000aa4                servos_4017_idx
                0x40000aa6                servos_values
 COMMON         0x40000aba       0x10 /home/colibri/paparazziProto1/var/Colibri/ap/actuators.o
                0x40000aba                actuators
 COMMON         0x40000aca       0x12 /home/colibri/paparazziProto1/var/Colibri/ap/subsystems/radio_control.o
                0x40000aca                radio_control
 COMMON         0x40000adc        0x6 /home/colibri/paparazziProto1/var/Colibri/ap/subsystems/radio_control/rc_datalink.o
                0x40000adc                rc_dl_frame_available
                0x40000add                rc_dl_values
 *fill*         0x40000ae2        0x2 
 COMMON         0x40000ae4       0x54 /home/colibri/paparazziProto1/var/Colibri/ap/firmwares/fixedwing/stabilization/stabilization_attitude.o
                0x40000ae4                h_ctl_auto1_rate
                0x40000ae8                h_ctl_course_setpoint
                0x40000aec                h_ctl_roll_max_setpoint
                0x40000af0                h_ctl_course_pre_bank_correction
                0x40000af4                h_ctl_elevator_setpoint
                0x40000af8                h_ctl_aileron_of_throttle
                0x40000afc                h_ctl_aileron_setpoint
                0x40000b00                h_ctl_pitch_setpoint
                0x40000b04                h_ctl_roll_slew
                0x40000b08                h_ctl_course_pgain
                0x40000b0c                h_ctl_pitch_pgain
                0x40000b10                h_ctl_pitch_loop_setpoint
                0x40000b14                h_ctl_course_pre_bank
                0x40000b18                h_ctl_pitch_dgain
                0x40000b1c                h_ctl_course_dgain
                0x40000b20                h_ctl_roll_attitude_gain
                0x40000b24                h_ctl_roll_rate_gain
                0x40000b28                h_ctl_disabled
                0x40000b2c                h_ctl_roll_pgain
                0x40000b30                h_ctl_roll_setpoint
                0x40000b34                h_ctl_elevator_of_roll
 COMMON         0x40000b38       0x68 /home/colibri/paparazziProto1/var/Colibri/ap/firmwares/fixedwing/guidance/guidance_v.o
                0x40000b38                v_ctl_auto_throttle_nominal_cruise_throttle
                0x40000b3c                v_ctl_altitude_error
                0x40000b40                v_ctl_climb_mode
                0x40000b44                v_ctl_auto_throttle_pitch_of_vz_dgain
                0x40000b48                v_ctl_altitude_pre_climb_correction
                0x40000b4c                v_ctl_auto_throttle_sum_err
                0x40000b50                v_ctl_auto_throttle_submode
                0x40000b54                v_ctl_auto_throttle_pitch_of_vz_pgain
                0x40000b58                v_ctl_altitude_max_climb
                0x40000b5c                v_ctl_altitude_setpoint
                0x40000b60                v_ctl_mode
                0x40000b64                v_ctl_auto_throttle_cruise_throttle
                0x40000b68                v_ctl_altitude_pgain
                0x40000b6c                v_ctl_auto_pitch_pgain
                0x40000b70                v_ctl_auto_throttle_climb_throttle_increment
                0x40000b74                v_ctl_auto_throttle_igain
                0x40000b78                v_ctl_auto_throttle_min_cruise_throttle
                0x40000b7c                v_ctl_throttle_setpoint
                0x40000b80                v_ctl_climb_setpoint
                0x40000b84                v_ctl_auto_throttle_dgain
                0x40000b88                v_ctl_auto_pitch_igain
                0x40000b8c                v_ctl_altitude_pre_climb
                0x40000b90                v_ctl_auto_throttle_max_cruise_throttle
                0x40000b94                v_ctl_throttle_slewed
                0x40000b98                v_ctl_auto_throttle_pgain
                0x40000b9c                v_ctl_auto_pitch_sum_err
 COMMON         0x40000ba0       0xa0 /home/colibri/paparazziProto1/var/Colibri/ap/subsystems/nav.o
                0x40000ba0                nav_glide_pitch_trim
                0x40000ba4                dist2_to_wp
                0x40000ba8                nav_segment_x_1
                0x40000bac                desired_x
                0x40000bb0                nav_survey_east
                0x40000bb4                nav_segment_x_2
                0x40000bb8                nav_circle_radius
                0x40000bbc                nav_ground_speed_setpoint
                0x40000bc0                nav_circle_radians
                0x40000bc4                nav_throttle_setpoint
                0x40000bc8                desired_y
                0x40000bcc                nav_shift
                0x40000bd0                carrot_x
                0x40000bd4                last_y
                0x40000bd8                horizontal_mode
                0x40000bdc                nav_circle_y
                0x40000be0                too_far_from_home
                0x40000be4                nav_pitch
                0x40000be8                rc_pitch
                0x40000bec                nav_oval_count
                0x40000bf0                nav_mode
                0x40000bf4                dist2_to_home
                0x40000bf8                nav_climb
                0x40000bfc                last_x
                0x40000c00                nav_survey_active
                0x40000c01                oval_status
                0x40000c04                nav_ground_speed_pgain
                0x40000c08                nav_circle_x
                0x40000c0c                nav_segment_y_2
                0x40000c10                nav_segment_y_1
                0x40000c14                ground_alt
                0x40000c18                nav_survey_west
                0x40000c1c                nav_radius
                0x40000c20                nav_course
                0x40000c24                nav_survey_shift
                0x40000c28                carrot_y
                0x40000c2c                nav_survey_south
                0x40000c30                nav_circle_trigo_qdr
                0x40000c34                fp_pitch
                0x40000c38                flight_altitude
                0x40000c3c                nav_survey_north
 COMMON         0x40000c40        0x8 /home/colibri/paparazziProto1/var/Colibri/ap/subsystems/navigation/common_flight_plan.o
                0x40000c40                nav_block
                0x40000c41                last_block
                0x40000c42                nav_stage
                0x40000c43                last_stage
                0x40000c44                stage_time
                0x40000c46                block_time
 COMMON         0x40000c48      0x401 /home/colibri/paparazziProto1/var/Colibri/ap/subsystems/navigation/traffic_info.o
                0x40000c48                the_acs_id
                0x40000d48                the_acs
                0x40001048                acs_idx
 *fill*         0x40001049        0x1 
 COMMON         0x4000104a        0x6 /home/colibri/paparazziProto1/var/Colibri/ap/subsystems/datalink/downlink.o
                0x4000104a                downlink_nb_ovrn
                0x4000104c                downlink_nb_msgs
                0x4000104e                downlink_nb_bytes
 COMMON         0x40001050      0x10a /home/colibri/paparazziProto1/var/Colibri/ap/subsystems/datalink/pprz_transport.o
                0x40001050                ck_b
                0x40001051                pprz_tp
                0x40001159                ck_a
 *fill*         0x4000115a        0x6 
 COMMON         0x40001160       0x8a /home/colibri/paparazziProto1/var/Colibri/ap/firmwares/fixedwing/datalink.o
                0x40001160                dl_msg_available
                0x40001168                dl_buffer
                0x400011e8                datalink_time
 *fill*         0x400011ea        0x2 
 COMMON         0x400011ec      0x15c /home/colibri/paparazziProto1/var/Colibri/ap/subsystems/ahrs.o
                0x400011ec                ahrs
                0x40001288                ahrs_mag_offset
                0x4000128c                ahrs_float
 COMMON         0x40001348      0x118 /home/colibri/paparazziProto1/var/Colibri/ap/subsystems/gps/gps_ubx.o
                0x40001348                gps_ubx
 COMMON         0x40001460       0xf4 /home/colibri/paparazziProto1/var/Colibri/ap/subsystems/gps.o
                0x40001460                gps
 COMMON         0x40001554       0x38 /home/colibri/paparazziProto1/var/Colibri/ap/subsystems/sensors/infrared.o
                0x40001554                infrared
 COMMON         0x4000158c        0x6 /home/colibri/paparazziProto1/var/Colibri/ap/subsystems/sensors/infrared_adc.o
                0x4000158c                ir_adc
                0x40001594                . = ALIGN (0x4)
 *fill*         0x40001592        0x2 
                0x40001594                . = ALIGN (0x4)
                0x40001594                __bss_end__ = .
                0x40001594                PROVIDE (__bss_end, .)

.stack          0x40001600     0x1000 load address 0x0001f3a8
                0x40002600                . = (. + STACK_SIZE)
 *fill*         0x40001600     0x1000 
                0x40002600                PROVIDE (_stack, .)
                0x40002600                _end = .
                0x40002600                PROVIDE (end, .)

.stab
 *(.stab)

.stabstr
 *(.stabstr)

.stab.excl
 *(.stab.excl)

.stab.exclstr
 *(.stab.exclstr)

.stab.index
 *(.stab.index)

.stab.indexstr
 *(.stab.indexstr)

.comment        0x00000000       0x70
 *(.comment)
 .comment       0x00000000       0x70 /home/colibri/paparazziProto1/var/Colibri/ap/mcu.o
                                 0x71 (size before relaxing)
 .comment       0x00000000       0x71 /home/colibri/paparazziProto1/var/Colibri/ap/arch/lpc21/mcu_arch.o
 .comment       0x00000000       0x71 /home/colibri/paparazziProto1/var/Colibri/ap/mcu_periph/sys_time.o
 .comment       0x00000000       0x71 /home/colibri/paparazziProto1/var/Colibri/ap/arch/lpc21/mcu_periph/sys_time_arch.o
 .comment       0x00000000       0x71 /home/colibri/paparazziProto1/var/Colibri/ap/./inter_mcu.o
 .comment       0x00000000       0x71 /home/colibri/paparazziProto1/var/Colibri/ap/math/pprz_geodetic_float.o
 .comment       0x00000000       0x71 /home/colibri/paparazziProto1/var/Colibri/ap/arch/lpc21/mcu_periph/i2c_arch.o
 .comment       0x00000000       0x71 /home/colibri/paparazziProto1/var/Colibri/ap/firmwares/fixedwing/main_fbw.o
 .comment       0x00000000       0x71 /home/colibri/paparazziProto1/var/Colibri/ap/subsystems/electrical.o
 .comment       0x00000000       0x71 /home/colibri/paparazziProto1/var/Colibri/ap/./commands.o
 .comment       0x00000000       0x71 /home/colibri/paparazziProto1/var/Colibri/ap/firmwares/fixedwing/fbw_downlink.o
 .comment       0x00000000       0x71 /home/colibri/paparazziProto1/var/Colibri/ap/firmwares/fixedwing/main_ap.o
 .comment       0x00000000       0x71 /home/colibri/paparazziProto1/var/Colibri/ap/./estimator.o
 .comment       0x00000000       0x71 /home/colibri/paparazziProto1/var/Colibri/ap/firmwares/fixedwing/ap_downlink.o
 .comment       0x00000000       0x71 /home/colibri/paparazziProto1/var/Colibri/ap/arch/lpc21/armVIC.o
 .comment       0x00000000       0x71 /home/colibri/paparazziProto1/var/Colibri/ap/firmwares/fixedwing/main.o
 .comment       0x00000000       0x71 /home/colibri/paparazziProto1/var/Colibri/ap/mcu_periph/uart.o
 .comment       0x00000000       0x71 /home/colibri/paparazziProto1/var/Colibri/ap/arch/lpc21/mcu_periph/uart_arch.o
 .comment       0x00000000       0x71 /home/colibri/paparazziProto1/var/Colibri/ap/subsystems/settings.o
 .comment       0x00000000       0x71 /home/colibri/paparazziProto1/var/Colibri/ap/arch/lpc21/mcu_periph/adc_arch.o
 .comment       0x00000000       0x71 /home/colibri/paparazziProto1/var/Colibri/ap/arch/lpc21/servos_4017_hw.o
 .comment       0x00000000       0x71 /home/colibri/paparazziProto1/var/Colibri/ap/actuators.o
 .comment       0x00000000       0x71 /home/colibri/paparazziProto1/var/Colibri/ap/subsystems/radio_control.o
 .comment       0x00000000       0x71 /home/colibri/paparazziProto1/var/Colibri/ap/subsystems/radio_control/rc_datalink.o
 .comment       0x00000000       0x71 /home/colibri/paparazziProto1/var/Colibri/ap/firmwares/fixedwing/stabilization/stabilization_attitude.o
 .comment       0x00000000       0x71 /home/colibri/paparazziProto1/var/Colibri/ap/firmwares/fixedwing/guidance/guidance_v.o
 .comment       0x00000000       0x71 /home/colibri/paparazziProto1/var/Colibri/ap/subsystems/nav.o
 .comment       0x00000000       0x71 /home/colibri/paparazziProto1/var/Colibri/ap/subsystems/navigation/common_flight_plan.o
 .comment       0x00000000       0x71 /home/colibri/paparazziProto1/var/Colibri/ap/subsystems/navigation/traffic_info.o
 .comment       0x00000000       0x71 /home/colibri/paparazziProto1/var/Colibri/ap/subsystems/datalink/downlink.o
 .comment       0x00000000       0x71 /home/colibri/paparazziProto1/var/Colibri/ap/subsystems/datalink/pprz_transport.o
 .comment       0x00000000       0x71 /home/colibri/paparazziProto1/var/Colibri/ap/firmwares/fixedwing/datalink.o
 .comment       0x00000000       0x71 /home/colibri/paparazziProto1/var/Colibri/ap/subsystems/ahrs.o
 .comment       0x00000000       0x71 /home/colibri/paparazziProto1/var/Colibri/ap/subsystems/ahrs/ahrs_infrared.o
 .comment       0x00000000       0x71 /home/colibri/paparazziProto1/var/Colibri/ap/subsystems/gps/gps_ubx.o
 .comment       0x00000000       0x71 /home/colibri/paparazziProto1/var/Colibri/ap/subsystems/gps.o
 .comment       0x00000000       0x71 /home/colibri/paparazziProto1/var/Colibri/ap/subsystems/sensors/infrared.o
 .comment       0x00000000       0x71 /home/colibri/paparazziProto1/var/Colibri/ap/subsystems/sensors/infrared_adc.o

.ARM.attributes
                0x00000000       0x2c
 .ARM.attributes
                0x00000000       0x20 /home/colibri/paparazziProto1/var/Colibri/ap/crt0.o
 .ARM.attributes
                0x00000020       0x30 /home/colibri/paparazziProto1/var/Colibri/ap/mcu.o
 .ARM.attributes
                0x00000050       0x30 /home/colibri/paparazziProto1/var/Colibri/ap/arch/lpc21/mcu_arch.o
 .ARM.attributes
                0x00000080       0x30 /home/colibri/paparazziProto1/var/Colibri/ap/mcu_periph/sys_time.o
 .ARM.attributes
                0x000000b0       0x30 /home/colibri/paparazziProto1/var/Colibri/ap/arch/lpc21/mcu_periph/sys_time_arch.o
 .ARM.attributes
                0x000000e0       0x30 /home/colibri/paparazziProto1/var/Colibri/ap/./inter_mcu.o
 .ARM.attributes
                0x00000110       0x30 /home/colibri/paparazziProto1/var/Colibri/ap/math/pprz_geodetic_float.o
 .ARM.attributes
                0x00000140       0x30 /home/colibri/paparazziProto1/var/Colibri/ap/arch/lpc21/mcu_periph/i2c_arch.o
 .ARM.attributes
                0x00000170       0x30 /home/colibri/paparazziProto1/var/Colibri/ap/firmwares/fixedwing/main_fbw.o
 .ARM.attributes
                0x000001a0       0x30 /home/colibri/paparazziProto1/var/Colibri/ap/subsystems/electrical.o
 .ARM.attributes
                0x000001d0       0x30 /home/colibri/paparazziProto1/var/Colibri/ap/./commands.o
 .ARM.attributes
                0x00000200       0x30 /home/colibri/paparazziProto1/var/Colibri/ap/firmwares/fixedwing/fbw_downlink.o
 .ARM.attributes
                0x00000230       0x30 /home/colibri/paparazziProto1/var/Colibri/ap/firmwares/fixedwing/main_ap.o
 .ARM.attributes
                0x00000260       0x30 /home/colibri/paparazziProto1/var/Colibri/ap/./estimator.o
 .ARM.attributes
                0x00000290       0x30 /home/colibri/paparazziProto1/var/Colibri/ap/firmwares/fixedwing/ap_downlink.o
 .ARM.attributes
                0x000002c0       0x30 /home/colibri/paparazziProto1/var/Colibri/ap/arch/lpc21/armVIC.o
 .ARM.attributes
                0x000002f0       0x30 /home/colibri/paparazziProto1/var/Colibri/ap/firmwares/fixedwing/main.o
 .ARM.attributes
                0x00000320       0x30 /home/colibri/paparazziProto1/var/Colibri/ap/mcu_periph/uart.o
 .ARM.attributes
                0x00000350       0x30 /home/colibri/paparazziProto1/var/Colibri/ap/arch/lpc21/mcu_periph/uart_arch.o
 .ARM.attributes
                0x00000380       0x30 /home/colibri/paparazziProto1/var/Colibri/ap/subsystems/settings.o
 .ARM.attributes
                0x000003b0       0x30 /home/colibri/paparazziProto1/var/Colibri/ap/arch/lpc21/mcu_periph/adc_arch.o
 .ARM.attributes
                0x000003e0       0x30 /home/colibri/paparazziProto1/var/Colibri/ap/arch/lpc21/servos_4017_hw.o
 .ARM.attributes
                0x00000410       0x30 /home/colibri/paparazziProto1/var/Colibri/ap/actuators.o
 .ARM.attributes
                0x00000440       0x30 /home/colibri/paparazziProto1/var/Colibri/ap/subsystems/radio_control.o
 .ARM.attributes
                0x00000470       0x30 /home/colibri/paparazziProto1/var/Colibri/ap/subsystems/radio_control/rc_datalink.o
 .ARM.attributes
                0x000004a0       0x30 /home/colibri/paparazziProto1/var/Colibri/ap/firmwares/fixedwing/stabilization/stabilization_attitude.o
 .ARM.attributes
                0x000004d0       0x30 /home/colibri/paparazziProto1/var/Colibri/ap/firmwares/fixedwing/guidance/guidance_v.o
 .ARM.attributes
                0x00000500       0x30 /home/colibri/paparazziProto1/var/Colibri/ap/subsystems/nav.o
 .ARM.attributes
                0x00000530       0x30 /home/colibri/paparazziProto1/var/Colibri/ap/subsystems/navigation/common_flight_plan.o
 .ARM.attributes
                0x00000560       0x30 /home/colibri/paparazziProto1/var/Colibri/ap/subsystems/navigation/traffic_info.o
 .ARM.attributes
                0x00000590       0x30 /home/colibri/paparazziProto1/var/Colibri/ap/subsystems/datalink/downlink.o
 .ARM.attributes
                0x000005c0       0x30 /home/colibri/paparazziProto1/var/Colibri/ap/subsystems/datalink/pprz_transport.o
 .ARM.attributes
                0x000005f0       0x30 /home/colibri/paparazziProto1/var/Colibri/ap/firmwares/fixedwing/datalink.o
 .ARM.attributes
                0x00000620       0x30 /home/colibri/paparazziProto1/var/Colibri/ap/subsystems/ahrs.o
 .ARM.attributes
                0x00000650       0x30 /home/colibri/paparazziProto1/var/Colibri/ap/subsystems/ahrs/ahrs_infrared.o
 .ARM.attributes
                0x00000680       0x30 /home/colibri/paparazziProto1/var/Colibri/ap/subsystems/gps/gps_ubx.o
 .ARM.attributes
                0x000006b0       0x30 /home/colibri/paparazziProto1/var/Colibri/ap/subsystems/gps.o
 .ARM.attributes
                0x000006e0       0x30 /home/colibri/paparazziProto1/var/Colibri/ap/subsystems/sensors/infrared.o
 .ARM.attributes
                0x00000710       0x30 /home/colibri/paparazziProto1/var/Colibri/ap/subsystems/sensors/infrared_adc.o
 .ARM.attributes
                0x00000740       0x30 /opt/gcc-arm-none-eabi-4_8-2013q4/bin/../lib/gcc/arm-none-eabi/4.8.3/../../../../arm-none-eabi/lib/thumb/libm.a(lib_a-s_atan.o)
 .ARM.attributes
                0x00000770       0x30 /opt/gcc-arm-none-eabi-4_8-2013q4/bin/../lib/gcc/arm-none-eabi/4.8.3/../../../../arm-none-eabi/lib/thumb/libm.a(lib_a-s_cos.o)
 .ARM.attributes
                0x000007a0       0x30 /opt/gcc-arm-none-eabi-4_8-2013q4/bin/../lib/gcc/arm-none-eabi/4.8.3/../../../../arm-none-eabi/lib/thumb/libm.a(lib_a-s_fabs.o)
 .ARM.attributes
                0x000007d0       0x30 /opt/gcc-arm-none-eabi-4_8-2013q4/bin/../lib/gcc/arm-none-eabi/4.8.3/../../../../arm-none-eabi/lib/thumb/libm.a(lib_a-s_sin.o)
 .ARM.attributes
                0x00000800       0x30 /opt/gcc-arm-none-eabi-4_8-2013q4/bin/../lib/gcc/arm-none-eabi/4.8.3/../../../../arm-none-eabi/lib/thumb/libm.a(lib_a-s_tan.o)
 .ARM.attributes
                0x00000830       0x30 /opt/gcc-arm-none-eabi-4_8-2013q4/bin/../lib/gcc/arm-none-eabi/4.8.3/../../../../arm-none-eabi/lib/thumb/libm.a(lib_a-sf_atan.o)
 .ARM.attributes
                0x00000860       0x30 /opt/gcc-arm-none-eabi-4_8-2013q4/bin/../lib/gcc/arm-none-eabi/4.8.3/../../../../arm-none-eabi/lib/thumb/libm.a(lib_a-sf_cos.o)
 .ARM.attributes
                0x00000890       0x30 /opt/gcc-arm-none-eabi-4_8-2013q4/bin/../lib/gcc/arm-none-eabi/4.8.3/../../../../arm-none-eabi/lib/thumb/libm.a(lib_a-sf_fabs.o)
 .ARM.attributes
                0x000008c0       0x30 /opt/gcc-arm-none-eabi-4_8-2013q4/bin/../lib/gcc/arm-none-eabi/4.8.3/../../../../arm-none-eabi/lib/thumb/libm.a(lib_a-sf_sin.o)
 .ARM.attributes
                0x000008f0       0x30 /opt/gcc-arm-none-eabi-4_8-2013q4/bin/../lib/gcc/arm-none-eabi/4.8.3/../../../../arm-none-eabi/lib/thumb/libm.a(lib_a-w_asin.o)
 .ARM.attributes
                0x00000920       0x30 /opt/gcc-arm-none-eabi-4_8-2013q4/bin/../lib/gcc/arm-none-eabi/4.8.3/../../../../arm-none-eabi/lib/thumb/libm.a(lib_a-w_atan2.o)
 .ARM.attributes
                0x00000950       0x30 /opt/gcc-arm-none-eabi-4_8-2013q4/bin/../lib/gcc/arm-none-eabi/4.8.3/../../../../arm-none-eabi/lib/thumb/libm.a(lib_a-w_cosh.o)
 .ARM.attributes
                0x00000980       0x30 /opt/gcc-arm-none-eabi-4_8-2013q4/bin/../lib/gcc/arm-none-eabi/4.8.3/../../../../arm-none-eabi/lib/thumb/libm.a(lib_a-w_exp.o)
 .ARM.attributes
                0x000009b0       0x30 /opt/gcc-arm-none-eabi-4_8-2013q4/bin/../lib/gcc/arm-none-eabi/4.8.3/../../../../arm-none-eabi/lib/thumb/libm.a(lib_a-w_log.o)
 .ARM.attributes
                0x000009e0       0x30 /opt/gcc-arm-none-eabi-4_8-2013q4/bin/../lib/gcc/arm-none-eabi/4.8.3/../../../../arm-none-eabi/lib/thumb/libm.a(lib_a-w_sinh.o)
 .ARM.attributes
                0x00000a10       0x30 /opt/gcc-arm-none-eabi-4_8-2013q4/bin/../lib/gcc/arm-none-eabi/4.8.3/../../../../arm-none-eabi/lib/thumb/libm.a(lib_a-w_sqrt.o)
 .ARM.attributes
                0x00000a40       0x30 /opt/gcc-arm-none-eabi-4_8-2013q4/bin/../lib/gcc/arm-none-eabi/4.8.3/../../../../arm-none-eabi/lib/thumb/libm.a(lib_a-wf_atan2.o)
 .ARM.attributes
                0x00000a70       0x30 /opt/gcc-arm-none-eabi-4_8-2013q4/bin/../lib/gcc/arm-none-eabi/4.8.3/../../../../arm-none-eabi/lib/thumb/libm.a(lib_a-e_asin.o)
 .ARM.attributes
                0x00000aa0       0x30 /opt/gcc-arm-none-eabi-4_8-2013q4/bin/../lib/gcc/arm-none-eabi/4.8.3/../../../../arm-none-eabi/lib/thumb/libm.a(lib_a-e_atan2.o)
 .ARM.attributes
                0x00000ad0       0x30 /opt/gcc-arm-none-eabi-4_8-2013q4/bin/../lib/gcc/arm-none-eabi/4.8.3/../../../../arm-none-eabi/lib/thumb/libm.a(lib_a-e_cosh.o)
 .ARM.attributes
                0x00000b00       0x30 /opt/gcc-arm-none-eabi-4_8-2013q4/bin/../lib/gcc/arm-none-eabi/4.8.3/../../../../arm-none-eabi/lib/thumb/libm.a(lib_a-e_exp.o)
 .ARM.attributes
                0x00000b30       0x30 /opt/gcc-arm-none-eabi-4_8-2013q4/bin/../lib/gcc/arm-none-eabi/4.8.3/../../../../arm-none-eabi/lib/thumb/libm.a(lib_a-e_log.o)
 .ARM.attributes
                0x00000b60       0x30 /opt/gcc-arm-none-eabi-4_8-2013q4/bin/../lib/gcc/arm-none-eabi/4.8.3/../../../../arm-none-eabi/lib/thumb/libm.a(lib_a-e_rem_pio2.o)
 .ARM.attributes
                0x00000b90       0x30 /opt/gcc-arm-none-eabi-4_8-2013q4/bin/../lib/gcc/arm-none-eabi/4.8.3/../../../../arm-none-eabi/lib/thumb/libm.a(lib_a-e_sinh.o)
 .ARM.attributes
                0x00000bc0       0x30 /opt/gcc-arm-none-eabi-4_8-2013q4/bin/../lib/gcc/arm-none-eabi/4.8.3/../../../../arm-none-eabi/lib/thumb/libm.a(lib_a-e_sqrt.o)
 .ARM.attributes
                0x00000bf0       0x30 /opt/gcc-arm-none-eabi-4_8-2013q4/bin/../lib/gcc/arm-none-eabi/4.8.3/../../../../arm-none-eabi/lib/thumb/libm.a(lib_a-ef_atan2.o)
 .ARM.attributes
                0x00000c20       0x30 /opt/gcc-arm-none-eabi-4_8-2013q4/bin/../lib/gcc/arm-none-eabi/4.8.3/../../../../arm-none-eabi/lib/thumb/libm.a(lib_a-ef_rem_pio2.o)
 .ARM.attributes
                0x00000c50       0x30 /opt/gcc-arm-none-eabi-4_8-2013q4/bin/../lib/gcc/arm-none-eabi/4.8.3/../../../../arm-none-eabi/lib/thumb/libm.a(lib_a-k_cos.o)
 .ARM.attributes
                0x00000c80       0x30 /opt/gcc-arm-none-eabi-4_8-2013q4/bin/../lib/gcc/arm-none-eabi/4.8.3/../../../../arm-none-eabi/lib/thumb/libm.a(lib_a-k_rem_pio2.o)
 .ARM.attributes
                0x00000cb0       0x30 /opt/gcc-arm-none-eabi-4_8-2013q4/bin/../lib/gcc/arm-none-eabi/4.8.3/../../../../arm-none-eabi/lib/thumb/libm.a(lib_a-k_sin.o)
 .ARM.attributes
                0x00000ce0       0x30 /opt/gcc-arm-none-eabi-4_8-2013q4/bin/../lib/gcc/arm-none-eabi/4.8.3/../../../../arm-none-eabi/lib/thumb/libm.a(lib_a-k_tan.o)
 .ARM.attributes
                0x00000d10       0x30 /opt/gcc-arm-none-eabi-4_8-2013q4/bin/../lib/gcc/arm-none-eabi/4.8.3/../../../../arm-none-eabi/lib/thumb/libm.a(lib_a-kf_cos.o)
 .ARM.attributes
                0x00000d40       0x30 /opt/gcc-arm-none-eabi-4_8-2013q4/bin/../lib/gcc/arm-none-eabi/4.8.3/../../../../arm-none-eabi/lib/thumb/libm.a(lib_a-kf_rem_pio2.o)
 .ARM.attributes
                0x00000d70       0x30 /opt/gcc-arm-none-eabi-4_8-2013q4/bin/../lib/gcc/arm-none-eabi/4.8.3/../../../../arm-none-eabi/lib/thumb/libm.a(lib_a-kf_sin.o)
 .ARM.attributes
                0x00000da0       0x30 /opt/gcc-arm-none-eabi-4_8-2013q4/bin/../lib/gcc/arm-none-eabi/4.8.3/../../../../arm-none-eabi/lib/thumb/libm.a(lib_a-s_expm1.o)
 .ARM.attributes
                0x00000dd0       0x30 /opt/gcc-arm-none-eabi-4_8-2013q4/bin/../lib/gcc/arm-none-eabi/4.8.3/../../../../arm-none-eabi/lib/thumb/libm.a(lib_a-s_finite.o)
 .ARM.attributes
                0x00000e00       0x30 /opt/gcc-arm-none-eabi-4_8-2013q4/bin/../lib/gcc/arm-none-eabi/4.8.3/../../../../arm-none-eabi/lib/thumb/libm.a(lib_a-s_floor.o)
 .ARM.attributes
                0x00000e30       0x30 /opt/gcc-arm-none-eabi-4_8-2013q4/bin/../lib/gcc/arm-none-eabi/4.8.3/../../../../arm-none-eabi/lib/thumb/libm.a(lib_a-s_fpclassify.o)
 .ARM.attributes
                0x00000e60       0x30 /opt/gcc-arm-none-eabi-4_8-2013q4/bin/../lib/gcc/arm-none-eabi/4.8.3/../../../../arm-none-eabi/lib/thumb/libm.a(lib_a-s_lib_ver.o)
 .ARM.attributes
                0x00000e90       0x30 /opt/gcc-arm-none-eabi-4_8-2013q4/bin/../lib/gcc/arm-none-eabi/4.8.3/../../../../arm-none-eabi/lib/thumb/libm.a(lib_a-s_matherr.o)
 .ARM.attributes
                0x00000ec0       0x30 /opt/gcc-arm-none-eabi-4_8-2013q4/bin/../lib/gcc/arm-none-eabi/4.8.3/../../../../arm-none-eabi/lib/thumb/libm.a(lib_a-s_nan.o)
 .ARM.attributes
                0x00000ef0       0x30 /opt/gcc-arm-none-eabi-4_8-2013q4/bin/../lib/gcc/arm-none-eabi/4.8.3/../../../../arm-none-eabi/lib/thumb/libm.a(lib_a-s_scalbn.o)
 .ARM.attributes
                0x00000f20       0x30 /opt/gcc-arm-none-eabi-4_8-2013q4/bin/../lib/gcc/arm-none-eabi/4.8.3/../../../../arm-none-eabi/lib/thumb/libm.a(lib_a-sf_floor.o)
 .ARM.attributes
                0x00000f50       0x30 /opt/gcc-arm-none-eabi-4_8-2013q4/bin/../lib/gcc/arm-none-eabi/4.8.3/../../../../arm-none-eabi/lib/thumb/libm.a(lib_a-sf_scalbn.o)
 .ARM.attributes
                0x00000f80       0x30 /opt/gcc-arm-none-eabi-4_8-2013q4/bin/../lib/gcc/arm-none-eabi/4.8.3/../../../../arm-none-eabi/lib/thumb/libm.a(lib_a-s_copysign.o)
 .ARM.attributes
                0x00000fb0       0x30 /opt/gcc-arm-none-eabi-4_8-2013q4/bin/../lib/gcc/arm-none-eabi/4.8.3/../../../../arm-none-eabi/lib/thumb/libm.a(lib_a-sf_copysign.o)
 .ARM.attributes
                0x00000fe0       0x30 /opt/gcc-arm-none-eabi-4_8-2013q4/bin/../lib/gcc/arm-none-eabi/4.8.3/../../../../arm-none-eabi/lib/thumb/libc.a(lib_a-errno.o)
 .ARM.attributes
                0x00001010       0x30 /opt/gcc-arm-none-eabi-4_8-2013q4/bin/../lib/gcc/arm-none-eabi/4.8.3/../../../../arm-none-eabi/lib/thumb/libc.a(lib_a-impure.o)
 .ARM.attributes
                0x00001040       0x18 /opt/gcc-arm-none-eabi-4_8-2013q4/bin/../lib/gcc/arm-none-eabi/4.8.3/thumb/libgcc.a(_udivsi3.o)
 .ARM.attributes
                0x00001058       0x18 /opt/gcc-arm-none-eabi-4_8-2013q4/bin/../lib/gcc/arm-none-eabi/4.8.3/thumb/libgcc.a(_divsi3.o)
 .ARM.attributes
                0x00001070       0x16 /opt/gcc-arm-none-eabi-4_8-2013q4/bin/../lib/gcc/arm-none-eabi/4.8.3/thumb/libgcc.a(_dvmd_tls.o)
 .ARM.attributes
                0x00001086       0x18 /opt/gcc-arm-none-eabi-4_8-2013q4/bin/../lib/gcc/arm-none-eabi/4.8.3/thumb/libgcc.a(_arm_addsubdf3.o)
 .ARM.attributes
                0x0000109e       0x18 /opt/gcc-arm-none-eabi-4_8-2013q4/bin/../lib/gcc/arm-none-eabi/4.8.3/thumb/libgcc.a(_arm_muldivdf3.o)
 .ARM.attributes
                0x000010b6       0x18 /opt/gcc-arm-none-eabi-4_8-2013q4/bin/../lib/gcc/arm-none-eabi/4.8.3/thumb/libgcc.a(_arm_cmpdf2.o)
 .ARM.attributes
                0x000010ce       0x18 /opt/gcc-arm-none-eabi-4_8-2013q4/bin/../lib/gcc/arm-none-eabi/4.8.3/thumb/libgcc.a(_arm_fixdfsi.o)
 .ARM.attributes
                0x000010e6       0x18 /opt/gcc-arm-none-eabi-4_8-2013q4/bin/../lib/gcc/arm-none-eabi/4.8.3/thumb/libgcc.a(_arm_fixunsdfsi.o)
 .ARM.attributes
                0x000010fe       0x18 /opt/gcc-arm-none-eabi-4_8-2013q4/bin/../lib/gcc/arm-none-eabi/4.8.3/thumb/libgcc.a(_arm_truncdfsf2.o)
 .ARM.attributes
                0x00001116       0x18 /opt/gcc-arm-none-eabi-4_8-2013q4/bin/../lib/gcc/arm-none-eabi/4.8.3/thumb/libgcc.a(_arm_addsubsf3.o)
 .ARM.attributes
                0x0000112e       0x18 /opt/gcc-arm-none-eabi-4_8-2013q4/bin/../lib/gcc/arm-none-eabi/4.8.3/thumb/libgcc.a(_arm_muldivsf3.o)
 .ARM.attributes
                0x00001146       0x18 /opt/gcc-arm-none-eabi-4_8-2013q4/bin/../lib/gcc/arm-none-eabi/4.8.3/thumb/libgcc.a(_arm_cmpsf2.o)
 .ARM.attributes
                0x0000115e       0x18 /opt/gcc-arm-none-eabi-4_8-2013q4/bin/../lib/gcc/arm-none-eabi/4.8.3/thumb/libgcc.a(_arm_fixsfsi.o)
 .ARM.attributes
                0x00001176       0x18 /opt/gcc-arm-none-eabi-4_8-2013q4/bin/../lib/gcc/arm-none-eabi/4.8.3/thumb/libgcc.a(_arm_fixunssfsi.o)

.debug
 *(.debug)

.line
 *(.line)

.debug_srcinfo
 *(.debug_srcinfo)

.debug_sfnames
 *(.debug_sfnames)

.debug_aranges
 *(.debug_aranges)

.debug_pubnames
 *(.debug_pubnames)

.debug_info
 *(.debug_info .gnu.linkonce.wi.*)

.debug_abbrev
 *(.debug_abbrev)

.debug_line
 *(.debug_line)

.debug_frame    0x00000000      0x91c
 *(.debug_frame)
 .debug_frame   0x00000000       0x3c /opt/gcc-arm-none-eabi-4_8-2013q4/bin/../lib/gcc/arm-none-eabi/4.8.3/../../../../arm-none-eabi/lib/thumb/libm.a(lib_a-s_atan.o)
 .debug_frame   0x0000003c       0x2c /opt/gcc-arm-none-eabi-4_8-2013q4/bin/../lib/gcc/arm-none-eabi/4.8.3/../../../../arm-none-eabi/lib/thumb/libm.a(lib_a-s_cos.o)
 .debug_frame   0x00000068       0x20 /opt/gcc-arm-none-eabi-4_8-2013q4/bin/../lib/gcc/arm-none-eabi/4.8.3/../../../../arm-none-eabi/lib/thumb/libm.a(lib_a-s_fabs.o)
 .debug_frame   0x00000088       0x2c /opt/gcc-arm-none-eabi-4_8-2013q4/bin/../lib/gcc/arm-none-eabi/4.8.3/../../../../arm-none-eabi/lib/thumb/libm.a(lib_a-s_sin.o)
 .debug_frame   0x000000b4       0x28 /opt/gcc-arm-none-eabi-4_8-2013q4/bin/../lib/gcc/arm-none-eabi/4.8.3/../../../../arm-none-eabi/lib/thumb/libm.a(lib_a-s_tan.o)
 .debug_frame   0x000000dc       0x34 /opt/gcc-arm-none-eabi-4_8-2013q4/bin/../lib/gcc/arm-none-eabi/4.8.3/../../../../arm-none-eabi/lib/thumb/libm.a(lib_a-sf_atan.o)
 .debug_frame   0x00000110       0x28 /opt/gcc-arm-none-eabi-4_8-2013q4/bin/../lib/gcc/arm-none-eabi/4.8.3/../../../../arm-none-eabi/lib/thumb/libm.a(lib_a-sf_cos.o)
 .debug_frame   0x00000138       0x20 /opt/gcc-arm-none-eabi-4_8-2013q4/bin/../lib/gcc/arm-none-eabi/4.8.3/../../../../arm-none-eabi/lib/thumb/libm.a(lib_a-sf_fabs.o)
 .debug_frame   0x00000158       0x28 /opt/gcc-arm-none-eabi-4_8-2013q4/bin/../lib/gcc/arm-none-eabi/4.8.3/../../../../arm-none-eabi/lib/thumb/libm.a(lib_a-sf_sin.o)
 .debug_frame   0x00000180       0x38 /opt/gcc-arm-none-eabi-4_8-2013q4/bin/../lib/gcc/arm-none-eabi/4.8.3/../../../../arm-none-eabi/lib/thumb/libm.a(lib_a-w_asin.o)
 .debug_frame   0x000001b8       0x28 /opt/gcc-arm-none-eabi-4_8-2013q4/bin/../lib/gcc/arm-none-eabi/4.8.3/../../../../arm-none-eabi/lib/thumb/libm.a(lib_a-w_atan2.o)
 .debug_frame   0x000001e0       0x38 /opt/gcc-arm-none-eabi-4_8-2013q4/bin/../lib/gcc/arm-none-eabi/4.8.3/../../../../arm-none-eabi/lib/thumb/libm.a(lib_a-w_cosh.o)
 .debug_frame   0x00000218       0x38 /opt/gcc-arm-none-eabi-4_8-2013q4/bin/../lib/gcc/arm-none-eabi/4.8.3/../../../../arm-none-eabi/lib/thumb/libm.a(lib_a-w_exp.o)
 .debug_frame   0x00000250       0x38 /opt/gcc-arm-none-eabi-4_8-2013q4/bin/../lib/gcc/arm-none-eabi/4.8.3/../../../../arm-none-eabi/lib/thumb/libm.a(lib_a-w_log.o)
 .debug_frame   0x00000288       0x38 /opt/gcc-arm-none-eabi-4_8-2013q4/bin/../lib/gcc/arm-none-eabi/4.8.3/../../../../arm-none-eabi/lib/thumb/libm.a(lib_a-w_sinh.o)
 .debug_frame   0x000002c0       0x38 /opt/gcc-arm-none-eabi-4_8-2013q4/bin/../lib/gcc/arm-none-eabi/4.8.3/../../../../arm-none-eabi/lib/thumb/libm.a(lib_a-w_sqrt.o)
 .debug_frame   0x000002f8       0x28 /opt/gcc-arm-none-eabi-4_8-2013q4/bin/../lib/gcc/arm-none-eabi/4.8.3/../../../../arm-none-eabi/lib/thumb/libm.a(lib_a-wf_atan2.o)
 .debug_frame   0x00000320       0x38 /opt/gcc-arm-none-eabi-4_8-2013q4/bin/../lib/gcc/arm-none-eabi/4.8.3/../../../../arm-none-eabi/lib/thumb/libm.a(lib_a-e_asin.o)
 .debug_frame   0x00000358       0x3c /opt/gcc-arm-none-eabi-4_8-2013q4/bin/../lib/gcc/arm-none-eabi/4.8.3/../../../../arm-none-eabi/lib/thumb/libm.a(lib_a-e_atan2.o)
 .debug_frame   0x00000394       0x30 /opt/gcc-arm-none-eabi-4_8-2013q4/bin/../lib/gcc/arm-none-eabi/4.8.3/../../../../arm-none-eabi/lib/thumb/libm.a(lib_a-e_cosh.o)
 .debug_frame   0x000003c4       0x38 /opt/gcc-arm-none-eabi-4_8-2013q4/bin/../lib/gcc/arm-none-eabi/4.8.3/../../../../arm-none-eabi/lib/thumb/libm.a(lib_a-e_exp.o)
 .debug_frame   0x000003fc       0x3c /opt/gcc-arm-none-eabi-4_8-2013q4/bin/../lib/gcc/arm-none-eabi/4.8.3/../../../../arm-none-eabi/lib/thumb/libm.a(lib_a-e_log.o)
 .debug_frame   0x00000438       0x3c /opt/gcc-arm-none-eabi-4_8-2013q4/bin/../lib/gcc/arm-none-eabi/4.8.3/../../../../arm-none-eabi/lib/thumb/libm.a(lib_a-e_rem_pio2.o)
 .debug_frame   0x00000474       0x38 /opt/gcc-arm-none-eabi-4_8-2013q4/bin/../lib/gcc/arm-none-eabi/4.8.3/../../../../arm-none-eabi/lib/thumb/libm.a(lib_a-e_sinh.o)
 .debug_frame   0x000004ac       0x3c /opt/gcc-arm-none-eabi-4_8-2013q4/bin/../lib/gcc/arm-none-eabi/4.8.3/../../../../arm-none-eabi/lib/thumb/libm.a(lib_a-e_sqrt.o)
 .debug_frame   0x000004e8       0x30 /opt/gcc-arm-none-eabi-4_8-2013q4/bin/../lib/gcc/arm-none-eabi/4.8.3/../../../../arm-none-eabi/lib/thumb/libm.a(lib_a-ef_atan2.o)
 .debug_frame   0x00000518       0x3c /opt/gcc-arm-none-eabi-4_8-2013q4/bin/../lib/gcc/arm-none-eabi/4.8.3/../../../../arm-none-eabi/lib/thumb/libm.a(lib_a-ef_rem_pio2.o)
 .debug_frame   0x00000554       0x38 /opt/gcc-arm-none-eabi-4_8-2013q4/bin/../lib/gcc/arm-none-eabi/4.8.3/../../../../arm-none-eabi/lib/thumb/libm.a(lib_a-k_cos.o)
 .debug_frame   0x0000058c       0x3c /opt/gcc-arm-none-eabi-4_8-2013q4/bin/../lib/gcc/arm-none-eabi/4.8.3/../../../../arm-none-eabi/lib/thumb/libm.a(lib_a-k_rem_pio2.o)
 .debug_frame   0x000005c8       0x30 /opt/gcc-arm-none-eabi-4_8-2013q4/bin/../lib/gcc/arm-none-eabi/4.8.3/../../../../arm-none-eabi/lib/thumb/libm.a(lib_a-k_sin.o)
 .debug_frame   0x000005f8       0x3c /opt/gcc-arm-none-eabi-4_8-2013q4/bin/../lib/gcc/arm-none-eabi/4.8.3/../../../../arm-none-eabi/lib/thumb/libm.a(lib_a-k_tan.o)
 .debug_frame   0x00000634       0x38 /opt/gcc-arm-none-eabi-4_8-2013q4/bin/../lib/gcc/arm-none-eabi/4.8.3/../../../../arm-none-eabi/lib/thumb/libm.a(lib_a-kf_cos.o)
 .debug_frame   0x0000066c       0x3c /opt/gcc-arm-none-eabi-4_8-2013q4/bin/../lib/gcc/arm-none-eabi/4.8.3/../../../../arm-none-eabi/lib/thumb/libm.a(lib_a-kf_rem_pio2.o)
 .debug_frame   0x000006a8       0x38 /opt/gcc-arm-none-eabi-4_8-2013q4/bin/../lib/gcc/arm-none-eabi/4.8.3/../../../../arm-none-eabi/lib/thumb/libm.a(lib_a-kf_sin.o)
 .debug_frame   0x000006e0       0x38 /opt/gcc-arm-none-eabi-4_8-2013q4/bin/../lib/gcc/arm-none-eabi/4.8.3/../../../../arm-none-eabi/lib/thumb/libm.a(lib_a-s_expm1.o)
 .debug_frame   0x00000718       0x20 /opt/gcc-arm-none-eabi-4_8-2013q4/bin/../lib/gcc/arm-none-eabi/4.8.3/../../../../arm-none-eabi/lib/thumb/libm.a(lib_a-s_finite.o)
 .debug_frame   0x00000738       0x3c /opt/gcc-arm-none-eabi-4_8-2013q4/bin/../lib/gcc/arm-none-eabi/4.8.3/../../../../arm-none-eabi/lib/thumb/libm.a(lib_a-s_floor.o)
 .debug_frame   0x00000774       0x2c /opt/gcc-arm-none-eabi-4_8-2013q4/bin/../lib/gcc/arm-none-eabi/4.8.3/../../../../arm-none-eabi/lib/thumb/libm.a(lib_a-s_fpclassify.o)
 .debug_frame   0x000007a0       0x20 /opt/gcc-arm-none-eabi-4_8-2013q4/bin/../lib/gcc/arm-none-eabi/4.8.3/../../../../arm-none-eabi/lib/thumb/libm.a(lib_a-s_matherr.o)
 .debug_frame   0x000007c0       0x20 /opt/gcc-arm-none-eabi-4_8-2013q4/bin/../lib/gcc/arm-none-eabi/4.8.3/../../../../arm-none-eabi/lib/thumb/libm.a(lib_a-s_nan.o)
 .debug_frame   0x000007e0       0x30 /opt/gcc-arm-none-eabi-4_8-2013q4/bin/../lib/gcc/arm-none-eabi/4.8.3/../../../../arm-none-eabi/lib/thumb/libm.a(lib_a-s_scalbn.o)
 .debug_frame   0x00000810       0x34 /opt/gcc-arm-none-eabi-4_8-2013q4/bin/../lib/gcc/arm-none-eabi/4.8.3/../../../../arm-none-eabi/lib/thumb/libm.a(lib_a-sf_floor.o)
 .debug_frame   0x00000844       0x2c /opt/gcc-arm-none-eabi-4_8-2013q4/bin/../lib/gcc/arm-none-eabi/4.8.3/../../../../arm-none-eabi/lib/thumb/libm.a(lib_a-sf_scalbn.o)
 .debug_frame   0x00000870       0x2c /opt/gcc-arm-none-eabi-4_8-2013q4/bin/../lib/gcc/arm-none-eabi/4.8.3/../../../../arm-none-eabi/lib/thumb/libm.a(lib_a-s_copysign.o)
 .debug_frame   0x0000089c       0x20 /opt/gcc-arm-none-eabi-4_8-2013q4/bin/../lib/gcc/arm-none-eabi/4.8.3/../../../../arm-none-eabi/lib/thumb/libm.a(lib_a-sf_copysign.o)
 .debug_frame   0x000008bc       0x20 /opt/gcc-arm-none-eabi-4_8-2013q4/bin/../lib/gcc/arm-none-eabi/4.8.3/../../../../arm-none-eabi/lib/thumb/libc.a(lib_a-errno.o)
 .debug_frame   0x000008dc       0x20 /opt/gcc-arm-none-eabi-4_8-2013q4/bin/../lib/gcc/arm-none-eabi/4.8.3/thumb/libgcc.a(_udivsi3.o)
 .debug_frame   0x000008fc       0x20 /opt/gcc-arm-none-eabi-4_8-2013q4/bin/../lib/gcc/arm-none-eabi/4.8.3/thumb/libgcc.a(_divsi3.o)

.debug_str
 *(.debug_str)

.debug_loc
 *(.debug_loc)

.debug_macinfo
 *(.debug_macinfo)

.debug_weaknames
 *(.debug_weaknames)

.debug_funcnames
 *(.debug_funcnames)

.debug_typenames
 *(.debug_typenames)

.debug_varnames
 *(.debug_varnames)
OUTPUT(/home/colibri/paparazziProto1/var/Colibri/ap/ap.elf elf32-littlearm)

Cross Reference Table

Symbol                                            File
BungeeTakeoff                                     /home/colibri/paparazziProto1/var/Colibri/ap/subsystems/navigation/OSAMNav.o
DistanceEquation                                  /home/colibri/paparazziProto1/var/Colibri/ap/subsystems/navigation/OSAMNav.o
EvaluateLineForX                                  /home/colibri/paparazziProto1/var/Colibri/ap/subsystems/navigation/OSAMNav.o
EvaluateLineForY                                  /home/colibri/paparazziProto1/var/Colibri/ap/subsystems/navigation/OSAMNav.o
FindInterceptOfTwoLines                           /home/colibri/paparazziProto1/var/Colibri/ap/subsystems/navigation/OSAMNav.o
FlightLine                                        /home/colibri/paparazziProto1/var/Colibri/ap/subsystems/navigation/OSAMNav.o
FlightLineBlock                                   /home/colibri/paparazziProto1/var/Colibri/ap/subsystems/navigation/OSAMNav.o
FlowerNav                                         /home/colibri/paparazziProto1/var/Colibri/ap/subsystems/navigation/OSAMNav.o
InitializeBungeeTakeoff                           /home/colibri/paparazziProto1/var/Colibri/ap/subsystems/navigation/OSAMNav.o
InitializeFlower                                  /home/colibri/paparazziProto1/var/Colibri/ap/subsystems/navigation/OSAMNav.o
InitializePolygonSurvey                           /home/colibri/paparazziProto1/var/Colibri/ap/subsystems/navigation/OSAMNav.o
InitializeSkidLanding                             /home/colibri/paparazziProto1/var/Colibri/ap/subsystems/navigation/OSAMNav.o
InitializeSpiral                                  /home/colibri/paparazziProto1/var/Colibri/ap/subsystems/navigation/spiral.o
InitializeVerticalRaster                          /home/colibri/paparazziProto1/var/Colibri/ap/subsystems/navigation/OSAMNav.o
PolySurveySweepBackNum                            /home/colibri/paparazziProto1/var/Colibri/ap/subsystems/navigation/OSAMNav.o
PolySurveySweepNum                                /home/colibri/paparazziProto1/var/Colibri/ap/subsystems/navigation/OSAMNav.o
PolygonSurvey                                     /home/colibri/paparazziProto1/var/Colibri/ap/subsystems/navigation/OSAMNav.o
RotateAndTranslateToWorld                         /home/colibri/paparazziProto1/var/Colibri/ap/subsystems/navigation/OSAMNav.o
SkidLanding                                       /home/colibri/paparazziProto1/var/Colibri/ap/subsystems/navigation/OSAMNav.o
SpiralNav                                         /home/colibri/paparazziProto1/var/Colibri/ap/subsystems/navigation/spiral.o
TIMER0_ISR                                        /home/colibri/paparazziProto1/var/Colibri/ap/arch/lpc21/mcu_periph/sys_time_arch.o
TranslateAndRotateFromWorld                       /home/colibri/paparazziProto1/var/Colibri/ap/subsystems/navigation/OSAMNav.o
VerticalRaster                                    /home/colibri/paparazziProto1/var/Colibri/ap/subsystems/navigation/OSAMNav.o
__adddf3                                          /opt/gcc-arm-none-eabi-4_8-2013q4/bin/../lib/gcc/arm-none-eabi/4.8.3/thumb/libgcc.a(_arm_addsubdf3.o)
__addsf3                                          /opt/gcc-arm-none-eabi-4_8-2013q4/bin/../lib/gcc/arm-none-eabi/4.8.3/thumb/libgcc.a(_arm_addsubsf3.o)
__aeabi_cdcmpeq                                   /opt/gcc-arm-none-eabi-4_8-2013q4/bin/../lib/gcc/arm-none-eabi/4.8.3/thumb/libgcc.a(_arm_cmpdf2.o)
__aeabi_cdcmple                                   /opt/gcc-arm-none-eabi-4_8-2013q4/bin/../lib/gcc/arm-none-eabi/4.8.3/thumb/libgcc.a(_arm_cmpdf2.o)
__aeabi_cdrcmple                                  /opt/gcc-arm-none-eabi-4_8-2013q4/bin/../lib/gcc/arm-none-eabi/4.8.3/thumb/libgcc.a(_arm_cmpdf2.o)
__aeabi_cfcmpeq                                   /opt/gcc-arm-none-eabi-4_8-2013q4/bin/../lib/gcc/arm-none-eabi/4.8.3/thumb/libgcc.a(_arm_cmpsf2.o)
__aeabi_cfcmple                                   /opt/gcc-arm-none-eabi-4_8-2013q4/bin/../lib/gcc/arm-none-eabi/4.8.3/thumb/libgcc.a(_arm_cmpsf2.o)
__aeabi_cfrcmple                                  /opt/gcc-arm-none-eabi-4_8-2013q4/bin/../lib/gcc/arm-none-eabi/4.8.3/thumb/libgcc.a(_arm_cmpsf2.o)
__aeabi_d2f                                       /opt/gcc-arm-none-eabi-4_8-2013q4/bin/../lib/gcc/arm-none-eabi/4.8.3/thumb/libgcc.a(_arm_truncdfsf2.o)
                                                  /opt/gcc-arm-none-eabi-4_8-2013q4/bin/../lib/gcc/arm-none-eabi/4.8.3/../../../../arm-none-eabi/lib/thumb/libm.a(lib_a-wf_sqrt.o)
                                                  /opt/gcc-arm-none-eabi-4_8-2013q4/bin/../lib/gcc/arm-none-eabi/4.8.3/../../../../arm-none-eabi/lib/thumb/libm.a(lib_a-wf_pow.o)
                                                  /home/colibri/paparazziProto1/var/Colibri/ap/subsystems/ahrs/ahrs_infrared.o
                                                  /home/colibri/paparazziProto1/var/Colibri/ap/firmwares/fixedwing/datalink.o
                                                  /home/colibri/paparazziProto1/var/Colibri/ap/subsystems/navigation/border_line.o
                                                  /home/colibri/paparazziProto1/var/Colibri/ap/subsystems/navigation/gls.o
                                                  /home/colibri/paparazziProto1/var/Colibri/ap/subsystems/navigation/poly_survey_adv.o
                                                  /home/colibri/paparazziProto1/var/Colibri/ap/subsystems/navigation/spiral.o
                                                  /home/colibri/paparazziProto1/var/Colibri/ap/subsystems/navigation/snav.o
                                                  /home/colibri/paparazziProto1/var/Colibri/ap/subsystems/navigation/OSAMNav.o
                                                  /home/colibri/paparazziProto1/var/Colibri/ap/subsystems/navigation/discsurvey.o
                                                  /home/colibri/paparazziProto1/var/Colibri/ap/subsystems/navigation/nav_cube.o
                                                  /home/colibri/paparazziProto1/var/Colibri/ap/subsystems/navigation/nav_line.o
                                                  /home/colibri/paparazziProto1/var/Colibri/ap/subsystems/navigation/nav_survey_rectangle.o
                                                  /home/colibri/paparazziProto1/var/Colibri/ap/subsystems/nav.o
                                                  /home/colibri/paparazziProto1/var/Colibri/ap/firmwares/fixedwing/guidance/guidance_v.o
                                                  /home/colibri/paparazziProto1/var/Colibri/ap/firmwares/fixedwing/stabilization/stabilization_attitude.o
                                                  /home/colibri/paparazziProto1/var/Colibri/ap/./estimator.o
                                                  /home/colibri/paparazziProto1/var/Colibri/ap/firmwares/fixedwing/main_ap.o
                                                  /home/colibri/paparazziProto1/var/Colibri/ap/subsystems/electrical.o
                                                  /home/colibri/paparazziProto1/var/Colibri/ap/firmwares/fixedwing/main_fbw.o
                                                  /home/colibri/paparazziProto1/var/Colibri/ap/math/pprz_geodetic_double.o
                                                  /home/colibri/paparazziProto1/var/Colibri/ap/math/pprz_geodetic_float.o
__aeabi_d2iz                                      /opt/gcc-arm-none-eabi-4_8-2013q4/bin/../lib/gcc/arm-none-eabi/4.8.3/thumb/libgcc.a(_arm_fixdfsi.o)
                                                  /opt/gcc-arm-none-eabi-4_8-2013q4/bin/../lib/gcc/arm-none-eabi/4.8.3/../../../../arm-none-eabi/lib/thumb/libm.a(lib_a-s_expm1.o)
                                                  /opt/gcc-arm-none-eabi-4_8-2013q4/bin/../lib/gcc/arm-none-eabi/4.8.3/../../../../arm-none-eabi/lib/thumb/libm.a(lib_a-k_tan.o)
                                                  /opt/gcc-arm-none-eabi-4_8-2013q4/bin/../lib/gcc/arm-none-eabi/4.8.3/../../../../arm-none-eabi/lib/thumb/libm.a(lib_a-k_sin.o)
                                                  /opt/gcc-arm-none-eabi-4_8-2013q4/bin/../lib/gcc/arm-none-eabi/4.8.3/../../../../arm-none-eabi/lib/thumb/libm.a(lib_a-k_rem_pio2.o)
                                                  /opt/gcc-arm-none-eabi-4_8-2013q4/bin/../lib/gcc/arm-none-eabi/4.8.3/../../../../arm-none-eabi/lib/thumb/libm.a(lib_a-k_cos.o)
                                                  /opt/gcc-arm-none-eabi-4_8-2013q4/bin/../lib/gcc/arm-none-eabi/4.8.3/../../../../arm-none-eabi/lib/thumb/libm.a(lib_a-e_rem_pio2.o)
                                                  /opt/gcc-arm-none-eabi-4_8-2013q4/bin/../lib/gcc/arm-none-eabi/4.8.3/../../../../arm-none-eabi/lib/thumb/libm.a(lib_a-e_exp.o)
                                                  /home/colibri/paparazziProto1/var/Colibri/ap/subsystems/gps/gps_ubx.o
                                                  /home/colibri/paparazziProto1/var/Colibri/ap/firmwares/fixedwing/main_ap.o
                                                  /home/colibri/paparazziProto1/var/Colibri/ap/math/pprz_geodetic_int.o
__aeabi_d2uiz                                     /opt/gcc-arm-none-eabi-4_8-2013q4/bin/../lib/gcc/arm-none-eabi/4.8.3/thumb/libgcc.a(_arm_fixunsdfsi.o)
                                                  /home/colibri/paparazziProto1/var/Colibri/ap/subsystems/gps/gps_ubx.o
                                                  /home/colibri/paparazziProto1/var/Colibri/ap/firmwares/fixedwing/datalink.o
                                                  /home/colibri/paparazziProto1/var/Colibri/ap/subsystems/navigation/snav.o
                                                  /home/colibri/paparazziProto1/var/Colibri/ap/subsystems/nav.o
                                                  /home/colibri/paparazziProto1/var/Colibri/ap/firmwares/fixedwing/main_ap.o
                                                  /home/colibri/paparazziProto1/var/Colibri/ap/firmwares/fixedwing/main_fbw.o
                                                  /home/colibri/paparazziProto1/var/Colibri/ap/mcu_periph/sys_time.o
__aeabi_dadd                                      /opt/gcc-arm-none-eabi-4_8-2013q4/bin/../lib/gcc/arm-none-eabi/4.8.3/thumb/libgcc.a(_arm_addsubdf3.o)
                                                  /opt/gcc-arm-none-eabi-4_8-2013q4/bin/../lib/gcc/arm-none-eabi/4.8.3/../../../../arm-none-eabi/lib/thumb/libm.a(lib_a-s_scalbn.o)
                                                  /opt/gcc-arm-none-eabi-4_8-2013q4/bin/../lib/gcc/arm-none-eabi/4.8.3/../../../../arm-none-eabi/lib/thumb/libm.a(lib_a-s_floor.o)
                                                  /opt/gcc-arm-none-eabi-4_8-2013q4/bin/../lib/gcc/arm-none-eabi/4.8.3/../../../../arm-none-eabi/lib/thumb/libm.a(lib_a-s_expm1.o)
                                                  /opt/gcc-arm-none-eabi-4_8-2013q4/bin/../lib/gcc/arm-none-eabi/4.8.3/../../../../arm-none-eabi/lib/thumb/libm.a(lib_a-k_tan.o)
                                                  /opt/gcc-arm-none-eabi-4_8-2013q4/bin/../lib/gcc/arm-none-eabi/4.8.3/../../../../arm-none-eabi/lib/thumb/libm.a(lib_a-k_sin.o)
                                                  /opt/gcc-arm-none-eabi-4_8-2013q4/bin/../lib/gcc/arm-none-eabi/4.8.3/../../../../arm-none-eabi/lib/thumb/libm.a(lib_a-k_rem_pio2.o)
                                                  /opt/gcc-arm-none-eabi-4_8-2013q4/bin/../lib/gcc/arm-none-eabi/4.8.3/../../../../arm-none-eabi/lib/thumb/libm.a(lib_a-k_cos.o)
                                                  /opt/gcc-arm-none-eabi-4_8-2013q4/bin/../lib/gcc/arm-none-eabi/4.8.3/../../../../arm-none-eabi/lib/thumb/libm.a(lib_a-e_sqrt.o)
                                                  /opt/gcc-arm-none-eabi-4_8-2013q4/bin/../lib/gcc/arm-none-eabi/4.8.3/../../../../arm-none-eabi/lib/thumb/libm.a(lib_a-e_sinh.o)
                                                  /opt/gcc-arm-none-eabi-4_8-2013q4/bin/../lib/gcc/arm-none-eabi/4.8.3/../../../../arm-none-eabi/lib/thumb/libm.a(lib_a-e_rem_pio2.o)
                                                  /opt/gcc-arm-none-eabi-4_8-2013q4/bin/../lib/gcc/arm-none-eabi/4.8.3/../../../../arm-none-eabi/lib/thumb/libm.a(lib_a-e_pow.o)
                                                  /opt/gcc-arm-none-eabi-4_8-2013q4/bin/../lib/gcc/arm-none-eabi/4.8.3/../../../../arm-none-eabi/lib/thumb/libm.a(lib_a-e_log.o)
                                                  /opt/gcc-arm-none-eabi-4_8-2013q4/bin/../lib/gcc/arm-none-eabi/4.8.3/../../../../arm-none-eabi/lib/thumb/libm.a(lib_a-e_exp.o)
                                                  /opt/gcc-arm-none-eabi-4_8-2013q4/bin/../lib/gcc/arm-none-eabi/4.8.3/../../../../arm-none-eabi/lib/thumb/libm.a(lib_a-e_cosh.o)
                                                  /opt/gcc-arm-none-eabi-4_8-2013q4/bin/../lib/gcc/arm-none-eabi/4.8.3/../../../../arm-none-eabi/lib/thumb/libm.a(lib_a-e_atan2.o)
                                                  /opt/gcc-arm-none-eabi-4_8-2013q4/bin/../lib/gcc/arm-none-eabi/4.8.3/../../../../arm-none-eabi/lib/thumb/libm.a(lib_a-e_asin.o)
                                                  /opt/gcc-arm-none-eabi-4_8-2013q4/bin/../lib/gcc/arm-none-eabi/4.8.3/../../../../arm-none-eabi/lib/thumb/libm.a(lib_a-e_acos.o)
                                                  /opt/gcc-arm-none-eabi-4_8-2013q4/bin/../lib/gcc/arm-none-eabi/4.8.3/../../../../arm-none-eabi/lib/thumb/libm.a(lib_a-s_rint.o)
                                                  /opt/gcc-arm-none-eabi-4_8-2013q4/bin/../lib/gcc/arm-none-eabi/4.8.3/../../../../arm-none-eabi/lib/thumb/libm.a(lib_a-s_atan.o)
                                                  /home/colibri/paparazziProto1/var/Colibri/ap/subsystems/ahrs/ahrs_infrared.o
                                                  /home/colibri/paparazziProto1/var/Colibri/ap/subsystems/navigation/border_line.o
                                                  /home/colibri/paparazziProto1/var/Colibri/ap/subsystems/navigation/poly_survey_adv.o
                                                  /home/colibri/paparazziProto1/var/Colibri/ap/subsystems/navigation/spiral.o
                                                  /home/colibri/paparazziProto1/var/Colibri/ap/subsystems/navigation/snav.o
                                                  /home/colibri/paparazziProto1/var/Colibri/ap/subsystems/navigation/OSAMNav.o
                                                  /home/colibri/paparazziProto1/var/Colibri/ap/subsystems/navigation/discsurvey.o
                                                  /home/colibri/paparazziProto1/var/Colibri/ap/subsystems/navigation/nav_cube.o
                                                  /home/colibri/paparazziProto1/var/Colibri/ap/subsystems/navigation/nav_line.o
                                                  /home/colibri/paparazziProto1/var/Colibri/ap/subsystems/navigation/nav_survey_rectangle.o
                                                  /home/colibri/paparazziProto1/var/Colibri/ap/subsystems/nav.o
                                                  /home/colibri/paparazziProto1/var/Colibri/ap/firmwares/fixedwing/guidance/guidance_v.o
                                                  /home/colibri/paparazziProto1/var/Colibri/ap/firmwares/fixedwing/stabilization/stabilization_attitude.o
                                                  /home/colibri/paparazziProto1/var/Colibri/ap/firmwares/fixedwing/main_ap.o
                                                  /home/colibri/paparazziProto1/var/Colibri/ap/subsystems/electrical.o
                                                  /home/colibri/paparazziProto1/var/Colibri/ap/firmwares/fixedwing/main_fbw.o
                                                  /home/colibri/paparazziProto1/var/Colibri/ap/math/pprz_geodetic_double.o
                                                  /home/colibri/paparazziProto1/var/Colibri/ap/math/pprz_geodetic_float.o
                                                  /home/colibri/paparazziProto1/var/Colibri/ap/mcu_periph/sys_time.o
__aeabi_dcmpeq                                    /opt/gcc-arm-none-eabi-4_8-2013q4/bin/../lib/gcc/arm-none-eabi/4.8.3/thumb/libgcc.a(_arm_cmpdf2.o)
                                                  /opt/gcc-arm-none-eabi-4_8-2013q4/bin/../lib/gcc/arm-none-eabi/4.8.3/../../../../arm-none-eabi/lib/thumb/libm.a(lib_a-k_rem_pio2.o)
                                                  /opt/gcc-arm-none-eabi-4_8-2013q4/bin/../lib/gcc/arm-none-eabi/4.8.3/../../../../arm-none-eabi/lib/thumb/libm.a(lib_a-e_rem_pio2.o)
                                                  /opt/gcc-arm-none-eabi-4_8-2013q4/bin/../lib/gcc/arm-none-eabi/4.8.3/../../../../arm-none-eabi/lib/thumb/libm.a(lib_a-e_log.o)
                                                  /opt/gcc-arm-none-eabi-4_8-2013q4/bin/../lib/gcc/arm-none-eabi/4.8.3/../../../../arm-none-eabi/lib/thumb/libm.a(lib_a-wf_pow.o)
                                                  /opt/gcc-arm-none-eabi-4_8-2013q4/bin/../lib/gcc/arm-none-eabi/4.8.3/../../../../arm-none-eabi/lib/thumb/libm.a(lib_a-w_pow.o)
                                                  /opt/gcc-arm-none-eabi-4_8-2013q4/bin/../lib/gcc/arm-none-eabi/4.8.3/../../../../arm-none-eabi/lib/thumb/libm.a(lib_a-w_log.o)
__aeabi_dcmpge                                    /opt/gcc-arm-none-eabi-4_8-2013q4/bin/../lib/gcc/arm-none-eabi/4.8.3/thumb/libgcc.a(_arm_cmpdf2.o)
                                                  /opt/gcc-arm-none-eabi-4_8-2013q4/bin/../lib/gcc/arm-none-eabi/4.8.3/../../../../arm-none-eabi/lib/thumb/libm.a(lib_a-k_rem_pio2.o)
__aeabi_dcmpgt                                    /opt/gcc-arm-none-eabi-4_8-2013q4/bin/../lib/gcc/arm-none-eabi/4.8.3/thumb/libgcc.a(_arm_cmpdf2.o)
                                                  /opt/gcc-arm-none-eabi-4_8-2013q4/bin/../lib/gcc/arm-none-eabi/4.8.3/../../../../arm-none-eabi/lib/thumb/libm.a(lib_a-s_floor.o)
                                                  /opt/gcc-arm-none-eabi-4_8-2013q4/bin/../lib/gcc/arm-none-eabi/4.8.3/../../../../arm-none-eabi/lib/thumb/libm.a(lib_a-s_expm1.o)
                                                  /opt/gcc-arm-none-eabi-4_8-2013q4/bin/../lib/gcc/arm-none-eabi/4.8.3/../../../../arm-none-eabi/lib/thumb/libm.a(lib_a-e_sinh.o)
                                                  /opt/gcc-arm-none-eabi-4_8-2013q4/bin/../lib/gcc/arm-none-eabi/4.8.3/../../../../arm-none-eabi/lib/thumb/libm.a(lib_a-e_pow.o)
                                                  /opt/gcc-arm-none-eabi-4_8-2013q4/bin/../lib/gcc/arm-none-eabi/4.8.3/../../../../arm-none-eabi/lib/thumb/libm.a(lib_a-e_exp.o)
                                                  /opt/gcc-arm-none-eabi-4_8-2013q4/bin/../lib/gcc/arm-none-eabi/4.8.3/../../../../arm-none-eabi/lib/thumb/libm.a(lib_a-e_asin.o)
                                                  /opt/gcc-arm-none-eabi-4_8-2013q4/bin/../lib/gcc/arm-none-eabi/4.8.3/../../../../arm-none-eabi/lib/thumb/libm.a(lib_a-w_sinh.o)
                                                  /opt/gcc-arm-none-eabi-4_8-2013q4/bin/../lib/gcc/arm-none-eabi/4.8.3/../../../../arm-none-eabi/lib/thumb/libm.a(lib_a-w_log.o)
                                                  /opt/gcc-arm-none-eabi-4_8-2013q4/bin/../lib/gcc/arm-none-eabi/4.8.3/../../../../arm-none-eabi/lib/thumb/libm.a(lib_a-w_exp.o)
                                                  /opt/gcc-arm-none-eabi-4_8-2013q4/bin/../lib/gcc/arm-none-eabi/4.8.3/../../../../arm-none-eabi/lib/thumb/libm.a(lib_a-w_cosh.o)
                                                  /opt/gcc-arm-none-eabi-4_8-2013q4/bin/../lib/gcc/arm-none-eabi/4.8.3/../../../../arm-none-eabi/lib/thumb/libm.a(lib_a-w_asin.o)
                                                  /opt/gcc-arm-none-eabi-4_8-2013q4/bin/../lib/gcc/arm-none-eabi/4.8.3/../../../../arm-none-eabi/lib/thumb/libm.a(lib_a-w_acos.o)
                                                  /opt/gcc-arm-none-eabi-4_8-2013q4/bin/../lib/gcc/arm-none-eabi/4.8.3/../../../../arm-none-eabi/lib/thumb/libm.a(lib_a-s_atan.o)
                                                  /home/colibri/paparazziProto1/var/Colibri/ap/subsystems/ahrs/ahrs_infrared.o
                                                  /home/colibri/paparazziProto1/var/Colibri/ap/subsystems/navigation/snav.o
                                                  /home/colibri/paparazziProto1/var/Colibri/ap/subsystems/navigation/OSAMNav.o
                                                  /home/colibri/paparazziProto1/var/Colibri/ap/subsystems/navigation/nav_survey_rectangle.o
                                                  /home/colibri/paparazziProto1/var/Colibri/ap/subsystems/nav.o
                                                  /home/colibri/paparazziProto1/var/Colibri/ap/firmwares/fixedwing/guidance/guidance_v.o
                                                  /home/colibri/paparazziProto1/var/Colibri/ap/firmwares/fixedwing/stabilization/stabilization_attitude.o
                                                  /home/colibri/paparazziProto1/var/Colibri/ap/./estimator.o
                                                  /home/colibri/paparazziProto1/var/Colibri/ap/firmwares/fixedwing/main_ap.o
                                                  /home/colibri/paparazziProto1/var/Colibri/ap/math/pprz_geodetic_double.o
__aeabi_dcmple                                    /opt/gcc-arm-none-eabi-4_8-2013q4/bin/../lib/gcc/arm-none-eabi/4.8.3/thumb/libgcc.a(_arm_cmpdf2.o)
                                                  /opt/gcc-arm-none-eabi-4_8-2013q4/bin/../lib/gcc/arm-none-eabi/4.8.3/../../../../arm-none-eabi/lib/thumb/libm.a(lib_a-e_pow.o)
__aeabi_dcmplt                                    /opt/gcc-arm-none-eabi-4_8-2013q4/bin/../lib/gcc/arm-none-eabi/4.8.3/thumb/libgcc.a(_arm_cmpdf2.o)
                                                  /opt/gcc-arm-none-eabi-4_8-2013q4/bin/../lib/gcc/arm-none-eabi/4.8.3/../../../../arm-none-eabi/lib/thumb/libm.a(lib_a-s_expm1.o)
                                                  /opt/gcc-arm-none-eabi-4_8-2013q4/bin/../lib/gcc/arm-none-eabi/4.8.3/../../../../arm-none-eabi/lib/thumb/libm.a(lib_a-e_exp.o)
                                                  /opt/gcc-arm-none-eabi-4_8-2013q4/bin/../lib/gcc/arm-none-eabi/4.8.3/../../../../arm-none-eabi/lib/thumb/libm.a(lib_a-w_sqrt.o)
                                                  /opt/gcc-arm-none-eabi-4_8-2013q4/bin/../lib/gcc/arm-none-eabi/4.8.3/../../../../arm-none-eabi/lib/thumb/libm.a(lib_a-w_pow.o)
                                                  /opt/gcc-arm-none-eabi-4_8-2013q4/bin/../lib/gcc/arm-none-eabi/4.8.3/../../../../arm-none-eabi/lib/thumb/libm.a(lib_a-w_exp.o)
                                                  /home/colibri/paparazziProto1/var/Colibri/ap/subsystems/ahrs/ahrs_infrared.o
                                                  /home/colibri/paparazziProto1/var/Colibri/ap/subsystems/navigation/snav.o
                                                  /home/colibri/paparazziProto1/var/Colibri/ap/subsystems/navigation/OSAMNav.o
                                                  /home/colibri/paparazziProto1/var/Colibri/ap/subsystems/navigation/nav_cube.o
                                                  /home/colibri/paparazziProto1/var/Colibri/ap/subsystems/navigation/nav_survey_rectangle.o
                                                  /home/colibri/paparazziProto1/var/Colibri/ap/subsystems/nav.o
                                                  /home/colibri/paparazziProto1/var/Colibri/ap/firmwares/fixedwing/guidance/guidance_v.o
                                                  /home/colibri/paparazziProto1/var/Colibri/ap/firmwares/fixedwing/stabilization/stabilization_attitude.o
                                                  /home/colibri/paparazziProto1/var/Colibri/ap/firmwares/fixedwing/main_ap.o
__aeabi_ddiv                                      /opt/gcc-arm-none-eabi-4_8-2013q4/bin/../lib/gcc/arm-none-eabi/4.8.3/thumb/libgcc.a(_arm_muldivdf3.o)
                                                  /opt/gcc-arm-none-eabi-4_8-2013q4/bin/../lib/gcc/arm-none-eabi/4.8.3/../../../../arm-none-eabi/lib/thumb/libm.a(lib_a-s_expm1.o)
                                                  /opt/gcc-arm-none-eabi-4_8-2013q4/bin/../lib/gcc/arm-none-eabi/4.8.3/../../../../arm-none-eabi/lib/thumb/libm.a(lib_a-k_tan.o)
                                                  /opt/gcc-arm-none-eabi-4_8-2013q4/bin/../lib/gcc/arm-none-eabi/4.8.3/../../../../arm-none-eabi/lib/thumb/libm.a(lib_a-e_sqrt.o)
                                                  /opt/gcc-arm-none-eabi-4_8-2013q4/bin/../lib/gcc/arm-none-eabi/4.8.3/../../../../arm-none-eabi/lib/thumb/libm.a(lib_a-e_sinh.o)
                                                  /opt/gcc-arm-none-eabi-4_8-2013q4/bin/../lib/gcc/arm-none-eabi/4.8.3/../../../../arm-none-eabi/lib/thumb/libm.a(lib_a-e_pow.o)
                                                  /opt/gcc-arm-none-eabi-4_8-2013q4/bin/../lib/gcc/arm-none-eabi/4.8.3/../../../../arm-none-eabi/lib/thumb/libm.a(lib_a-e_log.o)
                                                  /opt/gcc-arm-none-eabi-4_8-2013q4/bin/../lib/gcc/arm-none-eabi/4.8.3/../../../../arm-none-eabi/lib/thumb/libm.a(lib_a-e_exp.o)
                                                  /opt/gcc-arm-none-eabi-4_8-2013q4/bin/../lib/gcc/arm-none-eabi/4.8.3/../../../../arm-none-eabi/lib/thumb/libm.a(lib_a-e_cosh.o)
                                                  /opt/gcc-arm-none-eabi-4_8-2013q4/bin/../lib/gcc/arm-none-eabi/4.8.3/../../../../arm-none-eabi/lib/thumb/libm.a(lib_a-e_atan2.o)
                                                  /opt/gcc-arm-none-eabi-4_8-2013q4/bin/../lib/gcc/arm-none-eabi/4.8.3/../../../../arm-none-eabi/lib/thumb/libm.a(lib_a-e_asin.o)
                                                  /opt/gcc-arm-none-eabi-4_8-2013q4/bin/../lib/gcc/arm-none-eabi/4.8.3/../../../../arm-none-eabi/lib/thumb/libm.a(lib_a-e_acos.o)
                                                  /opt/gcc-arm-none-eabi-4_8-2013q4/bin/../lib/gcc/arm-none-eabi/4.8.3/../../../../arm-none-eabi/lib/thumb/libm.a(lib_a-wf_sqrt.o)
                                                  /opt/gcc-arm-none-eabi-4_8-2013q4/bin/../lib/gcc/arm-none-eabi/4.8.3/../../../../arm-none-eabi/lib/thumb/libm.a(lib_a-wf_pow.o)
                                                  /opt/gcc-arm-none-eabi-4_8-2013q4/bin/../lib/gcc/arm-none-eabi/4.8.3/../../../../arm-none-eabi/lib/thumb/libm.a(lib_a-w_sqrt.o)
                                                  /opt/gcc-arm-none-eabi-4_8-2013q4/bin/../lib/gcc/arm-none-eabi/4.8.3/../../../../arm-none-eabi/lib/thumb/libm.a(lib_a-w_pow.o)
                                                  /opt/gcc-arm-none-eabi-4_8-2013q4/bin/../lib/gcc/arm-none-eabi/4.8.3/../../../../arm-none-eabi/lib/thumb/libm.a(lib_a-s_atan.o)
                                                  /home/colibri/paparazziProto1/var/Colibri/ap/subsystems/ahrs/ahrs_infrared.o
                                                  /home/colibri/paparazziProto1/var/Colibri/ap/firmwares/fixedwing/datalink.o
                                                  /home/colibri/paparazziProto1/var/Colibri/ap/subsystems/navigation/gls.o
                                                  /home/colibri/paparazziProto1/var/Colibri/ap/subsystems/navigation/poly_survey_adv.o
                                                  /home/colibri/paparazziProto1/var/Colibri/ap/subsystems/navigation/spiral.o
                                                  /home/colibri/paparazziProto1/var/Colibri/ap/subsystems/navigation/snav.o
                                                  /home/colibri/paparazziProto1/var/Colibri/ap/subsystems/navigation/OSAMNav.o
                                                  /home/colibri/paparazziProto1/var/Colibri/ap/subsystems/navigation/nav_cube.o
                                                  /home/colibri/paparazziProto1/var/Colibri/ap/subsystems/nav.o
                                                  /home/colibri/paparazziProto1/var/Colibri/ap/firmwares/fixedwing/guidance/guidance_v.o
                                                  /home/colibri/paparazziProto1/var/Colibri/ap/firmwares/fixedwing/stabilization/stabilization_attitude.o
                                                  /home/colibri/paparazziProto1/var/Colibri/ap/./estimator.o
                                                  /home/colibri/paparazziProto1/var/Colibri/ap/firmwares/fixedwing/main_ap.o
                                                  /home/colibri/paparazziProto1/var/Colibri/ap/math/pprz_geodetic_double.o
                                                  /home/colibri/paparazziProto1/var/Colibri/ap/math/pprz_geodetic_float.o
                                                  /home/colibri/paparazziProto1/var/Colibri/ap/math/pprz_geodetic_int.o
                                                  /home/colibri/paparazziProto1/var/Colibri/ap/mcu_periph/sys_time.o
__aeabi_dmul                                      /opt/gcc-arm-none-eabi-4_8-2013q4/bin/../lib/gcc/arm-none-eabi/4.8.3/thumb/libgcc.a(_arm_muldivdf3.o)
                                                  /opt/gcc-arm-none-eabi-4_8-2013q4/bin/../lib/gcc/arm-none-eabi/4.8.3/../../../../arm-none-eabi/lib/thumb/libm.a(lib_a-s_scalbn.o)
                                                  /opt/gcc-arm-none-eabi-4_8-2013q4/bin/../lib/gcc/arm-none-eabi/4.8.3/../../../../arm-none-eabi/lib/thumb/libm.a(lib_a-s_expm1.o)
                                                  /opt/gcc-arm-none-eabi-4_8-2013q4/bin/../lib/gcc/arm-none-eabi/4.8.3/../../../../arm-none-eabi/lib/thumb/libm.a(lib_a-k_tan.o)
                                                  /opt/gcc-arm-none-eabi-4_8-2013q4/bin/../lib/gcc/arm-none-eabi/4.8.3/../../../../arm-none-eabi/lib/thumb/libm.a(lib_a-k_sin.o)
                                                  /opt/gcc-arm-none-eabi-4_8-2013q4/bin/../lib/gcc/arm-none-eabi/4.8.3/../../../../arm-none-eabi/lib/thumb/libm.a(lib_a-k_rem_pio2.o)
                                                  /opt/gcc-arm-none-eabi-4_8-2013q4/bin/../lib/gcc/arm-none-eabi/4.8.3/../../../../arm-none-eabi/lib/thumb/libm.a(lib_a-k_cos.o)
                                                  /opt/gcc-arm-none-eabi-4_8-2013q4/bin/../lib/gcc/arm-none-eabi/4.8.3/../../../../arm-none-eabi/lib/thumb/libm.a(lib_a-e_sqrt.o)
                                                  /opt/gcc-arm-none-eabi-4_8-2013q4/bin/../lib/gcc/arm-none-eabi/4.8.3/../../../../arm-none-eabi/lib/thumb/libm.a(lib_a-e_sinh.o)
                                                  /opt/gcc-arm-none-eabi-4_8-2013q4/bin/../lib/gcc/arm-none-eabi/4.8.3/../../../../arm-none-eabi/lib/thumb/libm.a(lib_a-e_rem_pio2.o)
                                                  /opt/gcc-arm-none-eabi-4_8-2013q4/bin/../lib/gcc/arm-none-eabi/4.8.3/../../../../arm-none-eabi/lib/thumb/libm.a(lib_a-e_pow.o)
                                                  /opt/gcc-arm-none-eabi-4_8-2013q4/bin/../lib/gcc/arm-none-eabi/4.8.3/../../../../arm-none-eabi/lib/thumb/libm.a(lib_a-e_log.o)
                                                  /opt/gcc-arm-none-eabi-4_8-2013q4/bin/../lib/gcc/arm-none-eabi/4.8.3/../../../../arm-none-eabi/lib/thumb/libm.a(lib_a-e_exp.o)
                                                  /opt/gcc-arm-none-eabi-4_8-2013q4/bin/../lib/gcc/arm-none-eabi/4.8.3/../../../../arm-none-eabi/lib/thumb/libm.a(lib_a-e_cosh.o)
                                                  /opt/gcc-arm-none-eabi-4_8-2013q4/bin/../lib/gcc/arm-none-eabi/4.8.3/../../../../arm-none-eabi/lib/thumb/libm.a(lib_a-e_asin.o)
                                                  /opt/gcc-arm-none-eabi-4_8-2013q4/bin/../lib/gcc/arm-none-eabi/4.8.3/../../../../arm-none-eabi/lib/thumb/libm.a(lib_a-e_acos.o)
                                                  /opt/gcc-arm-none-eabi-4_8-2013q4/bin/../lib/gcc/arm-none-eabi/4.8.3/../../../../arm-none-eabi/lib/thumb/libm.a(lib_a-w_pow.o)
                                                  /opt/gcc-arm-none-eabi-4_8-2013q4/bin/../lib/gcc/arm-none-eabi/4.8.3/../../../../arm-none-eabi/lib/thumb/libm.a(lib_a-s_atan.o)
                                                  /home/colibri/paparazziProto1/var/Colibri/ap/subsystems/gps/gps_ubx.o
                                                  /home/colibri/paparazziProto1/var/Colibri/ap/firmwares/fixedwing/datalink.o
                                                  /home/colibri/paparazziProto1/var/Colibri/ap/subsystems/navigation/border_line.o
                                                  /home/colibri/paparazziProto1/var/Colibri/ap/subsystems/navigation/poly_survey_adv.o
                                                  /home/colibri/paparazziProto1/var/Colibri/ap/subsystems/navigation/snav.o
                                                  /home/colibri/paparazziProto1/var/Colibri/ap/subsystems/navigation/OSAMNav.o
                                                  /home/colibri/paparazziProto1/var/Colibri/ap/subsystems/navigation/discsurvey.o
                                                  /home/colibri/paparazziProto1/var/Colibri/ap/subsystems/navigation/nav_cube.o
                                                  /home/colibri/paparazziProto1/var/Colibri/ap/subsystems/navigation/nav_line.o
                                                  /home/colibri/paparazziProto1/var/Colibri/ap/subsystems/navigation/nav_survey_rectangle.o
                                                  /home/colibri/paparazziProto1/var/Colibri/ap/subsystems/nav.o
                                                  /home/colibri/paparazziProto1/var/Colibri/ap/firmwares/fixedwing/guidance/guidance_v.o
                                                  /home/colibri/paparazziProto1/var/Colibri/ap/firmwares/fixedwing/stabilization/stabilization_attitude.o
                                                  /home/colibri/paparazziProto1/var/Colibri/ap/firmwares/fixedwing/main_ap.o
                                                  /home/colibri/paparazziProto1/var/Colibri/ap/subsystems/electrical.o
                                                  /home/colibri/paparazziProto1/var/Colibri/ap/firmwares/fixedwing/main_fbw.o
                                                  /home/colibri/paparazziProto1/var/Colibri/ap/math/pprz_geodetic_double.o
                                                  /home/colibri/paparazziProto1/var/Colibri/ap/math/pprz_geodetic_float.o
                                                  /home/colibri/paparazziProto1/var/Colibri/ap/math/pprz_geodetic_int.o
__aeabi_drsub                                     /opt/gcc-arm-none-eabi-4_8-2013q4/bin/../lib/gcc/arm-none-eabi/4.8.3/thumb/libgcc.a(_arm_addsubdf3.o)
__aeabi_dsub                                      /opt/gcc-arm-none-eabi-4_8-2013q4/bin/../lib/gcc/arm-none-eabi/4.8.3/thumb/libgcc.a(_arm_addsubdf3.o)
                                                  /opt/gcc-arm-none-eabi-4_8-2013q4/bin/../lib/gcc/arm-none-eabi/4.8.3/../../../../arm-none-eabi/lib/thumb/libm.a(lib_a-s_expm1.o)
                                                  /opt/gcc-arm-none-eabi-4_8-2013q4/bin/../lib/gcc/arm-none-eabi/4.8.3/../../../../arm-none-eabi/lib/thumb/libm.a(lib_a-k_tan.o)
                                                  /opt/gcc-arm-none-eabi-4_8-2013q4/bin/../lib/gcc/arm-none-eabi/4.8.3/../../../../arm-none-eabi/lib/thumb/libm.a(lib_a-k_sin.o)
                                                  /opt/gcc-arm-none-eabi-4_8-2013q4/bin/../lib/gcc/arm-none-eabi/4.8.3/../../../../arm-none-eabi/lib/thumb/libm.a(lib_a-k_rem_pio2.o)
                                                  /opt/gcc-arm-none-eabi-4_8-2013q4/bin/../lib/gcc/arm-none-eabi/4.8.3/../../../../arm-none-eabi/lib/thumb/libm.a(lib_a-k_cos.o)
                                                  /opt/gcc-arm-none-eabi-4_8-2013q4/bin/../lib/gcc/arm-none-eabi/4.8.3/../../../../arm-none-eabi/lib/thumb/libm.a(lib_a-e_sqrt.o)
                                                  /opt/gcc-arm-none-eabi-4_8-2013q4/bin/../lib/gcc/arm-none-eabi/4.8.3/../../../../arm-none-eabi/lib/thumb/libm.a(lib_a-e_sinh.o)
                                                  /opt/gcc-arm-none-eabi-4_8-2013q4/bin/../lib/gcc/arm-none-eabi/4.8.3/../../../../arm-none-eabi/lib/thumb/libm.a(lib_a-e_rem_pio2.o)
                                                  /opt/gcc-arm-none-eabi-4_8-2013q4/bin/../lib/gcc/arm-none-eabi/4.8.3/../../../../arm-none-eabi/lib/thumb/libm.a(lib_a-e_pow.o)
                                                  /opt/gcc-arm-none-eabi-4_8-2013q4/bin/../lib/gcc/arm-none-eabi/4.8.3/../../../../arm-none-eabi/lib/thumb/libm.a(lib_a-e_log.o)
                                                  /opt/gcc-arm-none-eabi-4_8-2013q4/bin/../lib/gcc/arm-none-eabi/4.8.3/../../../../arm-none-eabi/lib/thumb/libm.a(lib_a-e_exp.o)
                                                  /opt/gcc-arm-none-eabi-4_8-2013q4/bin/../lib/gcc/arm-none-eabi/4.8.3/../../../../arm-none-eabi/lib/thumb/libm.a(lib_a-e_atan2.o)
                                                  /opt/gcc-arm-none-eabi-4_8-2013q4/bin/../lib/gcc/arm-none-eabi/4.8.3/../../../../arm-none-eabi/lib/thumb/libm.a(lib_a-e_asin.o)
                                                  /opt/gcc-arm-none-eabi-4_8-2013q4/bin/../lib/gcc/arm-none-eabi/4.8.3/../../../../arm-none-eabi/lib/thumb/libm.a(lib_a-e_acos.o)
                                                  /opt/gcc-arm-none-eabi-4_8-2013q4/bin/../lib/gcc/arm-none-eabi/4.8.3/../../../../arm-none-eabi/lib/thumb/libm.a(lib_a-s_tan.o)
                                                  /opt/gcc-arm-none-eabi-4_8-2013q4/bin/../lib/gcc/arm-none-eabi/4.8.3/../../../../arm-none-eabi/lib/thumb/libm.a(lib_a-s_sin.o)
                                                  /opt/gcc-arm-none-eabi-4_8-2013q4/bin/../lib/gcc/arm-none-eabi/4.8.3/../../../../arm-none-eabi/lib/thumb/libm.a(lib_a-s_rint.o)
                                                  /opt/gcc-arm-none-eabi-4_8-2013q4/bin/../lib/gcc/arm-none-eabi/4.8.3/../../../../arm-none-eabi/lib/thumb/libm.a(lib_a-s_cos.o)
                                                  /opt/gcc-arm-none-eabi-4_8-2013q4/bin/../lib/gcc/arm-none-eabi/4.8.3/../../../../arm-none-eabi/lib/thumb/libm.a(lib_a-s_atan.o)
                                                  /home/colibri/paparazziProto1/var/Colibri/ap/subsystems/ahrs/ahrs_infrared.o
                                                  /home/colibri/paparazziProto1/var/Colibri/ap/subsystems/navigation/border_line.o
                                                  /home/colibri/paparazziProto1/var/Colibri/ap/subsystems/navigation/poly_survey_adv.o
                                                  /home/colibri/paparazziProto1/var/Colibri/ap/subsystems/navigation/snav.o
                                                  /home/colibri/paparazziProto1/var/Colibri/ap/subsystems/navigation/OSAMNav.o
                                                  /home/colibri/paparazziProto1/var/Colibri/ap/subsystems/navigation/discsurvey.o
                                                  /home/colibri/paparazziProto1/var/Colibri/ap/subsystems/navigation/nav_cube.o
                                                  /home/colibri/paparazziProto1/var/Colibri/ap/subsystems/navigation/nav_line.o
                                                  /home/colibri/paparazziProto1/var/Colibri/ap/subsystems/navigation/nav_survey_rectangle.o
                                                  /home/colibri/paparazziProto1/var/Colibri/ap/subsystems/nav.o
                                                  /home/colibri/paparazziProto1/var/Colibri/ap/firmwares/fixedwing/guidance/guidance_v.o
                                                  /home/colibri/paparazziProto1/var/Colibri/ap/firmwares/fixedwing/stabilization/stabilization_attitude.o
                                                  /home/colibri/paparazziProto1/var/Colibri/ap/math/pprz_geodetic_double.o
                                                  /home/colibri/paparazziProto1/var/Colibri/ap/math/pprz_geodetic_float.o
__aeabi_f2d                                       /opt/gcc-arm-none-eabi-4_8-2013q4/bin/../lib/gcc/arm-none-eabi/4.8.3/thumb/libgcc.a(_arm_addsubdf3.o)
                                                  /opt/gcc-arm-none-eabi-4_8-2013q4/bin/../lib/gcc/arm-none-eabi/4.8.3/../../../../arm-none-eabi/lib/thumb/libm.a(lib_a-wf_sqrt.o)
                                                  /opt/gcc-arm-none-eabi-4_8-2013q4/bin/../lib/gcc/arm-none-eabi/4.8.3/../../../../arm-none-eabi/lib/thumb/libm.a(lib_a-wf_pow.o)
                                                  /home/colibri/paparazziProto1/var/Colibri/ap/subsystems/ahrs/ahrs_infrared.o
                                                  /home/colibri/paparazziProto1/var/Colibri/ap/firmwares/fixedwing/datalink.o
                                                  /home/colibri/paparazziProto1/var/Colibri/ap/subsystems/navigation/border_line.o
                                                  /home/colibri/paparazziProto1/var/Colibri/ap/subsystems/navigation/gls.o
                                                  /home/colibri/paparazziProto1/var/Colibri/ap/subsystems/navigation/poly_survey_adv.o
                                                  /home/colibri/paparazziProto1/var/Colibri/ap/subsystems/navigation/spiral.o
                                                  /home/colibri/paparazziProto1/var/Colibri/ap/subsystems/navigation/snav.o
                                                  /home/colibri/paparazziProto1/var/Colibri/ap/subsystems/navigation/OSAMNav.o
                                                  /home/colibri/paparazziProto1/var/Colibri/ap/subsystems/navigation/discsurvey.o
                                                  /home/colibri/paparazziProto1/var/Colibri/ap/subsystems/navigation/nav_cube.o
                                                  /home/colibri/paparazziProto1/var/Colibri/ap/subsystems/navigation/nav_line.o
                                                  /home/colibri/paparazziProto1/var/Colibri/ap/subsystems/navigation/nav_survey_rectangle.o
                                                  /home/colibri/paparazziProto1/var/Colibri/ap/subsystems/nav.o
                                                  /home/colibri/paparazziProto1/var/Colibri/ap/firmwares/fixedwing/guidance/guidance_v.o
                                                  /home/colibri/paparazziProto1/var/Colibri/ap/firmwares/fixedwing/stabilization/stabilization_attitude.o
                                                  /home/colibri/paparazziProto1/var/Colibri/ap/./estimator.o
                                                  /home/colibri/paparazziProto1/var/Colibri/ap/firmwares/fixedwing/main_ap.o
                                                  /home/colibri/paparazziProto1/var/Colibri/ap/subsystems/electrical.o
                                                  /home/colibri/paparazziProto1/var/Colibri/ap/firmwares/fixedwing/main_fbw.o
                                                  /home/colibri/paparazziProto1/var/Colibri/ap/math/pprz_geodetic_double.o
                                                  /home/colibri/paparazziProto1/var/Colibri/ap/math/pprz_geodetic_float.o
                                                  /home/colibri/paparazziProto1/var/Colibri/ap/math/pprz_geodetic_int.o
                                                  /home/colibri/paparazziProto1/var/Colibri/ap/mcu_periph/sys_time.o
__aeabi_f2iz                                      /opt/gcc-arm-none-eabi-4_8-2013q4/bin/../lib/gcc/arm-none-eabi/4.8.3/thumb/libgcc.a(_arm_fixsfsi.o)
                                                  /opt/gcc-arm-none-eabi-4_8-2013q4/bin/../lib/gcc/arm-none-eabi/4.8.3/../../../../arm-none-eabi/lib/thumb/libm.a(lib_a-kf_tan.o)
                                                  /opt/gcc-arm-none-eabi-4_8-2013q4/bin/../lib/gcc/arm-none-eabi/4.8.3/../../../../arm-none-eabi/lib/thumb/libm.a(lib_a-kf_sin.o)
                                                  /opt/gcc-arm-none-eabi-4_8-2013q4/bin/../lib/gcc/arm-none-eabi/4.8.3/../../../../arm-none-eabi/lib/thumb/libm.a(lib_a-kf_rem_pio2.o)
                                                  /opt/gcc-arm-none-eabi-4_8-2013q4/bin/../lib/gcc/arm-none-eabi/4.8.3/../../../../arm-none-eabi/lib/thumb/libm.a(lib_a-kf_cos.o)
                                                  /opt/gcc-arm-none-eabi-4_8-2013q4/bin/../lib/gcc/arm-none-eabi/4.8.3/../../../../arm-none-eabi/lib/thumb/libm.a(lib_a-ef_rem_pio2.o)
                                                  /home/colibri/paparazziProto1/var/Colibri/ap/subsystems/sensors/infrared_adc.o
                                                  /home/colibri/paparazziProto1/var/Colibri/ap/subsystems/gps/gps_ubx.o
                                                  /home/colibri/paparazziProto1/var/Colibri/ap/subsystems/navigation/poly_survey_adv.o
                                                  /home/colibri/paparazziProto1/var/Colibri/ap/subsystems/navigation/nav_cube.o
                                                  /home/colibri/paparazziProto1/var/Colibri/ap/subsystems/nav.o
                                                  /home/colibri/paparazziProto1/var/Colibri/ap/firmwares/fixedwing/guidance/guidance_v.o
                                                  /home/colibri/paparazziProto1/var/Colibri/ap/firmwares/fixedwing/stabilization/stabilization_attitude.o
                                                  /home/colibri/paparazziProto1/var/Colibri/ap/firmwares/fixedwing/main_ap.o
                                                  /home/colibri/paparazziProto1/var/Colibri/ap/firmwares/fixedwing/main_fbw.o
__aeabi_f2uiz                                     /opt/gcc-arm-none-eabi-4_8-2013q4/bin/../lib/gcc/arm-none-eabi/4.8.3/thumb/libgcc.a(_arm_fixunssfsi.o)
                                                  /home/colibri/paparazziProto1/var/Colibri/ap/firmwares/fixedwing/datalink.o
                                                  /home/colibri/paparazziProto1/var/Colibri/ap/subsystems/electrical.o
__aeabi_fadd                                      /opt/gcc-arm-none-eabi-4_8-2013q4/bin/../lib/gcc/arm-none-eabi/4.8.3/thumb/libgcc.a(_arm_addsubsf3.o)
                                                  /opt/gcc-arm-none-eabi-4_8-2013q4/bin/../lib/gcc/arm-none-eabi/4.8.3/../../../../arm-none-eabi/lib/thumb/libm.a(lib_a-sf_scalbn.o)
                                                  /opt/gcc-arm-none-eabi-4_8-2013q4/bin/../lib/gcc/arm-none-eabi/4.8.3/../../../../arm-none-eabi/lib/thumb/libm.a(lib_a-sf_floor.o)
                                                  /opt/gcc-arm-none-eabi-4_8-2013q4/bin/../lib/gcc/arm-none-eabi/4.8.3/../../../../arm-none-eabi/lib/thumb/libm.a(lib_a-kf_tan.o)
                                                  /opt/gcc-arm-none-eabi-4_8-2013q4/bin/../lib/gcc/arm-none-eabi/4.8.3/../../../../arm-none-eabi/lib/thumb/libm.a(lib_a-kf_sin.o)
                                                  /opt/gcc-arm-none-eabi-4_8-2013q4/bin/../lib/gcc/arm-none-eabi/4.8.3/../../../../arm-none-eabi/lib/thumb/libm.a(lib_a-kf_rem_pio2.o)
                                                  /opt/gcc-arm-none-eabi-4_8-2013q4/bin/../lib/gcc/arm-none-eabi/4.8.3/../../../../arm-none-eabi/lib/thumb/libm.a(lib_a-kf_cos.o)
                                                  /opt/gcc-arm-none-eabi-4_8-2013q4/bin/../lib/gcc/arm-none-eabi/4.8.3/../../../../arm-none-eabi/lib/thumb/libm.a(lib_a-ef_sqrt.o)
                                                  /opt/gcc-arm-none-eabi-4_8-2013q4/bin/../lib/gcc/arm-none-eabi/4.8.3/../../../../arm-none-eabi/lib/thumb/libm.a(lib_a-ef_rem_pio2.o)
                                                  /opt/gcc-arm-none-eabi-4_8-2013q4/bin/../lib/gcc/arm-none-eabi/4.8.3/../../../../arm-none-eabi/lib/thumb/libm.a(lib_a-ef_pow.o)
                                                  /opt/gcc-arm-none-eabi-4_8-2013q4/bin/../lib/gcc/arm-none-eabi/4.8.3/../../../../arm-none-eabi/lib/thumb/libm.a(lib_a-ef_atan2.o)
                                                  /opt/gcc-arm-none-eabi-4_8-2013q4/bin/../lib/gcc/arm-none-eabi/4.8.3/../../../../arm-none-eabi/lib/thumb/libm.a(lib_a-sf_atan.o)
                                                  /home/colibri/paparazziProto1/var/Colibri/ap/firmwares/fixedwing/datalink.o
                                                  /home/colibri/paparazziProto1/var/Colibri/ap/subsystems/navigation/border_line.o
                                                  /home/colibri/paparazziProto1/var/Colibri/ap/subsystems/navigation/gls.o
                                                  /home/colibri/paparazziProto1/var/Colibri/ap/subsystems/navigation/poly_survey_adv.o
                                                  /home/colibri/paparazziProto1/var/Colibri/ap/subsystems/navigation/spiral.o
                                                  /home/colibri/paparazziProto1/var/Colibri/ap/subsystems/navigation/snav.o
                                                  /home/colibri/paparazziProto1/var/Colibri/ap/subsystems/navigation/OSAMNav.o
                                                  /home/colibri/paparazziProto1/var/Colibri/ap/subsystems/navigation/discsurvey.o
                                                  /home/colibri/paparazziProto1/var/Colibri/ap/subsystems/navigation/nav_cube.o
                                                  /home/colibri/paparazziProto1/var/Colibri/ap/subsystems/navigation/nav_line.o
                                                  /home/colibri/paparazziProto1/var/Colibri/ap/subsystems/navigation/nav_survey_rectangle.o
                                                  /home/colibri/paparazziProto1/var/Colibri/ap/subsystems/nav.o
                                                  /home/colibri/paparazziProto1/var/Colibri/ap/firmwares/fixedwing/guidance/guidance_v.o
                                                  /home/colibri/paparazziProto1/var/Colibri/ap/firmwares/fixedwing/stabilization/stabilization_attitude.o
                                                  /home/colibri/paparazziProto1/var/Colibri/ap/./estimator.o
                                                  /home/colibri/paparazziProto1/var/Colibri/ap/firmwares/fixedwing/main_ap.o
                                                  /home/colibri/paparazziProto1/var/Colibri/ap/math/pprz_geodetic_float.o
__aeabi_fcmpeq                                    /opt/gcc-arm-none-eabi-4_8-2013q4/bin/../lib/gcc/arm-none-eabi/4.8.3/thumb/libgcc.a(_arm_cmpsf2.o)
                                                  /opt/gcc-arm-none-eabi-4_8-2013q4/bin/../lib/gcc/arm-none-eabi/4.8.3/../../../../arm-none-eabi/lib/thumb/libm.a(lib_a-kf_rem_pio2.o)
                                                  /opt/gcc-arm-none-eabi-4_8-2013q4/bin/../lib/gcc/arm-none-eabi/4.8.3/../../../../arm-none-eabi/lib/thumb/libm.a(lib_a-ef_rem_pio2.o)
                                                  /opt/gcc-arm-none-eabi-4_8-2013q4/bin/../lib/gcc/arm-none-eabi/4.8.3/../../../../arm-none-eabi/lib/thumb/libm.a(lib_a-wf_pow.o)
                                                  /home/colibri/paparazziProto1/var/Colibri/ap/firmwares/fixedwing/datalink.o
                                                  /home/colibri/paparazziProto1/var/Colibri/ap/subsystems/navigation/gls.o
                                                  /home/colibri/paparazziProto1/var/Colibri/ap/subsystems/navigation/poly_survey_adv.o
                                                  /home/colibri/paparazziProto1/var/Colibri/ap/subsystems/navigation/OSAMNav.o
__aeabi_fcmpge                                    /opt/gcc-arm-none-eabi-4_8-2013q4/bin/../lib/gcc/arm-none-eabi/4.8.3/thumb/libgcc.a(_arm_cmpsf2.o)
                                                  /opt/gcc-arm-none-eabi-4_8-2013q4/bin/../lib/gcc/arm-none-eabi/4.8.3/../../../../arm-none-eabi/lib/thumb/libm.a(lib_a-kf_rem_pio2.o)
                                                  /home/colibri/paparazziProto1/var/Colibri/ap/subsystems/ahrs/ahrs_infrared.o
                                                  /home/colibri/paparazziProto1/var/Colibri/ap/subsystems/navigation/border_line.o
                                                  /home/colibri/paparazziProto1/var/Colibri/ap/subsystems/navigation/poly_survey_adv.o
                                                  /home/colibri/paparazziProto1/var/Colibri/ap/subsystems/navigation/spiral.o
                                                  /home/colibri/paparazziProto1/var/Colibri/ap/subsystems/navigation/snav.o
                                                  /home/colibri/paparazziProto1/var/Colibri/ap/subsystems/navigation/OSAMNav.o
                                                  /home/colibri/paparazziProto1/var/Colibri/ap/subsystems/navigation/discsurvey.o
                                                  /home/colibri/paparazziProto1/var/Colibri/ap/subsystems/navigation/nav_line.o
                                                  /home/colibri/paparazziProto1/var/Colibri/ap/subsystems/navigation/nav_survey_rectangle.o
                                                  /home/colibri/paparazziProto1/var/Colibri/ap/subsystems/nav.o
__aeabi_fcmpgt                                    /opt/gcc-arm-none-eabi-4_8-2013q4/bin/../lib/gcc/arm-none-eabi/4.8.3/thumb/libgcc.a(_arm_cmpsf2.o)
                                                  /opt/gcc-arm-none-eabi-4_8-2013q4/bin/../lib/gcc/arm-none-eabi/4.8.3/../../../../arm-none-eabi/lib/thumb/libm.a(lib_a-sf_floor.o)
                                                  /opt/gcc-arm-none-eabi-4_8-2013q4/bin/../lib/gcc/arm-none-eabi/4.8.3/../../../../arm-none-eabi/lib/thumb/libm.a(lib_a-ef_pow.o)
                                                  /opt/gcc-arm-none-eabi-4_8-2013q4/bin/../lib/gcc/arm-none-eabi/4.8.3/../../../../arm-none-eabi/lib/thumb/libm.a(lib_a-sf_atan.o)
                                                  /home/colibri/paparazziProto1/var/Colibri/ap/firmwares/fixedwing/datalink.o
                                                  /home/colibri/paparazziProto1/var/Colibri/ap/subsystems/navigation/border_line.o
                                                  /home/colibri/paparazziProto1/var/Colibri/ap/subsystems/navigation/gls.o
                                                  /home/colibri/paparazziProto1/var/Colibri/ap/subsystems/navigation/poly_survey_adv.o
                                                  /home/colibri/paparazziProto1/var/Colibri/ap/subsystems/navigation/spiral.o
                                                  /home/colibri/paparazziProto1/var/Colibri/ap/subsystems/navigation/snav.o
                                                  /home/colibri/paparazziProto1/var/Colibri/ap/subsystems/navigation/OSAMNav.o
                                                  /home/colibri/paparazziProto1/var/Colibri/ap/subsystems/navigation/discsurvey.o
                                                  /home/colibri/paparazziProto1/var/Colibri/ap/subsystems/navigation/nav_line.o
                                                  /home/colibri/paparazziProto1/var/Colibri/ap/subsystems/navigation/nav_survey_rectangle.o
                                                  /home/colibri/paparazziProto1/var/Colibri/ap/subsystems/nav.o
                                                  /home/colibri/paparazziProto1/var/Colibri/ap/firmwares/fixedwing/guidance/guidance_v.o
                                                  /home/colibri/paparazziProto1/var/Colibri/ap/firmwares/fixedwing/stabilization/stabilization_attitude.o
                                                  /home/colibri/paparazziProto1/var/Colibri/ap/firmwares/fixedwing/main_ap.o
                                                  /home/colibri/paparazziProto1/var/Colibri/ap/math/pprz_geodetic_float.o
__aeabi_fcmple                                    /opt/gcc-arm-none-eabi-4_8-2013q4/bin/../lib/gcc/arm-none-eabi/4.8.3/thumb/libgcc.a(_arm_cmpsf2.o)
                                                  /opt/gcc-arm-none-eabi-4_8-2013q4/bin/../lib/gcc/arm-none-eabi/4.8.3/../../../../arm-none-eabi/lib/thumb/libm.a(lib_a-ef_pow.o)
                                                  /home/colibri/paparazziProto1/var/Colibri/ap/subsystems/navigation/poly_survey_adv.o
                                                  /home/colibri/paparazziProto1/var/Colibri/ap/subsystems/navigation/OSAMNav.o
__aeabi_fcmplt                                    /opt/gcc-arm-none-eabi-4_8-2013q4/bin/../lib/gcc/arm-none-eabi/4.8.3/thumb/libgcc.a(_arm_cmpsf2.o)
                                                  /opt/gcc-arm-none-eabi-4_8-2013q4/bin/../lib/gcc/arm-none-eabi/4.8.3/../../../../arm-none-eabi/lib/thumb/libm.a(lib_a-wf_sqrt.o)
                                                  /opt/gcc-arm-none-eabi-4_8-2013q4/bin/../lib/gcc/arm-none-eabi/4.8.3/../../../../arm-none-eabi/lib/thumb/libm.a(lib_a-wf_pow.o)
                                                  /home/colibri/paparazziProto1/var/Colibri/ap/subsystems/ahrs/ahrs_infrared.o
                                                  /home/colibri/paparazziProto1/var/Colibri/ap/firmwares/fixedwing/datalink.o
                                                  /home/colibri/paparazziProto1/var/Colibri/ap/subsystems/navigation/border_line.o
                                                  /home/colibri/paparazziProto1/var/Colibri/ap/subsystems/navigation/gls.o
                                                  /home/colibri/paparazziProto1/var/Colibri/ap/subsystems/navigation/poly_survey_adv.o
                                                  /home/colibri/paparazziProto1/var/Colibri/ap/subsystems/navigation/spiral.o
                                                  /home/colibri/paparazziProto1/var/Colibri/ap/subsystems/navigation/snav.o
                                                  /home/colibri/paparazziProto1/var/Colibri/ap/subsystems/navigation/OSAMNav.o
                                                  /home/colibri/paparazziProto1/var/Colibri/ap/subsystems/navigation/discsurvey.o
                                                  /home/colibri/paparazziProto1/var/Colibri/ap/subsystems/navigation/nav_line.o
                                                  /home/colibri/paparazziProto1/var/Colibri/ap/subsystems/navigation/nav_survey_rectangle.o
                                                  /home/colibri/paparazziProto1/var/Colibri/ap/subsystems/nav.o
                                                  /home/colibri/paparazziProto1/var/Colibri/ap/firmwares/fixedwing/guidance/guidance_v.o
                                                  /home/colibri/paparazziProto1/var/Colibri/ap/firmwares/fixedwing/stabilization/stabilization_attitude.o
__aeabi_fdiv                                      /opt/gcc-arm-none-eabi-4_8-2013q4/bin/../lib/gcc/arm-none-eabi/4.8.3/thumb/libgcc.a(_arm_muldivsf3.o)
                                                  /opt/gcc-arm-none-eabi-4_8-2013q4/bin/../lib/gcc/arm-none-eabi/4.8.3/../../../../arm-none-eabi/lib/thumb/libm.a(lib_a-kf_tan.o)
                                                  /opt/gcc-arm-none-eabi-4_8-2013q4/bin/../lib/gcc/arm-none-eabi/4.8.3/../../../../arm-none-eabi/lib/thumb/libm.a(lib_a-ef_sqrt.o)
                                                  /opt/gcc-arm-none-eabi-4_8-2013q4/bin/../lib/gcc/arm-none-eabi/4.8.3/../../../../arm-none-eabi/lib/thumb/libm.a(lib_a-ef_pow.o)
                                                  /opt/gcc-arm-none-eabi-4_8-2013q4/bin/../lib/gcc/arm-none-eabi/4.8.3/../../../../arm-none-eabi/lib/thumb/libm.a(lib_a-ef_atan2.o)
                                                  /opt/gcc-arm-none-eabi-4_8-2013q4/bin/../lib/gcc/arm-none-eabi/4.8.3/../../../../arm-none-eabi/lib/thumb/libm.a(lib_a-sf_atan.o)
                                                  /home/colibri/paparazziProto1/var/Colibri/ap/subsystems/gps/gps_ubx.o
                                                  /home/colibri/paparazziProto1/var/Colibri/ap/firmwares/fixedwing/datalink.o
                                                  /home/colibri/paparazziProto1/var/Colibri/ap/subsystems/navigation/border_line.o
                                                  /home/colibri/paparazziProto1/var/Colibri/ap/subsystems/navigation/gls.o
                                                  /home/colibri/paparazziProto1/var/Colibri/ap/subsystems/navigation/poly_survey_adv.o
                                                  /home/colibri/paparazziProto1/var/Colibri/ap/subsystems/navigation/spiral.o
                                                  /home/colibri/paparazziProto1/var/Colibri/ap/subsystems/navigation/snav.o
                                                  /home/colibri/paparazziProto1/var/Colibri/ap/subsystems/navigation/OSAMNav.o
                                                  /home/colibri/paparazziProto1/var/Colibri/ap/subsystems/navigation/nav_line.o
                                                  /home/colibri/paparazziProto1/var/Colibri/ap/subsystems/nav.o
                                                  /home/colibri/paparazziProto1/var/Colibri/ap/firmwares/fixedwing/stabilization/stabilization_attitude.o
                                                  /home/colibri/paparazziProto1/var/Colibri/ap/./estimator.o
                                                  /home/colibri/paparazziProto1/var/Colibri/ap/firmwares/fixedwing/main_ap.o
                                                  /home/colibri/paparazziProto1/var/Colibri/ap/math/pprz_geodetic_float.o
                                                  /home/colibri/paparazziProto1/var/Colibri/ap/math/pprz_geodetic_int.o
__aeabi_fmul                                      /opt/gcc-arm-none-eabi-4_8-2013q4/bin/../lib/gcc/arm-none-eabi/4.8.3/thumb/libgcc.a(_arm_muldivsf3.o)
                                                  /opt/gcc-arm-none-eabi-4_8-2013q4/bin/../lib/gcc/arm-none-eabi/4.8.3/../../../../arm-none-eabi/lib/thumb/libm.a(lib_a-sf_scalbn.o)
                                                  /opt/gcc-arm-none-eabi-4_8-2013q4/bin/../lib/gcc/arm-none-eabi/4.8.3/../../../../arm-none-eabi/lib/thumb/libm.a(lib_a-kf_tan.o)
                                                  /opt/gcc-arm-none-eabi-4_8-2013q4/bin/../lib/gcc/arm-none-eabi/4.8.3/../../../../arm-none-eabi/lib/thumb/libm.a(lib_a-kf_sin.o)
                                                  /opt/gcc-arm-none-eabi-4_8-2013q4/bin/../lib/gcc/arm-none-eabi/4.8.3/../../../../arm-none-eabi/lib/thumb/libm.a(lib_a-kf_rem_pio2.o)
                                                  /opt/gcc-arm-none-eabi-4_8-2013q4/bin/../lib/gcc/arm-none-eabi/4.8.3/../../../../arm-none-eabi/lib/thumb/libm.a(lib_a-kf_cos.o)
                                                  /opt/gcc-arm-none-eabi-4_8-2013q4/bin/../lib/gcc/arm-none-eabi/4.8.3/../../../../arm-none-eabi/lib/thumb/libm.a(lib_a-ef_sqrt.o)
                                                  /opt/gcc-arm-none-eabi-4_8-2013q4/bin/../lib/gcc/arm-none-eabi/4.8.3/../../../../arm-none-eabi/lib/thumb/libm.a(lib_a-ef_rem_pio2.o)
                                                  /opt/gcc-arm-none-eabi-4_8-2013q4/bin/../lib/gcc/arm-none-eabi/4.8.3/../../../../arm-none-eabi/lib/thumb/libm.a(lib_a-ef_pow.o)
                                                  /opt/gcc-arm-none-eabi-4_8-2013q4/bin/../lib/gcc/arm-none-eabi/4.8.3/../../../../arm-none-eabi/lib/thumb/libm.a(lib_a-wf_pow.o)
                                                  /opt/gcc-arm-none-eabi-4_8-2013q4/bin/../lib/gcc/arm-none-eabi/4.8.3/../../../../arm-none-eabi/lib/thumb/libm.a(lib_a-sf_atan.o)
                                                  /home/colibri/paparazziProto1/var/Colibri/ap/subsystems/sensors/infrared_adc.o
                                                  /home/colibri/paparazziProto1/var/Colibri/ap/subsystems/gps/gps_ubx.o
                                                  /home/colibri/paparazziProto1/var/Colibri/ap/subsystems/ahrs/ahrs_infrared.o
                                                  /home/colibri/paparazziProto1/var/Colibri/ap/subsystems/navigation/border_line.o
                                                  /home/colibri/paparazziProto1/var/Colibri/ap/subsystems/navigation/gls.o
                                                  /home/colibri/paparazziProto1/var/Colibri/ap/subsystems/navigation/poly_survey_adv.o
                                                  /home/colibri/paparazziProto1/var/Colibri/ap/subsystems/navigation/spiral.o
                                                  /home/colibri/paparazziProto1/var/Colibri/ap/subsystems/navigation/snav.o
                                                  /home/colibri/paparazziProto1/var/Colibri/ap/subsystems/navigation/OSAMNav.o
                                                  /home/colibri/paparazziProto1/var/Colibri/ap/subsystems/navigation/discsurvey.o
                                                  /home/colibri/paparazziProto1/var/Colibri/ap/subsystems/navigation/nav_cube.o
                                                  /home/colibri/paparazziProto1/var/Colibri/ap/subsystems/navigation/nav_line.o
                                                  /home/colibri/paparazziProto1/var/Colibri/ap/subsystems/navigation/nav_survey_rectangle.o
                                                  /home/colibri/paparazziProto1/var/Colibri/ap/subsystems/nav.o
                                                  /home/colibri/paparazziProto1/var/Colibri/ap/firmwares/fixedwing/guidance/guidance_v.o
                                                  /home/colibri/paparazziProto1/var/Colibri/ap/firmwares/fixedwing/stabilization/stabilization_attitude.o
                                                  /home/colibri/paparazziProto1/var/Colibri/ap/./estimator.o
                                                  /home/colibri/paparazziProto1/var/Colibri/ap/firmwares/fixedwing/main_ap.o
                                                  /home/colibri/paparazziProto1/var/Colibri/ap/subsystems/electrical.o
                                                  /home/colibri/paparazziProto1/var/Colibri/ap/math/pprz_geodetic_float.o
                                                  /home/colibri/paparazziProto1/var/Colibri/ap/math/pprz_geodetic_int.o
__aeabi_frsub                                     /opt/gcc-arm-none-eabi-4_8-2013q4/bin/../lib/gcc/arm-none-eabi/4.8.3/thumb/libgcc.a(_arm_addsubsf3.o)
__aeabi_fsub                                      /opt/gcc-arm-none-eabi-4_8-2013q4/bin/../lib/gcc/arm-none-eabi/4.8.3/thumb/libgcc.a(_arm_addsubsf3.o)
                                                  /opt/gcc-arm-none-eabi-4_8-2013q4/bin/../lib/gcc/arm-none-eabi/4.8.3/../../../../arm-none-eabi/lib/thumb/libm.a(lib_a-kf_tan.o)
                                                  /opt/gcc-arm-none-eabi-4_8-2013q4/bin/../lib/gcc/arm-none-eabi/4.8.3/../../../../arm-none-eabi/lib/thumb/libm.a(lib_a-kf_sin.o)
                                                  /opt/gcc-arm-none-eabi-4_8-2013q4/bin/../lib/gcc/arm-none-eabi/4.8.3/../../../../arm-none-eabi/lib/thumb/libm.a(lib_a-kf_rem_pio2.o)
                                                  /opt/gcc-arm-none-eabi-4_8-2013q4/bin/../lib/gcc/arm-none-eabi/4.8.3/../../../../arm-none-eabi/lib/thumb/libm.a(lib_a-kf_cos.o)
                                                  /opt/gcc-arm-none-eabi-4_8-2013q4/bin/../lib/gcc/arm-none-eabi/4.8.3/../../../../arm-none-eabi/lib/thumb/libm.a(lib_a-ef_sqrt.o)
                                                  /opt/gcc-arm-none-eabi-4_8-2013q4/bin/../lib/gcc/arm-none-eabi/4.8.3/../../../../arm-none-eabi/lib/thumb/libm.a(lib_a-ef_rem_pio2.o)
                                                  /opt/gcc-arm-none-eabi-4_8-2013q4/bin/../lib/gcc/arm-none-eabi/4.8.3/../../../../arm-none-eabi/lib/thumb/libm.a(lib_a-ef_pow.o)
                                                  /opt/gcc-arm-none-eabi-4_8-2013q4/bin/../lib/gcc/arm-none-eabi/4.8.3/../../../../arm-none-eabi/lib/thumb/libm.a(lib_a-ef_atan2.o)
                                                  /opt/gcc-arm-none-eabi-4_8-2013q4/bin/../lib/gcc/arm-none-eabi/4.8.3/../../../../arm-none-eabi/lib/thumb/libm.a(lib_a-sf_tan.o)
                                                  /opt/gcc-arm-none-eabi-4_8-2013q4/bin/../lib/gcc/arm-none-eabi/4.8.3/../../../../arm-none-eabi/lib/thumb/libm.a(lib_a-sf_sin.o)
                                                  /opt/gcc-arm-none-eabi-4_8-2013q4/bin/../lib/gcc/arm-none-eabi/4.8.3/../../../../arm-none-eabi/lib/thumb/libm.a(lib_a-sf_cos.o)
                                                  /opt/gcc-arm-none-eabi-4_8-2013q4/bin/../lib/gcc/arm-none-eabi/4.8.3/../../../../arm-none-eabi/lib/thumb/libm.a(lib_a-sf_atan.o)
                                                  /home/colibri/paparazziProto1/var/Colibri/ap/subsystems/ahrs/ahrs_infrared.o
                                                  /home/colibri/paparazziProto1/var/Colibri/ap/firmwares/fixedwing/datalink.o
                                                  /home/colibri/paparazziProto1/var/Colibri/ap/subsystems/navigation/border_line.o
                                                  /home/colibri/paparazziProto1/var/Colibri/ap/subsystems/navigation/gls.o
                                                  /home/colibri/paparazziProto1/var/Colibri/ap/subsystems/navigation/poly_survey_adv.o
                                                  /home/colibri/paparazziProto1/var/Colibri/ap/subsystems/navigation/spiral.o
                                                  /home/colibri/paparazziProto1/var/Colibri/ap/subsystems/navigation/snav.o
                                                  /home/colibri/paparazziProto1/var/Colibri/ap/subsystems/navigation/OSAMNav.o
                                                  /home/colibri/paparazziProto1/var/Colibri/ap/subsystems/navigation/discsurvey.o
                                                  /home/colibri/paparazziProto1/var/Colibri/ap/subsystems/navigation/nav_cube.o
                                                  /home/colibri/paparazziProto1/var/Colibri/ap/subsystems/navigation/nav_line.o
                                                  /home/colibri/paparazziProto1/var/Colibri/ap/subsystems/navigation/nav_survey_rectangle.o
                                                  /home/colibri/paparazziProto1/var/Colibri/ap/subsystems/nav.o
                                                  /home/colibri/paparazziProto1/var/Colibri/ap/firmwares/fixedwing/guidance/guidance_v.o
                                                  /home/colibri/paparazziProto1/var/Colibri/ap/firmwares/fixedwing/stabilization/stabilization_attitude.o
                                                  /home/colibri/paparazziProto1/var/Colibri/ap/./estimator.o
                                                  /home/colibri/paparazziProto1/var/Colibri/ap/math/pprz_geodetic_float.o
__aeabi_i2d                                       /opt/gcc-arm-none-eabi-4_8-2013q4/bin/../lib/gcc/arm-none-eabi/4.8.3/thumb/libgcc.a(_arm_addsubdf3.o)
                                                  /opt/gcc-arm-none-eabi-4_8-2013q4/bin/../lib/gcc/arm-none-eabi/4.8.3/../../../../arm-none-eabi/lib/thumb/libm.a(lib_a-s_expm1.o)
                                                  /opt/gcc-arm-none-eabi-4_8-2013q4/bin/../lib/gcc/arm-none-eabi/4.8.3/../../../../arm-none-eabi/lib/thumb/libm.a(lib_a-k_tan.o)
                                                  /opt/gcc-arm-none-eabi-4_8-2013q4/bin/../lib/gcc/arm-none-eabi/4.8.3/../../../../arm-none-eabi/lib/thumb/libm.a(lib_a-k_rem_pio2.o)
                                                  /opt/gcc-arm-none-eabi-4_8-2013q4/bin/../lib/gcc/arm-none-eabi/4.8.3/../../../../arm-none-eabi/lib/thumb/libm.a(lib_a-e_rem_pio2.o)
                                                  /opt/gcc-arm-none-eabi-4_8-2013q4/bin/../lib/gcc/arm-none-eabi/4.8.3/../../../../arm-none-eabi/lib/thumb/libm.a(lib_a-e_pow.o)
                                                  /opt/gcc-arm-none-eabi-4_8-2013q4/bin/../lib/gcc/arm-none-eabi/4.8.3/../../../../arm-none-eabi/lib/thumb/libm.a(lib_a-e_log.o)
                                                  /opt/gcc-arm-none-eabi-4_8-2013q4/bin/../lib/gcc/arm-none-eabi/4.8.3/../../../../arm-none-eabi/lib/thumb/libm.a(lib_a-e_exp.o)
                                                  /home/colibri/paparazziProto1/var/Colibri/ap/subsystems/gps/gps_ubx.o
                                                  /home/colibri/paparazziProto1/var/Colibri/ap/subsystems/ahrs/ahrs_infrared.o
                                                  /home/colibri/paparazziProto1/var/Colibri/ap/firmwares/fixedwing/datalink.o
                                                  /home/colibri/paparazziProto1/var/Colibri/ap/subsystems/navigation/poly_survey_adv.o
                                                  /home/colibri/paparazziProto1/var/Colibri/ap/subsystems/navigation/nav_cube.o
                                                  /home/colibri/paparazziProto1/var/Colibri/ap/subsystems/nav.o
                                                  /home/colibri/paparazziProto1/var/Colibri/ap/firmwares/fixedwing/guidance/guidance_v.o
                                                  /home/colibri/paparazziProto1/var/Colibri/ap/./estimator.o
                                                  /home/colibri/paparazziProto1/var/Colibri/ap/firmwares/fixedwing/main_ap.o
                                                  /home/colibri/paparazziProto1/var/Colibri/ap/firmwares/fixedwing/main_fbw.o
                                                  /home/colibri/paparazziProto1/var/Colibri/ap/math/pprz_geodetic_double.o
                                                  /home/colibri/paparazziProto1/var/Colibri/ap/math/pprz_geodetic_float.o
                                                  /home/colibri/paparazziProto1/var/Colibri/ap/math/pprz_geodetic_int.o
__aeabi_i2f                                       /opt/gcc-arm-none-eabi-4_8-2013q4/bin/../lib/gcc/arm-none-eabi/4.8.3/thumb/libgcc.a(_arm_addsubsf3.o)
                                                  /opt/gcc-arm-none-eabi-4_8-2013q4/bin/../lib/gcc/arm-none-eabi/4.8.3/../../../../arm-none-eabi/lib/thumb/libm.a(lib_a-kf_tan.o)
                                                  /opt/gcc-arm-none-eabi-4_8-2013q4/bin/../lib/gcc/arm-none-eabi/4.8.3/../../../../arm-none-eabi/lib/thumb/libm.a(lib_a-kf_rem_pio2.o)
                                                  /opt/gcc-arm-none-eabi-4_8-2013q4/bin/../lib/gcc/arm-none-eabi/4.8.3/../../../../arm-none-eabi/lib/thumb/libm.a(lib_a-ef_rem_pio2.o)
                                                  /opt/gcc-arm-none-eabi-4_8-2013q4/bin/../lib/gcc/arm-none-eabi/4.8.3/../../../../arm-none-eabi/lib/thumb/libm.a(lib_a-ef_pow.o)
                                                  /home/colibri/paparazziProto1/var/Colibri/ap/subsystems/sensors/infrared_adc.o
                                                  /home/colibri/paparazziProto1/var/Colibri/ap/subsystems/gps/gps_ubx.o
                                                  /home/colibri/paparazziProto1/var/Colibri/ap/firmwares/fixedwing/datalink.o
                                                  /home/colibri/paparazziProto1/var/Colibri/ap/subsystems/navigation/discsurvey.o
                                                  /home/colibri/paparazziProto1/var/Colibri/ap/subsystems/navigation/nav_cube.o
                                                  /home/colibri/paparazziProto1/var/Colibri/ap/subsystems/nav.o
                                                  /home/colibri/paparazziProto1/var/Colibri/ap/firmwares/fixedwing/stabilization/stabilization_attitude.o
                                                  /home/colibri/paparazziProto1/var/Colibri/ap/./estimator.o
                                                  /home/colibri/paparazziProto1/var/Colibri/ap/firmwares/fixedwing/main_ap.o
                                                  /home/colibri/paparazziProto1/var/Colibri/ap/firmwares/fixedwing/main_fbw.o
                                                  /home/colibri/paparazziProto1/var/Colibri/ap/math/pprz_geodetic_float.o
                                                  /home/colibri/paparazziProto1/var/Colibri/ap/math/pprz_geodetic_int.o
__aeabi_idiv                                      /opt/gcc-arm-none-eabi-4_8-2013q4/bin/../lib/gcc/arm-none-eabi/4.8.3/thumb/libgcc.a(_divsi3.o)
                                                  /opt/gcc-arm-none-eabi-4_8-2013q4/bin/../lib/gcc/arm-none-eabi/4.8.3/../../../../arm-none-eabi/lib/thumb/libm.a(lib_a-k_rem_pio2.o)
                                                  /home/colibri/paparazziProto1/var/Colibri/ap/subsystems/navigation/nav_cube.o
                                                  /home/colibri/paparazziProto1/var/Colibri/ap/firmwares/fixedwing/main_ap.o
                                                  /home/colibri/paparazziProto1/var/Colibri/ap/arch/lpc21/mcu_periph/i2c_arch.o
__aeabi_idiv0                                     /opt/gcc-arm-none-eabi-4_8-2013q4/bin/../lib/gcc/arm-none-eabi/4.8.3/thumb/libgcc.a(_dvmd_tls.o)
                                                  /opt/gcc-arm-none-eabi-4_8-2013q4/bin/../lib/gcc/arm-none-eabi/4.8.3/thumb/libgcc.a(_divsi3.o)
                                                  /opt/gcc-arm-none-eabi-4_8-2013q4/bin/../lib/gcc/arm-none-eabi/4.8.3/thumb/libgcc.a(_udivsi3.o)
__aeabi_idivmod                                   /opt/gcc-arm-none-eabi-4_8-2013q4/bin/../lib/gcc/arm-none-eabi/4.8.3/thumb/libgcc.a(_divsi3.o)
                                                  /home/colibri/paparazziProto1/var/Colibri/ap/subsystems/navigation/nav_cube.o
__aeabi_l2d                                       /opt/gcc-arm-none-eabi-4_8-2013q4/bin/../lib/gcc/arm-none-eabi/4.8.3/thumb/libgcc.a(_arm_addsubdf3.o)
__aeabi_l2f                                       /opt/gcc-arm-none-eabi-4_8-2013q4/bin/../lib/gcc/arm-none-eabi/4.8.3/thumb/libgcc.a(_arm_addsubsf3.o)
__aeabi_ldiv0                                     /opt/gcc-arm-none-eabi-4_8-2013q4/bin/../lib/gcc/arm-none-eabi/4.8.3/thumb/libgcc.a(_dvmd_tls.o)
__aeabi_ui2d                                      /opt/gcc-arm-none-eabi-4_8-2013q4/bin/../lib/gcc/arm-none-eabi/4.8.3/thumb/libgcc.a(_arm_addsubdf3.o)
                                                  /home/colibri/paparazziProto1/var/Colibri/ap/subsystems/gps/gps_ubx.o
                                                  /home/colibri/paparazziProto1/var/Colibri/ap/subsystems/navigation/snav.o
__aeabi_ui2f                                      /opt/gcc-arm-none-eabi-4_8-2013q4/bin/../lib/gcc/arm-none-eabi/4.8.3/thumb/libgcc.a(_arm_addsubsf3.o)
                                                  /home/colibri/paparazziProto1/var/Colibri/ap/firmwares/fixedwing/datalink.o
                                                  /home/colibri/paparazziProto1/var/Colibri/ap/subsystems/nav.o
                                                  /home/colibri/paparazziProto1/var/Colibri/ap/firmwares/fixedwing/main_ap.o
                                                  /home/colibri/paparazziProto1/var/Colibri/ap/subsystems/electrical.o
__aeabi_uidiv                                     /opt/gcc-arm-none-eabi-4_8-2013q4/bin/../lib/gcc/arm-none-eabi/4.8.3/thumb/libgcc.a(_udivsi3.o)
                                                  /home/colibri/paparazziProto1/var/Colibri/ap/subsystems/sensors/infrared_adc.o
                                                  /home/colibri/paparazziProto1/var/Colibri/ap/subsystems/electrical.o
__aeabi_uidivmod                                  /opt/gcc-arm-none-eabi-4_8-2013q4/bin/../lib/gcc/arm-none-eabi/4.8.3/thumb/libgcc.a(_udivsi3.o)
__aeabi_ul2d                                      /opt/gcc-arm-none-eabi-4_8-2013q4/bin/../lib/gcc/arm-none-eabi/4.8.3/thumb/libgcc.a(_arm_addsubdf3.o)
__aeabi_ul2f                                      /opt/gcc-arm-none-eabi-4_8-2013q4/bin/../lib/gcc/arm-none-eabi/4.8.3/thumb/libgcc.a(_arm_addsubsf3.o)
__bss_end__                                       /home/colibri/paparazziProto1/var/Colibri/ap/crt0.o
__bss_start                                       /home/colibri/paparazziProto1/var/Colibri/ap/crt0.o
__cmpdf2                                          /opt/gcc-arm-none-eabi-4_8-2013q4/bin/../lib/gcc/arm-none-eabi/4.8.3/thumb/libgcc.a(_arm_cmpdf2.o)
__cmpsf2                                          /opt/gcc-arm-none-eabi-4_8-2013q4/bin/../lib/gcc/arm-none-eabi/4.8.3/thumb/libgcc.a(_arm_cmpsf2.o)
__ctors_end__                                     /home/colibri/paparazziProto1/var/Colibri/ap/crt0.o
__ctors_start__                                   /home/colibri/paparazziProto1/var/Colibri/ap/crt0.o
__divdf3                                          /opt/gcc-arm-none-eabi-4_8-2013q4/bin/../lib/gcc/arm-none-eabi/4.8.3/thumb/libgcc.a(_arm_muldivdf3.o)
__divsf3                                          /opt/gcc-arm-none-eabi-4_8-2013q4/bin/../lib/gcc/arm-none-eabi/4.8.3/thumb/libgcc.a(_arm_muldivsf3.o)
__divsi3                                          /opt/gcc-arm-none-eabi-4_8-2013q4/bin/../lib/gcc/arm-none-eabi/4.8.3/thumb/libgcc.a(_divsi3.o)
__eqdf2                                           /opt/gcc-arm-none-eabi-4_8-2013q4/bin/../lib/gcc/arm-none-eabi/4.8.3/thumb/libgcc.a(_arm_cmpdf2.o)
__eqsf2                                           /opt/gcc-arm-none-eabi-4_8-2013q4/bin/../lib/gcc/arm-none-eabi/4.8.3/thumb/libgcc.a(_arm_cmpsf2.o)
__errno                                           /opt/gcc-arm-none-eabi-4_8-2013q4/bin/../lib/gcc/arm-none-eabi/4.8.3/../../../../arm-none-eabi/lib/thumb/libc.a(lib_a-errno.o)
                                                  /opt/gcc-arm-none-eabi-4_8-2013q4/bin/../lib/gcc/arm-none-eabi/4.8.3/../../../../arm-none-eabi/lib/thumb/libm.a(lib_a-wf_sqrt.o)
                                                  /opt/gcc-arm-none-eabi-4_8-2013q4/bin/../lib/gcc/arm-none-eabi/4.8.3/../../../../arm-none-eabi/lib/thumb/libm.a(lib_a-wf_pow.o)
                                                  /opt/gcc-arm-none-eabi-4_8-2013q4/bin/../lib/gcc/arm-none-eabi/4.8.3/../../../../arm-none-eabi/lib/thumb/libm.a(lib_a-w_sqrt.o)
                                                  /opt/gcc-arm-none-eabi-4_8-2013q4/bin/../lib/gcc/arm-none-eabi/4.8.3/../../../../arm-none-eabi/lib/thumb/libm.a(lib_a-w_sinh.o)
                                                  /opt/gcc-arm-none-eabi-4_8-2013q4/bin/../lib/gcc/arm-none-eabi/4.8.3/../../../../arm-none-eabi/lib/thumb/libm.a(lib_a-w_pow.o)
                                                  /opt/gcc-arm-none-eabi-4_8-2013q4/bin/../lib/gcc/arm-none-eabi/4.8.3/../../../../arm-none-eabi/lib/thumb/libm.a(lib_a-w_log.o)
                                                  /opt/gcc-arm-none-eabi-4_8-2013q4/bin/../lib/gcc/arm-none-eabi/4.8.3/../../../../arm-none-eabi/lib/thumb/libm.a(lib_a-w_exp.o)
                                                  /opt/gcc-arm-none-eabi-4_8-2013q4/bin/../lib/gcc/arm-none-eabi/4.8.3/../../../../arm-none-eabi/lib/thumb/libm.a(lib_a-w_cosh.o)
                                                  /opt/gcc-arm-none-eabi-4_8-2013q4/bin/../lib/gcc/arm-none-eabi/4.8.3/../../../../arm-none-eabi/lib/thumb/libm.a(lib_a-w_asin.o)
                                                  /opt/gcc-arm-none-eabi-4_8-2013q4/bin/../lib/gcc/arm-none-eabi/4.8.3/../../../../arm-none-eabi/lib/thumb/libm.a(lib_a-w_acos.o)
__extendsfdf2                                     /opt/gcc-arm-none-eabi-4_8-2013q4/bin/../lib/gcc/arm-none-eabi/4.8.3/thumb/libgcc.a(_arm_addsubdf3.o)
__fdlib_version                                   /opt/gcc-arm-none-eabi-4_8-2013q4/bin/../lib/gcc/arm-none-eabi/4.8.3/../../../../arm-none-eabi/lib/thumb/libm.a(lib_a-s_lib_ver.o)
                                                  /opt/gcc-arm-none-eabi-4_8-2013q4/bin/../lib/gcc/arm-none-eabi/4.8.3/../../../../arm-none-eabi/lib/thumb/libm.a(lib_a-wf_sqrt.o)
                                                  /opt/gcc-arm-none-eabi-4_8-2013q4/bin/../lib/gcc/arm-none-eabi/4.8.3/../../../../arm-none-eabi/lib/thumb/libm.a(lib_a-wf_pow.o)
                                                  /opt/gcc-arm-none-eabi-4_8-2013q4/bin/../lib/gcc/arm-none-eabi/4.8.3/../../../../arm-none-eabi/lib/thumb/libm.a(lib_a-w_sqrt.o)
                                                  /opt/gcc-arm-none-eabi-4_8-2013q4/bin/../lib/gcc/arm-none-eabi/4.8.3/../../../../arm-none-eabi/lib/thumb/libm.a(lib_a-w_sinh.o)
                                                  /opt/gcc-arm-none-eabi-4_8-2013q4/bin/../lib/gcc/arm-none-eabi/4.8.3/../../../../arm-none-eabi/lib/thumb/libm.a(lib_a-w_pow.o)
                                                  /opt/gcc-arm-none-eabi-4_8-2013q4/bin/../lib/gcc/arm-none-eabi/4.8.3/../../../../arm-none-eabi/lib/thumb/libm.a(lib_a-w_log.o)
                                                  /opt/gcc-arm-none-eabi-4_8-2013q4/bin/../lib/gcc/arm-none-eabi/4.8.3/../../../../arm-none-eabi/lib/thumb/libm.a(lib_a-w_exp.o)
                                                  /opt/gcc-arm-none-eabi-4_8-2013q4/bin/../lib/gcc/arm-none-eabi/4.8.3/../../../../arm-none-eabi/lib/thumb/libm.a(lib_a-w_cosh.o)
                                                  /opt/gcc-arm-none-eabi-4_8-2013q4/bin/../lib/gcc/arm-none-eabi/4.8.3/../../../../arm-none-eabi/lib/thumb/libm.a(lib_a-w_asin.o)
                                                  /opt/gcc-arm-none-eabi-4_8-2013q4/bin/../lib/gcc/arm-none-eabi/4.8.3/../../../../arm-none-eabi/lib/thumb/libm.a(lib_a-w_acos.o)
__fixdfsi                                         /opt/gcc-arm-none-eabi-4_8-2013q4/bin/../lib/gcc/arm-none-eabi/4.8.3/thumb/libgcc.a(_arm_fixdfsi.o)
__fixsfsi                                         /opt/gcc-arm-none-eabi-4_8-2013q4/bin/../lib/gcc/arm-none-eabi/4.8.3/thumb/libgcc.a(_arm_fixsfsi.o)
__fixunsdfsi                                      /opt/gcc-arm-none-eabi-4_8-2013q4/bin/../lib/gcc/arm-none-eabi/4.8.3/thumb/libgcc.a(_arm_fixunsdfsi.o)
__fixunssfsi                                      /opt/gcc-arm-none-eabi-4_8-2013q4/bin/../lib/gcc/arm-none-eabi/4.8.3/thumb/libgcc.a(_arm_fixunssfsi.o)
__floatdidf                                       /opt/gcc-arm-none-eabi-4_8-2013q4/bin/../lib/gcc/arm-none-eabi/4.8.3/thumb/libgcc.a(_arm_addsubdf3.o)
__floatdisf                                       /opt/gcc-arm-none-eabi-4_8-2013q4/bin/../lib/gcc/arm-none-eabi/4.8.3/thumb/libgcc.a(_arm_addsubsf3.o)
__floatsidf                                       /opt/gcc-arm-none-eabi-4_8-2013q4/bin/../lib/gcc/arm-none-eabi/4.8.3/thumb/libgcc.a(_arm_addsubdf3.o)
__floatsisf                                       /opt/gcc-arm-none-eabi-4_8-2013q4/bin/../lib/gcc/arm-none-eabi/4.8.3/thumb/libgcc.a(_arm_addsubsf3.o)
__floatundidf                                     /opt/gcc-arm-none-eabi-4_8-2013q4/bin/../lib/gcc/arm-none-eabi/4.8.3/thumb/libgcc.a(_arm_addsubdf3.o)
__floatundisf                                     /opt/gcc-arm-none-eabi-4_8-2013q4/bin/../lib/gcc/arm-none-eabi/4.8.3/thumb/libgcc.a(_arm_addsubsf3.o)
__floatunsidf                                     /opt/gcc-arm-none-eabi-4_8-2013q4/bin/../lib/gcc/arm-none-eabi/4.8.3/thumb/libgcc.a(_arm_addsubdf3.o)
__floatunsisf                                     /opt/gcc-arm-none-eabi-4_8-2013q4/bin/../lib/gcc/arm-none-eabi/4.8.3/thumb/libgcc.a(_arm_addsubsf3.o)
__fpclassifyd                                     /opt/gcc-arm-none-eabi-4_8-2013q4/bin/../lib/gcc/arm-none-eabi/4.8.3/../../../../arm-none-eabi/lib/thumb/libm.a(lib_a-s_fpclassify.o)
                                                  /opt/gcc-arm-none-eabi-4_8-2013q4/bin/../lib/gcc/arm-none-eabi/4.8.3/../../../../arm-none-eabi/lib/thumb/libm.a(lib_a-w_sqrt.o)
                                                  /opt/gcc-arm-none-eabi-4_8-2013q4/bin/../lib/gcc/arm-none-eabi/4.8.3/../../../../arm-none-eabi/lib/thumb/libm.a(lib_a-w_pow.o)
                                                  /opt/gcc-arm-none-eabi-4_8-2013q4/bin/../lib/gcc/arm-none-eabi/4.8.3/../../../../arm-none-eabi/lib/thumb/libm.a(lib_a-w_log.o)
                                                  /opt/gcc-arm-none-eabi-4_8-2013q4/bin/../lib/gcc/arm-none-eabi/4.8.3/../../../../arm-none-eabi/lib/thumb/libm.a(lib_a-w_cosh.o)
                                                  /opt/gcc-arm-none-eabi-4_8-2013q4/bin/../lib/gcc/arm-none-eabi/4.8.3/../../../../arm-none-eabi/lib/thumb/libm.a(lib_a-w_asin.o)
                                                  /opt/gcc-arm-none-eabi-4_8-2013q4/bin/../lib/gcc/arm-none-eabi/4.8.3/../../../../arm-none-eabi/lib/thumb/libm.a(lib_a-w_acos.o)
__fpclassifyf                                     /opt/gcc-arm-none-eabi-4_8-2013q4/bin/../lib/gcc/arm-none-eabi/4.8.3/../../../../arm-none-eabi/lib/thumb/libm.a(lib_a-sf_fpclassify.o)
                                                  /opt/gcc-arm-none-eabi-4_8-2013q4/bin/../lib/gcc/arm-none-eabi/4.8.3/../../../../arm-none-eabi/lib/thumb/libm.a(lib_a-wf_sqrt.o)
                                                  /opt/gcc-arm-none-eabi-4_8-2013q4/bin/../lib/gcc/arm-none-eabi/4.8.3/../../../../arm-none-eabi/lib/thumb/libm.a(lib_a-wf_pow.o)
__gedf2                                           /opt/gcc-arm-none-eabi-4_8-2013q4/bin/../lib/gcc/arm-none-eabi/4.8.3/thumb/libgcc.a(_arm_cmpdf2.o)
__gesf2                                           /opt/gcc-arm-none-eabi-4_8-2013q4/bin/../lib/gcc/arm-none-eabi/4.8.3/thumb/libgcc.a(_arm_cmpsf2.o)
__gtdf2                                           /opt/gcc-arm-none-eabi-4_8-2013q4/bin/../lib/gcc/arm-none-eabi/4.8.3/thumb/libgcc.a(_arm_cmpdf2.o)
__gtsf2                                           /opt/gcc-arm-none-eabi-4_8-2013q4/bin/../lib/gcc/arm-none-eabi/4.8.3/thumb/libgcc.a(_arm_cmpsf2.o)
__ieee754_acos                                    /opt/gcc-arm-none-eabi-4_8-2013q4/bin/../lib/gcc/arm-none-eabi/4.8.3/../../../../arm-none-eabi/lib/thumb/libm.a(lib_a-e_acos.o)
                                                  /opt/gcc-arm-none-eabi-4_8-2013q4/bin/../lib/gcc/arm-none-eabi/4.8.3/../../../../arm-none-eabi/lib/thumb/libm.a(lib_a-w_acos.o)
__ieee754_asin                                    /opt/gcc-arm-none-eabi-4_8-2013q4/bin/../lib/gcc/arm-none-eabi/4.8.3/../../../../arm-none-eabi/lib/thumb/libm.a(lib_a-e_asin.o)
                                                  /opt/gcc-arm-none-eabi-4_8-2013q4/bin/../lib/gcc/arm-none-eabi/4.8.3/../../../../arm-none-eabi/lib/thumb/libm.a(lib_a-w_asin.o)
__ieee754_atan2                                   /opt/gcc-arm-none-eabi-4_8-2013q4/bin/../lib/gcc/arm-none-eabi/4.8.3/../../../../arm-none-eabi/lib/thumb/libm.a(lib_a-e_atan2.o)
                                                  /opt/gcc-arm-none-eabi-4_8-2013q4/bin/../lib/gcc/arm-none-eabi/4.8.3/../../../../arm-none-eabi/lib/thumb/libm.a(lib_a-w_atan2.o)
__ieee754_atan2f                                  /opt/gcc-arm-none-eabi-4_8-2013q4/bin/../lib/gcc/arm-none-eabi/4.8.3/../../../../arm-none-eabi/lib/thumb/libm.a(lib_a-ef_atan2.o)
                                                  /opt/gcc-arm-none-eabi-4_8-2013q4/bin/../lib/gcc/arm-none-eabi/4.8.3/../../../../arm-none-eabi/lib/thumb/libm.a(lib_a-wf_atan2.o)
__ieee754_cosh                                    /opt/gcc-arm-none-eabi-4_8-2013q4/bin/../lib/gcc/arm-none-eabi/4.8.3/../../../../arm-none-eabi/lib/thumb/libm.a(lib_a-e_cosh.o)
                                                  /opt/gcc-arm-none-eabi-4_8-2013q4/bin/../lib/gcc/arm-none-eabi/4.8.3/../../../../arm-none-eabi/lib/thumb/libm.a(lib_a-w_cosh.o)
__ieee754_exp                                     /opt/gcc-arm-none-eabi-4_8-2013q4/bin/../lib/gcc/arm-none-eabi/4.8.3/../../../../arm-none-eabi/lib/thumb/libm.a(lib_a-e_exp.o)
                                                  /opt/gcc-arm-none-eabi-4_8-2013q4/bin/../lib/gcc/arm-none-eabi/4.8.3/../../../../arm-none-eabi/lib/thumb/libm.a(lib_a-e_sinh.o)
                                                  /opt/gcc-arm-none-eabi-4_8-2013q4/bin/../lib/gcc/arm-none-eabi/4.8.3/../../../../arm-none-eabi/lib/thumb/libm.a(lib_a-e_cosh.o)
                                                  /opt/gcc-arm-none-eabi-4_8-2013q4/bin/../lib/gcc/arm-none-eabi/4.8.3/../../../../arm-none-eabi/lib/thumb/libm.a(lib_a-w_exp.o)
__ieee754_log                                     /opt/gcc-arm-none-eabi-4_8-2013q4/bin/../lib/gcc/arm-none-eabi/4.8.3/../../../../arm-none-eabi/lib/thumb/libm.a(lib_a-e_log.o)
                                                  /opt/gcc-arm-none-eabi-4_8-2013q4/bin/../lib/gcc/arm-none-eabi/4.8.3/../../../../arm-none-eabi/lib/thumb/libm.a(lib_a-w_log.o)
__ieee754_pow                                     /opt/gcc-arm-none-eabi-4_8-2013q4/bin/../lib/gcc/arm-none-eabi/4.8.3/../../../../arm-none-eabi/lib/thumb/libm.a(lib_a-e_pow.o)
                                                  /opt/gcc-arm-none-eabi-4_8-2013q4/bin/../lib/gcc/arm-none-eabi/4.8.3/../../../../arm-none-eabi/lib/thumb/libm.a(lib_a-w_pow.o)
__ieee754_powf                                    /opt/gcc-arm-none-eabi-4_8-2013q4/bin/../lib/gcc/arm-none-eabi/4.8.3/../../../../arm-none-eabi/lib/thumb/libm.a(lib_a-ef_pow.o)
                                                  /opt/gcc-arm-none-eabi-4_8-2013q4/bin/../lib/gcc/arm-none-eabi/4.8.3/../../../../arm-none-eabi/lib/thumb/libm.a(lib_a-wf_pow.o)
__ieee754_rem_pio2                                /opt/gcc-arm-none-eabi-4_8-2013q4/bin/../lib/gcc/arm-none-eabi/4.8.3/../../../../arm-none-eabi/lib/thumb/libm.a(lib_a-e_rem_pio2.o)
                                                  /opt/gcc-arm-none-eabi-4_8-2013q4/bin/../lib/gcc/arm-none-eabi/4.8.3/../../../../arm-none-eabi/lib/thumb/libm.a(lib_a-s_tan.o)
                                                  /opt/gcc-arm-none-eabi-4_8-2013q4/bin/../lib/gcc/arm-none-eabi/4.8.3/../../../../arm-none-eabi/lib/thumb/libm.a(lib_a-s_sin.o)
                                                  /opt/gcc-arm-none-eabi-4_8-2013q4/bin/../lib/gcc/arm-none-eabi/4.8.3/../../../../arm-none-eabi/lib/thumb/libm.a(lib_a-s_cos.o)
__ieee754_rem_pio2f                               /opt/gcc-arm-none-eabi-4_8-2013q4/bin/../lib/gcc/arm-none-eabi/4.8.3/../../../../arm-none-eabi/lib/thumb/libm.a(lib_a-ef_rem_pio2.o)
                                                  /opt/gcc-arm-none-eabi-4_8-2013q4/bin/../lib/gcc/arm-none-eabi/4.8.3/../../../../arm-none-eabi/lib/thumb/libm.a(lib_a-sf_tan.o)
                                                  /opt/gcc-arm-none-eabi-4_8-2013q4/bin/../lib/gcc/arm-none-eabi/4.8.3/../../../../arm-none-eabi/lib/thumb/libm.a(lib_a-sf_sin.o)
                                                  /opt/gcc-arm-none-eabi-4_8-2013q4/bin/../lib/gcc/arm-none-eabi/4.8.3/../../../../arm-none-eabi/lib/thumb/libm.a(lib_a-sf_cos.o)
__ieee754_sinh                                    /opt/gcc-arm-none-eabi-4_8-2013q4/bin/../lib/gcc/arm-none-eabi/4.8.3/../../../../arm-none-eabi/lib/thumb/libm.a(lib_a-e_sinh.o)
                                                  /opt/gcc-arm-none-eabi-4_8-2013q4/bin/../lib/gcc/arm-none-eabi/4.8.3/../../../../arm-none-eabi/lib/thumb/libm.a(lib_a-w_sinh.o)
__ieee754_sqrt                                    /opt/gcc-arm-none-eabi-4_8-2013q4/bin/../lib/gcc/arm-none-eabi/4.8.3/../../../../arm-none-eabi/lib/thumb/libm.a(lib_a-e_sqrt.o)
                                                  /opt/gcc-arm-none-eabi-4_8-2013q4/bin/../lib/gcc/arm-none-eabi/4.8.3/../../../../arm-none-eabi/lib/thumb/libm.a(lib_a-e_pow.o)
                                                  /opt/gcc-arm-none-eabi-4_8-2013q4/bin/../lib/gcc/arm-none-eabi/4.8.3/../../../../arm-none-eabi/lib/thumb/libm.a(lib_a-e_asin.o)
                                                  /opt/gcc-arm-none-eabi-4_8-2013q4/bin/../lib/gcc/arm-none-eabi/4.8.3/../../../../arm-none-eabi/lib/thumb/libm.a(lib_a-e_acos.o)
                                                  /opt/gcc-arm-none-eabi-4_8-2013q4/bin/../lib/gcc/arm-none-eabi/4.8.3/../../../../arm-none-eabi/lib/thumb/libm.a(lib_a-w_sqrt.o)
__ieee754_sqrtf                                   /opt/gcc-arm-none-eabi-4_8-2013q4/bin/../lib/gcc/arm-none-eabi/4.8.3/../../../../arm-none-eabi/lib/thumb/libm.a(lib_a-ef_sqrt.o)
                                                  /opt/gcc-arm-none-eabi-4_8-2013q4/bin/../lib/gcc/arm-none-eabi/4.8.3/../../../../arm-none-eabi/lib/thumb/libm.a(lib_a-ef_pow.o)
                                                  /opt/gcc-arm-none-eabi-4_8-2013q4/bin/../lib/gcc/arm-none-eabi/4.8.3/../../../../arm-none-eabi/lib/thumb/libm.a(lib_a-wf_sqrt.o)
__kernel_cos                                      /opt/gcc-arm-none-eabi-4_8-2013q4/bin/../lib/gcc/arm-none-eabi/4.8.3/../../../../arm-none-eabi/lib/thumb/libm.a(lib_a-k_cos.o)
                                                  /opt/gcc-arm-none-eabi-4_8-2013q4/bin/../lib/gcc/arm-none-eabi/4.8.3/../../../../arm-none-eabi/lib/thumb/libm.a(lib_a-s_sin.o)
                                                  /opt/gcc-arm-none-eabi-4_8-2013q4/bin/../lib/gcc/arm-none-eabi/4.8.3/../../../../arm-none-eabi/lib/thumb/libm.a(lib_a-s_cos.o)
__kernel_cosf                                     /opt/gcc-arm-none-eabi-4_8-2013q4/bin/../lib/gcc/arm-none-eabi/4.8.3/../../../../arm-none-eabi/lib/thumb/libm.a(lib_a-kf_cos.o)
                                                  /opt/gcc-arm-none-eabi-4_8-2013q4/bin/../lib/gcc/arm-none-eabi/4.8.3/../../../../arm-none-eabi/lib/thumb/libm.a(lib_a-sf_sin.o)
                                                  /opt/gcc-arm-none-eabi-4_8-2013q4/bin/../lib/gcc/arm-none-eabi/4.8.3/../../../../arm-none-eabi/lib/thumb/libm.a(lib_a-sf_cos.o)
__kernel_rem_pio2                                 /opt/gcc-arm-none-eabi-4_8-2013q4/bin/../lib/gcc/arm-none-eabi/4.8.3/../../../../arm-none-eabi/lib/thumb/libm.a(lib_a-k_rem_pio2.o)
                                                  /opt/gcc-arm-none-eabi-4_8-2013q4/bin/../lib/gcc/arm-none-eabi/4.8.3/../../../../arm-none-eabi/lib/thumb/libm.a(lib_a-e_rem_pio2.o)
__kernel_rem_pio2f                                /opt/gcc-arm-none-eabi-4_8-2013q4/bin/../lib/gcc/arm-none-eabi/4.8.3/../../../../arm-none-eabi/lib/thumb/libm.a(lib_a-kf_rem_pio2.o)
                                                  /opt/gcc-arm-none-eabi-4_8-2013q4/bin/../lib/gcc/arm-none-eabi/4.8.3/../../../../arm-none-eabi/lib/thumb/libm.a(lib_a-ef_rem_pio2.o)
__kernel_sin                                      /opt/gcc-arm-none-eabi-4_8-2013q4/bin/../lib/gcc/arm-none-eabi/4.8.3/../../../../arm-none-eabi/lib/thumb/libm.a(lib_a-k_sin.o)
                                                  /opt/gcc-arm-none-eabi-4_8-2013q4/bin/../lib/gcc/arm-none-eabi/4.8.3/../../../../arm-none-eabi/lib/thumb/libm.a(lib_a-s_sin.o)
                                                  /opt/gcc-arm-none-eabi-4_8-2013q4/bin/../lib/gcc/arm-none-eabi/4.8.3/../../../../arm-none-eabi/lib/thumb/libm.a(lib_a-s_cos.o)
__kernel_sinf                                     /opt/gcc-arm-none-eabi-4_8-2013q4/bin/../lib/gcc/arm-none-eabi/4.8.3/../../../../arm-none-eabi/lib/thumb/libm.a(lib_a-kf_sin.o)
                                                  /opt/gcc-arm-none-eabi-4_8-2013q4/bin/../lib/gcc/arm-none-eabi/4.8.3/../../../../arm-none-eabi/lib/thumb/libm.a(lib_a-sf_sin.o)
                                                  /opt/gcc-arm-none-eabi-4_8-2013q4/bin/../lib/gcc/arm-none-eabi/4.8.3/../../../../arm-none-eabi/lib/thumb/libm.a(lib_a-sf_cos.o)
__kernel_tan                                      /opt/gcc-arm-none-eabi-4_8-2013q4/bin/../lib/gcc/arm-none-eabi/4.8.3/../../../../arm-none-eabi/lib/thumb/libm.a(lib_a-k_tan.o)
                                                  /opt/gcc-arm-none-eabi-4_8-2013q4/bin/../lib/gcc/arm-none-eabi/4.8.3/../../../../arm-none-eabi/lib/thumb/libm.a(lib_a-s_tan.o)
__kernel_tanf                                     /opt/gcc-arm-none-eabi-4_8-2013q4/bin/../lib/gcc/arm-none-eabi/4.8.3/../../../../arm-none-eabi/lib/thumb/libm.a(lib_a-kf_tan.o)
                                                  /opt/gcc-arm-none-eabi-4_8-2013q4/bin/../lib/gcc/arm-none-eabi/4.8.3/../../../../arm-none-eabi/lib/thumb/libm.a(lib_a-sf_tan.o)
__ledf2                                           /opt/gcc-arm-none-eabi-4_8-2013q4/bin/../lib/gcc/arm-none-eabi/4.8.3/thumb/libgcc.a(_arm_cmpdf2.o)
__lesf2                                           /opt/gcc-arm-none-eabi-4_8-2013q4/bin/../lib/gcc/arm-none-eabi/4.8.3/thumb/libgcc.a(_arm_cmpsf2.o)
__ltdf2                                           /opt/gcc-arm-none-eabi-4_8-2013q4/bin/../lib/gcc/arm-none-eabi/4.8.3/thumb/libgcc.a(_arm_cmpdf2.o)
__ltsf2                                           /opt/gcc-arm-none-eabi-4_8-2013q4/bin/../lib/gcc/arm-none-eabi/4.8.3/thumb/libgcc.a(_arm_cmpsf2.o)
__muldf3                                          /opt/gcc-arm-none-eabi-4_8-2013q4/bin/../lib/gcc/arm-none-eabi/4.8.3/thumb/libgcc.a(_arm_muldivdf3.o)
__mulsf3                                          /opt/gcc-arm-none-eabi-4_8-2013q4/bin/../lib/gcc/arm-none-eabi/4.8.3/thumb/libgcc.a(_arm_muldivsf3.o)
__nedf2                                           /opt/gcc-arm-none-eabi-4_8-2013q4/bin/../lib/gcc/arm-none-eabi/4.8.3/thumb/libgcc.a(_arm_cmpdf2.o)
__nesf2                                           /opt/gcc-arm-none-eabi-4_8-2013q4/bin/../lib/gcc/arm-none-eabi/4.8.3/thumb/libgcc.a(_arm_cmpsf2.o)
__subdf3                                          /opt/gcc-arm-none-eabi-4_8-2013q4/bin/../lib/gcc/arm-none-eabi/4.8.3/thumb/libgcc.a(_arm_addsubdf3.o)
__subsf3                                          /opt/gcc-arm-none-eabi-4_8-2013q4/bin/../lib/gcc/arm-none-eabi/4.8.3/thumb/libgcc.a(_arm_addsubsf3.o)
__truncdfsf2                                      /opt/gcc-arm-none-eabi-4_8-2013q4/bin/../lib/gcc/arm-none-eabi/4.8.3/thumb/libgcc.a(_arm_truncdfsf2.o)
__udivsi3                                         /opt/gcc-arm-none-eabi-4_8-2013q4/bin/../lib/gcc/arm-none-eabi/4.8.3/thumb/libgcc.a(_udivsi3.o)
_boot                                             /home/colibri/paparazziProto1/var/Colibri/ap/crt0.o
_data                                             /home/colibri/paparazziProto1/var/Colibri/ap/crt0.o
_edata                                            /home/colibri/paparazziProto1/var/Colibri/ap/crt0.o
_etext                                            /home/colibri/paparazziProto1/var/Colibri/ap/crt0.o
_global_impure_ptr                                /opt/gcc-arm-none-eabi-4_8-2013q4/bin/../lib/gcc/arm-none-eabi/4.8.3/../../../../arm-none-eabi/lib/thumb/libc.a(lib_a-impure.o)
_impure_ptr                                       /opt/gcc-arm-none-eabi-4_8-2013q4/bin/../lib/gcc/arm-none-eabi/4.8.3/../../../../arm-none-eabi/lib/thumb/libc.a(lib_a-impure.o)
                                                  /opt/gcc-arm-none-eabi-4_8-2013q4/bin/../lib/gcc/arm-none-eabi/4.8.3/../../../../arm-none-eabi/lib/thumb/libc.a(lib_a-errno.o)
_mainCRTStartup                                   /home/colibri/paparazziProto1/var/Colibri/ap/crt0.o
_reset                                            /home/colibri/paparazziProto1/var/Colibri/ap/crt0.o
_stack                                            /home/colibri/paparazziProto1/var/Colibri/ap/crt0.o
_start                                            /home/colibri/paparazziProto1/var/Colibri/ap/crt0.o
abort                                             /home/colibri/paparazziProto1/var/Colibri/ap/crt0.o
acos                                              /opt/gcc-arm-none-eabi-4_8-2013q4/bin/../lib/gcc/arm-none-eabi/4.8.3/../../../../arm-none-eabi/lib/thumb/libm.a(lib_a-w_acos.o)
                                                  /home/colibri/paparazziProto1/var/Colibri/ap/subsystems/navigation/snav.o
acs_idx                                           /home/colibri/paparazziProto1/var/Colibri/ap/firmwares/fixedwing/datalink.o
                                                  /home/colibri/paparazziProto1/var/Colibri/ap/subsystems/navigation/traffic_info.o
actuators                                         /home/colibri/paparazziProto1/var/Colibri/ap/actuators.o
                                                  /home/colibri/paparazziProto1/var/Colibri/ap/firmwares/fixedwing/main_fbw.o
actuators_init                                    /home/colibri/paparazziProto1/var/Colibri/ap/arch/lpc21/servos_4017_hw.o
                                                  /home/colibri/paparazziProto1/var/Colibri/ap/firmwares/fixedwing/main_fbw.o
adc0_val                                          /home/colibri/paparazziProto1/var/Colibri/ap/arch/lpc21/mcu_periph/adc_arch.o
adc1_val                                          /home/colibri/paparazziProto1/var/Colibri/ap/arch/lpc21/mcu_periph/adc_arch.o
adcISR0                                           /home/colibri/paparazziProto1/var/Colibri/ap/arch/lpc21/mcu_periph/adc_arch.o
adcISR1                                           /home/colibri/paparazziProto1/var/Colibri/ap/arch/lpc21/mcu_periph/adc_arch.o
adc_buf_channel                                   /home/colibri/paparazziProto1/var/Colibri/ap/arch/lpc21/mcu_periph/adc_arch.o
                                                  /home/colibri/paparazziProto1/var/Colibri/ap/subsystems/sensors/infrared_adc.o
                                                  /home/colibri/paparazziProto1/var/Colibri/ap/subsystems/electrical.o
adc_init                                          /home/colibri/paparazziProto1/var/Colibri/ap/arch/lpc21/mcu_periph/adc_arch.o
                                                  /home/colibri/paparazziProto1/var/Colibri/ap/mcu.o
ahrs                                              /home/colibri/paparazziProto1/var/Colibri/ap/subsystems/ahrs/ahrs_infrared.o
                                                  /home/colibri/paparazziProto1/var/Colibri/ap/subsystems/ahrs.o
ahrs_align                                        /home/colibri/paparazziProto1/var/Colibri/ap/subsystems/ahrs/ahrs_infrared.o
ahrs_float                                        /home/colibri/paparazziProto1/var/Colibri/ap/subsystems/ahrs/ahrs_infrared.o
                                                  /home/colibri/paparazziProto1/var/Colibri/ap/subsystems/ahrs.o
ahrs_init                                         /home/colibri/paparazziProto1/var/Colibri/ap/subsystems/ahrs/ahrs_infrared.o
                                                  /home/colibri/paparazziProto1/var/Colibri/ap/firmwares/fixedwing/main_ap.o
ahrs_mag_offset                                   /home/colibri/paparazziProto1/var/Colibri/ap/subsystems/ahrs.o
ahrs_propagate                                    /home/colibri/paparazziProto1/var/Colibri/ap/subsystems/ahrs/ahrs_infrared.o
ahrs_update_accel                                 /home/colibri/paparazziProto1/var/Colibri/ap/subsystems/ahrs/ahrs_infrared.o
ahrs_update_fw_estimator                          /home/colibri/paparazziProto1/var/Colibri/ap/subsystems/ahrs/ahrs_infrared.o
ahrs_update_gps                                   /home/colibri/paparazziProto1/var/Colibri/ap/subsystems/ahrs/ahrs_infrared.o
                                                  /home/colibri/paparazziProto1/var/Colibri/ap/firmwares/fixedwing/main_ap.o
ahrs_update_infrared                              /home/colibri/paparazziProto1/var/Colibri/ap/subsystems/ahrs/ahrs_infrared.o
                                                  /home/colibri/paparazziProto1/var/Colibri/ap/firmwares/fixedwing/main_ap.o
ahrs_update_mag                                   /home/colibri/paparazziProto1/var/Colibri/ap/subsystems/ahrs/ahrs_infrared.o
alt_kalman                                        /home/colibri/paparazziProto1/var/Colibri/ap/./estimator.o
alt_kalman_enabled                                /home/colibri/paparazziProto1/var/Colibri/ap/./estimator.o
alt_kalman_init                                   /home/colibri/paparazziProto1/var/Colibri/ap/./estimator.o
                                                  /home/colibri/paparazziProto1/var/Colibri/ap/firmwares/fixedwing/main_ap.o
alt_kalman_reset                                  /home/colibri/paparazziProto1/var/Colibri/ap/./estimator.o
ap_ok                                             /home/colibri/paparazziProto1/var/Colibri/ap/firmwares/fixedwing/main_fbw.o
                                                  /home/colibri/paparazziProto1/var/Colibri/ap/./inter_mcu.o
ap_state                                          /home/colibri/paparazziProto1/var/Colibri/ap/./inter_mcu.o
                                                  /home/colibri/paparazziProto1/var/Colibri/ap/firmwares/fixedwing/main_ap.o
                                                  /home/colibri/paparazziProto1/var/Colibri/ap/firmwares/fixedwing/main_fbw.o
app_angle                                         /home/colibri/paparazziProto1/var/Colibri/ap/subsystems/navigation/gls.o
app_intercept_af_tod                              /home/colibri/paparazziProto1/var/Colibri/ap/subsystems/navigation/gls.o
asin                                              /opt/gcc-arm-none-eabi-4_8-2013q4/bin/../lib/gcc/arm-none-eabi/4.8.3/../../../../arm-none-eabi/lib/thumb/libm.a(lib_a-w_asin.o)
                                                  /home/colibri/paparazziProto1/var/Colibri/ap/subsystems/navigation/spiral.o
                                                  /home/colibri/paparazziProto1/var/Colibri/ap/math/pprz_geodetic_double.o
                                                  /home/colibri/paparazziProto1/var/Colibri/ap/math/pprz_geodetic_float.o
atan                                              /opt/gcc-arm-none-eabi-4_8-2013q4/bin/../lib/gcc/arm-none-eabi/4.8.3/../../../../arm-none-eabi/lib/thumb/libm.a(lib_a-s_atan.o)
                                                  /opt/gcc-arm-none-eabi-4_8-2013q4/bin/../lib/gcc/arm-none-eabi/4.8.3/../../../../arm-none-eabi/lib/thumb/libm.a(lib_a-e_atan2.o)
                                                  /home/colibri/paparazziProto1/var/Colibri/ap/subsystems/nav.o
                                                  /home/colibri/paparazziProto1/var/Colibri/ap/math/pprz_geodetic_double.o
                                                  /home/colibri/paparazziProto1/var/Colibri/ap/math/pprz_geodetic_float.o
atan2                                             /opt/gcc-arm-none-eabi-4_8-2013q4/bin/../lib/gcc/arm-none-eabi/4.8.3/../../../../arm-none-eabi/lib/thumb/libm.a(lib_a-w_atan2.o)
                                                  /home/colibri/paparazziProto1/var/Colibri/ap/subsystems/ahrs/ahrs_infrared.o
                                                  /home/colibri/paparazziProto1/var/Colibri/ap/subsystems/navigation/border_line.o
                                                  /home/colibri/paparazziProto1/var/Colibri/ap/subsystems/navigation/snav.o
                                                  /home/colibri/paparazziProto1/var/Colibri/ap/subsystems/navigation/OSAMNav.o
                                                  /home/colibri/paparazziProto1/var/Colibri/ap/subsystems/navigation/discsurvey.o
                                                  /home/colibri/paparazziProto1/var/Colibri/ap/subsystems/navigation/nav_line.o
                                                  /home/colibri/paparazziProto1/var/Colibri/ap/subsystems/nav.o
                                                  /home/colibri/paparazziProto1/var/Colibri/ap/math/pprz_geodetic_double.o
atan2f                                            /opt/gcc-arm-none-eabi-4_8-2013q4/bin/../lib/gcc/arm-none-eabi/4.8.3/../../../../arm-none-eabi/lib/thumb/libm.a(lib_a-wf_atan2.o)
                                                  /home/colibri/paparazziProto1/var/Colibri/ap/subsystems/ahrs/ahrs_infrared.o
                                                  /home/colibri/paparazziProto1/var/Colibri/ap/math/pprz_geodetic_float.o
atanf                                             /opt/gcc-arm-none-eabi-4_8-2013q4/bin/../lib/gcc/arm-none-eabi/4.8.3/../../../../arm-none-eabi/lib/thumb/libm.a(lib_a-sf_atan.o)
                                                  /opt/gcc-arm-none-eabi-4_8-2013q4/bin/../lib/gcc/arm-none-eabi/4.8.3/../../../../arm-none-eabi/lib/thumb/libm.a(lib_a-ef_atan2.o)
                                                  /home/colibri/paparazziProto1/var/Colibri/ap/math/pprz_geodetic_float.o
attitude_loop                                     /home/colibri/paparazziProto1/var/Colibri/ap/firmwares/fixedwing/main_ap.o
attitude_tid                                      /home/colibri/paparazziProto1/var/Colibri/ap/firmwares/fixedwing/main_ap.o
block_time                                        /home/colibri/paparazziProto1/var/Colibri/ap/subsystems/navigation/common_flight_plan.o
                                                  /home/colibri/paparazziProto1/var/Colibri/ap/subsystems/nav.o
                                                  /home/colibri/paparazziProto1/var/Colibri/ap/firmwares/fixedwing/main_ap.o
border_line                                       /home/colibri/paparazziProto1/var/Colibri/ap/subsystems/navigation/border_line.o
border_line_init                                  /home/colibri/paparazziProto1/var/Colibri/ap/subsystems/navigation/border_line.o
carrot_x                                          /home/colibri/paparazziProto1/var/Colibri/ap/subsystems/nav.o
carrot_y                                          /home/colibri/paparazziProto1/var/Colibri/ap/subsystems/nav.o
circle_bank                                       /home/colibri/paparazziProto1/var/Colibri/ap/subsystems/nav.o
ck_a                                              /home/colibri/paparazziProto1/var/Colibri/ap/firmwares/fixedwing/datalink.o
                                                  /home/colibri/paparazziProto1/var/Colibri/ap/subsystems/datalink/pprz_transport.o
                                                  /home/colibri/paparazziProto1/var/Colibri/ap/firmwares/fixedwing/main_ap.o
                                                  /home/colibri/paparazziProto1/var/Colibri/ap/firmwares/fixedwing/main_fbw.o
ck_b                                              /home/colibri/paparazziProto1/var/Colibri/ap/firmwares/fixedwing/datalink.o
                                                  /home/colibri/paparazziProto1/var/Colibri/ap/subsystems/datalink/pprz_transport.o
                                                  /home/colibri/paparazziProto1/var/Colibri/ap/firmwares/fixedwing/main_ap.o
                                                  /home/colibri/paparazziProto1/var/Colibri/ap/firmwares/fixedwing/main_fbw.o
combi_switch_status                               /home/colibri/paparazziProto1/var/Colibri/ap/firmwares/fixedwing/main_ap.o
combi_switch_value                                /home/colibri/paparazziProto1/var/Colibri/ap/firmwares/fixedwing/main_ap.o
command_pitch_trim                                /home/colibri/paparazziProto1/var/Colibri/ap/./commands.o
                                                  /home/colibri/paparazziProto1/var/Colibri/ap/firmwares/fixedwing/main_fbw.o
command_roll_trim                                 /home/colibri/paparazziProto1/var/Colibri/ap/./commands.o
                                                  /home/colibri/paparazziProto1/var/Colibri/ap/firmwares/fixedwing/main_fbw.o
commands                                          /home/colibri/paparazziProto1/var/Colibri/ap/./commands.o
                                                  /home/colibri/paparazziProto1/var/Colibri/ap/firmwares/fixedwing/main_fbw.o
commands_failsafe                                 /home/colibri/paparazziProto1/var/Colibri/ap/./commands.o
                                                  /home/colibri/paparazziProto1/var/Colibri/ap/firmwares/fixedwing/main_fbw.o
common_nav_periodic_task_4Hz                      /home/colibri/paparazziProto1/var/Colibri/ap/subsystems/nav.o
                                                  /home/colibri/paparazziProto1/var/Colibri/ap/firmwares/fixedwing/main_ap.o
compute_dist2_to_home                             /home/colibri/paparazziProto1/var/Colibri/ap/subsystems/nav.o
copysign                                          /opt/gcc-arm-none-eabi-4_8-2013q4/bin/../lib/gcc/arm-none-eabi/4.8.3/../../../../arm-none-eabi/lib/thumb/libm.a(lib_a-s_copysign.o)
                                                  /opt/gcc-arm-none-eabi-4_8-2013q4/bin/../lib/gcc/arm-none-eabi/4.8.3/../../../../arm-none-eabi/lib/thumb/libm.a(lib_a-s_scalbn.o)
copysignf                                         /opt/gcc-arm-none-eabi-4_8-2013q4/bin/../lib/gcc/arm-none-eabi/4.8.3/../../../../arm-none-eabi/lib/thumb/libm.a(lib_a-sf_copysign.o)
                                                  /opt/gcc-arm-none-eabi-4_8-2013q4/bin/../lib/gcc/arm-none-eabi/4.8.3/../../../../arm-none-eabi/lib/thumb/libm.a(lib_a-sf_scalbn.o)
cos                                               /opt/gcc-arm-none-eabi-4_8-2013q4/bin/../lib/gcc/arm-none-eabi/4.8.3/../../../../arm-none-eabi/lib/thumb/libm.a(lib_a-s_cos.o)
                                                  /home/colibri/paparazziProto1/var/Colibri/ap/subsystems/navigation/border_line.o
                                                  /home/colibri/paparazziProto1/var/Colibri/ap/subsystems/navigation/snav.o
                                                  /home/colibri/paparazziProto1/var/Colibri/ap/subsystems/navigation/OSAMNav.o
                                                  /home/colibri/paparazziProto1/var/Colibri/ap/subsystems/navigation/discsurvey.o
                                                  /home/colibri/paparazziProto1/var/Colibri/ap/subsystems/navigation/nav_cube.o
                                                  /home/colibri/paparazziProto1/var/Colibri/ap/subsystems/nav.o
                                                  /home/colibri/paparazziProto1/var/Colibri/ap/math/pprz_geodetic_double.o
                                                  /home/colibri/paparazziProto1/var/Colibri/ap/math/pprz_geodetic_float.o
cosf                                              /opt/gcc-arm-none-eabi-4_8-2013q4/bin/../lib/gcc/arm-none-eabi/4.8.3/../../../../arm-none-eabi/lib/thumb/libm.a(lib_a-sf_cos.o)
                                                  /home/colibri/paparazziProto1/var/Colibri/ap/subsystems/ahrs/ahrs_infrared.o
                                                  /home/colibri/paparazziProto1/var/Colibri/ap/math/pprz_geodetic_double.o
                                                  /home/colibri/paparazziProto1/var/Colibri/ap/math/pprz_geodetic_float.o
                                                  /home/colibri/paparazziProto1/var/Colibri/ap/math/pprz_geodetic_int.o
cosh                                              /opt/gcc-arm-none-eabi-4_8-2013q4/bin/../lib/gcc/arm-none-eabi/4.8.3/../../../../arm-none-eabi/lib/thumb/libm.a(lib_a-w_cosh.o)
                                                  /home/colibri/paparazziProto1/var/Colibri/ap/math/pprz_geodetic_double.o
                                                  /home/colibri/paparazziProto1/var/Colibri/ap/math/pprz_geodetic_float.o
cube_alpha                                        /home/colibri/paparazziProto1/var/Colibri/ap/subsystems/navigation/nav_cube.o
cube_grid_x                                       /home/colibri/paparazziProto1/var/Colibri/ap/subsystems/navigation/nav_cube.o
cube_grid_z                                       /home/colibri/paparazziProto1/var/Colibri/ap/subsystems/navigation/nav_cube.o
cube_nline_x                                      /home/colibri/paparazziProto1/var/Colibri/ap/subsystems/navigation/nav_cube.o
cube_nline_z                                      /home/colibri/paparazziProto1/var/Colibri/ap/subsystems/navigation/nav_cube.o
cube_nsect_x                                      /home/colibri/paparazziProto1/var/Colibri/ap/subsystems/navigation/nav_cube.o
cube_nsect_z                                      /home/colibri/paparazziProto1/var/Colibri/ap/subsystems/navigation/nav_cube.o
cube_offs_x                                       /home/colibri/paparazziProto1/var/Colibri/ap/subsystems/navigation/nav_cube.o
cube_offs_y                                       /home/colibri/paparazziProto1/var/Colibri/ap/subsystems/navigation/nav_cube.o
cube_offs_z                                       /home/colibri/paparazziProto1/var/Colibri/ap/subsystems/navigation/nav_cube.o
cube_sect                                         /home/colibri/paparazziProto1/var/Colibri/ap/subsystems/navigation/nav_cube.o
cube_size_x                                       /home/colibri/paparazziProto1/var/Colibri/ap/subsystems/navigation/nav_cube.o
cube_size_y                                       /home/colibri/paparazziProto1/var/Colibri/ap/subsystems/navigation/nav_cube.o
cube_size_z                                       /home/colibri/paparazziProto1/var/Colibri/ap/subsystems/navigation/nav_cube.o
datalink_time                                     /home/colibri/paparazziProto1/var/Colibri/ap/firmwares/fixedwing/datalink.o
                                                  /home/colibri/paparazziProto1/var/Colibri/ap/firmwares/fixedwing/main_ap.o
desired_x                                         /home/colibri/paparazziProto1/var/Colibri/ap/subsystems/nav.o
                                                  /home/colibri/paparazziProto1/var/Colibri/ap/firmwares/fixedwing/main_ap.o
desired_y                                         /home/colibri/paparazziProto1/var/Colibri/ap/subsystems/nav.o
                                                  /home/colibri/paparazziProto1/var/Colibri/ap/firmwares/fixedwing/main_ap.o
dir_vec                                           /home/colibri/paparazziProto1/var/Colibri/ap/subsystems/navigation/poly_survey_adv.o
disableFIQ                                        /home/colibri/paparazziProto1/var/Colibri/ap/arch/lpc21/armVIC.o
disableIRQ                                        /home/colibri/paparazziProto1/var/Colibri/ap/arch/lpc21/armVIC.o
                                                  /home/colibri/paparazziProto1/var/Colibri/ap/arch/lpc21/subsystems/settings_arch.o
                                                  /home/colibri/paparazziProto1/var/Colibri/ap/arch/lpc21/mcu_periph/uart_arch.o
                                                  /home/colibri/paparazziProto1/var/Colibri/ap/arch/lpc21/mcu_periph/i2c_arch.o
                                                  /home/colibri/paparazziProto1/var/Colibri/ap/mcu_periph/sys_time.o
disc_survey                                       /home/colibri/paparazziProto1/var/Colibri/ap/subsystems/navigation/discsurvey.o
disc_survey_init                                  /home/colibri/paparazziProto1/var/Colibri/ap/subsystems/navigation/discsurvey.o
dist2_to_home                                     /home/colibri/paparazziProto1/var/Colibri/ap/firmwares/fixedwing/datalink.o
                                                  /home/colibri/paparazziProto1/var/Colibri/ap/subsystems/nav.o
                                                  /home/colibri/paparazziProto1/var/Colibri/ap/firmwares/fixedwing/main_ap.o
dist2_to_wp                                       /home/colibri/paparazziProto1/var/Colibri/ap/firmwares/fixedwing/datalink.o
                                                  /home/colibri/paparazziProto1/var/Colibri/ap/subsystems/nav.o
                                                  /home/colibri/paparazziProto1/var/Colibri/ap/firmwares/fixedwing/main_ap.o
dl_buffer                                         /home/colibri/paparazziProto1/var/Colibri/ap/firmwares/fixedwing/datalink.o
                                                  /home/colibri/paparazziProto1/var/Colibri/ap/firmwares/fixedwing/main_ap.o
dl_msg_available                                  /home/colibri/paparazziProto1/var/Colibri/ap/firmwares/fixedwing/datalink.o
                                                  /home/colibri/paparazziProto1/var/Colibri/ap/firmwares/fixedwing/main_ap.o
dl_parse_msg                                      /home/colibri/paparazziProto1/var/Colibri/ap/firmwares/fixedwing/datalink.o
                                                  /home/colibri/paparazziProto1/var/Colibri/ap/firmwares/fixedwing/main_ap.o
downlink_nb_bytes                                 /home/colibri/paparazziProto1/var/Colibri/ap/firmwares/fixedwing/datalink.o
                                                  /home/colibri/paparazziProto1/var/Colibri/ap/subsystems/datalink/downlink.o
                                                  /home/colibri/paparazziProto1/var/Colibri/ap/firmwares/fixedwing/main_ap.o
                                                  /home/colibri/paparazziProto1/var/Colibri/ap/firmwares/fixedwing/main_fbw.o
downlink_nb_msgs                                  /home/colibri/paparazziProto1/var/Colibri/ap/firmwares/fixedwing/datalink.o
                                                  /home/colibri/paparazziProto1/var/Colibri/ap/subsystems/datalink/downlink.o
                                                  /home/colibri/paparazziProto1/var/Colibri/ap/firmwares/fixedwing/main_ap.o
                                                  /home/colibri/paparazziProto1/var/Colibri/ap/firmwares/fixedwing/main_fbw.o
downlink_nb_ovrn                                  /home/colibri/paparazziProto1/var/Colibri/ap/firmwares/fixedwing/datalink.o
                                                  /home/colibri/paparazziProto1/var/Colibri/ap/subsystems/datalink/downlink.o
                                                  /home/colibri/paparazziProto1/var/Colibri/ap/firmwares/fixedwing/main_ap.o
                                                  /home/colibri/paparazziProto1/var/Colibri/ap/firmwares/fixedwing/main_fbw.o
ecef_of_enu_point_d                               /home/colibri/paparazziProto1/var/Colibri/ap/math/pprz_geodetic_double.o
ecef_of_enu_point_f                               /home/colibri/paparazziProto1/var/Colibri/ap/math/pprz_geodetic_float.o
ecef_of_enu_point_i                               /home/colibri/paparazziProto1/var/Colibri/ap/math/pprz_geodetic_int.o
ecef_of_enu_vect_d                                /home/colibri/paparazziProto1/var/Colibri/ap/math/pprz_geodetic_double.o
ecef_of_enu_vect_f                                /home/colibri/paparazziProto1/var/Colibri/ap/math/pprz_geodetic_float.o
ecef_of_enu_vect_i                                /home/colibri/paparazziProto1/var/Colibri/ap/math/pprz_geodetic_int.o
ecef_of_lla_d                                     /home/colibri/paparazziProto1/var/Colibri/ap/math/pprz_geodetic_double.o
                                                  /home/colibri/paparazziProto1/var/Colibri/ap/math/pprz_geodetic_int.o
ecef_of_lla_f                                     /home/colibri/paparazziProto1/var/Colibri/ap/math/pprz_geodetic_float.o
ecef_of_lla_i                                     /home/colibri/paparazziProto1/var/Colibri/ap/math/pprz_geodetic_int.o
ecef_of_ned_point_d                               /home/colibri/paparazziProto1/var/Colibri/ap/math/pprz_geodetic_double.o
ecef_of_ned_point_f                               /home/colibri/paparazziProto1/var/Colibri/ap/math/pprz_geodetic_float.o
ecef_of_ned_point_i                               /home/colibri/paparazziProto1/var/Colibri/ap/math/pprz_geodetic_int.o
ecef_of_ned_vect_d                                /home/colibri/paparazziProto1/var/Colibri/ap/math/pprz_geodetic_double.o
ecef_of_ned_vect_f                                /home/colibri/paparazziProto1/var/Colibri/ap/math/pprz_geodetic_float.o
ecef_of_ned_vect_i                                /home/colibri/paparazziProto1/var/Colibri/ap/math/pprz_geodetic_int.o
electrical                                        /home/colibri/paparazziProto1/var/Colibri/ap/firmwares/fixedwing/main_ap.o
                                                  /home/colibri/paparazziProto1/var/Colibri/ap/subsystems/electrical.o
                                                  /home/colibri/paparazziProto1/var/Colibri/ap/firmwares/fixedwing/main_fbw.o
electrical_init                                   /home/colibri/paparazziProto1/var/Colibri/ap/subsystems/electrical.o
                                                  /home/colibri/paparazziProto1/var/Colibri/ap/firmwares/fixedwing/main_fbw.o
electrical_periodic                               /home/colibri/paparazziProto1/var/Colibri/ap/subsystems/electrical.o
                                                  /home/colibri/paparazziProto1/var/Colibri/ap/firmwares/fixedwing/main_fbw.o
electrical_tid                                    /home/colibri/paparazziProto1/var/Colibri/ap/firmwares/fixedwing/main_fbw.o
enableFIQ                                         /home/colibri/paparazziProto1/var/Colibri/ap/arch/lpc21/armVIC.o
enableIRQ                                         /home/colibri/paparazziProto1/var/Colibri/ap/arch/lpc21/armVIC.o
                                                  /home/colibri/paparazziProto1/var/Colibri/ap/arch/lpc21/subsystems/settings_arch.o
                                                  /home/colibri/paparazziProto1/var/Colibri/ap/firmwares/fixedwing/main_ap.o
                                                  /home/colibri/paparazziProto1/var/Colibri/ap/arch/lpc21/mcu_periph/i2c_arch.o
                                                  /home/colibri/paparazziProto1/var/Colibri/ap/mcu_periph/sys_time.o
energy                                            /home/colibri/paparazziProto1/var/Colibri/ap/firmwares/fixedwing/main_ap.o
entry_center                                      /home/colibri/paparazziProto1/var/Colibri/ap/subsystems/navigation/poly_survey_adv.o
enu_of_ecef_point_d                               /home/colibri/paparazziProto1/var/Colibri/ap/math/pprz_geodetic_double.o
enu_of_ecef_point_f                               /home/colibri/paparazziProto1/var/Colibri/ap/math/pprz_geodetic_float.o
enu_of_ecef_point_i                               /home/colibri/paparazziProto1/var/Colibri/ap/math/pprz_geodetic_int.o
enu_of_ecef_vect_d                                /home/colibri/paparazziProto1/var/Colibri/ap/math/pprz_geodetic_double.o
enu_of_ecef_vect_f                                /home/colibri/paparazziProto1/var/Colibri/ap/math/pprz_geodetic_float.o
enu_of_ecef_vect_i                                /home/colibri/paparazziProto1/var/Colibri/ap/math/pprz_geodetic_int.o
enu_of_lla_point_f                                /home/colibri/paparazziProto1/var/Colibri/ap/math/pprz_geodetic_float.o
enu_of_lla_point_i                                /home/colibri/paparazziProto1/var/Colibri/ap/math/pprz_geodetic_int.o
enu_of_lla_vect_i                                 /home/colibri/paparazziProto1/var/Colibri/ap/math/pprz_geodetic_int.o
estimator_AOA                                     /home/colibri/paparazziProto1/var/Colibri/ap/./estimator.o
estimator_airspeed                                /home/colibri/paparazziProto1/var/Colibri/ap/firmwares/fixedwing/datalink.o
                                                  /home/colibri/paparazziProto1/var/Colibri/ap/subsystems/navigation/snav.o
                                                  /home/colibri/paparazziProto1/var/Colibri/ap/./estimator.o
estimator_flight_time                             /home/colibri/paparazziProto1/var/Colibri/ap/firmwares/fixedwing/datalink.o
                                                  /home/colibri/paparazziProto1/var/Colibri/ap/./estimator.o
                                                  /home/colibri/paparazziProto1/var/Colibri/ap/firmwares/fixedwing/main_ap.o
estimator_hspeed_dir                              /home/colibri/paparazziProto1/var/Colibri/ap/subsystems/navigation/poly_survey_adv.o
                                                  /home/colibri/paparazziProto1/var/Colibri/ap/subsystems/navigation/snav.o
                                                  /home/colibri/paparazziProto1/var/Colibri/ap/subsystems/navigation/nav_survey_rectangle.o
                                                  /home/colibri/paparazziProto1/var/Colibri/ap/subsystems/nav.o
                                                  /home/colibri/paparazziProto1/var/Colibri/ap/firmwares/fixedwing/stabilization/stabilization_attitude.o
                                                  /home/colibri/paparazziProto1/var/Colibri/ap/./estimator.o
estimator_hspeed_mod                              /home/colibri/paparazziProto1/var/Colibri/ap/subsystems/navigation/gls.o
                                                  /home/colibri/paparazziProto1/var/Colibri/ap/subsystems/navigation/OSAMNav.o
                                                  /home/colibri/paparazziProto1/var/Colibri/ap/subsystems/nav.o
                                                  /home/colibri/paparazziProto1/var/Colibri/ap/firmwares/fixedwing/stabilization/stabilization_attitude.o
                                                  /home/colibri/paparazziProto1/var/Colibri/ap/./estimator.o
                                                  /home/colibri/paparazziProto1/var/Colibri/ap/firmwares/fixedwing/main_ap.o
estimator_init                                    /home/colibri/paparazziProto1/var/Colibri/ap/./estimator.o
                                                  /home/colibri/paparazziProto1/var/Colibri/ap/firmwares/fixedwing/main_ap.o
estimator_p                                       /home/colibri/paparazziProto1/var/Colibri/ap/subsystems/ahrs/ahrs_infrared.o
                                                  /home/colibri/paparazziProto1/var/Colibri/ap/firmwares/fixedwing/stabilization/stabilization_attitude.o
                                                  /home/colibri/paparazziProto1/var/Colibri/ap/./estimator.o
estimator_phi                                     /home/colibri/paparazziProto1/var/Colibri/ap/subsystems/ahrs/ahrs_infrared.o
                                                  /home/colibri/paparazziProto1/var/Colibri/ap/firmwares/fixedwing/stabilization/stabilization_attitude.o
                                                  /home/colibri/paparazziProto1/var/Colibri/ap/./estimator.o
                                                  /home/colibri/paparazziProto1/var/Colibri/ap/firmwares/fixedwing/main_ap.o
estimator_psi                                     /home/colibri/paparazziProto1/var/Colibri/ap/subsystems/ahrs/ahrs_infrared.o
                                                  /home/colibri/paparazziProto1/var/Colibri/ap/./estimator.o
                                                  /home/colibri/paparazziProto1/var/Colibri/ap/firmwares/fixedwing/main_ap.o
estimator_q                                       /home/colibri/paparazziProto1/var/Colibri/ap/subsystems/ahrs/ahrs_infrared.o
                                                  /home/colibri/paparazziProto1/var/Colibri/ap/./estimator.o
estimator_r                                       /home/colibri/paparazziProto1/var/Colibri/ap/subsystems/ahrs/ahrs_infrared.o
                                                  /home/colibri/paparazziProto1/var/Colibri/ap/./estimator.o
estimator_t                                       /home/colibri/paparazziProto1/var/Colibri/ap/./estimator.o
estimator_theta                                   /home/colibri/paparazziProto1/var/Colibri/ap/subsystems/ahrs/ahrs_infrared.o
                                                  /home/colibri/paparazziProto1/var/Colibri/ap/firmwares/fixedwing/stabilization/stabilization_attitude.o
                                                  /home/colibri/paparazziProto1/var/Colibri/ap/./estimator.o
                                                  /home/colibri/paparazziProto1/var/Colibri/ap/firmwares/fixedwing/main_ap.o
estimator_update_state_gps                        /home/colibri/paparazziProto1/var/Colibri/ap/./estimator.o
                                                  /home/colibri/paparazziProto1/var/Colibri/ap/firmwares/fixedwing/main_ap.o
estimator_x                                       /home/colibri/paparazziProto1/var/Colibri/ap/firmwares/fixedwing/datalink.o
                                                  /home/colibri/paparazziProto1/var/Colibri/ap/subsystems/navigation/gls.o
                                                  /home/colibri/paparazziProto1/var/Colibri/ap/subsystems/navigation/spiral.o
                                                  /home/colibri/paparazziProto1/var/Colibri/ap/subsystems/navigation/snav.o
                                                  /home/colibri/paparazziProto1/var/Colibri/ap/subsystems/navigation/OSAMNav.o
                                                  /home/colibri/paparazziProto1/var/Colibri/ap/subsystems/navigation/discsurvey.o
                                                  /home/colibri/paparazziProto1/var/Colibri/ap/subsystems/navigation/nav_survey_rectangle.o
                                                  /home/colibri/paparazziProto1/var/Colibri/ap/subsystems/nav.o
                                                  /home/colibri/paparazziProto1/var/Colibri/ap/./estimator.o
                                                  /home/colibri/paparazziProto1/var/Colibri/ap/firmwares/fixedwing/main_ap.o
estimator_y                                       /home/colibri/paparazziProto1/var/Colibri/ap/firmwares/fixedwing/datalink.o
                                                  /home/colibri/paparazziProto1/var/Colibri/ap/subsystems/navigation/gls.o
                                                  /home/colibri/paparazziProto1/var/Colibri/ap/subsystems/navigation/spiral.o
                                                  /home/colibri/paparazziProto1/var/Colibri/ap/subsystems/navigation/snav.o
                                                  /home/colibri/paparazziProto1/var/Colibri/ap/subsystems/navigation/OSAMNav.o
                                                  /home/colibri/paparazziProto1/var/Colibri/ap/subsystems/navigation/discsurvey.o
                                                  /home/colibri/paparazziProto1/var/Colibri/ap/subsystems/navigation/nav_survey_rectangle.o
                                                  /home/colibri/paparazziProto1/var/Colibri/ap/subsystems/nav.o
                                                  /home/colibri/paparazziProto1/var/Colibri/ap/./estimator.o
                                                  /home/colibri/paparazziProto1/var/Colibri/ap/firmwares/fixedwing/main_ap.o
estimator_z                                       /home/colibri/paparazziProto1/var/Colibri/ap/subsystems/navigation/poly_survey_adv.o
                                                  /home/colibri/paparazziProto1/var/Colibri/ap/subsystems/navigation/spiral.o
                                                  /home/colibri/paparazziProto1/var/Colibri/ap/subsystems/navigation/OSAMNav.o
                                                  /home/colibri/paparazziProto1/var/Colibri/ap/subsystems/nav.o
                                                  /home/colibri/paparazziProto1/var/Colibri/ap/firmwares/fixedwing/guidance/guidance_v.o
                                                  /home/colibri/paparazziProto1/var/Colibri/ap/./estimator.o
                                                  /home/colibri/paparazziProto1/var/Colibri/ap/firmwares/fixedwing/main_ap.o
estimator_z_dot                                   /home/colibri/paparazziProto1/var/Colibri/ap/firmwares/fixedwing/guidance/guidance_v.o
                                                  /home/colibri/paparazziProto1/var/Colibri/ap/./estimator.o
                                                  /home/colibri/paparazziProto1/var/Colibri/ap/firmwares/fixedwing/main_ap.o
event_task_ap                                     /home/colibri/paparazziProto1/var/Colibri/ap/firmwares/fixedwing/main_ap.o
                                                  /home/colibri/paparazziProto1/var/Colibri/ap/firmwares/fixedwing/main.o
event_task_fbw                                    /home/colibri/paparazziProto1/var/Colibri/ap/firmwares/fixedwing/main_fbw.o
                                                  /home/colibri/paparazziProto1/var/Colibri/ap/firmwares/fixedwing/main.o
exit                                              /home/colibri/paparazziProto1/var/Colibri/ap/crt0.o
exp                                               /opt/gcc-arm-none-eabi-4_8-2013q4/bin/../lib/gcc/arm-none-eabi/4.8.3/../../../../arm-none-eabi/lib/thumb/libm.a(lib_a-w_exp.o)
                                                  /home/colibri/paparazziProto1/var/Colibri/ap/math/pprz_geodetic_double.o
                                                  /home/colibri/paparazziProto1/var/Colibri/ap/math/pprz_geodetic_float.o
expm1                                             /opt/gcc-arm-none-eabi-4_8-2013q4/bin/../lib/gcc/arm-none-eabi/4.8.3/../../../../arm-none-eabi/lib/thumb/libm.a(lib_a-s_expm1.o)
                                                  /opt/gcc-arm-none-eabi-4_8-2013q4/bin/../lib/gcc/arm-none-eabi/4.8.3/../../../../arm-none-eabi/lib/thumb/libm.a(lib_a-e_sinh.o)
                                                  /opt/gcc-arm-none-eabi-4_8-2013q4/bin/../lib/gcc/arm-none-eabi/4.8.3/../../../../arm-none-eabi/lib/thumb/libm.a(lib_a-e_cosh.o)
fabs                                              /opt/gcc-arm-none-eabi-4_8-2013q4/bin/../lib/gcc/arm-none-eabi/4.8.3/../../../../arm-none-eabi/lib/thumb/libm.a(lib_a-s_fabs.o)
                                                  /opt/gcc-arm-none-eabi-4_8-2013q4/bin/../lib/gcc/arm-none-eabi/4.8.3/../../../../arm-none-eabi/lib/thumb/libm.a(lib_a-k_tan.o)
                                                  /opt/gcc-arm-none-eabi-4_8-2013q4/bin/../lib/gcc/arm-none-eabi/4.8.3/../../../../arm-none-eabi/lib/thumb/libm.a(lib_a-e_sinh.o)
                                                  /opt/gcc-arm-none-eabi-4_8-2013q4/bin/../lib/gcc/arm-none-eabi/4.8.3/../../../../arm-none-eabi/lib/thumb/libm.a(lib_a-e_rem_pio2.o)
                                                  /opt/gcc-arm-none-eabi-4_8-2013q4/bin/../lib/gcc/arm-none-eabi/4.8.3/../../../../arm-none-eabi/lib/thumb/libm.a(lib_a-e_pow.o)
                                                  /opt/gcc-arm-none-eabi-4_8-2013q4/bin/../lib/gcc/arm-none-eabi/4.8.3/../../../../arm-none-eabi/lib/thumb/libm.a(lib_a-e_cosh.o)
                                                  /opt/gcc-arm-none-eabi-4_8-2013q4/bin/../lib/gcc/arm-none-eabi/4.8.3/../../../../arm-none-eabi/lib/thumb/libm.a(lib_a-e_atan2.o)
                                                  /opt/gcc-arm-none-eabi-4_8-2013q4/bin/../lib/gcc/arm-none-eabi/4.8.3/../../../../arm-none-eabi/lib/thumb/libm.a(lib_a-e_asin.o)
                                                  /opt/gcc-arm-none-eabi-4_8-2013q4/bin/../lib/gcc/arm-none-eabi/4.8.3/../../../../arm-none-eabi/lib/thumb/libm.a(lib_a-w_cosh.o)
                                                  /opt/gcc-arm-none-eabi-4_8-2013q4/bin/../lib/gcc/arm-none-eabi/4.8.3/../../../../arm-none-eabi/lib/thumb/libm.a(lib_a-w_asin.o)
                                                  /opt/gcc-arm-none-eabi-4_8-2013q4/bin/../lib/gcc/arm-none-eabi/4.8.3/../../../../arm-none-eabi/lib/thumb/libm.a(lib_a-w_acos.o)
                                                  /opt/gcc-arm-none-eabi-4_8-2013q4/bin/../lib/gcc/arm-none-eabi/4.8.3/../../../../arm-none-eabi/lib/thumb/libm.a(lib_a-s_atan.o)
fabsf                                             /opt/gcc-arm-none-eabi-4_8-2013q4/bin/../lib/gcc/arm-none-eabi/4.8.3/../../../../arm-none-eabi/lib/thumb/libm.a(lib_a-sf_fabs.o)
                                                  /opt/gcc-arm-none-eabi-4_8-2013q4/bin/../lib/gcc/arm-none-eabi/4.8.3/../../../../arm-none-eabi/lib/thumb/libm.a(lib_a-kf_tan.o)
                                                  /opt/gcc-arm-none-eabi-4_8-2013q4/bin/../lib/gcc/arm-none-eabi/4.8.3/../../../../arm-none-eabi/lib/thumb/libm.a(lib_a-ef_rem_pio2.o)
                                                  /opt/gcc-arm-none-eabi-4_8-2013q4/bin/../lib/gcc/arm-none-eabi/4.8.3/../../../../arm-none-eabi/lib/thumb/libm.a(lib_a-ef_pow.o)
                                                  /opt/gcc-arm-none-eabi-4_8-2013q4/bin/../lib/gcc/arm-none-eabi/4.8.3/../../../../arm-none-eabi/lib/thumb/libm.a(lib_a-ef_atan2.o)
                                                  /opt/gcc-arm-none-eabi-4_8-2013q4/bin/../lib/gcc/arm-none-eabi/4.8.3/../../../../arm-none-eabi/lib/thumb/libm.a(lib_a-sf_atan.o)
fbw_mode                                          /home/colibri/paparazziProto1/var/Colibri/ap/firmwares/fixedwing/main_fbw.o
fbw_new_actuators                                 /home/colibri/paparazziProto1/var/Colibri/ap/firmwares/fixedwing/main_fbw.o
fbw_periodic_tid                                  /home/colibri/paparazziProto1/var/Colibri/ap/firmwares/fixedwing/main_fbw.o
fbw_state                                         /home/colibri/paparazziProto1/var/Colibri/ap/./inter_mcu.o
                                                  /home/colibri/paparazziProto1/var/Colibri/ap/firmwares/fixedwing/main_ap.o
                                                  /home/colibri/paparazziProto1/var/Colibri/ap/firmwares/fixedwing/main_fbw.o
finite                                            /opt/gcc-arm-none-eabi-4_8-2013q4/bin/../lib/gcc/arm-none-eabi/4.8.3/../../../../arm-none-eabi/lib/thumb/libm.a(lib_a-s_finite.o)
                                                  /opt/gcc-arm-none-eabi-4_8-2013q4/bin/../lib/gcc/arm-none-eabi/4.8.3/../../../../arm-none-eabi/lib/thumb/libm.a(lib_a-w_sinh.o)
                                                  /opt/gcc-arm-none-eabi-4_8-2013q4/bin/../lib/gcc/arm-none-eabi/4.8.3/../../../../arm-none-eabi/lib/thumb/libm.a(lib_a-w_pow.o)
                                                  /opt/gcc-arm-none-eabi-4_8-2013q4/bin/../lib/gcc/arm-none-eabi/4.8.3/../../../../arm-none-eabi/lib/thumb/libm.a(lib_a-w_exp.o)
finitef                                           /opt/gcc-arm-none-eabi-4_8-2013q4/bin/../lib/gcc/arm-none-eabi/4.8.3/../../../../arm-none-eabi/lib/thumb/libm.a(lib_a-sf_finite.o)
                                                  /opt/gcc-arm-none-eabi-4_8-2013q4/bin/../lib/gcc/arm-none-eabi/4.8.3/../../../../arm-none-eabi/lib/thumb/libm.a(lib_a-wf_pow.o)
flight_altitude                                   /home/colibri/paparazziProto1/var/Colibri/ap/firmwares/fixedwing/datalink.o
                                                  /home/colibri/paparazziProto1/var/Colibri/ap/subsystems/nav.o
                                                  /home/colibri/paparazziProto1/var/Colibri/ap/firmwares/fixedwing/main_ap.o
floor                                             /opt/gcc-arm-none-eabi-4_8-2013q4/bin/../lib/gcc/arm-none-eabi/4.8.3/../../../../arm-none-eabi/lib/thumb/libm.a(lib_a-s_floor.o)
                                                  /opt/gcc-arm-none-eabi-4_8-2013q4/bin/../lib/gcc/arm-none-eabi/4.8.3/../../../../arm-none-eabi/lib/thumb/libm.a(lib_a-k_rem_pio2.o)
floorf                                            /opt/gcc-arm-none-eabi-4_8-2013q4/bin/../lib/gcc/arm-none-eabi/4.8.3/../../../../arm-none-eabi/lib/thumb/libm.a(lib_a-sf_floor.o)
                                                  /opt/gcc-arm-none-eabi-4_8-2013q4/bin/../lib/gcc/arm-none-eabi/4.8.3/../../../../arm-none-eabi/lib/thumb/libm.a(lib_a-kf_rem_pio2.o)
fly_to_xy                                         /home/colibri/paparazziProto1/var/Colibri/ap/subsystems/nav.o
fp_pitch                                          /home/colibri/paparazziProto1/var/Colibri/ap/subsystems/nav.o
gc_of_gd_lat_d                                    /home/colibri/paparazziProto1/var/Colibri/ap/math/pprz_geodetic_double.o
get_ac_info                                       /home/colibri/paparazziProto1/var/Colibri/ap/subsystems/navigation/traffic_info.o
gls                                               /home/colibri/paparazziProto1/var/Colibri/ap/subsystems/navigation/gls.o
gls_init                                          /home/colibri/paparazziProto1/var/Colibri/ap/subsystems/navigation/gls.o
gps                                               /home/colibri/paparazziProto1/var/Colibri/ap/subsystems/gps.o
                                                  /home/colibri/paparazziProto1/var/Colibri/ap/subsystems/gps/gps_ubx.o
                                                  /home/colibri/paparazziProto1/var/Colibri/ap/subsystems/ahrs/ahrs_infrared.o
                                                  /home/colibri/paparazziProto1/var/Colibri/ap/firmwares/fixedwing/datalink.o
                                                  /home/colibri/paparazziProto1/var/Colibri/ap/subsystems/navigation/snav.o
                                                  /home/colibri/paparazziProto1/var/Colibri/ap/subsystems/nav.o
                                                  /home/colibri/paparazziProto1/var/Colibri/ap/./estimator.o
                                                  /home/colibri/paparazziProto1/var/Colibri/ap/firmwares/fixedwing/main_ap.o
gps_impl_init                                     /home/colibri/paparazziProto1/var/Colibri/ap/subsystems/gps/gps_ubx.o
                                                  /home/colibri/paparazziProto1/var/Colibri/ap/subsystems/gps.o
gps_init                                          /home/colibri/paparazziProto1/var/Colibri/ap/subsystems/gps.o
                                                  /home/colibri/paparazziProto1/var/Colibri/ap/firmwares/fixedwing/main_ap.o
gps_lost                                          /home/colibri/paparazziProto1/var/Colibri/ap/firmwares/fixedwing/main_ap.o
gps_ubx                                           /home/colibri/paparazziProto1/var/Colibri/ap/subsystems/gps/gps_ubx.o
                                                  /home/colibri/paparazziProto1/var/Colibri/ap/firmwares/fixedwing/main_ap.o
gps_ubx_parse                                     /home/colibri/paparazziProto1/var/Colibri/ap/subsystems/gps/gps_ubx.o
                                                  /home/colibri/paparazziProto1/var/Colibri/ap/firmwares/fixedwing/main_ap.o
gps_ubx_read_message                              /home/colibri/paparazziProto1/var/Colibri/ap/subsystems/gps/gps_ubx.o
                                                  /home/colibri/paparazziProto1/var/Colibri/ap/firmwares/fixedwing/main_ap.o
ground_alt                                        /home/colibri/paparazziProto1/var/Colibri/ap/subsystems/navigation/nav_cube.o
                                                  /home/colibri/paparazziProto1/var/Colibri/ap/subsystems/nav.o
h_ctl_aileron_of_throttle                         /home/colibri/paparazziProto1/var/Colibri/ap/firmwares/fixedwing/datalink.o
                                                  /home/colibri/paparazziProto1/var/Colibri/ap/firmwares/fixedwing/stabilization/stabilization_attitude.o
                                                  /home/colibri/paparazziProto1/var/Colibri/ap/firmwares/fixedwing/main_ap.o
h_ctl_aileron_setpoint                            /home/colibri/paparazziProto1/var/Colibri/ap/firmwares/fixedwing/stabilization/stabilization_attitude.o
                                                  /home/colibri/paparazziProto1/var/Colibri/ap/firmwares/fixedwing/main_ap.o
h_ctl_attitude_loop                               /home/colibri/paparazziProto1/var/Colibri/ap/firmwares/fixedwing/stabilization/stabilization_attitude.o
                                                  /home/colibri/paparazziProto1/var/Colibri/ap/firmwares/fixedwing/main_ap.o
h_ctl_auto1_rate                                  /home/colibri/paparazziProto1/var/Colibri/ap/firmwares/fixedwing/stabilization/stabilization_attitude.o
h_ctl_course_dgain                                /home/colibri/paparazziProto1/var/Colibri/ap/firmwares/fixedwing/datalink.o
                                                  /home/colibri/paparazziProto1/var/Colibri/ap/firmwares/fixedwing/stabilization/stabilization_attitude.o
                                                  /home/colibri/paparazziProto1/var/Colibri/ap/firmwares/fixedwing/main_ap.o
h_ctl_course_loop                                 /home/colibri/paparazziProto1/var/Colibri/ap/firmwares/fixedwing/stabilization/stabilization_attitude.o
                                                  /home/colibri/paparazziProto1/var/Colibri/ap/firmwares/fixedwing/main_ap.o
h_ctl_course_pgain                                /home/colibri/paparazziProto1/var/Colibri/ap/firmwares/fixedwing/datalink.o
                                                  /home/colibri/paparazziProto1/var/Colibri/ap/subsystems/nav.o
                                                  /home/colibri/paparazziProto1/var/Colibri/ap/firmwares/fixedwing/stabilization/stabilization_attitude.o
                                                  /home/colibri/paparazziProto1/var/Colibri/ap/firmwares/fixedwing/main_ap.o
h_ctl_course_pre_bank                             /home/colibri/paparazziProto1/var/Colibri/ap/subsystems/nav.o
                                                  /home/colibri/paparazziProto1/var/Colibri/ap/firmwares/fixedwing/stabilization/stabilization_attitude.o
h_ctl_course_pre_bank_correction                  /home/colibri/paparazziProto1/var/Colibri/ap/firmwares/fixedwing/datalink.o
                                                  /home/colibri/paparazziProto1/var/Colibri/ap/firmwares/fixedwing/stabilization/stabilization_attitude.o
                                                  /home/colibri/paparazziProto1/var/Colibri/ap/firmwares/fixedwing/main_ap.o
h_ctl_course_setpoint                             /home/colibri/paparazziProto1/var/Colibri/ap/subsystems/nav.o
                                                  /home/colibri/paparazziProto1/var/Colibri/ap/firmwares/fixedwing/stabilization/stabilization_attitude.o
                                                  /home/colibri/paparazziProto1/var/Colibri/ap/firmwares/fixedwing/main_ap.o
h_ctl_disabled                                    /home/colibri/paparazziProto1/var/Colibri/ap/firmwares/fixedwing/stabilization/stabilization_attitude.o
h_ctl_elevator_of_roll                            /home/colibri/paparazziProto1/var/Colibri/ap/firmwares/fixedwing/datalink.o
                                                  /home/colibri/paparazziProto1/var/Colibri/ap/firmwares/fixedwing/stabilization/stabilization_attitude.o
                                                  /home/colibri/paparazziProto1/var/Colibri/ap/firmwares/fixedwing/main_ap.o
h_ctl_elevator_setpoint                           /home/colibri/paparazziProto1/var/Colibri/ap/firmwares/fixedwing/stabilization/stabilization_attitude.o
                                                  /home/colibri/paparazziProto1/var/Colibri/ap/firmwares/fixedwing/main_ap.o
h_ctl_init                                        /home/colibri/paparazziProto1/var/Colibri/ap/firmwares/fixedwing/stabilization/stabilization_attitude.o
                                                  /home/colibri/paparazziProto1/var/Colibri/ap/firmwares/fixedwing/main_ap.o
h_ctl_pitch_dgain                                 /home/colibri/paparazziProto1/var/Colibri/ap/firmwares/fixedwing/datalink.o
                                                  /home/colibri/paparazziProto1/var/Colibri/ap/firmwares/fixedwing/stabilization/stabilization_attitude.o
                                                  /home/colibri/paparazziProto1/var/Colibri/ap/firmwares/fixedwing/main_ap.o
h_ctl_pitch_loop_setpoint                         /home/colibri/paparazziProto1/var/Colibri/ap/firmwares/fixedwing/stabilization/stabilization_attitude.o
                                                  /home/colibri/paparazziProto1/var/Colibri/ap/firmwares/fixedwing/main_ap.o
h_ctl_pitch_pgain                                 /home/colibri/paparazziProto1/var/Colibri/ap/firmwares/fixedwing/datalink.o
                                                  /home/colibri/paparazziProto1/var/Colibri/ap/firmwares/fixedwing/stabilization/stabilization_attitude.o
                                                  /home/colibri/paparazziProto1/var/Colibri/ap/firmwares/fixedwing/main_ap.o
h_ctl_pitch_setpoint                              /home/colibri/paparazziProto1/var/Colibri/ap/firmwares/fixedwing/stabilization/stabilization_attitude.o
                                                  /home/colibri/paparazziProto1/var/Colibri/ap/firmwares/fixedwing/main_ap.o
h_ctl_roll_attitude_gain                          /home/colibri/paparazziProto1/var/Colibri/ap/firmwares/fixedwing/datalink.o
                                                  /home/colibri/paparazziProto1/var/Colibri/ap/firmwares/fixedwing/stabilization/stabilization_attitude.o
                                                  /home/colibri/paparazziProto1/var/Colibri/ap/firmwares/fixedwing/main_ap.o
h_ctl_roll_max_setpoint                           /home/colibri/paparazziProto1/var/Colibri/ap/firmwares/fixedwing/datalink.o
                                                  /home/colibri/paparazziProto1/var/Colibri/ap/subsystems/nav.o
                                                  /home/colibri/paparazziProto1/var/Colibri/ap/firmwares/fixedwing/stabilization/stabilization_attitude.o
                                                  /home/colibri/paparazziProto1/var/Colibri/ap/firmwares/fixedwing/main_ap.o
h_ctl_roll_pgain                                  /home/colibri/paparazziProto1/var/Colibri/ap/firmwares/fixedwing/stabilization/stabilization_attitude.o
h_ctl_roll_rate_gain                              /home/colibri/paparazziProto1/var/Colibri/ap/firmwares/fixedwing/datalink.o
                                                  /home/colibri/paparazziProto1/var/Colibri/ap/firmwares/fixedwing/stabilization/stabilization_attitude.o
                                                  /home/colibri/paparazziProto1/var/Colibri/ap/firmwares/fixedwing/main_ap.o
h_ctl_roll_setpoint                               /home/colibri/paparazziProto1/var/Colibri/ap/subsystems/nav.o
                                                  /home/colibri/paparazziProto1/var/Colibri/ap/firmwares/fixedwing/stabilization/stabilization_attitude.o
                                                  /home/colibri/paparazziProto1/var/Colibri/ap/firmwares/fixedwing/main_ap.o
h_ctl_roll_slew                                   /home/colibri/paparazziProto1/var/Colibri/ap/firmwares/fixedwing/datalink.o
                                                  /home/colibri/paparazziProto1/var/Colibri/ap/firmwares/fixedwing/stabilization/stabilization_attitude.o
                                                  /home/colibri/paparazziProto1/var/Colibri/ap/firmwares/fixedwing/main_ap.o
handle_periodic_tasks_ap                          /home/colibri/paparazziProto1/var/Colibri/ap/firmwares/fixedwing/main_ap.o
                                                  /home/colibri/paparazziProto1/var/Colibri/ap/firmwares/fixedwing/main.o
handle_periodic_tasks_fbw                         /home/colibri/paparazziProto1/var/Colibri/ap/firmwares/fixedwing/main_fbw.o
                                                  /home/colibri/paparazziProto1/var/Colibri/ap/firmwares/fixedwing/main.o
horizontal_mode                                   /home/colibri/paparazziProto1/var/Colibri/ap/subsystems/nav.o
                                                  /home/colibri/paparazziProto1/var/Colibri/ap/firmwares/fixedwing/main_ap.o
i2c_event                                         /home/colibri/paparazziProto1/var/Colibri/ap/arch/lpc21/mcu_periph/i2c_arch.o
                                                  /home/colibri/paparazziProto1/var/Colibri/ap/firmwares/fixedwing/main_fbw.o
i2c_idle                                          /home/colibri/paparazziProto1/var/Colibri/ap/arch/lpc21/mcu_periph/i2c_arch.o
i2c_init                                          /home/colibri/paparazziProto1/var/Colibri/ap/mcu_periph/i2c.o
i2c_setbitrate                                    /home/colibri/paparazziProto1/var/Colibri/ap/arch/lpc21/mcu_periph/i2c_arch.o
i2c_submit                                        /home/colibri/paparazziProto1/var/Colibri/ap/arch/lpc21/mcu_periph/i2c_arch.o
infrared                                          /home/colibri/paparazziProto1/var/Colibri/ap/subsystems/sensors/infrared_adc.o
                                                  /home/colibri/paparazziProto1/var/Colibri/ap/subsystems/sensors/infrared.o
                                                  /home/colibri/paparazziProto1/var/Colibri/ap/subsystems/ahrs/ahrs_infrared.o
                                                  /home/colibri/paparazziProto1/var/Colibri/ap/firmwares/fixedwing/main_ap.o
infrared_adc_init                                 /home/colibri/paparazziProto1/var/Colibri/ap/subsystems/sensors/infrared_adc.o
                                                  /home/colibri/paparazziProto1/var/Colibri/ap/firmwares/fixedwing/main_ap.o
infrared_adc_update                               /home/colibri/paparazziProto1/var/Colibri/ap/subsystems/sensors/infrared_adc.o
                                                  /home/colibri/paparazziProto1/var/Colibri/ap/firmwares/fixedwing/main_ap.o
infrared_event                                    /home/colibri/paparazziProto1/var/Colibri/ap/subsystems/sensors/infrared_adc.o
infrared_init                                     /home/colibri/paparazziProto1/var/Colibri/ap/subsystems/sensors/infrared_adc.o
infrared_struct_init                              /home/colibri/paparazziProto1/var/Colibri/ap/subsystems/sensors/infrared.o
                                                  /home/colibri/paparazziProto1/var/Colibri/ap/subsystems/sensors/infrared_adc.o
infrared_update                                   /home/colibri/paparazziProto1/var/Colibri/ap/subsystems/sensors/infrared_adc.o
init                                              /home/colibri/paparazziProto1/var/Colibri/ap/subsystems/navigation/gls.o
init_ap                                           /home/colibri/paparazziProto1/var/Colibri/ap/firmwares/fixedwing/main_ap.o
                                                  /home/colibri/paparazziProto1/var/Colibri/ap/firmwares/fixedwing/main.o
init_fbw                                          /home/colibri/paparazziProto1/var/Colibri/ap/firmwares/fixedwing/main_fbw.o
                                                  /home/colibri/paparazziProto1/var/Colibri/ap/firmwares/fixedwing/main.o
init_poly_survey_adv                              /home/colibri/paparazziProto1/var/Colibri/ap/subsystems/navigation/poly_survey_adv.o
inter_mcu_received_ap                             /home/colibri/paparazziProto1/var/Colibri/ap/./inter_mcu.o
                                                  /home/colibri/paparazziProto1/var/Colibri/ap/firmwares/fixedwing/main_ap.o
                                                  /home/colibri/paparazziProto1/var/Colibri/ap/firmwares/fixedwing/main_fbw.o
inter_mcu_received_fbw                            /home/colibri/paparazziProto1/var/Colibri/ap/./inter_mcu.o
                                                  /home/colibri/paparazziProto1/var/Colibri/ap/firmwares/fixedwing/main_ap.o
                                                  /home/colibri/paparazziProto1/var/Colibri/ap/firmwares/fixedwing/main_fbw.o
ir_adc                                            /home/colibri/paparazziProto1/var/Colibri/ap/subsystems/sensors/infrared_adc.o
kill_throttle                                     /home/colibri/paparazziProto1/var/Colibri/ap/firmwares/fixedwing/main_ap.o
                                                  /home/colibri/paparazziProto1/var/Colibri/ap/firmwares/fixedwing/datalink.o
                                                  /home/colibri/paparazziProto1/var/Colibri/ap/subsystems/navigation/OSAMNav.o
                                                  /home/colibri/paparazziProto1/var/Colibri/ap/subsystems/nav.o
last_block                                        /home/colibri/paparazziProto1/var/Colibri/ap/subsystems/navigation/common_flight_plan.o
last_stage                                        /home/colibri/paparazziProto1/var/Colibri/ap/subsystems/navigation/common_flight_plan.o
last_x                                            /home/colibri/paparazziProto1/var/Colibri/ap/subsystems/navigation/poly_survey_adv.o
                                                  /home/colibri/paparazziProto1/var/Colibri/ap/subsystems/nav.o
last_y                                            /home/colibri/paparazziProto1/var/Colibri/ap/subsystems/navigation/poly_survey_adv.o
                                                  /home/colibri/paparazziProto1/var/Colibri/ap/subsystems/nav.o
lateral_mode                                      /home/colibri/paparazziProto1/var/Colibri/ap/firmwares/fixedwing/main_ap.o
                                                  /home/colibri/paparazziProto1/var/Colibri/ap/subsystems/nav.o
launch                                            /home/colibri/paparazziProto1/var/Colibri/ap/firmwares/fixedwing/main_ap.o
                                                  /home/colibri/paparazziProto1/var/Colibri/ap/firmwares/fixedwing/datalink.o
lla_of_ecef_d                                     /home/colibri/paparazziProto1/var/Colibri/ap/math/pprz_geodetic_double.o
                                                  /home/colibri/paparazziProto1/var/Colibri/ap/math/pprz_geodetic_int.o
lla_of_ecef_f                                     /home/colibri/paparazziProto1/var/Colibri/ap/math/pprz_geodetic_float.o
lla_of_ecef_i                                     /home/colibri/paparazziProto1/var/Colibri/ap/math/pprz_geodetic_int.o
lla_of_utm_d                                      /home/colibri/paparazziProto1/var/Colibri/ap/math/pprz_geodetic_double.o
lla_of_utm_f                                      /home/colibri/paparazziProto1/var/Colibri/ap/math/pprz_geodetic_float.o
log                                               /opt/gcc-arm-none-eabi-4_8-2013q4/bin/../lib/gcc/arm-none-eabi/4.8.3/../../../../arm-none-eabi/lib/thumb/libm.a(lib_a-w_log.o)
                                                  /home/colibri/paparazziProto1/var/Colibri/ap/math/pprz_geodetic_double.o
                                                  /home/colibri/paparazziProto1/var/Colibri/ap/math/pprz_geodetic_float.o
ltp_def_from_ecef_d                               /home/colibri/paparazziProto1/var/Colibri/ap/math/pprz_geodetic_double.o
ltp_def_from_ecef_f                               /home/colibri/paparazziProto1/var/Colibri/ap/math/pprz_geodetic_float.o
ltp_def_from_ecef_i                               /home/colibri/paparazziProto1/var/Colibri/ap/math/pprz_geodetic_int.o
ltp_def_from_lla_f                                /home/colibri/paparazziProto1/var/Colibri/ap/math/pprz_geodetic_float.o
ltp_def_from_lla_i                                /home/colibri/paparazziProto1/var/Colibri/ap/math/pprz_geodetic_int.o
main                                              /home/colibri/paparazziProto1/var/Colibri/ap/firmwares/fixedwing/main.o
                                                  /home/colibri/paparazziProto1/var/Colibri/ap/crt0.o
matherr                                           /opt/gcc-arm-none-eabi-4_8-2013q4/bin/../lib/gcc/arm-none-eabi/4.8.3/../../../../arm-none-eabi/lib/thumb/libm.a(lib_a-s_matherr.o)
                                                  /opt/gcc-arm-none-eabi-4_8-2013q4/bin/../lib/gcc/arm-none-eabi/4.8.3/../../../../arm-none-eabi/lib/thumb/libm.a(lib_a-wf_sqrt.o)
                                                  /opt/gcc-arm-none-eabi-4_8-2013q4/bin/../lib/gcc/arm-none-eabi/4.8.3/../../../../arm-none-eabi/lib/thumb/libm.a(lib_a-wf_pow.o)
                                                  /opt/gcc-arm-none-eabi-4_8-2013q4/bin/../lib/gcc/arm-none-eabi/4.8.3/../../../../arm-none-eabi/lib/thumb/libm.a(lib_a-w_sqrt.o)
                                                  /opt/gcc-arm-none-eabi-4_8-2013q4/bin/../lib/gcc/arm-none-eabi/4.8.3/../../../../arm-none-eabi/lib/thumb/libm.a(lib_a-w_sinh.o)
                                                  /opt/gcc-arm-none-eabi-4_8-2013q4/bin/../lib/gcc/arm-none-eabi/4.8.3/../../../../arm-none-eabi/lib/thumb/libm.a(lib_a-w_pow.o)
                                                  /opt/gcc-arm-none-eabi-4_8-2013q4/bin/../lib/gcc/arm-none-eabi/4.8.3/../../../../arm-none-eabi/lib/thumb/libm.a(lib_a-w_log.o)
                                                  /opt/gcc-arm-none-eabi-4_8-2013q4/bin/../lib/gcc/arm-none-eabi/4.8.3/../../../../arm-none-eabi/lib/thumb/libm.a(lib_a-w_exp.o)
                                                  /opt/gcc-arm-none-eabi-4_8-2013q4/bin/../lib/gcc/arm-none-eabi/4.8.3/../../../../arm-none-eabi/lib/thumb/libm.a(lib_a-w_cosh.o)
                                                  /opt/gcc-arm-none-eabi-4_8-2013q4/bin/../lib/gcc/arm-none-eabi/4.8.3/../../../../arm-none-eabi/lib/thumb/libm.a(lib_a-w_asin.o)
                                                  /opt/gcc-arm-none-eabi-4_8-2013q4/bin/../lib/gcc/arm-none-eabi/4.8.3/../../../../arm-none-eabi/lib/thumb/libm.a(lib_a-w_acos.o)
max_dist_from_home                                /home/colibri/paparazziProto1/var/Colibri/ap/subsystems/nav.o
mcu_arch_init                                     /home/colibri/paparazziProto1/var/Colibri/ap/arch/lpc21/mcu_arch.o
                                                  /home/colibri/paparazziProto1/var/Colibri/ap/mcu.o
mcu_init                                          /home/colibri/paparazziProto1/var/Colibri/ap/mcu.o
                                                  /home/colibri/paparazziProto1/var/Colibri/ap/firmwares/fixedwing/main_fbw.o
modules_tid                                       /home/colibri/paparazziProto1/var/Colibri/ap/firmwares/fixedwing/main_ap.o
monitor_task                                      /home/colibri/paparazziProto1/var/Colibri/ap/firmwares/fixedwing/main_ap.o
monitor_tid                                       /home/colibri/paparazziProto1/var/Colibri/ap/firmwares/fixedwing/main_ap.o
nan                                               /opt/gcc-arm-none-eabi-4_8-2013q4/bin/../lib/gcc/arm-none-eabi/4.8.3/../../../../arm-none-eabi/lib/thumb/libm.a(lib_a-s_nan.o)
                                                  /opt/gcc-arm-none-eabi-4_8-2013q4/bin/../lib/gcc/arm-none-eabi/4.8.3/../../../../arm-none-eabi/lib/thumb/libm.a(lib_a-e_pow.o)
                                                  /opt/gcc-arm-none-eabi-4_8-2013q4/bin/../lib/gcc/arm-none-eabi/4.8.3/../../../../arm-none-eabi/lib/thumb/libm.a(lib_a-w_log.o)
                                                  /opt/gcc-arm-none-eabi-4_8-2013q4/bin/../lib/gcc/arm-none-eabi/4.8.3/../../../../arm-none-eabi/lib/thumb/libm.a(lib_a-w_asin.o)
                                                  /opt/gcc-arm-none-eabi-4_8-2013q4/bin/../lib/gcc/arm-none-eabi/4.8.3/../../../../arm-none-eabi/lib/thumb/libm.a(lib_a-w_acos.o)
nanf                                              /opt/gcc-arm-none-eabi-4_8-2013q4/bin/../lib/gcc/arm-none-eabi/4.8.3/../../../../arm-none-eabi/lib/thumb/libm.a(lib_a-sf_nan.o)
                                                  /opt/gcc-arm-none-eabi-4_8-2013q4/bin/../lib/gcc/arm-none-eabi/4.8.3/../../../../arm-none-eabi/lib/thumb/libm.a(lib_a-ef_pow.o)
nav_altitude                                      /home/colibri/paparazziProto1/var/Colibri/ap/subsystems/nav.o
                                                  /home/colibri/paparazziProto1/var/Colibri/ap/subsystems/navigation/border_line.o
                                                  /home/colibri/paparazziProto1/var/Colibri/ap/subsystems/navigation/gls.o
                                                  /home/colibri/paparazziProto1/var/Colibri/ap/subsystems/navigation/poly_survey_adv.o
                                                  /home/colibri/paparazziProto1/var/Colibri/ap/subsystems/navigation/snav.o
                                                  /home/colibri/paparazziProto1/var/Colibri/ap/subsystems/navigation/OSAMNav.o
                                                  /home/colibri/paparazziProto1/var/Colibri/ap/subsystems/navigation/discsurvey.o
                                                  /home/colibri/paparazziProto1/var/Colibri/ap/subsystems/navigation/nav_line.o
                                                  /home/colibri/paparazziProto1/var/Colibri/ap/subsystems/navigation/nav_survey_rectangle.o
nav_approaching_xy                                /home/colibri/paparazziProto1/var/Colibri/ap/subsystems/nav.o
                                                  /home/colibri/paparazziProto1/var/Colibri/ap/subsystems/navigation/border_line.o
                                                  /home/colibri/paparazziProto1/var/Colibri/ap/subsystems/navigation/poly_survey_adv.o
                                                  /home/colibri/paparazziProto1/var/Colibri/ap/subsystems/navigation/spiral.o
                                                  /home/colibri/paparazziProto1/var/Colibri/ap/subsystems/navigation/snav.o
                                                  /home/colibri/paparazziProto1/var/Colibri/ap/subsystems/navigation/OSAMNav.o
                                                  /home/colibri/paparazziProto1/var/Colibri/ap/subsystems/navigation/discsurvey.o
                                                  /home/colibri/paparazziProto1/var/Colibri/ap/subsystems/navigation/nav_line.o
nav_block                                         /home/colibri/paparazziProto1/var/Colibri/ap/firmwares/fixedwing/datalink.o
                                                  /home/colibri/paparazziProto1/var/Colibri/ap/subsystems/navigation/common_flight_plan.o
                                                  /home/colibri/paparazziProto1/var/Colibri/ap/subsystems/nav.o
                                                  /home/colibri/paparazziProto1/var/Colibri/ap/firmwares/fixedwing/main_ap.o
nav_circle_XY                                     /home/colibri/paparazziProto1/var/Colibri/ap/subsystems/nav.o
                                                  /home/colibri/paparazziProto1/var/Colibri/ap/subsystems/navigation/border_line.o
                                                  /home/colibri/paparazziProto1/var/Colibri/ap/subsystems/navigation/poly_survey_adv.o
                                                  /home/colibri/paparazziProto1/var/Colibri/ap/subsystems/navigation/spiral.o
                                                  /home/colibri/paparazziProto1/var/Colibri/ap/subsystems/navigation/snav.o
                                                  /home/colibri/paparazziProto1/var/Colibri/ap/subsystems/navigation/OSAMNav.o
                                                  /home/colibri/paparazziProto1/var/Colibri/ap/subsystems/navigation/discsurvey.o
                                                  /home/colibri/paparazziProto1/var/Colibri/ap/subsystems/navigation/nav_line.o
                                                  /home/colibri/paparazziProto1/var/Colibri/ap/subsystems/navigation/nav_survey_rectangle.o
nav_circle_radians                                /home/colibri/paparazziProto1/var/Colibri/ap/firmwares/fixedwing/datalink.o
                                                  /home/colibri/paparazziProto1/var/Colibri/ap/subsystems/navigation/OSAMNav.o
                                                  /home/colibri/paparazziProto1/var/Colibri/ap/subsystems/nav.o
                                                  /home/colibri/paparazziProto1/var/Colibri/ap/firmwares/fixedwing/main_ap.o
nav_circle_radius                                 /home/colibri/paparazziProto1/var/Colibri/ap/subsystems/nav.o
                                                  /home/colibri/paparazziProto1/var/Colibri/ap/firmwares/fixedwing/main_ap.o
nav_circle_trigo_qdr                              /home/colibri/paparazziProto1/var/Colibri/ap/subsystems/navigation/border_line.o
                                                  /home/colibri/paparazziProto1/var/Colibri/ap/subsystems/navigation/snav.o
                                                  /home/colibri/paparazziProto1/var/Colibri/ap/subsystems/navigation/OSAMNav.o
                                                  /home/colibri/paparazziProto1/var/Colibri/ap/subsystems/navigation/discsurvey.o
                                                  /home/colibri/paparazziProto1/var/Colibri/ap/subsystems/navigation/nav_line.o
                                                  /home/colibri/paparazziProto1/var/Colibri/ap/subsystems/nav.o
nav_circle_x                                      /home/colibri/paparazziProto1/var/Colibri/ap/subsystems/nav.o
                                                  /home/colibri/paparazziProto1/var/Colibri/ap/firmwares/fixedwing/main_ap.o
nav_circle_y                                      /home/colibri/paparazziProto1/var/Colibri/ap/subsystems/nav.o
                                                  /home/colibri/paparazziProto1/var/Colibri/ap/firmwares/fixedwing/main_ap.o
nav_climb                                         /home/colibri/paparazziProto1/var/Colibri/ap/subsystems/nav.o
nav_course                                        /home/colibri/paparazziProto1/var/Colibri/ap/firmwares/fixedwing/datalink.o
                                                  /home/colibri/paparazziProto1/var/Colibri/ap/subsystems/nav.o
                                                  /home/colibri/paparazziProto1/var/Colibri/ap/firmwares/fixedwing/main_ap.o
nav_cube                                          /home/colibri/paparazziProto1/var/Colibri/ap/subsystems/navigation/nav_cube.o
nav_cube_init                                     /home/colibri/paparazziProto1/var/Colibri/ap/subsystems/navigation/nav_cube.o
nav_eight                                         /home/colibri/paparazziProto1/var/Colibri/ap/subsystems/nav.o
nav_eight_init                                    /home/colibri/paparazziProto1/var/Colibri/ap/subsystems/nav.o
nav_glide_pitch_trim                              /home/colibri/paparazziProto1/var/Colibri/ap/subsystems/nav.o
nav_goto_block                                    /home/colibri/paparazziProto1/var/Colibri/ap/subsystems/navigation/common_flight_plan.o
                                                  /home/colibri/paparazziProto1/var/Colibri/ap/firmwares/fixedwing/datalink.o
nav_ground_speed_pgain                            /home/colibri/paparazziProto1/var/Colibri/ap/subsystems/nav.o
nav_ground_speed_setpoint                         /home/colibri/paparazziProto1/var/Colibri/ap/subsystems/nav.o
nav_home                                          /home/colibri/paparazziProto1/var/Colibri/ap/subsystems/nav.o
                                                  /home/colibri/paparazziProto1/var/Colibri/ap/firmwares/fixedwing/main_ap.o
nav_in_circle                                     /home/colibri/paparazziProto1/var/Colibri/ap/subsystems/nav.o
                                                  /home/colibri/paparazziProto1/var/Colibri/ap/subsystems/navigation/nav_survey_rectangle.o
                                                  /home/colibri/paparazziProto1/var/Colibri/ap/firmwares/fixedwing/main_ap.o
nav_in_segment                                    /home/colibri/paparazziProto1/var/Colibri/ap/subsystems/nav.o
                                                  /home/colibri/paparazziProto1/var/Colibri/ap/subsystems/navigation/nav_survey_rectangle.o
                                                  /home/colibri/paparazziProto1/var/Colibri/ap/firmwares/fixedwing/main_ap.o
nav_init                                          /home/colibri/paparazziProto1/var/Colibri/ap/subsystems/nav.o
                                                  /home/colibri/paparazziProto1/var/Colibri/ap/firmwares/fixedwing/main_ap.o
nav_init_block                                    /home/colibri/paparazziProto1/var/Colibri/ap/subsystems/navigation/common_flight_plan.o
                                                  /home/colibri/paparazziProto1/var/Colibri/ap/subsystems/nav.o
nav_init_stage                                    /home/colibri/paparazziProto1/var/Colibri/ap/subsystems/nav.o
                                                  /home/colibri/paparazziProto1/var/Colibri/ap/subsystems/navigation/border_line.o
                                                  /home/colibri/paparazziProto1/var/Colibri/ap/subsystems/navigation/poly_survey_adv.o
                                                  /home/colibri/paparazziProto1/var/Colibri/ap/subsystems/navigation/OSAMNav.o
                                                  /home/colibri/paparazziProto1/var/Colibri/ap/subsystems/navigation/discsurvey.o
                                                  /home/colibri/paparazziProto1/var/Colibri/ap/subsystems/navigation/nav_line.o
                                                  /home/colibri/paparazziProto1/var/Colibri/ap/subsystems/navigation/common_flight_plan.o
nav_line                                          /home/colibri/paparazziProto1/var/Colibri/ap/subsystems/navigation/nav_line.o
nav_line_init                                     /home/colibri/paparazziProto1/var/Colibri/ap/subsystems/navigation/nav_line.o
nav_mode                                          /home/colibri/paparazziProto1/var/Colibri/ap/subsystems/nav.o
nav_move_waypoint                                 /home/colibri/paparazziProto1/var/Colibri/ap/subsystems/nav.o
                                                  /home/colibri/paparazziProto1/var/Colibri/ap/firmwares/fixedwing/datalink.o
nav_oval                                          /home/colibri/paparazziProto1/var/Colibri/ap/subsystems/nav.o
nav_oval_count                                    /home/colibri/paparazziProto1/var/Colibri/ap/firmwares/fixedwing/datalink.o
                                                  /home/colibri/paparazziProto1/var/Colibri/ap/subsystems/nav.o
                                                  /home/colibri/paparazziProto1/var/Colibri/ap/firmwares/fixedwing/main_ap.o
nav_oval_init                                     /home/colibri/paparazziProto1/var/Colibri/ap/subsystems/nav.o
nav_periodic_task                                 /home/colibri/paparazziProto1/var/Colibri/ap/subsystems/nav.o
                                                  /home/colibri/paparazziProto1/var/Colibri/ap/firmwares/fixedwing/main_ap.o
nav_pitch                                         /home/colibri/paparazziProto1/var/Colibri/ap/subsystems/navigation/border_line.o
                                                  /home/colibri/paparazziProto1/var/Colibri/ap/subsystems/navigation/gls.o
                                                  /home/colibri/paparazziProto1/var/Colibri/ap/subsystems/navigation/poly_survey_adv.o
                                                  /home/colibri/paparazziProto1/var/Colibri/ap/subsystems/navigation/snav.o
                                                  /home/colibri/paparazziProto1/var/Colibri/ap/subsystems/navigation/OSAMNav.o
                                                  /home/colibri/paparazziProto1/var/Colibri/ap/subsystems/navigation/discsurvey.o
                                                  /home/colibri/paparazziProto1/var/Colibri/ap/subsystems/navigation/nav_line.o
                                                  /home/colibri/paparazziProto1/var/Colibri/ap/subsystems/navigation/nav_survey_rectangle.o
                                                  /home/colibri/paparazziProto1/var/Colibri/ap/subsystems/nav.o
                                                  /home/colibri/paparazziProto1/var/Colibri/ap/firmwares/fixedwing/guidance/guidance_v.o
                                                  /home/colibri/paparazziProto1/var/Colibri/ap/firmwares/fixedwing/main_ap.o
nav_radius                                        /home/colibri/paparazziProto1/var/Colibri/ap/firmwares/fixedwing/datalink.o
                                                  /home/colibri/paparazziProto1/var/Colibri/ap/subsystems/navigation/OSAMNav.o
                                                  /home/colibri/paparazziProto1/var/Colibri/ap/subsystems/nav.o
                                                  /home/colibri/paparazziProto1/var/Colibri/ap/firmwares/fixedwing/main_ap.o
nav_reset_reference                               /home/colibri/paparazziProto1/var/Colibri/ap/subsystems/nav.o
nav_route_xy                                      /home/colibri/paparazziProto1/var/Colibri/ap/subsystems/nav.o
                                                  /home/colibri/paparazziProto1/var/Colibri/ap/subsystems/navigation/border_line.o
                                                  /home/colibri/paparazziProto1/var/Colibri/ap/subsystems/navigation/gls.o
                                                  /home/colibri/paparazziProto1/var/Colibri/ap/subsystems/navigation/poly_survey_adv.o
                                                  /home/colibri/paparazziProto1/var/Colibri/ap/subsystems/navigation/spiral.o
                                                  /home/colibri/paparazziProto1/var/Colibri/ap/subsystems/navigation/snav.o
                                                  /home/colibri/paparazziProto1/var/Colibri/ap/subsystems/navigation/OSAMNav.o
                                                  /home/colibri/paparazziProto1/var/Colibri/ap/subsystems/navigation/discsurvey.o
                                                  /home/colibri/paparazziProto1/var/Colibri/ap/subsystems/navigation/nav_line.o
                                                  /home/colibri/paparazziProto1/var/Colibri/ap/subsystems/navigation/nav_survey_rectangle.o
nav_segment_x_1                                   /home/colibri/paparazziProto1/var/Colibri/ap/subsystems/nav.o
                                                  /home/colibri/paparazziProto1/var/Colibri/ap/firmwares/fixedwing/main_ap.o
nav_segment_x_2                                   /home/colibri/paparazziProto1/var/Colibri/ap/subsystems/nav.o
                                                  /home/colibri/paparazziProto1/var/Colibri/ap/firmwares/fixedwing/main_ap.o
nav_segment_y_1                                   /home/colibri/paparazziProto1/var/Colibri/ap/subsystems/nav.o
                                                  /home/colibri/paparazziProto1/var/Colibri/ap/firmwares/fixedwing/main_ap.o
nav_segment_y_2                                   /home/colibri/paparazziProto1/var/Colibri/ap/subsystems/nav.o
                                                  /home/colibri/paparazziProto1/var/Colibri/ap/firmwares/fixedwing/main_ap.o
nav_shift                                         /home/colibri/paparazziProto1/var/Colibri/ap/firmwares/fixedwing/datalink.o
                                                  /home/colibri/paparazziProto1/var/Colibri/ap/subsystems/nav.o
                                                  /home/colibri/paparazziProto1/var/Colibri/ap/firmwares/fixedwing/main_ap.o
nav_stage                                         /home/colibri/paparazziProto1/var/Colibri/ap/firmwares/fixedwing/datalink.o
                                                  /home/colibri/paparazziProto1/var/Colibri/ap/subsystems/navigation/common_flight_plan.o
                                                  /home/colibri/paparazziProto1/var/Colibri/ap/subsystems/nav.o
                                                  /home/colibri/paparazziProto1/var/Colibri/ap/firmwares/fixedwing/main_ap.o
nav_survey_active                                 /home/colibri/paparazziProto1/var/Colibri/ap/subsystems/navigation/nav_survey_rectangle.o
                                                  /home/colibri/paparazziProto1/var/Colibri/ap/subsystems/nav.o
                                                  /home/colibri/paparazziProto1/var/Colibri/ap/firmwares/fixedwing/main_ap.o
nav_survey_east                                   /home/colibri/paparazziProto1/var/Colibri/ap/subsystems/navigation/nav_survey_rectangle.o
                                                  /home/colibri/paparazziProto1/var/Colibri/ap/subsystems/nav.o
                                                  /home/colibri/paparazziProto1/var/Colibri/ap/firmwares/fixedwing/main_ap.o
nav_survey_north                                  /home/colibri/paparazziProto1/var/Colibri/ap/subsystems/navigation/nav_survey_rectangle.o
                                                  /home/colibri/paparazziProto1/var/Colibri/ap/subsystems/nav.o
                                                  /home/colibri/paparazziProto1/var/Colibri/ap/firmwares/fixedwing/main_ap.o
nav_survey_rectangle                              /home/colibri/paparazziProto1/var/Colibri/ap/subsystems/navigation/nav_survey_rectangle.o
nav_survey_rectangle_init                         /home/colibri/paparazziProto1/var/Colibri/ap/subsystems/navigation/nav_survey_rectangle.o
nav_survey_shift                                  /home/colibri/paparazziProto1/var/Colibri/ap/subsystems/navigation/discsurvey.o
                                                  /home/colibri/paparazziProto1/var/Colibri/ap/subsystems/navigation/nav_survey_rectangle.o
                                                  /home/colibri/paparazziProto1/var/Colibri/ap/subsystems/nav.o
nav_survey_south                                  /home/colibri/paparazziProto1/var/Colibri/ap/subsystems/navigation/nav_survey_rectangle.o
                                                  /home/colibri/paparazziProto1/var/Colibri/ap/subsystems/nav.o
                                                  /home/colibri/paparazziProto1/var/Colibri/ap/firmwares/fixedwing/main_ap.o
nav_survey_west                                   /home/colibri/paparazziProto1/var/Colibri/ap/subsystems/navigation/nav_survey_rectangle.o
                                                  /home/colibri/paparazziProto1/var/Colibri/ap/subsystems/nav.o
                                                  /home/colibri/paparazziProto1/var/Colibri/ap/firmwares/fixedwing/main_ap.o
nav_throttle_setpoint                             /home/colibri/paparazziProto1/var/Colibri/ap/subsystems/navigation/OSAMNav.o
                                                  /home/colibri/paparazziProto1/var/Colibri/ap/subsystems/nav.o
                                                  /home/colibri/paparazziProto1/var/Colibri/ap/firmwares/fixedwing/main_ap.o
nav_update_waypoints_alt                          /home/colibri/paparazziProto1/var/Colibri/ap/subsystems/nav.o
nav_utm_east0                                     /home/colibri/paparazziProto1/var/Colibri/ap/subsystems/nav.o
                                                  /home/colibri/paparazziProto1/var/Colibri/ap/firmwares/fixedwing/datalink.o
                                                  /home/colibri/paparazziProto1/var/Colibri/ap/./estimator.o
                                                  /home/colibri/paparazziProto1/var/Colibri/ap/firmwares/fixedwing/main_ap.o
nav_utm_north0                                    /home/colibri/paparazziProto1/var/Colibri/ap/subsystems/nav.o
                                                  /home/colibri/paparazziProto1/var/Colibri/ap/firmwares/fixedwing/datalink.o
                                                  /home/colibri/paparazziProto1/var/Colibri/ap/./estimator.o
                                                  /home/colibri/paparazziProto1/var/Colibri/ap/firmwares/fixedwing/main_ap.o
nav_utm_zone0                                     /home/colibri/paparazziProto1/var/Colibri/ap/subsystems/nav.o
                                                  /home/colibri/paparazziProto1/var/Colibri/ap/subsystems/gps/gps_ubx.o
                                                  /home/colibri/paparazziProto1/var/Colibri/ap/firmwares/fixedwing/datalink.o
                                                  /home/colibri/paparazziProto1/var/Colibri/ap/firmwares/fixedwing/main_ap.o
nav_without_gps                                   /home/colibri/paparazziProto1/var/Colibri/ap/subsystems/nav.o
                                                  /home/colibri/paparazziProto1/var/Colibri/ap/firmwares/fixedwing/main_ap.o
navigation_task                                   /home/colibri/paparazziProto1/var/Colibri/ap/firmwares/fixedwing/main_ap.o
navigation_tid                                    /home/colibri/paparazziProto1/var/Colibri/ap/firmwares/fixedwing/main_ap.o
nb_waypoint                                       /home/colibri/paparazziProto1/var/Colibri/ap/subsystems/nav.o
                                                  /home/colibri/paparazziProto1/var/Colibri/ap/firmwares/fixedwing/main_ap.o
ned_of_ecef_point_d                               /home/colibri/paparazziProto1/var/Colibri/ap/math/pprz_geodetic_double.o
ned_of_ecef_point_f                               /home/colibri/paparazziProto1/var/Colibri/ap/math/pprz_geodetic_float.o
ned_of_ecef_point_i                               /home/colibri/paparazziProto1/var/Colibri/ap/math/pprz_geodetic_int.o
ned_of_ecef_vect_d                                /home/colibri/paparazziProto1/var/Colibri/ap/math/pprz_geodetic_double.o
ned_of_ecef_vect_f                                /home/colibri/paparazziProto1/var/Colibri/ap/math/pprz_geodetic_float.o
ned_of_ecef_vect_i                                /home/colibri/paparazziProto1/var/Colibri/ap/math/pprz_geodetic_int.o
ned_of_lla_point_f                                /home/colibri/paparazziProto1/var/Colibri/ap/math/pprz_geodetic_float.o
ned_of_lla_point_i                                /home/colibri/paparazziProto1/var/Colibri/ap/math/pprz_geodetic_int.o
ned_of_lla_vect_i                                 /home/colibri/paparazziProto1/var/Colibri/ap/math/pprz_geodetic_int.o
oval_status                                       /home/colibri/paparazziProto1/var/Colibri/ap/subsystems/nav.o
parse_rc_3ch_datalink                             /home/colibri/paparazziProto1/var/Colibri/ap/subsystems/radio_control/rc_datalink.o
                                                  /home/colibri/paparazziProto1/var/Colibri/ap/firmwares/fixedwing/datalink.o
parse_rc_4ch_datalink                             /home/colibri/paparazziProto1/var/Colibri/ap/subsystems/radio_control/rc_datalink.o
                                                  /home/colibri/paparazziProto1/var/Colibri/ap/firmwares/fixedwing/datalink.o
periodic_task_fbw                                 /home/colibri/paparazziProto1/var/Colibri/ap/firmwares/fixedwing/main_fbw.o
pers_settings                                     /home/colibri/paparazziProto1/var/Colibri/ap/subsystems/settings.o
persistent_read                                   /home/colibri/paparazziProto1/var/Colibri/ap/arch/lpc21/subsystems/settings_arch.o
persistent_write                                  /home/colibri/paparazziProto1/var/Colibri/ap/arch/lpc21/subsystems/settings_arch.o
poly_count                                        /home/colibri/paparazziProto1/var/Colibri/ap/subsystems/navigation/poly_survey_adv.o
poly_first                                        /home/colibri/paparazziProto1/var/Colibri/ap/subsystems/navigation/poly_survey_adv.o
poly_survey_adv                                   /home/colibri/paparazziProto1/var/Colibri/ap/subsystems/navigation/poly_survey_adv.o
pow                                               /opt/gcc-arm-none-eabi-4_8-2013q4/bin/../lib/gcc/arm-none-eabi/4.8.3/../../../../arm-none-eabi/lib/thumb/libm.a(lib_a-w_pow.o)
                                                  /home/colibri/paparazziProto1/var/Colibri/ap/math/pprz_geodetic_double.o
                                                  /home/colibri/paparazziProto1/var/Colibri/ap/math/pprz_geodetic_float.o
power_switch                                      /home/colibri/paparazziProto1/var/Colibri/ap/firmwares/fixedwing/main_ap.o
powf                                              /opt/gcc-arm-none-eabi-4_8-2013q4/bin/../lib/gcc/arm-none-eabi/4.8.3/../../../../arm-none-eabi/lib/thumb/libm.a(lib_a-wf_pow.o)
                                                  /home/colibri/paparazziProto1/var/Colibri/ap/math/pprz_geodetic_float.o
pprz_mode                                         /home/colibri/paparazziProto1/var/Colibri/ap/firmwares/fixedwing/main_ap.o
                                                  /home/colibri/paparazziProto1/var/Colibri/ap/firmwares/fixedwing/datalink.o
                                                  /home/colibri/paparazziProto1/var/Colibri/ap/subsystems/nav.o
pprz_tp                                           /home/colibri/paparazziProto1/var/Colibri/ap/subsystems/datalink/pprz_transport.o
                                                  /home/colibri/paparazziProto1/var/Colibri/ap/firmwares/fixedwing/main_ap.o
pprz_trig_int                                     /home/colibri/paparazziProto1/var/Colibri/ap/math/pprz_trig_int.o
psa_altitude                                      /home/colibri/paparazziProto1/var/Colibri/ap/subsystems/navigation/poly_survey_adv.o
psa_min_rad                                       /home/colibri/paparazziProto1/var/Colibri/ap/subsystems/navigation/poly_survey_adv.o
psa_shot_dist                                     /home/colibri/paparazziProto1/var/Colibri/ap/subsystems/navigation/poly_survey_adv.o
psa_stage                                         /home/colibri/paparazziProto1/var/Colibri/ap/subsystems/navigation/poly_survey_adv.o
psa_sweep_width                                   /home/colibri/paparazziProto1/var/Colibri/ap/subsystems/navigation/poly_survey_adv.o
rad_vec                                           /home/colibri/paparazziProto1/var/Colibri/ap/subsystems/navigation/poly_survey_adv.o
radio_control                                     /home/colibri/paparazziProto1/var/Colibri/ap/subsystems/radio_control.o
                                                  /home/colibri/paparazziProto1/var/Colibri/ap/firmwares/fixedwing/main_fbw.o
radio_control_impl_init                           /home/colibri/paparazziProto1/var/Colibri/ap/subsystems/radio_control/rc_datalink.o
                                                  /home/colibri/paparazziProto1/var/Colibri/ap/firmwares/fixedwing/main_fbw.o
rc_dl_frame_available                             /home/colibri/paparazziProto1/var/Colibri/ap/subsystems/radio_control/rc_datalink.o
                                                  /home/colibri/paparazziProto1/var/Colibri/ap/firmwares/fixedwing/main_fbw.o
rc_dl_values                                      /home/colibri/paparazziProto1/var/Colibri/ap/subsystems/radio_control/rc_datalink.o
                                                  /home/colibri/paparazziProto1/var/Colibri/ap/firmwares/fixedwing/main_fbw.o
rc_pitch                                          /home/colibri/paparazziProto1/var/Colibri/ap/subsystems/nav.o
reporting_task                                    /home/colibri/paparazziProto1/var/Colibri/ap/firmwares/fixedwing/main_ap.o
reset                                             /home/colibri/paparazziProto1/var/Colibri/ap/crt0.o
                                                  /home/colibri/paparazziProto1/var/Colibri/ap/arch/lpc21/mcu_arch.o
restoreFIQ                                        /home/colibri/paparazziProto1/var/Colibri/ap/arch/lpc21/armVIC.o
restoreIRQ                                        /home/colibri/paparazziProto1/var/Colibri/ap/arch/lpc21/armVIC.o
                                                  /home/colibri/paparazziProto1/var/Colibri/ap/arch/lpc21/mcu_periph/uart_arch.o
ret_end                                           /home/colibri/paparazziProto1/var/Colibri/ap/subsystems/navigation/poly_survey_adv.o
ret_start                                         /home/colibri/paparazziProto1/var/Colibri/ap/subsystems/navigation/poly_survey_adv.o
return_angle                                      /home/colibri/paparazziProto1/var/Colibri/ap/subsystems/navigation/poly_survey_adv.o
rint                                              /opt/gcc-arm-none-eabi-4_8-2013q4/bin/../lib/gcc/arm-none-eabi/4.8.3/../../../../arm-none-eabi/lib/thumb/libm.a(lib_a-s_rint.o)
                                                  /opt/gcc-arm-none-eabi-4_8-2013q4/bin/../lib/gcc/arm-none-eabi/4.8.3/../../../../arm-none-eabi/lib/thumb/libm.a(lib_a-wf_pow.o)
                                                  /opt/gcc-arm-none-eabi-4_8-2013q4/bin/../lib/gcc/arm-none-eabi/4.8.3/../../../../arm-none-eabi/lib/thumb/libm.a(lib_a-w_pow.o)
                                                  /home/colibri/paparazziProto1/var/Colibri/ap/math/pprz_geodetic_int.o
route_ap_time                                     /home/colibri/paparazziProto1/var/Colibri/ap/firmwares/fixedwing/stabilization/stabilization_attitude.o
                                                  /home/colibri/paparazziProto1/var/Colibri/ap/firmwares/fixedwing/datalink.o
                                                  /home/colibri/paparazziProto1/var/Colibri/ap/subsystems/nav.o
                                                  /home/colibri/paparazziProto1/var/Colibri/ap/firmwares/fixedwing/main_ap.o
scalbn                                            /opt/gcc-arm-none-eabi-4_8-2013q4/bin/../lib/gcc/arm-none-eabi/4.8.3/../../../../arm-none-eabi/lib/thumb/libm.a(lib_a-s_scalbn.o)
                                                  /opt/gcc-arm-none-eabi-4_8-2013q4/bin/../lib/gcc/arm-none-eabi/4.8.3/../../../../arm-none-eabi/lib/thumb/libm.a(lib_a-k_rem_pio2.o)
                                                  /opt/gcc-arm-none-eabi-4_8-2013q4/bin/../lib/gcc/arm-none-eabi/4.8.3/../../../../arm-none-eabi/lib/thumb/libm.a(lib_a-e_pow.o)
scalbnf                                           /opt/gcc-arm-none-eabi-4_8-2013q4/bin/../lib/gcc/arm-none-eabi/4.8.3/../../../../arm-none-eabi/lib/thumb/libm.a(lib_a-sf_scalbn.o)
                                                  /opt/gcc-arm-none-eabi-4_8-2013q4/bin/../lib/gcc/arm-none-eabi/4.8.3/../../../../arm-none-eabi/lib/thumb/libm.a(lib_a-kf_rem_pio2.o)
                                                  /opt/gcc-arm-none-eabi-4_8-2013q4/bin/../lib/gcc/arm-none-eabi/4.8.3/../../../../arm-none-eabi/lib/thumb/libm.a(lib_a-ef_pow.o)
seg_center1                                       /home/colibri/paparazziProto1/var/Colibri/ap/subsystems/navigation/poly_survey_adv.o
seg_center2                                       /home/colibri/paparazziProto1/var/Colibri/ap/subsystems/navigation/poly_survey_adv.o
seg_end                                           /home/colibri/paparazziProto1/var/Colibri/ap/subsystems/navigation/poly_survey_adv.o
seg_start                                         /home/colibri/paparazziProto1/var/Colibri/ap/subsystems/navigation/poly_survey_adv.o
segment_angle                                     /home/colibri/paparazziProto1/var/Colibri/ap/subsystems/navigation/poly_survey_adv.o
sensors_task                                      /home/colibri/paparazziProto1/var/Colibri/ap/firmwares/fixedwing/main_ap.o
sensors_tid                                       /home/colibri/paparazziProto1/var/Colibri/ap/firmwares/fixedwing/main_ap.o
servos_4017_idx                                   /home/colibri/paparazziProto1/var/Colibri/ap/arch/lpc21/servos_4017_hw.o
                                                  /home/colibri/paparazziProto1/var/Colibri/ap/arch/lpc21/mcu_periph/sys_time_arch.o
servos_values                                     /home/colibri/paparazziProto1/var/Colibri/ap/arch/lpc21/servos_4017_hw.o
                                                  /home/colibri/paparazziProto1/var/Colibri/ap/firmwares/fixedwing/main_fbw.o
                                                  /home/colibri/paparazziProto1/var/Colibri/ap/arch/lpc21/mcu_periph/sys_time_arch.o
settings_init                                     /home/colibri/paparazziProto1/var/Colibri/ap/subsystems/settings.o
                                                  /home/colibri/paparazziProto1/var/Colibri/ap/firmwares/fixedwing/main_ap.o
settings_store                                    /home/colibri/paparazziProto1/var/Colibri/ap/subsystems/settings.o
settings_store_now                                /home/colibri/paparazziProto1/var/Colibri/ap/subsystems/settings.o
sin                                               /opt/gcc-arm-none-eabi-4_8-2013q4/bin/../lib/gcc/arm-none-eabi/4.8.3/../../../../arm-none-eabi/lib/thumb/libm.a(lib_a-s_sin.o)
                                                  /home/colibri/paparazziProto1/var/Colibri/ap/subsystems/navigation/border_line.o
                                                  /home/colibri/paparazziProto1/var/Colibri/ap/subsystems/navigation/snav.o
                                                  /home/colibri/paparazziProto1/var/Colibri/ap/subsystems/navigation/OSAMNav.o
                                                  /home/colibri/paparazziProto1/var/Colibri/ap/subsystems/navigation/discsurvey.o
                                                  /home/colibri/paparazziProto1/var/Colibri/ap/subsystems/navigation/nav_cube.o
                                                  /home/colibri/paparazziProto1/var/Colibri/ap/subsystems/nav.o
                                                  /home/colibri/paparazziProto1/var/Colibri/ap/math/pprz_geodetic_double.o
                                                  /home/colibri/paparazziProto1/var/Colibri/ap/math/pprz_geodetic_float.o
sinf                                              /opt/gcc-arm-none-eabi-4_8-2013q4/bin/../lib/gcc/arm-none-eabi/4.8.3/../../../../arm-none-eabi/lib/thumb/libm.a(lib_a-sf_sin.o)
                                                  /home/colibri/paparazziProto1/var/Colibri/ap/subsystems/ahrs/ahrs_infrared.o
                                                  /home/colibri/paparazziProto1/var/Colibri/ap/math/pprz_geodetic_double.o
                                                  /home/colibri/paparazziProto1/var/Colibri/ap/math/pprz_geodetic_float.o
                                                  /home/colibri/paparazziProto1/var/Colibri/ap/math/pprz_geodetic_int.o
sinh                                              /opt/gcc-arm-none-eabi-4_8-2013q4/bin/../lib/gcc/arm-none-eabi/4.8.3/../../../../arm-none-eabi/lib/thumb/libm.a(lib_a-w_sinh.o)
                                                  /home/colibri/paparazziProto1/var/Colibri/ap/math/pprz_geodetic_double.o
                                                  /home/colibri/paparazziProto1/var/Colibri/ap/math/pprz_geodetic_float.o
snav_circle1                                      /home/colibri/paparazziProto1/var/Colibri/ap/subsystems/navigation/snav.o
snav_circle2                                      /home/colibri/paparazziProto1/var/Colibri/ap/subsystems/navigation/snav.o
snav_desired_tow                                  /home/colibri/paparazziProto1/var/Colibri/ap/subsystems/navigation/snav.o
snav_init                                         /home/colibri/paparazziProto1/var/Colibri/ap/subsystems/navigation/snav.o
snav_on_time                                      /home/colibri/paparazziProto1/var/Colibri/ap/subsystems/navigation/snav.o
snav_route                                        /home/colibri/paparazziProto1/var/Colibri/ap/subsystems/navigation/snav.o
sqrt                                              /opt/gcc-arm-none-eabi-4_8-2013q4/bin/../lib/gcc/arm-none-eabi/4.8.3/../../../../arm-none-eabi/lib/thumb/libm.a(lib_a-w_sqrt.o)
                                                  /home/colibri/paparazziProto1/var/Colibri/ap/subsystems/navigation/border_line.o
                                                  /home/colibri/paparazziProto1/var/Colibri/ap/subsystems/navigation/gls.o
                                                  /home/colibri/paparazziProto1/var/Colibri/ap/subsystems/navigation/poly_survey_adv.o
                                                  /home/colibri/paparazziProto1/var/Colibri/ap/subsystems/navigation/spiral.o
                                                  /home/colibri/paparazziProto1/var/Colibri/ap/subsystems/navigation/snav.o
                                                  /home/colibri/paparazziProto1/var/Colibri/ap/subsystems/navigation/OSAMNav.o
                                                  /home/colibri/paparazziProto1/var/Colibri/ap/subsystems/navigation/discsurvey.o
                                                  /home/colibri/paparazziProto1/var/Colibri/ap/subsystems/navigation/nav_line.o
                                                  /home/colibri/paparazziProto1/var/Colibri/ap/subsystems/nav.o
                                                  /home/colibri/paparazziProto1/var/Colibri/ap/math/pprz_geodetic_double.o
sqrtf                                             /opt/gcc-arm-none-eabi-4_8-2013q4/bin/../lib/gcc/arm-none-eabi/4.8.3/../../../../arm-none-eabi/lib/thumb/libm.a(lib_a-wf_sqrt.o)
                                                  /home/colibri/paparazziProto1/var/Colibri/ap/math/pprz_geodetic_double.o
                                                  /home/colibri/paparazziProto1/var/Colibri/ap/math/pprz_geodetic_float.o
stage_time                                        /home/colibri/paparazziProto1/var/Colibri/ap/subsystems/navigation/OSAMNav.o
                                                  /home/colibri/paparazziProto1/var/Colibri/ap/subsystems/navigation/common_flight_plan.o
                                                  /home/colibri/paparazziProto1/var/Colibri/ap/subsystems/nav.o
                                                  /home/colibri/paparazziProto1/var/Colibri/ap/firmwares/fixedwing/main_ap.o
start                                             /home/colibri/paparazziProto1/var/Colibri/ap/crt0.o
sweep_vec                                         /home/colibri/paparazziProto1/var/Colibri/ap/subsystems/navigation/poly_survey_adv.o
sys_time                                          /home/colibri/paparazziProto1/var/Colibri/ap/firmwares/fixedwing/main_ap.o
                                                  /home/colibri/paparazziProto1/var/Colibri/ap/firmwares/fixedwing/main_fbw.o
                                                  /home/colibri/paparazziProto1/var/Colibri/ap/arch/lpc21/mcu_periph/sys_time_arch.o
                                                  /home/colibri/paparazziProto1/var/Colibri/ap/mcu_periph/sys_time.o
sys_time_arch_init                                /home/colibri/paparazziProto1/var/Colibri/ap/arch/lpc21/mcu_periph/sys_time_arch.o
                                                  /home/colibri/paparazziProto1/var/Colibri/ap/mcu_periph/sys_time.o
sys_time_cancel_timer                             /home/colibri/paparazziProto1/var/Colibri/ap/mcu_periph/sys_time.o
sys_time_init                                     /home/colibri/paparazziProto1/var/Colibri/ap/mcu_periph/sys_time.o
                                                  /home/colibri/paparazziProto1/var/Colibri/ap/mcu.o
sys_time_register_timer                           /home/colibri/paparazziProto1/var/Colibri/ap/mcu_periph/sys_time.o
                                                  /home/colibri/paparazziProto1/var/Colibri/ap/firmwares/fixedwing/main_ap.o
                                                  /home/colibri/paparazziProto1/var/Colibri/ap/firmwares/fixedwing/main_fbw.o
sys_time_update_timer                             /home/colibri/paparazziProto1/var/Colibri/ap/mcu_periph/sys_time.o
tan                                               /opt/gcc-arm-none-eabi-4_8-2013q4/bin/../lib/gcc/arm-none-eabi/4.8.3/../../../../arm-none-eabi/lib/thumb/libm.a(lib_a-s_tan.o)
                                                  /home/colibri/paparazziProto1/var/Colibri/ap/subsystems/navigation/gls.o
                                                  /home/colibri/paparazziProto1/var/Colibri/ap/subsystems/navigation/OSAMNav.o
                                                  /home/colibri/paparazziProto1/var/Colibri/ap/math/pprz_geodetic_double.o
                                                  /home/colibri/paparazziProto1/var/Colibri/ap/math/pprz_geodetic_float.o
tanf                                              /opt/gcc-arm-none-eabi-4_8-2013q4/bin/../lib/gcc/arm-none-eabi/4.8.3/../../../../arm-none-eabi/lib/thumb/libm.a(lib_a-sf_tan.o)
                                                  /home/colibri/paparazziProto1/var/Colibri/ap/subsystems/navigation/poly_survey_adv.o
target_speed                                      /home/colibri/paparazziProto1/var/Colibri/ap/subsystems/navigation/gls.o
telemetry_mode_Ap                                 /home/colibri/paparazziProto1/var/Colibri/ap/firmwares/fixedwing/ap_downlink.o
                                                  /home/colibri/paparazziProto1/var/Colibri/ap/firmwares/fixedwing/datalink.o
                                                  /home/colibri/paparazziProto1/var/Colibri/ap/firmwares/fixedwing/main_ap.o
telemetry_mode_Fbw                                /home/colibri/paparazziProto1/var/Colibri/ap/firmwares/fixedwing/fbw_downlink.o
                                                  /home/colibri/paparazziProto1/var/Colibri/ap/firmwares/fixedwing/datalink.o
                                                  /home/colibri/paparazziProto1/var/Colibri/ap/firmwares/fixedwing/main_ap.o
                                                  /home/colibri/paparazziProto1/var/Colibri/ap/firmwares/fixedwing/main_fbw.o
telemetry_tid                                     /home/colibri/paparazziProto1/var/Colibri/ap/firmwares/fixedwing/main_ap.o
the_acs                                           /home/colibri/paparazziProto1/var/Colibri/ap/firmwares/fixedwing/datalink.o
                                                  /home/colibri/paparazziProto1/var/Colibri/ap/subsystems/navigation/traffic_info.o
the_acs_id                                        /home/colibri/paparazziProto1/var/Colibri/ap/firmwares/fixedwing/datalink.o
                                                  /home/colibri/paparazziProto1/var/Colibri/ap/subsystems/navigation/traffic_info.o
time_since_last_ap                                /home/colibri/paparazziProto1/var/Colibri/ap/firmwares/fixedwing/main_fbw.o
                                                  /home/colibri/paparazziProto1/var/Colibri/ap/./inter_mcu.o
too_far_from_home                                 /home/colibri/paparazziProto1/var/Colibri/ap/subsystems/nav.o
                                                  /home/colibri/paparazziProto1/var/Colibri/ap/firmwares/fixedwing/main_ap.o
traffic_info_init                                 /home/colibri/paparazziProto1/var/Colibri/ap/subsystems/navigation/traffic_info.o
                                                  /home/colibri/paparazziProto1/var/Colibri/ap/firmwares/fixedwing/main_ap.o
uart0                                             /home/colibri/paparazziProto1/var/Colibri/ap/subsystems/gps/gps_ubx.o
                                                  /home/colibri/paparazziProto1/var/Colibri/ap/arch/lpc21/mcu_periph/uart_arch.o
                                                  /home/colibri/paparazziProto1/var/Colibri/ap/mcu_periph/uart.o
                                                  /home/colibri/paparazziProto1/var/Colibri/ap/firmwares/fixedwing/main_ap.o
uart0_ISR                                         /home/colibri/paparazziProto1/var/Colibri/ap/arch/lpc21/mcu_periph/uart_arch.o
uart0_init                                        /home/colibri/paparazziProto1/var/Colibri/ap/arch/lpc21/mcu_periph/uart_arch.o
                                                  /home/colibri/paparazziProto1/var/Colibri/ap/mcu.o
uart1                                             /home/colibri/paparazziProto1/var/Colibri/ap/firmwares/fixedwing/datalink.o
                                                  /home/colibri/paparazziProto1/var/Colibri/ap/arch/lpc21/mcu_periph/uart_arch.o
                                                  /home/colibri/paparazziProto1/var/Colibri/ap/mcu_periph/uart.o
                                                  /home/colibri/paparazziProto1/var/Colibri/ap/firmwares/fixedwing/main_ap.o
                                                  /home/colibri/paparazziProto1/var/Colibri/ap/firmwares/fixedwing/main_fbw.o
uart1_ISR                                         /home/colibri/paparazziProto1/var/Colibri/ap/arch/lpc21/mcu_periph/uart_arch.o
uart1_init                                        /home/colibri/paparazziProto1/var/Colibri/ap/arch/lpc21/mcu_periph/uart_arch.o
                                                  /home/colibri/paparazziProto1/var/Colibri/ap/mcu.o
uart_check_free_space                             /home/colibri/paparazziProto1/var/Colibri/ap/mcu_periph/uart.o
                                                  /home/colibri/paparazziProto1/var/Colibri/ap/firmwares/fixedwing/datalink.o
                                                  /home/colibri/paparazziProto1/var/Colibri/ap/firmwares/fixedwing/main_ap.o
                                                  /home/colibri/paparazziProto1/var/Colibri/ap/firmwares/fixedwing/main_fbw.o
uart_periph_init                                  /home/colibri/paparazziProto1/var/Colibri/ap/mcu_periph/uart.o
                                                  /home/colibri/paparazziProto1/var/Colibri/ap/arch/lpc21/mcu_periph/uart_arch.o
uart_periph_set_baudrate                          /home/colibri/paparazziProto1/var/Colibri/ap/arch/lpc21/mcu_periph/uart_arch.o
uart_transmit                                     /home/colibri/paparazziProto1/var/Colibri/ap/arch/lpc21/mcu_periph/uart_arch.o
                                                  /home/colibri/paparazziProto1/var/Colibri/ap/subsystems/gps/gps_ubx.o
                                                  /home/colibri/paparazziProto1/var/Colibri/ap/firmwares/fixedwing/datalink.o
                                                  /home/colibri/paparazziProto1/var/Colibri/ap/firmwares/fixedwing/main_ap.o
                                                  /home/colibri/paparazziProto1/var/Colibri/ap/firmwares/fixedwing/main_fbw.o
ubxsend_cfg_rst                                   /home/colibri/paparazziProto1/var/Colibri/ap/subsystems/gps/gps_ubx.o
utm_of_lla_f                                      /home/colibri/paparazziProto1/var/Colibri/ap/math/pprz_geodetic_float.o
                                                  /home/colibri/paparazziProto1/var/Colibri/ap/subsystems/gps/gps_ubx.o
                                                  /home/colibri/paparazziProto1/var/Colibri/ap/firmwares/fixedwing/datalink.o
                                                  /home/colibri/paparazziProto1/var/Colibri/ap/subsystems/nav.o
v_ctl_altitude_error                              /home/colibri/paparazziProto1/var/Colibri/ap/firmwares/fixedwing/guidance/guidance_v.o
                                                  /home/colibri/paparazziProto1/var/Colibri/ap/firmwares/fixedwing/stabilization/stabilization_attitude.o
v_ctl_altitude_loop                               /home/colibri/paparazziProto1/var/Colibri/ap/firmwares/fixedwing/guidance/guidance_v.o
                                                  /home/colibri/paparazziProto1/var/Colibri/ap/firmwares/fixedwing/main_ap.o
v_ctl_altitude_max_climb                          /home/colibri/paparazziProto1/var/Colibri/ap/firmwares/fixedwing/guidance/guidance_v.o
v_ctl_altitude_pgain                              /home/colibri/paparazziProto1/var/Colibri/ap/firmwares/fixedwing/datalink.o
                                                  /home/colibri/paparazziProto1/var/Colibri/ap/subsystems/navigation/gls.o
                                                  /home/colibri/paparazziProto1/var/Colibri/ap/firmwares/fixedwing/guidance/guidance_v.o
                                                  /home/colibri/paparazziProto1/var/Colibri/ap/firmwares/fixedwing/main_ap.o
v_ctl_altitude_pre_climb                          /home/colibri/paparazziProto1/var/Colibri/ap/subsystems/navigation/border_line.o
                                                  /home/colibri/paparazziProto1/var/Colibri/ap/subsystems/navigation/gls.o
                                                  /home/colibri/paparazziProto1/var/Colibri/ap/subsystems/navigation/poly_survey_adv.o
                                                  /home/colibri/paparazziProto1/var/Colibri/ap/subsystems/navigation/snav.o
                                                  /home/colibri/paparazziProto1/var/Colibri/ap/subsystems/navigation/OSAMNav.o
                                                  /home/colibri/paparazziProto1/var/Colibri/ap/subsystems/navigation/discsurvey.o
                                                  /home/colibri/paparazziProto1/var/Colibri/ap/subsystems/navigation/nav_line.o
                                                  /home/colibri/paparazziProto1/var/Colibri/ap/subsystems/navigation/nav_survey_rectangle.o
                                                  /home/colibri/paparazziProto1/var/Colibri/ap/subsystems/nav.o
                                                  /home/colibri/paparazziProto1/var/Colibri/ap/firmwares/fixedwing/guidance/guidance_v.o
v_ctl_altitude_pre_climb_correction               /home/colibri/paparazziProto1/var/Colibri/ap/firmwares/fixedwing/guidance/guidance_v.o
v_ctl_altitude_setpoint                           /home/colibri/paparazziProto1/var/Colibri/ap/subsystems/nav.o
                                                  /home/colibri/paparazziProto1/var/Colibri/ap/firmwares/fixedwing/guidance/guidance_v.o
                                                  /home/colibri/paparazziProto1/var/Colibri/ap/firmwares/fixedwing/main_ap.o
v_ctl_auto_pitch_igain                            /home/colibri/paparazziProto1/var/Colibri/ap/firmwares/fixedwing/guidance/guidance_v.o
v_ctl_auto_pitch_pgain                            /home/colibri/paparazziProto1/var/Colibri/ap/firmwares/fixedwing/guidance/guidance_v.o
v_ctl_auto_pitch_sum_err                          /home/colibri/paparazziProto1/var/Colibri/ap/firmwares/fixedwing/guidance/guidance_v.o
v_ctl_auto_throttle_climb_throttle_increment      /home/colibri/paparazziProto1/var/Colibri/ap/firmwares/fixedwing/datalink.o
                                                  /home/colibri/paparazziProto1/var/Colibri/ap/firmwares/fixedwing/guidance/guidance_v.o
                                                  /home/colibri/paparazziProto1/var/Colibri/ap/firmwares/fixedwing/main_ap.o
v_ctl_auto_throttle_cruise_throttle               /home/colibri/paparazziProto1/var/Colibri/ap/firmwares/fixedwing/datalink.o
                                                  /home/colibri/paparazziProto1/var/Colibri/ap/firmwares/fixedwing/guidance/guidance_v.o
                                                  /home/colibri/paparazziProto1/var/Colibri/ap/firmwares/fixedwing/stabilization/stabilization_attitude.o
                                                  /home/colibri/paparazziProto1/var/Colibri/ap/firmwares/fixedwing/main_ap.o
v_ctl_auto_throttle_dash_trim                     /home/colibri/paparazziProto1/var/Colibri/ap/firmwares/fixedwing/stabilization/stabilization_attitude.o
v_ctl_auto_throttle_dgain                         /home/colibri/paparazziProto1/var/Colibri/ap/firmwares/fixedwing/datalink.o
                                                  /home/colibri/paparazziProto1/var/Colibri/ap/firmwares/fixedwing/guidance/guidance_v.o
                                                  /home/colibri/paparazziProto1/var/Colibri/ap/firmwares/fixedwing/main_ap.o
v_ctl_auto_throttle_igain                         /home/colibri/paparazziProto1/var/Colibri/ap/firmwares/fixedwing/datalink.o
                                                  /home/colibri/paparazziProto1/var/Colibri/ap/firmwares/fixedwing/guidance/guidance_v.o
                                                  /home/colibri/paparazziProto1/var/Colibri/ap/firmwares/fixedwing/main_ap.o
v_ctl_auto_throttle_loiter_trim                   /home/colibri/paparazziProto1/var/Colibri/ap/firmwares/fixedwing/stabilization/stabilization_attitude.o
v_ctl_auto_throttle_max_cruise_throttle           /home/colibri/paparazziProto1/var/Colibri/ap/firmwares/fixedwing/datalink.o
                                                  /home/colibri/paparazziProto1/var/Colibri/ap/firmwares/fixedwing/guidance/guidance_v.o
v_ctl_auto_throttle_min_cruise_throttle           /home/colibri/paparazziProto1/var/Colibri/ap/firmwares/fixedwing/datalink.o
                                                  /home/colibri/paparazziProto1/var/Colibri/ap/firmwares/fixedwing/guidance/guidance_v.o
v_ctl_auto_throttle_nominal_cruise_throttle       /home/colibri/paparazziProto1/var/Colibri/ap/firmwares/fixedwing/datalink.o
                                                  /home/colibri/paparazziProto1/var/Colibri/ap/firmwares/fixedwing/guidance/guidance_v.o
                                                  /home/colibri/paparazziProto1/var/Colibri/ap/firmwares/fixedwing/stabilization/stabilization_attitude.o
v_ctl_auto_throttle_pgain                         /home/colibri/paparazziProto1/var/Colibri/ap/firmwares/fixedwing/datalink.o
                                                  /home/colibri/paparazziProto1/var/Colibri/ap/firmwares/fixedwing/guidance/guidance_v.o
                                                  /home/colibri/paparazziProto1/var/Colibri/ap/firmwares/fixedwing/main_ap.o
v_ctl_auto_throttle_pitch_of_vz_dgain             /home/colibri/paparazziProto1/var/Colibri/ap/firmwares/fixedwing/datalink.o
                                                  /home/colibri/paparazziProto1/var/Colibri/ap/firmwares/fixedwing/guidance/guidance_v.o
                                                  /home/colibri/paparazziProto1/var/Colibri/ap/firmwares/fixedwing/main_ap.o
v_ctl_auto_throttle_pitch_of_vz_pgain             /home/colibri/paparazziProto1/var/Colibri/ap/firmwares/fixedwing/datalink.o
                                                  /home/colibri/paparazziProto1/var/Colibri/ap/firmwares/fixedwing/guidance/guidance_v.o
                                                  /home/colibri/paparazziProto1/var/Colibri/ap/firmwares/fixedwing/main_ap.o
v_ctl_auto_throttle_submode                       /home/colibri/paparazziProto1/var/Colibri/ap/subsystems/nav.o
                                                  /home/colibri/paparazziProto1/var/Colibri/ap/firmwares/fixedwing/guidance/guidance_v.o
                                                  /home/colibri/paparazziProto1/var/Colibri/ap/firmwares/fixedwing/main_ap.o
v_ctl_auto_throttle_sum_err                       /home/colibri/paparazziProto1/var/Colibri/ap/firmwares/fixedwing/guidance/guidance_v.o
                                                  /home/colibri/paparazziProto1/var/Colibri/ap/firmwares/fixedwing/main_ap.o
v_ctl_climb_loop                                  /home/colibri/paparazziProto1/var/Colibri/ap/firmwares/fixedwing/guidance/guidance_v.o
                                                  /home/colibri/paparazziProto1/var/Colibri/ap/firmwares/fixedwing/main_ap.o
v_ctl_climb_mode                                  /home/colibri/paparazziProto1/var/Colibri/ap/subsystems/navigation/border_line.o
                                                  /home/colibri/paparazziProto1/var/Colibri/ap/subsystems/navigation/gls.o
                                                  /home/colibri/paparazziProto1/var/Colibri/ap/subsystems/navigation/poly_survey_adv.o
                                                  /home/colibri/paparazziProto1/var/Colibri/ap/subsystems/navigation/snav.o
                                                  /home/colibri/paparazziProto1/var/Colibri/ap/subsystems/navigation/OSAMNav.o
                                                  /home/colibri/paparazziProto1/var/Colibri/ap/subsystems/navigation/discsurvey.o
                                                  /home/colibri/paparazziProto1/var/Colibri/ap/subsystems/navigation/nav_line.o
                                                  /home/colibri/paparazziProto1/var/Colibri/ap/subsystems/navigation/nav_survey_rectangle.o
                                                  /home/colibri/paparazziProto1/var/Colibri/ap/subsystems/nav.o
                                                  /home/colibri/paparazziProto1/var/Colibri/ap/firmwares/fixedwing/guidance/guidance_v.o
v_ctl_climb_setpoint                              /home/colibri/paparazziProto1/var/Colibri/ap/firmwares/fixedwing/guidance/guidance_v.o
                                                  /home/colibri/paparazziProto1/var/Colibri/ap/firmwares/fixedwing/main_ap.o
v_ctl_init                                        /home/colibri/paparazziProto1/var/Colibri/ap/firmwares/fixedwing/guidance/guidance_v.o
                                                  /home/colibri/paparazziProto1/var/Colibri/ap/firmwares/fixedwing/main_ap.o
v_ctl_mode                                        /home/colibri/paparazziProto1/var/Colibri/ap/subsystems/navigation/border_line.o
                                                  /home/colibri/paparazziProto1/var/Colibri/ap/subsystems/navigation/gls.o
                                                  /home/colibri/paparazziProto1/var/Colibri/ap/subsystems/navigation/poly_survey_adv.o
                                                  /home/colibri/paparazziProto1/var/Colibri/ap/subsystems/navigation/snav.o
                                                  /home/colibri/paparazziProto1/var/Colibri/ap/subsystems/navigation/OSAMNav.o
                                                  /home/colibri/paparazziProto1/var/Colibri/ap/subsystems/navigation/discsurvey.o
                                                  /home/colibri/paparazziProto1/var/Colibri/ap/subsystems/navigation/nav_line.o
                                                  /home/colibri/paparazziProto1/var/Colibri/ap/subsystems/navigation/nav_survey_rectangle.o
                                                  /home/colibri/paparazziProto1/var/Colibri/ap/subsystems/nav.o
                                                  /home/colibri/paparazziProto1/var/Colibri/ap/firmwares/fixedwing/guidance/guidance_v.o
                                                  /home/colibri/paparazziProto1/var/Colibri/ap/firmwares/fixedwing/main_ap.o
v_ctl_throttle_setpoint                           /home/colibri/paparazziProto1/var/Colibri/ap/firmwares/fixedwing/guidance/guidance_v.o
                                                  /home/colibri/paparazziProto1/var/Colibri/ap/firmwares/fixedwing/stabilization/stabilization_attitude.o
                                                  /home/colibri/paparazziProto1/var/Colibri/ap/firmwares/fixedwing/main_ap.o
v_ctl_throttle_slew                               /home/colibri/paparazziProto1/var/Colibri/ap/firmwares/fixedwing/guidance/guidance_v.o
                                                  /home/colibri/paparazziProto1/var/Colibri/ap/firmwares/fixedwing/main_ap.o
v_ctl_throttle_slewed                             /home/colibri/paparazziProto1/var/Colibri/ap/firmwares/fixedwing/guidance/guidance_v.o
                                                  /home/colibri/paparazziProto1/var/Colibri/ap/firmwares/fixedwing/main_ap.o
vsupply                                           /home/colibri/paparazziProto1/var/Colibri/ap/firmwares/fixedwing/main_ap.o
waypoints                                         /home/colibri/paparazziProto1/var/Colibri/ap/subsystems/nav.o
                                                  /home/colibri/paparazziProto1/var/Colibri/ap/firmwares/fixedwing/datalink.o
                                                  /home/colibri/paparazziProto1/var/Colibri/ap/subsystems/navigation/border_line.o
                                                  /home/colibri/paparazziProto1/var/Colibri/ap/subsystems/navigation/gls.o
                                                  /home/colibri/paparazziProto1/var/Colibri/ap/subsystems/navigation/poly_survey_adv.o
                                                  /home/colibri/paparazziProto1/var/Colibri/ap/subsystems/navigation/spiral.o
                                                  /home/colibri/paparazziProto1/var/Colibri/ap/subsystems/navigation/snav.o
                                                  /home/colibri/paparazziProto1/var/Colibri/ap/subsystems/navigation/OSAMNav.o
                                                  /home/colibri/paparazziProto1/var/Colibri/ap/subsystems/navigation/discsurvey.o
                                                  /home/colibri/paparazziProto1/var/Colibri/ap/subsystems/navigation/nav_cube.o
                                                  /home/colibri/paparazziProto1/var/Colibri/ap/subsystems/navigation/nav_line.o
                                                  /home/colibri/paparazziProto1/var/Colibri/ap/subsystems/navigation/nav_survey_rectangle.o
                                                  /home/colibri/paparazziProto1/var/Colibri/ap/firmwares/fixedwing/main_ap.o
wind_east                                         /home/colibri/paparazziProto1/var/Colibri/ap/subsystems/ahrs/ahrs_infrared.o
                                                  /home/colibri/paparazziProto1/var/Colibri/ap/firmwares/fixedwing/datalink.o
                                                  /home/colibri/paparazziProto1/var/Colibri/ap/subsystems/navigation/snav.o
                                                  /home/colibri/paparazziProto1/var/Colibri/ap/subsystems/navigation/discsurvey.o
                                                  /home/colibri/paparazziProto1/var/Colibri/ap/./estimator.o
wind_north                                        /home/colibri/paparazziProto1/var/Colibri/ap/subsystems/ahrs/ahrs_infrared.o
                                                  /home/colibri/paparazziProto1/var/Colibri/ap/firmwares/fixedwing/datalink.o
                                                  /home/colibri/paparazziProto1/var/Colibri/ap/subsystems/navigation/snav.o
                                                  /home/colibri/paparazziProto1/var/Colibri/ap/subsystems/navigation/discsurvey.o
                                                  /home/colibri/paparazziProto1/var/Colibri/ap/./estimator.o
