Archive member included because of file (symbol)

/opt/paparazzi/arm-multilib/lib/gcc/arm-none-eabi/4.6.2/../../../../arm-none-eabi/lib/thumb/libm.a(lib_a-s_atan.o)
                              /home/lionel/paparazziProto1/var/Colibri/ap/math/pprz_geodetic_float.o (atan)
/opt/paparazzi/arm-multilib/lib/gcc/arm-none-eabi/4.6.2/../../../../arm-none-eabi/lib/thumb/libm.a(lib_a-s_cos.o)
                              /home/lionel/paparazziProto1/var/Colibri/ap/math/pprz_geodetic_float.o (cos)
/opt/paparazzi/arm-multilib/lib/gcc/arm-none-eabi/4.6.2/../../../../arm-none-eabi/lib/thumb/libm.a(lib_a-s_fabs.o)
                              /opt/paparazzi/arm-multilib/lib/gcc/arm-none-eabi/4.6.2/../../../../arm-none-eabi/lib/thumb/libm.a(lib_a-s_atan.o) (fabs)
/opt/paparazzi/arm-multilib/lib/gcc/arm-none-eabi/4.6.2/../../../../arm-none-eabi/lib/thumb/libm.a(lib_a-s_rint.o)
                              /home/lionel/paparazziProto1/var/Colibri/ap/math/pprz_geodetic_int.o (rint)
/opt/paparazzi/arm-multilib/lib/gcc/arm-none-eabi/4.6.2/../../../../arm-none-eabi/lib/thumb/libm.a(lib_a-s_sin.o)
                              /home/lionel/paparazziProto1/var/Colibri/ap/math/pprz_geodetic_float.o (sin)
/opt/paparazzi/arm-multilib/lib/gcc/arm-none-eabi/4.6.2/../../../../arm-none-eabi/lib/thumb/libm.a(lib_a-s_tan.o)
                              /home/lionel/paparazziProto1/var/Colibri/ap/math/pprz_geodetic_float.o (tan)
/opt/paparazzi/arm-multilib/lib/gcc/arm-none-eabi/4.6.2/../../../../arm-none-eabi/lib/thumb/libm.a(lib_a-sf_atan.o)
                              /home/lionel/paparazziProto1/var/Colibri/ap/math/pprz_geodetic_float.o (atanf)
/opt/paparazzi/arm-multilib/lib/gcc/arm-none-eabi/4.6.2/../../../../arm-none-eabi/lib/thumb/libm.a(lib_a-sf_cos.o)
                              /home/lionel/paparazziProto1/var/Colibri/ap/math/pprz_geodetic_int.o (cosf)
/opt/paparazzi/arm-multilib/lib/gcc/arm-none-eabi/4.6.2/../../../../arm-none-eabi/lib/thumb/libm.a(lib_a-sf_fabs.o)
                              /opt/paparazzi/arm-multilib/lib/gcc/arm-none-eabi/4.6.2/../../../../arm-none-eabi/lib/thumb/libm.a(lib_a-sf_atan.o) (fabsf)
/opt/paparazzi/arm-multilib/lib/gcc/arm-none-eabi/4.6.2/../../../../arm-none-eabi/lib/thumb/libm.a(lib_a-sf_sin.o)
                              /home/lionel/paparazziProto1/var/Colibri/ap/math/pprz_geodetic_int.o (sinf)
/opt/paparazzi/arm-multilib/lib/gcc/arm-none-eabi/4.6.2/../../../../arm-none-eabi/lib/thumb/libm.a(lib_a-sf_tan.o)
                              /home/lionel/paparazziProto1/var/Colibri/ap/subsystems/navigation/poly_survey_adv.o (tanf)
/opt/paparazzi/arm-multilib/lib/gcc/arm-none-eabi/4.6.2/../../../../arm-none-eabi/lib/thumb/libm.a(lib_a-w_acos.o)
                              /home/lionel/paparazziProto1/var/Colibri/ap/subsystems/navigation/snav.o (acos)
/opt/paparazzi/arm-multilib/lib/gcc/arm-none-eabi/4.6.2/../../../../arm-none-eabi/lib/thumb/libm.a(lib_a-w_asin.o)
                              /home/lionel/paparazziProto1/var/Colibri/ap/math/pprz_geodetic_float.o (asin)
/opt/paparazzi/arm-multilib/lib/gcc/arm-none-eabi/4.6.2/../../../../arm-none-eabi/lib/thumb/libm.a(lib_a-w_atan2.o)
                              /home/lionel/paparazziProto1/var/Colibri/ap/math/pprz_geodetic_double.o (atan2)
/opt/paparazzi/arm-multilib/lib/gcc/arm-none-eabi/4.6.2/../../../../arm-none-eabi/lib/thumb/libm.a(lib_a-w_cosh.o)
                              /home/lionel/paparazziProto1/var/Colibri/ap/math/pprz_geodetic_float.o (cosh)
/opt/paparazzi/arm-multilib/lib/gcc/arm-none-eabi/4.6.2/../../../../arm-none-eabi/lib/thumb/libm.a(lib_a-w_exp.o)
                              /home/lionel/paparazziProto1/var/Colibri/ap/math/pprz_geodetic_float.o (exp)
/opt/paparazzi/arm-multilib/lib/gcc/arm-none-eabi/4.6.2/../../../../arm-none-eabi/lib/thumb/libm.a(lib_a-w_log.o)
                              /home/lionel/paparazziProto1/var/Colibri/ap/math/pprz_geodetic_float.o (log)
/opt/paparazzi/arm-multilib/lib/gcc/arm-none-eabi/4.6.2/../../../../arm-none-eabi/lib/thumb/libm.a(lib_a-w_pow.o)
                              /home/lionel/paparazziProto1/var/Colibri/ap/math/pprz_geodetic_float.o (pow)
/opt/paparazzi/arm-multilib/lib/gcc/arm-none-eabi/4.6.2/../../../../arm-none-eabi/lib/thumb/libm.a(lib_a-w_sinh.o)
                              /home/lionel/paparazziProto1/var/Colibri/ap/math/pprz_geodetic_float.o (sinh)
/opt/paparazzi/arm-multilib/lib/gcc/arm-none-eabi/4.6.2/../../../../arm-none-eabi/lib/thumb/libm.a(lib_a-w_sqrt.o)
                              /home/lionel/paparazziProto1/var/Colibri/ap/math/pprz_geodetic_double.o (sqrt)
/opt/paparazzi/arm-multilib/lib/gcc/arm-none-eabi/4.6.2/../../../../arm-none-eabi/lib/thumb/libm.a(lib_a-wf_atan2.o)
                              /home/lionel/paparazziProto1/var/Colibri/ap/math/pprz_geodetic_float.o (atan2f)
/opt/paparazzi/arm-multilib/lib/gcc/arm-none-eabi/4.6.2/../../../../arm-none-eabi/lib/thumb/libm.a(lib_a-wf_pow.o)
                              /home/lionel/paparazziProto1/var/Colibri/ap/math/pprz_geodetic_float.o (powf)
/opt/paparazzi/arm-multilib/lib/gcc/arm-none-eabi/4.6.2/../../../../arm-none-eabi/lib/thumb/libm.a(lib_a-wf_sqrt.o)
                              /home/lionel/paparazziProto1/var/Colibri/ap/math/pprz_geodetic_float.o (sqrtf)
/opt/paparazzi/arm-multilib/lib/gcc/arm-none-eabi/4.6.2/../../../../arm-none-eabi/lib/thumb/libm.a(lib_a-e_acos.o)
                              /opt/paparazzi/arm-multilib/lib/gcc/arm-none-eabi/4.6.2/../../../../arm-none-eabi/lib/thumb/libm.a(lib_a-w_acos.o) (__ieee754_acos)
/opt/paparazzi/arm-multilib/lib/gcc/arm-none-eabi/4.6.2/../../../../arm-none-eabi/lib/thumb/libm.a(lib_a-e_asin.o)
                              /opt/paparazzi/arm-multilib/lib/gcc/arm-none-eabi/4.6.2/../../../../arm-none-eabi/lib/thumb/libm.a(lib_a-w_asin.o) (__ieee754_asin)
/opt/paparazzi/arm-multilib/lib/gcc/arm-none-eabi/4.6.2/../../../../arm-none-eabi/lib/thumb/libm.a(lib_a-e_atan2.o)
                              /opt/paparazzi/arm-multilib/lib/gcc/arm-none-eabi/4.6.2/../../../../arm-none-eabi/lib/thumb/libm.a(lib_a-w_atan2.o) (__ieee754_atan2)
/opt/paparazzi/arm-multilib/lib/gcc/arm-none-eabi/4.6.2/../../../../arm-none-eabi/lib/thumb/libm.a(lib_a-e_cosh.o)
                              /opt/paparazzi/arm-multilib/lib/gcc/arm-none-eabi/4.6.2/../../../../arm-none-eabi/lib/thumb/libm.a(lib_a-w_cosh.o) (__ieee754_cosh)
/opt/paparazzi/arm-multilib/lib/gcc/arm-none-eabi/4.6.2/../../../../arm-none-eabi/lib/thumb/libm.a(lib_a-e_exp.o)
                              /opt/paparazzi/arm-multilib/lib/gcc/arm-none-eabi/4.6.2/../../../../arm-none-eabi/lib/thumb/libm.a(lib_a-w_exp.o) (__ieee754_exp)
/opt/paparazzi/arm-multilib/lib/gcc/arm-none-eabi/4.6.2/../../../../arm-none-eabi/lib/thumb/libm.a(lib_a-e_log.o)
                              /opt/paparazzi/arm-multilib/lib/gcc/arm-none-eabi/4.6.2/../../../../arm-none-eabi/lib/thumb/libm.a(lib_a-w_log.o) (__ieee754_log)
/opt/paparazzi/arm-multilib/lib/gcc/arm-none-eabi/4.6.2/../../../../arm-none-eabi/lib/thumb/libm.a(lib_a-e_pow.o)
                              /opt/paparazzi/arm-multilib/lib/gcc/arm-none-eabi/4.6.2/../../../../arm-none-eabi/lib/thumb/libm.a(lib_a-w_pow.o) (__ieee754_pow)
/opt/paparazzi/arm-multilib/lib/gcc/arm-none-eabi/4.6.2/../../../../arm-none-eabi/lib/thumb/libm.a(lib_a-e_rem_pio2.o)
                              /opt/paparazzi/arm-multilib/lib/gcc/arm-none-eabi/4.6.2/../../../../arm-none-eabi/lib/thumb/libm.a(lib_a-s_cos.o) (__ieee754_rem_pio2)
/opt/paparazzi/arm-multilib/lib/gcc/arm-none-eabi/4.6.2/../../../../arm-none-eabi/lib/thumb/libm.a(lib_a-e_sinh.o)
                              /opt/paparazzi/arm-multilib/lib/gcc/arm-none-eabi/4.6.2/../../../../arm-none-eabi/lib/thumb/libm.a(lib_a-w_sinh.o) (__ieee754_sinh)
/opt/paparazzi/arm-multilib/lib/gcc/arm-none-eabi/4.6.2/../../../../arm-none-eabi/lib/thumb/libm.a(lib_a-e_sqrt.o)
                              /opt/paparazzi/arm-multilib/lib/gcc/arm-none-eabi/4.6.2/../../../../arm-none-eabi/lib/thumb/libm.a(lib_a-w_sqrt.o) (__ieee754_sqrt)
/opt/paparazzi/arm-multilib/lib/gcc/arm-none-eabi/4.6.2/../../../../arm-none-eabi/lib/thumb/libm.a(lib_a-ef_atan2.o)
                              /opt/paparazzi/arm-multilib/lib/gcc/arm-none-eabi/4.6.2/../../../../arm-none-eabi/lib/thumb/libm.a(lib_a-wf_atan2.o) (__ieee754_atan2f)
/opt/paparazzi/arm-multilib/lib/gcc/arm-none-eabi/4.6.2/../../../../arm-none-eabi/lib/thumb/libm.a(lib_a-ef_pow.o)
                              /opt/paparazzi/arm-multilib/lib/gcc/arm-none-eabi/4.6.2/../../../../arm-none-eabi/lib/thumb/libm.a(lib_a-wf_pow.o) (__ieee754_powf)
/opt/paparazzi/arm-multilib/lib/gcc/arm-none-eabi/4.6.2/../../../../arm-none-eabi/lib/thumb/libm.a(lib_a-ef_rem_pio2.o)
                              /opt/paparazzi/arm-multilib/lib/gcc/arm-none-eabi/4.6.2/../../../../arm-none-eabi/lib/thumb/libm.a(lib_a-sf_cos.o) (__ieee754_rem_pio2f)
/opt/paparazzi/arm-multilib/lib/gcc/arm-none-eabi/4.6.2/../../../../arm-none-eabi/lib/thumb/libm.a(lib_a-ef_sqrt.o)
                              /opt/paparazzi/arm-multilib/lib/gcc/arm-none-eabi/4.6.2/../../../../arm-none-eabi/lib/thumb/libm.a(lib_a-wf_sqrt.o) (__ieee754_sqrtf)
/opt/paparazzi/arm-multilib/lib/gcc/arm-none-eabi/4.6.2/../../../../arm-none-eabi/lib/thumb/libm.a(lib_a-k_cos.o)
                              /opt/paparazzi/arm-multilib/lib/gcc/arm-none-eabi/4.6.2/../../../../arm-none-eabi/lib/thumb/libm.a(lib_a-s_cos.o) (__kernel_cos)
/opt/paparazzi/arm-multilib/lib/gcc/arm-none-eabi/4.6.2/../../../../arm-none-eabi/lib/thumb/libm.a(lib_a-k_rem_pio2.o)
                              /opt/paparazzi/arm-multilib/lib/gcc/arm-none-eabi/4.6.2/../../../../arm-none-eabi/lib/thumb/libm.a(lib_a-e_rem_pio2.o) (__kernel_rem_pio2)
/opt/paparazzi/arm-multilib/lib/gcc/arm-none-eabi/4.6.2/../../../../arm-none-eabi/lib/thumb/libm.a(lib_a-k_sin.o)
                              /opt/paparazzi/arm-multilib/lib/gcc/arm-none-eabi/4.6.2/../../../../arm-none-eabi/lib/thumb/libm.a(lib_a-s_cos.o) (__kernel_sin)
/opt/paparazzi/arm-multilib/lib/gcc/arm-none-eabi/4.6.2/../../../../arm-none-eabi/lib/thumb/libm.a(lib_a-k_tan.o)
                              /opt/paparazzi/arm-multilib/lib/gcc/arm-none-eabi/4.6.2/../../../../arm-none-eabi/lib/thumb/libm.a(lib_a-s_tan.o) (__kernel_tan)
/opt/paparazzi/arm-multilib/lib/gcc/arm-none-eabi/4.6.2/../../../../arm-none-eabi/lib/thumb/libm.a(lib_a-kf_cos.o)
                              /opt/paparazzi/arm-multilib/lib/gcc/arm-none-eabi/4.6.2/../../../../arm-none-eabi/lib/thumb/libm.a(lib_a-sf_cos.o) (__kernel_cosf)
/opt/paparazzi/arm-multilib/lib/gcc/arm-none-eabi/4.6.2/../../../../arm-none-eabi/lib/thumb/libm.a(lib_a-kf_rem_pio2.o)
                              /opt/paparazzi/arm-multilib/lib/gcc/arm-none-eabi/4.6.2/../../../../arm-none-eabi/lib/thumb/libm.a(lib_a-ef_rem_pio2.o) (__kernel_rem_pio2f)
/opt/paparazzi/arm-multilib/lib/gcc/arm-none-eabi/4.6.2/../../../../arm-none-eabi/lib/thumb/libm.a(lib_a-kf_sin.o)
                              /opt/paparazzi/arm-multilib/lib/gcc/arm-none-eabi/4.6.2/../../../../arm-none-eabi/lib/thumb/libm.a(lib_a-sf_cos.o) (__kernel_sinf)
/opt/paparazzi/arm-multilib/lib/gcc/arm-none-eabi/4.6.2/../../../../arm-none-eabi/lib/thumb/libm.a(lib_a-kf_tan.o)
                              /opt/paparazzi/arm-multilib/lib/gcc/arm-none-eabi/4.6.2/../../../../arm-none-eabi/lib/thumb/libm.a(lib_a-sf_tan.o) (__kernel_tanf)
/opt/paparazzi/arm-multilib/lib/gcc/arm-none-eabi/4.6.2/../../../../arm-none-eabi/lib/thumb/libm.a(lib_a-s_expm1.o)
                              /opt/paparazzi/arm-multilib/lib/gcc/arm-none-eabi/4.6.2/../../../../arm-none-eabi/lib/thumb/libm.a(lib_a-e_cosh.o) (expm1)
/opt/paparazzi/arm-multilib/lib/gcc/arm-none-eabi/4.6.2/../../../../arm-none-eabi/lib/thumb/libm.a(lib_a-s_finite.o)
                              /opt/paparazzi/arm-multilib/lib/gcc/arm-none-eabi/4.6.2/../../../../arm-none-eabi/lib/thumb/libm.a(lib_a-w_exp.o) (finite)
/opt/paparazzi/arm-multilib/lib/gcc/arm-none-eabi/4.6.2/../../../../arm-none-eabi/lib/thumb/libm.a(lib_a-s_floor.o)
                              /opt/paparazzi/arm-multilib/lib/gcc/arm-none-eabi/4.6.2/../../../../arm-none-eabi/lib/thumb/libm.a(lib_a-k_rem_pio2.o) (floor)
/opt/paparazzi/arm-multilib/lib/gcc/arm-none-eabi/4.6.2/../../../../arm-none-eabi/lib/thumb/libm.a(lib_a-s_fpclassify.o)
                              /opt/paparazzi/arm-multilib/lib/gcc/arm-none-eabi/4.6.2/../../../../arm-none-eabi/lib/thumb/libm.a(lib_a-w_acos.o) (__fpclassifyd)
/opt/paparazzi/arm-multilib/lib/gcc/arm-none-eabi/4.6.2/../../../../arm-none-eabi/lib/thumb/libm.a(lib_a-s_lib_ver.o)
                              /opt/paparazzi/arm-multilib/lib/gcc/arm-none-eabi/4.6.2/../../../../arm-none-eabi/lib/thumb/libm.a(lib_a-w_acos.o) (__fdlib_version)
/opt/paparazzi/arm-multilib/lib/gcc/arm-none-eabi/4.6.2/../../../../arm-none-eabi/lib/thumb/libm.a(lib_a-s_matherr.o)
                              /opt/paparazzi/arm-multilib/lib/gcc/arm-none-eabi/4.6.2/../../../../arm-none-eabi/lib/thumb/libm.a(lib_a-w_acos.o) (matherr)
/opt/paparazzi/arm-multilib/lib/gcc/arm-none-eabi/4.6.2/../../../../arm-none-eabi/lib/thumb/libm.a(lib_a-s_nan.o)
                              /opt/paparazzi/arm-multilib/lib/gcc/arm-none-eabi/4.6.2/../../../../arm-none-eabi/lib/thumb/libm.a(lib_a-w_acos.o) (nan)
/opt/paparazzi/arm-multilib/lib/gcc/arm-none-eabi/4.6.2/../../../../arm-none-eabi/lib/thumb/libm.a(lib_a-s_scalbn.o)
                              /opt/paparazzi/arm-multilib/lib/gcc/arm-none-eabi/4.6.2/../../../../arm-none-eabi/lib/thumb/libm.a(lib_a-e_pow.o) (scalbn)
/opt/paparazzi/arm-multilib/lib/gcc/arm-none-eabi/4.6.2/../../../../arm-none-eabi/lib/thumb/libm.a(lib_a-sf_finite.o)
                              /opt/paparazzi/arm-multilib/lib/gcc/arm-none-eabi/4.6.2/../../../../arm-none-eabi/lib/thumb/libm.a(lib_a-wf_pow.o) (finitef)
/opt/paparazzi/arm-multilib/lib/gcc/arm-none-eabi/4.6.2/../../../../arm-none-eabi/lib/thumb/libm.a(lib_a-sf_floor.o)
                              /opt/paparazzi/arm-multilib/lib/gcc/arm-none-eabi/4.6.2/../../../../arm-none-eabi/lib/thumb/libm.a(lib_a-kf_rem_pio2.o) (floorf)
/opt/paparazzi/arm-multilib/lib/gcc/arm-none-eabi/4.6.2/../../../../arm-none-eabi/lib/thumb/libm.a(lib_a-sf_fpclassify.o)
                              /opt/paparazzi/arm-multilib/lib/gcc/arm-none-eabi/4.6.2/../../../../arm-none-eabi/lib/thumb/libm.a(lib_a-wf_pow.o) (__fpclassifyf)
/opt/paparazzi/arm-multilib/lib/gcc/arm-none-eabi/4.6.2/../../../../arm-none-eabi/lib/thumb/libm.a(lib_a-sf_nan.o)
                              /opt/paparazzi/arm-multilib/lib/gcc/arm-none-eabi/4.6.2/../../../../arm-none-eabi/lib/thumb/libm.a(lib_a-ef_pow.o) (nanf)
/opt/paparazzi/arm-multilib/lib/gcc/arm-none-eabi/4.6.2/../../../../arm-none-eabi/lib/thumb/libm.a(lib_a-sf_scalbn.o)
                              /opt/paparazzi/arm-multilib/lib/gcc/arm-none-eabi/4.6.2/../../../../arm-none-eabi/lib/thumb/libm.a(lib_a-ef_pow.o) (scalbnf)
/opt/paparazzi/arm-multilib/lib/gcc/arm-none-eabi/4.6.2/../../../../arm-none-eabi/lib/thumb/libm.a(lib_a-s_copysign.o)
                              /opt/paparazzi/arm-multilib/lib/gcc/arm-none-eabi/4.6.2/../../../../arm-none-eabi/lib/thumb/libm.a(lib_a-s_scalbn.o) (copysign)
/opt/paparazzi/arm-multilib/lib/gcc/arm-none-eabi/4.6.2/../../../../arm-none-eabi/lib/thumb/libm.a(lib_a-sf_copysign.o)
                              /opt/paparazzi/arm-multilib/lib/gcc/arm-none-eabi/4.6.2/../../../../arm-none-eabi/lib/thumb/libm.a(lib_a-sf_scalbn.o) (copysignf)
/opt/paparazzi/arm-multilib/lib/gcc/arm-none-eabi/4.6.2/../../../../arm-none-eabi/lib/thumb/libc.a(lib_a-errno.o)
                              /opt/paparazzi/arm-multilib/lib/gcc/arm-none-eabi/4.6.2/../../../../arm-none-eabi/lib/thumb/libm.a(lib_a-w_acos.o) (__errno)
/opt/paparazzi/arm-multilib/lib/gcc/arm-none-eabi/4.6.2/../../../../arm-none-eabi/lib/thumb/libc.a(lib_a-impure.o)
                              /opt/paparazzi/arm-multilib/lib/gcc/arm-none-eabi/4.6.2/../../../../arm-none-eabi/lib/thumb/libc.a(lib_a-errno.o) (_impure_ptr)
/opt/paparazzi/arm-multilib/lib/gcc/arm-none-eabi/4.6.2/thumb/libgcc.a(_thumb1_case_uqi.o)
                              /opt/paparazzi/arm-multilib/lib/gcc/arm-none-eabi/4.6.2/../../../../arm-none-eabi/lib/thumb/libm.a(lib_a-e_atan2.o) (__gnu_thumb1_case_uqi)
/opt/paparazzi/arm-multilib/lib/gcc/arm-none-eabi/4.6.2/thumb/libgcc.a(_udivsi3.o)
                              /home/lionel/paparazziProto1/var/Colibri/ap/subsystems/electrical.o (__aeabi_uidiv)
/opt/paparazzi/arm-multilib/lib/gcc/arm-none-eabi/4.6.2/thumb/libgcc.a(_divsi3.o)
                              /home/lionel/paparazziProto1/var/Colibri/ap/arch/lpc21/mcu_periph/i2c_arch.o (__aeabi_idiv)
/opt/paparazzi/arm-multilib/lib/gcc/arm-none-eabi/4.6.2/thumb/libgcc.a(_dvmd_tls.o)
                              /opt/paparazzi/arm-multilib/lib/gcc/arm-none-eabi/4.6.2/thumb/libgcc.a(_udivsi3.o) (__aeabi_idiv0)
/opt/paparazzi/arm-multilib/lib/gcc/arm-none-eabi/4.6.2/thumb/libgcc.a(_arm_addsubdf3.o)
                              /home/lionel/paparazziProto1/var/Colibri/ap/math/pprz_geodetic_float.o (__aeabi_dsub)
/opt/paparazzi/arm-multilib/lib/gcc/arm-none-eabi/4.6.2/thumb/libgcc.a(_arm_muldivdf3.o)
                              /home/lionel/paparazziProto1/var/Colibri/ap/math/pprz_geodetic_int.o (__aeabi_dmul)
/opt/paparazzi/arm-multilib/lib/gcc/arm-none-eabi/4.6.2/thumb/libgcc.a(_arm_cmpdf2.o)
                              /opt/paparazzi/arm-multilib/lib/gcc/arm-none-eabi/4.6.2/../../../../arm-none-eabi/lib/thumb/libm.a(lib_a-w_log.o) (__aeabi_dcmpeq)
/opt/paparazzi/arm-multilib/lib/gcc/arm-none-eabi/4.6.2/thumb/libgcc.a(_arm_fixdfsi.o)
                              /home/lionel/paparazziProto1/var/Colibri/ap/math/pprz_geodetic_int.o (__aeabi_d2iz)
/opt/paparazzi/arm-multilib/lib/gcc/arm-none-eabi/4.6.2/thumb/libgcc.a(_arm_fixunsdfsi.o)
                              /home/lionel/paparazziProto1/var/Colibri/ap/mcu_periph/sys_time.o (__aeabi_d2uiz)
/opt/paparazzi/arm-multilib/lib/gcc/arm-none-eabi/4.6.2/thumb/libgcc.a(_arm_truncdfsf2.o)
                              /home/lionel/paparazziProto1/var/Colibri/ap/math/pprz_geodetic_float.o (__aeabi_d2f)
/opt/paparazzi/arm-multilib/lib/gcc/arm-none-eabi/4.6.2/thumb/libgcc.a(_arm_addsubsf3.o)
                              /home/lionel/paparazziProto1/var/Colibri/ap/math/pprz_geodetic_float.o (__aeabi_fsub)
/opt/paparazzi/arm-multilib/lib/gcc/arm-none-eabi/4.6.2/thumb/libgcc.a(_arm_muldivsf3.o)
                              /home/lionel/paparazziProto1/var/Colibri/ap/math/pprz_geodetic_int.o (__aeabi_fmul)
/opt/paparazzi/arm-multilib/lib/gcc/arm-none-eabi/4.6.2/thumb/libgcc.a(_arm_cmpsf2.o)
                              /home/lionel/paparazziProto1/var/Colibri/ap/subsystems/navigation/OSAMNav.o (__aeabi_fcmpeq)
/opt/paparazzi/arm-multilib/lib/gcc/arm-none-eabi/4.6.2/thumb/libgcc.a(_arm_fixsfsi.o)
                              /home/lionel/paparazziProto1/var/Colibri/ap/firmwares/fixedwing/main_fbw.o (__aeabi_f2iz)
/opt/paparazzi/arm-multilib/lib/gcc/arm-none-eabi/4.6.2/thumb/libgcc.a(_arm_fixunssfsi.o)
                              /home/lionel/paparazziProto1/var/Colibri/ap/subsystems/electrical.o (__aeabi_f2uiz)

Allocating common symbols
Common symbol       size              file

radio_control       0x12              /home/lionel/paparazziProto1/var/Colibri/ap/subsystems/radio_control.o
estimator_z_dot     0x4               /home/lionel/paparazziProto1/var/Colibri/ap/./estimator.o
dl_msg_available    0x1               /home/lionel/paparazziProto1/var/Colibri/ap/firmwares/fixedwing/datalink.o
h_ctl_auto1_rate    0x1               /home/lionel/paparazziProto1/var/Colibri/ap/firmwares/fixedwing/stabilization/stabilization_attitude.o
h_ctl_course_setpoint
                    0x4               /home/lionel/paparazziProto1/var/Colibri/ap/firmwares/fixedwing/stabilization/stabilization_attitude.o
estimator_flight_time
                    0x2               /home/lionel/paparazziProto1/var/Colibri/ap/./estimator.o
uart0               0x120             /home/lionel/paparazziProto1/var/Colibri/ap/mcu_periph/uart.o
v_ctl_auto_throttle_nominal_cruise_throttle
                    0x4               /home/lionel/paparazziProto1/var/Colibri/ap/firmwares/fixedwing/guidance/guidance_v.o
nav_glide_pitch_trim
                    0x4               /home/lionel/paparazziProto1/var/Colibri/ap/subsystems/nav.o
gps                 0xf4              /home/lionel/paparazziProto1/var/Colibri/ap/subsystems/gps.o
v_ctl_altitude_error
                    0x4               /home/lionel/paparazziProto1/var/Colibri/ap/firmwares/fixedwing/guidance/guidance_v.o
dist2_to_wp         0x4               /home/lionel/paparazziProto1/var/Colibri/ap/subsystems/nav.o
nav_segment_x_1     0x4               /home/lionel/paparazziProto1/var/Colibri/ap/subsystems/nav.o
ahrs                0x9c              /home/lionel/paparazziProto1/var/Colibri/ap/subsystems/ahrs.o
sweep_vec           0x8               /home/lionel/paparazziProto1/var/Colibri/ap/subsystems/navigation/poly_survey_adv.o
estimator_psi       0x4               /home/lionel/paparazziProto1/var/Colibri/ap/./estimator.o
estimator_z         0x4               /home/lionel/paparazziProto1/var/Colibri/ap/./estimator.o
combi_switch_status
                    0x1               /home/lionel/paparazziProto1/var/Colibri/ap/firmwares/fixedwing/main_ap.o
cube_alpha          0x4               /home/lionel/paparazziProto1/var/Colibri/ap/subsystems/navigation/nav_cube.o
desired_x           0x4               /home/lionel/paparazziProto1/var/Colibri/ap/subsystems/nav.o
nav_survey_east     0x4               /home/lionel/paparazziProto1/var/Colibri/ap/subsystems/nav.o
psa_sweep_width     0x4               /home/lionel/paparazziProto1/var/Colibri/ap/subsystems/navigation/poly_survey_adv.o
infrared            0x38              /home/lionel/paparazziProto1/var/Colibri/ap/subsystems/sensors/infrared.o
sys_time            0xac              /home/lionel/paparazziProto1/var/Colibri/ap/mcu_periph/sys_time.o
nav_segment_x_2     0x4               /home/lionel/paparazziProto1/var/Colibri/ap/subsystems/nav.o
navigation_tid      0x1               /home/lionel/paparazziProto1/var/Colibri/ap/firmwares/fixedwing/main_ap.o
rc_dl_frame_available
                    0x1               /home/lionel/paparazziProto1/var/Colibri/ap/subsystems/radio_control/rc_datalink.o
nav_circle_radius   0x4               /home/lionel/paparazziProto1/var/Colibri/ap/subsystems/nav.o
ck_b                0x1               /home/lionel/paparazziProto1/var/Colibri/ap/subsystems/datalink/pprz_transport.o
v_ctl_climb_mode    0x1               /home/lionel/paparazziProto1/var/Colibri/ap/firmwares/fixedwing/guidance/guidance_v.o
nav_ground_speed_setpoint
                    0x4               /home/lionel/paparazziProto1/var/Colibri/ap/subsystems/nav.o
nav_circle_radians  0x4               /home/lionel/paparazziProto1/var/Colibri/ap/subsystems/nav.o
h_ctl_roll_max_setpoint
                    0x4               /home/lionel/paparazziProto1/var/Colibri/ap/firmwares/fixedwing/stabilization/stabilization_attitude.o
fbw_periodic_tid    0x1               /home/lionel/paparazziProto1/var/Colibri/ap/firmwares/fixedwing/main_fbw.o
cube_offs_y         0x4               /home/lionel/paparazziProto1/var/Colibri/ap/subsystems/navigation/nav_cube.o
nav_throttle_setpoint
                    0x2               /home/lionel/paparazziProto1/var/Colibri/ap/subsystems/nav.o
ret_start           0x8               /home/lionel/paparazziProto1/var/Colibri/ap/subsystems/navigation/poly_survey_adv.o
estimator_t         0x4               /home/lionel/paparazziProto1/var/Colibri/ap/./estimator.o
h_ctl_course_pre_bank_correction
                    0x4               /home/lionel/paparazziProto1/var/Colibri/ap/firmwares/fixedwing/stabilization/stabilization_attitude.o
return_angle        0x4               /home/lionel/paparazziProto1/var/Colibri/ap/subsystems/navigation/poly_survey_adv.o
entry_center        0x8               /home/lionel/paparazziProto1/var/Colibri/ap/subsystems/navigation/poly_survey_adv.o
cube_size_x         0x4               /home/lionel/paparazziProto1/var/Colibri/ap/subsystems/navigation/nav_cube.o
wind_east           0x4               /home/lionel/paparazziProto1/var/Colibri/ap/./estimator.o
desired_y           0x4               /home/lionel/paparazziProto1/var/Colibri/ap/subsystems/nav.o
nav_shift           0x4               /home/lionel/paparazziProto1/var/Colibri/ap/subsystems/nav.o
uart1               0x120             /home/lionel/paparazziProto1/var/Colibri/ap/mcu_periph/uart.o
the_acs_id          0x100             /home/lionel/paparazziProto1/var/Colibri/ap/subsystems/navigation/traffic_info.o
carrot_x            0x4               /home/lionel/paparazziProto1/var/Colibri/ap/subsystems/nav.o
last_y              0x4               /home/lionel/paparazziProto1/var/Colibri/ap/subsystems/nav.o
v_ctl_auto_throttle_pitch_of_vz_dgain
                    0x4               /home/lionel/paparazziProto1/var/Colibri/ap/firmwares/fixedwing/guidance/guidance_v.o
the_acs             0x300             /home/lionel/paparazziProto1/var/Colibri/ap/subsystems/navigation/traffic_info.o
servos_4017_idx     0x1               /home/lionel/paparazziProto1/var/Colibri/ap/arch/lpc21/servos_4017_hw.o
PolySurveySweepBackNum
                    0x2               /home/lionel/paparazziProto1/var/Colibri/ap/subsystems/navigation/OSAMNav.o
horizontal_mode     0x1               /home/lionel/paparazziProto1/var/Colibri/ap/subsystems/nav.o
v_ctl_altitude_pre_climb_correction
                    0x4               /home/lionel/paparazziProto1/var/Colibri/ap/firmwares/fixedwing/guidance/guidance_v.o
monitor_tid         0x1               /home/lionel/paparazziProto1/var/Colibri/ap/firmwares/fixedwing/main_ap.o
estimator_airspeed  0x4               /home/lionel/paparazziProto1/var/Colibri/ap/./estimator.o
cube_offs_x         0x4               /home/lionel/paparazziProto1/var/Colibri/ap/subsystems/navigation/nav_cube.o
cube_offs_z         0x4               /home/lionel/paparazziProto1/var/Colibri/ap/subsystems/navigation/nav_cube.o
v_ctl_auto_throttle_sum_err
                    0x4               /home/lionel/paparazziProto1/var/Colibri/ap/firmwares/fixedwing/guidance/guidance_v.o
estimator_p         0x4               /home/lionel/paparazziProto1/var/Colibri/ap/./estimator.o
v_ctl_auto_throttle_submode
                    0x1               /home/lionel/paparazziProto1/var/Colibri/ap/firmwares/fixedwing/guidance/guidance_v.o
h_ctl_elevator_setpoint
                    0x2               /home/lionel/paparazziProto1/var/Colibri/ap/firmwares/fixedwing/stabilization/stabilization_attitude.o
fbw_mode            0x1               /home/lionel/paparazziProto1/var/Colibri/ap/firmwares/fixedwing/main_fbw.o
actuators           0x10              /home/lionel/paparazziProto1/var/Colibri/ap/actuators.o
cube_nline_z        0x4               /home/lionel/paparazziProto1/var/Colibri/ap/subsystems/navigation/nav_cube.o
settings_store_now  0x1               /home/lionel/paparazziProto1/var/Colibri/ap/subsystems/settings.o
rad_vec             0x8               /home/lionel/paparazziProto1/var/Colibri/ap/subsystems/navigation/poly_survey_adv.o
estimator_theta     0x4               /home/lionel/paparazziProto1/var/Colibri/ap/./estimator.o
nav_block           0x1               /home/lionel/paparazziProto1/var/Colibri/ap/subsystems/navigation/common_flight_plan.o
v_ctl_auto_throttle_pitch_of_vz_pgain
                    0x4               /home/lionel/paparazziProto1/var/Colibri/ap/firmwares/fixedwing/guidance/guidance_v.o
v_ctl_altitude_max_climb
                    0x4               /home/lionel/paparazziProto1/var/Colibri/ap/firmwares/fixedwing/guidance/guidance_v.o
nav_circle_y        0x4               /home/lionel/paparazziProto1/var/Colibri/ap/subsystems/nav.o
too_far_from_home   0x1               /home/lionel/paparazziProto1/var/Colibri/ap/subsystems/nav.o
cube_grid_z         0x4               /home/lionel/paparazziProto1/var/Colibri/ap/subsystems/navigation/nav_cube.o
segment_angle       0x4               /home/lionel/paparazziProto1/var/Colibri/ap/subsystems/navigation/poly_survey_adv.o
sensors_tid         0x1               /home/lionel/paparazziProto1/var/Colibri/ap/firmwares/fixedwing/main_ap.o
nav_pitch           0x4               /home/lionel/paparazziProto1/var/Colibri/ap/subsystems/nav.o
downlink_nb_ovrn    0x1               /home/lionel/paparazziProto1/var/Colibri/ap/subsystems/datalink/downlink.o
psa_shot_dist       0x4               /home/lionel/paparazziProto1/var/Colibri/ap/subsystems/navigation/poly_survey_adv.o
seg_center2         0x8               /home/lionel/paparazziProto1/var/Colibri/ap/subsystems/navigation/poly_survey_adv.o
ret_end             0x8               /home/lionel/paparazziProto1/var/Colibri/ap/subsystems/navigation/poly_survey_adv.o
poly_first          0x1               /home/lionel/paparazziProto1/var/Colibri/ap/subsystems/navigation/poly_survey_adv.o
h_ctl_aileron_of_throttle
                    0x4               /home/lionel/paparazziProto1/var/Colibri/ap/firmwares/fixedwing/stabilization/stabilization_attitude.o
estimator_hspeed_mod
                    0x4               /home/lionel/paparazziProto1/var/Colibri/ap/./estimator.o
estimator_phi       0x4               /home/lionel/paparazziProto1/var/Colibri/ap/./estimator.o
rc_pitch            0x4               /home/lionel/paparazziProto1/var/Colibri/ap/subsystems/nav.o
h_ctl_aileron_setpoint
                    0x2               /home/lionel/paparazziProto1/var/Colibri/ap/firmwares/fixedwing/stabilization/stabilization_attitude.o
v_ctl_altitude_setpoint
                    0x4               /home/lionel/paparazziProto1/var/Colibri/ap/firmwares/fixedwing/guidance/guidance_v.o
h_ctl_pitch_setpoint
                    0x4               /home/lionel/paparazziProto1/var/Colibri/ap/firmwares/fixedwing/stabilization/stabilization_attitude.o
servos_values       0x14              /home/lionel/paparazziProto1/var/Colibri/ap/arch/lpc21/servos_4017_hw.o
v_ctl_mode          0x1               /home/lionel/paparazziProto1/var/Colibri/ap/firmwares/fixedwing/guidance/guidance_v.o
v_ctl_auto_throttle_cruise_throttle
                    0x4               /home/lionel/paparazziProto1/var/Colibri/ap/firmwares/fixedwing/guidance/guidance_v.o
estimator_r         0x4               /home/lionel/paparazziProto1/var/Colibri/ap/./estimator.o
v_ctl_altitude_pgain
                    0x4               /home/lionel/paparazziProto1/var/Colibri/ap/firmwares/fixedwing/guidance/guidance_v.o
electrical          0xc               /home/lionel/paparazziProto1/var/Colibri/ap/subsystems/electrical.o
downlink_nb_msgs    0x2               /home/lionel/paparazziProto1/var/Colibri/ap/subsystems/datalink/downlink.o
h_ctl_roll_slew     0x4               /home/lionel/paparazziProto1/var/Colibri/ap/firmwares/fixedwing/stabilization/stabilization_attitude.o
estimator_x         0x4               /home/lionel/paparazziProto1/var/Colibri/ap/./estimator.o
ap_ok               0x1               /home/lionel/paparazziProto1/var/Colibri/ap/./inter_mcu.o
cube_size_z         0x4               /home/lionel/paparazziProto1/var/Colibri/ap/subsystems/navigation/nav_cube.o
downlink_nb_bytes   0x2               /home/lionel/paparazziProto1/var/Colibri/ap/subsystems/datalink/downlink.o
h_ctl_course_pgain  0x4               /home/lionel/paparazziProto1/var/Colibri/ap/firmwares/fixedwing/stabilization/stabilization_attitude.o
nav_oval_count      0x1               /home/lionel/paparazziProto1/var/Colibri/ap/subsystems/nav.o
nav_mode            0x4               /home/lionel/paparazziProto1/var/Colibri/ap/subsystems/nav.o
h_ctl_pitch_pgain   0x4               /home/lionel/paparazziProto1/var/Colibri/ap/firmwares/fixedwing/stabilization/stabilization_attitude.o
h_ctl_pitch_loop_setpoint
                    0x4               /home/lionel/paparazziProto1/var/Colibri/ap/firmwares/fixedwing/stabilization/stabilization_attitude.o
attitude_tid        0x1               /home/lionel/paparazziProto1/var/Colibri/ap/firmwares/fixedwing/main_ap.o
dist2_to_home       0x4               /home/lionel/paparazziProto1/var/Colibri/ap/subsystems/nav.o
nav_climb           0x4               /home/lionel/paparazziProto1/var/Colibri/ap/subsystems/nav.o
h_ctl_course_pre_bank
                    0x4               /home/lionel/paparazziProto1/var/Colibri/ap/firmwares/fixedwing/stabilization/stabilization_attitude.o
PolySurveySweepNum  0x2               /home/lionel/paparazziProto1/var/Colibri/ap/subsystems/navigation/OSAMNav.o
v_ctl_auto_pitch_pgain
                    0x4               /home/lionel/paparazziProto1/var/Colibri/ap/firmwares/fixedwing/guidance/guidance_v.o
last_x              0x4               /home/lionel/paparazziProto1/var/Colibri/ap/subsystems/nav.o
dl_buffer           0x80              /home/lionel/paparazziProto1/var/Colibri/ap/firmwares/fixedwing/datalink.o
acs_idx             0x1               /home/lionel/paparazziProto1/var/Colibri/ap/subsystems/navigation/traffic_info.o
last_block          0x1               /home/lionel/paparazziProto1/var/Colibri/ap/subsystems/navigation/common_flight_plan.o
estimator_AOA       0x4               /home/lionel/paparazziProto1/var/Colibri/ap/./estimator.o
app_intercept_af_tod
                    0x4               /home/lionel/paparazziProto1/var/Colibri/ap/subsystems/navigation/gls.o
v_ctl_auto_throttle_climb_throttle_increment
                    0x4               /home/lionel/paparazziProto1/var/Colibri/ap/firmwares/fixedwing/guidance/guidance_v.o
cube_size_y         0x4               /home/lionel/paparazziProto1/var/Colibri/ap/subsystems/navigation/nav_cube.o
v_ctl_auto_throttle_igain
                    0x4               /home/lionel/paparazziProto1/var/Colibri/ap/firmwares/fixedwing/guidance/guidance_v.o
poly_count          0x1               /home/lionel/paparazziProto1/var/Colibri/ap/subsystems/navigation/poly_survey_adv.o
gps_ubx             0x118             /home/lionel/paparazziProto1/var/Colibri/ap/subsystems/gps/gps_ubx.o
nav_survey_active   0x1               /home/lionel/paparazziProto1/var/Colibri/ap/subsystems/nav.o
h_ctl_pitch_dgain   0x4               /home/lionel/paparazziProto1/var/Colibri/ap/firmwares/fixedwing/stabilization/stabilization_attitude.o
time_since_last_ap  0x1               /home/lionel/paparazziProto1/var/Colibri/ap/./inter_mcu.o
v_ctl_auto_throttle_min_cruise_throttle
                    0x4               /home/lionel/paparazziProto1/var/Colibri/ap/firmwares/fixedwing/guidance/guidance_v.o
nav_stage           0x1               /home/lionel/paparazziProto1/var/Colibri/ap/subsystems/navigation/common_flight_plan.o
psa_stage           0x1               /home/lionel/paparazziProto1/var/Colibri/ap/subsystems/navigation/poly_survey_adv.o
oval_status         0x1               /home/lionel/paparazziProto1/var/Colibri/ap/subsystems/nav.o
energy              0x4               /home/lionel/paparazziProto1/var/Colibri/ap/firmwares/fixedwing/main_ap.o
last_stage          0x1               /home/lionel/paparazziProto1/var/Colibri/ap/subsystems/navigation/common_flight_plan.o
nav_ground_speed_pgain
                    0x4               /home/lionel/paparazziProto1/var/Colibri/ap/subsystems/nav.o
pprz_tp             0x108             /home/lionel/paparazziProto1/var/Colibri/ap/subsystems/datalink/pprz_transport.o
cube_grid_x         0x4               /home/lionel/paparazziProto1/var/Colibri/ap/subsystems/navigation/nav_cube.o
pers_settings       0x0               /home/lionel/paparazziProto1/var/Colibri/ap/subsystems/settings.o
v_ctl_throttle_setpoint
                    0x2               /home/lionel/paparazziProto1/var/Colibri/ap/firmwares/fixedwing/guidance/guidance_v.o
telemetry_tid       0x1               /home/lionel/paparazziProto1/var/Colibri/ap/firmwares/fixedwing/main_ap.o
v_ctl_climb_setpoint
                    0x4               /home/lionel/paparazziProto1/var/Colibri/ap/firmwares/fixedwing/guidance/guidance_v.o
estimator_q         0x4               /home/lionel/paparazziProto1/var/Colibri/ap/./estimator.o
dir_vec             0x8               /home/lionel/paparazziProto1/var/Colibri/ap/subsystems/navigation/poly_survey_adv.o
estimator_hspeed_dir
                    0x4               /home/lionel/paparazziProto1/var/Colibri/ap/./estimator.o
v_ctl_auto_throttle_dgain
                    0x4               /home/lionel/paparazziProto1/var/Colibri/ap/firmwares/fixedwing/guidance/guidance_v.o
ahrs_mag_offset     0x4               /home/lionel/paparazziProto1/var/Colibri/ap/subsystems/ahrs.o
ck_a                0x1               /home/lionel/paparazziProto1/var/Colibri/ap/subsystems/datalink/pprz_transport.o
electrical_tid      0x1               /home/lionel/paparazziProto1/var/Colibri/ap/firmwares/fixedwing/main_fbw.o
nav_circle_x        0x4               /home/lionel/paparazziProto1/var/Colibri/ap/subsystems/nav.o
nav_segment_y_2     0x4               /home/lionel/paparazziProto1/var/Colibri/ap/subsystems/nav.o
seg_end             0x8               /home/lionel/paparazziProto1/var/Colibri/ap/subsystems/navigation/poly_survey_adv.o
wind_north          0x4               /home/lionel/paparazziProto1/var/Colibri/ap/./estimator.o
datalink_time       0x2               /home/lionel/paparazziProto1/var/Colibri/ap/firmwares/fixedwing/datalink.o
snav_desired_tow    0x4               /home/lionel/paparazziProto1/var/Colibri/ap/subsystems/navigation/snav.o
h_ctl_course_dgain  0x4               /home/lionel/paparazziProto1/var/Colibri/ap/firmwares/fixedwing/stabilization/stabilization_attitude.o
power_switch        0x1               /home/lionel/paparazziProto1/var/Colibri/ap/firmwares/fixedwing/main_ap.o
psa_min_rad         0x4               /home/lionel/paparazziProto1/var/Colibri/ap/subsystems/navigation/poly_survey_adv.o
app_angle           0x4               /home/lionel/paparazziProto1/var/Colibri/ap/subsystems/navigation/gls.o
nav_segment_y_1     0x4               /home/lionel/paparazziProto1/var/Colibri/ap/subsystems/nav.o
target_speed        0x4               /home/lionel/paparazziProto1/var/Colibri/ap/subsystems/navigation/gls.o
combi_switch_value  0x4               /home/lionel/paparazziProto1/var/Colibri/ap/firmwares/fixedwing/main_ap.o
h_ctl_roll_attitude_gain
                    0x4               /home/lionel/paparazziProto1/var/Colibri/ap/firmwares/fixedwing/stabilization/stabilization_attitude.o
h_ctl_roll_rate_gain
                    0x4               /home/lionel/paparazziProto1/var/Colibri/ap/firmwares/fixedwing/stabilization/stabilization_attitude.o
h_ctl_disabled      0x1               /home/lionel/paparazziProto1/var/Colibri/ap/firmwares/fixedwing/stabilization/stabilization_attitude.o
rc_dl_values        0x5               /home/lionel/paparazziProto1/var/Colibri/ap/subsystems/radio_control/rc_datalink.o
modules_tid         0x1               /home/lionel/paparazziProto1/var/Colibri/ap/firmwares/fixedwing/main_ap.o
commands            0xa               /home/lionel/paparazziProto1/var/Colibri/ap/./commands.o
ground_alt          0x4               /home/lionel/paparazziProto1/var/Colibri/ap/subsystems/nav.o
nav_survey_west     0x4               /home/lionel/paparazziProto1/var/Colibri/ap/subsystems/nav.o
v_ctl_auto_pitch_igain
                    0x4               /home/lionel/paparazziProto1/var/Colibri/ap/firmwares/fixedwing/guidance/guidance_v.o
ahrs_float          0xbc              /home/lionel/paparazziProto1/var/Colibri/ap/subsystems/ahrs.o
h_ctl_roll_pgain    0x4               /home/lionel/paparazziProto1/var/Colibri/ap/firmwares/fixedwing/stabilization/stabilization_attitude.o
v_ctl_altitude_pre_climb
                    0x4               /home/lionel/paparazziProto1/var/Colibri/ap/firmwares/fixedwing/guidance/guidance_v.o
nav_radius          0x4               /home/lionel/paparazziProto1/var/Colibri/ap/subsystems/nav.o
nav_course          0x4               /home/lionel/paparazziProto1/var/Colibri/ap/subsystems/nav.o
nav_survey_shift    0x4               /home/lionel/paparazziProto1/var/Colibri/ap/subsystems/nav.o
carrot_y            0x4               /home/lionel/paparazziProto1/var/Colibri/ap/subsystems/nav.o
v_ctl_auto_throttle_max_cruise_throttle
                    0x4               /home/lionel/paparazziProto1/var/Colibri/ap/firmwares/fixedwing/guidance/guidance_v.o
v_ctl_throttle_slewed
                    0x2               /home/lionel/paparazziProto1/var/Colibri/ap/firmwares/fixedwing/guidance/guidance_v.o
seg_center1         0x8               /home/lionel/paparazziProto1/var/Colibri/ap/subsystems/navigation/poly_survey_adv.o
alt_kalman_enabled  0x1               /home/lionel/paparazziProto1/var/Colibri/ap/./estimator.o
psa_altitude        0x4               /home/lionel/paparazziProto1/var/Colibri/ap/subsystems/navigation/poly_survey_adv.o
ir_adc              0x6               /home/lionel/paparazziProto1/var/Colibri/ap/subsystems/sensors/infrared_adc.o
stage_time          0x2               /home/lionel/paparazziProto1/var/Colibri/ap/subsystems/navigation/common_flight_plan.o
h_ctl_roll_setpoint
                    0x4               /home/lionel/paparazziProto1/var/Colibri/ap/firmwares/fixedwing/stabilization/stabilization_attitude.o
seg_start           0x8               /home/lionel/paparazziProto1/var/Colibri/ap/subsystems/navigation/poly_survey_adv.o
estimator_y         0x4               /home/lionel/paparazziProto1/var/Colibri/ap/./estimator.o
cube_nline_x        0x4               /home/lionel/paparazziProto1/var/Colibri/ap/subsystems/navigation/nav_cube.o
nav_survey_south    0x4               /home/lionel/paparazziProto1/var/Colibri/ap/subsystems/nav.o
v_ctl_auto_throttle_pgain
                    0x4               /home/lionel/paparazziProto1/var/Colibri/ap/firmwares/fixedwing/guidance/guidance_v.o
vsupply             0x2               /home/lionel/paparazziProto1/var/Colibri/ap/firmwares/fixedwing/main_ap.o
block_time          0x2               /home/lionel/paparazziProto1/var/Colibri/ap/subsystems/navigation/common_flight_plan.o
nav_circle_trigo_qdr
                    0x4               /home/lionel/paparazziProto1/var/Colibri/ap/subsystems/nav.o
fp_pitch            0x4               /home/lionel/paparazziProto1/var/Colibri/ap/subsystems/nav.o
flight_altitude     0x4               /home/lionel/paparazziProto1/var/Colibri/ap/subsystems/nav.o
nav_survey_north    0x4               /home/lionel/paparazziProto1/var/Colibri/ap/subsystems/nav.o
h_ctl_elevator_of_roll
                    0x4               /home/lionel/paparazziProto1/var/Colibri/ap/firmwares/fixedwing/stabilization/stabilization_attitude.o
v_ctl_auto_pitch_sum_err
                    0x4               /home/lionel/paparazziProto1/var/Colibri/ap/firmwares/fixedwing/guidance/guidance_v.o

Discarded input sections

 .text          0x00000000        0x0 /home/lionel/paparazziProto1/var/Colibri/ap/crt0.o
 .data          0x00000000        0x0 /home/lionel/paparazziProto1/var/Colibri/ap/crt0.o
 .bss           0x00000000        0x0 /home/lionel/paparazziProto1/var/Colibri/ap/crt0.o
 .text          0x00000000        0x0 /home/lionel/paparazziProto1/var/Colibri/ap/mcu.o
 .data          0x00000000        0x0 /home/lionel/paparazziProto1/var/Colibri/ap/mcu.o
 .bss           0x00000000        0x0 /home/lionel/paparazziProto1/var/Colibri/ap/mcu.o
 .text          0x00000000        0x0 /home/lionel/paparazziProto1/var/Colibri/ap/arch/lpc21/mcu_arch.o
 .data          0x00000000        0x0 /home/lionel/paparazziProto1/var/Colibri/ap/arch/lpc21/mcu_arch.o
 .bss           0x00000000        0x0 /home/lionel/paparazziProto1/var/Colibri/ap/arch/lpc21/mcu_arch.o
 .text          0x00000000        0x0 /home/lionel/paparazziProto1/var/Colibri/ap/mcu_periph/sys_time.o
 .data          0x00000000        0x0 /home/lionel/paparazziProto1/var/Colibri/ap/mcu_periph/sys_time.o
 .bss           0x00000000        0x0 /home/lionel/paparazziProto1/var/Colibri/ap/mcu_periph/sys_time.o
 .text.sys_time_cancel_timer
                0x00000000       0x1c /home/lionel/paparazziProto1/var/Colibri/ap/mcu_periph/sys_time.o
 .text.sys_time_update_timer
                0x00000000       0x74 /home/lionel/paparazziProto1/var/Colibri/ap/mcu_periph/sys_time.o
 .text          0x00000000        0x0 /home/lionel/paparazziProto1/var/Colibri/ap/arch/lpc21/mcu_periph/sys_time_arch.o
 .data          0x00000000        0x0 /home/lionel/paparazziProto1/var/Colibri/ap/arch/lpc21/mcu_periph/sys_time_arch.o
 .bss           0x00000000        0x0 /home/lionel/paparazziProto1/var/Colibri/ap/arch/lpc21/mcu_periph/sys_time_arch.o
 .text          0x00000000        0x0 /home/lionel/paparazziProto1/var/Colibri/ap/./inter_mcu.o
 .data          0x00000000        0x0 /home/lionel/paparazziProto1/var/Colibri/ap/./inter_mcu.o
 .bss           0x00000000        0x0 /home/lionel/paparazziProto1/var/Colibri/ap/./inter_mcu.o
 .text          0x00000000        0x0 /home/lionel/paparazziProto1/var/Colibri/ap/math/pprz_geodetic_int.o
 .data          0x00000000        0x0 /home/lionel/paparazziProto1/var/Colibri/ap/math/pprz_geodetic_int.o
 .bss           0x00000000        0x0 /home/lionel/paparazziProto1/var/Colibri/ap/math/pprz_geodetic_int.o
 .text.enu_of_ecef_point_i
                0x00000000       0x94 /home/lionel/paparazziProto1/var/Colibri/ap/math/pprz_geodetic_int.o
 .text.ned_of_ecef_point_i
                0x00000000       0x34 /home/lionel/paparazziProto1/var/Colibri/ap/math/pprz_geodetic_int.o
 .text.enu_of_ecef_vect_i
                0x00000000       0x7c /home/lionel/paparazziProto1/var/Colibri/ap/math/pprz_geodetic_int.o
 .text.ned_of_ecef_vect_i
                0x00000000       0x34 /home/lionel/paparazziProto1/var/Colibri/ap/math/pprz_geodetic_int.o
 .text.ecef_of_enu_point_i
                0x00000000       0x9c /home/lionel/paparazziProto1/var/Colibri/ap/math/pprz_geodetic_int.o
 .text.ecef_of_ned_point_i
                0x00000000       0x34 /home/lionel/paparazziProto1/var/Colibri/ap/math/pprz_geodetic_int.o
 .text.ecef_of_enu_vect_i
                0x00000000       0x78 /home/lionel/paparazziProto1/var/Colibri/ap/math/pprz_geodetic_int.o
 .text.ecef_of_ned_vect_i
                0x00000000       0x34 /home/lionel/paparazziProto1/var/Colibri/ap/math/pprz_geodetic_int.o
 .text.lla_of_ecef_i
                0x00000000       0xe0 /home/lionel/paparazziProto1/var/Colibri/ap/math/pprz_geodetic_int.o
 .text.ltp_def_from_ecef_i
                0x00000000      0x174 /home/lionel/paparazziProto1/var/Colibri/ap/math/pprz_geodetic_int.o
 .text.ecef_of_lla_i
                0x00000000       0xd8 /home/lionel/paparazziProto1/var/Colibri/ap/math/pprz_geodetic_int.o
 .text.ned_of_lla_vect_i
                0x00000000       0x38 /home/lionel/paparazziProto1/var/Colibri/ap/math/pprz_geodetic_int.o
 .text.enu_of_lla_vect_i
                0x00000000       0x38 /home/lionel/paparazziProto1/var/Colibri/ap/math/pprz_geodetic_int.o
 .text.ned_of_lla_point_i
                0x00000000       0x38 /home/lionel/paparazziProto1/var/Colibri/ap/math/pprz_geodetic_int.o
 .text.enu_of_lla_point_i
                0x00000000       0x38 /home/lionel/paparazziProto1/var/Colibri/ap/math/pprz_geodetic_int.o
 .text.ltp_def_from_lla_i
                0x00000000      0x170 /home/lionel/paparazziProto1/var/Colibri/ap/math/pprz_geodetic_int.o
 .text          0x00000000        0x0 /home/lionel/paparazziProto1/var/Colibri/ap/math/pprz_geodetic_float.o
 .data          0x00000000        0x0 /home/lionel/paparazziProto1/var/Colibri/ap/math/pprz_geodetic_float.o
 .bss           0x00000000        0x0 /home/lionel/paparazziProto1/var/Colibri/ap/math/pprz_geodetic_float.o
 .text.enu_of_ecef_point_f
                0x00000000      0x120 /home/lionel/paparazziProto1/var/Colibri/ap/math/pprz_geodetic_float.o
 .text.ned_of_ecef_point_f
                0x00000000       0x34 /home/lionel/paparazziProto1/var/Colibri/ap/math/pprz_geodetic_float.o
 .text.enu_of_ecef_vect_f
                0x00000000       0xf8 /home/lionel/paparazziProto1/var/Colibri/ap/math/pprz_geodetic_float.o
 .text.ned_of_ecef_vect_f
                0x00000000       0x34 /home/lionel/paparazziProto1/var/Colibri/ap/math/pprz_geodetic_float.o
 .text.ecef_of_enu_point_f
                0x00000000      0x1ec /home/lionel/paparazziProto1/var/Colibri/ap/math/pprz_geodetic_float.o
 .text.ecef_of_ned_point_f
                0x00000000       0x34 /home/lionel/paparazziProto1/var/Colibri/ap/math/pprz_geodetic_float.o
 .text.ecef_of_enu_vect_f
                0x00000000      0x1d4 /home/lionel/paparazziProto1/var/Colibri/ap/math/pprz_geodetic_float.o
 .text.ecef_of_ned_vect_f
                0x00000000       0x34 /home/lionel/paparazziProto1/var/Colibri/ap/math/pprz_geodetic_float.o
 .text.lla_of_ecef_f
                0x00000000      0x37c /home/lionel/paparazziProto1/var/Colibri/ap/math/pprz_geodetic_float.o
 .text.ltp_def_from_ecef_f
                0x00000000       0xcc /home/lionel/paparazziProto1/var/Colibri/ap/math/pprz_geodetic_float.o
 .text.ecef_of_lla_f
                0x00000000      0x128 /home/lionel/paparazziProto1/var/Colibri/ap/math/pprz_geodetic_float.o
 .text.ned_of_lla_point_f
                0x00000000       0x38 /home/lionel/paparazziProto1/var/Colibri/ap/math/pprz_geodetic_float.o
 .text.enu_of_lla_point_f
                0x00000000       0x38 /home/lionel/paparazziProto1/var/Colibri/ap/math/pprz_geodetic_float.o
 .text.ltp_def_from_lla_f
                0x00000000       0xc8 /home/lionel/paparazziProto1/var/Colibri/ap/math/pprz_geodetic_float.o
 .text.lla_of_utm_f
                0x00000000      0x35c /home/lionel/paparazziProto1/var/Colibri/ap/math/pprz_geodetic_float.o
 .text          0x00000000        0x0 /home/lionel/paparazziProto1/var/Colibri/ap/math/pprz_geodetic_double.o
 .data          0x00000000        0x0 /home/lionel/paparazziProto1/var/Colibri/ap/math/pprz_geodetic_double.o
 .bss           0x00000000        0x0 /home/lionel/paparazziProto1/var/Colibri/ap/math/pprz_geodetic_double.o
 .text.lla_of_ecef_d
                0x00000000      0x530 /home/lionel/paparazziProto1/var/Colibri/ap/math/pprz_geodetic_double.o
 .text.ltp_def_from_ecef_d
                0x00000000      0x150 /home/lionel/paparazziProto1/var/Colibri/ap/math/pprz_geodetic_double.o
 .text.ecef_of_lla_d
                0x00000000      0x16c /home/lionel/paparazziProto1/var/Colibri/ap/math/pprz_geodetic_double.o
 .text.enu_of_ecef_point_d
                0x00000000      0x1c4 /home/lionel/paparazziProto1/var/Colibri/ap/math/pprz_geodetic_double.o
 .text.ned_of_ecef_point_d
                0x00000000       0x4c /home/lionel/paparazziProto1/var/Colibri/ap/math/pprz_geodetic_double.o
 .text.enu_of_ecef_vect_d
                0x00000000      0x190 /home/lionel/paparazziProto1/var/Colibri/ap/math/pprz_geodetic_double.o
 .text.ned_of_ecef_vect_d
                0x00000000       0x4c /home/lionel/paparazziProto1/var/Colibri/ap/math/pprz_geodetic_double.o
 .text.ecef_of_enu_point_d
                0x00000000      0x204 /home/lionel/paparazziProto1/var/Colibri/ap/math/pprz_geodetic_double.o
 .text.ecef_of_ned_point_d
                0x00000000       0x48 /home/lionel/paparazziProto1/var/Colibri/ap/math/pprz_geodetic_double.o
 .text.ecef_of_enu_vect_d
                0x00000000      0x190 /home/lionel/paparazziProto1/var/Colibri/ap/math/pprz_geodetic_double.o
 .text.ecef_of_ned_vect_d
                0x00000000       0x48 /home/lionel/paparazziProto1/var/Colibri/ap/math/pprz_geodetic_double.o
 .text.gc_of_gd_lat_d
                0x00000000      0x138 /home/lionel/paparazziProto1/var/Colibri/ap/math/pprz_geodetic_double.o
 .text.lla_of_utm_d
                0x00000000      0x43c /home/lionel/paparazziProto1/var/Colibri/ap/math/pprz_geodetic_double.o
 .text          0x00000000        0x0 /home/lionel/paparazziProto1/var/Colibri/ap/math/pprz_trig_int.o
 .data          0x00000000        0x0 /home/lionel/paparazziProto1/var/Colibri/ap/math/pprz_trig_int.o
 .bss           0x00000000        0x0 /home/lionel/paparazziProto1/var/Colibri/ap/math/pprz_trig_int.o
 .data.pprz_trig_int
                0x00000000     0x3244 /home/lionel/paparazziProto1/var/Colibri/ap/math/pprz_trig_int.o
 .text          0x00000000        0x0 /home/lionel/paparazziProto1/var/Colibri/ap/mcu_periph/i2c.o
 .data          0x00000000        0x0 /home/lionel/paparazziProto1/var/Colibri/ap/mcu_periph/i2c.o
 .bss           0x00000000        0x0 /home/lionel/paparazziProto1/var/Colibri/ap/mcu_periph/i2c.o
 .text.i2c_init
                0x00000000       0x14 /home/lionel/paparazziProto1/var/Colibri/ap/mcu_periph/i2c.o
 .text          0x00000000        0x0 /home/lionel/paparazziProto1/var/Colibri/ap/arch/lpc21/mcu_periph/i2c_arch.o
 .data          0x00000000        0x0 /home/lionel/paparazziProto1/var/Colibri/ap/arch/lpc21/mcu_periph/i2c_arch.o
 .bss           0x00000000        0x0 /home/lionel/paparazziProto1/var/Colibri/ap/arch/lpc21/mcu_periph/i2c_arch.o
 .text.i2c_idle
                0x00000000       0x10 /home/lionel/paparazziProto1/var/Colibri/ap/arch/lpc21/mcu_periph/i2c_arch.o
 .text.i2c_submit
                0x00000000       0x78 /home/lionel/paparazziProto1/var/Colibri/ap/arch/lpc21/mcu_periph/i2c_arch.o
 .text.i2c_setbitrate
                0x00000000       0x4c /home/lionel/paparazziProto1/var/Colibri/ap/arch/lpc21/mcu_periph/i2c_arch.o
 .text          0x00000000        0x0 /home/lionel/paparazziProto1/var/Colibri/ap/firmwares/fixedwing/main_fbw.o
 .data          0x00000000        0x0 /home/lionel/paparazziProto1/var/Colibri/ap/firmwares/fixedwing/main_fbw.o
 .bss           0x00000000        0x0 /home/lionel/paparazziProto1/var/Colibri/ap/firmwares/fixedwing/main_fbw.o
 .text          0x00000000        0x0 /home/lionel/paparazziProto1/var/Colibri/ap/subsystems/electrical.o
 .data          0x00000000        0x0 /home/lionel/paparazziProto1/var/Colibri/ap/subsystems/electrical.o
 .bss           0x00000000        0x0 /home/lionel/paparazziProto1/var/Colibri/ap/subsystems/electrical.o
 .text          0x00000000        0x0 /home/lionel/paparazziProto1/var/Colibri/ap/./commands.o
 .data          0x00000000        0x0 /home/lionel/paparazziProto1/var/Colibri/ap/./commands.o
 .bss           0x00000000        0x0 /home/lionel/paparazziProto1/var/Colibri/ap/./commands.o
 .text          0x00000000        0x0 /home/lionel/paparazziProto1/var/Colibri/ap/firmwares/fixedwing/fbw_downlink.o
 .data          0x00000000        0x0 /home/lionel/paparazziProto1/var/Colibri/ap/firmwares/fixedwing/fbw_downlink.o
 .bss           0x00000000        0x0 /home/lionel/paparazziProto1/var/Colibri/ap/firmwares/fixedwing/fbw_downlink.o
 .text          0x00000000        0x0 /home/lionel/paparazziProto1/var/Colibri/ap/firmwares/fixedwing/main_ap.o
 .data          0x00000000        0x0 /home/lionel/paparazziProto1/var/Colibri/ap/firmwares/fixedwing/main_ap.o
 .bss           0x00000000        0x0 /home/lionel/paparazziProto1/var/Colibri/ap/firmwares/fixedwing/main_ap.o
 .text.sensors_task
                0x00000000        0x4 /home/lionel/paparazziProto1/var/Colibri/ap/firmwares/fixedwing/main_ap.o
 .bss.gps_lost  0x00000000        0x1 /home/lionel/paparazziProto1/var/Colibri/ap/firmwares/fixedwing/main_ap.o
 .text          0x00000000        0x0 /home/lionel/paparazziProto1/var/Colibri/ap/./estimator.o
 .data          0x00000000        0x0 /home/lionel/paparazziProto1/var/Colibri/ap/./estimator.o
 .bss           0x00000000        0x0 /home/lionel/paparazziProto1/var/Colibri/ap/./estimator.o
 .text          0x00000000        0x0 /home/lionel/paparazziProto1/var/Colibri/ap/firmwares/fixedwing/ap_downlink.o
 .data          0x00000000        0x0 /home/lionel/paparazziProto1/var/Colibri/ap/firmwares/fixedwing/ap_downlink.o
 .bss           0x00000000        0x0 /home/lionel/paparazziProto1/var/Colibri/ap/firmwares/fixedwing/ap_downlink.o
 .text          0x00000000        0x0 /home/lionel/paparazziProto1/var/Colibri/ap/arch/lpc21/armVIC.o
 .data          0x00000000        0x0 /home/lionel/paparazziProto1/var/Colibri/ap/arch/lpc21/armVIC.o
 .bss           0x00000000        0x0 /home/lionel/paparazziProto1/var/Colibri/ap/arch/lpc21/armVIC.o
 .text.disableFIQ
                0x00000000       0x10 /home/lionel/paparazziProto1/var/Colibri/ap/arch/lpc21/armVIC.o
 .text.restoreFIQ
                0x00000000       0x1c /home/lionel/paparazziProto1/var/Colibri/ap/arch/lpc21/armVIC.o
 .text.enableFIQ
                0x00000000       0x10 /home/lionel/paparazziProto1/var/Colibri/ap/arch/lpc21/armVIC.o
 .text          0x00000000        0x0 /home/lionel/paparazziProto1/var/Colibri/ap/firmwares/fixedwing/main.o
 .data          0x00000000        0x0 /home/lionel/paparazziProto1/var/Colibri/ap/firmwares/fixedwing/main.o
 .bss           0x00000000        0x0 /home/lionel/paparazziProto1/var/Colibri/ap/firmwares/fixedwing/main.o
 .text          0x00000000        0x0 /home/lionel/paparazziProto1/var/Colibri/ap/mcu_periph/uart.o
 .data          0x00000000        0x0 /home/lionel/paparazziProto1/var/Colibri/ap/mcu_periph/uart.o
 .bss           0x00000000        0x0 /home/lionel/paparazziProto1/var/Colibri/ap/mcu_periph/uart.o
 .text          0x00000000        0x0 /home/lionel/paparazziProto1/var/Colibri/ap/arch/lpc21/mcu_periph/uart_arch.o
 .data          0x00000000        0x0 /home/lionel/paparazziProto1/var/Colibri/ap/arch/lpc21/mcu_periph/uart_arch.o
 .bss           0x00000000        0x0 /home/lionel/paparazziProto1/var/Colibri/ap/arch/lpc21/mcu_periph/uart_arch.o
 .text.uart_periph_set_baudrate
                0x00000000       0x30 /home/lionel/paparazziProto1/var/Colibri/ap/arch/lpc21/mcu_periph/uart_arch.o
 .text          0x00000000        0x0 /home/lionel/paparazziProto1/var/Colibri/ap/subsystems/settings.o
 .data          0x00000000        0x0 /home/lionel/paparazziProto1/var/Colibri/ap/subsystems/settings.o
 .bss           0x00000000        0x0 /home/lionel/paparazziProto1/var/Colibri/ap/subsystems/settings.o
 .text.settings_store
                0x00000000        0x4 /home/lionel/paparazziProto1/var/Colibri/ap/subsystems/settings.o
 COMMON         0x00000000        0x1 /home/lionel/paparazziProto1/var/Colibri/ap/subsystems/settings.o
 .text          0x00000000        0x0 /home/lionel/paparazziProto1/var/Colibri/ap/arch/lpc21/subsystems/settings_arch.o
 .data          0x00000000        0x0 /home/lionel/paparazziProto1/var/Colibri/ap/arch/lpc21/subsystems/settings_arch.o
 .bss           0x00000000        0x0 /home/lionel/paparazziProto1/var/Colibri/ap/arch/lpc21/subsystems/settings_arch.o
 .text.flash_detect
                0x00000000       0x78 /home/lionel/paparazziProto1/var/Colibri/ap/arch/lpc21/subsystems/settings_arch.o
 .text.pflash_program_array
                0x00000000       0x90 /home/lionel/paparazziProto1/var/Colibri/ap/arch/lpc21/subsystems/settings_arch.o
 .text.pflash_program_bytes
                0x00000000      0x1b8 /home/lionel/paparazziProto1/var/Colibri/ap/arch/lpc21/subsystems/settings_arch.o
 .text.persistent_write
                0x00000000       0x80 /home/lionel/paparazziProto1/var/Colibri/ap/arch/lpc21/subsystems/settings_arch.o
 .text.persistent_read
                0x00000000       0xb4 /home/lionel/paparazziProto1/var/Colibri/ap/arch/lpc21/subsystems/settings_arch.o
 .text          0x00000000        0x0 /home/lionel/paparazziProto1/var/Colibri/ap/arch/lpc21/mcu_periph/adc_arch.o
 .data          0x00000000        0x0 /home/lionel/paparazziProto1/var/Colibri/ap/arch/lpc21/mcu_periph/adc_arch.o
 .bss           0x00000000        0x0 /home/lionel/paparazziProto1/var/Colibri/ap/arch/lpc21/mcu_periph/adc_arch.o
 .text          0x00000000        0x0 /home/lionel/paparazziProto1/var/Colibri/ap/arch/lpc21/servos_4017_hw.o
 .data          0x00000000        0x0 /home/lionel/paparazziProto1/var/Colibri/ap/arch/lpc21/servos_4017_hw.o
 .bss           0x00000000        0x0 /home/lionel/paparazziProto1/var/Colibri/ap/arch/lpc21/servos_4017_hw.o
 .text          0x00000000        0x0 /home/lionel/paparazziProto1/var/Colibri/ap/actuators.o
 .data          0x00000000        0x0 /home/lionel/paparazziProto1/var/Colibri/ap/actuators.o
 .bss           0x00000000        0x0 /home/lionel/paparazziProto1/var/Colibri/ap/actuators.o
 .text          0x00000000        0x0 /home/lionel/paparazziProto1/var/Colibri/ap/subsystems/radio_control.o
 .data          0x00000000        0x0 /home/lionel/paparazziProto1/var/Colibri/ap/subsystems/radio_control.o
 .bss           0x00000000        0x0 /home/lionel/paparazziProto1/var/Colibri/ap/subsystems/radio_control.o
 .text          0x00000000        0x0 /home/lionel/paparazziProto1/var/Colibri/ap/subsystems/radio_control/rc_datalink.o
 .data          0x00000000        0x0 /home/lionel/paparazziProto1/var/Colibri/ap/subsystems/radio_control/rc_datalink.o
 .bss           0x00000000        0x0 /home/lionel/paparazziProto1/var/Colibri/ap/subsystems/radio_control/rc_datalink.o
 .text          0x00000000        0x0 /home/lionel/paparazziProto1/var/Colibri/ap/firmwares/fixedwing/stabilization/stabilization_attitude.o
 .data          0x00000000        0x0 /home/lionel/paparazziProto1/var/Colibri/ap/firmwares/fixedwing/stabilization/stabilization_attitude.o
 .bss           0x00000000        0x0 /home/lionel/paparazziProto1/var/Colibri/ap/firmwares/fixedwing/stabilization/stabilization_attitude.o
 .text          0x00000000        0x0 /home/lionel/paparazziProto1/var/Colibri/ap/firmwares/fixedwing/guidance/guidance_v.o
 .data          0x00000000        0x0 /home/lionel/paparazziProto1/var/Colibri/ap/firmwares/fixedwing/guidance/guidance_v.o
 .bss           0x00000000        0x0 /home/lionel/paparazziProto1/var/Colibri/ap/firmwares/fixedwing/guidance/guidance_v.o
 .text          0x00000000        0x0 /home/lionel/paparazziProto1/var/Colibri/ap/subsystems/nav.o
 .data          0x00000000        0x0 /home/lionel/paparazziProto1/var/Colibri/ap/subsystems/nav.o
 .bss           0x00000000        0x0 /home/lionel/paparazziProto1/var/Colibri/ap/subsystems/nav.o
 .text.nav_eight_init
                0x00000000       0x14 /home/lionel/paparazziProto1/var/Colibri/ap/subsystems/nav.o
 .text          0x00000000        0x0 /home/lionel/paparazziProto1/var/Colibri/ap/subsystems/navigation/common_flight_plan.o
 .data          0x00000000        0x0 /home/lionel/paparazziProto1/var/Colibri/ap/subsystems/navigation/common_flight_plan.o
 .bss           0x00000000        0x0 /home/lionel/paparazziProto1/var/Colibri/ap/subsystems/navigation/common_flight_plan.o
 .text          0x00000000        0x0 /home/lionel/paparazziProto1/var/Colibri/ap/subsystems/navigation/traffic_info.o
 .data          0x00000000        0x0 /home/lionel/paparazziProto1/var/Colibri/ap/subsystems/navigation/traffic_info.o
 .bss           0x00000000        0x0 /home/lionel/paparazziProto1/var/Colibri/ap/subsystems/navigation/traffic_info.o
 .text.get_ac_info
                0x00000000       0x1c /home/lionel/paparazziProto1/var/Colibri/ap/subsystems/navigation/traffic_info.o
 .text          0x00000000        0x0 /home/lionel/paparazziProto1/var/Colibri/ap/subsystems/navigation/nav_survey_rectangle.o
 .data          0x00000000        0x0 /home/lionel/paparazziProto1/var/Colibri/ap/subsystems/navigation/nav_survey_rectangle.o
 .bss           0x00000000        0x0 /home/lionel/paparazziProto1/var/Colibri/ap/subsystems/navigation/nav_survey_rectangle.o
 .text.nav_survey_rectangle_init
                0x00000000      0x3f0 /home/lionel/paparazziProto1/var/Colibri/ap/subsystems/navigation/nav_survey_rectangle.o
 .text.nav_survey_rectangle
                0x00000000      0x96c /home/lionel/paparazziProto1/var/Colibri/ap/subsystems/navigation/nav_survey_rectangle.o
 .bss.survey_from
                0x00000000        0xc /home/lionel/paparazziProto1/var/Colibri/ap/subsystems/navigation/nav_survey_rectangle.o
 .bss.survey_orientation
                0x00000000        0x1 /home/lionel/paparazziProto1/var/Colibri/ap/subsystems/navigation/nav_survey_rectangle.o
 .bss.survey_radius.2200
                0x00000000        0x4 /home/lionel/paparazziProto1/var/Colibri/ap/subsystems/navigation/nav_survey_rectangle.o
 .bss.survey_to
                0x00000000        0xc /home/lionel/paparazziProto1/var/Colibri/ap/subsystems/navigation/nav_survey_rectangle.o
 .bss.survey_uturn
                0x00000000        0x1 /home/lionel/paparazziProto1/var/Colibri/ap/subsystems/navigation/nav_survey_rectangle.o
 .text          0x00000000        0x0 /home/lionel/paparazziProto1/var/Colibri/ap/subsystems/navigation/nav_line.o
 .data          0x00000000        0x0 /home/lionel/paparazziProto1/var/Colibri/ap/subsystems/navigation/nav_line.o
 .bss           0x00000000        0x0 /home/lionel/paparazziProto1/var/Colibri/ap/subsystems/navigation/nav_line.o
 .text.nav_line_init
                0x00000000       0x14 /home/lionel/paparazziProto1/var/Colibri/ap/subsystems/navigation/nav_line.o
 .text.nav_line
                0x00000000      0xf00 /home/lionel/paparazziProto1/var/Colibri/ap/subsystems/navigation/nav_line.o
 .bss.line_status
                0x00000000        0x1 /home/lionel/paparazziProto1/var/Colibri/ap/subsystems/navigation/nav_line.o
 .text          0x00000000        0x0 /home/lionel/paparazziProto1/var/Colibri/ap/subsystems/navigation/nav_cube.o
 .data          0x00000000        0x0 /home/lionel/paparazziProto1/var/Colibri/ap/subsystems/navigation/nav_cube.o
 .bss           0x00000000        0x0 /home/lionel/paparazziProto1/var/Colibri/ap/subsystems/navigation/nav_cube.o
 .text.nav_cube_init
                0x00000000      0x528 /home/lionel/paparazziProto1/var/Colibri/ap/subsystems/navigation/nav_cube.o
 .text.nav_cube
                0x00000000      0x150 /home/lionel/paparazziProto1/var/Colibri/ap/subsystems/navigation/nav_cube.o
 .data.cube_sect
                0x00000000        0x4 /home/lionel/paparazziProto1/var/Colibri/ap/subsystems/navigation/nav_cube.o
 .data.cube_nsect_x
                0x00000000        0x4 /home/lionel/paparazziProto1/var/Colibri/ap/subsystems/navigation/nav_cube.o
 .data.cube_nsect_z
                0x00000000        0x4 /home/lionel/paparazziProto1/var/Colibri/ap/subsystems/navigation/nav_cube.o
 COMMON         0x00000000       0x2c /home/lionel/paparazziProto1/var/Colibri/ap/subsystems/navigation/nav_cube.o
 .text          0x00000000        0x0 /home/lionel/paparazziProto1/var/Colibri/ap/subsystems/navigation/discsurvey.o
 .data          0x00000000        0x0 /home/lionel/paparazziProto1/var/Colibri/ap/subsystems/navigation/discsurvey.o
 .bss           0x00000000        0x0 /home/lionel/paparazziProto1/var/Colibri/ap/subsystems/navigation/discsurvey.o
 .text.disc_survey_init
                0x00000000       0x5c /home/lionel/paparazziProto1/var/Colibri/ap/subsystems/navigation/discsurvey.o
 .text.disc_survey
                0x00000000      0x59c /home/lionel/paparazziProto1/var/Colibri/ap/subsystems/navigation/discsurvey.o
 .bss.c1        0x00000000        0xc /home/lionel/paparazziProto1/var/Colibri/ap/subsystems/navigation/discsurvey.o
 .bss.c2        0x00000000        0xc /home/lionel/paparazziProto1/var/Colibri/ap/subsystems/navigation/discsurvey.o
 .bss.c         0x00000000        0xc /home/lionel/paparazziProto1/var/Colibri/ap/subsystems/navigation/discsurvey.o
 .bss.sign      0x00000000        0x1 /home/lionel/paparazziProto1/var/Colibri/ap/subsystems/navigation/discsurvey.o
 .bss.status    0x00000000        0x1 /home/lionel/paparazziProto1/var/Colibri/ap/subsystems/navigation/discsurvey.o
 .text          0x00000000        0x0 /home/lionel/paparazziProto1/var/Colibri/ap/subsystems/navigation/OSAMNav.o
 .data          0x00000000        0x0 /home/lionel/paparazziProto1/var/Colibri/ap/subsystems/navigation/OSAMNav.o
 .bss           0x00000000        0x0 /home/lionel/paparazziProto1/var/Colibri/ap/subsystems/navigation/OSAMNav.o
 .text.InitializeFlower
                0x00000000      0x2d0 /home/lionel/paparazziProto1/var/Colibri/ap/subsystems/navigation/OSAMNav.o
 .text.FlowerNav
                0x00000000      0x63c /home/lionel/paparazziProto1/var/Colibri/ap/subsystems/navigation/OSAMNav.o
 .text.InitializeBungeeTakeoff
                0x00000000      0x2c0 /home/lionel/paparazziProto1/var/Colibri/ap/subsystems/navigation/OSAMNav.o
 .text.BungeeTakeoff
                0x00000000      0x4fc /home/lionel/paparazziProto1/var/Colibri/ap/subsystems/navigation/OSAMNav.o
 .text.InitializeVerticalRaster
                0x00000000       0x14 /home/lionel/paparazziProto1/var/Colibri/ap/subsystems/navigation/OSAMNav.o
 .text.VerticalRaster
                0x00000000      0xf68 /home/lionel/paparazziProto1/var/Colibri/ap/subsystems/navigation/OSAMNav.o
 .text.InitializeSkidLanding
                0x00000000      0x258 /home/lionel/paparazziProto1/var/Colibri/ap/subsystems/navigation/OSAMNav.o
 .text.SkidLanding
                0x00000000      0x658 /home/lionel/paparazziProto1/var/Colibri/ap/subsystems/navigation/OSAMNav.o
 .text.TranslateAndRotateFromWorld
                0x00000000      0x104 /home/lionel/paparazziProto1/var/Colibri/ap/subsystems/navigation/OSAMNav.o
 .text.FlightLine
                0x00000000      0x5c4 /home/lionel/paparazziProto1/var/Colibri/ap/subsystems/navigation/OSAMNav.o
 .text.FlightLineBlock
                0x00000000       0xc8 /home/lionel/paparazziProto1/var/Colibri/ap/subsystems/navigation/OSAMNav.o
 .text.InitializePolygonSurvey
                0x00000000      0x8b8 /home/lionel/paparazziProto1/var/Colibri/ap/subsystems/navigation/OSAMNav.o
 .text.RotateAndTranslateToWorld
                0x00000000      0x110 /home/lionel/paparazziProto1/var/Colibri/ap/subsystems/navigation/OSAMNav.o
 .text.PolygonSurvey
                0x00000000      0x98c /home/lionel/paparazziProto1/var/Colibri/ap/subsystems/navigation/OSAMNav.o
 .text.FindInterceptOfTwoLines
                0x00000000       0x70 /home/lionel/paparazziProto1/var/Colibri/ap/subsystems/navigation/OSAMNav.o
 .text.EvaluateLineForY
                0x00000000       0x28 /home/lionel/paparazziProto1/var/Colibri/ap/subsystems/navigation/OSAMNav.o
 .text.EvaluateLineForX
                0x00000000       0x28 /home/lionel/paparazziProto1/var/Colibri/ap/subsystems/navigation/OSAMNav.o
 .text.DistanceEquation
                0x00000000       0x74 /home/lionel/paparazziProto1/var/Colibri/ap/subsystems/navigation/OSAMNav.o
 .bss.DistanceFromCenter
                0x00000000        0x4 /home/lionel/paparazziProto1/var/Colibri/ap/subsystems/navigation/OSAMNav.o
 .bss.EdgeMinY  0x00000000       0x28 /home/lionel/paparazziProto1/var/Colibri/ap/subsystems/navigation/OSAMNav.o
 .bss.SurveyTheta
                0x00000000        0x4 /home/lionel/paparazziProto1/var/Colibri/ap/subsystems/navigation/OSAMNav.o
 .bss.SurveyCircleQdr
                0x00000000        0x4 /home/lionel/paparazziProto1/var/Colibri/ap/subsystems/navigation/OSAMNav.o
 .bss.FlyFromX  0x00000000        0x4 /home/lionel/paparazziProto1/var/Colibri/ap/subsystems/navigation/OSAMNav.o
 .bss.FlyFromY  0x00000000        0x4 /home/lionel/paparazziProto1/var/Colibri/ap/subsystems/navigation/OSAMNav.o
 .bss.FLBlockCount
                0x00000000        0x1 /home/lionel/paparazziProto1/var/Colibri/ap/subsystems/navigation/OSAMNav.o
 .bss.LandAppAlt
                0x00000000        0x4 /home/lionel/paparazziProto1/var/Colibri/ap/subsystems/navigation/OSAMNav.o
 .bss.SurveyCircle
                0x00000000        0x8 /home/lionel/paparazziProto1/var/Colibri/ap/subsystems/navigation/OSAMNav.o
 .bss.Fly2X     0x00000000        0x4 /home/lionel/paparazziProto1/var/Colibri/ap/subsystems/navigation/OSAMNav.o
 .bss.Fly2Y     0x00000000        0x4 /home/lionel/paparazziProto1/var/Colibri/ap/subsystems/navigation/OSAMNav.o
 .bss.EntryPoint.3133
                0x00000000        0x8 /home/lionel/paparazziProto1/var/Colibri/ap/subsystems/navigation/OSAMNav.o
 .bss.Flowerradius
                0x00000000        0x4 /home/lionel/paparazziProto1/var/Colibri/ap/subsystems/navigation/OSAMNav.o
 .bss.SurveySize
                0x00000000        0x1 /home/lionel/paparazziProto1/var/Colibri/ap/subsystems/navigation/OSAMNav.o
 .bss.LandCircle
                0x00000000        0x8 /home/lionel/paparazziProto1/var/Colibri/ap/subsystems/navigation/OSAMNav.o
 .bss.TDWaypoint
                0x00000000        0x1 /home/lionel/paparazziProto1/var/Colibri/ap/subsystems/navigation/OSAMNav.o
 .bss.line_status
                0x00000000        0x1 /home/lionel/paparazziProto1/var/Colibri/ap/subsystems/navigation/OSAMNav.o
 .bss.FLCircle  0x00000000        0x8 /home/lionel/paparazziProto1/var/Colibri/ap/subsystems/navigation/OSAMNav.o
 .bss.FLFROMWP  0x00000000        0x8 /home/lionel/paparazziProto1/var/Colibri/ap/subsystems/navigation/OSAMNav.o
 .bss.EdgeCurrentX
                0x00000000        0x4 /home/lionel/paparazziProto1/var/Colibri/ap/subsystems/navigation/OSAMNav.o
 .bss.Edge      0x00000000        0x1 /home/lionel/paparazziProto1/var/Colibri/ap/subsystems/navigation/OSAMNav.o
 .bss.EdgeCurrentY
                0x00000000        0x4 /home/lionel/paparazziProto1/var/Colibri/ap/subsystems/navigation/OSAMNav.o
 .bss.BungeeAlt
                0x00000000        0x4 /home/lionel/paparazziProto1/var/Colibri/ap/subsystems/navigation/OSAMNav.o
 .bss.ThrottleSlope
                0x00000000        0x4 /home/lionel/paparazziProto1/var/Colibri/ap/subsystems/navigation/OSAMNav.o
 .bss.throttlePy
                0x00000000        0x4 /home/lionel/paparazziProto1/var/Colibri/ap/subsystems/navigation/OSAMNav.o
 .bss.Edges     0x00000000       0x78 /home/lionel/paparazziProto1/var/Colibri/ap/subsystems/navigation/OSAMNav.o
 .bss.throttlePx
                0x00000000        0x4 /home/lionel/paparazziProto1/var/Colibri/ap/subsystems/navigation/OSAMNav.o
 .bss.TDistance
                0x00000000        0x4 /home/lionel/paparazziProto1/var/Colibri/ap/subsystems/navigation/OSAMNav.o
 .bss.FinalLandAltitude
                0x00000000        0x4 /home/lionel/paparazziProto1/var/Colibri/ap/subsystems/navigation/OSAMNav.o
 .bss.LandCircleQDR
                0x00000000        0x4 /home/lionel/paparazziProto1/var/Colibri/ap/subsystems/navigation/OSAMNav.o
 .bss.SurveyEntryWP
                0x00000000        0x1 /home/lionel/paparazziProto1/var/Colibri/ap/subsystems/navigation/OSAMNav.o
 .bss.CircleX   0x00000000        0x4 /home/lionel/paparazziProto1/var/Colibri/ap/subsystems/navigation/OSAMNav.o
 .bss.CircleY   0x00000000        0x4 /home/lionel/paparazziProto1/var/Colibri/ap/subsystems/navigation/OSAMNav.o
 .bss.CFLStatus
                0x00000000        0x1 /home/lionel/paparazziProto1/var/Colibri/ap/subsystems/navigation/OSAMNav.o
 .bss.BungeeWaypoint
                0x00000000        0x1 /home/lionel/paparazziProto1/var/Colibri/ap/subsystems/navigation/OSAMNav.o
 .bss.FinalLandCount
                0x00000000        0x1 /home/lionel/paparazziProto1/var/Colibri/ap/subsystems/navigation/OSAMNav.o
 .bss.dSweep    0x00000000        0x4 /home/lionel/paparazziProto1/var/Colibri/ap/subsystems/navigation/OSAMNav.o
 .bss.LastPoint.3171
                0x00000000        0x8 /home/lionel/paparazziProto1/var/Colibri/ap/subsystems/navigation/OSAMNav.o
 .bss.FlowerTheta
                0x00000000        0x4 /home/lionel/paparazziProto1/var/Colibri/ap/subsystems/navigation/OSAMNav.o
 .bss.AFWaypoint
                0x00000000        0x1 /home/lionel/paparazziProto1/var/Colibri/ap/subsystems/navigation/OSAMNav.o
 .bss.TransCurrentX
                0x00000000        0x4 /home/lionel/paparazziProto1/var/Colibri/ap/subsystems/navigation/OSAMNav.o
 .bss.CLandingStatus
                0x00000000        0x1 /home/lionel/paparazziProto1/var/Colibri/ap/subsystems/navigation/OSAMNav.o
 .bss.initialx  0x00000000        0x4 /home/lionel/paparazziProto1/var/Colibri/ap/subsystems/navigation/OSAMNav.o
 .bss.initialy  0x00000000        0x4 /home/lionel/paparazziProto1/var/Colibri/ap/subsystems/navigation/OSAMNav.o
 .bss.EdgeMaxY  0x00000000       0x28 /home/lionel/paparazziProto1/var/Colibri/ap/subsystems/navigation/OSAMNav.o
 .bss.CTakeoffStatus
                0x00000000        0x1 /home/lionel/paparazziProto1/var/Colibri/ap/subsystems/navigation/OSAMNav.o
 .bss.TransCurrentY
                0x00000000        0x4 /home/lionel/paparazziProto1/var/Colibri/ap/subsystems/navigation/OSAMNav.o
 .bss.SmallestCorner
                0x00000000        0x8 /home/lionel/paparazziProto1/var/Colibri/ap/subsystems/navigation/OSAMNav.o
 .bss.CFlowerStatus
                0x00000000        0x1 /home/lionel/paparazziProto1/var/Colibri/ap/subsystems/navigation/OSAMNav.o
 .bss.SurveyFromWP
                0x00000000        0x8 /home/lionel/paparazziProto1/var/Colibri/ap/subsystems/navigation/OSAMNav.o
 .bss.SurveyToWP
                0x00000000        0x8 /home/lionel/paparazziProto1/var/Colibri/ap/subsystems/navigation/OSAMNav.o
 .bss.MaxY      0x00000000        0x4 /home/lionel/paparazziProto1/var/Colibri/ap/subsystems/navigation/OSAMNav.o
 .bss.FLTOWP    0x00000000        0x8 /home/lionel/paparazziProto1/var/Colibri/ap/subsystems/navigation/OSAMNav.o
 .bss.LandRadius
                0x00000000        0x4 /home/lionel/paparazziProto1/var/Colibri/ap/subsystems/navigation/OSAMNav.o
 .bss.Center    0x00000000        0x1 /home/lionel/paparazziProto1/var/Colibri/ap/subsystems/navigation/OSAMNav.o
 .bss.FLQDR     0x00000000        0x4 /home/lionel/paparazziProto1/var/Colibri/ap/subsystems/navigation/OSAMNav.o
 .bss.SurveyRadius
                0x00000000        0x4 /home/lionel/paparazziProto1/var/Colibri/ap/subsystems/navigation/OSAMNav.o
 .bss.AboveLine
                0x00000000        0x1 /home/lionel/paparazziProto1/var/Colibri/ap/subsystems/navigation/OSAMNav.o
 .bss.CSurveyStatus
                0x00000000        0x1 /home/lionel/paparazziProto1/var/Colibri/ap/subsystems/navigation/OSAMNav.o
 .bss.FLRadius  0x00000000        0x4 /home/lionel/paparazziProto1/var/Colibri/ap/subsystems/navigation/OSAMNav.o
 .bss.ApproachQDR
                0x00000000        0x4 /home/lionel/paparazziProto1/var/Colibri/ap/subsystems/navigation/OSAMNav.o
 COMMON         0x00000000        0x4 /home/lionel/paparazziProto1/var/Colibri/ap/subsystems/navigation/OSAMNav.o
 .text          0x00000000        0x0 /home/lionel/paparazziProto1/var/Colibri/ap/subsystems/navigation/snav.o
 .data          0x00000000        0x0 /home/lionel/paparazziProto1/var/Colibri/ap/subsystems/navigation/snav.o
 .bss           0x00000000        0x0 /home/lionel/paparazziProto1/var/Colibri/ap/subsystems/navigation/snav.o
 .text.snav_init
                0x00000000      0x784 /home/lionel/paparazziProto1/var/Colibri/ap/subsystems/navigation/snav.o
 .text.snav_circle1
                0x00000000      0x218 /home/lionel/paparazziProto1/var/Colibri/ap/subsystems/navigation/snav.o
 .text.snav_route
                0x00000000       0xac /home/lionel/paparazziProto1/var/Colibri/ap/subsystems/navigation/snav.o
 .text.snav_circle2
                0x00000000      0x220 /home/lionel/paparazziProto1/var/Colibri/ap/subsystems/navigation/snav.o
 .text.snav_on_time
                0x00000000      0x7a8 /home/lionel/paparazziProto1/var/Colibri/ap/subsystems/navigation/snav.o
 .bss.wp_ta     0x00000000        0xc /home/lionel/paparazziProto1/var/Colibri/ap/subsystems/navigation/snav.o
 .bss.ground_speed_timer
                0x00000000        0x1 /home/lionel/paparazziProto1/var/Colibri/ap/subsystems/navigation/snav.o
 .bss.wp_td     0x00000000        0xc /home/lionel/paparazziProto1/var/Colibri/ap/subsystems/navigation/snav.o
 .bss.wp_ca     0x00000000        0xc /home/lionel/paparazziProto1/var/Colibri/ap/subsystems/navigation/snav.o
 .bss.wp_cd     0x00000000        0xc /home/lionel/paparazziProto1/var/Colibri/ap/subsystems/navigation/snav.o
 .bss.a_radius  0x00000000        0x4 /home/lionel/paparazziProto1/var/Colibri/ap/subsystems/navigation/snav.o
 .bss.ground_speeds
                0x00000000       0x60 /home/lionel/paparazziProto1/var/Colibri/ap/subsystems/navigation/snav.o
 .bss.qdr_a     0x00000000        0x4 /home/lionel/paparazziProto1/var/Colibri/ap/subsystems/navigation/snav.o
 .bss.u_a_ca_y  0x00000000        0x4 /home/lionel/paparazziProto1/var/Colibri/ap/subsystems/navigation/snav.o
 .bss.d_radius  0x00000000        0x4 /home/lionel/paparazziProto1/var/Colibri/ap/subsystems/navigation/snav.o
 .bss.qdr_td    0x00000000        0x4 /home/lionel/paparazziProto1/var/Colibri/ap/subsystems/navigation/snav.o
 .bss.u_a_ca_x  0x00000000        0x4 /home/lionel/paparazziProto1/var/Colibri/ap/subsystems/navigation/snav.o
 .bss.wp_a      0x00000000        0x1 /home/lionel/paparazziProto1/var/Colibri/ap/subsystems/navigation/snav.o
 COMMON         0x00000000        0x4 /home/lionel/paparazziProto1/var/Colibri/ap/subsystems/navigation/snav.o
 .text          0x00000000        0x0 /home/lionel/paparazziProto1/var/Colibri/ap/subsystems/navigation/spiral.o
 .data          0x00000000        0x0 /home/lionel/paparazziProto1/var/Colibri/ap/subsystems/navigation/spiral.o
 .bss           0x00000000        0x0 /home/lionel/paparazziProto1/var/Colibri/ap/subsystems/navigation/spiral.o
 .text.InitializeSpiral
                0x00000000      0x24c /home/lionel/paparazziProto1/var/Colibri/ap/subsystems/navigation/spiral.o
 .text.SpiralNav
                0x00000000      0x2d8 /home/lionel/paparazziProto1/var/Colibri/ap/subsystems/navigation/spiral.o
 .bss.LastCircleY
                0x00000000        0x4 /home/lionel/paparazziProto1/var/Colibri/ap/subsystems/navigation/spiral.o
 .bss.SRad      0x00000000        0x4 /home/lionel/paparazziProto1/var/Colibri/ap/subsystems/navigation/spiral.o
 .bss.Edge      0x00000000        0x1 /home/lionel/paparazziProto1/var/Colibri/ap/subsystems/navigation/spiral.o
 .bss.nav_radius_min
                0x00000000        0x4 /home/lionel/paparazziProto1/var/Colibri/ap/subsystems/navigation/spiral.o
 .bss.Segmente  0x00000000        0x4 /home/lionel/paparazziProto1/var/Colibri/ap/subsystems/navigation/spiral.o
 .bss.Spiralradius
                0x00000000        0x4 /home/lionel/paparazziProto1/var/Colibri/ap/subsystems/navigation/spiral.o
 .bss.TransCurrentX
                0x00000000        0x4 /home/lionel/paparazziProto1/var/Colibri/ap/subsystems/navigation/spiral.o
 .bss.Alphalimit
                0x00000000        0x4 /home/lionel/paparazziProto1/var/Colibri/ap/subsystems/navigation/spiral.o
 .bss.ZPoint    0x00000000        0x4 /home/lionel/paparazziProto1/var/Colibri/ap/subsystems/navigation/spiral.o
 .bss.LastCircleX
                0x00000000        0x4 /home/lionel/paparazziProto1/var/Colibri/ap/subsystems/navigation/spiral.o
 .bss.Center    0x00000000        0x1 /home/lionel/paparazziProto1/var/Colibri/ap/subsystems/navigation/spiral.o
 .bss.FlyFromX  0x00000000        0x4 /home/lionel/paparazziProto1/var/Colibri/ap/subsystems/navigation/spiral.o
 .bss.FlyFromY  0x00000000        0x4 /home/lionel/paparazziProto1/var/Colibri/ap/subsystems/navigation/spiral.o
 .bss.IRad      0x00000000        0x4 /home/lionel/paparazziProto1/var/Colibri/ap/subsystems/navigation/spiral.o
 .bss.EdgeCurrentX
                0x00000000        0x4 /home/lionel/paparazziProto1/var/Colibri/ap/subsystems/navigation/spiral.o
 .bss.EdgeCurrentY
                0x00000000        0x4 /home/lionel/paparazziProto1/var/Colibri/ap/subsystems/navigation/spiral.o
 .bss.TransCurrentY
                0x00000000        0x4 /home/lionel/paparazziProto1/var/Colibri/ap/subsystems/navigation/spiral.o
 .bss.TransCurrentZ
                0x00000000        0x4 /home/lionel/paparazziProto1/var/Colibri/ap/subsystems/navigation/spiral.o
 .bss.DistanceFromCenter
                0x00000000        0x4 /home/lionel/paparazziProto1/var/Colibri/ap/subsystems/navigation/spiral.o
 .bss.CSpiralStatus
                0x00000000        0x1 /home/lionel/paparazziProto1/var/Colibri/ap/subsystems/navigation/spiral.o
 .text          0x00000000        0x0 /home/lionel/paparazziProto1/var/Colibri/ap/subsystems/navigation/poly_survey_adv.o
 .data          0x00000000        0x0 /home/lionel/paparazziProto1/var/Colibri/ap/subsystems/navigation/poly_survey_adv.o
 .bss           0x00000000        0x0 /home/lionel/paparazziProto1/var/Colibri/ap/subsystems/navigation/poly_survey_adv.o
 .text.intercept_two_lines
                0x00000000      0x1a0 /home/lionel/paparazziProto1/var/Colibri/ap/subsystems/navigation/poly_survey_adv.o
 .text.get_two_intersects.constprop.0
                0x00000000      0x1f0 /home/lionel/paparazziProto1/var/Colibri/ap/subsystems/navigation/poly_survey_adv.o
 .text.init_poly_survey_adv
                0x00000000      0x620 /home/lionel/paparazziProto1/var/Colibri/ap/subsystems/navigation/poly_survey_adv.o
 .text.poly_survey_adv
                0x00000000      0x760 /home/lionel/paparazziProto1/var/Colibri/ap/subsystems/navigation/poly_survey_adv.o
 COMMON         0x00000000       0x6c /home/lionel/paparazziProto1/var/Colibri/ap/subsystems/navigation/poly_survey_adv.o
 .text          0x00000000        0x0 /home/lionel/paparazziProto1/var/Colibri/ap/subsystems/navigation/gls.o
 .data          0x00000000        0x0 /home/lionel/paparazziProto1/var/Colibri/ap/subsystems/navigation/gls.o
 .bss           0x00000000        0x0 /home/lionel/paparazziProto1/var/Colibri/ap/subsystems/navigation/gls.o
 .text.gls_init
                0x00000000      0x234 /home/lionel/paparazziProto1/var/Colibri/ap/subsystems/navigation/gls.o
 .text.gls      0x00000000      0x2d4 /home/lionel/paparazziProto1/var/Colibri/ap/subsystems/navigation/gls.o
 .data.init     0x00000000        0x1 /home/lionel/paparazziProto1/var/Colibri/ap/subsystems/navigation/gls.o
 COMMON         0x00000000        0xc /home/lionel/paparazziProto1/var/Colibri/ap/subsystems/navigation/gls.o
 .text          0x00000000        0x0 /home/lionel/paparazziProto1/var/Colibri/ap/subsystems/navigation/border_line.o
 .data          0x00000000        0x0 /home/lionel/paparazziProto1/var/Colibri/ap/subsystems/navigation/border_line.o
 .bss           0x00000000        0x0 /home/lionel/paparazziProto1/var/Colibri/ap/subsystems/navigation/border_line.o
 .text.border_line_init
                0x00000000       0x14 /home/lionel/paparazziProto1/var/Colibri/ap/subsystems/navigation/border_line.o
 .text.border_line
                0x00000000      0xb68 /home/lionel/paparazziProto1/var/Colibri/ap/subsystems/navigation/border_line.o
 .bss.border_line_status
                0x00000000        0x1 /home/lionel/paparazziProto1/var/Colibri/ap/subsystems/navigation/border_line.o
 .text          0x00000000        0x0 /home/lionel/paparazziProto1/var/Colibri/ap/subsystems/datalink/downlink.o
 .data          0x00000000        0x0 /home/lionel/paparazziProto1/var/Colibri/ap/subsystems/datalink/downlink.o
 .bss           0x00000000        0x0 /home/lionel/paparazziProto1/var/Colibri/ap/subsystems/datalink/downlink.o
 .text          0x00000000        0x0 /home/lionel/paparazziProto1/var/Colibri/ap/subsystems/datalink/pprz_transport.o
 .data          0x00000000        0x0 /home/lionel/paparazziProto1/var/Colibri/ap/subsystems/datalink/pprz_transport.o
 .bss           0x00000000        0x0 /home/lionel/paparazziProto1/var/Colibri/ap/subsystems/datalink/pprz_transport.o
 .text          0x00000000        0x0 /home/lionel/paparazziProto1/var/Colibri/ap/firmwares/fixedwing/datalink.o
 .data          0x00000000        0x0 /home/lionel/paparazziProto1/var/Colibri/ap/firmwares/fixedwing/datalink.o
 .bss           0x00000000        0x0 /home/lionel/paparazziProto1/var/Colibri/ap/firmwares/fixedwing/datalink.o
 .text          0x00000000        0x0 /home/lionel/paparazziProto1/var/Colibri/ap/subsystems/ahrs.o
 .data          0x00000000        0x0 /home/lionel/paparazziProto1/var/Colibri/ap/subsystems/ahrs.o
 .bss           0x00000000        0x0 /home/lionel/paparazziProto1/var/Colibri/ap/subsystems/ahrs.o
 .text          0x00000000        0x0 /home/lionel/paparazziProto1/var/Colibri/ap/subsystems/ahrs/ahrs_infrared.o
 .data          0x00000000        0x0 /home/lionel/paparazziProto1/var/Colibri/ap/subsystems/ahrs/ahrs_infrared.o
 .bss           0x00000000        0x0 /home/lionel/paparazziProto1/var/Colibri/ap/subsystems/ahrs/ahrs_infrared.o
 .text.ahrs_align
                0x00000000       0x14 /home/lionel/paparazziProto1/var/Colibri/ap/subsystems/ahrs/ahrs_infrared.o
 .text.ahrs_propagate
                0x00000000        0x4 /home/lionel/paparazziProto1/var/Colibri/ap/subsystems/ahrs/ahrs_infrared.o
 .text.ahrs_update_accel
                0x00000000        0x4 /home/lionel/paparazziProto1/var/Colibri/ap/subsystems/ahrs/ahrs_infrared.o
 .text.ahrs_update_mag
                0x00000000        0x4 /home/lionel/paparazziProto1/var/Colibri/ap/subsystems/ahrs/ahrs_infrared.o
 .text          0x00000000        0x0 /home/lionel/paparazziProto1/var/Colibri/ap/subsystems/gps/gps_ubx.o
 .data          0x00000000        0x0 /home/lionel/paparazziProto1/var/Colibri/ap/subsystems/gps/gps_ubx.o
 .bss           0x00000000        0x0 /home/lionel/paparazziProto1/var/Colibri/ap/subsystems/gps/gps_ubx.o
 .text.ubxsend_cfg_rst
                0x00000000      0x190 /home/lionel/paparazziProto1/var/Colibri/ap/subsystems/gps/gps_ubx.o
 .text          0x00000000        0x0 /home/lionel/paparazziProto1/var/Colibri/ap/subsystems/gps.o
 .data          0x00000000        0x0 /home/lionel/paparazziProto1/var/Colibri/ap/subsystems/gps.o
 .bss           0x00000000        0x0 /home/lionel/paparazziProto1/var/Colibri/ap/subsystems/gps.o
 .text          0x00000000        0x0 /home/lionel/paparazziProto1/var/Colibri/ap/subsystems/sensors/infrared.o
 .data          0x00000000        0x0 /home/lionel/paparazziProto1/var/Colibri/ap/subsystems/sensors/infrared.o
 .bss           0x00000000        0x0 /home/lionel/paparazziProto1/var/Colibri/ap/subsystems/sensors/infrared.o
 .text          0x00000000        0x0 /home/lionel/paparazziProto1/var/Colibri/ap/subsystems/sensors/infrared_adc.o
 .data          0x00000000        0x0 /home/lionel/paparazziProto1/var/Colibri/ap/subsystems/sensors/infrared_adc.o
 .bss           0x00000000        0x0 /home/lionel/paparazziProto1/var/Colibri/ap/subsystems/sensors/infrared_adc.o
 .text.infrared_event
                0x00000000        0x4 /home/lionel/paparazziProto1/var/Colibri/ap/subsystems/sensors/infrared_adc.o
 .text.infrared_init
                0x00000000        0x4 /home/lionel/paparazziProto1/var/Colibri/ap/subsystems/sensors/infrared_adc.o
 .text.infrared_update
                0x00000000        0x4 /home/lionel/paparazziProto1/var/Colibri/ap/subsystems/sensors/infrared_adc.o
 .data          0x00000000        0x0 /opt/paparazzi/arm-multilib/lib/gcc/arm-none-eabi/4.6.2/../../../../arm-none-eabi/lib/thumb/libm.a(lib_a-s_atan.o)
 .bss           0x00000000        0x0 /opt/paparazzi/arm-multilib/lib/gcc/arm-none-eabi/4.6.2/../../../../arm-none-eabi/lib/thumb/libm.a(lib_a-s_atan.o)
 .data          0x00000000        0x0 /opt/paparazzi/arm-multilib/lib/gcc/arm-none-eabi/4.6.2/../../../../arm-none-eabi/lib/thumb/libm.a(lib_a-s_cos.o)
 .bss           0x00000000        0x0 /opt/paparazzi/arm-multilib/lib/gcc/arm-none-eabi/4.6.2/../../../../arm-none-eabi/lib/thumb/libm.a(lib_a-s_cos.o)
 .data          0x00000000        0x0 /opt/paparazzi/arm-multilib/lib/gcc/arm-none-eabi/4.6.2/../../../../arm-none-eabi/lib/thumb/libm.a(lib_a-s_fabs.o)
 .bss           0x00000000        0x0 /opt/paparazzi/arm-multilib/lib/gcc/arm-none-eabi/4.6.2/../../../../arm-none-eabi/lib/thumb/libm.a(lib_a-s_fabs.o)
 .text          0x00000000      0x120 /opt/paparazzi/arm-multilib/lib/gcc/arm-none-eabi/4.6.2/../../../../arm-none-eabi/lib/thumb/libm.a(lib_a-s_rint.o)
 .data          0x00000000        0x0 /opt/paparazzi/arm-multilib/lib/gcc/arm-none-eabi/4.6.2/../../../../arm-none-eabi/lib/thumb/libm.a(lib_a-s_rint.o)
 .bss           0x00000000        0x0 /opt/paparazzi/arm-multilib/lib/gcc/arm-none-eabi/4.6.2/../../../../arm-none-eabi/lib/thumb/libm.a(lib_a-s_rint.o)
 .rodata        0x00000000       0x10 /opt/paparazzi/arm-multilib/lib/gcc/arm-none-eabi/4.6.2/../../../../arm-none-eabi/lib/thumb/libm.a(lib_a-s_rint.o)
 .data          0x00000000        0x0 /opt/paparazzi/arm-multilib/lib/gcc/arm-none-eabi/4.6.2/../../../../arm-none-eabi/lib/thumb/libm.a(lib_a-s_sin.o)
 .bss           0x00000000        0x0 /opt/paparazzi/arm-multilib/lib/gcc/arm-none-eabi/4.6.2/../../../../arm-none-eabi/lib/thumb/libm.a(lib_a-s_sin.o)
 .data          0x00000000        0x0 /opt/paparazzi/arm-multilib/lib/gcc/arm-none-eabi/4.6.2/../../../../arm-none-eabi/lib/thumb/libm.a(lib_a-s_tan.o)
 .bss           0x00000000        0x0 /opt/paparazzi/arm-multilib/lib/gcc/arm-none-eabi/4.6.2/../../../../arm-none-eabi/lib/thumb/libm.a(lib_a-s_tan.o)
 .data          0x00000000        0x0 /opt/paparazzi/arm-multilib/lib/gcc/arm-none-eabi/4.6.2/../../../../arm-none-eabi/lib/thumb/libm.a(lib_a-sf_atan.o)
 .bss           0x00000000        0x0 /opt/paparazzi/arm-multilib/lib/gcc/arm-none-eabi/4.6.2/../../../../arm-none-eabi/lib/thumb/libm.a(lib_a-sf_atan.o)
 .data          0x00000000        0x0 /opt/paparazzi/arm-multilib/lib/gcc/arm-none-eabi/4.6.2/../../../../arm-none-eabi/lib/thumb/libm.a(lib_a-sf_cos.o)
 .bss           0x00000000        0x0 /opt/paparazzi/arm-multilib/lib/gcc/arm-none-eabi/4.6.2/../../../../arm-none-eabi/lib/thumb/libm.a(lib_a-sf_cos.o)
 .data          0x00000000        0x0 /opt/paparazzi/arm-multilib/lib/gcc/arm-none-eabi/4.6.2/../../../../arm-none-eabi/lib/thumb/libm.a(lib_a-sf_fabs.o)
 .bss           0x00000000        0x0 /opt/paparazzi/arm-multilib/lib/gcc/arm-none-eabi/4.6.2/../../../../arm-none-eabi/lib/thumb/libm.a(lib_a-sf_fabs.o)
 .data          0x00000000        0x0 /opt/paparazzi/arm-multilib/lib/gcc/arm-none-eabi/4.6.2/../../../../arm-none-eabi/lib/thumb/libm.a(lib_a-sf_sin.o)
 .bss           0x00000000        0x0 /opt/paparazzi/arm-multilib/lib/gcc/arm-none-eabi/4.6.2/../../../../arm-none-eabi/lib/thumb/libm.a(lib_a-sf_sin.o)
 .text          0x00000000       0x48 /opt/paparazzi/arm-multilib/lib/gcc/arm-none-eabi/4.6.2/../../../../arm-none-eabi/lib/thumb/libm.a(lib_a-sf_tan.o)
 .data          0x00000000        0x0 /opt/paparazzi/arm-multilib/lib/gcc/arm-none-eabi/4.6.2/../../../../arm-none-eabi/lib/thumb/libm.a(lib_a-sf_tan.o)
 .bss           0x00000000        0x0 /opt/paparazzi/arm-multilib/lib/gcc/arm-none-eabi/4.6.2/../../../../arm-none-eabi/lib/thumb/libm.a(lib_a-sf_tan.o)
 .text          0x00000000       0xb0 /opt/paparazzi/arm-multilib/lib/gcc/arm-none-eabi/4.6.2/../../../../arm-none-eabi/lib/thumb/libm.a(lib_a-w_acos.o)
 .data          0x00000000        0x0 /opt/paparazzi/arm-multilib/lib/gcc/arm-none-eabi/4.6.2/../../../../arm-none-eabi/lib/thumb/libm.a(lib_a-w_acos.o)
 .bss           0x00000000        0x0 /opt/paparazzi/arm-multilib/lib/gcc/arm-none-eabi/4.6.2/../../../../arm-none-eabi/lib/thumb/libm.a(lib_a-w_acos.o)
 .rodata.str1.1
                0x00000000        0x6 /opt/paparazzi/arm-multilib/lib/gcc/arm-none-eabi/4.6.2/../../../../arm-none-eabi/lib/thumb/libm.a(lib_a-w_acos.o)
 .data          0x00000000        0x0 /opt/paparazzi/arm-multilib/lib/gcc/arm-none-eabi/4.6.2/../../../../arm-none-eabi/lib/thumb/libm.a(lib_a-w_asin.o)
 .bss           0x00000000        0x0 /opt/paparazzi/arm-multilib/lib/gcc/arm-none-eabi/4.6.2/../../../../arm-none-eabi/lib/thumb/libm.a(lib_a-w_asin.o)
 .data          0x00000000        0x0 /opt/paparazzi/arm-multilib/lib/gcc/arm-none-eabi/4.6.2/../../../../arm-none-eabi/lib/thumb/libm.a(lib_a-w_atan2.o)
 .bss           0x00000000        0x0 /opt/paparazzi/arm-multilib/lib/gcc/arm-none-eabi/4.6.2/../../../../arm-none-eabi/lib/thumb/libm.a(lib_a-w_atan2.o)
 .data          0x00000000        0x0 /opt/paparazzi/arm-multilib/lib/gcc/arm-none-eabi/4.6.2/../../../../arm-none-eabi/lib/thumb/libm.a(lib_a-w_cosh.o)
 .bss           0x00000000        0x0 /opt/paparazzi/arm-multilib/lib/gcc/arm-none-eabi/4.6.2/../../../../arm-none-eabi/lib/thumb/libm.a(lib_a-w_cosh.o)
 .data          0x00000000        0x0 /opt/paparazzi/arm-multilib/lib/gcc/arm-none-eabi/4.6.2/../../../../arm-none-eabi/lib/thumb/libm.a(lib_a-w_exp.o)
 .bss           0x00000000        0x0 /opt/paparazzi/arm-multilib/lib/gcc/arm-none-eabi/4.6.2/../../../../arm-none-eabi/lib/thumb/libm.a(lib_a-w_exp.o)
 .data          0x00000000        0x0 /opt/paparazzi/arm-multilib/lib/gcc/arm-none-eabi/4.6.2/../../../../arm-none-eabi/lib/thumb/libm.a(lib_a-w_log.o)
 .bss           0x00000000        0x0 /opt/paparazzi/arm-multilib/lib/gcc/arm-none-eabi/4.6.2/../../../../arm-none-eabi/lib/thumb/libm.a(lib_a-w_log.o)
 .text          0x00000000      0x328 /opt/paparazzi/arm-multilib/lib/gcc/arm-none-eabi/4.6.2/../../../../arm-none-eabi/lib/thumb/libm.a(lib_a-w_pow.o)
 .data          0x00000000        0x0 /opt/paparazzi/arm-multilib/lib/gcc/arm-none-eabi/4.6.2/../../../../arm-none-eabi/lib/thumb/libm.a(lib_a-w_pow.o)
 .bss           0x00000000        0x0 /opt/paparazzi/arm-multilib/lib/gcc/arm-none-eabi/4.6.2/../../../../arm-none-eabi/lib/thumb/libm.a(lib_a-w_pow.o)
 .rodata.str1.1
                0x00000000        0x4 /opt/paparazzi/arm-multilib/lib/gcc/arm-none-eabi/4.6.2/../../../../arm-none-eabi/lib/thumb/libm.a(lib_a-w_pow.o)
 .data          0x00000000        0x0 /opt/paparazzi/arm-multilib/lib/gcc/arm-none-eabi/4.6.2/../../../../arm-none-eabi/lib/thumb/libm.a(lib_a-w_sinh.o)
 .bss           0x00000000        0x0 /opt/paparazzi/arm-multilib/lib/gcc/arm-none-eabi/4.6.2/../../../../arm-none-eabi/lib/thumb/libm.a(lib_a-w_sinh.o)
 .data          0x00000000        0x0 /opt/paparazzi/arm-multilib/lib/gcc/arm-none-eabi/4.6.2/../../../../arm-none-eabi/lib/thumb/libm.a(lib_a-w_sqrt.o)
 .bss           0x00000000        0x0 /opt/paparazzi/arm-multilib/lib/gcc/arm-none-eabi/4.6.2/../../../../arm-none-eabi/lib/thumb/libm.a(lib_a-w_sqrt.o)
 .data          0x00000000        0x0 /opt/paparazzi/arm-multilib/lib/gcc/arm-none-eabi/4.6.2/../../../../arm-none-eabi/lib/thumb/libm.a(lib_a-wf_atan2.o)
 .bss           0x00000000        0x0 /opt/paparazzi/arm-multilib/lib/gcc/arm-none-eabi/4.6.2/../../../../arm-none-eabi/lib/thumb/libm.a(lib_a-wf_atan2.o)
 .text          0x00000000      0x308 /opt/paparazzi/arm-multilib/lib/gcc/arm-none-eabi/4.6.2/../../../../arm-none-eabi/lib/thumb/libm.a(lib_a-wf_pow.o)
 .data          0x00000000        0x0 /opt/paparazzi/arm-multilib/lib/gcc/arm-none-eabi/4.6.2/../../../../arm-none-eabi/lib/thumb/libm.a(lib_a-wf_pow.o)
 .bss           0x00000000        0x0 /opt/paparazzi/arm-multilib/lib/gcc/arm-none-eabi/4.6.2/../../../../arm-none-eabi/lib/thumb/libm.a(lib_a-wf_pow.o)
 .rodata.str1.1
                0x00000000        0x5 /opt/paparazzi/arm-multilib/lib/gcc/arm-none-eabi/4.6.2/../../../../arm-none-eabi/lib/thumb/libm.a(lib_a-wf_pow.o)
 .text          0x00000000       0xb0 /opt/paparazzi/arm-multilib/lib/gcc/arm-none-eabi/4.6.2/../../../../arm-none-eabi/lib/thumb/libm.a(lib_a-wf_sqrt.o)
 .data          0x00000000        0x0 /opt/paparazzi/arm-multilib/lib/gcc/arm-none-eabi/4.6.2/../../../../arm-none-eabi/lib/thumb/libm.a(lib_a-wf_sqrt.o)
 .bss           0x00000000        0x0 /opt/paparazzi/arm-multilib/lib/gcc/arm-none-eabi/4.6.2/../../../../arm-none-eabi/lib/thumb/libm.a(lib_a-wf_sqrt.o)
 .rodata.str1.1
                0x00000000        0x6 /opt/paparazzi/arm-multilib/lib/gcc/arm-none-eabi/4.6.2/../../../../arm-none-eabi/lib/thumb/libm.a(lib_a-wf_sqrt.o)
 .text          0x00000000      0x4f0 /opt/paparazzi/arm-multilib/lib/gcc/arm-none-eabi/4.6.2/../../../../arm-none-eabi/lib/thumb/libm.a(lib_a-e_acos.o)
 .data          0x00000000        0x0 /opt/paparazzi/arm-multilib/lib/gcc/arm-none-eabi/4.6.2/../../../../arm-none-eabi/lib/thumb/libm.a(lib_a-e_acos.o)
 .bss           0x00000000        0x0 /opt/paparazzi/arm-multilib/lib/gcc/arm-none-eabi/4.6.2/../../../../arm-none-eabi/lib/thumb/libm.a(lib_a-e_acos.o)
 .data          0x00000000        0x0 /opt/paparazzi/arm-multilib/lib/gcc/arm-none-eabi/4.6.2/../../../../arm-none-eabi/lib/thumb/libm.a(lib_a-e_asin.o)
 .bss           0x00000000        0x0 /opt/paparazzi/arm-multilib/lib/gcc/arm-none-eabi/4.6.2/../../../../arm-none-eabi/lib/thumb/libm.a(lib_a-e_asin.o)
 .data          0x00000000        0x0 /opt/paparazzi/arm-multilib/lib/gcc/arm-none-eabi/4.6.2/../../../../arm-none-eabi/lib/thumb/libm.a(lib_a-e_atan2.o)
 .bss           0x00000000        0x0 /opt/paparazzi/arm-multilib/lib/gcc/arm-none-eabi/4.6.2/../../../../arm-none-eabi/lib/thumb/libm.a(lib_a-e_atan2.o)
 .data          0x00000000        0x0 /opt/paparazzi/arm-multilib/lib/gcc/arm-none-eabi/4.6.2/../../../../arm-none-eabi/lib/thumb/libm.a(lib_a-e_cosh.o)
 .bss           0x00000000        0x0 /opt/paparazzi/arm-multilib/lib/gcc/arm-none-eabi/4.6.2/../../../../arm-none-eabi/lib/thumb/libm.a(lib_a-e_cosh.o)
 .data          0x00000000        0x0 /opt/paparazzi/arm-multilib/lib/gcc/arm-none-eabi/4.6.2/../../../../arm-none-eabi/lib/thumb/libm.a(lib_a-e_exp.o)
 .bss           0x00000000        0x0 /opt/paparazzi/arm-multilib/lib/gcc/arm-none-eabi/4.6.2/../../../../arm-none-eabi/lib/thumb/libm.a(lib_a-e_exp.o)
 .data          0x00000000        0x0 /opt/paparazzi/arm-multilib/lib/gcc/arm-none-eabi/4.6.2/../../../../arm-none-eabi/lib/thumb/libm.a(lib_a-e_log.o)
 .bss           0x00000000        0x0 /opt/paparazzi/arm-multilib/lib/gcc/arm-none-eabi/4.6.2/../../../../arm-none-eabi/lib/thumb/libm.a(lib_a-e_log.o)
 .text          0x00000000      0xab8 /opt/paparazzi/arm-multilib/lib/gcc/arm-none-eabi/4.6.2/../../../../arm-none-eabi/lib/thumb/libm.a(lib_a-e_pow.o)
 .data          0x00000000        0x0 /opt/paparazzi/arm-multilib/lib/gcc/arm-none-eabi/4.6.2/../../../../arm-none-eabi/lib/thumb/libm.a(lib_a-e_pow.o)
 .bss           0x00000000        0x0 /opt/paparazzi/arm-multilib/lib/gcc/arm-none-eabi/4.6.2/../../../../arm-none-eabi/lib/thumb/libm.a(lib_a-e_pow.o)
 .rodata        0x00000000       0x30 /opt/paparazzi/arm-multilib/lib/gcc/arm-none-eabi/4.6.2/../../../../arm-none-eabi/lib/thumb/libm.a(lib_a-e_pow.o)
 .rodata.str1.1
                0x00000000        0x1 /opt/paparazzi/arm-multilib/lib/gcc/arm-none-eabi/4.6.2/../../../../arm-none-eabi/lib/thumb/libm.a(lib_a-e_pow.o)
 .data          0x00000000        0x0 /opt/paparazzi/arm-multilib/lib/gcc/arm-none-eabi/4.6.2/../../../../arm-none-eabi/lib/thumb/libm.a(lib_a-e_rem_pio2.o)
 .bss           0x00000000        0x0 /opt/paparazzi/arm-multilib/lib/gcc/arm-none-eabi/4.6.2/../../../../arm-none-eabi/lib/thumb/libm.a(lib_a-e_rem_pio2.o)
 .data          0x00000000        0x0 /opt/paparazzi/arm-multilib/lib/gcc/arm-none-eabi/4.6.2/../../../../arm-none-eabi/lib/thumb/libm.a(lib_a-e_sinh.o)
 .bss           0x00000000        0x0 /opt/paparazzi/arm-multilib/lib/gcc/arm-none-eabi/4.6.2/../../../../arm-none-eabi/lib/thumb/libm.a(lib_a-e_sinh.o)
 .data          0x00000000        0x0 /opt/paparazzi/arm-multilib/lib/gcc/arm-none-eabi/4.6.2/../../../../arm-none-eabi/lib/thumb/libm.a(lib_a-e_sqrt.o)
 .bss           0x00000000        0x0 /opt/paparazzi/arm-multilib/lib/gcc/arm-none-eabi/4.6.2/../../../../arm-none-eabi/lib/thumb/libm.a(lib_a-e_sqrt.o)
 .data          0x00000000        0x0 /opt/paparazzi/arm-multilib/lib/gcc/arm-none-eabi/4.6.2/../../../../arm-none-eabi/lib/thumb/libm.a(lib_a-ef_atan2.o)
 .bss           0x00000000        0x0 /opt/paparazzi/arm-multilib/lib/gcc/arm-none-eabi/4.6.2/../../../../arm-none-eabi/lib/thumb/libm.a(lib_a-ef_atan2.o)
 .text          0x00000000      0x6fc /opt/paparazzi/arm-multilib/lib/gcc/arm-none-eabi/4.6.2/../../../../arm-none-eabi/lib/thumb/libm.a(lib_a-ef_pow.o)
 .data          0x00000000        0x0 /opt/paparazzi/arm-multilib/lib/gcc/arm-none-eabi/4.6.2/../../../../arm-none-eabi/lib/thumb/libm.a(lib_a-ef_pow.o)
 .bss           0x00000000        0x0 /opt/paparazzi/arm-multilib/lib/gcc/arm-none-eabi/4.6.2/../../../../arm-none-eabi/lib/thumb/libm.a(lib_a-ef_pow.o)
 .rodata        0x00000000       0x18 /opt/paparazzi/arm-multilib/lib/gcc/arm-none-eabi/4.6.2/../../../../arm-none-eabi/lib/thumb/libm.a(lib_a-ef_pow.o)
 .rodata.str1.1
                0x00000000        0x1 /opt/paparazzi/arm-multilib/lib/gcc/arm-none-eabi/4.6.2/../../../../arm-none-eabi/lib/thumb/libm.a(lib_a-ef_pow.o)
 .data          0x00000000        0x0 /opt/paparazzi/arm-multilib/lib/gcc/arm-none-eabi/4.6.2/../../../../arm-none-eabi/lib/thumb/libm.a(lib_a-ef_rem_pio2.o)
 .bss           0x00000000        0x0 /opt/paparazzi/arm-multilib/lib/gcc/arm-none-eabi/4.6.2/../../../../arm-none-eabi/lib/thumb/libm.a(lib_a-ef_rem_pio2.o)
 .text          0x00000000       0xb0 /opt/paparazzi/arm-multilib/lib/gcc/arm-none-eabi/4.6.2/../../../../arm-none-eabi/lib/thumb/libm.a(lib_a-ef_sqrt.o)
 .data          0x00000000        0x0 /opt/paparazzi/arm-multilib/lib/gcc/arm-none-eabi/4.6.2/../../../../arm-none-eabi/lib/thumb/libm.a(lib_a-ef_sqrt.o)
 .bss           0x00000000        0x0 /opt/paparazzi/arm-multilib/lib/gcc/arm-none-eabi/4.6.2/../../../../arm-none-eabi/lib/thumb/libm.a(lib_a-ef_sqrt.o)
 .data          0x00000000        0x0 /opt/paparazzi/arm-multilib/lib/gcc/arm-none-eabi/4.6.2/../../../../arm-none-eabi/lib/thumb/libm.a(lib_a-k_cos.o)
 .bss           0x00000000        0x0 /opt/paparazzi/arm-multilib/lib/gcc/arm-none-eabi/4.6.2/../../../../arm-none-eabi/lib/thumb/libm.a(lib_a-k_cos.o)
 .data          0x00000000        0x0 /opt/paparazzi/arm-multilib/lib/gcc/arm-none-eabi/4.6.2/../../../../arm-none-eabi/lib/thumb/libm.a(lib_a-k_rem_pio2.o)
 .bss           0x00000000        0x0 /opt/paparazzi/arm-multilib/lib/gcc/arm-none-eabi/4.6.2/../../../../arm-none-eabi/lib/thumb/libm.a(lib_a-k_rem_pio2.o)
 .data          0x00000000        0x0 /opt/paparazzi/arm-multilib/lib/gcc/arm-none-eabi/4.6.2/../../../../arm-none-eabi/lib/thumb/libm.a(lib_a-k_sin.o)
 .bss           0x00000000        0x0 /opt/paparazzi/arm-multilib/lib/gcc/arm-none-eabi/4.6.2/../../../../arm-none-eabi/lib/thumb/libm.a(lib_a-k_sin.o)
 .data          0x00000000        0x0 /opt/paparazzi/arm-multilib/lib/gcc/arm-none-eabi/4.6.2/../../../../arm-none-eabi/lib/thumb/libm.a(lib_a-k_tan.o)
 .bss           0x00000000        0x0 /opt/paparazzi/arm-multilib/lib/gcc/arm-none-eabi/4.6.2/../../../../arm-none-eabi/lib/thumb/libm.a(lib_a-k_tan.o)
 .data          0x00000000        0x0 /opt/paparazzi/arm-multilib/lib/gcc/arm-none-eabi/4.6.2/../../../../arm-none-eabi/lib/thumb/libm.a(lib_a-kf_cos.o)
 .bss           0x00000000        0x0 /opt/paparazzi/arm-multilib/lib/gcc/arm-none-eabi/4.6.2/../../../../arm-none-eabi/lib/thumb/libm.a(lib_a-kf_cos.o)
 .data          0x00000000        0x0 /opt/paparazzi/arm-multilib/lib/gcc/arm-none-eabi/4.6.2/../../../../arm-none-eabi/lib/thumb/libm.a(lib_a-kf_rem_pio2.o)
 .bss           0x00000000        0x0 /opt/paparazzi/arm-multilib/lib/gcc/arm-none-eabi/4.6.2/../../../../arm-none-eabi/lib/thumb/libm.a(lib_a-kf_rem_pio2.o)
 .data          0x00000000        0x0 /opt/paparazzi/arm-multilib/lib/gcc/arm-none-eabi/4.6.2/../../../../arm-none-eabi/lib/thumb/libm.a(lib_a-kf_sin.o)
 .bss           0x00000000        0x0 /opt/paparazzi/arm-multilib/lib/gcc/arm-none-eabi/4.6.2/../../../../arm-none-eabi/lib/thumb/libm.a(lib_a-kf_sin.o)
 .text          0x00000000      0x28c /opt/paparazzi/arm-multilib/lib/gcc/arm-none-eabi/4.6.2/../../../../arm-none-eabi/lib/thumb/libm.a(lib_a-kf_tan.o)
 .data          0x00000000        0x0 /opt/paparazzi/arm-multilib/lib/gcc/arm-none-eabi/4.6.2/../../../../arm-none-eabi/lib/thumb/libm.a(lib_a-kf_tan.o)
 .bss           0x00000000        0x0 /opt/paparazzi/arm-multilib/lib/gcc/arm-none-eabi/4.6.2/../../../../arm-none-eabi/lib/thumb/libm.a(lib_a-kf_tan.o)
 .data          0x00000000        0x0 /opt/paparazzi/arm-multilib/lib/gcc/arm-none-eabi/4.6.2/../../../../arm-none-eabi/lib/thumb/libm.a(lib_a-s_expm1.o)
 .bss           0x00000000        0x0 /opt/paparazzi/arm-multilib/lib/gcc/arm-none-eabi/4.6.2/../../../../arm-none-eabi/lib/thumb/libm.a(lib_a-s_expm1.o)
 .data          0x00000000        0x0 /opt/paparazzi/arm-multilib/lib/gcc/arm-none-eabi/4.6.2/../../../../arm-none-eabi/lib/thumb/libm.a(lib_a-s_finite.o)
 .bss           0x00000000        0x0 /opt/paparazzi/arm-multilib/lib/gcc/arm-none-eabi/4.6.2/../../../../arm-none-eabi/lib/thumb/libm.a(lib_a-s_finite.o)
 .data          0x00000000        0x0 /opt/paparazzi/arm-multilib/lib/gcc/arm-none-eabi/4.6.2/../../../../arm-none-eabi/lib/thumb/libm.a(lib_a-s_floor.o)
 .bss           0x00000000        0x0 /opt/paparazzi/arm-multilib/lib/gcc/arm-none-eabi/4.6.2/../../../../arm-none-eabi/lib/thumb/libm.a(lib_a-s_floor.o)
 .data          0x00000000        0x0 /opt/paparazzi/arm-multilib/lib/gcc/arm-none-eabi/4.6.2/../../../../arm-none-eabi/lib/thumb/libm.a(lib_a-s_fpclassify.o)
 .bss           0x00000000        0x0 /opt/paparazzi/arm-multilib/lib/gcc/arm-none-eabi/4.6.2/../../../../arm-none-eabi/lib/thumb/libm.a(lib_a-s_fpclassify.o)
 .text          0x00000000        0x0 /opt/paparazzi/arm-multilib/lib/gcc/arm-none-eabi/4.6.2/../../../../arm-none-eabi/lib/thumb/libm.a(lib_a-s_lib_ver.o)
 .bss           0x00000000        0x0 /opt/paparazzi/arm-multilib/lib/gcc/arm-none-eabi/4.6.2/../../../../arm-none-eabi/lib/thumb/libm.a(lib_a-s_lib_ver.o)
 .data          0x00000000        0x0 /opt/paparazzi/arm-multilib/lib/gcc/arm-none-eabi/4.6.2/../../../../arm-none-eabi/lib/thumb/libm.a(lib_a-s_matherr.o)
 .bss           0x00000000        0x0 /opt/paparazzi/arm-multilib/lib/gcc/arm-none-eabi/4.6.2/../../../../arm-none-eabi/lib/thumb/libm.a(lib_a-s_matherr.o)
 .data          0x00000000        0x0 /opt/paparazzi/arm-multilib/lib/gcc/arm-none-eabi/4.6.2/../../../../arm-none-eabi/lib/thumb/libm.a(lib_a-s_nan.o)
 .bss           0x00000000        0x0 /opt/paparazzi/arm-multilib/lib/gcc/arm-none-eabi/4.6.2/../../../../arm-none-eabi/lib/thumb/libm.a(lib_a-s_nan.o)
 .data          0x00000000        0x0 /opt/paparazzi/arm-multilib/lib/gcc/arm-none-eabi/4.6.2/../../../../arm-none-eabi/lib/thumb/libm.a(lib_a-s_scalbn.o)
 .bss           0x00000000        0x0 /opt/paparazzi/arm-multilib/lib/gcc/arm-none-eabi/4.6.2/../../../../arm-none-eabi/lib/thumb/libm.a(lib_a-s_scalbn.o)
 .text          0x00000000       0x14 /opt/paparazzi/arm-multilib/lib/gcc/arm-none-eabi/4.6.2/../../../../arm-none-eabi/lib/thumb/libm.a(lib_a-sf_finite.o)
 .data          0x00000000        0x0 /opt/paparazzi/arm-multilib/lib/gcc/arm-none-eabi/4.6.2/../../../../arm-none-eabi/lib/thumb/libm.a(lib_a-sf_finite.o)
 .bss           0x00000000        0x0 /opt/paparazzi/arm-multilib/lib/gcc/arm-none-eabi/4.6.2/../../../../arm-none-eabi/lib/thumb/libm.a(lib_a-sf_finite.o)
 .data          0x00000000        0x0 /opt/paparazzi/arm-multilib/lib/gcc/arm-none-eabi/4.6.2/../../../../arm-none-eabi/lib/thumb/libm.a(lib_a-sf_floor.o)
 .bss           0x00000000        0x0 /opt/paparazzi/arm-multilib/lib/gcc/arm-none-eabi/4.6.2/../../../../arm-none-eabi/lib/thumb/libm.a(lib_a-sf_floor.o)
 .text          0x00000000       0x88 /opt/paparazzi/arm-multilib/lib/gcc/arm-none-eabi/4.6.2/../../../../arm-none-eabi/lib/thumb/libm.a(lib_a-sf_fpclassify.o)
 .data          0x00000000        0x0 /opt/paparazzi/arm-multilib/lib/gcc/arm-none-eabi/4.6.2/../../../../arm-none-eabi/lib/thumb/libm.a(lib_a-sf_fpclassify.o)
 .bss           0x00000000        0x0 /opt/paparazzi/arm-multilib/lib/gcc/arm-none-eabi/4.6.2/../../../../arm-none-eabi/lib/thumb/libm.a(lib_a-sf_fpclassify.o)
 .text          0x00000000        0x8 /opt/paparazzi/arm-multilib/lib/gcc/arm-none-eabi/4.6.2/../../../../arm-none-eabi/lib/thumb/libm.a(lib_a-sf_nan.o)
 .data          0x00000000        0x0 /opt/paparazzi/arm-multilib/lib/gcc/arm-none-eabi/4.6.2/../../../../arm-none-eabi/lib/thumb/libm.a(lib_a-sf_nan.o)
 .bss           0x00000000        0x0 /opt/paparazzi/arm-multilib/lib/gcc/arm-none-eabi/4.6.2/../../../../arm-none-eabi/lib/thumb/libm.a(lib_a-sf_nan.o)
 .data          0x00000000        0x0 /opt/paparazzi/arm-multilib/lib/gcc/arm-none-eabi/4.6.2/../../../../arm-none-eabi/lib/thumb/libm.a(lib_a-sf_scalbn.o)
 .bss           0x00000000        0x0 /opt/paparazzi/arm-multilib/lib/gcc/arm-none-eabi/4.6.2/../../../../arm-none-eabi/lib/thumb/libm.a(lib_a-sf_scalbn.o)
 .data          0x00000000        0x0 /opt/paparazzi/arm-multilib/lib/gcc/arm-none-eabi/4.6.2/../../../../arm-none-eabi/lib/thumb/libm.a(lib_a-s_copysign.o)
 .bss           0x00000000        0x0 /opt/paparazzi/arm-multilib/lib/gcc/arm-none-eabi/4.6.2/../../../../arm-none-eabi/lib/thumb/libm.a(lib_a-s_copysign.o)
 .data          0x00000000        0x0 /opt/paparazzi/arm-multilib/lib/gcc/arm-none-eabi/4.6.2/../../../../arm-none-eabi/lib/thumb/libm.a(lib_a-sf_copysign.o)
 .bss           0x00000000        0x0 /opt/paparazzi/arm-multilib/lib/gcc/arm-none-eabi/4.6.2/../../../../arm-none-eabi/lib/thumb/libm.a(lib_a-sf_copysign.o)
 .data          0x00000000        0x0 /opt/paparazzi/arm-multilib/lib/gcc/arm-none-eabi/4.6.2/../../../../arm-none-eabi/lib/thumb/libc.a(lib_a-errno.o)
 .bss           0x00000000        0x0 /opt/paparazzi/arm-multilib/lib/gcc/arm-none-eabi/4.6.2/../../../../arm-none-eabi/lib/thumb/libc.a(lib_a-errno.o)
 .text          0x00000000        0x0 /opt/paparazzi/arm-multilib/lib/gcc/arm-none-eabi/4.6.2/../../../../arm-none-eabi/lib/thumb/libc.a(lib_a-impure.o)
 .bss           0x00000000        0x0 /opt/paparazzi/arm-multilib/lib/gcc/arm-none-eabi/4.6.2/../../../../arm-none-eabi/lib/thumb/libc.a(lib_a-impure.o)
 .rodata        0x00000000        0x4 /opt/paparazzi/arm-multilib/lib/gcc/arm-none-eabi/4.6.2/../../../../arm-none-eabi/lib/thumb/libc.a(lib_a-impure.o)
 .data          0x00000000        0x0 /opt/paparazzi/arm-multilib/lib/gcc/arm-none-eabi/4.6.2/thumb/libgcc.a(_thumb1_case_uqi.o)
 .bss           0x00000000        0x0 /opt/paparazzi/arm-multilib/lib/gcc/arm-none-eabi/4.6.2/thumb/libgcc.a(_thumb1_case_uqi.o)
 .data          0x00000000        0x0 /opt/paparazzi/arm-multilib/lib/gcc/arm-none-eabi/4.6.2/thumb/libgcc.a(_udivsi3.o)
 .bss           0x00000000        0x0 /opt/paparazzi/arm-multilib/lib/gcc/arm-none-eabi/4.6.2/thumb/libgcc.a(_udivsi3.o)
 .data          0x00000000        0x0 /opt/paparazzi/arm-multilib/lib/gcc/arm-none-eabi/4.6.2/thumb/libgcc.a(_divsi3.o)
 .bss           0x00000000        0x0 /opt/paparazzi/arm-multilib/lib/gcc/arm-none-eabi/4.6.2/thumb/libgcc.a(_divsi3.o)
 .data          0x00000000        0x0 /opt/paparazzi/arm-multilib/lib/gcc/arm-none-eabi/4.6.2/thumb/libgcc.a(_dvmd_tls.o)
 .bss           0x00000000        0x0 /opt/paparazzi/arm-multilib/lib/gcc/arm-none-eabi/4.6.2/thumb/libgcc.a(_dvmd_tls.o)
 .data          0x00000000        0x0 /opt/paparazzi/arm-multilib/lib/gcc/arm-none-eabi/4.6.2/thumb/libgcc.a(_arm_addsubdf3.o)
 .bss           0x00000000        0x0 /opt/paparazzi/arm-multilib/lib/gcc/arm-none-eabi/4.6.2/thumb/libgcc.a(_arm_addsubdf3.o)
 .data          0x00000000        0x0 /opt/paparazzi/arm-multilib/lib/gcc/arm-none-eabi/4.6.2/thumb/libgcc.a(_arm_muldivdf3.o)
 .bss           0x00000000        0x0 /opt/paparazzi/arm-multilib/lib/gcc/arm-none-eabi/4.6.2/thumb/libgcc.a(_arm_muldivdf3.o)
 .data          0x00000000        0x0 /opt/paparazzi/arm-multilib/lib/gcc/arm-none-eabi/4.6.2/thumb/libgcc.a(_arm_cmpdf2.o)
 .bss           0x00000000        0x0 /opt/paparazzi/arm-multilib/lib/gcc/arm-none-eabi/4.6.2/thumb/libgcc.a(_arm_cmpdf2.o)
 .data          0x00000000        0x0 /opt/paparazzi/arm-multilib/lib/gcc/arm-none-eabi/4.6.2/thumb/libgcc.a(_arm_fixdfsi.o)
 .bss           0x00000000        0x0 /opt/paparazzi/arm-multilib/lib/gcc/arm-none-eabi/4.6.2/thumb/libgcc.a(_arm_fixdfsi.o)
 .data          0x00000000        0x0 /opt/paparazzi/arm-multilib/lib/gcc/arm-none-eabi/4.6.2/thumb/libgcc.a(_arm_fixunsdfsi.o)
 .bss           0x00000000        0x0 /opt/paparazzi/arm-multilib/lib/gcc/arm-none-eabi/4.6.2/thumb/libgcc.a(_arm_fixunsdfsi.o)
 .data          0x00000000        0x0 /opt/paparazzi/arm-multilib/lib/gcc/arm-none-eabi/4.6.2/thumb/libgcc.a(_arm_truncdfsf2.o)
 .bss           0x00000000        0x0 /opt/paparazzi/arm-multilib/lib/gcc/arm-none-eabi/4.6.2/thumb/libgcc.a(_arm_truncdfsf2.o)
 .data          0x00000000        0x0 /opt/paparazzi/arm-multilib/lib/gcc/arm-none-eabi/4.6.2/thumb/libgcc.a(_arm_addsubsf3.o)
 .bss           0x00000000        0x0 /opt/paparazzi/arm-multilib/lib/gcc/arm-none-eabi/4.6.2/thumb/libgcc.a(_arm_addsubsf3.o)
 .data          0x00000000        0x0 /opt/paparazzi/arm-multilib/lib/gcc/arm-none-eabi/4.6.2/thumb/libgcc.a(_arm_muldivsf3.o)
 .bss           0x00000000        0x0 /opt/paparazzi/arm-multilib/lib/gcc/arm-none-eabi/4.6.2/thumb/libgcc.a(_arm_muldivsf3.o)
 .data          0x00000000        0x0 /opt/paparazzi/arm-multilib/lib/gcc/arm-none-eabi/4.6.2/thumb/libgcc.a(_arm_cmpsf2.o)
 .bss           0x00000000        0x0 /opt/paparazzi/arm-multilib/lib/gcc/arm-none-eabi/4.6.2/thumb/libgcc.a(_arm_cmpsf2.o)
 .data          0x00000000        0x0 /opt/paparazzi/arm-multilib/lib/gcc/arm-none-eabi/4.6.2/thumb/libgcc.a(_arm_fixsfsi.o)
 .bss           0x00000000        0x0 /opt/paparazzi/arm-multilib/lib/gcc/arm-none-eabi/4.6.2/thumb/libgcc.a(_arm_fixsfsi.o)
 .data          0x00000000        0x0 /opt/paparazzi/arm-multilib/lib/gcc/arm-none-eabi/4.6.2/thumb/libgcc.a(_arm_fixunssfsi.o)
 .bss           0x00000000        0x0 /opt/paparazzi/arm-multilib/lib/gcc/arm-none-eabi/4.6.2/thumb/libgcc.a(_arm_fixunssfsi.o)

Memory Configuration

Name             Origin             Length             Attributes
ROM              0x00004000         0x00078000         xr
RAM              0x40000000         0x00007fe0         rw
*default*        0x00000000         0xffffffff

Linker script and memory map

LOAD /home/lionel/paparazziProto1/var/Colibri/ap/crt0.o
LOAD /home/lionel/paparazziProto1/var/Colibri/ap/mcu.o
LOAD /home/lionel/paparazziProto1/var/Colibri/ap/arch/lpc21/mcu_arch.o
LOAD /home/lionel/paparazziProto1/var/Colibri/ap/mcu_periph/sys_time.o
LOAD /home/lionel/paparazziProto1/var/Colibri/ap/arch/lpc21/mcu_periph/sys_time_arch.o
LOAD /home/lionel/paparazziProto1/var/Colibri/ap/./inter_mcu.o
LOAD /home/lionel/paparazziProto1/var/Colibri/ap/math/pprz_geodetic_int.o
LOAD /home/lionel/paparazziProto1/var/Colibri/ap/math/pprz_geodetic_float.o
LOAD /home/lionel/paparazziProto1/var/Colibri/ap/math/pprz_geodetic_double.o
LOAD /home/lionel/paparazziProto1/var/Colibri/ap/math/pprz_trig_int.o
LOAD /home/lionel/paparazziProto1/var/Colibri/ap/mcu_periph/i2c.o
LOAD /home/lionel/paparazziProto1/var/Colibri/ap/arch/lpc21/mcu_periph/i2c_arch.o
LOAD /home/lionel/paparazziProto1/var/Colibri/ap/firmwares/fixedwing/main_fbw.o
LOAD /home/lionel/paparazziProto1/var/Colibri/ap/subsystems/electrical.o
LOAD /home/lionel/paparazziProto1/var/Colibri/ap/./commands.o
LOAD /home/lionel/paparazziProto1/var/Colibri/ap/firmwares/fixedwing/fbw_downlink.o
LOAD /home/lionel/paparazziProto1/var/Colibri/ap/firmwares/fixedwing/main_ap.o
LOAD /home/lionel/paparazziProto1/var/Colibri/ap/./estimator.o
LOAD /home/lionel/paparazziProto1/var/Colibri/ap/firmwares/fixedwing/ap_downlink.o
LOAD /home/lionel/paparazziProto1/var/Colibri/ap/arch/lpc21/armVIC.o
LOAD /home/lionel/paparazziProto1/var/Colibri/ap/firmwares/fixedwing/main.o
LOAD /home/lionel/paparazziProto1/var/Colibri/ap/mcu_periph/uart.o
LOAD /home/lionel/paparazziProto1/var/Colibri/ap/arch/lpc21/mcu_periph/uart_arch.o
LOAD /home/lionel/paparazziProto1/var/Colibri/ap/subsystems/settings.o
LOAD /home/lionel/paparazziProto1/var/Colibri/ap/arch/lpc21/subsystems/settings_arch.o
LOAD /home/lionel/paparazziProto1/var/Colibri/ap/arch/lpc21/mcu_periph/adc_arch.o
LOAD /home/lionel/paparazziProto1/var/Colibri/ap/arch/lpc21/servos_4017_hw.o
LOAD /home/lionel/paparazziProto1/var/Colibri/ap/actuators.o
LOAD /home/lionel/paparazziProto1/var/Colibri/ap/subsystems/radio_control.o
LOAD /home/lionel/paparazziProto1/var/Colibri/ap/subsystems/radio_control/rc_datalink.o
LOAD /home/lionel/paparazziProto1/var/Colibri/ap/firmwares/fixedwing/stabilization/stabilization_attitude.o
LOAD /home/lionel/paparazziProto1/var/Colibri/ap/firmwares/fixedwing/guidance/guidance_v.o
LOAD /home/lionel/paparazziProto1/var/Colibri/ap/subsystems/nav.o
LOAD /home/lionel/paparazziProto1/var/Colibri/ap/subsystems/navigation/common_flight_plan.o
LOAD /home/lionel/paparazziProto1/var/Colibri/ap/subsystems/navigation/traffic_info.o
LOAD /home/lionel/paparazziProto1/var/Colibri/ap/subsystems/navigation/nav_survey_rectangle.o
LOAD /home/lionel/paparazziProto1/var/Colibri/ap/subsystems/navigation/nav_line.o
LOAD /home/lionel/paparazziProto1/var/Colibri/ap/subsystems/navigation/nav_cube.o
LOAD /home/lionel/paparazziProto1/var/Colibri/ap/subsystems/navigation/discsurvey.o
LOAD /home/lionel/paparazziProto1/var/Colibri/ap/subsystems/navigation/OSAMNav.o
LOAD /home/lionel/paparazziProto1/var/Colibri/ap/subsystems/navigation/snav.o
LOAD /home/lionel/paparazziProto1/var/Colibri/ap/subsystems/navigation/spiral.o
LOAD /home/lionel/paparazziProto1/var/Colibri/ap/subsystems/navigation/poly_survey_adv.o
LOAD /home/lionel/paparazziProto1/var/Colibri/ap/subsystems/navigation/gls.o
LOAD /home/lionel/paparazziProto1/var/Colibri/ap/subsystems/navigation/border_line.o
LOAD /home/lionel/paparazziProto1/var/Colibri/ap/subsystems/datalink/downlink.o
LOAD /home/lionel/paparazziProto1/var/Colibri/ap/subsystems/datalink/pprz_transport.o
LOAD /home/lionel/paparazziProto1/var/Colibri/ap/firmwares/fixedwing/datalink.o
LOAD /home/lionel/paparazziProto1/var/Colibri/ap/subsystems/ahrs.o
LOAD /home/lionel/paparazziProto1/var/Colibri/ap/subsystems/ahrs/ahrs_infrared.o
LOAD /home/lionel/paparazziProto1/var/Colibri/ap/subsystems/gps/gps_ubx.o
LOAD /home/lionel/paparazziProto1/var/Colibri/ap/subsystems/gps.o
LOAD /home/lionel/paparazziProto1/var/Colibri/ap/subsystems/sensors/infrared.o
LOAD /home/lionel/paparazziProto1/var/Colibri/ap/subsystems/sensors/infrared_adc.o
LOAD /opt/paparazzi/arm-multilib/lib/gcc/arm-none-eabi/4.6.2/../../../../arm-none-eabi/lib/thumb/libc.a
LOAD /opt/paparazzi/arm-multilib/lib/gcc/arm-none-eabi/4.6.2/../../../../arm-none-eabi/lib/thumb/libm.a
LOAD /opt/paparazzi/arm-multilib/lib/gcc/arm-none-eabi/4.6.2/../../../../arm-none-eabi/lib/thumb/libc.a
LOAD /opt/paparazzi/arm-multilib/lib/gcc/arm-none-eabi/4.6.2/thumb/libgcc.a
START GROUP
LOAD /opt/paparazzi/arm-multilib/lib/gcc/arm-none-eabi/4.6.2/thumb/libgcc.a
LOAD /opt/paparazzi/arm-multilib/lib/gcc/arm-none-eabi/4.6.2/../../../../arm-none-eabi/lib/thumb/libc.a
END GROUP
                0x00001000                STACK_SIZE = 0x1000

.text           0x00004000    0x19890
 *(.init)
 .init          0x00004000      0x13c /home/lionel/paparazziProto1/var/Colibri/ap/crt0.o
                0x00004000                _boot
                0x00004050                _mainCRTStartup
                0x00004050                _start
                0x00004050                start
                0x00004114                reset
                0x00004114                abort
                0x00004114                _reset
                0x00004114                exit
 *(.text .text.*)
 .text.mcu_init
                0x0000413c       0xa0 /home/lionel/paparazziProto1/var/Colibri/ap/mcu.o
                0x0000413c                mcu_init
 .text.mcu_arch_init
                0x000041dc       0x8c /home/lionel/paparazziProto1/var/Colibri/ap/arch/lpc21/mcu_arch.o
                0x000041dc                mcu_arch_init
 .text.sys_time_register_timer
                0x00004268       0x98 /home/lionel/paparazziProto1/var/Colibri/ap/mcu_periph/sys_time.o
                0x00004268                sys_time_register_timer
 .text.sys_time_init
                0x00004300       0x60 /home/lionel/paparazziProto1/var/Colibri/ap/mcu_periph/sys_time.o
                0x00004300                sys_time_init
 .text.TIMER0_ISR
                0x00004360      0x1c0 /home/lionel/paparazziProto1/var/Colibri/ap/arch/lpc21/mcu_periph/sys_time_arch.o
                0x00004360                TIMER0_ISR
 .text.sys_time_arch_init
                0x00004520       0x68 /home/lionel/paparazziProto1/var/Colibri/ap/arch/lpc21/mcu_periph/sys_time_arch.o
                0x00004520                sys_time_arch_init
 .text.isometric_latitude_fast_f
                0x00004588       0x40 /home/lionel/paparazziProto1/var/Colibri/ap/math/pprz_geodetic_float.o
 .text.utm_of_lla_f
                0x000045c8      0x380 /home/lionel/paparazziProto1/var/Colibri/ap/math/pprz_geodetic_float.o
                0x000045c8                utm_of_lla_f
 .text.i2c_event
                0x00004948        0x4 /home/lionel/paparazziProto1/var/Colibri/ap/arch/lpc21/mcu_periph/i2c_arch.o
                0x00004948                i2c_event
 .text.inter_mcu_fill_fbw_state
                0x0000494c       0xc8 /home/lionel/paparazziProto1/var/Colibri/ap/firmwares/fixedwing/main_fbw.o
 .text.init_fbw
                0x00004a14      0x108 /home/lionel/paparazziProto1/var/Colibri/ap/firmwares/fixedwing/main_fbw.o
                0x00004a14                init_fbw
 .text.event_task_fbw
                0x00004b1c      0x6ac /home/lionel/paparazziProto1/var/Colibri/ap/firmwares/fixedwing/main_fbw.o
                0x00004b1c                event_task_fbw
 .text.periodic_task_fbw
                0x000051c8      0xe40 /home/lionel/paparazziProto1/var/Colibri/ap/firmwares/fixedwing/main_fbw.o
                0x000051c8                periodic_task_fbw
 .text.handle_periodic_tasks_fbw
                0x00006008       0x70 /home/lionel/paparazziProto1/var/Colibri/ap/firmwares/fixedwing/main_fbw.o
                0x00006008                handle_periodic_tasks_fbw
 .text.electrical_init
                0x00006078       0x38 /home/lionel/paparazziProto1/var/Colibri/ap/subsystems/electrical.o
                0x00006078                electrical_init
 .text.electrical_periodic
                0x000060b0       0x7c /home/lionel/paparazziProto1/var/Colibri/ap/subsystems/electrical.o
                0x000060b0                electrical_periodic
 .text.init_ap  0x0000612c      0x100 /home/lionel/paparazziProto1/var/Colibri/ap/firmwares/fixedwing/main_ap.o
                0x0000612c                init_ap
 .text.reporting_task
                0x0000622c     0xa0cc /home/lionel/paparazziProto1/var/Colibri/ap/firmwares/fixedwing/main_ap.o
                0x0000622c                reporting_task
 .text.navigation_task
                0x000102f8      0x51c /home/lionel/paparazziProto1/var/Colibri/ap/firmwares/fixedwing/main_ap.o
                0x000102f8                navigation_task
 .text.attitude_loop
                0x00010814      0x1d8 /home/lionel/paparazziProto1/var/Colibri/ap/firmwares/fixedwing/main_ap.o
                0x00010814                attitude_loop
 .text.monitor_task
                0x000109ec      0x24c /home/lionel/paparazziProto1/var/Colibri/ap/firmwares/fixedwing/main_ap.o
                0x000109ec                monitor_task
 .text.handle_periodic_tasks_ap
                0x00010c38      0x154 /home/lionel/paparazziProto1/var/Colibri/ap/firmwares/fixedwing/main_ap.o
                0x00010c38                handle_periodic_tasks_ap
 .text.event_task_ap
                0x00010d8c      0x6d0 /home/lionel/paparazziProto1/var/Colibri/ap/firmwares/fixedwing/main_ap.o
                0x00010d8c                event_task_ap
 .text.alt_kalman_reset
                0x0001145c       0x24 /home/lionel/paparazziProto1/var/Colibri/ap/./estimator.o
                0x0001145c                alt_kalman_reset
 .text.alt_kalman_init
                0x00011480       0x14 /home/lionel/paparazziProto1/var/Colibri/ap/./estimator.o
                0x00011480                alt_kalman_init
 .text.alt_kalman
                0x00011494      0x1fc /home/lionel/paparazziProto1/var/Colibri/ap/./estimator.o
                0x00011494                alt_kalman
 .text.estimator_init
                0x00011690       0xec /home/lionel/paparazziProto1/var/Colibri/ap/./estimator.o
                0x00011690                estimator_init
 .text.estimator_update_state_gps
                0x0001177c      0x168 /home/lionel/paparazziProto1/var/Colibri/ap/./estimator.o
                0x0001177c                estimator_update_state_gps
 .text.disableIRQ
                0x000118e4       0x10 /home/lionel/paparazziProto1/var/Colibri/ap/arch/lpc21/armVIC.o
                0x000118e4                disableIRQ
 .text.restoreIRQ
                0x000118f4       0x1c /home/lionel/paparazziProto1/var/Colibri/ap/arch/lpc21/armVIC.o
                0x000118f4                restoreIRQ
 .text.enableIRQ
                0x00011910       0x10 /home/lionel/paparazziProto1/var/Colibri/ap/arch/lpc21/armVIC.o
                0x00011910                enableIRQ
 .text.startup.main
                0x00011920       0x20 /home/lionel/paparazziProto1/var/Colibri/ap/firmwares/fixedwing/main.o
                0x00011920                main
 .text.uart_periph_init
                0x00011940       0x24 /home/lionel/paparazziProto1/var/Colibri/ap/mcu_periph/uart.o
                0x00011940                uart_periph_init
 .text.uart_check_free_space
                0x00011964       0x50 /home/lionel/paparazziProto1/var/Colibri/ap/mcu_periph/uart.o
                0x00011964                uart_check_free_space
 .text.uart_disable_interrupts
                0x000119b4       0x20 /home/lionel/paparazziProto1/var/Colibri/ap/arch/lpc21/mcu_periph/uart_arch.o
 .text.uart_set_baudrate
                0x000119d4       0x44 /home/lionel/paparazziProto1/var/Colibri/ap/arch/lpc21/mcu_periph/uart_arch.o
 .text.uart_ISR
                0x00011a18       0xfc /home/lionel/paparazziProto1/var/Colibri/ap/arch/lpc21/mcu_periph/uart_arch.o
 .text.uart0_ISR
                0x00011b14       0x34 /home/lionel/paparazziProto1/var/Colibri/ap/arch/lpc21/mcu_periph/uart_arch.o
                0x00011b14                uart0_ISR
 .text.uart1_ISR
                0x00011b48       0x34 /home/lionel/paparazziProto1/var/Colibri/ap/arch/lpc21/mcu_periph/uart_arch.o
                0x00011b48                uart1_ISR
 .text.uart_transmit
                0x00011b7c       0x90 /home/lionel/paparazziProto1/var/Colibri/ap/arch/lpc21/mcu_periph/uart_arch.o
                0x00011b7c                uart_transmit
 .text.uart0_init
                0x00011c0c       0x88 /home/lionel/paparazziProto1/var/Colibri/ap/arch/lpc21/mcu_periph/uart_arch.o
                0x00011c0c                uart0_init
 .text.uart1_init
                0x00011c94       0x88 /home/lionel/paparazziProto1/var/Colibri/ap/arch/lpc21/mcu_periph/uart_arch.o
                0x00011c94                uart1_init
 .text.settings_init
                0x00011d1c        0x4 /home/lionel/paparazziProto1/var/Colibri/ap/subsystems/settings.o
                0x00011d1c                settings_init
 .text.adcISR0  0x00011d20       0xa0 /home/lionel/paparazziProto1/var/Colibri/ap/arch/lpc21/mcu_periph/adc_arch.o
                0x00011d20                adcISR0
 .text.adcISR1  0x00011dc0       0xa4 /home/lionel/paparazziProto1/var/Colibri/ap/arch/lpc21/mcu_periph/adc_arch.o
                0x00011dc0                adcISR1
 .text.adc_buf_channel
                0x00011e64       0x14 /home/lionel/paparazziProto1/var/Colibri/ap/arch/lpc21/mcu_periph/adc_arch.o
                0x00011e64                adc_buf_channel
 .text.adc_init
                0x00011e78       0xa0 /home/lionel/paparazziProto1/var/Colibri/ap/arch/lpc21/mcu_periph/adc_arch.o
                0x00011e78                adc_init
 .text.actuators_init
                0x00011f18       0xb4 /home/lionel/paparazziProto1/var/Colibri/ap/arch/lpc21/servos_4017_hw.o
                0x00011f18                actuators_init
 .text.radio_control_impl_init
                0x00011fcc       0x14 /home/lionel/paparazziProto1/var/Colibri/ap/subsystems/radio_control/rc_datalink.o
                0x00011fcc                radio_control_impl_init
 .text.parse_rc_3ch_datalink
                0x00011fe0       0x40 /home/lionel/paparazziProto1/var/Colibri/ap/subsystems/radio_control/rc_datalink.o
                0x00011fe0                parse_rc_3ch_datalink
 .text.parse_rc_4ch_datalink
                0x00012020       0x34 /home/lionel/paparazziProto1/var/Colibri/ap/subsystems/radio_control/rc_datalink.o
                0x00012020                parse_rc_4ch_datalink
 .text.h_ctl_init
                0x00012054      0x13c /home/lionel/paparazziProto1/var/Colibri/ap/firmwares/fixedwing/stabilization/stabilization_attitude.o
                0x00012054                h_ctl_init
 .text.h_ctl_course_loop
                0x00012190      0x468 /home/lionel/paparazziProto1/var/Colibri/ap/firmwares/fixedwing/stabilization/stabilization_attitude.o
                0x00012190                h_ctl_course_loop
 .text.h_ctl_attitude_loop
                0x000125f8      0x390 /home/lionel/paparazziProto1/var/Colibri/ap/firmwares/fixedwing/stabilization/stabilization_attitude.o
                0x000125f8                h_ctl_attitude_loop
 .text.v_ctl_init
                0x00012988      0x148 /home/lionel/paparazziProto1/var/Colibri/ap/firmwares/fixedwing/guidance/guidance_v.o
                0x00012988                v_ctl_init
 .text.v_ctl_altitude_loop
                0x00012ad0      0x118 /home/lionel/paparazziProto1/var/Colibri/ap/firmwares/fixedwing/guidance/guidance_v.o
                0x00012ad0                v_ctl_altitude_loop
 .text.v_ctl_climb_loop
                0x00012be8      0x38c /home/lionel/paparazziProto1/var/Colibri/ap/firmwares/fixedwing/guidance/guidance_v.o
                0x00012be8                v_ctl_climb_loop
 .text.v_ctl_throttle_slew
                0x00012f74       0x8c /home/lionel/paparazziProto1/var/Colibri/ap/firmwares/fixedwing/guidance/guidance_v.o
                0x00012f74                v_ctl_throttle_slew
 .text.nav_set_altitude
                0x00013000       0x5c /home/lionel/paparazziProto1/var/Colibri/ap/subsystems/nav.o
 .text.nav_init_stage
                0x0001305c       0x84 /home/lionel/paparazziProto1/var/Colibri/ap/subsystems/nav.o
                0x0001305c                nav_init_stage
 .text.nav_approaching_xy
                0x000130e0      0x104 /home/lionel/paparazziProto1/var/Colibri/ap/subsystems/nav.o
                0x000130e0                nav_approaching_xy
 .text.fly_to_xy
                0x000131e4      0x2d4 /home/lionel/paparazziProto1/var/Colibri/ap/subsystems/nav.o
                0x000131e4                fly_to_xy
 .text.nav_circle_XY
                0x000134b8      0x4a0 /home/lionel/paparazziProto1/var/Colibri/ap/subsystems/nav.o
                0x000134b8                nav_circle_XY
 .text.nav_route_xy
                0x00013958      0x22c /home/lionel/paparazziProto1/var/Colibri/ap/subsystems/nav.o
                0x00013958                nav_route_xy
 .text.compute_dist2_to_home
                0x00013b84       0x9c /home/lionel/paparazziProto1/var/Colibri/ap/subsystems/nav.o
                0x00013b84                compute_dist2_to_home
 .text.nav_reset_reference
                0x00013c20      0x134 /home/lionel/paparazziProto1/var/Colibri/ap/subsystems/nav.o
                0x00013c20                nav_reset_reference
 .text.nav_update_waypoints_alt
                0x00013d54       0x58 /home/lionel/paparazziProto1/var/Colibri/ap/subsystems/nav.o
                0x00013d54                nav_update_waypoints_alt
 .text.common_nav_periodic_task_4Hz
                0x00013dac       0x58 /home/lionel/paparazziProto1/var/Colibri/ap/subsystems/nav.o
                0x00013dac                common_nav_periodic_task_4Hz
 .text.nav_move_waypoint
                0x00013e04      0x11c /home/lionel/paparazziProto1/var/Colibri/ap/subsystems/nav.o
                0x00013e04                nav_move_waypoint
 .text.nav_home
                0x00013f20       0x88 /home/lionel/paparazziProto1/var/Colibri/ap/subsystems/nav.o
                0x00013f20                nav_home
 .text.nav_init
                0x00013fa8       0x74 /home/lionel/paparazziProto1/var/Colibri/ap/subsystems/nav.o
                0x00013fa8                nav_init
 .text.nav_without_gps
                0x0001401c       0x50 /home/lionel/paparazziProto1/var/Colibri/ap/subsystems/nav.o
                0x0001401c                nav_without_gps
 .text.nav_eight
                0x0001406c      0x7d4 /home/lionel/paparazziProto1/var/Colibri/ap/subsystems/nav.o
                0x0001406c                nav_eight
 .text.nav_oval_init
                0x00014840       0x24 /home/lionel/paparazziProto1/var/Colibri/ap/subsystems/nav.o
                0x00014840                nav_oval_init
 .text.nav_oval
                0x00014864      0x6f4 /home/lionel/paparazziProto1/var/Colibri/ap/subsystems/nav.o
                0x00014864                nav_oval
 .text.nav_periodic_task
                0x00014f58      0x764 /home/lionel/paparazziProto1/var/Colibri/ap/subsystems/nav.o
                0x00014f58                nav_periodic_task
 .text.nav_init_block
                0x000156bc       0x44 /home/lionel/paparazziProto1/var/Colibri/ap/subsystems/navigation/common_flight_plan.o
                0x000156bc                nav_init_block
 .text.nav_goto_block
                0x00015700       0x40 /home/lionel/paparazziProto1/var/Colibri/ap/subsystems/navigation/common_flight_plan.o
                0x00015700                nav_goto_block
 .text.traffic_info_init
                0x00015740       0x38 /home/lionel/paparazziProto1/var/Colibri/ap/subsystems/navigation/traffic_info.o
                0x00015740                traffic_info_init
 .text.dl_parse_msg
                0x00015778     0x1368 /home/lionel/paparazziProto1/var/Colibri/ap/firmwares/fixedwing/datalink.o
                0x00015778                dl_parse_msg
 .text.ahrs_init
                0x00016ae0       0xbc /home/lionel/paparazziProto1/var/Colibri/ap/subsystems/ahrs/ahrs_infrared.o
                0x00016ae0                ahrs_init
 .text.ahrs_update_fw_estimator
                0x00016b9c       0x6c /home/lionel/paparazziProto1/var/Colibri/ap/subsystems/ahrs/ahrs_infrared.o
                0x00016b9c                ahrs_update_fw_estimator
 .text.ahrs_update_infrared
                0x00016c08      0x1a0 /home/lionel/paparazziProto1/var/Colibri/ap/subsystems/ahrs/ahrs_infrared.o
                0x00016c08                ahrs_update_infrared
 .text.ahrs_update_gps
                0x00016da8       0xec /home/lionel/paparazziProto1/var/Colibri/ap/subsystems/ahrs/ahrs_infrared.o
                0x00016da8                ahrs_update_gps
 .text.gps_impl_init
                0x00016e94       0x24 /home/lionel/paparazziProto1/var/Colibri/ap/subsystems/gps/gps_ubx.o
                0x00016e94                gps_impl_init
 .text.gps_ubx_read_message
                0x00016eb8      0x534 /home/lionel/paparazziProto1/var/Colibri/ap/subsystems/gps/gps_ubx.o
                0x00016eb8                gps_ubx_read_message
 .text.gps_ubx_parse
                0x000173ec      0x1a4 /home/lionel/paparazziProto1/var/Colibri/ap/subsystems/gps/gps_ubx.o
                0x000173ec                gps_ubx_parse
 .text.gps_init
                0x00017590       0x34 /home/lionel/paparazziProto1/var/Colibri/ap/subsystems/gps.o
                0x00017590                gps_init
 .text.infrared_struct_init
                0x000175c4       0x48 /home/lionel/paparazziProto1/var/Colibri/ap/subsystems/sensors/infrared.o
                0x000175c4                infrared_struct_init
 .text.infrared_adc_init
                0x0001760c       0x4c /home/lionel/paparazziProto1/var/Colibri/ap/subsystems/sensors/infrared_adc.o
                0x0001760c                infrared_adc_init
 .text.infrared_adc_update
                0x00017658       0xf0 /home/lionel/paparazziProto1/var/Colibri/ap/subsystems/sensors/infrared_adc.o
                0x00017658                infrared_adc_update
 .text          0x00017748      0x348 /opt/paparazzi/arm-multilib/lib/gcc/arm-none-eabi/4.6.2/../../../../arm-none-eabi/lib/thumb/libm.a(lib_a-s_atan.o)
                0x00017748                atan
 .text          0x00017a90       0x88 /opt/paparazzi/arm-multilib/lib/gcc/arm-none-eabi/4.6.2/../../../../arm-none-eabi/lib/thumb/libm.a(lib_a-s_cos.o)
                0x00017a90                cos
 .text          0x00017b18        0x6 /opt/paparazzi/arm-multilib/lib/gcc/arm-none-eabi/4.6.2/../../../../arm-none-eabi/lib/thumb/libm.a(lib_a-s_fabs.o)
                0x00017b18                fabs
 *fill*         0x00017b1e        0x2 00
 .text          0x00017b20       0x88 /opt/paparazzi/arm-multilib/lib/gcc/arm-none-eabi/4.6.2/../../../../arm-none-eabi/lib/thumb/libm.a(lib_a-s_sin.o)
                0x00017b20                sin
 .text          0x00017ba8       0x60 /opt/paparazzi/arm-multilib/lib/gcc/arm-none-eabi/4.6.2/../../../../arm-none-eabi/lib/thumb/libm.a(lib_a-s_tan.o)
                0x00017ba8                tan
 .text          0x00017c08      0x244 /opt/paparazzi/arm-multilib/lib/gcc/arm-none-eabi/4.6.2/../../../../arm-none-eabi/lib/thumb/libm.a(lib_a-sf_atan.o)
                0x00017c08                atanf
 .text          0x00017e4c       0x68 /opt/paparazzi/arm-multilib/lib/gcc/arm-none-eabi/4.6.2/../../../../arm-none-eabi/lib/thumb/libm.a(lib_a-sf_cos.o)
                0x00017e4c                cosf
 .text          0x00017eb4        0x6 /opt/paparazzi/arm-multilib/lib/gcc/arm-none-eabi/4.6.2/../../../../arm-none-eabi/lib/thumb/libm.a(lib_a-sf_fabs.o)
                0x00017eb4                fabsf
 *fill*         0x00017eba        0x2 00
 .text          0x00017ebc       0x68 /opt/paparazzi/arm-multilib/lib/gcc/arm-none-eabi/4.6.2/../../../../arm-none-eabi/lib/thumb/libm.a(lib_a-sf_sin.o)
                0x00017ebc                sinf
 *fill*         0x00017f24        0x4 00
 .text          0x00017f28       0xb0 /opt/paparazzi/arm-multilib/lib/gcc/arm-none-eabi/4.6.2/../../../../arm-none-eabi/lib/thumb/libm.a(lib_a-w_asin.o)
                0x00017f28                asin
 .text          0x00017fd8        0xc /opt/paparazzi/arm-multilib/lib/gcc/arm-none-eabi/4.6.2/../../../../arm-none-eabi/lib/thumb/libm.a(lib_a-w_atan2.o)
                0x00017fd8                atan2
 *fill*         0x00017fe4        0x4 00
 .text          0x00017fe8       0xc0 /opt/paparazzi/arm-multilib/lib/gcc/arm-none-eabi/4.6.2/../../../../arm-none-eabi/lib/thumb/libm.a(lib_a-w_cosh.o)
                0x00017fe8                cosh
 .text          0x000180a8      0x100 /opt/paparazzi/arm-multilib/lib/gcc/arm-none-eabi/4.6.2/../../../../arm-none-eabi/lib/thumb/libm.a(lib_a-w_exp.o)
                0x000180a8                exp
 .text          0x000181a8       0xf8 /opt/paparazzi/arm-multilib/lib/gcc/arm-none-eabi/4.6.2/../../../../arm-none-eabi/lib/thumb/libm.a(lib_a-w_log.o)
                0x000181a8                log
 .text          0x000182a0       0xe8 /opt/paparazzi/arm-multilib/lib/gcc/arm-none-eabi/4.6.2/../../../../arm-none-eabi/lib/thumb/libm.a(lib_a-w_sinh.o)
                0x000182a0                sinh
 .text          0x00018388       0xb8 /opt/paparazzi/arm-multilib/lib/gcc/arm-none-eabi/4.6.2/../../../../arm-none-eabi/lib/thumb/libm.a(lib_a-w_sqrt.o)
                0x00018388                sqrt
 .text          0x00018440        0xc /opt/paparazzi/arm-multilib/lib/gcc/arm-none-eabi/4.6.2/../../../../arm-none-eabi/lib/thumb/libm.a(lib_a-wf_atan2.o)
                0x00018440                atan2f
 *fill*         0x0001844c        0x4 00
 .text          0x00018450      0x428 /opt/paparazzi/arm-multilib/lib/gcc/arm-none-eabi/4.6.2/../../../../arm-none-eabi/lib/thumb/libm.a(lib_a-e_asin.o)
                0x00018450                __ieee754_asin
 .text          0x00018878      0x1e0 /opt/paparazzi/arm-multilib/lib/gcc/arm-none-eabi/4.6.2/../../../../arm-none-eabi/lib/thumb/libm.a(lib_a-e_atan2.o)
                0x00018878                __ieee754_atan2
 .text          0x00018a58      0x140 /opt/paparazzi/arm-multilib/lib/gcc/arm-none-eabi/4.6.2/../../../../arm-none-eabi/lib/thumb/libm.a(lib_a-e_cosh.o)
                0x00018a58                __ieee754_cosh
 .text          0x00018b98      0x2e8 /opt/paparazzi/arm-multilib/lib/gcc/arm-none-eabi/4.6.2/../../../../arm-none-eabi/lib/thumb/libm.a(lib_a-e_exp.o)
                0x00018b98                __ieee754_exp
 .text          0x00018e80      0x410 /opt/paparazzi/arm-multilib/lib/gcc/arm-none-eabi/4.6.2/../../../../arm-none-eabi/lib/thumb/libm.a(lib_a-e_log.o)
                0x00018e80                __ieee754_log
 .text          0x00019290      0x3d0 /opt/paparazzi/arm-multilib/lib/gcc/arm-none-eabi/4.6.2/../../../../arm-none-eabi/lib/thumb/libm.a(lib_a-e_rem_pio2.o)
                0x00019290                __ieee754_rem_pio2
 .text          0x00019660      0x188 /opt/paparazzi/arm-multilib/lib/gcc/arm-none-eabi/4.6.2/../../../../arm-none-eabi/lib/thumb/libm.a(lib_a-e_sinh.o)
                0x00019660                __ieee754_sinh
 .text          0x000197e8      0x188 /opt/paparazzi/arm-multilib/lib/gcc/arm-none-eabi/4.6.2/../../../../arm-none-eabi/lib/thumb/libm.a(lib_a-e_sqrt.o)
                0x000197e8                __ieee754_sqrt
 .text          0x00019970      0x12c /opt/paparazzi/arm-multilib/lib/gcc/arm-none-eabi/4.6.2/../../../../arm-none-eabi/lib/thumb/libm.a(lib_a-ef_atan2.o)
                0x00019970                __ieee754_atan2f
 .text          0x00019a9c      0x2bc /opt/paparazzi/arm-multilib/lib/gcc/arm-none-eabi/4.6.2/../../../../arm-none-eabi/lib/thumb/libm.a(lib_a-ef_rem_pio2.o)
                0x00019a9c                __ieee754_rem_pio2f
 .text          0x00019d58      0x1d8 /opt/paparazzi/arm-multilib/lib/gcc/arm-none-eabi/4.6.2/../../../../arm-none-eabi/lib/thumb/libm.a(lib_a-k_cos.o)
                0x00019d58                __kernel_cos
 .text          0x00019f30      0x738 /opt/paparazzi/arm-multilib/lib/gcc/arm-none-eabi/4.6.2/../../../../arm-none-eabi/lib/thumb/libm.a(lib_a-k_rem_pio2.o)
                0x00019f30                __kernel_rem_pio2
 .text          0x0001a668      0x178 /opt/paparazzi/arm-multilib/lib/gcc/arm-none-eabi/4.6.2/../../../../arm-none-eabi/lib/thumb/libm.a(lib_a-k_sin.o)
                0x0001a668                __kernel_sin
 .text          0x0001a7e0      0x3c8 /opt/paparazzi/arm-multilib/lib/gcc/arm-none-eabi/4.6.2/../../../../arm-none-eabi/lib/thumb/libm.a(lib_a-k_tan.o)
                0x0001a7e0                __kernel_tan
 .text          0x0001aba8      0x13c /opt/paparazzi/arm-multilib/lib/gcc/arm-none-eabi/4.6.2/../../../../arm-none-eabi/lib/thumb/libm.a(lib_a-kf_cos.o)
                0x0001aba8                __kernel_cosf
 .text          0x0001ace4      0x5c4 /opt/paparazzi/arm-multilib/lib/gcc/arm-none-eabi/4.6.2/../../../../arm-none-eabi/lib/thumb/libm.a(lib_a-kf_rem_pio2.o)
                0x0001ace4                __kernel_rem_pio2f
 .text          0x0001b2a8       0xf8 /opt/paparazzi/arm-multilib/lib/gcc/arm-none-eabi/4.6.2/../../../../arm-none-eabi/lib/thumb/libm.a(lib_a-kf_sin.o)
                0x0001b2a8                __kernel_sinf
 .text          0x0001b3a0      0x470 /opt/paparazzi/arm-multilib/lib/gcc/arm-none-eabi/4.6.2/../../../../arm-none-eabi/lib/thumb/libm.a(lib_a-s_expm1.o)
                0x0001b3a0                expm1
 .text          0x0001b810       0x10 /opt/paparazzi/arm-multilib/lib/gcc/arm-none-eabi/4.6.2/../../../../arm-none-eabi/lib/thumb/libm.a(lib_a-s_finite.o)
                0x0001b810                finite
 .text          0x0001b820      0x128 /opt/paparazzi/arm-multilib/lib/gcc/arm-none-eabi/4.6.2/../../../../arm-none-eabi/lib/thumb/libm.a(lib_a-s_floor.o)
                0x0001b820                floor
 .text          0x0001b948       0x90 /opt/paparazzi/arm-multilib/lib/gcc/arm-none-eabi/4.6.2/../../../../arm-none-eabi/lib/thumb/libm.a(lib_a-s_fpclassify.o)
                0x0001b948                __fpclassifyd
 .text          0x0001b9d8        0x4 /opt/paparazzi/arm-multilib/lib/gcc/arm-none-eabi/4.6.2/../../../../arm-none-eabi/lib/thumb/libm.a(lib_a-s_matherr.o)
                0x0001b9d8                matherr
 *fill*         0x0001b9dc        0x4 00
 .text          0x0001b9e0       0x10 /opt/paparazzi/arm-multilib/lib/gcc/arm-none-eabi/4.6.2/../../../../arm-none-eabi/lib/thumb/libm.a(lib_a-s_nan.o)
                0x0001b9e0                nan
 .text          0x0001b9f0       0xf8 /opt/paparazzi/arm-multilib/lib/gcc/arm-none-eabi/4.6.2/../../../../arm-none-eabi/lib/thumb/libm.a(lib_a-s_scalbn.o)
                0x0001b9f0                scalbn
 .text          0x0001bae8       0x84 /opt/paparazzi/arm-multilib/lib/gcc/arm-none-eabi/4.6.2/../../../../arm-none-eabi/lib/thumb/libm.a(lib_a-sf_floor.o)
                0x0001bae8                floorf
 .text          0x0001bb6c       0xb4 /opt/paparazzi/arm-multilib/lib/gcc/arm-none-eabi/4.6.2/../../../../arm-none-eabi/lib/thumb/libm.a(lib_a-sf_scalbn.o)
                0x0001bb6c                scalbnf
 .text          0x0001bc20       0x14 /opt/paparazzi/arm-multilib/lib/gcc/arm-none-eabi/4.6.2/../../../../arm-none-eabi/lib/thumb/libm.a(lib_a-s_copysign.o)
                0x0001bc20                copysign
 .text          0x0001bc34        0xc /opt/paparazzi/arm-multilib/lib/gcc/arm-none-eabi/4.6.2/../../../../arm-none-eabi/lib/thumb/libm.a(lib_a-sf_copysign.o)
                0x0001bc34                copysignf
 .text          0x0001bc40        0xc /opt/paparazzi/arm-multilib/lib/gcc/arm-none-eabi/4.6.2/../../../../arm-none-eabi/lib/thumb/libc.a(lib_a-errno.o)
                0x0001bc40                __errno
 .text          0x0001bc4c       0x14 /opt/paparazzi/arm-multilib/lib/gcc/arm-none-eabi/4.6.2/thumb/libgcc.a(_thumb1_case_uqi.o)
                0x0001bc4c                __gnu_thumb1_case_uqi
 .text          0x0001bc60       0x94 /opt/paparazzi/arm-multilib/lib/gcc/arm-none-eabi/4.6.2/thumb/libgcc.a(_udivsi3.o)
                0x0001bc60                __udivsi3
                0x0001bc60                __aeabi_uidiv
                0x0001bce0                __aeabi_uidivmod
 .text          0x0001bcf4       0xb0 /opt/paparazzi/arm-multilib/lib/gcc/arm-none-eabi/4.6.2/thumb/libgcc.a(_divsi3.o)
                0x0001bcf4                __aeabi_idiv
                0x0001bcf4                __divsi3
                0x0001bd90                __aeabi_idivmod
 .text          0x0001bda4        0x4 /opt/paparazzi/arm-multilib/lib/gcc/arm-none-eabi/4.6.2/thumb/libgcc.a(_dvmd_tls.o)
                0x0001bda4                __aeabi_ldiv0
                0x0001bda4                __aeabi_idiv0
 .text          0x0001bda8      0x41c /opt/paparazzi/arm-multilib/lib/gcc/arm-none-eabi/4.6.2/thumb/libgcc.a(_arm_addsubdf3.o)
                0x0001bda8                __aeabi_drsub
                0x0001bdb0                __aeabi_dsub
                0x0001bdb0                __subdf3
                0x0001bdb4                __adddf3
                0x0001bdb4                __aeabi_dadd
                0x0001c0c4                __aeabi_ui2d
                0x0001c0c4                __floatunsidf
                0x0001c0e8                __floatsidf
                0x0001c0e8                __aeabi_i2d
                0x0001c110                __extendsfdf2
                0x0001c110                __aeabi_f2d
                0x0001c150                __aeabi_ul2d
                0x0001c150                __floatundidf
                0x0001c164                __floatdidf
                0x0001c164                __aeabi_l2d
 .text          0x0001c1c4      0x49c /opt/paparazzi/arm-multilib/lib/gcc/arm-none-eabi/4.6.2/thumb/libgcc.a(_arm_muldivdf3.o)
                0x0001c1c4                __aeabi_dmul
                0x0001c1c4                __muldf3
                0x0001c454                __aeabi_ddiv
                0x0001c454                __divdf3
 .text          0x0001c660      0x144 /opt/paparazzi/arm-multilib/lib/gcc/arm-none-eabi/4.6.2/thumb/libgcc.a(_arm_cmpdf2.o)
                0x0001c660                __gtdf2
                0x0001c660                __gedf2
                0x0001c668                __ltdf2
                0x0001c668                __ledf2
                0x0001c670                __cmpdf2
                0x0001c670                __eqdf2
                0x0001c670                __nedf2
                0x0001c6f8                __aeabi_cdrcmple
                0x0001c714                __aeabi_cdcmple
                0x0001c714                __aeabi_cdcmpeq
                0x0001c72c                __aeabi_dcmpeq
                0x0001c744                __aeabi_dcmplt
                0x0001c75c                __aeabi_dcmple
                0x0001c774                __aeabi_dcmpge
                0x0001c78c                __aeabi_dcmpgt
 .text          0x0001c7a4       0x5c /opt/paparazzi/arm-multilib/lib/gcc/arm-none-eabi/4.6.2/thumb/libgcc.a(_arm_fixdfsi.o)
                0x0001c7a4                __fixdfsi
                0x0001c7a4                __aeabi_d2iz
 .text          0x0001c800       0x54 /opt/paparazzi/arm-multilib/lib/gcc/arm-none-eabi/4.6.2/thumb/libgcc.a(_arm_fixunsdfsi.o)
                0x0001c800                __fixunsdfsi
                0x0001c800                __aeabi_d2uiz
 .text          0x0001c854       0xa0 /opt/paparazzi/arm-multilib/lib/gcc/arm-none-eabi/4.6.2/thumb/libgcc.a(_arm_truncdfsf2.o)
                0x0001c854                __aeabi_d2f
                0x0001c854                __truncdfsf2
 .text          0x0001c8f4      0x2ac /opt/paparazzi/arm-multilib/lib/gcc/arm-none-eabi/4.6.2/thumb/libgcc.a(_arm_addsubsf3.o)
                0x0001c8f4                __aeabi_frsub
                0x0001c8fc                __subsf3
                0x0001c8fc                __aeabi_fsub
                0x0001c900                __aeabi_fadd
                0x0001c900                __addsf3
                0x0001cabc                __aeabi_ui2f
                0x0001cabc                __floatunsisf
                0x0001cac4                __aeabi_i2f
                0x0001cac4                __floatsisf
                0x0001cae4                __floatundisf
                0x0001cae4                __aeabi_ul2f
                0x0001caf4                __floatdisf
                0x0001caf4                __aeabi_l2f
 .text          0x0001cba0      0x2f8 /opt/paparazzi/arm-multilib/lib/gcc/arm-none-eabi/4.6.2/thumb/libgcc.a(_arm_muldivsf3.o)
                0x0001cba0                __mulsf3
                0x0001cba0                __aeabi_fmul
                0x0001cd38                __divsf3
                0x0001cd38                __aeabi_fdiv
 .text          0x0001ce98      0x114 /opt/paparazzi/arm-multilib/lib/gcc/arm-none-eabi/4.6.2/thumb/libgcc.a(_arm_cmpsf2.o)
                0x0001ce98                __gtsf2
                0x0001ce98                __gesf2
                0x0001cea0                __lesf2
                0x0001cea0                __ltsf2
                0x0001cea8                __nesf2
                0x0001cea8                __eqsf2
                0x0001cea8                __cmpsf2
                0x0001cf0c                __aeabi_cfrcmple
                0x0001cf1c                __aeabi_cfcmple
                0x0001cf1c                __aeabi_cfcmpeq
                0x0001cf34                __aeabi_fcmpeq
                0x0001cf4c                __aeabi_fcmplt
                0x0001cf64                __aeabi_fcmple
                0x0001cf7c                __aeabi_fcmpge
                0x0001cf94                __aeabi_fcmpgt
 .text          0x0001cfac       0x5c /opt/paparazzi/arm-multilib/lib/gcc/arm-none-eabi/4.6.2/thumb/libgcc.a(_arm_fixsfsi.o)
                0x0001cfac                __fixsfsi
                0x0001cfac                __aeabi_f2iz
 .text          0x0001d008       0x54 /opt/paparazzi/arm-multilib/lib/gcc/arm-none-eabi/4.6.2/thumb/libgcc.a(_arm_fixunssfsi.o)
                0x0001d008                __aeabi_f2uiz
                0x0001d008                __fixunssfsi
 *fill*         0x0001d05c        0x4 00
 .text.stub     0x0001d060      0x164 linker stubs
 *(.gnu.linkonce.t.*)
 *(.glue_7)
 .glue_7        0x00000000        0x0 linker stubs
 *(.glue_7t)
 .glue_7t       0x00000000        0x0 linker stubs
 *(.gcc_except_table)
 *(.rodata)
 *fill*         0x0001d208        0x0 00
 .rodata        0x0001d208       0x40 /opt/paparazzi/arm-multilib/lib/gcc/arm-none-eabi/4.6.2/../../../../arm-none-eabi/lib/thumb/libm.a(lib_a-s_atan.o)
 .rodata        0x0001d248       0x20 /opt/paparazzi/arm-multilib/lib/gcc/arm-none-eabi/4.6.2/../../../../arm-none-eabi/lib/thumb/libm.a(lib_a-sf_atan.o)
 .rodata        0x0001d268       0x30 /opt/paparazzi/arm-multilib/lib/gcc/arm-none-eabi/4.6.2/../../../../arm-none-eabi/lib/thumb/libm.a(lib_a-e_exp.o)
 .rodata        0x0001d298      0x188 /opt/paparazzi/arm-multilib/lib/gcc/arm-none-eabi/4.6.2/../../../../arm-none-eabi/lib/thumb/libm.a(lib_a-e_rem_pio2.o)
 .rodata        0x0001d420      0x398 /opt/paparazzi/arm-multilib/lib/gcc/arm-none-eabi/4.6.2/../../../../arm-none-eabi/lib/thumb/libm.a(lib_a-ef_rem_pio2.o)
 .rodata        0x0001d7b8       0x50 /opt/paparazzi/arm-multilib/lib/gcc/arm-none-eabi/4.6.2/../../../../arm-none-eabi/lib/thumb/libm.a(lib_a-k_rem_pio2.o)
 .rodata        0x0001d808       0x38 /opt/paparazzi/arm-multilib/lib/gcc/arm-none-eabi/4.6.2/../../../../arm-none-eabi/lib/thumb/libm.a(lib_a-kf_rem_pio2.o)
 *(.rodata*)
 .rodata.serie_coeff_proj_mercator
                0x0001d840       0x14 /home/lionel/paparazziProto1/var/Colibri/ap/math/pprz_geodetic_float.o
 .rodata.commands_failsafe
                0x0001d854        0xa /home/lionel/paparazziProto1/var/Colibri/ap/./commands.o
                0x0001d854                commands_failsafe
 .rodata.version
                0x0001d85e        0x2 /home/lionel/paparazziProto1/var/Colibri/ap/firmwares/fixedwing/main_ap.o
 .rodata.str1.1
                0x0001d860       0x11 /home/lionel/paparazziProto1/var/Colibri/ap/firmwares/fixedwing/main_ap.o
 .rodata.nb_waypoint
                0x0001d871        0x1 /home/lionel/paparazziProto1/var/Colibri/ap/subsystems/nav.o
                0x0001d871                nb_waypoint
 .rodata.str1.1
                0x0001d872        0x5 /opt/paparazzi/arm-multilib/lib/gcc/arm-none-eabi/4.6.2/../../../../arm-none-eabi/lib/thumb/libm.a(lib_a-w_asin.o)
                                  0x6 (size before relaxing)
 .rodata.str1.1
                0x0001d877        0x5 /opt/paparazzi/arm-multilib/lib/gcc/arm-none-eabi/4.6.2/../../../../arm-none-eabi/lib/thumb/libm.a(lib_a-w_cosh.o)
 .rodata.str1.1
                0x0001d87c        0x4 /opt/paparazzi/arm-multilib/lib/gcc/arm-none-eabi/4.6.2/../../../../arm-none-eabi/lib/thumb/libm.a(lib_a-w_exp.o)
 .rodata.str1.1
                0x0001d880        0x4 /opt/paparazzi/arm-multilib/lib/gcc/arm-none-eabi/4.6.2/../../../../arm-none-eabi/lib/thumb/libm.a(lib_a-w_log.o)
                                  0x5 (size before relaxing)
 .rodata.str1.1
                0x0001d884        0x5 /opt/paparazzi/arm-multilib/lib/gcc/arm-none-eabi/4.6.2/../../../../arm-none-eabi/lib/thumb/libm.a(lib_a-w_sinh.o)
 .rodata.str1.1
                0x0001d889        0x5 /opt/paparazzi/arm-multilib/lib/gcc/arm-none-eabi/4.6.2/../../../../arm-none-eabi/lib/thumb/libm.a(lib_a-w_sqrt.o)
 .rodata.str1.1
                0x0001d88e        0x2 /opt/paparazzi/arm-multilib/lib/gcc/arm-none-eabi/4.6.2/../../../../arm-none-eabi/lib/thumb/libc.a(lib_a-impure.o)
 *(.gnu.linkonce.r.*)

.vfp11_veneer   0x0001d890        0x0
 .vfp11_veneer  0x00000000        0x0 linker stubs

.v4_bx          0x0001d890        0x0
 .v4_bx         0x00000000        0x0 linker stubs
                0x0001d890                . = ALIGN (0x4)

.ARM.exidx      0x0001d890        0x0
                0x0001d890                __exidx_start = .
 *(.ARM.exidx* .gnu.linkonce.armexidx.*)
                0x0001d890                __exidx_end = .
                0x0001d890                . = ALIGN (0x4)

.ctors          0x0001d890        0x0
                0x0001d890                PROVIDE (__ctors_start__, .)
 *(SORT(.ctors.*))
 *(.ctors)
                0x0001d890                PROVIDE (__ctors_end__, .)

.dtors          0x0001d890        0x0
                0x0001d890                PROVIDE (__dtors_start__, .)
 *(SORT(.dtors.*))
 *(.dtors)
                0x0001d890                PROVIDE (__dtors_end__, .)
                0x0001d890                . = ALIGN (0x4)
                0x0001d890                _etext = .
                0x0001d890                PROVIDE (etext, .)

.data           0x40000000      0x4f8 load address 0x0001d890
                0x40000000                _data = .
 *(.data)
 .data          0x40000000        0x1 /opt/paparazzi/arm-multilib/lib/gcc/arm-none-eabi/4.6.2/../../../../arm-none-eabi/lib/thumb/libm.a(lib_a-s_lib_ver.o)
                0x40000000                __fdlib_version
 *fill*         0x40000001        0x7 00
 .data          0x40000008      0x430 /opt/paparazzi/arm-multilib/lib/gcc/arm-none-eabi/4.6.2/../../../../arm-none-eabi/lib/thumb/libc.a(lib_a-impure.o)
                0x40000008                _impure_ptr
 *(.data.*)
 .data.fbw_state
                0x40000438        0x4 /home/lionel/paparazziProto1/var/Colibri/ap/./inter_mcu.o
                0x40000438                fbw_state
 .data.ap_state
                0x4000043c        0x4 /home/lionel/paparazziProto1/var/Colibri/ap/./inter_mcu.o
                0x4000043c                ap_state
 .data.pprz_mode
                0x40000440        0x1 /home/lionel/paparazziProto1/var/Colibri/ap/firmwares/fixedwing/main_ap.o
                0x40000440                pprz_mode
 .data.boot.3836
                0x40000441        0x1 /home/lionel/paparazziProto1/var/Colibri/ap/firmwares/fixedwing/main_ap.o
 .data.adc0_val
                0x40000442       0x10 /home/lionel/paparazziProto1/var/Colibri/ap/arch/lpc21/mcu_periph/adc_arch.o
                0x40000442                adc0_val
 .data.adc1_val
                0x40000452       0x10 /home/lionel/paparazziProto1/var/Colibri/ap/arch/lpc21/mcu_periph/adc_arch.o
                0x40000452                adc1_val
 *fill*         0x40000462        0x2 00
 .data.v_ctl_auto_throttle_dash_trim
                0x40000464        0x4 /home/lionel/paparazziProto1/var/Colibri/ap/firmwares/fixedwing/stabilization/stabilization_attitude.o
                0x40000464                v_ctl_auto_throttle_dash_trim
 .data.v_ctl_auto_throttle_loiter_trim
                0x40000468        0x4 /home/lionel/paparazziProto1/var/Colibri/ap/firmwares/fixedwing/stabilization/stabilization_attitude.o
                0x40000468                v_ctl_auto_throttle_loiter_trim
 .data.max_dist_from_home
                0x4000046c        0x4 /home/lionel/paparazziProto1/var/Colibri/ap/subsystems/nav.o
                0x4000046c                max_dist_from_home
 .data.nav_utm_zone0
                0x40000470        0x1 /home/lionel/paparazziProto1/var/Colibri/ap/subsystems/nav.o
                0x40000470                nav_utm_zone0
 *fill*         0x40000471        0x3 00
 .data.nav_utm_north0
                0x40000474        0x4 /home/lionel/paparazziProto1/var/Colibri/ap/subsystems/nav.o
                0x40000474                nav_utm_north0
 .data.nav_altitude
                0x40000478        0x4 /home/lionel/paparazziProto1/var/Colibri/ap/subsystems/nav.o
                0x40000478                nav_altitude
 .data.waypoints
                0x4000047c       0x78 /home/lionel/paparazziProto1/var/Colibri/ap/subsystems/nav.o
                0x4000047c                waypoints
 .data.nav_utm_east0
                0x400004f4        0x4 /home/lionel/paparazziProto1/var/Colibri/ap/subsystems/nav.o
                0x400004f4                nav_utm_east0
 *(.gnu.linkonce.d*)
                0x400004f8                . = ALIGN (0x4)
 *(.fastrun)
                0x400004f8                . = ALIGN (0x4)
                0x400004f8                _edata = .
                0x400004f8                PROVIDE (edata, .)

.bss            0x400004f8     0x109c load address 0x0001dd88
                0x400004f8                __bss_start = .
                0x400004f8                __bss_start__ = .
 *(.bss)
 *(.bss.*)
 .bss.inter_mcu_received_ap
                0x400004f8        0x1 /home/lionel/paparazziProto1/var/Colibri/ap/./inter_mcu.o
                0x400004f8                inter_mcu_received_ap
 *fill*         0x400004f9        0x1 00
 .bss._ap_state
                0x400004fa        0xe /home/lionel/paparazziProto1/var/Colibri/ap/./inter_mcu.o
 .bss.inter_mcu_received_fbw
                0x40000508        0x1 /home/lionel/paparazziProto1/var/Colibri/ap/./inter_mcu.o
                0x40000508                inter_mcu_received_fbw
 *fill*         0x40000509        0x3 00
 .bss._fbw_state
                0x4000050c       0x14 /home/lionel/paparazziProto1/var/Colibri/ap/./inter_mcu.o
 .bss.i15.3001  0x40000520        0x1 /home/lionel/paparazziProto1/var/Colibri/ap/firmwares/fixedwing/main_fbw.o
 .bss.i30.3030  0x40000521        0x1 /home/lionel/paparazziProto1/var/Colibri/ap/firmwares/fixedwing/main_fbw.o
 .bss.fbw_new_actuators
                0x40000522        0x1 /home/lionel/paparazziProto1/var/Colibri/ap/firmwares/fixedwing/main_fbw.o
                0x40000522                fbw_new_actuators
 *fill*         0x40000523        0x1 00
 .bss.i300.3032
                0x40000524        0x2 /home/lionel/paparazziProto1/var/Colibri/ap/firmwares/fixedwing/main_fbw.o
 .bss.i60.3031  0x40000526        0x1 /home/lionel/paparazziProto1/var/Colibri/ap/firmwares/fixedwing/main_fbw.o
 .bss.i30.3002  0x40000527        0x1 /home/lionel/paparazziProto1/var/Colibri/ap/firmwares/fixedwing/main_fbw.o
 .bss.i120.3003
                0x40000528        0x1 /home/lionel/paparazziProto1/var/Colibri/ap/firmwares/fixedwing/main_fbw.o
 .bss._1Hz.2786
                0x40000529        0x1 /home/lionel/paparazziProto1/var/Colibri/ap/firmwares/fixedwing/main_fbw.o
 *fill*         0x4000052a        0x2 00
 .bss.electrical_priv
                0x4000052c       0x48 /home/lionel/paparazziProto1/var/Colibri/ap/subsystems/electrical.o
 .bss.command_roll_trim
                0x40000574        0x2 /home/lionel/paparazziProto1/var/Colibri/ap/./commands.o
                0x40000574                command_roll_trim
 .bss.command_pitch_trim
                0x40000576        0x2 /home/lionel/paparazziProto1/var/Colibri/ap/./commands.o
                0x40000576                command_pitch_trim
 .bss.telemetry_mode_Fbw
                0x40000578        0x1 /home/lionel/paparazziProto1/var/Colibri/ap/firmwares/fixedwing/fbw_downlink.o
                0x40000578                telemetry_mode_Fbw
 .bss.mcu1_ppm_cpt
                0x40000579        0x1 /home/lionel/paparazziProto1/var/Colibri/ap/firmwares/fixedwing/main_ap.o
 .bss.i180.4189
                0x4000057a        0x1 /home/lionel/paparazziProto1/var/Colibri/ap/firmwares/fixedwing/main_ap.o
 .bss.i66.3844  0x4000057b        0x1 /home/lionel/paparazziProto1/var/Colibri/ap/firmwares/fixedwing/main_ap.o
 .bss.i324.4513
                0x4000057c        0x2 /home/lionel/paparazziProto1/var/Colibri/ap/firmwares/fixedwing/main_ap.o
 .bss.i342.4515
                0x4000057e        0x2 /home/lionel/paparazziProto1/var/Colibri/ap/firmwares/fixedwing/main_ap.o
 .bss.t.4706    0x40000580        0x1 /home/lionel/paparazziProto1/var/Colibri/ap/firmwares/fixedwing/main_ap.o
 .bss.i90.3846  0x40000581        0x1 /home/lionel/paparazziProto1/var/Colibri/ap/firmwares/fixedwing/main_ap.o
 .bss.i63.3843  0x40000582        0x1 /home/lionel/paparazziProto1/var/Colibri/ap/firmwares/fixedwing/main_ap.o
 *fill*         0x40000583        0x1 00
 .bss.last.4604
                0x40000584        0x2 /home/lionel/paparazziProto1/var/Colibri/ap/firmwares/fixedwing/main_ap.o
 .bss.i.4268    0x40000586        0x1 /home/lionel/paparazziProto1/var/Colibri/ap/firmwares/fixedwing/main_ap.o
 .bss.i60.3842  0x40000587        0x1 /home/lionel/paparazziProto1/var/Colibri/ap/firmwares/fixedwing/main_ap.o
 .bss.i.4286    0x40000588        0x1 /home/lionel/paparazziProto1/var/Colibri/ap/firmwares/fixedwing/main_ap.o
 *fill*         0x40000589        0x1 00
 .bss.i312.4196
                0x4000058a        0x2 /home/lionel/paparazziProto1/var/Colibri/ap/firmwares/fixedwing/main_ap.o
 .bss.i318.4512
                0x4000058c        0x2 /home/lionel/paparazziProto1/var/Colibri/ap/firmwares/fixedwing/main_ap.o
 .bss.launch    0x4000058e        0x1 /home/lionel/paparazziProto1/var/Colibri/ap/firmwares/fixedwing/main_ap.o
                0x4000058e                launch
 .bss.i192.4191
                0x4000058f        0x1 /home/lionel/paparazziProto1/var/Colibri/ap/firmwares/fixedwing/main_ap.o
 .bss.i.4525    0x40000590        0x1 /home/lionel/paparazziProto1/var/Colibri/ap/firmwares/fixedwing/main_ap.o
 .bss.lateral_mode
                0x40000591        0x1 /home/lionel/paparazziProto1/var/Colibri/ap/firmwares/fixedwing/main_ap.o
                0x40000591                lateral_mode
 .bss.i90.4187  0x40000592        0x1 /home/lionel/paparazziProto1/var/Colibri/ap/firmwares/fixedwing/main_ap.o
 .bss.i.4199    0x40000593        0x1 /home/lionel/paparazziProto1/var/Colibri/ap/firmwares/fixedwing/main_ap.o
 .bss.mcu1_status
                0x40000594        0x1 /home/lionel/paparazziProto1/var/Colibri/ap/firmwares/fixedwing/main_ap.o
 *fill*         0x40000595        0x1 00
 .bss.i300.4194
                0x40000596        0x2 /home/lionel/paparazziProto1/var/Colibri/ap/firmwares/fixedwing/main_ap.o
 .bss.i183.4190
                0x40000598        0x1 /home/lionel/paparazziProto1/var/Colibri/ap/firmwares/fixedwing/main_ap.o
 .bss.i.3853    0x40000599        0x1 /home/lionel/paparazziProto1/var/Colibri/ap/firmwares/fixedwing/main_ap.o
 .bss.i126.4188
                0x4000059a        0x1 /home/lionel/paparazziProto1/var/Colibri/ap/firmwares/fixedwing/main_ap.o
 *fill*         0x4000059b        0x1 00
 .bss.i306.4511
                0x4000059c        0x2 /home/lionel/paparazziProto1/var/Colibri/ap/firmwares/fixedwing/main_ap.o
 .bss.i540.4197
                0x4000059e        0x2 /home/lionel/paparazziProto1/var/Colibri/ap/firmwares/fixedwing/main_ap.o
 .bss.i300.3850
                0x400005a0        0x2 /home/lionel/paparazziProto1/var/Colibri/ap/firmwares/fixedwing/main_ap.o
 .bss.i306.3851
                0x400005a2        0x2 /home/lionel/paparazziProto1/var/Colibri/ap/firmwares/fixedwing/main_ap.o
 .bss.i540.3852
                0x400005a4        0x2 /home/lionel/paparazziProto1/var/Colibri/ap/firmwares/fixedwing/main_ap.o
 .bss.last.4165
                0x400005a6        0x2 /home/lionel/paparazziProto1/var/Colibri/ap/firmwares/fixedwing/main_ap.o
 .bss.i126.3848
                0x400005a8        0x1 /home/lionel/paparazziProto1/var/Colibri/ap/firmwares/fixedwing/main_ap.o
 .bss.i84.4186  0x400005a9        0x1 /home/lionel/paparazziProto1/var/Colibri/ap/firmwares/fixedwing/main_ap.o
 .bss.last.4481
                0x400005aa        0x2 /home/lionel/paparazziProto1/var/Colibri/ap/firmwares/fixedwing/main_ap.o
 .bss.i.4050    0x400005ac        0x1 /home/lionel/paparazziProto1/var/Colibri/ap/firmwares/fixedwing/main_ap.o
 .bss.i78.4185  0x400005ad        0x1 /home/lionel/paparazziProto1/var/Colibri/ap/firmwares/fixedwing/main_ap.o
 .bss.kill_throttle
                0x400005ae        0x1 /home/lionel/paparazziProto1/var/Colibri/ap/firmwares/fixedwing/main_ap.o
                0x400005ae                kill_throttle
 .bss.i1.3608   0x400005af        0x1 /home/lionel/paparazziProto1/var/Colibri/ap/firmwares/fixedwing/main_ap.o
 .bss.i120.3847
                0x400005b0        0x1 /home/lionel/paparazziProto1/var/Colibri/ap/firmwares/fixedwing/main_ap.o
 .bss.i.3915    0x400005b1        0x1 /home/lionel/paparazziProto1/var/Colibri/ap/firmwares/fixedwing/main_ap.o
 .bss.i30.3841  0x400005b2        0x1 /home/lionel/paparazziProto1/var/Colibri/ap/firmwares/fixedwing/main_ap.o
 *fill*         0x400005b3        0x1 00
 .bss.i606.4517
                0x400005b4        0x2 /home/lionel/paparazziProto1/var/Colibri/ap/firmwares/fixedwing/main_ap.o
 .bss.i612.4518
                0x400005b6        0x2 /home/lionel/paparazziProto1/var/Colibri/ap/firmwares/fixedwing/main_ap.o
 .bss.i606.4198
                0x400005b8        0x2 /home/lionel/paparazziProto1/var/Colibri/ap/firmwares/fixedwing/main_ap.o
 .bss.i300.4510
                0x400005ba        0x2 /home/lionel/paparazziProto1/var/Colibri/ap/firmwares/fixedwing/main_ap.o
 .bss.i150.3849
                0x400005bc        0x1 /home/lionel/paparazziProto1/var/Colibri/ap/firmwares/fixedwing/main_ap.o
 .bss.i72.3845  0x400005bd        0x1 /home/lionel/paparazziProto1/var/Colibri/ap/firmwares/fixedwing/main_ap.o
 *fill*         0x400005be        0x2 00
 .bss.current   0x400005c0        0x4 /home/lionel/paparazziProto1/var/Colibri/ap/firmwares/fixedwing/main_ap.o
 .bss.i243.4193
                0x400005c4        0x1 /home/lionel/paparazziProto1/var/Colibri/ap/firmwares/fixedwing/main_ap.o
 *fill*         0x400005c5        0x1 00
 .bss.i420.4516
                0x400005c6        0x2 /home/lionel/paparazziProto1/var/Colibri/ap/firmwares/fixedwing/main_ap.o
 .bss.i6.3840   0x400005c8        0x1 /home/lionel/paparazziProto1/var/Colibri/ap/firmwares/fixedwing/main_ap.o
 .bss.i66.4184  0x400005c9        0x1 /home/lionel/paparazziProto1/var/Colibri/ap/firmwares/fixedwing/main_ap.o
 .bss.i240.4192
                0x400005ca        0x1 /home/lionel/paparazziProto1/var/Colibri/ap/firmwares/fixedwing/main_ap.o
 *fill*         0x400005cb        0x1 00
 .bss.i330.4514
                0x400005cc        0x2 /home/lionel/paparazziProto1/var/Colibri/ap/firmwares/fixedwing/main_ap.o
 .bss.i63.4183  0x400005ce        0x1 /home/lionel/paparazziProto1/var/Colibri/ap/firmwares/fixedwing/main_ap.o
 *fill*         0x400005cf        0x1 00
 .bss.i306.4195
                0x400005d0        0x2 /home/lionel/paparazziProto1/var/Colibri/ap/firmwares/fixedwing/main_ap.o
 *fill*         0x400005d2        0x2 00
 .bss.p         0x400005d4       0x10 /home/lionel/paparazziProto1/var/Colibri/ap/./estimator.o
 .bss.telemetry_mode_Ap
                0x400005e4        0x1 /home/lionel/paparazziProto1/var/Colibri/ap/firmwares/fixedwing/ap_downlink.o
                0x400005e4                telemetry_mode_Ap
 *fill*         0x400005e5        0x3 00
 .bss.buffers   0x400005e8       0x40 /home/lionel/paparazziProto1/var/Colibri/ap/arch/lpc21/mcu_periph/adc_arch.o
 .bss.last_elevator_trim.3022
                0x40000628        0x4 /home/lionel/paparazziProto1/var/Colibri/ap/firmwares/fixedwing/stabilization/stabilization_attitude.o
 .bss.last_err.3031
                0x4000062c        0x4 /home/lionel/paparazziProto1/var/Colibri/ap/firmwares/fixedwing/stabilization/stabilization_attitude.o
 .bss.last_err.2990
                0x40000630        0x4 /home/lionel/paparazziProto1/var/Colibri/ap/firmwares/fixedwing/stabilization/stabilization_attitude.o
 .bss.route_ap_time
                0x40000634        0x1 /home/lionel/paparazziProto1/var/Colibri/ap/firmwares/fixedwing/stabilization/stabilization_attitude.o
                0x40000634                route_ap_time
 *fill*         0x40000635        0x3 00
 .bss.nav_ratio
                0x40000638        0x4 /home/lionel/paparazziProto1/var/Colibri/ap/firmwares/fixedwing/stabilization/stabilization_attitude.o
 .bss.last_err.2969
                0x4000063c        0x4 /home/lionel/paparazziProto1/var/Colibri/ap/firmwares/fixedwing/guidance/guidance_v.o
 .bss.previous_ground_alt
                0x40000640        0x4 /home/lionel/paparazziProto1/var/Colibri/ap/subsystems/nav.o
 .bss.nav_in_segment
                0x40000644        0x1 /home/lionel/paparazziProto1/var/Colibri/ap/subsystems/nav.o
                0x40000644                nav_in_segment
 .bss.last_wp   0x40000645        0x1 /home/lionel/paparazziProto1/var/Colibri/ap/subsystems/nav.o
 .bss.nav_in_circle
                0x40000646        0x1 /home/lionel/paparazziProto1/var/Colibri/ap/subsystems/nav.o
                0x40000646                nav_in_circle
 *fill*         0x40000647        0x1 00
 .bss.nav_leg_length
                0x40000648        0x4 /home/lionel/paparazziProto1/var/Colibri/ap/subsystems/nav.o
 .bss.prescaler.3866
                0x4000064c        0x2 /home/lionel/paparazziProto1/var/Colibri/ap/subsystems/nav.o
 *fill*         0x4000064e        0x2 00
 .bss.last_nav_altitude.3878
                0x40000650        0x4 /home/lionel/paparazziProto1/var/Colibri/ap/subsystems/nav.o
 .bss.eight_status
                0x40000654        0x1 /home/lionel/paparazziProto1/var/Colibri/ap/subsystems/nav.o
 *fill*         0x40000655        0x3 00
 .bss.circle_bank
                0x40000658        0x4 /home/lionel/paparazziProto1/var/Colibri/ap/subsystems/nav.o
                0x40000658                circle_bank
 .bss.nav_leg_progress
                0x4000065c        0x4 /home/lionel/paparazziProto1/var/Colibri/ap/subsystems/nav.o
 .bss.buf_ir1   0x40000660       0x48 /home/lionel/paparazziProto1/var/Colibri/ap/subsystems/sensors/infrared_adc.o
 .bss.buf_ir2   0x400006a8       0x48 /home/lionel/paparazziProto1/var/Colibri/ap/subsystems/sensors/infrared_adc.o
 .bss.buf_ir3   0x400006f0       0x48 /home/lionel/paparazziProto1/var/Colibri/ap/subsystems/sensors/infrared_adc.o
 *(.gnu.linkonce.b*)
 *(COMMON)
 COMMON         0x40000738       0xac /home/lionel/paparazziProto1/var/Colibri/ap/mcu_periph/sys_time.o
                0x40000738                sys_time
 COMMON         0x400007e4        0x2 /home/lionel/paparazziProto1/var/Colibri/ap/./inter_mcu.o
                0x400007e4                ap_ok
                0x400007e5                time_since_last_ap
 COMMON         0x400007e6        0x3 /home/lionel/paparazziProto1/var/Colibri/ap/firmwares/fixedwing/main_fbw.o
                0x400007e6                fbw_periodic_tid
                0x400007e7                fbw_mode
                0x400007e8                electrical_tid
 *fill*         0x400007e9        0x3 00
 COMMON         0x400007ec        0xc /home/lionel/paparazziProto1/var/Colibri/ap/subsystems/electrical.o
                0x400007ec                electrical
 COMMON         0x400007f8        0xa /home/lionel/paparazziProto1/var/Colibri/ap/./commands.o
                0x400007f8                commands
 *fill*         0x40000802        0x2 00
 COMMON         0x40000804       0x18 /home/lionel/paparazziProto1/var/Colibri/ap/firmwares/fixedwing/main_ap.o
                0x40000804                combi_switch_status
                0x40000805                navigation_tid
                0x40000806                monitor_tid
                0x40000807                sensors_tid
                0x40000808                attitude_tid
                0x4000080c                energy
                0x40000810                telemetry_tid
                0x40000811                power_switch
                0x40000814                combi_switch_value
                0x40000818                modules_tid
                0x4000081a                vsupply
 COMMON         0x4000081c       0x4c /home/lionel/paparazziProto1/var/Colibri/ap/./estimator.o
                0x4000081c                estimator_z_dot
                0x40000820                estimator_flight_time
                0x40000824                estimator_psi
                0x40000828                estimator_z
                0x4000082c                estimator_t
                0x40000830                wind_east
                0x40000834                estimator_airspeed
                0x40000838                estimator_p
                0x4000083c                estimator_theta
                0x40000840                estimator_hspeed_mod
                0x40000844                estimator_phi
                0x40000848                estimator_r
                0x4000084c                estimator_x
                0x40000850                estimator_AOA
                0x40000854                estimator_q
                0x40000858                estimator_hspeed_dir
                0x4000085c                wind_north
                0x40000860                alt_kalman_enabled
                0x40000864                estimator_y
 COMMON         0x40000868      0x240 /home/lionel/paparazziProto1/var/Colibri/ap/mcu_periph/uart.o
                0x40000868                uart0
                0x40000988                uart1
 COMMON         0x40000aa8       0x16 /home/lionel/paparazziProto1/var/Colibri/ap/arch/lpc21/servos_4017_hw.o
                0x40000aa8                servos_4017_idx
                0x40000aaa                servos_values
 COMMON         0x40000abe       0x10 /home/lionel/paparazziProto1/var/Colibri/ap/actuators.o
                0x40000abe                actuators
 COMMON         0x40000ace       0x12 /home/lionel/paparazziProto1/var/Colibri/ap/subsystems/radio_control.o
                0x40000ace                radio_control
 COMMON         0x40000ae0        0x6 /home/lionel/paparazziProto1/var/Colibri/ap/subsystems/radio_control/rc_datalink.o
                0x40000ae0                rc_dl_frame_available
                0x40000ae1                rc_dl_values
 *fill*         0x40000ae6        0x2 00
 COMMON         0x40000ae8       0x54 /home/lionel/paparazziProto1/var/Colibri/ap/firmwares/fixedwing/stabilization/stabilization_attitude.o
                0x40000ae8                h_ctl_auto1_rate
                0x40000aec                h_ctl_course_setpoint
                0x40000af0                h_ctl_roll_max_setpoint
                0x40000af4                h_ctl_course_pre_bank_correction
                0x40000af8                h_ctl_elevator_setpoint
                0x40000afc                h_ctl_aileron_of_throttle
                0x40000b00                h_ctl_aileron_setpoint
                0x40000b04                h_ctl_pitch_setpoint
                0x40000b08                h_ctl_roll_slew
                0x40000b0c                h_ctl_course_pgain
                0x40000b10                h_ctl_pitch_pgain
                0x40000b14                h_ctl_pitch_loop_setpoint
                0x40000b18                h_ctl_course_pre_bank
                0x40000b1c                h_ctl_pitch_dgain
                0x40000b20                h_ctl_course_dgain
                0x40000b24                h_ctl_roll_attitude_gain
                0x40000b28                h_ctl_roll_rate_gain
                0x40000b2c                h_ctl_disabled
                0x40000b30                h_ctl_roll_pgain
                0x40000b34                h_ctl_roll_setpoint
                0x40000b38                h_ctl_elevator_of_roll
 COMMON         0x40000b3c       0x68 /home/lionel/paparazziProto1/var/Colibri/ap/firmwares/fixedwing/guidance/guidance_v.o
                0x40000b3c                v_ctl_auto_throttle_nominal_cruise_throttle
                0x40000b40                v_ctl_altitude_error
                0x40000b44                v_ctl_climb_mode
                0x40000b48                v_ctl_auto_throttle_pitch_of_vz_dgain
                0x40000b4c                v_ctl_altitude_pre_climb_correction
                0x40000b50                v_ctl_auto_throttle_sum_err
                0x40000b54                v_ctl_auto_throttle_submode
                0x40000b58                v_ctl_auto_throttle_pitch_of_vz_pgain
                0x40000b5c                v_ctl_altitude_max_climb
                0x40000b60                v_ctl_altitude_setpoint
                0x40000b64                v_ctl_mode
                0x40000b68                v_ctl_auto_throttle_cruise_throttle
                0x40000b6c                v_ctl_altitude_pgain
                0x40000b70                v_ctl_auto_pitch_pgain
                0x40000b74                v_ctl_auto_throttle_climb_throttle_increment
                0x40000b78                v_ctl_auto_throttle_igain
                0x40000b7c                v_ctl_auto_throttle_min_cruise_throttle
                0x40000b80                v_ctl_throttle_setpoint
                0x40000b84                v_ctl_climb_setpoint
                0x40000b88                v_ctl_auto_throttle_dgain
                0x40000b8c                v_ctl_auto_pitch_igain
                0x40000b90                v_ctl_altitude_pre_climb
                0x40000b94                v_ctl_auto_throttle_max_cruise_throttle
                0x40000b98                v_ctl_throttle_slewed
                0x40000b9c                v_ctl_auto_throttle_pgain
                0x40000ba0                v_ctl_auto_pitch_sum_err
 COMMON         0x40000ba4       0xa0 /home/lionel/paparazziProto1/var/Colibri/ap/subsystems/nav.o
                0x40000ba4                nav_glide_pitch_trim
                0x40000ba8                dist2_to_wp
                0x40000bac                nav_segment_x_1
                0x40000bb0                desired_x
                0x40000bb4                nav_survey_east
                0x40000bb8                nav_segment_x_2
                0x40000bbc                nav_circle_radius
                0x40000bc0                nav_ground_speed_setpoint
                0x40000bc4                nav_circle_radians
                0x40000bc8                nav_throttle_setpoint
                0x40000bcc                desired_y
                0x40000bd0                nav_shift
                0x40000bd4                carrot_x
                0x40000bd8                last_y
                0x40000bdc                horizontal_mode
                0x40000be0                nav_circle_y
                0x40000be4                too_far_from_home
                0x40000be8                nav_pitch
                0x40000bec                rc_pitch
                0x40000bf0                nav_oval_count
                0x40000bf4                nav_mode
                0x40000bf8                dist2_to_home
                0x40000bfc                nav_climb
                0x40000c00                last_x
                0x40000c04                nav_survey_active
                0x40000c05                oval_status
                0x40000c08                nav_ground_speed_pgain
                0x40000c0c                nav_circle_x
                0x40000c10                nav_segment_y_2
                0x40000c14                nav_segment_y_1
                0x40000c18                ground_alt
                0x40000c1c                nav_survey_west
                0x40000c20                nav_radius
                0x40000c24                nav_course
                0x40000c28                nav_survey_shift
                0x40000c2c                carrot_y
                0x40000c30                nav_survey_south
                0x40000c34                nav_circle_trigo_qdr
                0x40000c38                fp_pitch
                0x40000c3c                flight_altitude
                0x40000c40                nav_survey_north
 COMMON         0x40000c44        0x8 /home/lionel/paparazziProto1/var/Colibri/ap/subsystems/navigation/common_flight_plan.o
                0x40000c44                nav_block
                0x40000c45                last_block
                0x40000c46                nav_stage
                0x40000c47                last_stage
                0x40000c48                stage_time
                0x40000c4a                block_time
 COMMON         0x40000c4c      0x401 /home/lionel/paparazziProto1/var/Colibri/ap/subsystems/navigation/traffic_info.o
                0x40000c4c                the_acs_id
                0x40000d4c                the_acs
                0x4000104c                acs_idx
 *fill*         0x4000104d        0x1 00
 COMMON         0x4000104e        0x6 /home/lionel/paparazziProto1/var/Colibri/ap/subsystems/datalink/downlink.o
                0x4000104e                downlink_nb_ovrn
                0x40001050                downlink_nb_msgs
                0x40001052                downlink_nb_bytes
 COMMON         0x40001054      0x10a /home/lionel/paparazziProto1/var/Colibri/ap/subsystems/datalink/pprz_transport.o
                0x40001054                ck_b
                0x40001055                pprz_tp
                0x4000115d                ck_a
 *fill*         0x4000115e        0x2 00
 COMMON         0x40001160       0x8a /home/lionel/paparazziProto1/var/Colibri/ap/firmwares/fixedwing/datalink.o
                0x40001160                dl_msg_available
                0x40001168                dl_buffer
                0x400011e8                datalink_time
 *fill*         0x400011ea        0x2 00
 COMMON         0x400011ec      0x15c /home/lionel/paparazziProto1/var/Colibri/ap/subsystems/ahrs.o
                0x400011ec                ahrs
                0x40001288                ahrs_mag_offset
                0x4000128c                ahrs_float
 COMMON         0x40001348      0x118 /home/lionel/paparazziProto1/var/Colibri/ap/subsystems/gps/gps_ubx.o
                0x40001348                gps_ubx
 COMMON         0x40001460       0xf4 /home/lionel/paparazziProto1/var/Colibri/ap/subsystems/gps.o
                0x40001460                gps
 COMMON         0x40001554       0x38 /home/lionel/paparazziProto1/var/Colibri/ap/subsystems/sensors/infrared.o
                0x40001554                infrared
 COMMON         0x4000158c        0x6 /home/lionel/paparazziProto1/var/Colibri/ap/subsystems/sensors/infrared_adc.o
                0x4000158c                ir_adc
                0x40001594                . = ALIGN (0x4)
 *fill*         0x40001592        0x2 00
                0x40001594                . = ALIGN (0x4)
                0x40001594                __bss_end__ = .
                0x40001594                PROVIDE (__bss_end, .)

.stack          0x40001600     0x1000 load address 0x0001ee90
                0x40002600                . = (. + STACK_SIZE)
 *fill*         0x40001600     0x1000 00
                0x40002600                PROVIDE (_stack, .)
                0x40002600                _end = .
                0x40002600                PROVIDE (end, .)

.stab
 *(.stab)

.stabstr
 *(.stabstr)

.stab.excl
 *(.stab.excl)

.stab.exclstr
 *(.stab.exclstr)

.stab.index
 *(.stab.index)

.stab.indexstr
 *(.stab.indexstr)

.comment        0x00000000       0x3c
 *(.comment)
 .comment       0x00000000       0x3c /home/lionel/paparazziProto1/var/Colibri/ap/mcu.o
                                 0x3d (size before relaxing)
 .comment       0x00000000       0x3d /home/lionel/paparazziProto1/var/Colibri/ap/arch/lpc21/mcu_arch.o
 .comment       0x00000000       0x3d /home/lionel/paparazziProto1/var/Colibri/ap/mcu_periph/sys_time.o
 .comment       0x00000000       0x3d /home/lionel/paparazziProto1/var/Colibri/ap/arch/lpc21/mcu_periph/sys_time_arch.o
 .comment       0x00000000       0x3d /home/lionel/paparazziProto1/var/Colibri/ap/./inter_mcu.o
 .comment       0x00000000       0x3d /home/lionel/paparazziProto1/var/Colibri/ap/math/pprz_geodetic_int.o
 .comment       0x00000000       0x3d /home/lionel/paparazziProto1/var/Colibri/ap/math/pprz_geodetic_float.o
 .comment       0x00000000       0x3d /home/lionel/paparazziProto1/var/Colibri/ap/math/pprz_geodetic_double.o
 .comment       0x00000000       0x3d /home/lionel/paparazziProto1/var/Colibri/ap/math/pprz_trig_int.o
 .comment       0x00000000       0x3d /home/lionel/paparazziProto1/var/Colibri/ap/mcu_periph/i2c.o
 .comment       0x00000000       0x3d /home/lionel/paparazziProto1/var/Colibri/ap/arch/lpc21/mcu_periph/i2c_arch.o
 .comment       0x00000000       0x3d /home/lionel/paparazziProto1/var/Colibri/ap/firmwares/fixedwing/main_fbw.o
 .comment       0x00000000       0x3d /home/lionel/paparazziProto1/var/Colibri/ap/subsystems/electrical.o
 .comment       0x00000000       0x3d /home/lionel/paparazziProto1/var/Colibri/ap/./commands.o
 .comment       0x00000000       0x3d /home/lionel/paparazziProto1/var/Colibri/ap/firmwares/fixedwing/fbw_downlink.o
 .comment       0x00000000       0x3d /home/lionel/paparazziProto1/var/Colibri/ap/firmwares/fixedwing/main_ap.o
 .comment       0x00000000       0x3d /home/lionel/paparazziProto1/var/Colibri/ap/./estimator.o
 .comment       0x00000000       0x3d /home/lionel/paparazziProto1/var/Colibri/ap/firmwares/fixedwing/ap_downlink.o
 .comment       0x00000000       0x3d /home/lionel/paparazziProto1/var/Colibri/ap/arch/lpc21/armVIC.o
 .comment       0x00000000       0x3d /home/lionel/paparazziProto1/var/Colibri/ap/firmwares/fixedwing/main.o
 .comment       0x00000000       0x3d /home/lionel/paparazziProto1/var/Colibri/ap/mcu_periph/uart.o
 .comment       0x00000000       0x3d /home/lionel/paparazziProto1/var/Colibri/ap/arch/lpc21/mcu_periph/uart_arch.o
 .comment       0x00000000       0x3d /home/lionel/paparazziProto1/var/Colibri/ap/subsystems/settings.o
 .comment       0x00000000       0x3d /home/lionel/paparazziProto1/var/Colibri/ap/arch/lpc21/subsystems/settings_arch.o
 .comment       0x00000000       0x3d /home/lionel/paparazziProto1/var/Colibri/ap/arch/lpc21/mcu_periph/adc_arch.o
 .comment       0x00000000       0x3d /home/lionel/paparazziProto1/var/Colibri/ap/arch/lpc21/servos_4017_hw.o
 .comment       0x00000000       0x3d /home/lionel/paparazziProto1/var/Colibri/ap/actuators.o
 .comment       0x00000000       0x3d /home/lionel/paparazziProto1/var/Colibri/ap/subsystems/radio_control.o
 .comment       0x00000000       0x3d /home/lionel/paparazziProto1/var/Colibri/ap/subsystems/radio_control/rc_datalink.o
 .comment       0x00000000       0x3d /home/lionel/paparazziProto1/var/Colibri/ap/firmwares/fixedwing/stabilization/stabilization_attitude.o
 .comment       0x00000000       0x3d /home/lionel/paparazziProto1/var/Colibri/ap/firmwares/fixedwing/guidance/guidance_v.o
 .comment       0x00000000       0x3d /home/lionel/paparazziProto1/var/Colibri/ap/subsystems/nav.o
 .comment       0x00000000       0x3d /home/lionel/paparazziProto1/var/Colibri/ap/subsystems/navigation/common_flight_plan.o
 .comment       0x00000000       0x3d /home/lionel/paparazziProto1/var/Colibri/ap/subsystems/navigation/traffic_info.o
 .comment       0x00000000       0x3d /home/lionel/paparazziProto1/var/Colibri/ap/subsystems/navigation/nav_survey_rectangle.o
 .comment       0x00000000       0x3d /home/lionel/paparazziProto1/var/Colibri/ap/subsystems/navigation/nav_line.o
 .comment       0x00000000       0x3d /home/lionel/paparazziProto1/var/Colibri/ap/subsystems/navigation/nav_cube.o
 .comment       0x00000000       0x3d /home/lionel/paparazziProto1/var/Colibri/ap/subsystems/navigation/discsurvey.o
 .comment       0x00000000       0x3d /home/lionel/paparazziProto1/var/Colibri/ap/subsystems/navigation/OSAMNav.o
 .comment       0x00000000       0x3d /home/lionel/paparazziProto1/var/Colibri/ap/subsystems/navigation/snav.o
 .comment       0x00000000       0x3d /home/lionel/paparazziProto1/var/Colibri/ap/subsystems/navigation/spiral.o
 .comment       0x00000000       0x3d /home/lionel/paparazziProto1/var/Colibri/ap/subsystems/navigation/poly_survey_adv.o
 .comment       0x00000000       0x3d /home/lionel/paparazziProto1/var/Colibri/ap/subsystems/navigation/gls.o
 .comment       0x00000000       0x3d /home/lionel/paparazziProto1/var/Colibri/ap/subsystems/navigation/border_line.o
 .comment       0x00000000       0x3d /home/lionel/paparazziProto1/var/Colibri/ap/subsystems/datalink/downlink.o
 .comment       0x00000000       0x3d /home/lionel/paparazziProto1/var/Colibri/ap/subsystems/datalink/pprz_transport.o
 .comment       0x00000000       0x3d /home/lionel/paparazziProto1/var/Colibri/ap/firmwares/fixedwing/datalink.o
 .comment       0x00000000       0x3d /home/lionel/paparazziProto1/var/Colibri/ap/subsystems/ahrs.o
 .comment       0x00000000       0x3d /home/lionel/paparazziProto1/var/Colibri/ap/subsystems/ahrs/ahrs_infrared.o
 .comment       0x00000000       0x3d /home/lionel/paparazziProto1/var/Colibri/ap/subsystems/gps/gps_ubx.o
 .comment       0x00000000       0x3d /home/lionel/paparazziProto1/var/Colibri/ap/subsystems/gps.o
 .comment       0x00000000       0x3d /home/lionel/paparazziProto1/var/Colibri/ap/subsystems/sensors/infrared.o
 .comment       0x00000000       0x3d /home/lionel/paparazziProto1/var/Colibri/ap/subsystems/sensors/infrared_adc.o
 .comment       0x00000000       0x3d /opt/paparazzi/arm-multilib/lib/gcc/arm-none-eabi/4.6.2/../../../../arm-none-eabi/lib/thumb/libm.a(lib_a-s_atan.o)
 .comment       0x00000000       0x3d /opt/paparazzi/arm-multilib/lib/gcc/arm-none-eabi/4.6.2/../../../../arm-none-eabi/lib/thumb/libm.a(lib_a-s_cos.o)
 .comment       0x00000000       0x3d /opt/paparazzi/arm-multilib/lib/gcc/arm-none-eabi/4.6.2/../../../../arm-none-eabi/lib/thumb/libm.a(lib_a-s_fabs.o)
 .comment       0x00000000       0x3d /opt/paparazzi/arm-multilib/lib/gcc/arm-none-eabi/4.6.2/../../../../arm-none-eabi/lib/thumb/libm.a(lib_a-s_rint.o)
 .comment       0x00000000       0x3d /opt/paparazzi/arm-multilib/lib/gcc/arm-none-eabi/4.6.2/../../../../arm-none-eabi/lib/thumb/libm.a(lib_a-s_sin.o)
 .comment       0x00000000       0x3d /opt/paparazzi/arm-multilib/lib/gcc/arm-none-eabi/4.6.2/../../../../arm-none-eabi/lib/thumb/libm.a(lib_a-s_tan.o)
 .comment       0x00000000       0x3d /opt/paparazzi/arm-multilib/lib/gcc/arm-none-eabi/4.6.2/../../../../arm-none-eabi/lib/thumb/libm.a(lib_a-sf_atan.o)
 .comment       0x00000000       0x3d /opt/paparazzi/arm-multilib/lib/gcc/arm-none-eabi/4.6.2/../../../../arm-none-eabi/lib/thumb/libm.a(lib_a-sf_cos.o)
 .comment       0x00000000       0x3d /opt/paparazzi/arm-multilib/lib/gcc/arm-none-eabi/4.6.2/../../../../arm-none-eabi/lib/thumb/libm.a(lib_a-sf_fabs.o)
 .comment       0x00000000       0x3d /opt/paparazzi/arm-multilib/lib/gcc/arm-none-eabi/4.6.2/../../../../arm-none-eabi/lib/thumb/libm.a(lib_a-sf_sin.o)
 .comment       0x00000000       0x3d /opt/paparazzi/arm-multilib/lib/gcc/arm-none-eabi/4.6.2/../../../../arm-none-eabi/lib/thumb/libm.a(lib_a-sf_tan.o)
 .comment       0x00000000       0x3d /opt/paparazzi/arm-multilib/lib/gcc/arm-none-eabi/4.6.2/../../../../arm-none-eabi/lib/thumb/libm.a(lib_a-w_acos.o)
 .comment       0x00000000       0x3d /opt/paparazzi/arm-multilib/lib/gcc/arm-none-eabi/4.6.2/../../../../arm-none-eabi/lib/thumb/libm.a(lib_a-w_asin.o)
 .comment       0x00000000       0x3d /opt/paparazzi/arm-multilib/lib/gcc/arm-none-eabi/4.6.2/../../../../arm-none-eabi/lib/thumb/libm.a(lib_a-w_atan2.o)
 .comment       0x00000000       0x3d /opt/paparazzi/arm-multilib/lib/gcc/arm-none-eabi/4.6.2/../../../../arm-none-eabi/lib/thumb/libm.a(lib_a-w_cosh.o)
 .comment       0x00000000       0x3d /opt/paparazzi/arm-multilib/lib/gcc/arm-none-eabi/4.6.2/../../../../arm-none-eabi/lib/thumb/libm.a(lib_a-w_exp.o)
 .comment       0x00000000       0x3d /opt/paparazzi/arm-multilib/lib/gcc/arm-none-eabi/4.6.2/../../../../arm-none-eabi/lib/thumb/libm.a(lib_a-w_log.o)
 .comment       0x00000000       0x3d /opt/paparazzi/arm-multilib/lib/gcc/arm-none-eabi/4.6.2/../../../../arm-none-eabi/lib/thumb/libm.a(lib_a-w_pow.o)
 .comment       0x00000000       0x3d /opt/paparazzi/arm-multilib/lib/gcc/arm-none-eabi/4.6.2/../../../../arm-none-eabi/lib/thumb/libm.a(lib_a-w_sinh.o)
 .comment       0x00000000       0x3d /opt/paparazzi/arm-multilib/lib/gcc/arm-none-eabi/4.6.2/../../../../arm-none-eabi/lib/thumb/libm.a(lib_a-w_sqrt.o)
 .comment       0x00000000       0x3d /opt/paparazzi/arm-multilib/lib/gcc/arm-none-eabi/4.6.2/../../../../arm-none-eabi/lib/thumb/libm.a(lib_a-wf_atan2.o)
 .comment       0x00000000       0x3d /opt/paparazzi/arm-multilib/lib/gcc/arm-none-eabi/4.6.2/../../../../arm-none-eabi/lib/thumb/libm.a(lib_a-wf_pow.o)
 .comment       0x00000000       0x3d /opt/paparazzi/arm-multilib/lib/gcc/arm-none-eabi/4.6.2/../../../../arm-none-eabi/lib/thumb/libm.a(lib_a-wf_sqrt.o)
 .comment       0x00000000       0x3d /opt/paparazzi/arm-multilib/lib/gcc/arm-none-eabi/4.6.2/../../../../arm-none-eabi/lib/thumb/libm.a(lib_a-e_acos.o)
 .comment       0x00000000       0x3d /opt/paparazzi/arm-multilib/lib/gcc/arm-none-eabi/4.6.2/../../../../arm-none-eabi/lib/thumb/libm.a(lib_a-e_asin.o)
 .comment       0x00000000       0x3d /opt/paparazzi/arm-multilib/lib/gcc/arm-none-eabi/4.6.2/../../../../arm-none-eabi/lib/thumb/libm.a(lib_a-e_atan2.o)
 .comment       0x00000000       0x3d /opt/paparazzi/arm-multilib/lib/gcc/arm-none-eabi/4.6.2/../../../../arm-none-eabi/lib/thumb/libm.a(lib_a-e_cosh.o)
 .comment       0x00000000       0x3d /opt/paparazzi/arm-multilib/lib/gcc/arm-none-eabi/4.6.2/../../../../arm-none-eabi/lib/thumb/libm.a(lib_a-e_exp.o)
 .comment       0x00000000       0x3d /opt/paparazzi/arm-multilib/lib/gcc/arm-none-eabi/4.6.2/../../../../arm-none-eabi/lib/thumb/libm.a(lib_a-e_log.o)
 .comment       0x00000000       0x3d /opt/paparazzi/arm-multilib/lib/gcc/arm-none-eabi/4.6.2/../../../../arm-none-eabi/lib/thumb/libm.a(lib_a-e_pow.o)
 .comment       0x00000000       0x3d /opt/paparazzi/arm-multilib/lib/gcc/arm-none-eabi/4.6.2/../../../../arm-none-eabi/lib/thumb/libm.a(lib_a-e_rem_pio2.o)
 .comment       0x00000000       0x3d /opt/paparazzi/arm-multilib/lib/gcc/arm-none-eabi/4.6.2/../../../../arm-none-eabi/lib/thumb/libm.a(lib_a-e_sinh.o)
 .comment       0x00000000       0x3d /opt/paparazzi/arm-multilib/lib/gcc/arm-none-eabi/4.6.2/../../../../arm-none-eabi/lib/thumb/libm.a(lib_a-e_sqrt.o)
 .comment       0x00000000       0x3d /opt/paparazzi/arm-multilib/lib/gcc/arm-none-eabi/4.6.2/../../../../arm-none-eabi/lib/thumb/libm.a(lib_a-ef_atan2.o)
 .comment       0x00000000       0x3d /opt/paparazzi/arm-multilib/lib/gcc/arm-none-eabi/4.6.2/../../../../arm-none-eabi/lib/thumb/libm.a(lib_a-ef_pow.o)
 .comment       0x00000000       0x3d /opt/paparazzi/arm-multilib/lib/gcc/arm-none-eabi/4.6.2/../../../../arm-none-eabi/lib/thumb/libm.a(lib_a-ef_rem_pio2.o)
 .comment       0x00000000       0x3d /opt/paparazzi/arm-multilib/lib/gcc/arm-none-eabi/4.6.2/../../../../arm-none-eabi/lib/thumb/libm.a(lib_a-ef_sqrt.o)
 .comment       0x00000000       0x3d /opt/paparazzi/arm-multilib/lib/gcc/arm-none-eabi/4.6.2/../../../../arm-none-eabi/lib/thumb/libm.a(lib_a-k_cos.o)
 .comment       0x00000000       0x3d /opt/paparazzi/arm-multilib/lib/gcc/arm-none-eabi/4.6.2/../../../../arm-none-eabi/lib/thumb/libm.a(lib_a-k_rem_pio2.o)
 .comment       0x00000000       0x3d /opt/paparazzi/arm-multilib/lib/gcc/arm-none-eabi/4.6.2/../../../../arm-none-eabi/lib/thumb/libm.a(lib_a-k_sin.o)
 .comment       0x00000000       0x3d /opt/paparazzi/arm-multilib/lib/gcc/arm-none-eabi/4.6.2/../../../../arm-none-eabi/lib/thumb/libm.a(lib_a-k_tan.o)
 .comment       0x00000000       0x3d /opt/paparazzi/arm-multilib/lib/gcc/arm-none-eabi/4.6.2/../../../../arm-none-eabi/lib/thumb/libm.a(lib_a-kf_cos.o)
 .comment       0x00000000       0x3d /opt/paparazzi/arm-multilib/lib/gcc/arm-none-eabi/4.6.2/../../../../arm-none-eabi/lib/thumb/libm.a(lib_a-kf_rem_pio2.o)
 .comment       0x00000000       0x3d /opt/paparazzi/arm-multilib/lib/gcc/arm-none-eabi/4.6.2/../../../../arm-none-eabi/lib/thumb/libm.a(lib_a-kf_sin.o)
 .comment       0x00000000       0x3d /opt/paparazzi/arm-multilib/lib/gcc/arm-none-eabi/4.6.2/../../../../arm-none-eabi/lib/thumb/libm.a(lib_a-kf_tan.o)
 .comment       0x00000000       0x3d /opt/paparazzi/arm-multilib/lib/gcc/arm-none-eabi/4.6.2/../../../../arm-none-eabi/lib/thumb/libm.a(lib_a-s_expm1.o)
 .comment       0x00000000       0x3d /opt/paparazzi/arm-multilib/lib/gcc/arm-none-eabi/4.6.2/../../../../arm-none-eabi/lib/thumb/libm.a(lib_a-s_finite.o)
 .comment       0x00000000       0x3d /opt/paparazzi/arm-multilib/lib/gcc/arm-none-eabi/4.6.2/../../../../arm-none-eabi/lib/thumb/libm.a(lib_a-s_floor.o)
 .comment       0x00000000       0x3d /opt/paparazzi/arm-multilib/lib/gcc/arm-none-eabi/4.6.2/../../../../arm-none-eabi/lib/thumb/libm.a(lib_a-s_fpclassify.o)
 .comment       0x00000000       0x3d /opt/paparazzi/arm-multilib/lib/gcc/arm-none-eabi/4.6.2/../../../../arm-none-eabi/lib/thumb/libm.a(lib_a-s_lib_ver.o)
 .comment       0x00000000       0x3d /opt/paparazzi/arm-multilib/lib/gcc/arm-none-eabi/4.6.2/../../../../arm-none-eabi/lib/thumb/libm.a(lib_a-s_matherr.o)
 .comment       0x00000000       0x3d /opt/paparazzi/arm-multilib/lib/gcc/arm-none-eabi/4.6.2/../../../../arm-none-eabi/lib/thumb/libm.a(lib_a-s_nan.o)
 .comment       0x00000000       0x3d /opt/paparazzi/arm-multilib/lib/gcc/arm-none-eabi/4.6.2/../../../../arm-none-eabi/lib/thumb/libm.a(lib_a-s_scalbn.o)
 .comment       0x00000000       0x3d /opt/paparazzi/arm-multilib/lib/gcc/arm-none-eabi/4.6.2/../../../../arm-none-eabi/lib/thumb/libm.a(lib_a-sf_finite.o)
 .comment       0x00000000       0x3d /opt/paparazzi/arm-multilib/lib/gcc/arm-none-eabi/4.6.2/../../../../arm-none-eabi/lib/thumb/libm.a(lib_a-sf_floor.o)
 .comment       0x00000000       0x3d /opt/paparazzi/arm-multilib/lib/gcc/arm-none-eabi/4.6.2/../../../../arm-none-eabi/lib/thumb/libm.a(lib_a-sf_fpclassify.o)
 .comment       0x00000000       0x3d /opt/paparazzi/arm-multilib/lib/gcc/arm-none-eabi/4.6.2/../../../../arm-none-eabi/lib/thumb/libm.a(lib_a-sf_nan.o)
 .comment       0x00000000       0x3d /opt/paparazzi/arm-multilib/lib/gcc/arm-none-eabi/4.6.2/../../../../arm-none-eabi/lib/thumb/libm.a(lib_a-sf_scalbn.o)
 .comment       0x00000000       0x3d /opt/paparazzi/arm-multilib/lib/gcc/arm-none-eabi/4.6.2/../../../../arm-none-eabi/lib/thumb/libm.a(lib_a-s_copysign.o)
 .comment       0x00000000       0x3d /opt/paparazzi/arm-multilib/lib/gcc/arm-none-eabi/4.6.2/../../../../arm-none-eabi/lib/thumb/libm.a(lib_a-sf_copysign.o)
 .comment       0x00000000       0x3d /opt/paparazzi/arm-multilib/lib/gcc/arm-none-eabi/4.6.2/../../../../arm-none-eabi/lib/thumb/libc.a(lib_a-errno.o)
 .comment       0x00000000       0x3d /opt/paparazzi/arm-multilib/lib/gcc/arm-none-eabi/4.6.2/../../../../arm-none-eabi/lib/thumb/libc.a(lib_a-impure.o)

.ARM.attributes
                0x00000000       0x2e
 .ARM.attributes
                0x00000000       0x22 /home/lionel/paparazziProto1/var/Colibri/ap/crt0.o
 .ARM.attributes
                0x00000022       0x32 /home/lionel/paparazziProto1/var/Colibri/ap/mcu.o
 .ARM.attributes
                0x00000054       0x32 /home/lionel/paparazziProto1/var/Colibri/ap/arch/lpc21/mcu_arch.o
 .ARM.attributes
                0x00000086       0x32 /home/lionel/paparazziProto1/var/Colibri/ap/mcu_periph/sys_time.o
 .ARM.attributes
                0x000000b8       0x32 /home/lionel/paparazziProto1/var/Colibri/ap/arch/lpc21/mcu_periph/sys_time_arch.o
 .ARM.attributes
                0x000000ea       0x32 /home/lionel/paparazziProto1/var/Colibri/ap/./inter_mcu.o
 .ARM.attributes
                0x0000011c       0x32 /home/lionel/paparazziProto1/var/Colibri/ap/math/pprz_geodetic_int.o
 .ARM.attributes
                0x0000014e       0x32 /home/lionel/paparazziProto1/var/Colibri/ap/math/pprz_geodetic_float.o
 .ARM.attributes
                0x00000180       0x32 /home/lionel/paparazziProto1/var/Colibri/ap/math/pprz_geodetic_double.o
 .ARM.attributes
                0x000001b2       0x32 /home/lionel/paparazziProto1/var/Colibri/ap/math/pprz_trig_int.o
 .ARM.attributes
                0x000001e4       0x32 /home/lionel/paparazziProto1/var/Colibri/ap/mcu_periph/i2c.o
 .ARM.attributes
                0x00000216       0x32 /home/lionel/paparazziProto1/var/Colibri/ap/arch/lpc21/mcu_periph/i2c_arch.o
 .ARM.attributes
                0x00000248       0x32 /home/lionel/paparazziProto1/var/Colibri/ap/firmwares/fixedwing/main_fbw.o
 .ARM.attributes
                0x0000027a       0x32 /home/lionel/paparazziProto1/var/Colibri/ap/subsystems/electrical.o
 .ARM.attributes
                0x000002ac       0x32 /home/lionel/paparazziProto1/var/Colibri/ap/./commands.o
 .ARM.attributes
                0x000002de       0x32 /home/lionel/paparazziProto1/var/Colibri/ap/firmwares/fixedwing/fbw_downlink.o
 .ARM.attributes
                0x00000310       0x32 /home/lionel/paparazziProto1/var/Colibri/ap/firmwares/fixedwing/main_ap.o
 .ARM.attributes
                0x00000342       0x32 /home/lionel/paparazziProto1/var/Colibri/ap/./estimator.o
 .ARM.attributes
                0x00000374       0x32 /home/lionel/paparazziProto1/var/Colibri/ap/firmwares/fixedwing/ap_downlink.o
 .ARM.attributes
                0x000003a6       0x32 /home/lionel/paparazziProto1/var/Colibri/ap/arch/lpc21/armVIC.o
 .ARM.attributes
                0x000003d8       0x32 /home/lionel/paparazziProto1/var/Colibri/ap/firmwares/fixedwing/main.o
 .ARM.attributes
                0x0000040a       0x32 /home/lionel/paparazziProto1/var/Colibri/ap/mcu_periph/uart.o
 .ARM.attributes
                0x0000043c       0x32 /home/lionel/paparazziProto1/var/Colibri/ap/arch/lpc21/mcu_periph/uart_arch.o
 .ARM.attributes
                0x0000046e       0x32 /home/lionel/paparazziProto1/var/Colibri/ap/subsystems/settings.o
 .ARM.attributes
                0x000004a0       0x32 /home/lionel/paparazziProto1/var/Colibri/ap/arch/lpc21/subsystems/settings_arch.o
 .ARM.attributes
                0x000004d2       0x32 /home/lionel/paparazziProto1/var/Colibri/ap/arch/lpc21/mcu_periph/adc_arch.o
 .ARM.attributes
                0x00000504       0x32 /home/lionel/paparazziProto1/var/Colibri/ap/arch/lpc21/servos_4017_hw.o
 .ARM.attributes
                0x00000536       0x32 /home/lionel/paparazziProto1/var/Colibri/ap/actuators.o
 .ARM.attributes
                0x00000568       0x32 /home/lionel/paparazziProto1/var/Colibri/ap/subsystems/radio_control.o
 .ARM.attributes
                0x0000059a       0x32 /home/lionel/paparazziProto1/var/Colibri/ap/subsystems/radio_control/rc_datalink.o
 .ARM.attributes
                0x000005cc       0x32 /home/lionel/paparazziProto1/var/Colibri/ap/firmwares/fixedwing/stabilization/stabilization_attitude.o
 .ARM.attributes
                0x000005fe       0x32 /home/lionel/paparazziProto1/var/Colibri/ap/firmwares/fixedwing/guidance/guidance_v.o
 .ARM.attributes
                0x00000630       0x32 /home/lionel/paparazziProto1/var/Colibri/ap/subsystems/nav.o
 .ARM.attributes
                0x00000662       0x32 /home/lionel/paparazziProto1/var/Colibri/ap/subsystems/navigation/common_flight_plan.o
 .ARM.attributes
                0x00000694       0x32 /home/lionel/paparazziProto1/var/Colibri/ap/subsystems/navigation/traffic_info.o
 .ARM.attributes
                0x000006c6       0x32 /home/lionel/paparazziProto1/var/Colibri/ap/subsystems/navigation/nav_survey_rectangle.o
 .ARM.attributes
                0x000006f8       0x32 /home/lionel/paparazziProto1/var/Colibri/ap/subsystems/navigation/nav_line.o
 .ARM.attributes
                0x0000072a       0x32 /home/lionel/paparazziProto1/var/Colibri/ap/subsystems/navigation/nav_cube.o
 .ARM.attributes
                0x0000075c       0x32 /home/lionel/paparazziProto1/var/Colibri/ap/subsystems/navigation/discsurvey.o
 .ARM.attributes
                0x0000078e       0x32 /home/lionel/paparazziProto1/var/Colibri/ap/subsystems/navigation/OSAMNav.o
 .ARM.attributes
                0x000007c0       0x32 /home/lionel/paparazziProto1/var/Colibri/ap/subsystems/navigation/snav.o
 .ARM.attributes
                0x000007f2       0x32 /home/lionel/paparazziProto1/var/Colibri/ap/subsystems/navigation/spiral.o
 .ARM.attributes
                0x00000824       0x32 /home/lionel/paparazziProto1/var/Colibri/ap/subsystems/navigation/poly_survey_adv.o
 .ARM.attributes
                0x00000856       0x32 /home/lionel/paparazziProto1/var/Colibri/ap/subsystems/navigation/gls.o
 .ARM.attributes
                0x00000888       0x32 /home/lionel/paparazziProto1/var/Colibri/ap/subsystems/navigation/border_line.o
 .ARM.attributes
                0x000008ba       0x32 /home/lionel/paparazziProto1/var/Colibri/ap/subsystems/datalink/downlink.o
 .ARM.attributes
                0x000008ec       0x32 /home/lionel/paparazziProto1/var/Colibri/ap/subsystems/datalink/pprz_transport.o
 .ARM.attributes
                0x0000091e       0x32 /home/lionel/paparazziProto1/var/Colibri/ap/firmwares/fixedwing/datalink.o
 .ARM.attributes
                0x00000950       0x32 /home/lionel/paparazziProto1/var/Colibri/ap/subsystems/ahrs.o
 .ARM.attributes
                0x00000982       0x32 /home/lionel/paparazziProto1/var/Colibri/ap/subsystems/ahrs/ahrs_infrared.o
 .ARM.attributes
                0x000009b4       0x32 /home/lionel/paparazziProto1/var/Colibri/ap/subsystems/gps/gps_ubx.o
 .ARM.attributes
                0x000009e6       0x32 /home/lionel/paparazziProto1/var/Colibri/ap/subsystems/gps.o
 .ARM.attributes
                0x00000a18       0x32 /home/lionel/paparazziProto1/var/Colibri/ap/subsystems/sensors/infrared.o
 .ARM.attributes
                0x00000a4a       0x32 /home/lionel/paparazziProto1/var/Colibri/ap/subsystems/sensors/infrared_adc.o
 .ARM.attributes
                0x00000a7c       0x32 /opt/paparazzi/arm-multilib/lib/gcc/arm-none-eabi/4.6.2/../../../../arm-none-eabi/lib/thumb/libm.a(lib_a-s_atan.o)
 .ARM.attributes
                0x00000aae       0x32 /opt/paparazzi/arm-multilib/lib/gcc/arm-none-eabi/4.6.2/../../../../arm-none-eabi/lib/thumb/libm.a(lib_a-s_cos.o)
 .ARM.attributes
                0x00000ae0       0x32 /opt/paparazzi/arm-multilib/lib/gcc/arm-none-eabi/4.6.2/../../../../arm-none-eabi/lib/thumb/libm.a(lib_a-s_fabs.o)
 .ARM.attributes
                0x00000b12       0x32 /opt/paparazzi/arm-multilib/lib/gcc/arm-none-eabi/4.6.2/../../../../arm-none-eabi/lib/thumb/libm.a(lib_a-s_rint.o)
 .ARM.attributes
                0x00000b44       0x32 /opt/paparazzi/arm-multilib/lib/gcc/arm-none-eabi/4.6.2/../../../../arm-none-eabi/lib/thumb/libm.a(lib_a-s_sin.o)
 .ARM.attributes
                0x00000b76       0x32 /opt/paparazzi/arm-multilib/lib/gcc/arm-none-eabi/4.6.2/../../../../arm-none-eabi/lib/thumb/libm.a(lib_a-s_tan.o)
 .ARM.attributes
                0x00000ba8       0x32 /opt/paparazzi/arm-multilib/lib/gcc/arm-none-eabi/4.6.2/../../../../arm-none-eabi/lib/thumb/libm.a(lib_a-sf_atan.o)
 .ARM.attributes
                0x00000bda       0x32 /opt/paparazzi/arm-multilib/lib/gcc/arm-none-eabi/4.6.2/../../../../arm-none-eabi/lib/thumb/libm.a(lib_a-sf_cos.o)
 .ARM.attributes
                0x00000c0c       0x32 /opt/paparazzi/arm-multilib/lib/gcc/arm-none-eabi/4.6.2/../../../../arm-none-eabi/lib/thumb/libm.a(lib_a-sf_fabs.o)
 .ARM.attributes
                0x00000c3e       0x32 /opt/paparazzi/arm-multilib/lib/gcc/arm-none-eabi/4.6.2/../../../../arm-none-eabi/lib/thumb/libm.a(lib_a-sf_sin.o)
 .ARM.attributes
                0x00000c70       0x32 /opt/paparazzi/arm-multilib/lib/gcc/arm-none-eabi/4.6.2/../../../../arm-none-eabi/lib/thumb/libm.a(lib_a-sf_tan.o)
 .ARM.attributes
                0x00000ca2       0x32 /opt/paparazzi/arm-multilib/lib/gcc/arm-none-eabi/4.6.2/../../../../arm-none-eabi/lib/thumb/libm.a(lib_a-w_acos.o)
 .ARM.attributes
                0x00000cd4       0x32 /opt/paparazzi/arm-multilib/lib/gcc/arm-none-eabi/4.6.2/../../../../arm-none-eabi/lib/thumb/libm.a(lib_a-w_asin.o)
 .ARM.attributes
                0x00000d06       0x32 /opt/paparazzi/arm-multilib/lib/gcc/arm-none-eabi/4.6.2/../../../../arm-none-eabi/lib/thumb/libm.a(lib_a-w_atan2.o)
 .ARM.attributes
                0x00000d38       0x32 /opt/paparazzi/arm-multilib/lib/gcc/arm-none-eabi/4.6.2/../../../../arm-none-eabi/lib/thumb/libm.a(lib_a-w_cosh.o)
 .ARM.attributes
                0x00000d6a       0x32 /opt/paparazzi/arm-multilib/lib/gcc/arm-none-eabi/4.6.2/../../../../arm-none-eabi/lib/thumb/libm.a(lib_a-w_exp.o)
 .ARM.attributes
                0x00000d9c       0x32 /opt/paparazzi/arm-multilib/lib/gcc/arm-none-eabi/4.6.2/../../../../arm-none-eabi/lib/thumb/libm.a(lib_a-w_log.o)
 .ARM.attributes
                0x00000dce       0x32 /opt/paparazzi/arm-multilib/lib/gcc/arm-none-eabi/4.6.2/../../../../arm-none-eabi/lib/thumb/libm.a(lib_a-w_pow.o)
 .ARM.attributes
                0x00000e00       0x32 /opt/paparazzi/arm-multilib/lib/gcc/arm-none-eabi/4.6.2/../../../../arm-none-eabi/lib/thumb/libm.a(lib_a-w_sinh.o)
 .ARM.attributes
                0x00000e32       0x32 /opt/paparazzi/arm-multilib/lib/gcc/arm-none-eabi/4.6.2/../../../../arm-none-eabi/lib/thumb/libm.a(lib_a-w_sqrt.o)
 .ARM.attributes
                0x00000e64       0x32 /opt/paparazzi/arm-multilib/lib/gcc/arm-none-eabi/4.6.2/../../../../arm-none-eabi/lib/thumb/libm.a(lib_a-wf_atan2.o)
 .ARM.attributes
                0x00000e96       0x32 /opt/paparazzi/arm-multilib/lib/gcc/arm-none-eabi/4.6.2/../../../../arm-none-eabi/lib/thumb/libm.a(lib_a-wf_pow.o)
 .ARM.attributes
                0x00000ec8       0x32 /opt/paparazzi/arm-multilib/lib/gcc/arm-none-eabi/4.6.2/../../../../arm-none-eabi/lib/thumb/libm.a(lib_a-wf_sqrt.o)
 .ARM.attributes
                0x00000efa       0x32 /opt/paparazzi/arm-multilib/lib/gcc/arm-none-eabi/4.6.2/../../../../arm-none-eabi/lib/thumb/libm.a(lib_a-e_acos.o)
 .ARM.attributes
                0x00000f2c       0x32 /opt/paparazzi/arm-multilib/lib/gcc/arm-none-eabi/4.6.2/../../../../arm-none-eabi/lib/thumb/libm.a(lib_a-e_asin.o)
 .ARM.attributes
                0x00000f5e       0x32 /opt/paparazzi/arm-multilib/lib/gcc/arm-none-eabi/4.6.2/../../../../arm-none-eabi/lib/thumb/libm.a(lib_a-e_atan2.o)
 .ARM.attributes
                0x00000f90       0x32 /opt/paparazzi/arm-multilib/lib/gcc/arm-none-eabi/4.6.2/../../../../arm-none-eabi/lib/thumb/libm.a(lib_a-e_cosh.o)
 .ARM.attributes
                0x00000fc2       0x32 /opt/paparazzi/arm-multilib/lib/gcc/arm-none-eabi/4.6.2/../../../../arm-none-eabi/lib/thumb/libm.a(lib_a-e_exp.o)
 .ARM.attributes
                0x00000ff4       0x32 /opt/paparazzi/arm-multilib/lib/gcc/arm-none-eabi/4.6.2/../../../../arm-none-eabi/lib/thumb/libm.a(lib_a-e_log.o)
 .ARM.attributes
                0x00001026       0x32 /opt/paparazzi/arm-multilib/lib/gcc/arm-none-eabi/4.6.2/../../../../arm-none-eabi/lib/thumb/libm.a(lib_a-e_pow.o)
 .ARM.attributes
                0x00001058       0x32 /opt/paparazzi/arm-multilib/lib/gcc/arm-none-eabi/4.6.2/../../../../arm-none-eabi/lib/thumb/libm.a(lib_a-e_rem_pio2.o)
 .ARM.attributes
                0x0000108a       0x32 /opt/paparazzi/arm-multilib/lib/gcc/arm-none-eabi/4.6.2/../../../../arm-none-eabi/lib/thumb/libm.a(lib_a-e_sinh.o)
 .ARM.attributes
                0x000010bc       0x32 /opt/paparazzi/arm-multilib/lib/gcc/arm-none-eabi/4.6.2/../../../../arm-none-eabi/lib/thumb/libm.a(lib_a-e_sqrt.o)
 .ARM.attributes
                0x000010ee       0x32 /opt/paparazzi/arm-multilib/lib/gcc/arm-none-eabi/4.6.2/../../../../arm-none-eabi/lib/thumb/libm.a(lib_a-ef_atan2.o)
 .ARM.attributes
                0x00001120       0x32 /opt/paparazzi/arm-multilib/lib/gcc/arm-none-eabi/4.6.2/../../../../arm-none-eabi/lib/thumb/libm.a(lib_a-ef_pow.o)
 .ARM.attributes
                0x00001152       0x32 /opt/paparazzi/arm-multilib/lib/gcc/arm-none-eabi/4.6.2/../../../../arm-none-eabi/lib/thumb/libm.a(lib_a-ef_rem_pio2.o)
 .ARM.attributes
                0x00001184       0x32 /opt/paparazzi/arm-multilib/lib/gcc/arm-none-eabi/4.6.2/../../../../arm-none-eabi/lib/thumb/libm.a(lib_a-ef_sqrt.o)
 .ARM.attributes
                0x000011b6       0x32 /opt/paparazzi/arm-multilib/lib/gcc/arm-none-eabi/4.6.2/../../../../arm-none-eabi/lib/thumb/libm.a(lib_a-k_cos.o)
 .ARM.attributes
                0x000011e8       0x32 /opt/paparazzi/arm-multilib/lib/gcc/arm-none-eabi/4.6.2/../../../../arm-none-eabi/lib/thumb/libm.a(lib_a-k_rem_pio2.o)
 .ARM.attributes
                0x0000121a       0x32 /opt/paparazzi/arm-multilib/lib/gcc/arm-none-eabi/4.6.2/../../../../arm-none-eabi/lib/thumb/libm.a(lib_a-k_sin.o)
 .ARM.attributes
                0x0000124c       0x32 /opt/paparazzi/arm-multilib/lib/gcc/arm-none-eabi/4.6.2/../../../../arm-none-eabi/lib/thumb/libm.a(lib_a-k_tan.o)
 .ARM.attributes
                0x0000127e       0x32 /opt/paparazzi/arm-multilib/lib/gcc/arm-none-eabi/4.6.2/../../../../arm-none-eabi/lib/thumb/libm.a(lib_a-kf_cos.o)
 .ARM.attributes
                0x000012b0       0x32 /opt/paparazzi/arm-multilib/lib/gcc/arm-none-eabi/4.6.2/../../../../arm-none-eabi/lib/thumb/libm.a(lib_a-kf_rem_pio2.o)
 .ARM.attributes
                0x000012e2       0x32 /opt/paparazzi/arm-multilib/lib/gcc/arm-none-eabi/4.6.2/../../../../arm-none-eabi/lib/thumb/libm.a(lib_a-kf_sin.o)
 .ARM.attributes
                0x00001314       0x32 /opt/paparazzi/arm-multilib/lib/gcc/arm-none-eabi/4.6.2/../../../../arm-none-eabi/lib/thumb/libm.a(lib_a-kf_tan.o)
 .ARM.attributes
                0x00001346       0x32 /opt/paparazzi/arm-multilib/lib/gcc/arm-none-eabi/4.6.2/../../../../arm-none-eabi/lib/thumb/libm.a(lib_a-s_expm1.o)
 .ARM.attributes
                0x00001378       0x32 /opt/paparazzi/arm-multilib/lib/gcc/arm-none-eabi/4.6.2/../../../../arm-none-eabi/lib/thumb/libm.a(lib_a-s_finite.o)
 .ARM.attributes
                0x000013aa       0x32 /opt/paparazzi/arm-multilib/lib/gcc/arm-none-eabi/4.6.2/../../../../arm-none-eabi/lib/thumb/libm.a(lib_a-s_floor.o)
 .ARM.attributes
                0x000013dc       0x32 /opt/paparazzi/arm-multilib/lib/gcc/arm-none-eabi/4.6.2/../../../../arm-none-eabi/lib/thumb/libm.a(lib_a-s_fpclassify.o)
 .ARM.attributes
                0x0000140e       0x32 /opt/paparazzi/arm-multilib/lib/gcc/arm-none-eabi/4.6.2/../../../../arm-none-eabi/lib/thumb/libm.a(lib_a-s_lib_ver.o)
 .ARM.attributes
                0x00001440       0x32 /opt/paparazzi/arm-multilib/lib/gcc/arm-none-eabi/4.6.2/../../../../arm-none-eabi/lib/thumb/libm.a(lib_a-s_matherr.o)
 .ARM.attributes
                0x00001472       0x32 /opt/paparazzi/arm-multilib/lib/gcc/arm-none-eabi/4.6.2/../../../../arm-none-eabi/lib/thumb/libm.a(lib_a-s_nan.o)
 .ARM.attributes
                0x000014a4       0x32 /opt/paparazzi/arm-multilib/lib/gcc/arm-none-eabi/4.6.2/../../../../arm-none-eabi/lib/thumb/libm.a(lib_a-s_scalbn.o)
 .ARM.attributes
                0x000014d6       0x32 /opt/paparazzi/arm-multilib/lib/gcc/arm-none-eabi/4.6.2/../../../../arm-none-eabi/lib/thumb/libm.a(lib_a-sf_finite.o)
 .ARM.attributes
                0x00001508       0x32 /opt/paparazzi/arm-multilib/lib/gcc/arm-none-eabi/4.6.2/../../../../arm-none-eabi/lib/thumb/libm.a(lib_a-sf_floor.o)
 .ARM.attributes
                0x0000153a       0x32 /opt/paparazzi/arm-multilib/lib/gcc/arm-none-eabi/4.6.2/../../../../arm-none-eabi/lib/thumb/libm.a(lib_a-sf_fpclassify.o)
 .ARM.attributes
                0x0000156c       0x32 /opt/paparazzi/arm-multilib/lib/gcc/arm-none-eabi/4.6.2/../../../../arm-none-eabi/lib/thumb/libm.a(lib_a-sf_nan.o)
 .ARM.attributes
                0x0000159e       0x32 /opt/paparazzi/arm-multilib/lib/gcc/arm-none-eabi/4.6.2/../../../../arm-none-eabi/lib/thumb/libm.a(lib_a-sf_scalbn.o)
 .ARM.attributes
                0x000015d0       0x32 /opt/paparazzi/arm-multilib/lib/gcc/arm-none-eabi/4.6.2/../../../../arm-none-eabi/lib/thumb/libm.a(lib_a-s_copysign.o)
 .ARM.attributes
                0x00001602       0x32 /opt/paparazzi/arm-multilib/lib/gcc/arm-none-eabi/4.6.2/../../../../arm-none-eabi/lib/thumb/libm.a(lib_a-sf_copysign.o)
 .ARM.attributes
                0x00001634       0x32 /opt/paparazzi/arm-multilib/lib/gcc/arm-none-eabi/4.6.2/../../../../arm-none-eabi/lib/thumb/libc.a(lib_a-errno.o)
 .ARM.attributes
                0x00001666       0x32 /opt/paparazzi/arm-multilib/lib/gcc/arm-none-eabi/4.6.2/../../../../arm-none-eabi/lib/thumb/libc.a(lib_a-impure.o)
 .ARM.attributes
                0x00001698       0x18 /opt/paparazzi/arm-multilib/lib/gcc/arm-none-eabi/4.6.2/thumb/libgcc.a(_thumb1_case_uqi.o)
 .ARM.attributes
                0x000016b0       0x1a /opt/paparazzi/arm-multilib/lib/gcc/arm-none-eabi/4.6.2/thumb/libgcc.a(_udivsi3.o)
 .ARM.attributes
                0x000016ca       0x1a /opt/paparazzi/arm-multilib/lib/gcc/arm-none-eabi/4.6.2/thumb/libgcc.a(_divsi3.o)
 .ARM.attributes
                0x000016e4       0x18 /opt/paparazzi/arm-multilib/lib/gcc/arm-none-eabi/4.6.2/thumb/libgcc.a(_dvmd_tls.o)
 .ARM.attributes
                0x000016fc       0x1a /opt/paparazzi/arm-multilib/lib/gcc/arm-none-eabi/4.6.2/thumb/libgcc.a(_arm_addsubdf3.o)
 .ARM.attributes
                0x00001716       0x1a /opt/paparazzi/arm-multilib/lib/gcc/arm-none-eabi/4.6.2/thumb/libgcc.a(_arm_muldivdf3.o)
 .ARM.attributes
                0x00001730       0x1a /opt/paparazzi/arm-multilib/lib/gcc/arm-none-eabi/4.6.2/thumb/libgcc.a(_arm_cmpdf2.o)
 .ARM.attributes
                0x0000174a       0x1a /opt/paparazzi/arm-multilib/lib/gcc/arm-none-eabi/4.6.2/thumb/libgcc.a(_arm_fixdfsi.o)
 .ARM.attributes
                0x00001764       0x1a /opt/paparazzi/arm-multilib/lib/gcc/arm-none-eabi/4.6.2/thumb/libgcc.a(_arm_fixunsdfsi.o)
 .ARM.attributes
                0x0000177e       0x1a /opt/paparazzi/arm-multilib/lib/gcc/arm-none-eabi/4.6.2/thumb/libgcc.a(_arm_truncdfsf2.o)
 .ARM.attributes
                0x00001798       0x1a /opt/paparazzi/arm-multilib/lib/gcc/arm-none-eabi/4.6.2/thumb/libgcc.a(_arm_addsubsf3.o)
 .ARM.attributes
                0x000017b2       0x1a /opt/paparazzi/arm-multilib/lib/gcc/arm-none-eabi/4.6.2/thumb/libgcc.a(_arm_muldivsf3.o)
 .ARM.attributes
                0x000017cc       0x1a /opt/paparazzi/arm-multilib/lib/gcc/arm-none-eabi/4.6.2/thumb/libgcc.a(_arm_cmpsf2.o)
 .ARM.attributes
                0x000017e6       0x1a /opt/paparazzi/arm-multilib/lib/gcc/arm-none-eabi/4.6.2/thumb/libgcc.a(_arm_fixsfsi.o)
 .ARM.attributes
                0x00001800       0x1a /opt/paparazzi/arm-multilib/lib/gcc/arm-none-eabi/4.6.2/thumb/libgcc.a(_arm_fixunssfsi.o)

.debug
 *(.debug)

.line
 *(.line)

.debug_srcinfo
 *(.debug_srcinfo)

.debug_sfnames
 *(.debug_sfnames)

.debug_aranges  0x00000000      0x960
 *(.debug_aranges)
 .debug_aranges
                0x00000000       0x20 /opt/paparazzi/arm-multilib/lib/gcc/arm-none-eabi/4.6.2/../../../../arm-none-eabi/lib/thumb/libm.a(lib_a-s_atan.o)
 .debug_aranges
                0x00000020       0x20 /opt/paparazzi/arm-multilib/lib/gcc/arm-none-eabi/4.6.2/../../../../arm-none-eabi/lib/thumb/libm.a(lib_a-s_cos.o)
 .debug_aranges
                0x00000040       0x20 /opt/paparazzi/arm-multilib/lib/gcc/arm-none-eabi/4.6.2/../../../../arm-none-eabi/lib/thumb/libm.a(lib_a-s_fabs.o)
 .debug_aranges
                0x00000060       0x20 /opt/paparazzi/arm-multilib/lib/gcc/arm-none-eabi/4.6.2/../../../../arm-none-eabi/lib/thumb/libm.a(lib_a-s_rint.o)
 .debug_aranges
                0x00000080       0x20 /opt/paparazzi/arm-multilib/lib/gcc/arm-none-eabi/4.6.2/../../../../arm-none-eabi/lib/thumb/libm.a(lib_a-s_sin.o)
 .debug_aranges
                0x000000a0       0x20 /opt/paparazzi/arm-multilib/lib/gcc/arm-none-eabi/4.6.2/../../../../arm-none-eabi/lib/thumb/libm.a(lib_a-s_tan.o)
 .debug_aranges
                0x000000c0       0x20 /opt/paparazzi/arm-multilib/lib/gcc/arm-none-eabi/4.6.2/../../../../arm-none-eabi/lib/thumb/libm.a(lib_a-sf_atan.o)
 .debug_aranges
                0x000000e0       0x20 /opt/paparazzi/arm-multilib/lib/gcc/arm-none-eabi/4.6.2/../../../../arm-none-eabi/lib/thumb/libm.a(lib_a-sf_cos.o)
 .debug_aranges
                0x00000100       0x20 /opt/paparazzi/arm-multilib/lib/gcc/arm-none-eabi/4.6.2/../../../../arm-none-eabi/lib/thumb/libm.a(lib_a-sf_fabs.o)
 .debug_aranges
                0x00000120       0x20 /opt/paparazzi/arm-multilib/lib/gcc/arm-none-eabi/4.6.2/../../../../arm-none-eabi/lib/thumb/libm.a(lib_a-sf_sin.o)
 .debug_aranges
                0x00000140       0x20 /opt/paparazzi/arm-multilib/lib/gcc/arm-none-eabi/4.6.2/../../../../arm-none-eabi/lib/thumb/libm.a(lib_a-sf_tan.o)
 .debug_aranges
                0x00000160       0x20 /opt/paparazzi/arm-multilib/lib/gcc/arm-none-eabi/4.6.2/../../../../arm-none-eabi/lib/thumb/libm.a(lib_a-w_acos.o)
 .debug_aranges
                0x00000180       0x20 /opt/paparazzi/arm-multilib/lib/gcc/arm-none-eabi/4.6.2/../../../../arm-none-eabi/lib/thumb/libm.a(lib_a-w_asin.o)
 .debug_aranges
                0x000001a0       0x20 /opt/paparazzi/arm-multilib/lib/gcc/arm-none-eabi/4.6.2/../../../../arm-none-eabi/lib/thumb/libm.a(lib_a-w_atan2.o)
 .debug_aranges
                0x000001c0       0x20 /opt/paparazzi/arm-multilib/lib/gcc/arm-none-eabi/4.6.2/../../../../arm-none-eabi/lib/thumb/libm.a(lib_a-w_cosh.o)
 .debug_aranges
                0x000001e0       0x20 /opt/paparazzi/arm-multilib/lib/gcc/arm-none-eabi/4.6.2/../../../../arm-none-eabi/lib/thumb/libm.a(lib_a-w_exp.o)
 .debug_aranges
                0x00000200       0x20 /opt/paparazzi/arm-multilib/lib/gcc/arm-none-eabi/4.6.2/../../../../arm-none-eabi/lib/thumb/libm.a(lib_a-w_log.o)
 .debug_aranges
                0x00000220       0x20 /opt/paparazzi/arm-multilib/lib/gcc/arm-none-eabi/4.6.2/../../../../arm-none-eabi/lib/thumb/libm.a(lib_a-w_pow.o)
 .debug_aranges
                0x00000240       0x20 /opt/paparazzi/arm-multilib/lib/gcc/arm-none-eabi/4.6.2/../../../../arm-none-eabi/lib/thumb/libm.a(lib_a-w_sinh.o)
 .debug_aranges
                0x00000260       0x20 /opt/paparazzi/arm-multilib/lib/gcc/arm-none-eabi/4.6.2/../../../../arm-none-eabi/lib/thumb/libm.a(lib_a-w_sqrt.o)
 .debug_aranges
                0x00000280       0x20 /opt/paparazzi/arm-multilib/lib/gcc/arm-none-eabi/4.6.2/../../../../arm-none-eabi/lib/thumb/libm.a(lib_a-wf_atan2.o)
 .debug_aranges
                0x000002a0       0x20 /opt/paparazzi/arm-multilib/lib/gcc/arm-none-eabi/4.6.2/../../../../arm-none-eabi/lib/thumb/libm.a(lib_a-wf_pow.o)
 .debug_aranges
                0x000002c0       0x20 /opt/paparazzi/arm-multilib/lib/gcc/arm-none-eabi/4.6.2/../../../../arm-none-eabi/lib/thumb/libm.a(lib_a-wf_sqrt.o)
 .debug_aranges
                0x000002e0       0x20 /opt/paparazzi/arm-multilib/lib/gcc/arm-none-eabi/4.6.2/../../../../arm-none-eabi/lib/thumb/libm.a(lib_a-e_acos.o)
 .debug_aranges
                0x00000300       0x20 /opt/paparazzi/arm-multilib/lib/gcc/arm-none-eabi/4.6.2/../../../../arm-none-eabi/lib/thumb/libm.a(lib_a-e_asin.o)
 .debug_aranges
                0x00000320       0x20 /opt/paparazzi/arm-multilib/lib/gcc/arm-none-eabi/4.6.2/../../../../arm-none-eabi/lib/thumb/libm.a(lib_a-e_atan2.o)
 .debug_aranges
                0x00000340       0x20 /opt/paparazzi/arm-multilib/lib/gcc/arm-none-eabi/4.6.2/../../../../arm-none-eabi/lib/thumb/libm.a(lib_a-e_cosh.o)
 .debug_aranges
                0x00000360       0x20 /opt/paparazzi/arm-multilib/lib/gcc/arm-none-eabi/4.6.2/../../../../arm-none-eabi/lib/thumb/libm.a(lib_a-e_exp.o)
 .debug_aranges
                0x00000380       0x20 /opt/paparazzi/arm-multilib/lib/gcc/arm-none-eabi/4.6.2/../../../../arm-none-eabi/lib/thumb/libm.a(lib_a-e_log.o)
 .debug_aranges
                0x000003a0       0x20 /opt/paparazzi/arm-multilib/lib/gcc/arm-none-eabi/4.6.2/../../../../arm-none-eabi/lib/thumb/libm.a(lib_a-e_pow.o)
 .debug_aranges
                0x000003c0       0x20 /opt/paparazzi/arm-multilib/lib/gcc/arm-none-eabi/4.6.2/../../../../arm-none-eabi/lib/thumb/libm.a(lib_a-e_rem_pio2.o)
 .debug_aranges
                0x000003e0       0x20 /opt/paparazzi/arm-multilib/lib/gcc/arm-none-eabi/4.6.2/../../../../arm-none-eabi/lib/thumb/libm.a(lib_a-e_sinh.o)
 .debug_aranges
                0x00000400       0x20 /opt/paparazzi/arm-multilib/lib/gcc/arm-none-eabi/4.6.2/../../../../arm-none-eabi/lib/thumb/libm.a(lib_a-e_sqrt.o)
 .debug_aranges
                0x00000420       0x20 /opt/paparazzi/arm-multilib/lib/gcc/arm-none-eabi/4.6.2/../../../../arm-none-eabi/lib/thumb/libm.a(lib_a-ef_atan2.o)
 .debug_aranges
                0x00000440       0x20 /opt/paparazzi/arm-multilib/lib/gcc/arm-none-eabi/4.6.2/../../../../arm-none-eabi/lib/thumb/libm.a(lib_a-ef_pow.o)
 .debug_aranges
                0x00000460       0x20 /opt/paparazzi/arm-multilib/lib/gcc/arm-none-eabi/4.6.2/../../../../arm-none-eabi/lib/thumb/libm.a(lib_a-ef_rem_pio2.o)
 .debug_aranges
                0x00000480       0x20 /opt/paparazzi/arm-multilib/lib/gcc/arm-none-eabi/4.6.2/../../../../arm-none-eabi/lib/thumb/libm.a(lib_a-ef_sqrt.o)
 .debug_aranges
                0x000004a0       0x20 /opt/paparazzi/arm-multilib/lib/gcc/arm-none-eabi/4.6.2/../../../../arm-none-eabi/lib/thumb/libm.a(lib_a-k_cos.o)
 .debug_aranges
                0x000004c0       0x20 /opt/paparazzi/arm-multilib/lib/gcc/arm-none-eabi/4.6.2/../../../../arm-none-eabi/lib/thumb/libm.a(lib_a-k_rem_pio2.o)
 .debug_aranges
                0x000004e0       0x20 /opt/paparazzi/arm-multilib/lib/gcc/arm-none-eabi/4.6.2/../../../../arm-none-eabi/lib/thumb/libm.a(lib_a-k_sin.o)
 .debug_aranges
                0x00000500       0x20 /opt/paparazzi/arm-multilib/lib/gcc/arm-none-eabi/4.6.2/../../../../arm-none-eabi/lib/thumb/libm.a(lib_a-k_tan.o)
 .debug_aranges
                0x00000520       0x20 /opt/paparazzi/arm-multilib/lib/gcc/arm-none-eabi/4.6.2/../../../../arm-none-eabi/lib/thumb/libm.a(lib_a-kf_cos.o)
 .debug_aranges
                0x00000540       0x20 /opt/paparazzi/arm-multilib/lib/gcc/arm-none-eabi/4.6.2/../../../../arm-none-eabi/lib/thumb/libm.a(lib_a-kf_rem_pio2.o)
 .debug_aranges
                0x00000560       0x20 /opt/paparazzi/arm-multilib/lib/gcc/arm-none-eabi/4.6.2/../../../../arm-none-eabi/lib/thumb/libm.a(lib_a-kf_sin.o)
 .debug_aranges
                0x00000580       0x20 /opt/paparazzi/arm-multilib/lib/gcc/arm-none-eabi/4.6.2/../../../../arm-none-eabi/lib/thumb/libm.a(lib_a-kf_tan.o)
 .debug_aranges
                0x000005a0       0x20 /opt/paparazzi/arm-multilib/lib/gcc/arm-none-eabi/4.6.2/../../../../arm-none-eabi/lib/thumb/libm.a(lib_a-s_expm1.o)
 .debug_aranges
                0x000005c0       0x20 /opt/paparazzi/arm-multilib/lib/gcc/arm-none-eabi/4.6.2/../../../../arm-none-eabi/lib/thumb/libm.a(lib_a-s_finite.o)
 .debug_aranges
                0x000005e0       0x20 /opt/paparazzi/arm-multilib/lib/gcc/arm-none-eabi/4.6.2/../../../../arm-none-eabi/lib/thumb/libm.a(lib_a-s_floor.o)
 .debug_aranges
                0x00000600       0x20 /opt/paparazzi/arm-multilib/lib/gcc/arm-none-eabi/4.6.2/../../../../arm-none-eabi/lib/thumb/libm.a(lib_a-s_fpclassify.o)
 .debug_aranges
                0x00000620       0x20 /opt/paparazzi/arm-multilib/lib/gcc/arm-none-eabi/4.6.2/../../../../arm-none-eabi/lib/thumb/libm.a(lib_a-s_matherr.o)
 .debug_aranges
                0x00000640       0x20 /opt/paparazzi/arm-multilib/lib/gcc/arm-none-eabi/4.6.2/../../../../arm-none-eabi/lib/thumb/libm.a(lib_a-s_nan.o)
 .debug_aranges
                0x00000660       0x20 /opt/paparazzi/arm-multilib/lib/gcc/arm-none-eabi/4.6.2/../../../../arm-none-eabi/lib/thumb/libm.a(lib_a-s_scalbn.o)
 .debug_aranges
                0x00000680       0x20 /opt/paparazzi/arm-multilib/lib/gcc/arm-none-eabi/4.6.2/../../../../arm-none-eabi/lib/thumb/libm.a(lib_a-sf_finite.o)
 .debug_aranges
                0x000006a0       0x20 /opt/paparazzi/arm-multilib/lib/gcc/arm-none-eabi/4.6.2/../../../../arm-none-eabi/lib/thumb/libm.a(lib_a-sf_floor.o)
 .debug_aranges
                0x000006c0       0x20 /opt/paparazzi/arm-multilib/lib/gcc/arm-none-eabi/4.6.2/../../../../arm-none-eabi/lib/thumb/libm.a(lib_a-sf_fpclassify.o)
 .debug_aranges
                0x000006e0       0x20 /opt/paparazzi/arm-multilib/lib/gcc/arm-none-eabi/4.6.2/../../../../arm-none-eabi/lib/thumb/libm.a(lib_a-sf_nan.o)
 .debug_aranges
                0x00000700       0x20 /opt/paparazzi/arm-multilib/lib/gcc/arm-none-eabi/4.6.2/../../../../arm-none-eabi/lib/thumb/libm.a(lib_a-sf_scalbn.o)
 .debug_aranges
                0x00000720       0x20 /opt/paparazzi/arm-multilib/lib/gcc/arm-none-eabi/4.6.2/../../../../arm-none-eabi/lib/thumb/libm.a(lib_a-s_copysign.o)
 .debug_aranges
                0x00000740       0x20 /opt/paparazzi/arm-multilib/lib/gcc/arm-none-eabi/4.6.2/../../../../arm-none-eabi/lib/thumb/libm.a(lib_a-sf_copysign.o)
 .debug_aranges
                0x00000760       0x20 /opt/paparazzi/arm-multilib/lib/gcc/arm-none-eabi/4.6.2/../../../../arm-none-eabi/lib/thumb/libc.a(lib_a-errno.o)
 .debug_aranges
                0x00000780       0x20 /opt/paparazzi/arm-multilib/lib/gcc/arm-none-eabi/4.6.2/thumb/libgcc.a(_thumb1_case_uqi.o)
 .debug_aranges
                0x000007a0       0x20 /opt/paparazzi/arm-multilib/lib/gcc/arm-none-eabi/4.6.2/thumb/libgcc.a(_udivsi3.o)
 .debug_aranges
                0x000007c0       0x20 /opt/paparazzi/arm-multilib/lib/gcc/arm-none-eabi/4.6.2/thumb/libgcc.a(_divsi3.o)
 .debug_aranges
                0x000007e0       0x20 /opt/paparazzi/arm-multilib/lib/gcc/arm-none-eabi/4.6.2/thumb/libgcc.a(_dvmd_tls.o)
 .debug_aranges
                0x00000800       0x20 /opt/paparazzi/arm-multilib/lib/gcc/arm-none-eabi/4.6.2/thumb/libgcc.a(_arm_addsubdf3.o)
 .debug_aranges
                0x00000820       0x20 /opt/paparazzi/arm-multilib/lib/gcc/arm-none-eabi/4.6.2/thumb/libgcc.a(_arm_muldivdf3.o)
 .debug_aranges
                0x00000840       0x20 /opt/paparazzi/arm-multilib/lib/gcc/arm-none-eabi/4.6.2/thumb/libgcc.a(_arm_cmpdf2.o)
 .debug_aranges
                0x00000860       0x20 /opt/paparazzi/arm-multilib/lib/gcc/arm-none-eabi/4.6.2/thumb/libgcc.a(_arm_fixdfsi.o)
 .debug_aranges
                0x00000880       0x20 /opt/paparazzi/arm-multilib/lib/gcc/arm-none-eabi/4.6.2/thumb/libgcc.a(_arm_fixunsdfsi.o)
 .debug_aranges
                0x000008a0       0x20 /opt/paparazzi/arm-multilib/lib/gcc/arm-none-eabi/4.6.2/thumb/libgcc.a(_arm_truncdfsf2.o)
 .debug_aranges
                0x000008c0       0x20 /opt/paparazzi/arm-multilib/lib/gcc/arm-none-eabi/4.6.2/thumb/libgcc.a(_arm_addsubsf3.o)
 .debug_aranges
                0x000008e0       0x20 /opt/paparazzi/arm-multilib/lib/gcc/arm-none-eabi/4.6.2/thumb/libgcc.a(_arm_muldivsf3.o)
 .debug_aranges
                0x00000900       0x20 /opt/paparazzi/arm-multilib/lib/gcc/arm-none-eabi/4.6.2/thumb/libgcc.a(_arm_cmpsf2.o)
 .debug_aranges
                0x00000920       0x20 /opt/paparazzi/arm-multilib/lib/gcc/arm-none-eabi/4.6.2/thumb/libgcc.a(_arm_fixsfsi.o)
 .debug_aranges
                0x00000940       0x20 /opt/paparazzi/arm-multilib/lib/gcc/arm-none-eabi/4.6.2/thumb/libgcc.a(_arm_fixunssfsi.o)

.debug_pubnames
 *(.debug_pubnames)

.debug_info     0x00000000     0x8c66
 *(.debug_info .gnu.linkonce.wi.*)
 .debug_info    0x00000000      0x235 /opt/paparazzi/arm-multilib/lib/gcc/arm-none-eabi/4.6.2/../../../../arm-none-eabi/lib/thumb/libm.a(lib_a-s_atan.o)
 .debug_info    0x00000235      0x103 /opt/paparazzi/arm-multilib/lib/gcc/arm-none-eabi/4.6.2/../../../../arm-none-eabi/lib/thumb/libm.a(lib_a-s_cos.o)
 .debug_info    0x00000338      0x136 /opt/paparazzi/arm-multilib/lib/gcc/arm-none-eabi/4.6.2/../../../../arm-none-eabi/lib/thumb/libm.a(lib_a-s_fabs.o)
 .debug_info    0x0000046e      0x208 /opt/paparazzi/arm-multilib/lib/gcc/arm-none-eabi/4.6.2/../../../../arm-none-eabi/lib/thumb/libm.a(lib_a-s_rint.o)
 .debug_info    0x00000676      0x103 /opt/paparazzi/arm-multilib/lib/gcc/arm-none-eabi/4.6.2/../../../../arm-none-eabi/lib/thumb/libm.a(lib_a-s_sin.o)
 .debug_info    0x00000779      0x103 /opt/paparazzi/arm-multilib/lib/gcc/arm-none-eabi/4.6.2/../../../../arm-none-eabi/lib/thumb/libm.a(lib_a-s_tan.o)
 .debug_info    0x0000087c      0x1f1 /opt/paparazzi/arm-multilib/lib/gcc/arm-none-eabi/4.6.2/../../../../arm-none-eabi/lib/thumb/libm.a(lib_a-sf_atan.o)
 .debug_info    0x00000a6d      0x119 /opt/paparazzi/arm-multilib/lib/gcc/arm-none-eabi/4.6.2/../../../../arm-none-eabi/lib/thumb/libm.a(lib_a-sf_cos.o)
 .debug_info    0x00000b86      0x107 /opt/paparazzi/arm-multilib/lib/gcc/arm-none-eabi/4.6.2/../../../../arm-none-eabi/lib/thumb/libm.a(lib_a-sf_fabs.o)
 .debug_info    0x00000c8d      0x100 /opt/paparazzi/arm-multilib/lib/gcc/arm-none-eabi/4.6.2/../../../../arm-none-eabi/lib/thumb/libm.a(lib_a-sf_sin.o)
 .debug_info    0x00000d8d      0x100 /opt/paparazzi/arm-multilib/lib/gcc/arm-none-eabi/4.6.2/../../../../arm-none-eabi/lib/thumb/libm.a(lib_a-sf_tan.o)
 .debug_info    0x00000e8d      0x17e /opt/paparazzi/arm-multilib/lib/gcc/arm-none-eabi/4.6.2/../../../../arm-none-eabi/lib/thumb/libm.a(lib_a-w_acos.o)
 .debug_info    0x0000100b      0x17e /opt/paparazzi/arm-multilib/lib/gcc/arm-none-eabi/4.6.2/../../../../arm-none-eabi/lib/thumb/libm.a(lib_a-w_asin.o)
 .debug_info    0x00001189       0xbc /opt/paparazzi/arm-multilib/lib/gcc/arm-none-eabi/4.6.2/../../../../arm-none-eabi/lib/thumb/libm.a(lib_a-w_atan2.o)
 .debug_info    0x00001245      0x17e /opt/paparazzi/arm-multilib/lib/gcc/arm-none-eabi/4.6.2/../../../../arm-none-eabi/lib/thumb/libm.a(lib_a-w_cosh.o)
 .debug_info    0x000013c3      0x1ab /opt/paparazzi/arm-multilib/lib/gcc/arm-none-eabi/4.6.2/../../../../arm-none-eabi/lib/thumb/libm.a(lib_a-w_exp.o)
 .debug_info    0x0000156e      0x17e /opt/paparazzi/arm-multilib/lib/gcc/arm-none-eabi/4.6.2/../../../../arm-none-eabi/lib/thumb/libm.a(lib_a-w_log.o)
 .debug_info    0x000016ec      0x18b /opt/paparazzi/arm-multilib/lib/gcc/arm-none-eabi/4.6.2/../../../../arm-none-eabi/lib/thumb/libm.a(lib_a-w_pow.o)
 .debug_info    0x00001877      0x17e /opt/paparazzi/arm-multilib/lib/gcc/arm-none-eabi/4.6.2/../../../../arm-none-eabi/lib/thumb/libm.a(lib_a-w_sinh.o)
 .debug_info    0x000019f5      0x17e /opt/paparazzi/arm-multilib/lib/gcc/arm-none-eabi/4.6.2/../../../../arm-none-eabi/lib/thumb/libm.a(lib_a-w_sqrt.o)
 .debug_info    0x00001b73       0xbd /opt/paparazzi/arm-multilib/lib/gcc/arm-none-eabi/4.6.2/../../../../arm-none-eabi/lib/thumb/libm.a(lib_a-wf_atan2.o)
 .debug_info    0x00001c30      0x18c /opt/paparazzi/arm-multilib/lib/gcc/arm-none-eabi/4.6.2/../../../../arm-none-eabi/lib/thumb/libm.a(lib_a-wf_pow.o)
 .debug_info    0x00001dbc      0x17f /opt/paparazzi/arm-multilib/lib/gcc/arm-none-eabi/4.6.2/../../../../arm-none-eabi/lib/thumb/libm.a(lib_a-wf_sqrt.o)
 .debug_info    0x00001f3b      0x2f6 /opt/paparazzi/arm-multilib/lib/gcc/arm-none-eabi/4.6.2/../../../../arm-none-eabi/lib/thumb/libm.a(lib_a-e_acos.o)
 .debug_info    0x00002231      0x326 /opt/paparazzi/arm-multilib/lib/gcc/arm-none-eabi/4.6.2/../../../../arm-none-eabi/lib/thumb/libm.a(lib_a-e_asin.o)
 .debug_info    0x00002557      0x283 /opt/paparazzi/arm-multilib/lib/gcc/arm-none-eabi/4.6.2/../../../../arm-none-eabi/lib/thumb/libm.a(lib_a-e_atan2.o)
 .debug_info    0x000027da      0x140 /opt/paparazzi/arm-multilib/lib/gcc/arm-none-eabi/4.6.2/../../../../arm-none-eabi/lib/thumb/libm.a(lib_a-e_cosh.o)
 .debug_info    0x0000291a      0x32c /opt/paparazzi/arm-multilib/lib/gcc/arm-none-eabi/4.6.2/../../../../arm-none-eabi/lib/thumb/libm.a(lib_a-e_exp.o)
 .debug_info    0x00002c46      0x2f8 /opt/paparazzi/arm-multilib/lib/gcc/arm-none-eabi/4.6.2/../../../../arm-none-eabi/lib/thumb/libm.a(lib_a-e_log.o)
 .debug_info    0x00002f3e      0x6b5 /opt/paparazzi/arm-multilib/lib/gcc/arm-none-eabi/4.6.2/../../../../arm-none-eabi/lib/thumb/libm.a(lib_a-e_pow.o)
 .debug_info    0x000035f3      0x378 /opt/paparazzi/arm-multilib/lib/gcc/arm-none-eabi/4.6.2/../../../../arm-none-eabi/lib/thumb/libm.a(lib_a-e_rem_pio2.o)
 .debug_info    0x0000396b      0x147 /opt/paparazzi/arm-multilib/lib/gcc/arm-none-eabi/4.6.2/../../../../arm-none-eabi/lib/thumb/libm.a(lib_a-e_sinh.o)
 .debug_info    0x00003ab2      0x22e /opt/paparazzi/arm-multilib/lib/gcc/arm-none-eabi/4.6.2/../../../../arm-none-eabi/lib/thumb/libm.a(lib_a-e_sqrt.o)
 .debug_info    0x00003ce0      0x1fd /opt/paparazzi/arm-multilib/lib/gcc/arm-none-eabi/4.6.2/../../../../arm-none-eabi/lib/thumb/libm.a(lib_a-ef_atan2.o)
 .debug_info    0x00003edd      0x60b /opt/paparazzi/arm-multilib/lib/gcc/arm-none-eabi/4.6.2/../../../../arm-none-eabi/lib/thumb/libm.a(lib_a-ef_pow.o)
 .debug_info    0x000044e8      0x30c /opt/paparazzi/arm-multilib/lib/gcc/arm-none-eabi/4.6.2/../../../../arm-none-eabi/lib/thumb/libm.a(lib_a-ef_rem_pio2.o)
 .debug_info    0x000047f4      0x1ac /opt/paparazzi/arm-multilib/lib/gcc/arm-none-eabi/4.6.2/../../../../arm-none-eabi/lib/thumb/libm.a(lib_a-ef_sqrt.o)
 .debug_info    0x000049a0      0x219 /opt/paparazzi/arm-multilib/lib/gcc/arm-none-eabi/4.6.2/../../../../arm-none-eabi/lib/thumb/libm.a(lib_a-k_cos.o)
 .debug_info    0x00004bb9      0x2e3 /opt/paparazzi/arm-multilib/lib/gcc/arm-none-eabi/4.6.2/../../../../arm-none-eabi/lib/thumb/libm.a(lib_a-k_rem_pio2.o)
 .debug_info    0x00004e9c      0x194 /opt/paparazzi/arm-multilib/lib/gcc/arm-none-eabi/4.6.2/../../../../arm-none-eabi/lib/thumb/libm.a(lib_a-k_sin.o)
 .debug_info    0x00005030      0x292 /opt/paparazzi/arm-multilib/lib/gcc/arm-none-eabi/4.6.2/../../../../arm-none-eabi/lib/thumb/libm.a(lib_a-k_tan.o)
 .debug_info    0x000052c2      0x183 /opt/paparazzi/arm-multilib/lib/gcc/arm-none-eabi/4.6.2/../../../../arm-none-eabi/lib/thumb/libm.a(lib_a-kf_cos.o)
 .debug_info    0x00005445      0x2d3 /opt/paparazzi/arm-multilib/lib/gcc/arm-none-eabi/4.6.2/../../../../arm-none-eabi/lib/thumb/libm.a(lib_a-kf_rem_pio2.o)
 .debug_info    0x00005718      0x17d /opt/paparazzi/arm-multilib/lib/gcc/arm-none-eabi/4.6.2/../../../../arm-none-eabi/lib/thumb/libm.a(lib_a-kf_sin.o)
 .debug_info    0x00005895      0x241 /opt/paparazzi/arm-multilib/lib/gcc/arm-none-eabi/4.6.2/../../../../arm-none-eabi/lib/thumb/libm.a(lib_a-kf_tan.o)
 .debug_info    0x00005ad6      0x37e /opt/paparazzi/arm-multilib/lib/gcc/arm-none-eabi/4.6.2/../../../../arm-none-eabi/lib/thumb/libm.a(lib_a-s_expm1.o)
 .debug_info    0x00005e54       0xd2 /opt/paparazzi/arm-multilib/lib/gcc/arm-none-eabi/4.6.2/../../../../arm-none-eabi/lib/thumb/libm.a(lib_a-s_finite.o)
 .debug_info    0x00005f26      0x1a6 /opt/paparazzi/arm-multilib/lib/gcc/arm-none-eabi/4.6.2/../../../../arm-none-eabi/lib/thumb/libm.a(lib_a-s_floor.o)
 .debug_info    0x000060cc      0x143 /opt/paparazzi/arm-multilib/lib/gcc/arm-none-eabi/4.6.2/../../../../arm-none-eabi/lib/thumb/libm.a(lib_a-s_fpclassify.o)
 .debug_info    0x0000620f       0xc1 /opt/paparazzi/arm-multilib/lib/gcc/arm-none-eabi/4.6.2/../../../../arm-none-eabi/lib/thumb/libm.a(lib_a-s_lib_ver.o)
 .debug_info    0x000062d0      0x131 /opt/paparazzi/arm-multilib/lib/gcc/arm-none-eabi/4.6.2/../../../../arm-none-eabi/lib/thumb/libm.a(lib_a-s_matherr.o)
 .debug_info    0x00006401       0xcd /opt/paparazzi/arm-multilib/lib/gcc/arm-none-eabi/4.6.2/../../../../arm-none-eabi/lib/thumb/libm.a(lib_a-s_nan.o)
 .debug_info    0x000064ce      0x20d /opt/paparazzi/arm-multilib/lib/gcc/arm-none-eabi/4.6.2/../../../../arm-none-eabi/lib/thumb/libm.a(lib_a-s_scalbn.o)
 .debug_info    0x000066db       0xc8 /opt/paparazzi/arm-multilib/lib/gcc/arm-none-eabi/4.6.2/../../../../arm-none-eabi/lib/thumb/libm.a(lib_a-sf_finite.o)
 .debug_info    0x000067a3      0x15d /opt/paparazzi/arm-multilib/lib/gcc/arm-none-eabi/4.6.2/../../../../arm-none-eabi/lib/thumb/libm.a(lib_a-sf_floor.o)
 .debug_info    0x00006900       0xc7 /opt/paparazzi/arm-multilib/lib/gcc/arm-none-eabi/4.6.2/../../../../arm-none-eabi/lib/thumb/libm.a(lib_a-sf_fpclassify.o)
 .debug_info    0x000069c7       0xca /opt/paparazzi/arm-multilib/lib/gcc/arm-none-eabi/4.6.2/../../../../arm-none-eabi/lib/thumb/libm.a(lib_a-sf_nan.o)
 .debug_info    0x00006a91      0x1db /opt/paparazzi/arm-multilib/lib/gcc/arm-none-eabi/4.6.2/../../../../arm-none-eabi/lib/thumb/libm.a(lib_a-sf_scalbn.o)
 .debug_info    0x00006c6c      0x151 /opt/paparazzi/arm-multilib/lib/gcc/arm-none-eabi/4.6.2/../../../../arm-none-eabi/lib/thumb/libm.a(lib_a-s_copysign.o)
 .debug_info    0x00006dbd      0x122 /opt/paparazzi/arm-multilib/lib/gcc/arm-none-eabi/4.6.2/../../../../arm-none-eabi/lib/thumb/libm.a(lib_a-sf_copysign.o)
 .debug_info    0x00006edf      0x964 /opt/paparazzi/arm-multilib/lib/gcc/arm-none-eabi/4.6.2/../../../../arm-none-eabi/lib/thumb/libc.a(lib_a-errno.o)
 .debug_info    0x00007843      0x966 /opt/paparazzi/arm-multilib/lib/gcc/arm-none-eabi/4.6.2/../../../../arm-none-eabi/lib/thumb/libc.a(lib_a-impure.o)
 .debug_info    0x000081a9       0xb8 /opt/paparazzi/arm-multilib/lib/gcc/arm-none-eabi/4.6.2/thumb/libgcc.a(_thumb1_case_uqi.o)
 .debug_info    0x00008261       0xb8 /opt/paparazzi/arm-multilib/lib/gcc/arm-none-eabi/4.6.2/thumb/libgcc.a(_udivsi3.o)
 .debug_info    0x00008319       0xb8 /opt/paparazzi/arm-multilib/lib/gcc/arm-none-eabi/4.6.2/thumb/libgcc.a(_divsi3.o)
 .debug_info    0x000083d1       0xb8 /opt/paparazzi/arm-multilib/lib/gcc/arm-none-eabi/4.6.2/thumb/libgcc.a(_dvmd_tls.o)
 .debug_info    0x00008489       0xb7 /opt/paparazzi/arm-multilib/lib/gcc/arm-none-eabi/4.6.2/thumb/libgcc.a(_arm_addsubdf3.o)
 .debug_info    0x00008540       0xb7 /opt/paparazzi/arm-multilib/lib/gcc/arm-none-eabi/4.6.2/thumb/libgcc.a(_arm_muldivdf3.o)
 .debug_info    0x000085f7       0xb7 /opt/paparazzi/arm-multilib/lib/gcc/arm-none-eabi/4.6.2/thumb/libgcc.a(_arm_cmpdf2.o)
 .debug_info    0x000086ae       0xb7 /opt/paparazzi/arm-multilib/lib/gcc/arm-none-eabi/4.6.2/thumb/libgcc.a(_arm_fixdfsi.o)
 .debug_info    0x00008765       0xb7 /opt/paparazzi/arm-multilib/lib/gcc/arm-none-eabi/4.6.2/thumb/libgcc.a(_arm_fixunsdfsi.o)
 .debug_info    0x0000881c       0xb7 /opt/paparazzi/arm-multilib/lib/gcc/arm-none-eabi/4.6.2/thumb/libgcc.a(_arm_truncdfsf2.o)
 .debug_info    0x000088d3       0xb7 /opt/paparazzi/arm-multilib/lib/gcc/arm-none-eabi/4.6.2/thumb/libgcc.a(_arm_addsubsf3.o)
 .debug_info    0x0000898a       0xb7 /opt/paparazzi/arm-multilib/lib/gcc/arm-none-eabi/4.6.2/thumb/libgcc.a(_arm_muldivsf3.o)
 .debug_info    0x00008a41       0xb7 /opt/paparazzi/arm-multilib/lib/gcc/arm-none-eabi/4.6.2/thumb/libgcc.a(_arm_cmpsf2.o)
 .debug_info    0x00008af8       0xb7 /opt/paparazzi/arm-multilib/lib/gcc/arm-none-eabi/4.6.2/thumb/libgcc.a(_arm_fixsfsi.o)
 .debug_info    0x00008baf       0xb7 /opt/paparazzi/arm-multilib/lib/gcc/arm-none-eabi/4.6.2/thumb/libgcc.a(_arm_fixunssfsi.o)

.debug_abbrev   0x00000000     0x34b9
 *(.debug_abbrev)
 .debug_abbrev  0x00000000      0x123 /opt/paparazzi/arm-multilib/lib/gcc/arm-none-eabi/4.6.2/../../../../arm-none-eabi/lib/thumb/libm.a(lib_a-s_atan.o)
 .debug_abbrev  0x00000123       0x9c /opt/paparazzi/arm-multilib/lib/gcc/arm-none-eabi/4.6.2/../../../../arm-none-eabi/lib/thumb/libm.a(lib_a-s_cos.o)
 .debug_abbrev  0x000001bf       0xc5 /opt/paparazzi/arm-multilib/lib/gcc/arm-none-eabi/4.6.2/../../../../arm-none-eabi/lib/thumb/libm.a(lib_a-s_fabs.o)
 .debug_abbrev  0x00000284      0x126 /opt/paparazzi/arm-multilib/lib/gcc/arm-none-eabi/4.6.2/../../../../arm-none-eabi/lib/thumb/libm.a(lib_a-s_rint.o)
 .debug_abbrev  0x000003aa       0x9c /opt/paparazzi/arm-multilib/lib/gcc/arm-none-eabi/4.6.2/../../../../arm-none-eabi/lib/thumb/libm.a(lib_a-s_sin.o)
 .debug_abbrev  0x00000446       0x9c /opt/paparazzi/arm-multilib/lib/gcc/arm-none-eabi/4.6.2/../../../../arm-none-eabi/lib/thumb/libm.a(lib_a-s_tan.o)
 .debug_abbrev  0x000004e2      0x100 /opt/paparazzi/arm-multilib/lib/gcc/arm-none-eabi/4.6.2/../../../../arm-none-eabi/lib/thumb/libm.a(lib_a-sf_atan.o)
 .debug_abbrev  0x000005e2       0xa5 /opt/paparazzi/arm-multilib/lib/gcc/arm-none-eabi/4.6.2/../../../../arm-none-eabi/lib/thumb/libm.a(lib_a-sf_cos.o)
 .debug_abbrev  0x00000687       0xa7 /opt/paparazzi/arm-multilib/lib/gcc/arm-none-eabi/4.6.2/../../../../arm-none-eabi/lib/thumb/libm.a(lib_a-sf_fabs.o)
 .debug_abbrev  0x0000072e       0x9c /opt/paparazzi/arm-multilib/lib/gcc/arm-none-eabi/4.6.2/../../../../arm-none-eabi/lib/thumb/libm.a(lib_a-sf_sin.o)
 .debug_abbrev  0x000007ca       0x9c /opt/paparazzi/arm-multilib/lib/gcc/arm-none-eabi/4.6.2/../../../../arm-none-eabi/lib/thumb/libm.a(lib_a-sf_tan.o)
 .debug_abbrev  0x00000866       0xcf /opt/paparazzi/arm-multilib/lib/gcc/arm-none-eabi/4.6.2/../../../../arm-none-eabi/lib/thumb/libm.a(lib_a-w_acos.o)
 .debug_abbrev  0x00000935       0xcf /opt/paparazzi/arm-multilib/lib/gcc/arm-none-eabi/4.6.2/../../../../arm-none-eabi/lib/thumb/libm.a(lib_a-w_asin.o)
 .debug_abbrev  0x00000a04       0x50 /opt/paparazzi/arm-multilib/lib/gcc/arm-none-eabi/4.6.2/../../../../arm-none-eabi/lib/thumb/libm.a(lib_a-w_atan2.o)
 .debug_abbrev  0x00000a54       0xcf /opt/paparazzi/arm-multilib/lib/gcc/arm-none-eabi/4.6.2/../../../../arm-none-eabi/lib/thumb/libm.a(lib_a-w_cosh.o)
 .debug_abbrev  0x00000b23       0xe5 /opt/paparazzi/arm-multilib/lib/gcc/arm-none-eabi/4.6.2/../../../../arm-none-eabi/lib/thumb/libm.a(lib_a-w_exp.o)
 .debug_abbrev  0x00000c08       0xcf /opt/paparazzi/arm-multilib/lib/gcc/arm-none-eabi/4.6.2/../../../../arm-none-eabi/lib/thumb/libm.a(lib_a-w_log.o)
 .debug_abbrev  0x00000cd7       0xcf /opt/paparazzi/arm-multilib/lib/gcc/arm-none-eabi/4.6.2/../../../../arm-none-eabi/lib/thumb/libm.a(lib_a-w_pow.o)
 .debug_abbrev  0x00000da6       0xcf /opt/paparazzi/arm-multilib/lib/gcc/arm-none-eabi/4.6.2/../../../../arm-none-eabi/lib/thumb/libm.a(lib_a-w_sinh.o)
 .debug_abbrev  0x00000e75       0xcf /opt/paparazzi/arm-multilib/lib/gcc/arm-none-eabi/4.6.2/../../../../arm-none-eabi/lib/thumb/libm.a(lib_a-w_sqrt.o)
 .debug_abbrev  0x00000f44       0x50 /opt/paparazzi/arm-multilib/lib/gcc/arm-none-eabi/4.6.2/../../../../arm-none-eabi/lib/thumb/libm.a(lib_a-wf_atan2.o)
 .debug_abbrev  0x00000f94       0xcf /opt/paparazzi/arm-multilib/lib/gcc/arm-none-eabi/4.6.2/../../../../arm-none-eabi/lib/thumb/libm.a(lib_a-wf_pow.o)
 .debug_abbrev  0x00001063       0xcf /opt/paparazzi/arm-multilib/lib/gcc/arm-none-eabi/4.6.2/../../../../arm-none-eabi/lib/thumb/libm.a(lib_a-wf_sqrt.o)
 .debug_abbrev  0x00001132      0x10b /opt/paparazzi/arm-multilib/lib/gcc/arm-none-eabi/4.6.2/../../../../arm-none-eabi/lib/thumb/libm.a(lib_a-e_acos.o)
 .debug_abbrev  0x0000123d      0x113 /opt/paparazzi/arm-multilib/lib/gcc/arm-none-eabi/4.6.2/../../../../arm-none-eabi/lib/thumb/libm.a(lib_a-e_asin.o)
 .debug_abbrev  0x00001350      0x12f /opt/paparazzi/arm-multilib/lib/gcc/arm-none-eabi/4.6.2/../../../../arm-none-eabi/lib/thumb/libm.a(lib_a-e_atan2.o)
 .debug_abbrev  0x0000147f       0x93 /opt/paparazzi/arm-multilib/lib/gcc/arm-none-eabi/4.6.2/../../../../arm-none-eabi/lib/thumb/libm.a(lib_a-e_cosh.o)
 .debug_abbrev  0x00001512      0x13b /opt/paparazzi/arm-multilib/lib/gcc/arm-none-eabi/4.6.2/../../../../arm-none-eabi/lib/thumb/libm.a(lib_a-e_exp.o)
 .debug_abbrev  0x0000164d      0x11a /opt/paparazzi/arm-multilib/lib/gcc/arm-none-eabi/4.6.2/../../../../arm-none-eabi/lib/thumb/libm.a(lib_a-e_log.o)
 .debug_abbrev  0x00001767      0x168 /opt/paparazzi/arm-multilib/lib/gcc/arm-none-eabi/4.6.2/../../../../arm-none-eabi/lib/thumb/libm.a(lib_a-e_pow.o)
 .debug_abbrev  0x000018cf      0x13d /opt/paparazzi/arm-multilib/lib/gcc/arm-none-eabi/4.6.2/../../../../arm-none-eabi/lib/thumb/libm.a(lib_a-e_rem_pio2.o)
 .debug_abbrev  0x00001a0c       0x93 /opt/paparazzi/arm-multilib/lib/gcc/arm-none-eabi/4.6.2/../../../../arm-none-eabi/lib/thumb/libm.a(lib_a-e_sinh.o)
 .debug_abbrev  0x00001a9f      0x106 /opt/paparazzi/arm-multilib/lib/gcc/arm-none-eabi/4.6.2/../../../../arm-none-eabi/lib/thumb/libm.a(lib_a-e_sqrt.o)
 .debug_abbrev  0x00001ba5       0xdd /opt/paparazzi/arm-multilib/lib/gcc/arm-none-eabi/4.6.2/../../../../arm-none-eabi/lib/thumb/libm.a(lib_a-ef_atan2.o)
 .debug_abbrev  0x00001c82      0x130 /opt/paparazzi/arm-multilib/lib/gcc/arm-none-eabi/4.6.2/../../../../arm-none-eabi/lib/thumb/libm.a(lib_a-ef_pow.o)
 .debug_abbrev  0x00001db2      0x107 /opt/paparazzi/arm-multilib/lib/gcc/arm-none-eabi/4.6.2/../../../../arm-none-eabi/lib/thumb/libm.a(lib_a-ef_rem_pio2.o)
 .debug_abbrev  0x00001eb9       0xd2 /opt/paparazzi/arm-multilib/lib/gcc/arm-none-eabi/4.6.2/../../../../arm-none-eabi/lib/thumb/libm.a(lib_a-ef_sqrt.o)
 .debug_abbrev  0x00001f8b       0xec /opt/paparazzi/arm-multilib/lib/gcc/arm-none-eabi/4.6.2/../../../../arm-none-eabi/lib/thumb/libm.a(lib_a-k_cos.o)
 .debug_abbrev  0x00002077       0xf7 /opt/paparazzi/arm-multilib/lib/gcc/arm-none-eabi/4.6.2/../../../../arm-none-eabi/lib/thumb/libm.a(lib_a-k_rem_pio2.o)
 .debug_abbrev  0x0000216e       0xaf /opt/paparazzi/arm-multilib/lib/gcc/arm-none-eabi/4.6.2/../../../../arm-none-eabi/lib/thumb/libm.a(lib_a-k_sin.o)
 .debug_abbrev  0x0000221d      0x144 /opt/paparazzi/arm-multilib/lib/gcc/arm-none-eabi/4.6.2/../../../../arm-none-eabi/lib/thumb/libm.a(lib_a-k_tan.o)
 .debug_abbrev  0x00002361       0x91 /opt/paparazzi/arm-multilib/lib/gcc/arm-none-eabi/4.6.2/../../../../arm-none-eabi/lib/thumb/libm.a(lib_a-kf_cos.o)
 .debug_abbrev  0x000023f2       0xf7 /opt/paparazzi/arm-multilib/lib/gcc/arm-none-eabi/4.6.2/../../../../arm-none-eabi/lib/thumb/libm.a(lib_a-kf_rem_pio2.o)
 .debug_abbrev  0x000024e9       0x93 /opt/paparazzi/arm-multilib/lib/gcc/arm-none-eabi/4.6.2/../../../../arm-none-eabi/lib/thumb/libm.a(lib_a-kf_sin.o)
 .debug_abbrev  0x0000257c      0x112 /opt/paparazzi/arm-multilib/lib/gcc/arm-none-eabi/4.6.2/../../../../arm-none-eabi/lib/thumb/libm.a(lib_a-kf_tan.o)
 .debug_abbrev  0x0000268e      0x132 /opt/paparazzi/arm-multilib/lib/gcc/arm-none-eabi/4.6.2/../../../../arm-none-eabi/lib/thumb/libm.a(lib_a-s_expm1.o)
 .debug_abbrev  0x000027c0       0x6c /opt/paparazzi/arm-multilib/lib/gcc/arm-none-eabi/4.6.2/../../../../arm-none-eabi/lib/thumb/libm.a(lib_a-s_finite.o)
 .debug_abbrev  0x0000282c       0xe6 /opt/paparazzi/arm-multilib/lib/gcc/arm-none-eabi/4.6.2/../../../../arm-none-eabi/lib/thumb/libm.a(lib_a-s_floor.o)
 .debug_abbrev  0x00002912       0xc5 /opt/paparazzi/arm-multilib/lib/gcc/arm-none-eabi/4.6.2/../../../../arm-none-eabi/lib/thumb/libm.a(lib_a-s_fpclassify.o)
 .debug_abbrev  0x000029d7       0x53 /opt/paparazzi/arm-multilib/lib/gcc/arm-none-eabi/4.6.2/../../../../arm-none-eabi/lib/thumb/libm.a(lib_a-s_lib_ver.o)
 .debug_abbrev  0x00002a2a       0x97 /opt/paparazzi/arm-multilib/lib/gcc/arm-none-eabi/4.6.2/../../../../arm-none-eabi/lib/thumb/libm.a(lib_a-s_matherr.o)
 .debug_abbrev  0x00002ac1       0x6f /opt/paparazzi/arm-multilib/lib/gcc/arm-none-eabi/4.6.2/../../../../arm-none-eabi/lib/thumb/libm.a(lib_a-s_nan.o)
 .debug_abbrev  0x00002b30      0x10d /opt/paparazzi/arm-multilib/lib/gcc/arm-none-eabi/4.6.2/../../../../arm-none-eabi/lib/thumb/libm.a(lib_a-s_scalbn.o)
 .debug_abbrev  0x00002c3d       0x6c /opt/paparazzi/arm-multilib/lib/gcc/arm-none-eabi/4.6.2/../../../../arm-none-eabi/lib/thumb/libm.a(lib_a-sf_finite.o)
 .debug_abbrev  0x00002ca9       0xc3 /opt/paparazzi/arm-multilib/lib/gcc/arm-none-eabi/4.6.2/../../../../arm-none-eabi/lib/thumb/libm.a(lib_a-sf_floor.o)
 .debug_abbrev  0x00002d6c       0x6c /opt/paparazzi/arm-multilib/lib/gcc/arm-none-eabi/4.6.2/../../../../arm-none-eabi/lib/thumb/libm.a(lib_a-sf_fpclassify.o)
 .debug_abbrev  0x00002dd8       0x6f /opt/paparazzi/arm-multilib/lib/gcc/arm-none-eabi/4.6.2/../../../../arm-none-eabi/lib/thumb/libm.a(lib_a-sf_nan.o)
 .debug_abbrev  0x00002e47       0xd9 /opt/paparazzi/arm-multilib/lib/gcc/arm-none-eabi/4.6.2/../../../../arm-none-eabi/lib/thumb/libm.a(lib_a-sf_scalbn.o)
 .debug_abbrev  0x00002f20       0xe3 /opt/paparazzi/arm-multilib/lib/gcc/arm-none-eabi/4.6.2/../../../../arm-none-eabi/lib/thumb/libm.a(lib_a-s_copysign.o)
 .debug_abbrev  0x00003003       0xb6 /opt/paparazzi/arm-multilib/lib/gcc/arm-none-eabi/4.6.2/../../../../arm-none-eabi/lib/thumb/libm.a(lib_a-sf_copysign.o)
 .debug_abbrev  0x000030b9      0x16e /opt/paparazzi/arm-multilib/lib/gcc/arm-none-eabi/4.6.2/../../../../arm-none-eabi/lib/thumb/libc.a(lib_a-errno.o)
 .debug_abbrev  0x00003227      0x166 /opt/paparazzi/arm-multilib/lib/gcc/arm-none-eabi/4.6.2/../../../../arm-none-eabi/lib/thumb/libc.a(lib_a-impure.o)
 .debug_abbrev  0x0000338d       0x14 /opt/paparazzi/arm-multilib/lib/gcc/arm-none-eabi/4.6.2/thumb/libgcc.a(_thumb1_case_uqi.o)
 .debug_abbrev  0x000033a1       0x14 /opt/paparazzi/arm-multilib/lib/gcc/arm-none-eabi/4.6.2/thumb/libgcc.a(_udivsi3.o)
 .debug_abbrev  0x000033b5       0x14 /opt/paparazzi/arm-multilib/lib/gcc/arm-none-eabi/4.6.2/thumb/libgcc.a(_divsi3.o)
 .debug_abbrev  0x000033c9       0x14 /opt/paparazzi/arm-multilib/lib/gcc/arm-none-eabi/4.6.2/thumb/libgcc.a(_dvmd_tls.o)
 .debug_abbrev  0x000033dd       0x14 /opt/paparazzi/arm-multilib/lib/gcc/arm-none-eabi/4.6.2/thumb/libgcc.a(_arm_addsubdf3.o)
 .debug_abbrev  0x000033f1       0x14 /opt/paparazzi/arm-multilib/lib/gcc/arm-none-eabi/4.6.2/thumb/libgcc.a(_arm_muldivdf3.o)
 .debug_abbrev  0x00003405       0x14 /opt/paparazzi/arm-multilib/lib/gcc/arm-none-eabi/4.6.2/thumb/libgcc.a(_arm_cmpdf2.o)
 .debug_abbrev  0x00003419       0x14 /opt/paparazzi/arm-multilib/lib/gcc/arm-none-eabi/4.6.2/thumb/libgcc.a(_arm_fixdfsi.o)
 .debug_abbrev  0x0000342d       0x14 /opt/paparazzi/arm-multilib/lib/gcc/arm-none-eabi/4.6.2/thumb/libgcc.a(_arm_fixunsdfsi.o)
 .debug_abbrev  0x00003441       0x14 /opt/paparazzi/arm-multilib/lib/gcc/arm-none-eabi/4.6.2/thumb/libgcc.a(_arm_truncdfsf2.o)
 .debug_abbrev  0x00003455       0x14 /opt/paparazzi/arm-multilib/lib/gcc/arm-none-eabi/4.6.2/thumb/libgcc.a(_arm_addsubsf3.o)
 .debug_abbrev  0x00003469       0x14 /opt/paparazzi/arm-multilib/lib/gcc/arm-none-eabi/4.6.2/thumb/libgcc.a(_arm_muldivsf3.o)
 .debug_abbrev  0x0000347d       0x14 /opt/paparazzi/arm-multilib/lib/gcc/arm-none-eabi/4.6.2/thumb/libgcc.a(_arm_cmpsf2.o)
 .debug_abbrev  0x00003491       0x14 /opt/paparazzi/arm-multilib/lib/gcc/arm-none-eabi/4.6.2/thumb/libgcc.a(_arm_fixsfsi.o)
 .debug_abbrev  0x000034a5       0x14 /opt/paparazzi/arm-multilib/lib/gcc/arm-none-eabi/4.6.2/thumb/libgcc.a(_arm_fixunssfsi.o)

.debug_line     0x00000000     0x65c9
 *(.debug_line)
 .debug_line    0x00000000      0x1e1 /opt/paparazzi/arm-multilib/lib/gcc/arm-none-eabi/4.6.2/../../../../arm-none-eabi/lib/thumb/libm.a(lib_a-s_atan.o)
 .debug_line    0x000001e1      0x152 /opt/paparazzi/arm-multilib/lib/gcc/arm-none-eabi/4.6.2/../../../../arm-none-eabi/lib/thumb/libm.a(lib_a-s_cos.o)
 .debug_line    0x00000333      0x18f /opt/paparazzi/arm-multilib/lib/gcc/arm-none-eabi/4.6.2/../../../../arm-none-eabi/lib/thumb/libm.a(lib_a-s_fabs.o)
 .debug_line    0x000004c2      0x183 /opt/paparazzi/arm-multilib/lib/gcc/arm-none-eabi/4.6.2/../../../../arm-none-eabi/lib/thumb/libm.a(lib_a-s_rint.o)
 .debug_line    0x00000645      0x155 /opt/paparazzi/arm-multilib/lib/gcc/arm-none-eabi/4.6.2/../../../../arm-none-eabi/lib/thumb/libm.a(lib_a-s_sin.o)
 .debug_line    0x0000079a      0x14f /opt/paparazzi/arm-multilib/lib/gcc/arm-none-eabi/4.6.2/../../../../arm-none-eabi/lib/thumb/libm.a(lib_a-s_tan.o)
 .debug_line    0x000008e9      0x1d1 /opt/paparazzi/arm-multilib/lib/gcc/arm-none-eabi/4.6.2/../../../../arm-none-eabi/lib/thumb/libm.a(lib_a-sf_atan.o)
 .debug_line    0x00000aba      0x152 /opt/paparazzi/arm-multilib/lib/gcc/arm-none-eabi/4.6.2/../../../../arm-none-eabi/lib/thumb/libm.a(lib_a-sf_cos.o)
 .debug_line    0x00000c0c      0x190 /opt/paparazzi/arm-multilib/lib/gcc/arm-none-eabi/4.6.2/../../../../arm-none-eabi/lib/thumb/libm.a(lib_a-sf_fabs.o)
 .debug_line    0x00000d9c      0x152 /opt/paparazzi/arm-multilib/lib/gcc/arm-none-eabi/4.6.2/../../../../arm-none-eabi/lib/thumb/libm.a(lib_a-sf_sin.o)
 .debug_line    0x00000eee      0x14c /opt/paparazzi/arm-multilib/lib/gcc/arm-none-eabi/4.6.2/../../../../arm-none-eabi/lib/thumb/libm.a(lib_a-sf_tan.o)
 .debug_line    0x0000103a       0xec /opt/paparazzi/arm-multilib/lib/gcc/arm-none-eabi/4.6.2/../../../../arm-none-eabi/lib/thumb/libm.a(lib_a-w_acos.o)
 .debug_line    0x00001126       0xec /opt/paparazzi/arm-multilib/lib/gcc/arm-none-eabi/4.6.2/../../../../arm-none-eabi/lib/thumb/libm.a(lib_a-w_asin.o)
 .debug_line    0x00001212       0xd2 /opt/paparazzi/arm-multilib/lib/gcc/arm-none-eabi/4.6.2/../../../../arm-none-eabi/lib/thumb/libm.a(lib_a-w_atan2.o)
 .debug_line    0x000012e4       0xec /opt/paparazzi/arm-multilib/lib/gcc/arm-none-eabi/4.6.2/../../../../arm-none-eabi/lib/thumb/libm.a(lib_a-w_cosh.o)
 .debug_line    0x000013d0       0xed /opt/paparazzi/arm-multilib/lib/gcc/arm-none-eabi/4.6.2/../../../../arm-none-eabi/lib/thumb/libm.a(lib_a-w_exp.o)
 .debug_line    0x000014bd       0xf6 /opt/paparazzi/arm-multilib/lib/gcc/arm-none-eabi/4.6.2/../../../../arm-none-eabi/lib/thumb/libm.a(lib_a-w_log.o)
 .debug_line    0x000015b3      0x168 /opt/paparazzi/arm-multilib/lib/gcc/arm-none-eabi/4.6.2/../../../../arm-none-eabi/lib/thumb/libm.a(lib_a-w_pow.o)
 .debug_line    0x0000171b      0x103 /opt/paparazzi/arm-multilib/lib/gcc/arm-none-eabi/4.6.2/../../../../arm-none-eabi/lib/thumb/libm.a(lib_a-w_sinh.o)
 .debug_line    0x0000181e       0xea /opt/paparazzi/arm-multilib/lib/gcc/arm-none-eabi/4.6.2/../../../../arm-none-eabi/lib/thumb/libm.a(lib_a-w_sqrt.o)
 .debug_line    0x00001908       0xd2 /opt/paparazzi/arm-multilib/lib/gcc/arm-none-eabi/4.6.2/../../../../arm-none-eabi/lib/thumb/libm.a(lib_a-wf_atan2.o)
 .debug_line    0x000019da      0x16b /opt/paparazzi/arm-multilib/lib/gcc/arm-none-eabi/4.6.2/../../../../arm-none-eabi/lib/thumb/libm.a(lib_a-wf_pow.o)
 .debug_line    0x00001b45       0xee /opt/paparazzi/arm-multilib/lib/gcc/arm-none-eabi/4.6.2/../../../../arm-none-eabi/lib/thumb/libm.a(lib_a-wf_sqrt.o)
 .debug_line    0x00001c33      0x182 /opt/paparazzi/arm-multilib/lib/gcc/arm-none-eabi/4.6.2/../../../../arm-none-eabi/lib/thumb/libm.a(lib_a-e_acos.o)
 .debug_line    0x00001db5      0x184 /opt/paparazzi/arm-multilib/lib/gcc/arm-none-eabi/4.6.2/../../../../arm-none-eabi/lib/thumb/libm.a(lib_a-e_asin.o)
 .debug_line    0x00001f39      0x1a2 /opt/paparazzi/arm-multilib/lib/gcc/arm-none-eabi/4.6.2/../../../../arm-none-eabi/lib/thumb/libm.a(lib_a-e_atan2.o)
 .debug_line    0x000020db      0x113 /opt/paparazzi/arm-multilib/lib/gcc/arm-none-eabi/4.6.2/../../../../arm-none-eabi/lib/thumb/libm.a(lib_a-e_cosh.o)
 .debug_line    0x000021ee      0x187 /opt/paparazzi/arm-multilib/lib/gcc/arm-none-eabi/4.6.2/../../../../arm-none-eabi/lib/thumb/libm.a(lib_a-e_exp.o)
 .debug_line    0x00002375      0x1d9 /opt/paparazzi/arm-multilib/lib/gcc/arm-none-eabi/4.6.2/../../../../arm-none-eabi/lib/thumb/libm.a(lib_a-e_log.o)
 .debug_line    0x0000254e      0x2ab /opt/paparazzi/arm-multilib/lib/gcc/arm-none-eabi/4.6.2/../../../../arm-none-eabi/lib/thumb/libm.a(lib_a-e_pow.o)
 .debug_line    0x000027f9      0x1c9 /opt/paparazzi/arm-multilib/lib/gcc/arm-none-eabi/4.6.2/../../../../arm-none-eabi/lib/thumb/libm.a(lib_a-e_rem_pio2.o)
 .debug_line    0x000029c2      0x11a /opt/paparazzi/arm-multilib/lib/gcc/arm-none-eabi/4.6.2/../../../../arm-none-eabi/lib/thumb/libm.a(lib_a-e_sinh.o)
 .debug_line    0x00002adc      0x1ce /opt/paparazzi/arm-multilib/lib/gcc/arm-none-eabi/4.6.2/../../../../arm-none-eabi/lib/thumb/libm.a(lib_a-e_sqrt.o)
 .debug_line    0x00002caa      0x17a /opt/paparazzi/arm-multilib/lib/gcc/arm-none-eabi/4.6.2/../../../../arm-none-eabi/lib/thumb/libm.a(lib_a-ef_atan2.o)
 .debug_line    0x00002e24      0x269 /opt/paparazzi/arm-multilib/lib/gcc/arm-none-eabi/4.6.2/../../../../arm-none-eabi/lib/thumb/libm.a(lib_a-ef_pow.o)
 .debug_line    0x0000308d      0x1c2 /opt/paparazzi/arm-multilib/lib/gcc/arm-none-eabi/4.6.2/../../../../arm-none-eabi/lib/thumb/libm.a(lib_a-ef_rem_pio2.o)
 .debug_line    0x0000324f      0x18b /opt/paparazzi/arm-multilib/lib/gcc/arm-none-eabi/4.6.2/../../../../arm-none-eabi/lib/thumb/libm.a(lib_a-ef_sqrt.o)
 .debug_line    0x000033da      0x15d /opt/paparazzi/arm-multilib/lib/gcc/arm-none-eabi/4.6.2/../../../../arm-none-eabi/lib/thumb/libm.a(lib_a-k_cos.o)
 .debug_line    0x00003537      0x460 /opt/paparazzi/arm-multilib/lib/gcc/arm-none-eabi/4.6.2/../../../../arm-none-eabi/lib/thumb/libm.a(lib_a-k_rem_pio2.o)
 .debug_line    0x00003997       0xff /opt/paparazzi/arm-multilib/lib/gcc/arm-none-eabi/4.6.2/../../../../arm-none-eabi/lib/thumb/libm.a(lib_a-k_sin.o)
 .debug_line    0x00003a96      0x198 /opt/paparazzi/arm-multilib/lib/gcc/arm-none-eabi/4.6.2/../../../../arm-none-eabi/lib/thumb/libm.a(lib_a-k_tan.o)
 .debug_line    0x00003c2e      0x103 /opt/paparazzi/arm-multilib/lib/gcc/arm-none-eabi/4.6.2/../../../../arm-none-eabi/lib/thumb/libm.a(lib_a-kf_cos.o)
 .debug_line    0x00003d31      0x468 /opt/paparazzi/arm-multilib/lib/gcc/arm-none-eabi/4.6.2/../../../../arm-none-eabi/lib/thumb/libm.a(lib_a-kf_rem_pio2.o)
 .debug_line    0x00004199       0xfd /opt/paparazzi/arm-multilib/lib/gcc/arm-none-eabi/4.6.2/../../../../arm-none-eabi/lib/thumb/libm.a(lib_a-kf_sin.o)
 .debug_line    0x00004296      0x193 /opt/paparazzi/arm-multilib/lib/gcc/arm-none-eabi/4.6.2/../../../../arm-none-eabi/lib/thumb/libm.a(lib_a-kf_tan.o)
 .debug_line    0x00004429      0x1da /opt/paparazzi/arm-multilib/lib/gcc/arm-none-eabi/4.6.2/../../../../arm-none-eabi/lib/thumb/libm.a(lib_a-s_expm1.o)
 .debug_line    0x00004603      0x139 /opt/paparazzi/arm-multilib/lib/gcc/arm-none-eabi/4.6.2/../../../../arm-none-eabi/lib/thumb/libm.a(lib_a-s_finite.o)
 .debug_line    0x0000473c      0x1c6 /opt/paparazzi/arm-multilib/lib/gcc/arm-none-eabi/4.6.2/../../../../arm-none-eabi/lib/thumb/libm.a(lib_a-s_floor.o)
 .debug_line    0x00004902      0x171 /opt/paparazzi/arm-multilib/lib/gcc/arm-none-eabi/4.6.2/../../../../arm-none-eabi/lib/thumb/libm.a(lib_a-s_fpclassify.o)
 .debug_line    0x00004a73       0x70 /opt/paparazzi/arm-multilib/lib/gcc/arm-none-eabi/4.6.2/../../../../arm-none-eabi/lib/thumb/libm.a(lib_a-s_lib_ver.o)
 .debug_line    0x00004ae3       0xd5 /opt/paparazzi/arm-multilib/lib/gcc/arm-none-eabi/4.6.2/../../../../arm-none-eabi/lib/thumb/libm.a(lib_a-s_matherr.o)
 .debug_line    0x00004bb8       0xd0 /opt/paparazzi/arm-multilib/lib/gcc/arm-none-eabi/4.6.2/../../../../arm-none-eabi/lib/thumb/libm.a(lib_a-s_nan.o)
 .debug_line    0x00004c88      0x16b /opt/paparazzi/arm-multilib/lib/gcc/arm-none-eabi/4.6.2/../../../../arm-none-eabi/lib/thumb/libm.a(lib_a-s_scalbn.o)
 .debug_line    0x00004df3      0x13d /opt/paparazzi/arm-multilib/lib/gcc/arm-none-eabi/4.6.2/../../../../arm-none-eabi/lib/thumb/libm.a(lib_a-sf_finite.o)
 .debug_line    0x00004f30      0x1b3 /opt/paparazzi/arm-multilib/lib/gcc/arm-none-eabi/4.6.2/../../../../arm-none-eabi/lib/thumb/libm.a(lib_a-sf_floor.o)
 .debug_line    0x000050e3      0x148 /opt/paparazzi/arm-multilib/lib/gcc/arm-none-eabi/4.6.2/../../../../arm-none-eabi/lib/thumb/libm.a(lib_a-sf_fpclassify.o)
 .debug_line    0x0000522b       0xcf /opt/paparazzi/arm-multilib/lib/gcc/arm-none-eabi/4.6.2/../../../../arm-none-eabi/lib/thumb/libm.a(lib_a-sf_nan.o)
 .debug_line    0x000052fa      0x163 /opt/paparazzi/arm-multilib/lib/gcc/arm-none-eabi/4.6.2/../../../../arm-none-eabi/lib/thumb/libm.a(lib_a-sf_scalbn.o)
 .debug_line    0x0000545d      0x148 /opt/paparazzi/arm-multilib/lib/gcc/arm-none-eabi/4.6.2/../../../../arm-none-eabi/lib/thumb/libm.a(lib_a-s_copysign.o)
 .debug_line    0x000055a5      0x149 /opt/paparazzi/arm-multilib/lib/gcc/arm-none-eabi/4.6.2/../../../../arm-none-eabi/lib/thumb/libm.a(lib_a-sf_copysign.o)
 .debug_line    0x000056ee      0x134 /opt/paparazzi/arm-multilib/lib/gcc/arm-none-eabi/4.6.2/../../../../arm-none-eabi/lib/thumb/libc.a(lib_a-errno.o)
 .debug_line    0x00005822      0x117 /opt/paparazzi/arm-multilib/lib/gcc/arm-none-eabi/4.6.2/../../../../arm-none-eabi/lib/thumb/libc.a(lib_a-impure.o)
 .debug_line    0x00005939       0x8b /opt/paparazzi/arm-multilib/lib/gcc/arm-none-eabi/4.6.2/thumb/libgcc.a(_thumb1_case_uqi.o)
 .debug_line    0x000059c4       0x9e /opt/paparazzi/arm-multilib/lib/gcc/arm-none-eabi/4.6.2/thumb/libgcc.a(_udivsi3.o)
 .debug_line    0x00005a62       0xab /opt/paparazzi/arm-multilib/lib/gcc/arm-none-eabi/4.6.2/thumb/libgcc.a(_divsi3.o)
 .debug_line    0x00005b0d       0x83 /opt/paparazzi/arm-multilib/lib/gcc/arm-none-eabi/4.6.2/thumb/libgcc.a(_dvmd_tls.o)
 .debug_line    0x00005b90      0x188 /opt/paparazzi/arm-multilib/lib/gcc/arm-none-eabi/4.6.2/thumb/libgcc.a(_arm_addsubdf3.o)
 .debug_line    0x00005d18      0x1a0 /opt/paparazzi/arm-multilib/lib/gcc/arm-none-eabi/4.6.2/thumb/libgcc.a(_arm_muldivdf3.o)
 .debug_line    0x00005eb8       0xce /opt/paparazzi/arm-multilib/lib/gcc/arm-none-eabi/4.6.2/thumb/libgcc.a(_arm_cmpdf2.o)
 .debug_line    0x00005f86       0x98 /opt/paparazzi/arm-multilib/lib/gcc/arm-none-eabi/4.6.2/thumb/libgcc.a(_arm_fixdfsi.o)
 .debug_line    0x0000601e       0x96 /opt/paparazzi/arm-multilib/lib/gcc/arm-none-eabi/4.6.2/thumb/libgcc.a(_arm_fixunsdfsi.o)
 .debug_line    0x000060b4       0xa9 /opt/paparazzi/arm-multilib/lib/gcc/arm-none-eabi/4.6.2/thumb/libgcc.a(_arm_truncdfsf2.o)
 .debug_line    0x0000615d      0x139 /opt/paparazzi/arm-multilib/lib/gcc/arm-none-eabi/4.6.2/thumb/libgcc.a(_arm_addsubsf3.o)
 .debug_line    0x00006296      0x143 /opt/paparazzi/arm-multilib/lib/gcc/arm-none-eabi/4.6.2/thumb/libgcc.a(_arm_muldivsf3.o)
 .debug_line    0x000063d9       0xc2 /opt/paparazzi/arm-multilib/lib/gcc/arm-none-eabi/4.6.2/thumb/libgcc.a(_arm_cmpsf2.o)
 .debug_line    0x0000649b       0x98 /opt/paparazzi/arm-multilib/lib/gcc/arm-none-eabi/4.6.2/thumb/libgcc.a(_arm_fixsfsi.o)
 .debug_line    0x00006533       0x96 /opt/paparazzi/arm-multilib/lib/gcc/arm-none-eabi/4.6.2/thumb/libgcc.a(_arm_fixunssfsi.o)

.debug_frame    0x00000000      0xac8
 *(.debug_frame)
 .debug_frame   0x00000000       0x30 /opt/paparazzi/arm-multilib/lib/gcc/arm-none-eabi/4.6.2/../../../../arm-none-eabi/lib/thumb/libm.a(lib_a-s_atan.o)
 .debug_frame   0x00000030       0x2c /opt/paparazzi/arm-multilib/lib/gcc/arm-none-eabi/4.6.2/../../../../arm-none-eabi/lib/thumb/libm.a(lib_a-s_cos.o)
 .debug_frame   0x0000005c       0x20 /opt/paparazzi/arm-multilib/lib/gcc/arm-none-eabi/4.6.2/../../../../arm-none-eabi/lib/thumb/libm.a(lib_a-s_fabs.o)
 .debug_frame   0x0000007c       0x30 /opt/paparazzi/arm-multilib/lib/gcc/arm-none-eabi/4.6.2/../../../../arm-none-eabi/lib/thumb/libm.a(lib_a-s_rint.o)
 .debug_frame   0x000000ac       0x2c /opt/paparazzi/arm-multilib/lib/gcc/arm-none-eabi/4.6.2/../../../../arm-none-eabi/lib/thumb/libm.a(lib_a-s_sin.o)
 .debug_frame   0x000000d8       0x2c /opt/paparazzi/arm-multilib/lib/gcc/arm-none-eabi/4.6.2/../../../../arm-none-eabi/lib/thumb/libm.a(lib_a-s_tan.o)
 .debug_frame   0x00000104       0x34 /opt/paparazzi/arm-multilib/lib/gcc/arm-none-eabi/4.6.2/../../../../arm-none-eabi/lib/thumb/libm.a(lib_a-sf_atan.o)
 .debug_frame   0x00000138       0x2c /opt/paparazzi/arm-multilib/lib/gcc/arm-none-eabi/4.6.2/../../../../arm-none-eabi/lib/thumb/libm.a(lib_a-sf_cos.o)
 .debug_frame   0x00000164       0x20 /opt/paparazzi/arm-multilib/lib/gcc/arm-none-eabi/4.6.2/../../../../arm-none-eabi/lib/thumb/libm.a(lib_a-sf_fabs.o)
 .debug_frame   0x00000184       0x2c /opt/paparazzi/arm-multilib/lib/gcc/arm-none-eabi/4.6.2/../../../../arm-none-eabi/lib/thumb/libm.a(lib_a-sf_sin.o)
 .debug_frame   0x000001b0       0x2c /opt/paparazzi/arm-multilib/lib/gcc/arm-none-eabi/4.6.2/../../../../arm-none-eabi/lib/thumb/libm.a(lib_a-sf_tan.o)
 .debug_frame   0x000001dc       0x30 /opt/paparazzi/arm-multilib/lib/gcc/arm-none-eabi/4.6.2/../../../../arm-none-eabi/lib/thumb/libm.a(lib_a-w_acos.o)
 .debug_frame   0x0000020c       0x30 /opt/paparazzi/arm-multilib/lib/gcc/arm-none-eabi/4.6.2/../../../../arm-none-eabi/lib/thumb/libm.a(lib_a-w_asin.o)
 .debug_frame   0x0000023c       0x28 /opt/paparazzi/arm-multilib/lib/gcc/arm-none-eabi/4.6.2/../../../../arm-none-eabi/lib/thumb/libm.a(lib_a-w_atan2.o)
 .debug_frame   0x00000264       0x30 /opt/paparazzi/arm-multilib/lib/gcc/arm-none-eabi/4.6.2/../../../../arm-none-eabi/lib/thumb/libm.a(lib_a-w_cosh.o)
 .debug_frame   0x00000294       0x30 /opt/paparazzi/arm-multilib/lib/gcc/arm-none-eabi/4.6.2/../../../../arm-none-eabi/lib/thumb/libm.a(lib_a-w_exp.o)
 .debug_frame   0x000002c4       0x30 /opt/paparazzi/arm-multilib/lib/gcc/arm-none-eabi/4.6.2/../../../../arm-none-eabi/lib/thumb/libm.a(lib_a-w_log.o)
 .debug_frame   0x000002f4       0x30 /opt/paparazzi/arm-multilib/lib/gcc/arm-none-eabi/4.6.2/../../../../arm-none-eabi/lib/thumb/libm.a(lib_a-w_pow.o)
 .debug_frame   0x00000324       0x30 /opt/paparazzi/arm-multilib/lib/gcc/arm-none-eabi/4.6.2/../../../../arm-none-eabi/lib/thumb/libm.a(lib_a-w_sinh.o)
 .debug_frame   0x00000354       0x30 /opt/paparazzi/arm-multilib/lib/gcc/arm-none-eabi/4.6.2/../../../../arm-none-eabi/lib/thumb/libm.a(lib_a-w_sqrt.o)
 .debug_frame   0x00000384       0x28 /opt/paparazzi/arm-multilib/lib/gcc/arm-none-eabi/4.6.2/../../../../arm-none-eabi/lib/thumb/libm.a(lib_a-wf_atan2.o)
 .debug_frame   0x000003ac       0x30 /opt/paparazzi/arm-multilib/lib/gcc/arm-none-eabi/4.6.2/../../../../arm-none-eabi/lib/thumb/libm.a(lib_a-wf_pow.o)
 .debug_frame   0x000003dc       0x30 /opt/paparazzi/arm-multilib/lib/gcc/arm-none-eabi/4.6.2/../../../../arm-none-eabi/lib/thumb/libm.a(lib_a-wf_sqrt.o)
 .debug_frame   0x0000040c       0x30 /opt/paparazzi/arm-multilib/lib/gcc/arm-none-eabi/4.6.2/../../../../arm-none-eabi/lib/thumb/libm.a(lib_a-e_acos.o)
 .debug_frame   0x0000043c       0x30 /opt/paparazzi/arm-multilib/lib/gcc/arm-none-eabi/4.6.2/../../../../arm-none-eabi/lib/thumb/libm.a(lib_a-e_asin.o)
 .debug_frame   0x0000046c       0x30 /opt/paparazzi/arm-multilib/lib/gcc/arm-none-eabi/4.6.2/../../../../arm-none-eabi/lib/thumb/libm.a(lib_a-e_atan2.o)
 .debug_frame   0x0000049c       0x34 /opt/paparazzi/arm-multilib/lib/gcc/arm-none-eabi/4.6.2/../../../../arm-none-eabi/lib/thumb/libm.a(lib_a-e_cosh.o)
 .debug_frame   0x000004d0       0x30 /opt/paparazzi/arm-multilib/lib/gcc/arm-none-eabi/4.6.2/../../../../arm-none-eabi/lib/thumb/libm.a(lib_a-e_exp.o)
 .debug_frame   0x00000500       0x30 /opt/paparazzi/arm-multilib/lib/gcc/arm-none-eabi/4.6.2/../../../../arm-none-eabi/lib/thumb/libm.a(lib_a-e_log.o)
 .debug_frame   0x00000530       0x30 /opt/paparazzi/arm-multilib/lib/gcc/arm-none-eabi/4.6.2/../../../../arm-none-eabi/lib/thumb/libm.a(lib_a-e_pow.o)
 .debug_frame   0x00000560       0x30 /opt/paparazzi/arm-multilib/lib/gcc/arm-none-eabi/4.6.2/../../../../arm-none-eabi/lib/thumb/libm.a(lib_a-e_rem_pio2.o)
 .debug_frame   0x00000590       0x30 /opt/paparazzi/arm-multilib/lib/gcc/arm-none-eabi/4.6.2/../../../../arm-none-eabi/lib/thumb/libm.a(lib_a-e_sinh.o)
 .debug_frame   0x000005c0       0x30 /opt/paparazzi/arm-multilib/lib/gcc/arm-none-eabi/4.6.2/../../../../arm-none-eabi/lib/thumb/libm.a(lib_a-e_sqrt.o)
 .debug_frame   0x000005f0       0x34 /opt/paparazzi/arm-multilib/lib/gcc/arm-none-eabi/4.6.2/../../../../arm-none-eabi/lib/thumb/libm.a(lib_a-ef_atan2.o)
 .debug_frame   0x00000624       0x30 /opt/paparazzi/arm-multilib/lib/gcc/arm-none-eabi/4.6.2/../../../../arm-none-eabi/lib/thumb/libm.a(lib_a-ef_pow.o)
 .debug_frame   0x00000654       0x30 /opt/paparazzi/arm-multilib/lib/gcc/arm-none-eabi/4.6.2/../../../../arm-none-eabi/lib/thumb/libm.a(lib_a-ef_rem_pio2.o)
 .debug_frame   0x00000684       0x2c /opt/paparazzi/arm-multilib/lib/gcc/arm-none-eabi/4.6.2/../../../../arm-none-eabi/lib/thumb/libm.a(lib_a-ef_sqrt.o)
 .debug_frame   0x000006b0       0x30 /opt/paparazzi/arm-multilib/lib/gcc/arm-none-eabi/4.6.2/../../../../arm-none-eabi/lib/thumb/libm.a(lib_a-k_cos.o)
 .debug_frame   0x000006e0       0x34 /opt/paparazzi/arm-multilib/lib/gcc/arm-none-eabi/4.6.2/../../../../arm-none-eabi/lib/thumb/libm.a(lib_a-k_rem_pio2.o)
 .debug_frame   0x00000714       0x30 /opt/paparazzi/arm-multilib/lib/gcc/arm-none-eabi/4.6.2/../../../../arm-none-eabi/lib/thumb/libm.a(lib_a-k_sin.o)
 .debug_frame   0x00000744       0x30 /opt/paparazzi/arm-multilib/lib/gcc/arm-none-eabi/4.6.2/../../../../arm-none-eabi/lib/thumb/libm.a(lib_a-k_tan.o)
 .debug_frame   0x00000774       0x30 /opt/paparazzi/arm-multilib/lib/gcc/arm-none-eabi/4.6.2/../../../../arm-none-eabi/lib/thumb/libm.a(lib_a-kf_cos.o)
 .debug_frame   0x000007a4       0x34 /opt/paparazzi/arm-multilib/lib/gcc/arm-none-eabi/4.6.2/../../../../arm-none-eabi/lib/thumb/libm.a(lib_a-kf_rem_pio2.o)
 .debug_frame   0x000007d8       0x34 /opt/paparazzi/arm-multilib/lib/gcc/arm-none-eabi/4.6.2/../../../../arm-none-eabi/lib/thumb/libm.a(lib_a-kf_sin.o)
 .debug_frame   0x0000080c       0x30 /opt/paparazzi/arm-multilib/lib/gcc/arm-none-eabi/4.6.2/../../../../arm-none-eabi/lib/thumb/libm.a(lib_a-kf_tan.o)
 .debug_frame   0x0000083c       0x30 /opt/paparazzi/arm-multilib/lib/gcc/arm-none-eabi/4.6.2/../../../../arm-none-eabi/lib/thumb/libm.a(lib_a-s_expm1.o)
 .debug_frame   0x0000086c       0x20 /opt/paparazzi/arm-multilib/lib/gcc/arm-none-eabi/4.6.2/../../../../arm-none-eabi/lib/thumb/libm.a(lib_a-s_finite.o)
 .debug_frame   0x0000088c       0x34 /opt/paparazzi/arm-multilib/lib/gcc/arm-none-eabi/4.6.2/../../../../arm-none-eabi/lib/thumb/libm.a(lib_a-s_floor.o)
 .debug_frame   0x000008c0       0x2c /opt/paparazzi/arm-multilib/lib/gcc/arm-none-eabi/4.6.2/../../../../arm-none-eabi/lib/thumb/libm.a(lib_a-s_fpclassify.o)
 .debug_frame   0x000008ec       0x20 /opt/paparazzi/arm-multilib/lib/gcc/arm-none-eabi/4.6.2/../../../../arm-none-eabi/lib/thumb/libm.a(lib_a-s_matherr.o)
 .debug_frame   0x0000090c       0x20 /opt/paparazzi/arm-multilib/lib/gcc/arm-none-eabi/4.6.2/../../../../arm-none-eabi/lib/thumb/libm.a(lib_a-s_nan.o)
 .debug_frame   0x0000092c       0x30 /opt/paparazzi/arm-multilib/lib/gcc/arm-none-eabi/4.6.2/../../../../arm-none-eabi/lib/thumb/libm.a(lib_a-s_scalbn.o)
 .debug_frame   0x0000095c       0x20 /opt/paparazzi/arm-multilib/lib/gcc/arm-none-eabi/4.6.2/../../../../arm-none-eabi/lib/thumb/libm.a(lib_a-sf_finite.o)
 .debug_frame   0x0000097c       0x2c /opt/paparazzi/arm-multilib/lib/gcc/arm-none-eabi/4.6.2/../../../../arm-none-eabi/lib/thumb/libm.a(lib_a-sf_floor.o)
 .debug_frame   0x000009a8       0x28 /opt/paparazzi/arm-multilib/lib/gcc/arm-none-eabi/4.6.2/../../../../arm-none-eabi/lib/thumb/libm.a(lib_a-sf_fpclassify.o)
 .debug_frame   0x000009d0       0x20 /opt/paparazzi/arm-multilib/lib/gcc/arm-none-eabi/4.6.2/../../../../arm-none-eabi/lib/thumb/libm.a(lib_a-sf_nan.o)
 .debug_frame   0x000009f0       0x2c /opt/paparazzi/arm-multilib/lib/gcc/arm-none-eabi/4.6.2/../../../../arm-none-eabi/lib/thumb/libm.a(lib_a-sf_scalbn.o)
 .debug_frame   0x00000a1c       0x2c /opt/paparazzi/arm-multilib/lib/gcc/arm-none-eabi/4.6.2/../../../../arm-none-eabi/lib/thumb/libm.a(lib_a-s_copysign.o)
 .debug_frame   0x00000a48       0x20 /opt/paparazzi/arm-multilib/lib/gcc/arm-none-eabi/4.6.2/../../../../arm-none-eabi/lib/thumb/libm.a(lib_a-sf_copysign.o)
 .debug_frame   0x00000a68       0x20 /opt/paparazzi/arm-multilib/lib/gcc/arm-none-eabi/4.6.2/../../../../arm-none-eabi/lib/thumb/libc.a(lib_a-errno.o)
 .debug_frame   0x00000a88       0x20 /opt/paparazzi/arm-multilib/lib/gcc/arm-none-eabi/4.6.2/thumb/libgcc.a(_udivsi3.o)
 .debug_frame   0x00000aa8       0x20 /opt/paparazzi/arm-multilib/lib/gcc/arm-none-eabi/4.6.2/thumb/libgcc.a(_divsi3.o)

.debug_str      0x00000000     0x1c88
 *(.debug_str)
 .debug_str     0x00000000      0x161 /opt/paparazzi/arm-multilib/lib/gcc/arm-none-eabi/4.6.2/../../../../arm-none-eabi/lib/thumb/libm.a(lib_a-s_atan.o)
                                0x1ac (size before relaxing)
 .debug_str     0x00000161       0x4b /opt/paparazzi/arm-multilib/lib/gcc/arm-none-eabi/4.6.2/../../../../arm-none-eabi/lib/thumb/libm.a(lib_a-s_cos.o)
                                0x160 (size before relaxing)
 .debug_str     0x000001ac       0x5b /opt/paparazzi/arm-multilib/lib/gcc/arm-none-eabi/4.6.2/../../../../arm-none-eabi/lib/thumb/libm.a(lib_a-s_fabs.o)
                                0x194 (size before relaxing)
 .debug_str     0x00000207       0xac /opt/paparazzi/arm-multilib/lib/gcc/arm-none-eabi/4.6.2/../../../../arm-none-eabi/lib/thumb/libm.a(lib_a-s_rint.o)
                                0x1ad (size before relaxing)
 .debug_str     0x000002b3       0x4b /opt/paparazzi/arm-multilib/lib/gcc/arm-none-eabi/4.6.2/../../../../arm-none-eabi/lib/thumb/libm.a(lib_a-s_sin.o)
                                0x160 (size before relaxing)
 .debug_str     0x000002fe       0x4b /opt/paparazzi/arm-multilib/lib/gcc/arm-none-eabi/4.6.2/../../../../arm-none-eabi/lib/thumb/libm.a(lib_a-s_tan.o)
                                0x160 (size before relaxing)
 .debug_str     0x00000349       0x73 /opt/paparazzi/arm-multilib/lib/gcc/arm-none-eabi/4.6.2/../../../../arm-none-eabi/lib/thumb/libm.a(lib_a-sf_atan.o)
                                0x1ac (size before relaxing)
 .debug_str     0x000003bc       0x4c /opt/paparazzi/arm-multilib/lib/gcc/arm-none-eabi/4.6.2/../../../../arm-none-eabi/lib/thumb/libm.a(lib_a-sf_cos.o)
                                0x166 (size before relaxing)
 .debug_str     0x00000408       0x58 /opt/paparazzi/arm-multilib/lib/gcc/arm-none-eabi/4.6.2/../../../../arm-none-eabi/lib/thumb/libm.a(lib_a-sf_fabs.o)
                                0x18f (size before relaxing)
 .debug_str     0x00000460       0x4c /opt/paparazzi/arm-multilib/lib/gcc/arm-none-eabi/4.6.2/../../../../arm-none-eabi/lib/thumb/libm.a(lib_a-sf_sin.o)
                                0x166 (size before relaxing)
 .debug_str     0x000004ac       0x4c /opt/paparazzi/arm-multilib/lib/gcc/arm-none-eabi/4.6.2/../../../../arm-none-eabi/lib/thumb/libm.a(lib_a-sf_tan.o)
                                0x166 (size before relaxing)
 .debug_str     0x000004f8       0xc7 /opt/paparazzi/arm-multilib/lib/gcc/arm-none-eabi/4.6.2/../../../../arm-none-eabi/lib/thumb/libm.a(lib_a-w_acos.o)
                                0x1dc (size before relaxing)
 .debug_str     0x000005bf       0x4c /opt/paparazzi/arm-multilib/lib/gcc/arm-none-eabi/4.6.2/../../../../arm-none-eabi/lib/thumb/libm.a(lib_a-w_asin.o)
                                0x1dc (size before relaxing)
 .debug_str     0x0000060b       0x4d /opt/paparazzi/arm-multilib/lib/gcc/arm-none-eabi/4.6.2/../../../../arm-none-eabi/lib/thumb/libm.a(lib_a-w_atan2.o)
                                0x15e (size before relaxing)
 .debug_str     0x00000658       0x4c /opt/paparazzi/arm-multilib/lib/gcc/arm-none-eabi/4.6.2/../../../../arm-none-eabi/lib/thumb/libm.a(lib_a-w_cosh.o)
                                0x1dc (size before relaxing)
 .debug_str     0x000006a4       0x63 /opt/paparazzi/arm-multilib/lib/gcc/arm-none-eabi/4.6.2/../../../../arm-none-eabi/lib/thumb/libm.a(lib_a-w_exp.o)
                                0x1ee (size before relaxing)
 .debug_str     0x00000707       0x4b /opt/paparazzi/arm-multilib/lib/gcc/arm-none-eabi/4.6.2/../../../../arm-none-eabi/lib/thumb/libm.a(lib_a-w_log.o)
                                0x1d6 (size before relaxing)
 .debug_str     0x00000752       0x4b /opt/paparazzi/arm-multilib/lib/gcc/arm-none-eabi/4.6.2/../../../../arm-none-eabi/lib/thumb/libm.a(lib_a-w_pow.o)
                                0x1d6 (size before relaxing)
 .debug_str     0x0000079d       0x4c /opt/paparazzi/arm-multilib/lib/gcc/arm-none-eabi/4.6.2/../../../../arm-none-eabi/lib/thumb/libm.a(lib_a-w_sinh.o)
                                0x1dc (size before relaxing)
 .debug_str     0x000007e9       0x4c /opt/paparazzi/arm-multilib/lib/gcc/arm-none-eabi/4.6.2/../../../../arm-none-eabi/lib/thumb/libm.a(lib_a-w_sqrt.o)
                                0x1dc (size before relaxing)
 .debug_str     0x00000835       0x4e /opt/paparazzi/arm-multilib/lib/gcc/arm-none-eabi/4.6.2/../../../../arm-none-eabi/lib/thumb/libm.a(lib_a-wf_atan2.o)
                                0x160 (size before relaxing)
 .debug_str     0x00000883       0x4c /opt/paparazzi/arm-multilib/lib/gcc/arm-none-eabi/4.6.2/../../../../arm-none-eabi/lib/thumb/libm.a(lib_a-wf_pow.o)
                                0x1dc (size before relaxing)
 .debug_str     0x000008cf       0x4d /opt/paparazzi/arm-multilib/lib/gcc/arm-none-eabi/4.6.2/../../../../arm-none-eabi/lib/thumb/libm.a(lib_a-wf_sqrt.o)
                                0x1de (size before relaxing)
 .debug_str     0x0000091c       0x75 /opt/paparazzi/arm-multilib/lib/gcc/arm-none-eabi/4.6.2/../../../../arm-none-eabi/lib/thumb/libm.a(lib_a-e_acos.o)
                                0x1b8 (size before relaxing)
 .debug_str     0x00000991       0x63 /opt/paparazzi/arm-multilib/lib/gcc/arm-none-eabi/4.6.2/../../../../arm-none-eabi/lib/thumb/libm.a(lib_a-e_asin.o)
                                0x1ca (size before relaxing)
 .debug_str     0x000009f4       0x7b /opt/paparazzi/arm-multilib/lib/gcc/arm-none-eabi/4.6.2/../../../../arm-none-eabi/lib/thumb/libm.a(lib_a-e_atan2.o)
                                0x1c8 (size before relaxing)
 .debug_str     0x00000a6f       0x60 /opt/paparazzi/arm-multilib/lib/gcc/arm-none-eabi/4.6.2/../../../../arm-none-eabi/lib/thumb/libm.a(lib_a-e_cosh.o)
                                0x185 (size before relaxing)
 .debug_str     0x00000acf       0x7a /opt/paparazzi/arm-multilib/lib/gcc/arm-none-eabi/4.6.2/../../../../arm-none-eabi/lib/thumb/libm.a(lib_a-e_exp.o)
                                0x1df (size before relaxing)
 .debug_str     0x00000b49       0x72 /opt/paparazzi/arm-multilib/lib/gcc/arm-none-eabi/4.6.2/../../../../arm-none-eabi/lib/thumb/libm.a(lib_a-e_log.o)
                                0x1c9 (size before relaxing)
 .debug_str     0x00000bbb       0x9c /opt/paparazzi/arm-multilib/lib/gcc/arm-none-eabi/4.6.2/../../../../arm-none-eabi/lib/thumb/libm.a(lib_a-e_pow.o)
                                0x202 (size before relaxing)
 .debug_str     0x00000c57       0xb3 /opt/paparazzi/arm-multilib/lib/gcc/arm-none-eabi/4.6.2/../../../../arm-none-eabi/lib/thumb/libm.a(lib_a-e_rem_pio2.o)
                                0x214 (size before relaxing)
 .debug_str     0x00000d0a       0x61 /opt/paparazzi/arm-multilib/lib/gcc/arm-none-eabi/4.6.2/../../../../arm-none-eabi/lib/thumb/libm.a(lib_a-e_sinh.o)
                                0x181 (size before relaxing)
 .debug_str     0x00000d6b       0x5b /opt/paparazzi/arm-multilib/lib/gcc/arm-none-eabi/4.6.2/../../../../arm-none-eabi/lib/thumb/libm.a(lib_a-e_sqrt.o)
                                0x1b2 (size before relaxing)
 .debug_str     0x00000dc6       0x5f /opt/paparazzi/arm-multilib/lib/gcc/arm-none-eabi/4.6.2/../../../../arm-none-eabi/lib/thumb/libm.a(lib_a-ef_atan2.o)
                                0x1c3 (size before relaxing)
 .debug_str     0x00000e25       0x5b /opt/paparazzi/arm-multilib/lib/gcc/arm-none-eabi/4.6.2/../../../../arm-none-eabi/lib/thumb/libm.a(lib_a-ef_pow.o)
                                0x1f8 (size before relaxing)
 .debug_str     0x00000e80       0x6a /opt/paparazzi/arm-multilib/lib/gcc/arm-none-eabi/4.6.2/../../../../arm-none-eabi/lib/thumb/libm.a(lib_a-ef_rem_pio2.o)
                                0x20e (size before relaxing)
 .debug_str     0x00000eea       0x5d /opt/paparazzi/arm-multilib/lib/gcc/arm-none-eabi/4.6.2/../../../../arm-none-eabi/lib/thumb/libm.a(lib_a-ef_sqrt.o)
                                0x1a8 (size before relaxing)
 .debug_str     0x00000f47       0x58 /opt/paparazzi/arm-multilib/lib/gcc/arm-none-eabi/4.6.2/../../../../arm-none-eabi/lib/thumb/libm.a(lib_a-k_cos.o)
                                0x1a0 (size before relaxing)
 .debug_str     0x00000f9f       0x91 /opt/paparazzi/arm-multilib/lib/gcc/arm-none-eabi/4.6.2/../../../../arm-none-eabi/lib/thumb/libm.a(lib_a-k_rem_pio2.o)
                                0x1b1 (size before relaxing)
 .debug_str     0x00001030       0x58 /opt/paparazzi/arm-multilib/lib/gcc/arm-none-eabi/4.6.2/../../../../arm-none-eabi/lib/thumb/libm.a(lib_a-k_sin.o)
                                0x172 (size before relaxing)
 .debug_str     0x00001088       0x64 /opt/paparazzi/arm-multilib/lib/gcc/arm-none-eabi/4.6.2/../../../../arm-none-eabi/lib/thumb/libm.a(lib_a-k_tan.o)
                                0x1b6 (size before relaxing)
 .debug_str     0x000010ec       0x5a /opt/paparazzi/arm-multilib/lib/gcc/arm-none-eabi/4.6.2/../../../../arm-none-eabi/lib/thumb/libm.a(lib_a-kf_cos.o)
                                0x16f (size before relaxing)
 .debug_str     0x00001146       0x6a /opt/paparazzi/arm-multilib/lib/gcc/arm-none-eabi/4.6.2/../../../../arm-none-eabi/lib/thumb/libm.a(lib_a-kf_rem_pio2.o)
                                0x1b1 (size before relaxing)
 .debug_str     0x000011b0       0x5a /opt/paparazzi/arm-multilib/lib/gcc/arm-none-eabi/4.6.2/../../../../arm-none-eabi/lib/thumb/libm.a(lib_a-kf_sin.o)
                                0x174 (size before relaxing)
 .debug_str     0x0000120a       0x5a /opt/paparazzi/arm-multilib/lib/gcc/arm-none-eabi/4.6.2/../../../../arm-none-eabi/lib/thumb/libm.a(lib_a-kf_tan.o)
                                0x1b1 (size before relaxing)
 .debug_str     0x00001264       0x55 /opt/paparazzi/arm-multilib/lib/gcc/arm-none-eabi/4.6.2/../../../../arm-none-eabi/lib/thumb/libm.a(lib_a-s_expm1.o)
                                0x1cf (size before relaxing)
 .debug_str     0x000012b9       0x57 /opt/paparazzi/arm-multilib/lib/gcc/arm-none-eabi/4.6.2/../../../../arm-none-eabi/lib/thumb/libm.a(lib_a-s_finite.o)
                                0x179 (size before relaxing)
 .debug_str     0x00001310       0x53 /opt/paparazzi/arm-multilib/lib/gcc/arm-none-eabi/4.6.2/../../../../arm-none-eabi/lib/thumb/libm.a(lib_a-s_floor.o)
                                0x1a5 (size before relaxing)
 .debug_str     0x00001363       0x62 /opt/paparazzi/arm-multilib/lib/gcc/arm-none-eabi/4.6.2/../../../../arm-none-eabi/lib/thumb/libm.a(lib_a-s_fpclassify.o)
                                0x1a2 (size before relaxing)
 .debug_str     0x000013c5       0x51 /opt/paparazzi/arm-multilib/lib/gcc/arm-none-eabi/4.6.2/../../../../arm-none-eabi/lib/thumb/libm.a(lib_a-s_lib_ver.o)
                                0x1b9 (size before relaxing)
 .debug_str     0x00001416       0x59 /opt/paparazzi/arm-multilib/lib/gcc/arm-none-eabi/4.6.2/../../../../arm-none-eabi/lib/thumb/libm.a(lib_a-s_matherr.o)
                                0x18b (size before relaxing)
 .debug_str     0x0000146f       0x4d /opt/paparazzi/arm-multilib/lib/gcc/arm-none-eabi/4.6.2/../../../../arm-none-eabi/lib/thumb/libm.a(lib_a-s_nan.o)
                                0x161 (size before relaxing)
 .debug_str     0x000014bc       0x5e /opt/paparazzi/arm-multilib/lib/gcc/arm-none-eabi/4.6.2/../../../../arm-none-eabi/lib/thumb/libm.a(lib_a-s_scalbn.o)
                                0x1c2 (size before relaxing)
 .debug_str     0x0000151a       0x59 /opt/paparazzi/arm-multilib/lib/gcc/arm-none-eabi/4.6.2/../../../../arm-none-eabi/lib/thumb/libm.a(lib_a-sf_finite.o)
                                0x170 (size before relaxing)
 .debug_str     0x00001573       0x55 /opt/paparazzi/arm-multilib/lib/gcc/arm-none-eabi/4.6.2/../../../../arm-none-eabi/lib/thumb/libm.a(lib_a-sf_floor.o)
                                0x1a0 (size before relaxing)
 .debug_str     0x000015c8       0x63 /opt/paparazzi/arm-multilib/lib/gcc/arm-none-eabi/4.6.2/../../../../arm-none-eabi/lib/thumb/libm.a(lib_a-sf_fpclassify.o)
                                0x17b (size before relaxing)
 .debug_str     0x0000162b       0x53 /opt/paparazzi/arm-multilib/lib/gcc/arm-none-eabi/4.6.2/../../../../arm-none-eabi/lib/thumb/libm.a(lib_a-sf_nan.o)
                                0x167 (size before relaxing)
 .debug_str     0x0000167e       0x66 /opt/paparazzi/arm-multilib/lib/gcc/arm-none-eabi/4.6.2/../../../../arm-none-eabi/lib/thumb/libm.a(lib_a-sf_scalbn.o)
                                0x1bd (size before relaxing)
 .debug_str     0x000016e4       0x5b /opt/paparazzi/arm-multilib/lib/gcc/arm-none-eabi/4.6.2/../../../../arm-none-eabi/lib/thumb/libm.a(lib_a-s_copysign.o)
                                0x19b (size before relaxing)
 .debug_str     0x0000173f       0x5d /opt/paparazzi/arm-multilib/lib/gcc/arm-none-eabi/4.6.2/../../../../arm-none-eabi/lib/thumb/libm.a(lib_a-sf_copysign.o)
                                0x19b (size before relaxing)
 .debug_str     0x0000179c      0x438 /opt/paparazzi/arm-multilib/lib/gcc/arm-none-eabi/4.6.2/../../../../arm-none-eabi/lib/thumb/libc.a(lib_a-errno.o)
                                0x502 (size before relaxing)
 .debug_str     0x00001bd4       0xb4 /opt/paparazzi/arm-multilib/lib/gcc/arm-none-eabi/4.6.2/../../../../arm-none-eabi/lib/thumb/libc.a(lib_a-impure.o)
                                0x51a (size before relaxing)

.debug_loc      0x00000000     0x6987
 *(.debug_loc)
 .debug_loc     0x00000000      0x315 /opt/paparazzi/arm-multilib/lib/gcc/arm-none-eabi/4.6.2/../../../../arm-none-eabi/lib/thumb/libm.a(lib_a-s_atan.o)
 .debug_loc     0x00000315       0x90 /opt/paparazzi/arm-multilib/lib/gcc/arm-none-eabi/4.6.2/../../../../arm-none-eabi/lib/thumb/libm.a(lib_a-s_cos.o)
 .debug_loc     0x000003a5       0x18 /opt/paparazzi/arm-multilib/lib/gcc/arm-none-eabi/4.6.2/../../../../arm-none-eabi/lib/thumb/libm.a(lib_a-s_fabs.o)
 .debug_loc     0x000003bd      0x28b /opt/paparazzi/arm-multilib/lib/gcc/arm-none-eabi/4.6.2/../../../../arm-none-eabi/lib/thumb/libm.a(lib_a-s_rint.o)
 .debug_loc     0x00000648       0x90 /opt/paparazzi/arm-multilib/lib/gcc/arm-none-eabi/4.6.2/../../../../arm-none-eabi/lib/thumb/libm.a(lib_a-s_sin.o)
 .debug_loc     0x000006d8       0x90 /opt/paparazzi/arm-multilib/lib/gcc/arm-none-eabi/4.6.2/../../../../arm-none-eabi/lib/thumb/libm.a(lib_a-s_tan.o)
 .debug_loc     0x00000768      0x289 /opt/paparazzi/arm-multilib/lib/gcc/arm-none-eabi/4.6.2/../../../../arm-none-eabi/lib/thumb/libm.a(lib_a-sf_atan.o)
 .debug_loc     0x000009f1       0x85 /opt/paparazzi/arm-multilib/lib/gcc/arm-none-eabi/4.6.2/../../../../arm-none-eabi/lib/thumb/libm.a(lib_a-sf_cos.o)
 .debug_loc     0x00000a76       0x13 /opt/paparazzi/arm-multilib/lib/gcc/arm-none-eabi/4.6.2/../../../../arm-none-eabi/lib/thumb/libm.a(lib_a-sf_fabs.o)
 .debug_loc     0x00000a89       0x85 /opt/paparazzi/arm-multilib/lib/gcc/arm-none-eabi/4.6.2/../../../../arm-none-eabi/lib/thumb/libm.a(lib_a-sf_sin.o)
 .debug_loc     0x00000b0e       0x85 /opt/paparazzi/arm-multilib/lib/gcc/arm-none-eabi/4.6.2/../../../../arm-none-eabi/lib/thumb/libm.a(lib_a-sf_tan.o)
 .debug_loc     0x00000b93       0x75 /opt/paparazzi/arm-multilib/lib/gcc/arm-none-eabi/4.6.2/../../../../arm-none-eabi/lib/thumb/libm.a(lib_a-w_acos.o)
 .debug_loc     0x00000c08       0x75 /opt/paparazzi/arm-multilib/lib/gcc/arm-none-eabi/4.6.2/../../../../arm-none-eabi/lib/thumb/libm.a(lib_a-w_asin.o)
 .debug_loc     0x00000c7d       0x50 /opt/paparazzi/arm-multilib/lib/gcc/arm-none-eabi/4.6.2/../../../../arm-none-eabi/lib/thumb/libm.a(lib_a-w_atan2.o)
 .debug_loc     0x00000ccd       0x75 /opt/paparazzi/arm-multilib/lib/gcc/arm-none-eabi/4.6.2/../../../../arm-none-eabi/lib/thumb/libm.a(lib_a-w_cosh.o)
 .debug_loc     0x00000d42       0x75 /opt/paparazzi/arm-multilib/lib/gcc/arm-none-eabi/4.6.2/../../../../arm-none-eabi/lib/thumb/libm.a(lib_a-w_exp.o)
 .debug_loc     0x00000db7       0x75 /opt/paparazzi/arm-multilib/lib/gcc/arm-none-eabi/4.6.2/../../../../arm-none-eabi/lib/thumb/libm.a(lib_a-w_log.o)
 .debug_loc     0x00000e2c       0x9a /opt/paparazzi/arm-multilib/lib/gcc/arm-none-eabi/4.6.2/../../../../arm-none-eabi/lib/thumb/libm.a(lib_a-w_pow.o)
 .debug_loc     0x00000ec6       0x5d /opt/paparazzi/arm-multilib/lib/gcc/arm-none-eabi/4.6.2/../../../../arm-none-eabi/lib/thumb/libm.a(lib_a-w_sinh.o)
 .debug_loc     0x00000f23       0x75 /opt/paparazzi/arm-multilib/lib/gcc/arm-none-eabi/4.6.2/../../../../arm-none-eabi/lib/thumb/libm.a(lib_a-w_sqrt.o)
 .debug_loc     0x00000f98       0x46 /opt/paparazzi/arm-multilib/lib/gcc/arm-none-eabi/4.6.2/../../../../arm-none-eabi/lib/thumb/libm.a(lib_a-wf_atan2.o)
 .debug_loc     0x00000fde       0xd4 /opt/paparazzi/arm-multilib/lib/gcc/arm-none-eabi/4.6.2/../../../../arm-none-eabi/lib/thumb/libm.a(lib_a-wf_pow.o)
 .debug_loc     0x000010b2       0x68 /opt/paparazzi/arm-multilib/lib/gcc/arm-none-eabi/4.6.2/../../../../arm-none-eabi/lib/thumb/libm.a(lib_a-wf_sqrt.o)
 .debug_loc     0x0000111a      0x240 /opt/paparazzi/arm-multilib/lib/gcc/arm-none-eabi/4.6.2/../../../../arm-none-eabi/lib/thumb/libm.a(lib_a-e_acos.o)
 .debug_loc     0x0000135a      0x1bd /opt/paparazzi/arm-multilib/lib/gcc/arm-none-eabi/4.6.2/../../../../arm-none-eabi/lib/thumb/libm.a(lib_a-e_asin.o)
 .debug_loc     0x00001517      0x1f7 /opt/paparazzi/arm-multilib/lib/gcc/arm-none-eabi/4.6.2/../../../../arm-none-eabi/lib/thumb/libm.a(lib_a-e_atan2.o)
 .debug_loc     0x0000170e      0x158 /opt/paparazzi/arm-multilib/lib/gcc/arm-none-eabi/4.6.2/../../../../arm-none-eabi/lib/thumb/libm.a(lib_a-e_cosh.o)
 .debug_loc     0x00001866      0x24a /opt/paparazzi/arm-multilib/lib/gcc/arm-none-eabi/4.6.2/../../../../arm-none-eabi/lib/thumb/libm.a(lib_a-e_exp.o)
 .debug_loc     0x00001ab0      0x399 /opt/paparazzi/arm-multilib/lib/gcc/arm-none-eabi/4.6.2/../../../../arm-none-eabi/lib/thumb/libm.a(lib_a-e_log.o)
 .debug_loc     0x00001e49      0x9c9 /opt/paparazzi/arm-multilib/lib/gcc/arm-none-eabi/4.6.2/../../../../arm-none-eabi/lib/thumb/libm.a(lib_a-e_pow.o)
 .debug_loc     0x00002812      0x3d8 /opt/paparazzi/arm-multilib/lib/gcc/arm-none-eabi/4.6.2/../../../../arm-none-eabi/lib/thumb/libm.a(lib_a-e_rem_pio2.o)
 .debug_loc     0x00002bea      0x19f /opt/paparazzi/arm-multilib/lib/gcc/arm-none-eabi/4.6.2/../../../../arm-none-eabi/lib/thumb/libm.a(lib_a-e_sinh.o)
 .debug_loc     0x00002d89      0x2e5 /opt/paparazzi/arm-multilib/lib/gcc/arm-none-eabi/4.6.2/../../../../arm-none-eabi/lib/thumb/libm.a(lib_a-e_sqrt.o)
 .debug_loc     0x0000306e      0x31c /opt/paparazzi/arm-multilib/lib/gcc/arm-none-eabi/4.6.2/../../../../arm-none-eabi/lib/thumb/libm.a(lib_a-ef_atan2.o)
 .debug_loc     0x0000338a      0x98f /opt/paparazzi/arm-multilib/lib/gcc/arm-none-eabi/4.6.2/../../../../arm-none-eabi/lib/thumb/libm.a(lib_a-ef_pow.o)
 .debug_loc     0x00003d19      0x450 /opt/paparazzi/arm-multilib/lib/gcc/arm-none-eabi/4.6.2/../../../../arm-none-eabi/lib/thumb/libm.a(lib_a-ef_rem_pio2.o)
 .debug_loc     0x00004169      0x1af /opt/paparazzi/arm-multilib/lib/gcc/arm-none-eabi/4.6.2/../../../../arm-none-eabi/lib/thumb/libm.a(lib_a-ef_sqrt.o)
 .debug_loc     0x00004318      0x151 /opt/paparazzi/arm-multilib/lib/gcc/arm-none-eabi/4.6.2/../../../../arm-none-eabi/lib/thumb/libm.a(lib_a-k_cos.o)
 .debug_loc     0x00004469      0x790 /opt/paparazzi/arm-multilib/lib/gcc/arm-none-eabi/4.6.2/../../../../arm-none-eabi/lib/thumb/libm.a(lib_a-k_rem_pio2.o)
 .debug_loc     0x00004bf9       0xd4 /opt/paparazzi/arm-multilib/lib/gcc/arm-none-eabi/4.6.2/../../../../arm-none-eabi/lib/thumb/libm.a(lib_a-k_sin.o)
 .debug_loc     0x00004ccd      0x3a9 /opt/paparazzi/arm-multilib/lib/gcc/arm-none-eabi/4.6.2/../../../../arm-none-eabi/lib/thumb/libm.a(lib_a-k_tan.o)
 .debug_loc     0x00005076      0x112 /opt/paparazzi/arm-multilib/lib/gcc/arm-none-eabi/4.6.2/../../../../arm-none-eabi/lib/thumb/libm.a(lib_a-kf_cos.o)
 .debug_loc     0x00005188      0x78c /opt/paparazzi/arm-multilib/lib/gcc/arm-none-eabi/4.6.2/../../../../arm-none-eabi/lib/thumb/libm.a(lib_a-kf_rem_pio2.o)
 .debug_loc     0x00005914       0xfc /opt/paparazzi/arm-multilib/lib/gcc/arm-none-eabi/4.6.2/../../../../arm-none-eabi/lib/thumb/libm.a(lib_a-kf_sin.o)
 .debug_loc     0x00005a10      0x2b9 /opt/paparazzi/arm-multilib/lib/gcc/arm-none-eabi/4.6.2/../../../../arm-none-eabi/lib/thumb/libm.a(lib_a-kf_tan.o)
 .debug_loc     0x00005cc9      0x4d3 /opt/paparazzi/arm-multilib/lib/gcc/arm-none-eabi/4.6.2/../../../../arm-none-eabi/lib/thumb/libm.a(lib_a-s_expm1.o)
 .debug_loc     0x0000619c       0x2b /opt/paparazzi/arm-multilib/lib/gcc/arm-none-eabi/4.6.2/../../../../arm-none-eabi/lib/thumb/libm.a(lib_a-s_finite.o)
 .debug_loc     0x000061c7      0x14c /opt/paparazzi/arm-multilib/lib/gcc/arm-none-eabi/4.6.2/../../../../arm-none-eabi/lib/thumb/libm.a(lib_a-s_floor.o)
 .debug_loc     0x00006313       0xb7 /opt/paparazzi/arm-multilib/lib/gcc/arm-none-eabi/4.6.2/../../../../arm-none-eabi/lib/thumb/libm.a(lib_a-s_fpclassify.o)
 .debug_loc     0x000063ca       0x13 /opt/paparazzi/arm-multilib/lib/gcc/arm-none-eabi/4.6.2/../../../../arm-none-eabi/lib/thumb/libm.a(lib_a-s_matherr.o)
 .debug_loc     0x000063dd       0x13 /opt/paparazzi/arm-multilib/lib/gcc/arm-none-eabi/4.6.2/../../../../arm-none-eabi/lib/thumb/libm.a(lib_a-s_nan.o)
 .debug_loc     0x000063f0      0x148 /opt/paparazzi/arm-multilib/lib/gcc/arm-none-eabi/4.6.2/../../../../arm-none-eabi/lib/thumb/libm.a(lib_a-s_scalbn.o)
 .debug_loc     0x00006538       0x2e /opt/paparazzi/arm-multilib/lib/gcc/arm-none-eabi/4.6.2/../../../../arm-none-eabi/lib/thumb/libm.a(lib_a-sf_finite.o)
 .debug_loc     0x00006566      0x106 /opt/paparazzi/arm-multilib/lib/gcc/arm-none-eabi/4.6.2/../../../../arm-none-eabi/lib/thumb/libm.a(lib_a-sf_floor.o)
 .debug_loc     0x0000666c       0x95 /opt/paparazzi/arm-multilib/lib/gcc/arm-none-eabi/4.6.2/../../../../arm-none-eabi/lib/thumb/libm.a(lib_a-sf_fpclassify.o)
 .debug_loc     0x00006701       0x13 /opt/paparazzi/arm-multilib/lib/gcc/arm-none-eabi/4.6.2/../../../../arm-none-eabi/lib/thumb/libm.a(lib_a-sf_nan.o)
 .debug_loc     0x00006714      0x1ea /opt/paparazzi/arm-multilib/lib/gcc/arm-none-eabi/4.6.2/../../../../arm-none-eabi/lib/thumb/libm.a(lib_a-sf_scalbn.o)
 .debug_loc     0x000068fe       0x63 /opt/paparazzi/arm-multilib/lib/gcc/arm-none-eabi/4.6.2/../../../../arm-none-eabi/lib/thumb/libm.a(lib_a-s_copysign.o)
 .debug_loc     0x00006961       0x26 /opt/paparazzi/arm-multilib/lib/gcc/arm-none-eabi/4.6.2/../../../../arm-none-eabi/lib/thumb/libm.a(lib_a-sf_copysign.o)

.debug_macinfo
 *(.debug_macinfo)

.debug_weaknames
 *(.debug_weaknames)

.debug_funcnames
 *(.debug_funcnames)

.debug_typenames
 *(.debug_typenames)

.debug_varnames
 *(.debug_varnames)
OUTPUT(/home/lionel/paparazziProto1/var/Colibri/ap/ap.elf elf32-littlearm)

.debug_ranges   0x00000000      0x370
 .debug_ranges  0x00000000       0x18 /opt/paparazzi/arm-multilib/lib/gcc/arm-none-eabi/4.6.2/../../../../arm-none-eabi/lib/thumb/libm.a(lib_a-s_atan.o)
 .debug_ranges  0x00000018       0x30 /opt/paparazzi/arm-multilib/lib/gcc/arm-none-eabi/4.6.2/../../../../arm-none-eabi/lib/thumb/libm.a(lib_a-s_rint.o)
 .debug_ranges  0x00000048       0x30 /opt/paparazzi/arm-multilib/lib/gcc/arm-none-eabi/4.6.2/../../../../arm-none-eabi/lib/thumb/libm.a(lib_a-e_acos.o)
 .debug_ranges  0x00000078       0x50 /opt/paparazzi/arm-multilib/lib/gcc/arm-none-eabi/4.6.2/../../../../arm-none-eabi/lib/thumb/libm.a(lib_a-e_atan2.o)
 .debug_ranges  0x000000c8       0x18 /opt/paparazzi/arm-multilib/lib/gcc/arm-none-eabi/4.6.2/../../../../arm-none-eabi/lib/thumb/libm.a(lib_a-e_exp.o)
 .debug_ranges  0x000000e0       0x30 /opt/paparazzi/arm-multilib/lib/gcc/arm-none-eabi/4.6.2/../../../../arm-none-eabi/lib/thumb/libm.a(lib_a-e_log.o)
 .debug_ranges  0x00000110      0x118 /opt/paparazzi/arm-multilib/lib/gcc/arm-none-eabi/4.6.2/../../../../arm-none-eabi/lib/thumb/libm.a(lib_a-e_pow.o)
 .debug_ranges  0x00000228       0x48 /opt/paparazzi/arm-multilib/lib/gcc/arm-none-eabi/4.6.2/../../../../arm-none-eabi/lib/thumb/libm.a(lib_a-ef_pow.o)
 .debug_ranges  0x00000270       0x30 /opt/paparazzi/arm-multilib/lib/gcc/arm-none-eabi/4.6.2/../../../../arm-none-eabi/lib/thumb/libm.a(lib_a-k_tan.o)
 .debug_ranges  0x000002a0       0x20 /opt/paparazzi/arm-multilib/lib/gcc/arm-none-eabi/4.6.2/../../../../arm-none-eabi/lib/thumb/libm.a(lib_a-kf_tan.o)
 .debug_ranges  0x000002c0       0x30 /opt/paparazzi/arm-multilib/lib/gcc/arm-none-eabi/4.6.2/../../../../arm-none-eabi/lib/thumb/libm.a(lib_a-s_expm1.o)
 .debug_ranges  0x000002f0       0x18 /opt/paparazzi/arm-multilib/lib/gcc/arm-none-eabi/4.6.2/../../../../arm-none-eabi/lib/thumb/libm.a(lib_a-s_floor.o)
 .debug_ranges  0x00000308       0x18 /opt/paparazzi/arm-multilib/lib/gcc/arm-none-eabi/4.6.2/../../../../arm-none-eabi/lib/thumb/libm.a(lib_a-s_fpclassify.o)
 .debug_ranges  0x00000320       0x38 /opt/paparazzi/arm-multilib/lib/gcc/arm-none-eabi/4.6.2/../../../../arm-none-eabi/lib/thumb/libm.a(lib_a-s_scalbn.o)
 .debug_ranges  0x00000358       0x18 /opt/paparazzi/arm-multilib/lib/gcc/arm-none-eabi/4.6.2/../../../../arm-none-eabi/lib/thumb/libm.a(lib_a-sf_scalbn.o)

Cross Reference Table

Symbol                                            File
BungeeTakeoff                                     /home/lionel/paparazziProto1/var/Colibri/ap/subsystems/navigation/OSAMNav.o
DistanceEquation                                  /home/lionel/paparazziProto1/var/Colibri/ap/subsystems/navigation/OSAMNav.o
EvaluateLineForX                                  /home/lionel/paparazziProto1/var/Colibri/ap/subsystems/navigation/OSAMNav.o
EvaluateLineForY                                  /home/lionel/paparazziProto1/var/Colibri/ap/subsystems/navigation/OSAMNav.o
FindInterceptOfTwoLines                           /home/lionel/paparazziProto1/var/Colibri/ap/subsystems/navigation/OSAMNav.o
FlightLine                                        /home/lionel/paparazziProto1/var/Colibri/ap/subsystems/navigation/OSAMNav.o
FlightLineBlock                                   /home/lionel/paparazziProto1/var/Colibri/ap/subsystems/navigation/OSAMNav.o
FlowerNav                                         /home/lionel/paparazziProto1/var/Colibri/ap/subsystems/navigation/OSAMNav.o
InitializeBungeeTakeoff                           /home/lionel/paparazziProto1/var/Colibri/ap/subsystems/navigation/OSAMNav.o
InitializeFlower                                  /home/lionel/paparazziProto1/var/Colibri/ap/subsystems/navigation/OSAMNav.o
InitializePolygonSurvey                           /home/lionel/paparazziProto1/var/Colibri/ap/subsystems/navigation/OSAMNav.o
InitializeSkidLanding                             /home/lionel/paparazziProto1/var/Colibri/ap/subsystems/navigation/OSAMNav.o
InitializeSpiral                                  /home/lionel/paparazziProto1/var/Colibri/ap/subsystems/navigation/spiral.o
InitializeVerticalRaster                          /home/lionel/paparazziProto1/var/Colibri/ap/subsystems/navigation/OSAMNav.o
PolySurveySweepBackNum                            /home/lionel/paparazziProto1/var/Colibri/ap/subsystems/navigation/OSAMNav.o
PolySurveySweepNum                                /home/lionel/paparazziProto1/var/Colibri/ap/subsystems/navigation/OSAMNav.o
PolygonSurvey                                     /home/lionel/paparazziProto1/var/Colibri/ap/subsystems/navigation/OSAMNav.o
RotateAndTranslateToWorld                         /home/lionel/paparazziProto1/var/Colibri/ap/subsystems/navigation/OSAMNav.o
SkidLanding                                       /home/lionel/paparazziProto1/var/Colibri/ap/subsystems/navigation/OSAMNav.o
SpiralNav                                         /home/lionel/paparazziProto1/var/Colibri/ap/subsystems/navigation/spiral.o
TIMER0_ISR                                        /home/lionel/paparazziProto1/var/Colibri/ap/arch/lpc21/mcu_periph/sys_time_arch.o
TranslateAndRotateFromWorld                       /home/lionel/paparazziProto1/var/Colibri/ap/subsystems/navigation/OSAMNav.o
VerticalRaster                                    /home/lionel/paparazziProto1/var/Colibri/ap/subsystems/navigation/OSAMNav.o
__adddf3                                          /opt/paparazzi/arm-multilib/lib/gcc/arm-none-eabi/4.6.2/thumb/libgcc.a(_arm_addsubdf3.o)
__addsf3                                          /opt/paparazzi/arm-multilib/lib/gcc/arm-none-eabi/4.6.2/thumb/libgcc.a(_arm_addsubsf3.o)
__aeabi_cdcmpeq                                   /opt/paparazzi/arm-multilib/lib/gcc/arm-none-eabi/4.6.2/thumb/libgcc.a(_arm_cmpdf2.o)
__aeabi_cdcmple                                   /opt/paparazzi/arm-multilib/lib/gcc/arm-none-eabi/4.6.2/thumb/libgcc.a(_arm_cmpdf2.o)
__aeabi_cdrcmple                                  /opt/paparazzi/arm-multilib/lib/gcc/arm-none-eabi/4.6.2/thumb/libgcc.a(_arm_cmpdf2.o)
__aeabi_cfcmpeq                                   /opt/paparazzi/arm-multilib/lib/gcc/arm-none-eabi/4.6.2/thumb/libgcc.a(_arm_cmpsf2.o)
__aeabi_cfcmple                                   /opt/paparazzi/arm-multilib/lib/gcc/arm-none-eabi/4.6.2/thumb/libgcc.a(_arm_cmpsf2.o)
__aeabi_cfrcmple                                  /opt/paparazzi/arm-multilib/lib/gcc/arm-none-eabi/4.6.2/thumb/libgcc.a(_arm_cmpsf2.o)
__aeabi_d2f                                       /opt/paparazzi/arm-multilib/lib/gcc/arm-none-eabi/4.6.2/thumb/libgcc.a(_arm_truncdfsf2.o)
                                                  /opt/paparazzi/arm-multilib/lib/gcc/arm-none-eabi/4.6.2/../../../../arm-none-eabi/lib/thumb/libm.a(lib_a-wf_sqrt.o)
                                                  /opt/paparazzi/arm-multilib/lib/gcc/arm-none-eabi/4.6.2/../../../../arm-none-eabi/lib/thumb/libm.a(lib_a-wf_pow.o)
                                                  /home/lionel/paparazziProto1/var/Colibri/ap/subsystems/ahrs/ahrs_infrared.o
                                                  /home/lionel/paparazziProto1/var/Colibri/ap/firmwares/fixedwing/datalink.o
                                                  /home/lionel/paparazziProto1/var/Colibri/ap/subsystems/navigation/border_line.o
                                                  /home/lionel/paparazziProto1/var/Colibri/ap/subsystems/navigation/gls.o
                                                  /home/lionel/paparazziProto1/var/Colibri/ap/subsystems/navigation/poly_survey_adv.o
                                                  /home/lionel/paparazziProto1/var/Colibri/ap/subsystems/navigation/spiral.o
                                                  /home/lionel/paparazziProto1/var/Colibri/ap/subsystems/navigation/snav.o
                                                  /home/lionel/paparazziProto1/var/Colibri/ap/subsystems/navigation/OSAMNav.o
                                                  /home/lionel/paparazziProto1/var/Colibri/ap/subsystems/navigation/discsurvey.o
                                                  /home/lionel/paparazziProto1/var/Colibri/ap/subsystems/navigation/nav_cube.o
                                                  /home/lionel/paparazziProto1/var/Colibri/ap/subsystems/navigation/nav_line.o
                                                  /home/lionel/paparazziProto1/var/Colibri/ap/subsystems/navigation/nav_survey_rectangle.o
                                                  /home/lionel/paparazziProto1/var/Colibri/ap/subsystems/nav.o
                                                  /home/lionel/paparazziProto1/var/Colibri/ap/firmwares/fixedwing/guidance/guidance_v.o
                                                  /home/lionel/paparazziProto1/var/Colibri/ap/firmwares/fixedwing/stabilization/stabilization_attitude.o
                                                  /home/lionel/paparazziProto1/var/Colibri/ap/./estimator.o
                                                  /home/lionel/paparazziProto1/var/Colibri/ap/firmwares/fixedwing/main_ap.o
                                                  /home/lionel/paparazziProto1/var/Colibri/ap/subsystems/electrical.o
                                                  /home/lionel/paparazziProto1/var/Colibri/ap/firmwares/fixedwing/main_fbw.o
                                                  /home/lionel/paparazziProto1/var/Colibri/ap/math/pprz_geodetic_double.o
                                                  /home/lionel/paparazziProto1/var/Colibri/ap/math/pprz_geodetic_float.o
__aeabi_d2iz                                      /opt/paparazzi/arm-multilib/lib/gcc/arm-none-eabi/4.6.2/thumb/libgcc.a(_arm_fixdfsi.o)
                                                  /opt/paparazzi/arm-multilib/lib/gcc/arm-none-eabi/4.6.2/../../../../arm-none-eabi/lib/thumb/libm.a(lib_a-s_expm1.o)
                                                  /opt/paparazzi/arm-multilib/lib/gcc/arm-none-eabi/4.6.2/../../../../arm-none-eabi/lib/thumb/libm.a(lib_a-k_tan.o)
                                                  /opt/paparazzi/arm-multilib/lib/gcc/arm-none-eabi/4.6.2/../../../../arm-none-eabi/lib/thumb/libm.a(lib_a-k_sin.o)
                                                  /opt/paparazzi/arm-multilib/lib/gcc/arm-none-eabi/4.6.2/../../../../arm-none-eabi/lib/thumb/libm.a(lib_a-k_rem_pio2.o)
                                                  /opt/paparazzi/arm-multilib/lib/gcc/arm-none-eabi/4.6.2/../../../../arm-none-eabi/lib/thumb/libm.a(lib_a-k_cos.o)
                                                  /opt/paparazzi/arm-multilib/lib/gcc/arm-none-eabi/4.6.2/../../../../arm-none-eabi/lib/thumb/libm.a(lib_a-e_rem_pio2.o)
                                                  /opt/paparazzi/arm-multilib/lib/gcc/arm-none-eabi/4.6.2/../../../../arm-none-eabi/lib/thumb/libm.a(lib_a-e_exp.o)
                                                  /home/lionel/paparazziProto1/var/Colibri/ap/subsystems/gps/gps_ubx.o
                                                  /home/lionel/paparazziProto1/var/Colibri/ap/firmwares/fixedwing/main_ap.o
                                                  /home/lionel/paparazziProto1/var/Colibri/ap/math/pprz_geodetic_int.o
__aeabi_d2uiz                                     /opt/paparazzi/arm-multilib/lib/gcc/arm-none-eabi/4.6.2/thumb/libgcc.a(_arm_fixunsdfsi.o)
                                                  /home/lionel/paparazziProto1/var/Colibri/ap/subsystems/gps/gps_ubx.o
                                                  /home/lionel/paparazziProto1/var/Colibri/ap/firmwares/fixedwing/datalink.o
                                                  /home/lionel/paparazziProto1/var/Colibri/ap/subsystems/navigation/snav.o
                                                  /home/lionel/paparazziProto1/var/Colibri/ap/subsystems/nav.o
                                                  /home/lionel/paparazziProto1/var/Colibri/ap/firmwares/fixedwing/main_ap.o
                                                  /home/lionel/paparazziProto1/var/Colibri/ap/firmwares/fixedwing/main_fbw.o
                                                  /home/lionel/paparazziProto1/var/Colibri/ap/mcu_periph/sys_time.o
__aeabi_dadd                                      /opt/paparazzi/arm-multilib/lib/gcc/arm-none-eabi/4.6.2/thumb/libgcc.a(_arm_addsubdf3.o)
                                                  /opt/paparazzi/arm-multilib/lib/gcc/arm-none-eabi/4.6.2/../../../../arm-none-eabi/lib/thumb/libm.a(lib_a-s_scalbn.o)
                                                  /opt/paparazzi/arm-multilib/lib/gcc/arm-none-eabi/4.6.2/../../../../arm-none-eabi/lib/thumb/libm.a(lib_a-s_floor.o)
                                                  /opt/paparazzi/arm-multilib/lib/gcc/arm-none-eabi/4.6.2/../../../../arm-none-eabi/lib/thumb/libm.a(lib_a-s_expm1.o)
                                                  /opt/paparazzi/arm-multilib/lib/gcc/arm-none-eabi/4.6.2/../../../../arm-none-eabi/lib/thumb/libm.a(lib_a-k_tan.o)
                                                  /opt/paparazzi/arm-multilib/lib/gcc/arm-none-eabi/4.6.2/../../../../arm-none-eabi/lib/thumb/libm.a(lib_a-k_sin.o)
                                                  /opt/paparazzi/arm-multilib/lib/gcc/arm-none-eabi/4.6.2/../../../../arm-none-eabi/lib/thumb/libm.a(lib_a-k_rem_pio2.o)
                                                  /opt/paparazzi/arm-multilib/lib/gcc/arm-none-eabi/4.6.2/../../../../arm-none-eabi/lib/thumb/libm.a(lib_a-k_cos.o)
                                                  /opt/paparazzi/arm-multilib/lib/gcc/arm-none-eabi/4.6.2/../../../../arm-none-eabi/lib/thumb/libm.a(lib_a-e_sqrt.o)
                                                  /opt/paparazzi/arm-multilib/lib/gcc/arm-none-eabi/4.6.2/../../../../arm-none-eabi/lib/thumb/libm.a(lib_a-e_sinh.o)
                                                  /opt/paparazzi/arm-multilib/lib/gcc/arm-none-eabi/4.6.2/../../../../arm-none-eabi/lib/thumb/libm.a(lib_a-e_rem_pio2.o)
                                                  /opt/paparazzi/arm-multilib/lib/gcc/arm-none-eabi/4.6.2/../../../../arm-none-eabi/lib/thumb/libm.a(lib_a-e_pow.o)
                                                  /opt/paparazzi/arm-multilib/lib/gcc/arm-none-eabi/4.6.2/../../../../arm-none-eabi/lib/thumb/libm.a(lib_a-e_log.o)
                                                  /opt/paparazzi/arm-multilib/lib/gcc/arm-none-eabi/4.6.2/../../../../arm-none-eabi/lib/thumb/libm.a(lib_a-e_exp.o)
                                                  /opt/paparazzi/arm-multilib/lib/gcc/arm-none-eabi/4.6.2/../../../../arm-none-eabi/lib/thumb/libm.a(lib_a-e_cosh.o)
                                                  /opt/paparazzi/arm-multilib/lib/gcc/arm-none-eabi/4.6.2/../../../../arm-none-eabi/lib/thumb/libm.a(lib_a-e_atan2.o)
                                                  /opt/paparazzi/arm-multilib/lib/gcc/arm-none-eabi/4.6.2/../../../../arm-none-eabi/lib/thumb/libm.a(lib_a-e_asin.o)
                                                  /opt/paparazzi/arm-multilib/lib/gcc/arm-none-eabi/4.6.2/../../../../arm-none-eabi/lib/thumb/libm.a(lib_a-e_acos.o)
                                                  /opt/paparazzi/arm-multilib/lib/gcc/arm-none-eabi/4.6.2/../../../../arm-none-eabi/lib/thumb/libm.a(lib_a-s_rint.o)
                                                  /opt/paparazzi/arm-multilib/lib/gcc/arm-none-eabi/4.6.2/../../../../arm-none-eabi/lib/thumb/libm.a(lib_a-s_atan.o)
                                                  /home/lionel/paparazziProto1/var/Colibri/ap/subsystems/ahrs/ahrs_infrared.o
                                                  /home/lionel/paparazziProto1/var/Colibri/ap/subsystems/navigation/border_line.o
                                                  /home/lionel/paparazziProto1/var/Colibri/ap/subsystems/navigation/poly_survey_adv.o
                                                  /home/lionel/paparazziProto1/var/Colibri/ap/subsystems/navigation/spiral.o
                                                  /home/lionel/paparazziProto1/var/Colibri/ap/subsystems/navigation/snav.o
                                                  /home/lionel/paparazziProto1/var/Colibri/ap/subsystems/navigation/OSAMNav.o
                                                  /home/lionel/paparazziProto1/var/Colibri/ap/subsystems/navigation/discsurvey.o
                                                  /home/lionel/paparazziProto1/var/Colibri/ap/subsystems/navigation/nav_cube.o
                                                  /home/lionel/paparazziProto1/var/Colibri/ap/subsystems/navigation/nav_line.o
                                                  /home/lionel/paparazziProto1/var/Colibri/ap/subsystems/navigation/nav_survey_rectangle.o
                                                  /home/lionel/paparazziProto1/var/Colibri/ap/subsystems/nav.o
                                                  /home/lionel/paparazziProto1/var/Colibri/ap/firmwares/fixedwing/guidance/guidance_v.o
                                                  /home/lionel/paparazziProto1/var/Colibri/ap/firmwares/fixedwing/stabilization/stabilization_attitude.o
                                                  /home/lionel/paparazziProto1/var/Colibri/ap/firmwares/fixedwing/main_ap.o
                                                  /home/lionel/paparazziProto1/var/Colibri/ap/subsystems/electrical.o
                                                  /home/lionel/paparazziProto1/var/Colibri/ap/firmwares/fixedwing/main_fbw.o
                                                  /home/lionel/paparazziProto1/var/Colibri/ap/math/pprz_geodetic_double.o
                                                  /home/lionel/paparazziProto1/var/Colibri/ap/math/pprz_geodetic_float.o
                                                  /home/lionel/paparazziProto1/var/Colibri/ap/mcu_periph/sys_time.o
__aeabi_dcmpeq                                    /opt/paparazzi/arm-multilib/lib/gcc/arm-none-eabi/4.6.2/thumb/libgcc.a(_arm_cmpdf2.o)
                                                  /opt/paparazzi/arm-multilib/lib/gcc/arm-none-eabi/4.6.2/../../../../arm-none-eabi/lib/thumb/libm.a(lib_a-k_rem_pio2.o)
                                                  /opt/paparazzi/arm-multilib/lib/gcc/arm-none-eabi/4.6.2/../../../../arm-none-eabi/lib/thumb/libm.a(lib_a-e_rem_pio2.o)
                                                  /opt/paparazzi/arm-multilib/lib/gcc/arm-none-eabi/4.6.2/../../../../arm-none-eabi/lib/thumb/libm.a(lib_a-e_log.o)
                                                  /opt/paparazzi/arm-multilib/lib/gcc/arm-none-eabi/4.6.2/../../../../arm-none-eabi/lib/thumb/libm.a(lib_a-wf_pow.o)
                                                  /opt/paparazzi/arm-multilib/lib/gcc/arm-none-eabi/4.6.2/../../../../arm-none-eabi/lib/thumb/libm.a(lib_a-w_pow.o)
                                                  /opt/paparazzi/arm-multilib/lib/gcc/arm-none-eabi/4.6.2/../../../../arm-none-eabi/lib/thumb/libm.a(lib_a-w_log.o)
__aeabi_dcmpge                                    /opt/paparazzi/arm-multilib/lib/gcc/arm-none-eabi/4.6.2/thumb/libgcc.a(_arm_cmpdf2.o)
                                                  /opt/paparazzi/arm-multilib/lib/gcc/arm-none-eabi/4.6.2/../../../../arm-none-eabi/lib/thumb/libm.a(lib_a-k_rem_pio2.o)
__aeabi_dcmpgt                                    /opt/paparazzi/arm-multilib/lib/gcc/arm-none-eabi/4.6.2/thumb/libgcc.a(_arm_cmpdf2.o)
                                                  /opt/paparazzi/arm-multilib/lib/gcc/arm-none-eabi/4.6.2/../../../../arm-none-eabi/lib/thumb/libm.a(lib_a-s_floor.o)
                                                  /opt/paparazzi/arm-multilib/lib/gcc/arm-none-eabi/4.6.2/../../../../arm-none-eabi/lib/thumb/libm.a(lib_a-s_expm1.o)
                                                  /opt/paparazzi/arm-multilib/lib/gcc/arm-none-eabi/4.6.2/../../../../arm-none-eabi/lib/thumb/libm.a(lib_a-e_sinh.o)
                                                  /opt/paparazzi/arm-multilib/lib/gcc/arm-none-eabi/4.6.2/../../../../arm-none-eabi/lib/thumb/libm.a(lib_a-e_pow.o)
                                                  /opt/paparazzi/arm-multilib/lib/gcc/arm-none-eabi/4.6.2/../../../../arm-none-eabi/lib/thumb/libm.a(lib_a-e_exp.o)
                                                  /opt/paparazzi/arm-multilib/lib/gcc/arm-none-eabi/4.6.2/../../../../arm-none-eabi/lib/thumb/libm.a(lib_a-e_asin.o)
                                                  /opt/paparazzi/arm-multilib/lib/gcc/arm-none-eabi/4.6.2/../../../../arm-none-eabi/lib/thumb/libm.a(lib_a-w_sinh.o)
                                                  /opt/paparazzi/arm-multilib/lib/gcc/arm-none-eabi/4.6.2/../../../../arm-none-eabi/lib/thumb/libm.a(lib_a-w_log.o)
                                                  /opt/paparazzi/arm-multilib/lib/gcc/arm-none-eabi/4.6.2/../../../../arm-none-eabi/lib/thumb/libm.a(lib_a-w_exp.o)
                                                  /opt/paparazzi/arm-multilib/lib/gcc/arm-none-eabi/4.6.2/../../../../arm-none-eabi/lib/thumb/libm.a(lib_a-w_cosh.o)
                                                  /opt/paparazzi/arm-multilib/lib/gcc/arm-none-eabi/4.6.2/../../../../arm-none-eabi/lib/thumb/libm.a(lib_a-w_asin.o)
                                                  /opt/paparazzi/arm-multilib/lib/gcc/arm-none-eabi/4.6.2/../../../../arm-none-eabi/lib/thumb/libm.a(lib_a-w_acos.o)
                                                  /opt/paparazzi/arm-multilib/lib/gcc/arm-none-eabi/4.6.2/../../../../arm-none-eabi/lib/thumb/libm.a(lib_a-s_atan.o)
                                                  /home/lionel/paparazziProto1/var/Colibri/ap/subsystems/ahrs/ahrs_infrared.o
                                                  /home/lionel/paparazziProto1/var/Colibri/ap/subsystems/navigation/snav.o
                                                  /home/lionel/paparazziProto1/var/Colibri/ap/subsystems/navigation/OSAMNav.o
                                                  /home/lionel/paparazziProto1/var/Colibri/ap/subsystems/navigation/nav_survey_rectangle.o
                                                  /home/lionel/paparazziProto1/var/Colibri/ap/subsystems/nav.o
                                                  /home/lionel/paparazziProto1/var/Colibri/ap/firmwares/fixedwing/guidance/guidance_v.o
                                                  /home/lionel/paparazziProto1/var/Colibri/ap/firmwares/fixedwing/stabilization/stabilization_attitude.o
                                                  /home/lionel/paparazziProto1/var/Colibri/ap/./estimator.o
                                                  /home/lionel/paparazziProto1/var/Colibri/ap/firmwares/fixedwing/main_ap.o
                                                  /home/lionel/paparazziProto1/var/Colibri/ap/math/pprz_geodetic_double.o
__aeabi_dcmple                                    /opt/paparazzi/arm-multilib/lib/gcc/arm-none-eabi/4.6.2/thumb/libgcc.a(_arm_cmpdf2.o)
                                                  /opt/paparazzi/arm-multilib/lib/gcc/arm-none-eabi/4.6.2/../../../../arm-none-eabi/lib/thumb/libm.a(lib_a-e_pow.o)
__aeabi_dcmplt                                    /opt/paparazzi/arm-multilib/lib/gcc/arm-none-eabi/4.6.2/thumb/libgcc.a(_arm_cmpdf2.o)
                                                  /opt/paparazzi/arm-multilib/lib/gcc/arm-none-eabi/4.6.2/../../../../arm-none-eabi/lib/thumb/libm.a(lib_a-s_expm1.o)
                                                  /opt/paparazzi/arm-multilib/lib/gcc/arm-none-eabi/4.6.2/../../../../arm-none-eabi/lib/thumb/libm.a(lib_a-e_exp.o)
                                                  /opt/paparazzi/arm-multilib/lib/gcc/arm-none-eabi/4.6.2/../../../../arm-none-eabi/lib/thumb/libm.a(lib_a-w_sqrt.o)
                                                  /opt/paparazzi/arm-multilib/lib/gcc/arm-none-eabi/4.6.2/../../../../arm-none-eabi/lib/thumb/libm.a(lib_a-w_pow.o)
                                                  /opt/paparazzi/arm-multilib/lib/gcc/arm-none-eabi/4.6.2/../../../../arm-none-eabi/lib/thumb/libm.a(lib_a-w_exp.o)
                                                  /home/lionel/paparazziProto1/var/Colibri/ap/subsystems/ahrs/ahrs_infrared.o
                                                  /home/lionel/paparazziProto1/var/Colibri/ap/subsystems/navigation/snav.o
                                                  /home/lionel/paparazziProto1/var/Colibri/ap/subsystems/navigation/OSAMNav.o
                                                  /home/lionel/paparazziProto1/var/Colibri/ap/subsystems/navigation/nav_cube.o
                                                  /home/lionel/paparazziProto1/var/Colibri/ap/subsystems/navigation/nav_survey_rectangle.o
                                                  /home/lionel/paparazziProto1/var/Colibri/ap/subsystems/nav.o
                                                  /home/lionel/paparazziProto1/var/Colibri/ap/firmwares/fixedwing/guidance/guidance_v.o
                                                  /home/lionel/paparazziProto1/var/Colibri/ap/firmwares/fixedwing/stabilization/stabilization_attitude.o
                                                  /home/lionel/paparazziProto1/var/Colibri/ap/firmwares/fixedwing/main_ap.o
__aeabi_ddiv                                      /opt/paparazzi/arm-multilib/lib/gcc/arm-none-eabi/4.6.2/thumb/libgcc.a(_arm_muldivdf3.o)
                                                  /opt/paparazzi/arm-multilib/lib/gcc/arm-none-eabi/4.6.2/../../../../arm-none-eabi/lib/thumb/libm.a(lib_a-s_expm1.o)
                                                  /opt/paparazzi/arm-multilib/lib/gcc/arm-none-eabi/4.6.2/../../../../arm-none-eabi/lib/thumb/libm.a(lib_a-k_tan.o)
                                                  /opt/paparazzi/arm-multilib/lib/gcc/arm-none-eabi/4.6.2/../../../../arm-none-eabi/lib/thumb/libm.a(lib_a-e_sqrt.o)
                                                  /opt/paparazzi/arm-multilib/lib/gcc/arm-none-eabi/4.6.2/../../../../arm-none-eabi/lib/thumb/libm.a(lib_a-e_sinh.o)
                                                  /opt/paparazzi/arm-multilib/lib/gcc/arm-none-eabi/4.6.2/../../../../arm-none-eabi/lib/thumb/libm.a(lib_a-e_pow.o)
                                                  /opt/paparazzi/arm-multilib/lib/gcc/arm-none-eabi/4.6.2/../../../../arm-none-eabi/lib/thumb/libm.a(lib_a-e_log.o)
                                                  /opt/paparazzi/arm-multilib/lib/gcc/arm-none-eabi/4.6.2/../../../../arm-none-eabi/lib/thumb/libm.a(lib_a-e_exp.o)
                                                  /opt/paparazzi/arm-multilib/lib/gcc/arm-none-eabi/4.6.2/../../../../arm-none-eabi/lib/thumb/libm.a(lib_a-e_cosh.o)
                                                  /opt/paparazzi/arm-multilib/lib/gcc/arm-none-eabi/4.6.2/../../../../arm-none-eabi/lib/thumb/libm.a(lib_a-e_atan2.o)
                                                  /opt/paparazzi/arm-multilib/lib/gcc/arm-none-eabi/4.6.2/../../../../arm-none-eabi/lib/thumb/libm.a(lib_a-e_asin.o)
                                                  /opt/paparazzi/arm-multilib/lib/gcc/arm-none-eabi/4.6.2/../../../../arm-none-eabi/lib/thumb/libm.a(lib_a-e_acos.o)
                                                  /opt/paparazzi/arm-multilib/lib/gcc/arm-none-eabi/4.6.2/../../../../arm-none-eabi/lib/thumb/libm.a(lib_a-wf_sqrt.o)
                                                  /opt/paparazzi/arm-multilib/lib/gcc/arm-none-eabi/4.6.2/../../../../arm-none-eabi/lib/thumb/libm.a(lib_a-wf_pow.o)
                                                  /opt/paparazzi/arm-multilib/lib/gcc/arm-none-eabi/4.6.2/../../../../arm-none-eabi/lib/thumb/libm.a(lib_a-w_sqrt.o)
                                                  /opt/paparazzi/arm-multilib/lib/gcc/arm-none-eabi/4.6.2/../../../../arm-none-eabi/lib/thumb/libm.a(lib_a-w_pow.o)
                                                  /opt/paparazzi/arm-multilib/lib/gcc/arm-none-eabi/4.6.2/../../../../arm-none-eabi/lib/thumb/libm.a(lib_a-s_atan.o)
                                                  /home/lionel/paparazziProto1/var/Colibri/ap/subsystems/ahrs/ahrs_infrared.o
                                                  /home/lionel/paparazziProto1/var/Colibri/ap/firmwares/fixedwing/datalink.o
                                                  /home/lionel/paparazziProto1/var/Colibri/ap/subsystems/navigation/gls.o
                                                  /home/lionel/paparazziProto1/var/Colibri/ap/subsystems/navigation/poly_survey_adv.o
                                                  /home/lionel/paparazziProto1/var/Colibri/ap/subsystems/navigation/spiral.o
                                                  /home/lionel/paparazziProto1/var/Colibri/ap/subsystems/navigation/snav.o
                                                  /home/lionel/paparazziProto1/var/Colibri/ap/subsystems/navigation/OSAMNav.o
                                                  /home/lionel/paparazziProto1/var/Colibri/ap/subsystems/navigation/nav_cube.o
                                                  /home/lionel/paparazziProto1/var/Colibri/ap/subsystems/nav.o
                                                  /home/lionel/paparazziProto1/var/Colibri/ap/firmwares/fixedwing/guidance/guidance_v.o
                                                  /home/lionel/paparazziProto1/var/Colibri/ap/firmwares/fixedwing/stabilization/stabilization_attitude.o
                                                  /home/lionel/paparazziProto1/var/Colibri/ap/./estimator.o
                                                  /home/lionel/paparazziProto1/var/Colibri/ap/firmwares/fixedwing/main_ap.o
                                                  /home/lionel/paparazziProto1/var/Colibri/ap/math/pprz_geodetic_double.o
                                                  /home/lionel/paparazziProto1/var/Colibri/ap/math/pprz_geodetic_float.o
                                                  /home/lionel/paparazziProto1/var/Colibri/ap/math/pprz_geodetic_int.o
                                                  /home/lionel/paparazziProto1/var/Colibri/ap/mcu_periph/sys_time.o
__aeabi_dmul                                      /opt/paparazzi/arm-multilib/lib/gcc/arm-none-eabi/4.6.2/thumb/libgcc.a(_arm_muldivdf3.o)
                                                  /opt/paparazzi/arm-multilib/lib/gcc/arm-none-eabi/4.6.2/../../../../arm-none-eabi/lib/thumb/libm.a(lib_a-s_scalbn.o)
                                                  /opt/paparazzi/arm-multilib/lib/gcc/arm-none-eabi/4.6.2/../../../../arm-none-eabi/lib/thumb/libm.a(lib_a-s_expm1.o)
                                                  /opt/paparazzi/arm-multilib/lib/gcc/arm-none-eabi/4.6.2/../../../../arm-none-eabi/lib/thumb/libm.a(lib_a-k_tan.o)
                                                  /opt/paparazzi/arm-multilib/lib/gcc/arm-none-eabi/4.6.2/../../../../arm-none-eabi/lib/thumb/libm.a(lib_a-k_sin.o)
                                                  /opt/paparazzi/arm-multilib/lib/gcc/arm-none-eabi/4.6.2/../../../../arm-none-eabi/lib/thumb/libm.a(lib_a-k_rem_pio2.o)
                                                  /opt/paparazzi/arm-multilib/lib/gcc/arm-none-eabi/4.6.2/../../../../arm-none-eabi/lib/thumb/libm.a(lib_a-k_cos.o)
                                                  /opt/paparazzi/arm-multilib/lib/gcc/arm-none-eabi/4.6.2/../../../../arm-none-eabi/lib/thumb/libm.a(lib_a-e_sqrt.o)
                                                  /opt/paparazzi/arm-multilib/lib/gcc/arm-none-eabi/4.6.2/../../../../arm-none-eabi/lib/thumb/libm.a(lib_a-e_sinh.o)
                                                  /opt/paparazzi/arm-multilib/lib/gcc/arm-none-eabi/4.6.2/../../../../arm-none-eabi/lib/thumb/libm.a(lib_a-e_rem_pio2.o)
                                                  /opt/paparazzi/arm-multilib/lib/gcc/arm-none-eabi/4.6.2/../../../../arm-none-eabi/lib/thumb/libm.a(lib_a-e_pow.o)
                                                  /opt/paparazzi/arm-multilib/lib/gcc/arm-none-eabi/4.6.2/../../../../arm-none-eabi/lib/thumb/libm.a(lib_a-e_log.o)
                                                  /opt/paparazzi/arm-multilib/lib/gcc/arm-none-eabi/4.6.2/../../../../arm-none-eabi/lib/thumb/libm.a(lib_a-e_exp.o)
                                                  /opt/paparazzi/arm-multilib/lib/gcc/arm-none-eabi/4.6.2/../../../../arm-none-eabi/lib/thumb/libm.a(lib_a-e_cosh.o)
                                                  /opt/paparazzi/arm-multilib/lib/gcc/arm-none-eabi/4.6.2/../../../../arm-none-eabi/lib/thumb/libm.a(lib_a-e_asin.o)
                                                  /opt/paparazzi/arm-multilib/lib/gcc/arm-none-eabi/4.6.2/../../../../arm-none-eabi/lib/thumb/libm.a(lib_a-e_acos.o)
                                                  /opt/paparazzi/arm-multilib/lib/gcc/arm-none-eabi/4.6.2/../../../../arm-none-eabi/lib/thumb/libm.a(lib_a-w_pow.o)
                                                  /opt/paparazzi/arm-multilib/lib/gcc/arm-none-eabi/4.6.2/../../../../arm-none-eabi/lib/thumb/libm.a(lib_a-s_atan.o)
                                                  /home/lionel/paparazziProto1/var/Colibri/ap/subsystems/gps/gps_ubx.o
                                                  /home/lionel/paparazziProto1/var/Colibri/ap/firmwares/fixedwing/datalink.o
                                                  /home/lionel/paparazziProto1/var/Colibri/ap/subsystems/navigation/border_line.o
                                                  /home/lionel/paparazziProto1/var/Colibri/ap/subsystems/navigation/poly_survey_adv.o
                                                  /home/lionel/paparazziProto1/var/Colibri/ap/subsystems/navigation/snav.o
                                                  /home/lionel/paparazziProto1/var/Colibri/ap/subsystems/navigation/OSAMNav.o
                                                  /home/lionel/paparazziProto1/var/Colibri/ap/subsystems/navigation/discsurvey.o
                                                  /home/lionel/paparazziProto1/var/Colibri/ap/subsystems/navigation/nav_cube.o
                                                  /home/lionel/paparazziProto1/var/Colibri/ap/subsystems/navigation/nav_line.o
                                                  /home/lionel/paparazziProto1/var/Colibri/ap/subsystems/navigation/nav_survey_rectangle.o
                                                  /home/lionel/paparazziProto1/var/Colibri/ap/subsystems/nav.o
                                                  /home/lionel/paparazziProto1/var/Colibri/ap/firmwares/fixedwing/guidance/guidance_v.o
                                                  /home/lionel/paparazziProto1/var/Colibri/ap/firmwares/fixedwing/stabilization/stabilization_attitude.o
                                                  /home/lionel/paparazziProto1/var/Colibri/ap/firmwares/fixedwing/main_ap.o
                                                  /home/lionel/paparazziProto1/var/Colibri/ap/subsystems/electrical.o
                                                  /home/lionel/paparazziProto1/var/Colibri/ap/firmwares/fixedwing/main_fbw.o
                                                  /home/lionel/paparazziProto1/var/Colibri/ap/math/pprz_geodetic_double.o
                                                  /home/lionel/paparazziProto1/var/Colibri/ap/math/pprz_geodetic_float.o
                                                  /home/lionel/paparazziProto1/var/Colibri/ap/math/pprz_geodetic_int.o
__aeabi_drsub                                     /opt/paparazzi/arm-multilib/lib/gcc/arm-none-eabi/4.6.2/thumb/libgcc.a(_arm_addsubdf3.o)
__aeabi_dsub                                      /opt/paparazzi/arm-multilib/lib/gcc/arm-none-eabi/4.6.2/thumb/libgcc.a(_arm_addsubdf3.o)
                                                  /opt/paparazzi/arm-multilib/lib/gcc/arm-none-eabi/4.6.2/../../../../arm-none-eabi/lib/thumb/libm.a(lib_a-s_expm1.o)
                                                  /opt/paparazzi/arm-multilib/lib/gcc/arm-none-eabi/4.6.2/../../../../arm-none-eabi/lib/thumb/libm.a(lib_a-k_tan.o)
                                                  /opt/paparazzi/arm-multilib/lib/gcc/arm-none-eabi/4.6.2/../../../../arm-none-eabi/lib/thumb/libm.a(lib_a-k_sin.o)
                                                  /opt/paparazzi/arm-multilib/lib/gcc/arm-none-eabi/4.6.2/../../../../arm-none-eabi/lib/thumb/libm.a(lib_a-k_rem_pio2.o)
                                                  /opt/paparazzi/arm-multilib/lib/gcc/arm-none-eabi/4.6.2/../../../../arm-none-eabi/lib/thumb/libm.a(lib_a-k_cos.o)
                                                  /opt/paparazzi/arm-multilib/lib/gcc/arm-none-eabi/4.6.2/../../../../arm-none-eabi/lib/thumb/libm.a(lib_a-e_sqrt.o)
                                                  /opt/paparazzi/arm-multilib/lib/gcc/arm-none-eabi/4.6.2/../../../../arm-none-eabi/lib/thumb/libm.a(lib_a-e_sinh.o)
                                                  /opt/paparazzi/arm-multilib/lib/gcc/arm-none-eabi/4.6.2/../../../../arm-none-eabi/lib/thumb/libm.a(lib_a-e_rem_pio2.o)
                                                  /opt/paparazzi/arm-multilib/lib/gcc/arm-none-eabi/4.6.2/../../../../arm-none-eabi/lib/thumb/libm.a(lib_a-e_pow.o)
                                                  /opt/paparazzi/arm-multilib/lib/gcc/arm-none-eabi/4.6.2/../../../../arm-none-eabi/lib/thumb/libm.a(lib_a-e_log.o)
                                                  /opt/paparazzi/arm-multilib/lib/gcc/arm-none-eabi/4.6.2/../../../../arm-none-eabi/lib/thumb/libm.a(lib_a-e_exp.o)
                                                  /opt/paparazzi/arm-multilib/lib/gcc/arm-none-eabi/4.6.2/../../../../arm-none-eabi/lib/thumb/libm.a(lib_a-e_atan2.o)
                                                  /opt/paparazzi/arm-multilib/lib/gcc/arm-none-eabi/4.6.2/../../../../arm-none-eabi/lib/thumb/libm.a(lib_a-e_asin.o)
                                                  /opt/paparazzi/arm-multilib/lib/gcc/arm-none-eabi/4.6.2/../../../../arm-none-eabi/lib/thumb/libm.a(lib_a-e_acos.o)
                                                  /opt/paparazzi/arm-multilib/lib/gcc/arm-none-eabi/4.6.2/../../../../arm-none-eabi/lib/thumb/libm.a(lib_a-s_tan.o)
                                                  /opt/paparazzi/arm-multilib/lib/gcc/arm-none-eabi/4.6.2/../../../../arm-none-eabi/lib/thumb/libm.a(lib_a-s_sin.o)
                                                  /opt/paparazzi/arm-multilib/lib/gcc/arm-none-eabi/4.6.2/../../../../arm-none-eabi/lib/thumb/libm.a(lib_a-s_rint.o)
                                                  /opt/paparazzi/arm-multilib/lib/gcc/arm-none-eabi/4.6.2/../../../../arm-none-eabi/lib/thumb/libm.a(lib_a-s_cos.o)
                                                  /opt/paparazzi/arm-multilib/lib/gcc/arm-none-eabi/4.6.2/../../../../arm-none-eabi/lib/thumb/libm.a(lib_a-s_atan.o)
                                                  /home/lionel/paparazziProto1/var/Colibri/ap/subsystems/ahrs/ahrs_infrared.o
                                                  /home/lionel/paparazziProto1/var/Colibri/ap/subsystems/navigation/border_line.o
                                                  /home/lionel/paparazziProto1/var/Colibri/ap/subsystems/navigation/poly_survey_adv.o
                                                  /home/lionel/paparazziProto1/var/Colibri/ap/subsystems/navigation/snav.o
                                                  /home/lionel/paparazziProto1/var/Colibri/ap/subsystems/navigation/OSAMNav.o
                                                  /home/lionel/paparazziProto1/var/Colibri/ap/subsystems/navigation/discsurvey.o
                                                  /home/lionel/paparazziProto1/var/Colibri/ap/subsystems/navigation/nav_cube.o
                                                  /home/lionel/paparazziProto1/var/Colibri/ap/subsystems/navigation/nav_line.o
                                                  /home/lionel/paparazziProto1/var/Colibri/ap/subsystems/navigation/nav_survey_rectangle.o
                                                  /home/lionel/paparazziProto1/var/Colibri/ap/subsystems/nav.o
                                                  /home/lionel/paparazziProto1/var/Colibri/ap/firmwares/fixedwing/guidance/guidance_v.o
                                                  /home/lionel/paparazziProto1/var/Colibri/ap/firmwares/fixedwing/stabilization/stabilization_attitude.o
                                                  /home/lionel/paparazziProto1/var/Colibri/ap/math/pprz_geodetic_double.o
                                                  /home/lionel/paparazziProto1/var/Colibri/ap/math/pprz_geodetic_float.o
__aeabi_f2d                                       /opt/paparazzi/arm-multilib/lib/gcc/arm-none-eabi/4.6.2/thumb/libgcc.a(_arm_addsubdf3.o)
                                                  /opt/paparazzi/arm-multilib/lib/gcc/arm-none-eabi/4.6.2/../../../../arm-none-eabi/lib/thumb/libm.a(lib_a-wf_sqrt.o)
                                                  /opt/paparazzi/arm-multilib/lib/gcc/arm-none-eabi/4.6.2/../../../../arm-none-eabi/lib/thumb/libm.a(lib_a-wf_pow.o)
                                                  /home/lionel/paparazziProto1/var/Colibri/ap/subsystems/ahrs/ahrs_infrared.o
                                                  /home/lionel/paparazziProto1/var/Colibri/ap/firmwares/fixedwing/datalink.o
                                                  /home/lionel/paparazziProto1/var/Colibri/ap/subsystems/navigation/border_line.o
                                                  /home/lionel/paparazziProto1/var/Colibri/ap/subsystems/navigation/gls.o
                                                  /home/lionel/paparazziProto1/var/Colibri/ap/subsystems/navigation/poly_survey_adv.o
                                                  /home/lionel/paparazziProto1/var/Colibri/ap/subsystems/navigation/spiral.o
                                                  /home/lionel/paparazziProto1/var/Colibri/ap/subsystems/navigation/snav.o
                                                  /home/lionel/paparazziProto1/var/Colibri/ap/subsystems/navigation/OSAMNav.o
                                                  /home/lionel/paparazziProto1/var/Colibri/ap/subsystems/navigation/discsurvey.o
                                                  /home/lionel/paparazziProto1/var/Colibri/ap/subsystems/navigation/nav_cube.o
                                                  /home/lionel/paparazziProto1/var/Colibri/ap/subsystems/navigation/nav_line.o
                                                  /home/lionel/paparazziProto1/var/Colibri/ap/subsystems/navigation/nav_survey_rectangle.o
                                                  /home/lionel/paparazziProto1/var/Colibri/ap/subsystems/nav.o
                                                  /home/lionel/paparazziProto1/var/Colibri/ap/firmwares/fixedwing/guidance/guidance_v.o
                                                  /home/lionel/paparazziProto1/var/Colibri/ap/firmwares/fixedwing/stabilization/stabilization_attitude.o
                                                  /home/lionel/paparazziProto1/var/Colibri/ap/./estimator.o
                                                  /home/lionel/paparazziProto1/var/Colibri/ap/firmwares/fixedwing/main_ap.o
                                                  /home/lionel/paparazziProto1/var/Colibri/ap/subsystems/electrical.o
                                                  /home/lionel/paparazziProto1/var/Colibri/ap/firmwares/fixedwing/main_fbw.o
                                                  /home/lionel/paparazziProto1/var/Colibri/ap/math/pprz_geodetic_double.o
                                                  /home/lionel/paparazziProto1/var/Colibri/ap/math/pprz_geodetic_float.o
                                                  /home/lionel/paparazziProto1/var/Colibri/ap/math/pprz_geodetic_int.o
                                                  /home/lionel/paparazziProto1/var/Colibri/ap/mcu_periph/sys_time.o
__aeabi_f2iz                                      /opt/paparazzi/arm-multilib/lib/gcc/arm-none-eabi/4.6.2/thumb/libgcc.a(_arm_fixsfsi.o)
                                                  /opt/paparazzi/arm-multilib/lib/gcc/arm-none-eabi/4.6.2/../../../../arm-none-eabi/lib/thumb/libm.a(lib_a-kf_tan.o)
                                                  /opt/paparazzi/arm-multilib/lib/gcc/arm-none-eabi/4.6.2/../../../../arm-none-eabi/lib/thumb/libm.a(lib_a-kf_sin.o)
                                                  /opt/paparazzi/arm-multilib/lib/gcc/arm-none-eabi/4.6.2/../../../../arm-none-eabi/lib/thumb/libm.a(lib_a-kf_rem_pio2.o)
                                                  /opt/paparazzi/arm-multilib/lib/gcc/arm-none-eabi/4.6.2/../../../../arm-none-eabi/lib/thumb/libm.a(lib_a-kf_cos.o)
                                                  /opt/paparazzi/arm-multilib/lib/gcc/arm-none-eabi/4.6.2/../../../../arm-none-eabi/lib/thumb/libm.a(lib_a-ef_rem_pio2.o)
                                                  /home/lionel/paparazziProto1/var/Colibri/ap/subsystems/sensors/infrared_adc.o
                                                  /home/lionel/paparazziProto1/var/Colibri/ap/subsystems/gps/gps_ubx.o
                                                  /home/lionel/paparazziProto1/var/Colibri/ap/subsystems/navigation/poly_survey_adv.o
                                                  /home/lionel/paparazziProto1/var/Colibri/ap/subsystems/navigation/nav_cube.o
                                                  /home/lionel/paparazziProto1/var/Colibri/ap/subsystems/nav.o
                                                  /home/lionel/paparazziProto1/var/Colibri/ap/firmwares/fixedwing/guidance/guidance_v.o
                                                  /home/lionel/paparazziProto1/var/Colibri/ap/firmwares/fixedwing/stabilization/stabilization_attitude.o
                                                  /home/lionel/paparazziProto1/var/Colibri/ap/firmwares/fixedwing/main_ap.o
                                                  /home/lionel/paparazziProto1/var/Colibri/ap/firmwares/fixedwing/main_fbw.o
__aeabi_f2uiz                                     /opt/paparazzi/arm-multilib/lib/gcc/arm-none-eabi/4.6.2/thumb/libgcc.a(_arm_fixunssfsi.o)
                                                  /home/lionel/paparazziProto1/var/Colibri/ap/firmwares/fixedwing/datalink.o
                                                  /home/lionel/paparazziProto1/var/Colibri/ap/subsystems/electrical.o
__aeabi_fadd                                      /opt/paparazzi/arm-multilib/lib/gcc/arm-none-eabi/4.6.2/thumb/libgcc.a(_arm_addsubsf3.o)
                                                  /opt/paparazzi/arm-multilib/lib/gcc/arm-none-eabi/4.6.2/../../../../arm-none-eabi/lib/thumb/libm.a(lib_a-sf_scalbn.o)
                                                  /opt/paparazzi/arm-multilib/lib/gcc/arm-none-eabi/4.6.2/../../../../arm-none-eabi/lib/thumb/libm.a(lib_a-sf_floor.o)
                                                  /opt/paparazzi/arm-multilib/lib/gcc/arm-none-eabi/4.6.2/../../../../arm-none-eabi/lib/thumb/libm.a(lib_a-kf_tan.o)
                                                  /opt/paparazzi/arm-multilib/lib/gcc/arm-none-eabi/4.6.2/../../../../arm-none-eabi/lib/thumb/libm.a(lib_a-kf_sin.o)
                                                  /opt/paparazzi/arm-multilib/lib/gcc/arm-none-eabi/4.6.2/../../../../arm-none-eabi/lib/thumb/libm.a(lib_a-kf_rem_pio2.o)
                                                  /opt/paparazzi/arm-multilib/lib/gcc/arm-none-eabi/4.6.2/../../../../arm-none-eabi/lib/thumb/libm.a(lib_a-kf_cos.o)
                                                  /opt/paparazzi/arm-multilib/lib/gcc/arm-none-eabi/4.6.2/../../../../arm-none-eabi/lib/thumb/libm.a(lib_a-ef_sqrt.o)
                                                  /opt/paparazzi/arm-multilib/lib/gcc/arm-none-eabi/4.6.2/../../../../arm-none-eabi/lib/thumb/libm.a(lib_a-ef_rem_pio2.o)
                                                  /opt/paparazzi/arm-multilib/lib/gcc/arm-none-eabi/4.6.2/../../../../arm-none-eabi/lib/thumb/libm.a(lib_a-ef_pow.o)
                                                  /opt/paparazzi/arm-multilib/lib/gcc/arm-none-eabi/4.6.2/../../../../arm-none-eabi/lib/thumb/libm.a(lib_a-ef_atan2.o)
                                                  /opt/paparazzi/arm-multilib/lib/gcc/arm-none-eabi/4.6.2/../../../../arm-none-eabi/lib/thumb/libm.a(lib_a-sf_atan.o)
                                                  /home/lionel/paparazziProto1/var/Colibri/ap/firmwares/fixedwing/datalink.o
                                                  /home/lionel/paparazziProto1/var/Colibri/ap/subsystems/navigation/border_line.o
                                                  /home/lionel/paparazziProto1/var/Colibri/ap/subsystems/navigation/gls.o
                                                  /home/lionel/paparazziProto1/var/Colibri/ap/subsystems/navigation/poly_survey_adv.o
                                                  /home/lionel/paparazziProto1/var/Colibri/ap/subsystems/navigation/spiral.o
                                                  /home/lionel/paparazziProto1/var/Colibri/ap/subsystems/navigation/snav.o
                                                  /home/lionel/paparazziProto1/var/Colibri/ap/subsystems/navigation/OSAMNav.o
                                                  /home/lionel/paparazziProto1/var/Colibri/ap/subsystems/navigation/discsurvey.o
                                                  /home/lionel/paparazziProto1/var/Colibri/ap/subsystems/navigation/nav_cube.o
                                                  /home/lionel/paparazziProto1/var/Colibri/ap/subsystems/navigation/nav_line.o
                                                  /home/lionel/paparazziProto1/var/Colibri/ap/subsystems/navigation/nav_survey_rectangle.o
                                                  /home/lionel/paparazziProto1/var/Colibri/ap/subsystems/nav.o
                                                  /home/lionel/paparazziProto1/var/Colibri/ap/firmwares/fixedwing/guidance/guidance_v.o
                                                  /home/lionel/paparazziProto1/var/Colibri/ap/firmwares/fixedwing/stabilization/stabilization_attitude.o
                                                  /home/lionel/paparazziProto1/var/Colibri/ap/./estimator.o
                                                  /home/lionel/paparazziProto1/var/Colibri/ap/firmwares/fixedwing/main_ap.o
                                                  /home/lionel/paparazziProto1/var/Colibri/ap/math/pprz_geodetic_float.o
__aeabi_fcmpeq                                    /opt/paparazzi/arm-multilib/lib/gcc/arm-none-eabi/4.6.2/thumb/libgcc.a(_arm_cmpsf2.o)
                                                  /opt/paparazzi/arm-multilib/lib/gcc/arm-none-eabi/4.6.2/../../../../arm-none-eabi/lib/thumb/libm.a(lib_a-kf_rem_pio2.o)
                                                  /opt/paparazzi/arm-multilib/lib/gcc/arm-none-eabi/4.6.2/../../../../arm-none-eabi/lib/thumb/libm.a(lib_a-ef_rem_pio2.o)
                                                  /opt/paparazzi/arm-multilib/lib/gcc/arm-none-eabi/4.6.2/../../../../arm-none-eabi/lib/thumb/libm.a(lib_a-wf_pow.o)
                                                  /home/lionel/paparazziProto1/var/Colibri/ap/firmwares/fixedwing/datalink.o
                                                  /home/lionel/paparazziProto1/var/Colibri/ap/subsystems/navigation/gls.o
                                                  /home/lionel/paparazziProto1/var/Colibri/ap/subsystems/navigation/poly_survey_adv.o
                                                  /home/lionel/paparazziProto1/var/Colibri/ap/subsystems/navigation/OSAMNav.o
__aeabi_fcmpge                                    /opt/paparazzi/arm-multilib/lib/gcc/arm-none-eabi/4.6.2/thumb/libgcc.a(_arm_cmpsf2.o)
                                                  /opt/paparazzi/arm-multilib/lib/gcc/arm-none-eabi/4.6.2/../../../../arm-none-eabi/lib/thumb/libm.a(lib_a-kf_rem_pio2.o)
                                                  /home/lionel/paparazziProto1/var/Colibri/ap/subsystems/ahrs/ahrs_infrared.o
                                                  /home/lionel/paparazziProto1/var/Colibri/ap/subsystems/navigation/border_line.o
                                                  /home/lionel/paparazziProto1/var/Colibri/ap/subsystems/navigation/poly_survey_adv.o
                                                  /home/lionel/paparazziProto1/var/Colibri/ap/subsystems/navigation/spiral.o
                                                  /home/lionel/paparazziProto1/var/Colibri/ap/subsystems/navigation/snav.o
                                                  /home/lionel/paparazziProto1/var/Colibri/ap/subsystems/navigation/OSAMNav.o
                                                  /home/lionel/paparazziProto1/var/Colibri/ap/subsystems/navigation/discsurvey.o
                                                  /home/lionel/paparazziProto1/var/Colibri/ap/subsystems/navigation/nav_line.o
                                                  /home/lionel/paparazziProto1/var/Colibri/ap/subsystems/navigation/nav_survey_rectangle.o
                                                  /home/lionel/paparazziProto1/var/Colibri/ap/subsystems/nav.o
__aeabi_fcmpgt                                    /opt/paparazzi/arm-multilib/lib/gcc/arm-none-eabi/4.6.2/thumb/libgcc.a(_arm_cmpsf2.o)
                                                  /opt/paparazzi/arm-multilib/lib/gcc/arm-none-eabi/4.6.2/../../../../arm-none-eabi/lib/thumb/libm.a(lib_a-sf_floor.o)
                                                  /opt/paparazzi/arm-multilib/lib/gcc/arm-none-eabi/4.6.2/../../../../arm-none-eabi/lib/thumb/libm.a(lib_a-ef_pow.o)
                                                  /opt/paparazzi/arm-multilib/lib/gcc/arm-none-eabi/4.6.2/../../../../arm-none-eabi/lib/thumb/libm.a(lib_a-sf_atan.o)
                                                  /home/lionel/paparazziProto1/var/Colibri/ap/firmwares/fixedwing/datalink.o
                                                  /home/lionel/paparazziProto1/var/Colibri/ap/subsystems/navigation/border_line.o
                                                  /home/lionel/paparazziProto1/var/Colibri/ap/subsystems/navigation/gls.o
                                                  /home/lionel/paparazziProto1/var/Colibri/ap/subsystems/navigation/poly_survey_adv.o
                                                  /home/lionel/paparazziProto1/var/Colibri/ap/subsystems/navigation/spiral.o
                                                  /home/lionel/paparazziProto1/var/Colibri/ap/subsystems/navigation/snav.o
                                                  /home/lionel/paparazziProto1/var/Colibri/ap/subsystems/navigation/OSAMNav.o
                                                  /home/lionel/paparazziProto1/var/Colibri/ap/subsystems/navigation/discsurvey.o
                                                  /home/lionel/paparazziProto1/var/Colibri/ap/subsystems/navigation/nav_line.o
                                                  /home/lionel/paparazziProto1/var/Colibri/ap/subsystems/navigation/nav_survey_rectangle.o
                                                  /home/lionel/paparazziProto1/var/Colibri/ap/subsystems/nav.o
                                                  /home/lionel/paparazziProto1/var/Colibri/ap/firmwares/fixedwing/guidance/guidance_v.o
                                                  /home/lionel/paparazziProto1/var/Colibri/ap/firmwares/fixedwing/stabilization/stabilization_attitude.o
                                                  /home/lionel/paparazziProto1/var/Colibri/ap/firmwares/fixedwing/main_ap.o
                                                  /home/lionel/paparazziProto1/var/Colibri/ap/firmwares/fixedwing/main_fbw.o
                                                  /home/lionel/paparazziProto1/var/Colibri/ap/math/pprz_geodetic_float.o
__aeabi_fcmple                                    /opt/paparazzi/arm-multilib/lib/gcc/arm-none-eabi/4.6.2/thumb/libgcc.a(_arm_cmpsf2.o)
                                                  /opt/paparazzi/arm-multilib/lib/gcc/arm-none-eabi/4.6.2/../../../../arm-none-eabi/lib/thumb/libm.a(lib_a-ef_pow.o)
                                                  /home/lionel/paparazziProto1/var/Colibri/ap/subsystems/navigation/poly_survey_adv.o
                                                  /home/lionel/paparazziProto1/var/Colibri/ap/subsystems/navigation/OSAMNav.o
__aeabi_fcmplt                                    /opt/paparazzi/arm-multilib/lib/gcc/arm-none-eabi/4.6.2/thumb/libgcc.a(_arm_cmpsf2.o)
                                                  /opt/paparazzi/arm-multilib/lib/gcc/arm-none-eabi/4.6.2/../../../../arm-none-eabi/lib/thumb/libm.a(lib_a-wf_sqrt.o)
                                                  /opt/paparazzi/arm-multilib/lib/gcc/arm-none-eabi/4.6.2/../../../../arm-none-eabi/lib/thumb/libm.a(lib_a-wf_pow.o)
                                                  /home/lionel/paparazziProto1/var/Colibri/ap/subsystems/ahrs/ahrs_infrared.o
                                                  /home/lionel/paparazziProto1/var/Colibri/ap/firmwares/fixedwing/datalink.o
                                                  /home/lionel/paparazziProto1/var/Colibri/ap/subsystems/navigation/border_line.o
                                                  /home/lionel/paparazziProto1/var/Colibri/ap/subsystems/navigation/gls.o
                                                  /home/lionel/paparazziProto1/var/Colibri/ap/subsystems/navigation/poly_survey_adv.o
                                                  /home/lionel/paparazziProto1/var/Colibri/ap/subsystems/navigation/spiral.o
                                                  /home/lionel/paparazziProto1/var/Colibri/ap/subsystems/navigation/snav.o
                                                  /home/lionel/paparazziProto1/var/Colibri/ap/subsystems/navigation/OSAMNav.o
                                                  /home/lionel/paparazziProto1/var/Colibri/ap/subsystems/navigation/discsurvey.o
                                                  /home/lionel/paparazziProto1/var/Colibri/ap/subsystems/navigation/nav_line.o
                                                  /home/lionel/paparazziProto1/var/Colibri/ap/subsystems/navigation/nav_survey_rectangle.o
                                                  /home/lionel/paparazziProto1/var/Colibri/ap/subsystems/nav.o
                                                  /home/lionel/paparazziProto1/var/Colibri/ap/firmwares/fixedwing/guidance/guidance_v.o
                                                  /home/lionel/paparazziProto1/var/Colibri/ap/firmwares/fixedwing/stabilization/stabilization_attitude.o
__aeabi_fdiv                                      /opt/paparazzi/arm-multilib/lib/gcc/arm-none-eabi/4.6.2/thumb/libgcc.a(_arm_muldivsf3.o)
                                                  /opt/paparazzi/arm-multilib/lib/gcc/arm-none-eabi/4.6.2/../../../../arm-none-eabi/lib/thumb/libm.a(lib_a-kf_tan.o)
                                                  /opt/paparazzi/arm-multilib/lib/gcc/arm-none-eabi/4.6.2/../../../../arm-none-eabi/lib/thumb/libm.a(lib_a-ef_sqrt.o)
                                                  /opt/paparazzi/arm-multilib/lib/gcc/arm-none-eabi/4.6.2/../../../../arm-none-eabi/lib/thumb/libm.a(lib_a-ef_pow.o)
                                                  /opt/paparazzi/arm-multilib/lib/gcc/arm-none-eabi/4.6.2/../../../../arm-none-eabi/lib/thumb/libm.a(lib_a-ef_atan2.o)
                                                  /opt/paparazzi/arm-multilib/lib/gcc/arm-none-eabi/4.6.2/../../../../arm-none-eabi/lib/thumb/libm.a(lib_a-sf_atan.o)
                                                  /home/lionel/paparazziProto1/var/Colibri/ap/subsystems/gps/gps_ubx.o
                                                  /home/lionel/paparazziProto1/var/Colibri/ap/firmwares/fixedwing/datalink.o
                                                  /home/lionel/paparazziProto1/var/Colibri/ap/subsystems/navigation/border_line.o
                                                  /home/lionel/paparazziProto1/var/Colibri/ap/subsystems/navigation/gls.o
                                                  /home/lionel/paparazziProto1/var/Colibri/ap/subsystems/navigation/poly_survey_adv.o
                                                  /home/lionel/paparazziProto1/var/Colibri/ap/subsystems/navigation/spiral.o
                                                  /home/lionel/paparazziProto1/var/Colibri/ap/subsystems/navigation/snav.o
                                                  /home/lionel/paparazziProto1/var/Colibri/ap/subsystems/navigation/OSAMNav.o
                                                  /home/lionel/paparazziProto1/var/Colibri/ap/subsystems/navigation/nav_line.o
                                                  /home/lionel/paparazziProto1/var/Colibri/ap/subsystems/nav.o
                                                  /home/lionel/paparazziProto1/var/Colibri/ap/firmwares/fixedwing/stabilization/stabilization_attitude.o
                                                  /home/lionel/paparazziProto1/var/Colibri/ap/./estimator.o
                                                  /home/lionel/paparazziProto1/var/Colibri/ap/firmwares/fixedwing/main_ap.o
                                                  /home/lionel/paparazziProto1/var/Colibri/ap/math/pprz_geodetic_float.o
                                                  /home/lionel/paparazziProto1/var/Colibri/ap/math/pprz_geodetic_int.o
__aeabi_fmul                                      /opt/paparazzi/arm-multilib/lib/gcc/arm-none-eabi/4.6.2/thumb/libgcc.a(_arm_muldivsf3.o)
                                                  /opt/paparazzi/arm-multilib/lib/gcc/arm-none-eabi/4.6.2/../../../../arm-none-eabi/lib/thumb/libm.a(lib_a-sf_scalbn.o)
                                                  /opt/paparazzi/arm-multilib/lib/gcc/arm-none-eabi/4.6.2/../../../../arm-none-eabi/lib/thumb/libm.a(lib_a-kf_tan.o)
                                                  /opt/paparazzi/arm-multilib/lib/gcc/arm-none-eabi/4.6.2/../../../../arm-none-eabi/lib/thumb/libm.a(lib_a-kf_sin.o)
                                                  /opt/paparazzi/arm-multilib/lib/gcc/arm-none-eabi/4.6.2/../../../../arm-none-eabi/lib/thumb/libm.a(lib_a-kf_rem_pio2.o)
                                                  /opt/paparazzi/arm-multilib/lib/gcc/arm-none-eabi/4.6.2/../../../../arm-none-eabi/lib/thumb/libm.a(lib_a-kf_cos.o)
                                                  /opt/paparazzi/arm-multilib/lib/gcc/arm-none-eabi/4.6.2/../../../../arm-none-eabi/lib/thumb/libm.a(lib_a-ef_sqrt.o)
                                                  /opt/paparazzi/arm-multilib/lib/gcc/arm-none-eabi/4.6.2/../../../../arm-none-eabi/lib/thumb/libm.a(lib_a-ef_rem_pio2.o)
                                                  /opt/paparazzi/arm-multilib/lib/gcc/arm-none-eabi/4.6.2/../../../../arm-none-eabi/lib/thumb/libm.a(lib_a-ef_pow.o)
                                                  /opt/paparazzi/arm-multilib/lib/gcc/arm-none-eabi/4.6.2/../../../../arm-none-eabi/lib/thumb/libm.a(lib_a-wf_pow.o)
                                                  /opt/paparazzi/arm-multilib/lib/gcc/arm-none-eabi/4.6.2/../../../../arm-none-eabi/lib/thumb/libm.a(lib_a-sf_atan.o)
                                                  /home/lionel/paparazziProto1/var/Colibri/ap/subsystems/sensors/infrared_adc.o
                                                  /home/lionel/paparazziProto1/var/Colibri/ap/subsystems/gps/gps_ubx.o
                                                  /home/lionel/paparazziProto1/var/Colibri/ap/subsystems/ahrs/ahrs_infrared.o
                                                  /home/lionel/paparazziProto1/var/Colibri/ap/subsystems/navigation/border_line.o
                                                  /home/lionel/paparazziProto1/var/Colibri/ap/subsystems/navigation/gls.o
                                                  /home/lionel/paparazziProto1/var/Colibri/ap/subsystems/navigation/poly_survey_adv.o
                                                  /home/lionel/paparazziProto1/var/Colibri/ap/subsystems/navigation/spiral.o
                                                  /home/lionel/paparazziProto1/var/Colibri/ap/subsystems/navigation/snav.o
                                                  /home/lionel/paparazziProto1/var/Colibri/ap/subsystems/navigation/OSAMNav.o
                                                  /home/lionel/paparazziProto1/var/Colibri/ap/subsystems/navigation/discsurvey.o
                                                  /home/lionel/paparazziProto1/var/Colibri/ap/subsystems/navigation/nav_cube.o
                                                  /home/lionel/paparazziProto1/var/Colibri/ap/subsystems/navigation/nav_line.o
                                                  /home/lionel/paparazziProto1/var/Colibri/ap/subsystems/navigation/nav_survey_rectangle.o
                                                  /home/lionel/paparazziProto1/var/Colibri/ap/subsystems/nav.o
                                                  /home/lionel/paparazziProto1/var/Colibri/ap/firmwares/fixedwing/guidance/guidance_v.o
                                                  /home/lionel/paparazziProto1/var/Colibri/ap/firmwares/fixedwing/stabilization/stabilization_attitude.o
                                                  /home/lionel/paparazziProto1/var/Colibri/ap/./estimator.o
                                                  /home/lionel/paparazziProto1/var/Colibri/ap/firmwares/fixedwing/main_ap.o
                                                  /home/lionel/paparazziProto1/var/Colibri/ap/subsystems/electrical.o
                                                  /home/lionel/paparazziProto1/var/Colibri/ap/math/pprz_geodetic_float.o
                                                  /home/lionel/paparazziProto1/var/Colibri/ap/math/pprz_geodetic_int.o
__aeabi_frsub                                     /opt/paparazzi/arm-multilib/lib/gcc/arm-none-eabi/4.6.2/thumb/libgcc.a(_arm_addsubsf3.o)
__aeabi_fsub                                      /opt/paparazzi/arm-multilib/lib/gcc/arm-none-eabi/4.6.2/thumb/libgcc.a(_arm_addsubsf3.o)
                                                  /opt/paparazzi/arm-multilib/lib/gcc/arm-none-eabi/4.6.2/../../../../arm-none-eabi/lib/thumb/libm.a(lib_a-kf_tan.o)
                                                  /opt/paparazzi/arm-multilib/lib/gcc/arm-none-eabi/4.6.2/../../../../arm-none-eabi/lib/thumb/libm.a(lib_a-kf_sin.o)
                                                  /opt/paparazzi/arm-multilib/lib/gcc/arm-none-eabi/4.6.2/../../../../arm-none-eabi/lib/thumb/libm.a(lib_a-kf_rem_pio2.o)
                                                  /opt/paparazzi/arm-multilib/lib/gcc/arm-none-eabi/4.6.2/../../../../arm-none-eabi/lib/thumb/libm.a(lib_a-kf_cos.o)
                                                  /opt/paparazzi/arm-multilib/lib/gcc/arm-none-eabi/4.6.2/../../../../arm-none-eabi/lib/thumb/libm.a(lib_a-ef_sqrt.o)
                                                  /opt/paparazzi/arm-multilib/lib/gcc/arm-none-eabi/4.6.2/../../../../arm-none-eabi/lib/thumb/libm.a(lib_a-ef_rem_pio2.o)
                                                  /opt/paparazzi/arm-multilib/lib/gcc/arm-none-eabi/4.6.2/../../../../arm-none-eabi/lib/thumb/libm.a(lib_a-ef_pow.o)
                                                  /opt/paparazzi/arm-multilib/lib/gcc/arm-none-eabi/4.6.2/../../../../arm-none-eabi/lib/thumb/libm.a(lib_a-ef_atan2.o)
                                                  /opt/paparazzi/arm-multilib/lib/gcc/arm-none-eabi/4.6.2/../../../../arm-none-eabi/lib/thumb/libm.a(lib_a-sf_tan.o)
                                                  /opt/paparazzi/arm-multilib/lib/gcc/arm-none-eabi/4.6.2/../../../../arm-none-eabi/lib/thumb/libm.a(lib_a-sf_sin.o)
                                                  /opt/paparazzi/arm-multilib/lib/gcc/arm-none-eabi/4.6.2/../../../../arm-none-eabi/lib/thumb/libm.a(lib_a-sf_cos.o)
                                                  /opt/paparazzi/arm-multilib/lib/gcc/arm-none-eabi/4.6.2/../../../../arm-none-eabi/lib/thumb/libm.a(lib_a-sf_atan.o)
                                                  /home/lionel/paparazziProto1/var/Colibri/ap/subsystems/ahrs/ahrs_infrared.o
                                                  /home/lionel/paparazziProto1/var/Colibri/ap/firmwares/fixedwing/datalink.o
                                                  /home/lionel/paparazziProto1/var/Colibri/ap/subsystems/navigation/border_line.o
                                                  /home/lionel/paparazziProto1/var/Colibri/ap/subsystems/navigation/gls.o
                                                  /home/lionel/paparazziProto1/var/Colibri/ap/subsystems/navigation/poly_survey_adv.o
                                                  /home/lionel/paparazziProto1/var/Colibri/ap/subsystems/navigation/spiral.o
                                                  /home/lionel/paparazziProto1/var/Colibri/ap/subsystems/navigation/snav.o
                                                  /home/lionel/paparazziProto1/var/Colibri/ap/subsystems/navigation/OSAMNav.o
                                                  /home/lionel/paparazziProto1/var/Colibri/ap/subsystems/navigation/discsurvey.o
                                                  /home/lionel/paparazziProto1/var/Colibri/ap/subsystems/navigation/nav_cube.o
                                                  /home/lionel/paparazziProto1/var/Colibri/ap/subsystems/navigation/nav_line.o
                                                  /home/lionel/paparazziProto1/var/Colibri/ap/subsystems/navigation/nav_survey_rectangle.o
                                                  /home/lionel/paparazziProto1/var/Colibri/ap/subsystems/nav.o
                                                  /home/lionel/paparazziProto1/var/Colibri/ap/firmwares/fixedwing/guidance/guidance_v.o
                                                  /home/lionel/paparazziProto1/var/Colibri/ap/firmwares/fixedwing/stabilization/stabilization_attitude.o
                                                  /home/lionel/paparazziProto1/var/Colibri/ap/./estimator.o
                                                  /home/lionel/paparazziProto1/var/Colibri/ap/math/pprz_geodetic_float.o
__aeabi_i2d                                       /opt/paparazzi/arm-multilib/lib/gcc/arm-none-eabi/4.6.2/thumb/libgcc.a(_arm_addsubdf3.o)
                                                  /opt/paparazzi/arm-multilib/lib/gcc/arm-none-eabi/4.6.2/../../../../arm-none-eabi/lib/thumb/libm.a(lib_a-s_expm1.o)
                                                  /opt/paparazzi/arm-multilib/lib/gcc/arm-none-eabi/4.6.2/../../../../arm-none-eabi/lib/thumb/libm.a(lib_a-k_tan.o)
                                                  /opt/paparazzi/arm-multilib/lib/gcc/arm-none-eabi/4.6.2/../../../../arm-none-eabi/lib/thumb/libm.a(lib_a-k_rem_pio2.o)
                                                  /opt/paparazzi/arm-multilib/lib/gcc/arm-none-eabi/4.6.2/../../../../arm-none-eabi/lib/thumb/libm.a(lib_a-e_rem_pio2.o)
                                                  /opt/paparazzi/arm-multilib/lib/gcc/arm-none-eabi/4.6.2/../../../../arm-none-eabi/lib/thumb/libm.a(lib_a-e_pow.o)
                                                  /opt/paparazzi/arm-multilib/lib/gcc/arm-none-eabi/4.6.2/../../../../arm-none-eabi/lib/thumb/libm.a(lib_a-e_log.o)
                                                  /opt/paparazzi/arm-multilib/lib/gcc/arm-none-eabi/4.6.2/../../../../arm-none-eabi/lib/thumb/libm.a(lib_a-e_exp.o)
                                                  /home/lionel/paparazziProto1/var/Colibri/ap/subsystems/gps/gps_ubx.o
                                                  /home/lionel/paparazziProto1/var/Colibri/ap/subsystems/ahrs/ahrs_infrared.o
                                                  /home/lionel/paparazziProto1/var/Colibri/ap/firmwares/fixedwing/datalink.o
                                                  /home/lionel/paparazziProto1/var/Colibri/ap/subsystems/navigation/poly_survey_adv.o
                                                  /home/lionel/paparazziProto1/var/Colibri/ap/subsystems/navigation/nav_cube.o
                                                  /home/lionel/paparazziProto1/var/Colibri/ap/subsystems/nav.o
                                                  /home/lionel/paparazziProto1/var/Colibri/ap/firmwares/fixedwing/guidance/guidance_v.o
                                                  /home/lionel/paparazziProto1/var/Colibri/ap/./estimator.o
                                                  /home/lionel/paparazziProto1/var/Colibri/ap/firmwares/fixedwing/main_ap.o
                                                  /home/lionel/paparazziProto1/var/Colibri/ap/firmwares/fixedwing/main_fbw.o
                                                  /home/lionel/paparazziProto1/var/Colibri/ap/math/pprz_geodetic_double.o
                                                  /home/lionel/paparazziProto1/var/Colibri/ap/math/pprz_geodetic_float.o
                                                  /home/lionel/paparazziProto1/var/Colibri/ap/math/pprz_geodetic_int.o
__aeabi_i2f                                       /opt/paparazzi/arm-multilib/lib/gcc/arm-none-eabi/4.6.2/thumb/libgcc.a(_arm_addsubsf3.o)
                                                  /opt/paparazzi/arm-multilib/lib/gcc/arm-none-eabi/4.6.2/../../../../arm-none-eabi/lib/thumb/libm.a(lib_a-kf_tan.o)
                                                  /opt/paparazzi/arm-multilib/lib/gcc/arm-none-eabi/4.6.2/../../../../arm-none-eabi/lib/thumb/libm.a(lib_a-kf_rem_pio2.o)
                                                  /opt/paparazzi/arm-multilib/lib/gcc/arm-none-eabi/4.6.2/../../../../arm-none-eabi/lib/thumb/libm.a(lib_a-ef_rem_pio2.o)
                                                  /opt/paparazzi/arm-multilib/lib/gcc/arm-none-eabi/4.6.2/../../../../arm-none-eabi/lib/thumb/libm.a(lib_a-ef_pow.o)
                                                  /home/lionel/paparazziProto1/var/Colibri/ap/subsystems/sensors/infrared_adc.o
                                                  /home/lionel/paparazziProto1/var/Colibri/ap/subsystems/gps/gps_ubx.o
                                                  /home/lionel/paparazziProto1/var/Colibri/ap/firmwares/fixedwing/datalink.o
                                                  /home/lionel/paparazziProto1/var/Colibri/ap/subsystems/navigation/discsurvey.o
                                                  /home/lionel/paparazziProto1/var/Colibri/ap/subsystems/navigation/nav_cube.o
                                                  /home/lionel/paparazziProto1/var/Colibri/ap/subsystems/nav.o
                                                  /home/lionel/paparazziProto1/var/Colibri/ap/firmwares/fixedwing/stabilization/stabilization_attitude.o
                                                  /home/lionel/paparazziProto1/var/Colibri/ap/./estimator.o
                                                  /home/lionel/paparazziProto1/var/Colibri/ap/firmwares/fixedwing/main_ap.o
                                                  /home/lionel/paparazziProto1/var/Colibri/ap/firmwares/fixedwing/main_fbw.o
                                                  /home/lionel/paparazziProto1/var/Colibri/ap/math/pprz_geodetic_float.o
                                                  /home/lionel/paparazziProto1/var/Colibri/ap/math/pprz_geodetic_int.o
__aeabi_idiv                                      /opt/paparazzi/arm-multilib/lib/gcc/arm-none-eabi/4.6.2/thumb/libgcc.a(_divsi3.o)
                                                  /opt/paparazzi/arm-multilib/lib/gcc/arm-none-eabi/4.6.2/../../../../arm-none-eabi/lib/thumb/libm.a(lib_a-k_rem_pio2.o)
                                                  /home/lionel/paparazziProto1/var/Colibri/ap/subsystems/navigation/nav_cube.o
                                                  /home/lionel/paparazziProto1/var/Colibri/ap/firmwares/fixedwing/main_ap.o
                                                  /home/lionel/paparazziProto1/var/Colibri/ap/arch/lpc21/mcu_periph/i2c_arch.o
__aeabi_idiv0                                     /opt/paparazzi/arm-multilib/lib/gcc/arm-none-eabi/4.6.2/thumb/libgcc.a(_dvmd_tls.o)
                                                  /opt/paparazzi/arm-multilib/lib/gcc/arm-none-eabi/4.6.2/thumb/libgcc.a(_divsi3.o)
                                                  /opt/paparazzi/arm-multilib/lib/gcc/arm-none-eabi/4.6.2/thumb/libgcc.a(_udivsi3.o)
__aeabi_idivmod                                   /opt/paparazzi/arm-multilib/lib/gcc/arm-none-eabi/4.6.2/thumb/libgcc.a(_divsi3.o)
                                                  /home/lionel/paparazziProto1/var/Colibri/ap/subsystems/navigation/nav_cube.o
__aeabi_l2d                                       /opt/paparazzi/arm-multilib/lib/gcc/arm-none-eabi/4.6.2/thumb/libgcc.a(_arm_addsubdf3.o)
__aeabi_l2f                                       /opt/paparazzi/arm-multilib/lib/gcc/arm-none-eabi/4.6.2/thumb/libgcc.a(_arm_addsubsf3.o)
__aeabi_ldiv0                                     /opt/paparazzi/arm-multilib/lib/gcc/arm-none-eabi/4.6.2/thumb/libgcc.a(_dvmd_tls.o)
__aeabi_ui2d                                      /opt/paparazzi/arm-multilib/lib/gcc/arm-none-eabi/4.6.2/thumb/libgcc.a(_arm_addsubdf3.o)
                                                  /home/lionel/paparazziProto1/var/Colibri/ap/subsystems/gps/gps_ubx.o
                                                  /home/lionel/paparazziProto1/var/Colibri/ap/subsystems/navigation/snav.o
__aeabi_ui2f                                      /opt/paparazzi/arm-multilib/lib/gcc/arm-none-eabi/4.6.2/thumb/libgcc.a(_arm_addsubsf3.o)
                                                  /home/lionel/paparazziProto1/var/Colibri/ap/firmwares/fixedwing/datalink.o
                                                  /home/lionel/paparazziProto1/var/Colibri/ap/subsystems/nav.o
                                                  /home/lionel/paparazziProto1/var/Colibri/ap/firmwares/fixedwing/main_ap.o
                                                  /home/lionel/paparazziProto1/var/Colibri/ap/subsystems/electrical.o
__aeabi_uidiv                                     /opt/paparazzi/arm-multilib/lib/gcc/arm-none-eabi/4.6.2/thumb/libgcc.a(_udivsi3.o)
                                                  /home/lionel/paparazziProto1/var/Colibri/ap/subsystems/sensors/infrared_adc.o
                                                  /home/lionel/paparazziProto1/var/Colibri/ap/subsystems/electrical.o
__aeabi_uidivmod                                  /opt/paparazzi/arm-multilib/lib/gcc/arm-none-eabi/4.6.2/thumb/libgcc.a(_udivsi3.o)
__aeabi_ul2d                                      /opt/paparazzi/arm-multilib/lib/gcc/arm-none-eabi/4.6.2/thumb/libgcc.a(_arm_addsubdf3.o)
__aeabi_ul2f                                      /opt/paparazzi/arm-multilib/lib/gcc/arm-none-eabi/4.6.2/thumb/libgcc.a(_arm_addsubsf3.o)
__bss_end__                                       /home/lionel/paparazziProto1/var/Colibri/ap/crt0.o
__bss_start                                       /home/lionel/paparazziProto1/var/Colibri/ap/crt0.o
__cmpdf2                                          /opt/paparazzi/arm-multilib/lib/gcc/arm-none-eabi/4.6.2/thumb/libgcc.a(_arm_cmpdf2.o)
__cmpsf2                                          /opt/paparazzi/arm-multilib/lib/gcc/arm-none-eabi/4.6.2/thumb/libgcc.a(_arm_cmpsf2.o)
__ctors_end__                                     /home/lionel/paparazziProto1/var/Colibri/ap/crt0.o
__ctors_start__                                   /home/lionel/paparazziProto1/var/Colibri/ap/crt0.o
__divdf3                                          /opt/paparazzi/arm-multilib/lib/gcc/arm-none-eabi/4.6.2/thumb/libgcc.a(_arm_muldivdf3.o)
__divsf3                                          /opt/paparazzi/arm-multilib/lib/gcc/arm-none-eabi/4.6.2/thumb/libgcc.a(_arm_muldivsf3.o)
__divsi3                                          /opt/paparazzi/arm-multilib/lib/gcc/arm-none-eabi/4.6.2/thumb/libgcc.a(_divsi3.o)
__eqdf2                                           /opt/paparazzi/arm-multilib/lib/gcc/arm-none-eabi/4.6.2/thumb/libgcc.a(_arm_cmpdf2.o)
__eqsf2                                           /opt/paparazzi/arm-multilib/lib/gcc/arm-none-eabi/4.6.2/thumb/libgcc.a(_arm_cmpsf2.o)
__errno                                           /opt/paparazzi/arm-multilib/lib/gcc/arm-none-eabi/4.6.2/../../../../arm-none-eabi/lib/thumb/libc.a(lib_a-errno.o)
                                                  /opt/paparazzi/arm-multilib/lib/gcc/arm-none-eabi/4.6.2/../../../../arm-none-eabi/lib/thumb/libm.a(lib_a-wf_sqrt.o)
                                                  /opt/paparazzi/arm-multilib/lib/gcc/arm-none-eabi/4.6.2/../../../../arm-none-eabi/lib/thumb/libm.a(lib_a-wf_pow.o)
                                                  /opt/paparazzi/arm-multilib/lib/gcc/arm-none-eabi/4.6.2/../../../../arm-none-eabi/lib/thumb/libm.a(lib_a-w_sqrt.o)
                                                  /opt/paparazzi/arm-multilib/lib/gcc/arm-none-eabi/4.6.2/../../../../arm-none-eabi/lib/thumb/libm.a(lib_a-w_sinh.o)
                                                  /opt/paparazzi/arm-multilib/lib/gcc/arm-none-eabi/4.6.2/../../../../arm-none-eabi/lib/thumb/libm.a(lib_a-w_pow.o)
                                                  /opt/paparazzi/arm-multilib/lib/gcc/arm-none-eabi/4.6.2/../../../../arm-none-eabi/lib/thumb/libm.a(lib_a-w_log.o)
                                                  /opt/paparazzi/arm-multilib/lib/gcc/arm-none-eabi/4.6.2/../../../../arm-none-eabi/lib/thumb/libm.a(lib_a-w_exp.o)
                                                  /opt/paparazzi/arm-multilib/lib/gcc/arm-none-eabi/4.6.2/../../../../arm-none-eabi/lib/thumb/libm.a(lib_a-w_cosh.o)
                                                  /opt/paparazzi/arm-multilib/lib/gcc/arm-none-eabi/4.6.2/../../../../arm-none-eabi/lib/thumb/libm.a(lib_a-w_asin.o)
                                                  /opt/paparazzi/arm-multilib/lib/gcc/arm-none-eabi/4.6.2/../../../../arm-none-eabi/lib/thumb/libm.a(lib_a-w_acos.o)
__extendsfdf2                                     /opt/paparazzi/arm-multilib/lib/gcc/arm-none-eabi/4.6.2/thumb/libgcc.a(_arm_addsubdf3.o)
__fdlib_version                                   /opt/paparazzi/arm-multilib/lib/gcc/arm-none-eabi/4.6.2/../../../../arm-none-eabi/lib/thumb/libm.a(lib_a-s_lib_ver.o)
                                                  /opt/paparazzi/arm-multilib/lib/gcc/arm-none-eabi/4.6.2/../../../../arm-none-eabi/lib/thumb/libm.a(lib_a-wf_sqrt.o)
                                                  /opt/paparazzi/arm-multilib/lib/gcc/arm-none-eabi/4.6.2/../../../../arm-none-eabi/lib/thumb/libm.a(lib_a-wf_pow.o)
                                                  /opt/paparazzi/arm-multilib/lib/gcc/arm-none-eabi/4.6.2/../../../../arm-none-eabi/lib/thumb/libm.a(lib_a-w_sqrt.o)
                                                  /opt/paparazzi/arm-multilib/lib/gcc/arm-none-eabi/4.6.2/../../../../arm-none-eabi/lib/thumb/libm.a(lib_a-w_sinh.o)
                                                  /opt/paparazzi/arm-multilib/lib/gcc/arm-none-eabi/4.6.2/../../../../arm-none-eabi/lib/thumb/libm.a(lib_a-w_pow.o)
                                                  /opt/paparazzi/arm-multilib/lib/gcc/arm-none-eabi/4.6.2/../../../../arm-none-eabi/lib/thumb/libm.a(lib_a-w_log.o)
                                                  /opt/paparazzi/arm-multilib/lib/gcc/arm-none-eabi/4.6.2/../../../../arm-none-eabi/lib/thumb/libm.a(lib_a-w_exp.o)
                                                  /opt/paparazzi/arm-multilib/lib/gcc/arm-none-eabi/4.6.2/../../../../arm-none-eabi/lib/thumb/libm.a(lib_a-w_cosh.o)
                                                  /opt/paparazzi/arm-multilib/lib/gcc/arm-none-eabi/4.6.2/../../../../arm-none-eabi/lib/thumb/libm.a(lib_a-w_asin.o)
                                                  /opt/paparazzi/arm-multilib/lib/gcc/arm-none-eabi/4.6.2/../../../../arm-none-eabi/lib/thumb/libm.a(lib_a-w_acos.o)
__fixdfsi                                         /opt/paparazzi/arm-multilib/lib/gcc/arm-none-eabi/4.6.2/thumb/libgcc.a(_arm_fixdfsi.o)
__fixsfsi                                         /opt/paparazzi/arm-multilib/lib/gcc/arm-none-eabi/4.6.2/thumb/libgcc.a(_arm_fixsfsi.o)
__fixunsdfsi                                      /opt/paparazzi/arm-multilib/lib/gcc/arm-none-eabi/4.6.2/thumb/libgcc.a(_arm_fixunsdfsi.o)
__fixunssfsi                                      /opt/paparazzi/arm-multilib/lib/gcc/arm-none-eabi/4.6.2/thumb/libgcc.a(_arm_fixunssfsi.o)
__floatdidf                                       /opt/paparazzi/arm-multilib/lib/gcc/arm-none-eabi/4.6.2/thumb/libgcc.a(_arm_addsubdf3.o)
__floatdisf                                       /opt/paparazzi/arm-multilib/lib/gcc/arm-none-eabi/4.6.2/thumb/libgcc.a(_arm_addsubsf3.o)
__floatsidf                                       /opt/paparazzi/arm-multilib/lib/gcc/arm-none-eabi/4.6.2/thumb/libgcc.a(_arm_addsubdf3.o)
__floatsisf                                       /opt/paparazzi/arm-multilib/lib/gcc/arm-none-eabi/4.6.2/thumb/libgcc.a(_arm_addsubsf3.o)
__floatundidf                                     /opt/paparazzi/arm-multilib/lib/gcc/arm-none-eabi/4.6.2/thumb/libgcc.a(_arm_addsubdf3.o)
__floatundisf                                     /opt/paparazzi/arm-multilib/lib/gcc/arm-none-eabi/4.6.2/thumb/libgcc.a(_arm_addsubsf3.o)
__floatunsidf                                     /opt/paparazzi/arm-multilib/lib/gcc/arm-none-eabi/4.6.2/thumb/libgcc.a(_arm_addsubdf3.o)
__floatunsisf                                     /opt/paparazzi/arm-multilib/lib/gcc/arm-none-eabi/4.6.2/thumb/libgcc.a(_arm_addsubsf3.o)
__fpclassifyd                                     /opt/paparazzi/arm-multilib/lib/gcc/arm-none-eabi/4.6.2/../../../../arm-none-eabi/lib/thumb/libm.a(lib_a-s_fpclassify.o)
                                                  /opt/paparazzi/arm-multilib/lib/gcc/arm-none-eabi/4.6.2/../../../../arm-none-eabi/lib/thumb/libm.a(lib_a-w_sqrt.o)
                                                  /opt/paparazzi/arm-multilib/lib/gcc/arm-none-eabi/4.6.2/../../../../arm-none-eabi/lib/thumb/libm.a(lib_a-w_pow.o)
                                                  /opt/paparazzi/arm-multilib/lib/gcc/arm-none-eabi/4.6.2/../../../../arm-none-eabi/lib/thumb/libm.a(lib_a-w_log.o)
                                                  /opt/paparazzi/arm-multilib/lib/gcc/arm-none-eabi/4.6.2/../../../../arm-none-eabi/lib/thumb/libm.a(lib_a-w_cosh.o)
                                                  /opt/paparazzi/arm-multilib/lib/gcc/arm-none-eabi/4.6.2/../../../../arm-none-eabi/lib/thumb/libm.a(lib_a-w_asin.o)
                                                  /opt/paparazzi/arm-multilib/lib/gcc/arm-none-eabi/4.6.2/../../../../arm-none-eabi/lib/thumb/libm.a(lib_a-w_acos.o)
__fpclassifyf                                     /opt/paparazzi/arm-multilib/lib/gcc/arm-none-eabi/4.6.2/../../../../arm-none-eabi/lib/thumb/libm.a(lib_a-sf_fpclassify.o)
                                                  /opt/paparazzi/arm-multilib/lib/gcc/arm-none-eabi/4.6.2/../../../../arm-none-eabi/lib/thumb/libm.a(lib_a-wf_sqrt.o)
                                                  /opt/paparazzi/arm-multilib/lib/gcc/arm-none-eabi/4.6.2/../../../../arm-none-eabi/lib/thumb/libm.a(lib_a-wf_pow.o)
__gedf2                                           /opt/paparazzi/arm-multilib/lib/gcc/arm-none-eabi/4.6.2/thumb/libgcc.a(_arm_cmpdf2.o)
__gesf2                                           /opt/paparazzi/arm-multilib/lib/gcc/arm-none-eabi/4.6.2/thumb/libgcc.a(_arm_cmpsf2.o)
__gnu_thumb1_case_uqi                             /opt/paparazzi/arm-multilib/lib/gcc/arm-none-eabi/4.6.2/thumb/libgcc.a(_thumb1_case_uqi.o)
                                                  /opt/paparazzi/arm-multilib/lib/gcc/arm-none-eabi/4.6.2/../../../../arm-none-eabi/lib/thumb/libm.a(lib_a-kf_rem_pio2.o)
                                                  /opt/paparazzi/arm-multilib/lib/gcc/arm-none-eabi/4.6.2/../../../../arm-none-eabi/lib/thumb/libm.a(lib_a-k_rem_pio2.o)
                                                  /opt/paparazzi/arm-multilib/lib/gcc/arm-none-eabi/4.6.2/../../../../arm-none-eabi/lib/thumb/libm.a(lib_a-e_atan2.o)
__gtdf2                                           /opt/paparazzi/arm-multilib/lib/gcc/arm-none-eabi/4.6.2/thumb/libgcc.a(_arm_cmpdf2.o)
__gtsf2                                           /opt/paparazzi/arm-multilib/lib/gcc/arm-none-eabi/4.6.2/thumb/libgcc.a(_arm_cmpsf2.o)
__ieee754_acos                                    /opt/paparazzi/arm-multilib/lib/gcc/arm-none-eabi/4.6.2/../../../../arm-none-eabi/lib/thumb/libm.a(lib_a-e_acos.o)
                                                  /opt/paparazzi/arm-multilib/lib/gcc/arm-none-eabi/4.6.2/../../../../arm-none-eabi/lib/thumb/libm.a(lib_a-w_acos.o)
__ieee754_asin                                    /opt/paparazzi/arm-multilib/lib/gcc/arm-none-eabi/4.6.2/../../../../arm-none-eabi/lib/thumb/libm.a(lib_a-e_asin.o)
                                                  /opt/paparazzi/arm-multilib/lib/gcc/arm-none-eabi/4.6.2/../../../../arm-none-eabi/lib/thumb/libm.a(lib_a-w_asin.o)
__ieee754_atan2                                   /opt/paparazzi/arm-multilib/lib/gcc/arm-none-eabi/4.6.2/../../../../arm-none-eabi/lib/thumb/libm.a(lib_a-e_atan2.o)
                                                  /opt/paparazzi/arm-multilib/lib/gcc/arm-none-eabi/4.6.2/../../../../arm-none-eabi/lib/thumb/libm.a(lib_a-w_atan2.o)
__ieee754_atan2f                                  /opt/paparazzi/arm-multilib/lib/gcc/arm-none-eabi/4.6.2/../../../../arm-none-eabi/lib/thumb/libm.a(lib_a-ef_atan2.o)
                                                  /opt/paparazzi/arm-multilib/lib/gcc/arm-none-eabi/4.6.2/../../../../arm-none-eabi/lib/thumb/libm.a(lib_a-wf_atan2.o)
__ieee754_cosh                                    /opt/paparazzi/arm-multilib/lib/gcc/arm-none-eabi/4.6.2/../../../../arm-none-eabi/lib/thumb/libm.a(lib_a-e_cosh.o)
                                                  /opt/paparazzi/arm-multilib/lib/gcc/arm-none-eabi/4.6.2/../../../../arm-none-eabi/lib/thumb/libm.a(lib_a-w_cosh.o)
__ieee754_exp                                     /opt/paparazzi/arm-multilib/lib/gcc/arm-none-eabi/4.6.2/../../../../arm-none-eabi/lib/thumb/libm.a(lib_a-e_exp.o)
                                                  /opt/paparazzi/arm-multilib/lib/gcc/arm-none-eabi/4.6.2/../../../../arm-none-eabi/lib/thumb/libm.a(lib_a-e_sinh.o)
                                                  /opt/paparazzi/arm-multilib/lib/gcc/arm-none-eabi/4.6.2/../../../../arm-none-eabi/lib/thumb/libm.a(lib_a-e_cosh.o)
                                                  /opt/paparazzi/arm-multilib/lib/gcc/arm-none-eabi/4.6.2/../../../../arm-none-eabi/lib/thumb/libm.a(lib_a-w_exp.o)
__ieee754_log                                     /opt/paparazzi/arm-multilib/lib/gcc/arm-none-eabi/4.6.2/../../../../arm-none-eabi/lib/thumb/libm.a(lib_a-e_log.o)
                                                  /opt/paparazzi/arm-multilib/lib/gcc/arm-none-eabi/4.6.2/../../../../arm-none-eabi/lib/thumb/libm.a(lib_a-w_log.o)
__ieee754_pow                                     /opt/paparazzi/arm-multilib/lib/gcc/arm-none-eabi/4.6.2/../../../../arm-none-eabi/lib/thumb/libm.a(lib_a-e_pow.o)
                                                  /opt/paparazzi/arm-multilib/lib/gcc/arm-none-eabi/4.6.2/../../../../arm-none-eabi/lib/thumb/libm.a(lib_a-w_pow.o)
__ieee754_powf                                    /opt/paparazzi/arm-multilib/lib/gcc/arm-none-eabi/4.6.2/../../../../arm-none-eabi/lib/thumb/libm.a(lib_a-ef_pow.o)
                                                  /opt/paparazzi/arm-multilib/lib/gcc/arm-none-eabi/4.6.2/../../../../arm-none-eabi/lib/thumb/libm.a(lib_a-wf_pow.o)
__ieee754_rem_pio2                                /opt/paparazzi/arm-multilib/lib/gcc/arm-none-eabi/4.6.2/../../../../arm-none-eabi/lib/thumb/libm.a(lib_a-e_rem_pio2.o)
                                                  /opt/paparazzi/arm-multilib/lib/gcc/arm-none-eabi/4.6.2/../../../../arm-none-eabi/lib/thumb/libm.a(lib_a-s_tan.o)
                                                  /opt/paparazzi/arm-multilib/lib/gcc/arm-none-eabi/4.6.2/../../../../arm-none-eabi/lib/thumb/libm.a(lib_a-s_sin.o)
                                                  /opt/paparazzi/arm-multilib/lib/gcc/arm-none-eabi/4.6.2/../../../../arm-none-eabi/lib/thumb/libm.a(lib_a-s_cos.o)
__ieee754_rem_pio2f                               /opt/paparazzi/arm-multilib/lib/gcc/arm-none-eabi/4.6.2/../../../../arm-none-eabi/lib/thumb/libm.a(lib_a-ef_rem_pio2.o)
                                                  /opt/paparazzi/arm-multilib/lib/gcc/arm-none-eabi/4.6.2/../../../../arm-none-eabi/lib/thumb/libm.a(lib_a-sf_tan.o)
                                                  /opt/paparazzi/arm-multilib/lib/gcc/arm-none-eabi/4.6.2/../../../../arm-none-eabi/lib/thumb/libm.a(lib_a-sf_sin.o)
                                                  /opt/paparazzi/arm-multilib/lib/gcc/arm-none-eabi/4.6.2/../../../../arm-none-eabi/lib/thumb/libm.a(lib_a-sf_cos.o)
__ieee754_sinh                                    /opt/paparazzi/arm-multilib/lib/gcc/arm-none-eabi/4.6.2/../../../../arm-none-eabi/lib/thumb/libm.a(lib_a-e_sinh.o)
                                                  /opt/paparazzi/arm-multilib/lib/gcc/arm-none-eabi/4.6.2/../../../../arm-none-eabi/lib/thumb/libm.a(lib_a-w_sinh.o)
__ieee754_sqrt                                    /opt/paparazzi/arm-multilib/lib/gcc/arm-none-eabi/4.6.2/../../../../arm-none-eabi/lib/thumb/libm.a(lib_a-e_sqrt.o)
                                                  /opt/paparazzi/arm-multilib/lib/gcc/arm-none-eabi/4.6.2/../../../../arm-none-eabi/lib/thumb/libm.a(lib_a-e_pow.o)
                                                  /opt/paparazzi/arm-multilib/lib/gcc/arm-none-eabi/4.6.2/../../../../arm-none-eabi/lib/thumb/libm.a(lib_a-e_asin.o)
                                                  /opt/paparazzi/arm-multilib/lib/gcc/arm-none-eabi/4.6.2/../../../../arm-none-eabi/lib/thumb/libm.a(lib_a-e_acos.o)
                                                  /opt/paparazzi/arm-multilib/lib/gcc/arm-none-eabi/4.6.2/../../../../arm-none-eabi/lib/thumb/libm.a(lib_a-w_sqrt.o)
__ieee754_sqrtf                                   /opt/paparazzi/arm-multilib/lib/gcc/arm-none-eabi/4.6.2/../../../../arm-none-eabi/lib/thumb/libm.a(lib_a-ef_sqrt.o)
                                                  /opt/paparazzi/arm-multilib/lib/gcc/arm-none-eabi/4.6.2/../../../../arm-none-eabi/lib/thumb/libm.a(lib_a-ef_pow.o)
                                                  /opt/paparazzi/arm-multilib/lib/gcc/arm-none-eabi/4.6.2/../../../../arm-none-eabi/lib/thumb/libm.a(lib_a-wf_sqrt.o)
__kernel_cos                                      /opt/paparazzi/arm-multilib/lib/gcc/arm-none-eabi/4.6.2/../../../../arm-none-eabi/lib/thumb/libm.a(lib_a-k_cos.o)
                                                  /opt/paparazzi/arm-multilib/lib/gcc/arm-none-eabi/4.6.2/../../../../arm-none-eabi/lib/thumb/libm.a(lib_a-s_sin.o)
                                                  /opt/paparazzi/arm-multilib/lib/gcc/arm-none-eabi/4.6.2/../../../../arm-none-eabi/lib/thumb/libm.a(lib_a-s_cos.o)
__kernel_cosf                                     /opt/paparazzi/arm-multilib/lib/gcc/arm-none-eabi/4.6.2/../../../../arm-none-eabi/lib/thumb/libm.a(lib_a-kf_cos.o)
                                                  /opt/paparazzi/arm-multilib/lib/gcc/arm-none-eabi/4.6.2/../../../../arm-none-eabi/lib/thumb/libm.a(lib_a-sf_sin.o)
                                                  /opt/paparazzi/arm-multilib/lib/gcc/arm-none-eabi/4.6.2/../../../../arm-none-eabi/lib/thumb/libm.a(lib_a-sf_cos.o)
__kernel_rem_pio2                                 /opt/paparazzi/arm-multilib/lib/gcc/arm-none-eabi/4.6.2/../../../../arm-none-eabi/lib/thumb/libm.a(lib_a-k_rem_pio2.o)
                                                  /opt/paparazzi/arm-multilib/lib/gcc/arm-none-eabi/4.6.2/../../../../arm-none-eabi/lib/thumb/libm.a(lib_a-e_rem_pio2.o)
__kernel_rem_pio2f                                /opt/paparazzi/arm-multilib/lib/gcc/arm-none-eabi/4.6.2/../../../../arm-none-eabi/lib/thumb/libm.a(lib_a-kf_rem_pio2.o)
                                                  /opt/paparazzi/arm-multilib/lib/gcc/arm-none-eabi/4.6.2/../../../../arm-none-eabi/lib/thumb/libm.a(lib_a-ef_rem_pio2.o)
__kernel_sin                                      /opt/paparazzi/arm-multilib/lib/gcc/arm-none-eabi/4.6.2/../../../../arm-none-eabi/lib/thumb/libm.a(lib_a-k_sin.o)
                                                  /opt/paparazzi/arm-multilib/lib/gcc/arm-none-eabi/4.6.2/../../../../arm-none-eabi/lib/thumb/libm.a(lib_a-s_sin.o)
                                                  /opt/paparazzi/arm-multilib/lib/gcc/arm-none-eabi/4.6.2/../../../../arm-none-eabi/lib/thumb/libm.a(lib_a-s_cos.o)
__kernel_sinf                                     /opt/paparazzi/arm-multilib/lib/gcc/arm-none-eabi/4.6.2/../../../../arm-none-eabi/lib/thumb/libm.a(lib_a-kf_sin.o)
                                                  /opt/paparazzi/arm-multilib/lib/gcc/arm-none-eabi/4.6.2/../../../../arm-none-eabi/lib/thumb/libm.a(lib_a-sf_sin.o)
                                                  /opt/paparazzi/arm-multilib/lib/gcc/arm-none-eabi/4.6.2/../../../../arm-none-eabi/lib/thumb/libm.a(lib_a-sf_cos.o)
__kernel_tan                                      /opt/paparazzi/arm-multilib/lib/gcc/arm-none-eabi/4.6.2/../../../../arm-none-eabi/lib/thumb/libm.a(lib_a-k_tan.o)
                                                  /opt/paparazzi/arm-multilib/lib/gcc/arm-none-eabi/4.6.2/../../../../arm-none-eabi/lib/thumb/libm.a(lib_a-s_tan.o)
__kernel_tanf                                     /opt/paparazzi/arm-multilib/lib/gcc/arm-none-eabi/4.6.2/../../../../arm-none-eabi/lib/thumb/libm.a(lib_a-kf_tan.o)
                                                  /opt/paparazzi/arm-multilib/lib/gcc/arm-none-eabi/4.6.2/../../../../arm-none-eabi/lib/thumb/libm.a(lib_a-sf_tan.o)
__ledf2                                           /opt/paparazzi/arm-multilib/lib/gcc/arm-none-eabi/4.6.2/thumb/libgcc.a(_arm_cmpdf2.o)
__lesf2                                           /opt/paparazzi/arm-multilib/lib/gcc/arm-none-eabi/4.6.2/thumb/libgcc.a(_arm_cmpsf2.o)
__ltdf2                                           /opt/paparazzi/arm-multilib/lib/gcc/arm-none-eabi/4.6.2/thumb/libgcc.a(_arm_cmpdf2.o)
__ltsf2                                           /opt/paparazzi/arm-multilib/lib/gcc/arm-none-eabi/4.6.2/thumb/libgcc.a(_arm_cmpsf2.o)
__muldf3                                          /opt/paparazzi/arm-multilib/lib/gcc/arm-none-eabi/4.6.2/thumb/libgcc.a(_arm_muldivdf3.o)
__mulsf3                                          /opt/paparazzi/arm-multilib/lib/gcc/arm-none-eabi/4.6.2/thumb/libgcc.a(_arm_muldivsf3.o)
__nedf2                                           /opt/paparazzi/arm-multilib/lib/gcc/arm-none-eabi/4.6.2/thumb/libgcc.a(_arm_cmpdf2.o)
__nesf2                                           /opt/paparazzi/arm-multilib/lib/gcc/arm-none-eabi/4.6.2/thumb/libgcc.a(_arm_cmpsf2.o)
__subdf3                                          /opt/paparazzi/arm-multilib/lib/gcc/arm-none-eabi/4.6.2/thumb/libgcc.a(_arm_addsubdf3.o)
__subsf3                                          /opt/paparazzi/arm-multilib/lib/gcc/arm-none-eabi/4.6.2/thumb/libgcc.a(_arm_addsubsf3.o)
__truncdfsf2                                      /opt/paparazzi/arm-multilib/lib/gcc/arm-none-eabi/4.6.2/thumb/libgcc.a(_arm_truncdfsf2.o)
__udivsi3                                         /opt/paparazzi/arm-multilib/lib/gcc/arm-none-eabi/4.6.2/thumb/libgcc.a(_udivsi3.o)
_boot                                             /home/lionel/paparazziProto1/var/Colibri/ap/crt0.o
_data                                             /home/lionel/paparazziProto1/var/Colibri/ap/crt0.o
_edata                                            /home/lionel/paparazziProto1/var/Colibri/ap/crt0.o
_etext                                            /home/lionel/paparazziProto1/var/Colibri/ap/crt0.o
_global_impure_ptr                                /opt/paparazzi/arm-multilib/lib/gcc/arm-none-eabi/4.6.2/../../../../arm-none-eabi/lib/thumb/libc.a(lib_a-impure.o)
_impure_ptr                                       /opt/paparazzi/arm-multilib/lib/gcc/arm-none-eabi/4.6.2/../../../../arm-none-eabi/lib/thumb/libc.a(lib_a-impure.o)
                                                  /opt/paparazzi/arm-multilib/lib/gcc/arm-none-eabi/4.6.2/../../../../arm-none-eabi/lib/thumb/libc.a(lib_a-errno.o)
_mainCRTStartup                                   /home/lionel/paparazziProto1/var/Colibri/ap/crt0.o
_reset                                            /home/lionel/paparazziProto1/var/Colibri/ap/crt0.o
_stack                                            /home/lionel/paparazziProto1/var/Colibri/ap/crt0.o
_start                                            /home/lionel/paparazziProto1/var/Colibri/ap/crt0.o
abort                                             /home/lionel/paparazziProto1/var/Colibri/ap/crt0.o
acos                                              /opt/paparazzi/arm-multilib/lib/gcc/arm-none-eabi/4.6.2/../../../../arm-none-eabi/lib/thumb/libm.a(lib_a-w_acos.o)
                                                  /home/lionel/paparazziProto1/var/Colibri/ap/subsystems/navigation/snav.o
acs_idx                                           /home/lionel/paparazziProto1/var/Colibri/ap/firmwares/fixedwing/datalink.o
                                                  /home/lionel/paparazziProto1/var/Colibri/ap/subsystems/navigation/traffic_info.o
actuators                                         /home/lionel/paparazziProto1/var/Colibri/ap/actuators.o
                                                  /home/lionel/paparazziProto1/var/Colibri/ap/firmwares/fixedwing/main_fbw.o
actuators_init                                    /home/lionel/paparazziProto1/var/Colibri/ap/arch/lpc21/servos_4017_hw.o
                                                  /home/lionel/paparazziProto1/var/Colibri/ap/firmwares/fixedwing/main_fbw.o
adc0_val                                          /home/lionel/paparazziProto1/var/Colibri/ap/arch/lpc21/mcu_periph/adc_arch.o
adc1_val                                          /home/lionel/paparazziProto1/var/Colibri/ap/arch/lpc21/mcu_periph/adc_arch.o
adcISR0                                           /home/lionel/paparazziProto1/var/Colibri/ap/arch/lpc21/mcu_periph/adc_arch.o
adcISR1                                           /home/lionel/paparazziProto1/var/Colibri/ap/arch/lpc21/mcu_periph/adc_arch.o
adc_buf_channel                                   /home/lionel/paparazziProto1/var/Colibri/ap/arch/lpc21/mcu_periph/adc_arch.o
                                                  /home/lionel/paparazziProto1/var/Colibri/ap/subsystems/sensors/infrared_adc.o
                                                  /home/lionel/paparazziProto1/var/Colibri/ap/subsystems/electrical.o
adc_init                                          /home/lionel/paparazziProto1/var/Colibri/ap/arch/lpc21/mcu_periph/adc_arch.o
                                                  /home/lionel/paparazziProto1/var/Colibri/ap/mcu.o
ahrs                                              /home/lionel/paparazziProto1/var/Colibri/ap/subsystems/ahrs/ahrs_infrared.o
                                                  /home/lionel/paparazziProto1/var/Colibri/ap/subsystems/ahrs.o
ahrs_align                                        /home/lionel/paparazziProto1/var/Colibri/ap/subsystems/ahrs/ahrs_infrared.o
ahrs_float                                        /home/lionel/paparazziProto1/var/Colibri/ap/subsystems/ahrs/ahrs_infrared.o
                                                  /home/lionel/paparazziProto1/var/Colibri/ap/subsystems/ahrs.o
ahrs_init                                         /home/lionel/paparazziProto1/var/Colibri/ap/subsystems/ahrs/ahrs_infrared.o
                                                  /home/lionel/paparazziProto1/var/Colibri/ap/firmwares/fixedwing/main_ap.o
ahrs_mag_offset                                   /home/lionel/paparazziProto1/var/Colibri/ap/subsystems/ahrs.o
ahrs_propagate                                    /home/lionel/paparazziProto1/var/Colibri/ap/subsystems/ahrs/ahrs_infrared.o
ahrs_update_accel                                 /home/lionel/paparazziProto1/var/Colibri/ap/subsystems/ahrs/ahrs_infrared.o
ahrs_update_fw_estimator                          /home/lionel/paparazziProto1/var/Colibri/ap/subsystems/ahrs/ahrs_infrared.o
ahrs_update_gps                                   /home/lionel/paparazziProto1/var/Colibri/ap/subsystems/ahrs/ahrs_infrared.o
                                                  /home/lionel/paparazziProto1/var/Colibri/ap/firmwares/fixedwing/main_ap.o
ahrs_update_infrared                              /home/lionel/paparazziProto1/var/Colibri/ap/subsystems/ahrs/ahrs_infrared.o
                                                  /home/lionel/paparazziProto1/var/Colibri/ap/firmwares/fixedwing/main_ap.o
ahrs_update_mag                                   /home/lionel/paparazziProto1/var/Colibri/ap/subsystems/ahrs/ahrs_infrared.o
alt_kalman                                        /home/lionel/paparazziProto1/var/Colibri/ap/./estimator.o
alt_kalman_enabled                                /home/lionel/paparazziProto1/var/Colibri/ap/./estimator.o
alt_kalman_init                                   /home/lionel/paparazziProto1/var/Colibri/ap/./estimator.o
                                                  /home/lionel/paparazziProto1/var/Colibri/ap/firmwares/fixedwing/main_ap.o
alt_kalman_reset                                  /home/lionel/paparazziProto1/var/Colibri/ap/./estimator.o
ap_ok                                             /home/lionel/paparazziProto1/var/Colibri/ap/firmwares/fixedwing/main_fbw.o
                                                  /home/lionel/paparazziProto1/var/Colibri/ap/./inter_mcu.o
ap_state                                          /home/lionel/paparazziProto1/var/Colibri/ap/./inter_mcu.o
                                                  /home/lionel/paparazziProto1/var/Colibri/ap/firmwares/fixedwing/main_ap.o
                                                  /home/lionel/paparazziProto1/var/Colibri/ap/firmwares/fixedwing/main_fbw.o
app_angle                                         /home/lionel/paparazziProto1/var/Colibri/ap/subsystems/navigation/gls.o
app_intercept_af_tod                              /home/lionel/paparazziProto1/var/Colibri/ap/subsystems/navigation/gls.o
asin                                              /opt/paparazzi/arm-multilib/lib/gcc/arm-none-eabi/4.6.2/../../../../arm-none-eabi/lib/thumb/libm.a(lib_a-w_asin.o)
                                                  /home/lionel/paparazziProto1/var/Colibri/ap/subsystems/navigation/spiral.o
                                                  /home/lionel/paparazziProto1/var/Colibri/ap/math/pprz_geodetic_double.o
                                                  /home/lionel/paparazziProto1/var/Colibri/ap/math/pprz_geodetic_float.o
atan                                              /opt/paparazzi/arm-multilib/lib/gcc/arm-none-eabi/4.6.2/../../../../arm-none-eabi/lib/thumb/libm.a(lib_a-s_atan.o)
                                                  /opt/paparazzi/arm-multilib/lib/gcc/arm-none-eabi/4.6.2/../../../../arm-none-eabi/lib/thumb/libm.a(lib_a-e_atan2.o)
                                                  /home/lionel/paparazziProto1/var/Colibri/ap/subsystems/nav.o
                                                  /home/lionel/paparazziProto1/var/Colibri/ap/math/pprz_geodetic_double.o
                                                  /home/lionel/paparazziProto1/var/Colibri/ap/math/pprz_geodetic_float.o
atan2                                             /opt/paparazzi/arm-multilib/lib/gcc/arm-none-eabi/4.6.2/../../../../arm-none-eabi/lib/thumb/libm.a(lib_a-w_atan2.o)
                                                  /home/lionel/paparazziProto1/var/Colibri/ap/subsystems/ahrs/ahrs_infrared.o
                                                  /home/lionel/paparazziProto1/var/Colibri/ap/subsystems/navigation/border_line.o
                                                  /home/lionel/paparazziProto1/var/Colibri/ap/subsystems/navigation/snav.o
                                                  /home/lionel/paparazziProto1/var/Colibri/ap/subsystems/navigation/OSAMNav.o
                                                  /home/lionel/paparazziProto1/var/Colibri/ap/subsystems/navigation/discsurvey.o
                                                  /home/lionel/paparazziProto1/var/Colibri/ap/subsystems/navigation/nav_line.o
                                                  /home/lionel/paparazziProto1/var/Colibri/ap/subsystems/nav.o
                                                  /home/lionel/paparazziProto1/var/Colibri/ap/math/pprz_geodetic_double.o
atan2f                                            /opt/paparazzi/arm-multilib/lib/gcc/arm-none-eabi/4.6.2/../../../../arm-none-eabi/lib/thumb/libm.a(lib_a-wf_atan2.o)
                                                  /home/lionel/paparazziProto1/var/Colibri/ap/subsystems/ahrs/ahrs_infrared.o
                                                  /home/lionel/paparazziProto1/var/Colibri/ap/math/pprz_geodetic_float.o
atanf                                             /opt/paparazzi/arm-multilib/lib/gcc/arm-none-eabi/4.6.2/../../../../arm-none-eabi/lib/thumb/libm.a(lib_a-sf_atan.o)
                                                  /opt/paparazzi/arm-multilib/lib/gcc/arm-none-eabi/4.6.2/../../../../arm-none-eabi/lib/thumb/libm.a(lib_a-ef_atan2.o)
                                                  /home/lionel/paparazziProto1/var/Colibri/ap/math/pprz_geodetic_float.o
attitude_loop                                     /home/lionel/paparazziProto1/var/Colibri/ap/firmwares/fixedwing/main_ap.o
attitude_tid                                      /home/lionel/paparazziProto1/var/Colibri/ap/firmwares/fixedwing/main_ap.o
block_time                                        /home/lionel/paparazziProto1/var/Colibri/ap/subsystems/navigation/common_flight_plan.o
                                                  /home/lionel/paparazziProto1/var/Colibri/ap/subsystems/nav.o
                                                  /home/lionel/paparazziProto1/var/Colibri/ap/firmwares/fixedwing/main_ap.o
border_line                                       /home/lionel/paparazziProto1/var/Colibri/ap/subsystems/navigation/border_line.o
border_line_init                                  /home/lionel/paparazziProto1/var/Colibri/ap/subsystems/navigation/border_line.o
carrot_x                                          /home/lionel/paparazziProto1/var/Colibri/ap/subsystems/nav.o
carrot_y                                          /home/lionel/paparazziProto1/var/Colibri/ap/subsystems/nav.o
circle_bank                                       /home/lionel/paparazziProto1/var/Colibri/ap/subsystems/nav.o
ck_a                                              /home/lionel/paparazziProto1/var/Colibri/ap/firmwares/fixedwing/datalink.o
                                                  /home/lionel/paparazziProto1/var/Colibri/ap/subsystems/datalink/pprz_transport.o
                                                  /home/lionel/paparazziProto1/var/Colibri/ap/firmwares/fixedwing/main_ap.o
                                                  /home/lionel/paparazziProto1/var/Colibri/ap/firmwares/fixedwing/main_fbw.o
ck_b                                              /home/lionel/paparazziProto1/var/Colibri/ap/firmwares/fixedwing/datalink.o
                                                  /home/lionel/paparazziProto1/var/Colibri/ap/subsystems/datalink/pprz_transport.o
                                                  /home/lionel/paparazziProto1/var/Colibri/ap/firmwares/fixedwing/main_ap.o
                                                  /home/lionel/paparazziProto1/var/Colibri/ap/firmwares/fixedwing/main_fbw.o
combi_switch_status                               /home/lionel/paparazziProto1/var/Colibri/ap/firmwares/fixedwing/main_ap.o
combi_switch_value                                /home/lionel/paparazziProto1/var/Colibri/ap/firmwares/fixedwing/main_ap.o
command_pitch_trim                                /home/lionel/paparazziProto1/var/Colibri/ap/./commands.o
                                                  /home/lionel/paparazziProto1/var/Colibri/ap/firmwares/fixedwing/main_fbw.o
command_roll_trim                                 /home/lionel/paparazziProto1/var/Colibri/ap/./commands.o
                                                  /home/lionel/paparazziProto1/var/Colibri/ap/firmwares/fixedwing/main_fbw.o
commands                                          /home/lionel/paparazziProto1/var/Colibri/ap/./commands.o
                                                  /home/lionel/paparazziProto1/var/Colibri/ap/firmwares/fixedwing/main_fbw.o
commands_failsafe                                 /home/lionel/paparazziProto1/var/Colibri/ap/./commands.o
                                                  /home/lionel/paparazziProto1/var/Colibri/ap/firmwares/fixedwing/main_fbw.o
common_nav_periodic_task_4Hz                      /home/lionel/paparazziProto1/var/Colibri/ap/subsystems/nav.o
                                                  /home/lionel/paparazziProto1/var/Colibri/ap/firmwares/fixedwing/main_ap.o
compute_dist2_to_home                             /home/lionel/paparazziProto1/var/Colibri/ap/subsystems/nav.o
copysign                                          /opt/paparazzi/arm-multilib/lib/gcc/arm-none-eabi/4.6.2/../../../../arm-none-eabi/lib/thumb/libm.a(lib_a-s_copysign.o)
                                                  /opt/paparazzi/arm-multilib/lib/gcc/arm-none-eabi/4.6.2/../../../../arm-none-eabi/lib/thumb/libm.a(lib_a-s_scalbn.o)
copysignf                                         /opt/paparazzi/arm-multilib/lib/gcc/arm-none-eabi/4.6.2/../../../../arm-none-eabi/lib/thumb/libm.a(lib_a-sf_copysign.o)
                                                  /opt/paparazzi/arm-multilib/lib/gcc/arm-none-eabi/4.6.2/../../../../arm-none-eabi/lib/thumb/libm.a(lib_a-sf_scalbn.o)
cos                                               /opt/paparazzi/arm-multilib/lib/gcc/arm-none-eabi/4.6.2/../../../../arm-none-eabi/lib/thumb/libm.a(lib_a-s_cos.o)
                                                  /home/lionel/paparazziProto1/var/Colibri/ap/subsystems/navigation/border_line.o
                                                  /home/lionel/paparazziProto1/var/Colibri/ap/subsystems/navigation/snav.o
                                                  /home/lionel/paparazziProto1/var/Colibri/ap/subsystems/navigation/OSAMNav.o
                                                  /home/lionel/paparazziProto1/var/Colibri/ap/subsystems/navigation/discsurvey.o
                                                  /home/lionel/paparazziProto1/var/Colibri/ap/subsystems/navigation/nav_cube.o
                                                  /home/lionel/paparazziProto1/var/Colibri/ap/subsystems/nav.o
                                                  /home/lionel/paparazziProto1/var/Colibri/ap/math/pprz_geodetic_double.o
                                                  /home/lionel/paparazziProto1/var/Colibri/ap/math/pprz_geodetic_float.o
cosf                                              /opt/paparazzi/arm-multilib/lib/gcc/arm-none-eabi/4.6.2/../../../../arm-none-eabi/lib/thumb/libm.a(lib_a-sf_cos.o)
                                                  /home/lionel/paparazziProto1/var/Colibri/ap/subsystems/ahrs/ahrs_infrared.o
                                                  /home/lionel/paparazziProto1/var/Colibri/ap/math/pprz_geodetic_double.o
                                                  /home/lionel/paparazziProto1/var/Colibri/ap/math/pprz_geodetic_float.o
                                                  /home/lionel/paparazziProto1/var/Colibri/ap/math/pprz_geodetic_int.o
cosh                                              /opt/paparazzi/arm-multilib/lib/gcc/arm-none-eabi/4.6.2/../../../../arm-none-eabi/lib/thumb/libm.a(lib_a-w_cosh.o)
                                                  /home/lionel/paparazziProto1/var/Colibri/ap/math/pprz_geodetic_double.o
                                                  /home/lionel/paparazziProto1/var/Colibri/ap/math/pprz_geodetic_float.o
cube_alpha                                        /home/lionel/paparazziProto1/var/Colibri/ap/subsystems/navigation/nav_cube.o
cube_grid_x                                       /home/lionel/paparazziProto1/var/Colibri/ap/subsystems/navigation/nav_cube.o
cube_grid_z                                       /home/lionel/paparazziProto1/var/Colibri/ap/subsystems/navigation/nav_cube.o
cube_nline_x                                      /home/lionel/paparazziProto1/var/Colibri/ap/subsystems/navigation/nav_cube.o
cube_nline_z                                      /home/lionel/paparazziProto1/var/Colibri/ap/subsystems/navigation/nav_cube.o
cube_nsect_x                                      /home/lionel/paparazziProto1/var/Colibri/ap/subsystems/navigation/nav_cube.o
cube_nsect_z                                      /home/lionel/paparazziProto1/var/Colibri/ap/subsystems/navigation/nav_cube.o
cube_offs_x                                       /home/lionel/paparazziProto1/var/Colibri/ap/subsystems/navigation/nav_cube.o
cube_offs_y                                       /home/lionel/paparazziProto1/var/Colibri/ap/subsystems/navigation/nav_cube.o
cube_offs_z                                       /home/lionel/paparazziProto1/var/Colibri/ap/subsystems/navigation/nav_cube.o
cube_sect                                         /home/lionel/paparazziProto1/var/Colibri/ap/subsystems/navigation/nav_cube.o
cube_size_x                                       /home/lionel/paparazziProto1/var/Colibri/ap/subsystems/navigation/nav_cube.o
cube_size_y                                       /home/lionel/paparazziProto1/var/Colibri/ap/subsystems/navigation/nav_cube.o
cube_size_z                                       /home/lionel/paparazziProto1/var/Colibri/ap/subsystems/navigation/nav_cube.o
datalink_time                                     /home/lionel/paparazziProto1/var/Colibri/ap/firmwares/fixedwing/datalink.o
                                                  /home/lionel/paparazziProto1/var/Colibri/ap/firmwares/fixedwing/main_ap.o
desired_x                                         /home/lionel/paparazziProto1/var/Colibri/ap/subsystems/nav.o
                                                  /home/lionel/paparazziProto1/var/Colibri/ap/firmwares/fixedwing/main_ap.o
desired_y                                         /home/lionel/paparazziProto1/var/Colibri/ap/subsystems/nav.o
                                                  /home/lionel/paparazziProto1/var/Colibri/ap/firmwares/fixedwing/main_ap.o
dir_vec                                           /home/lionel/paparazziProto1/var/Colibri/ap/subsystems/navigation/poly_survey_adv.o
disableFIQ                                        /home/lionel/paparazziProto1/var/Colibri/ap/arch/lpc21/armVIC.o
disableIRQ                                        /home/lionel/paparazziProto1/var/Colibri/ap/arch/lpc21/armVIC.o
                                                  /home/lionel/paparazziProto1/var/Colibri/ap/arch/lpc21/subsystems/settings_arch.o
                                                  /home/lionel/paparazziProto1/var/Colibri/ap/arch/lpc21/mcu_periph/uart_arch.o
                                                  /home/lionel/paparazziProto1/var/Colibri/ap/arch/lpc21/mcu_periph/i2c_arch.o
                                                  /home/lionel/paparazziProto1/var/Colibri/ap/mcu_periph/sys_time.o
disc_survey                                       /home/lionel/paparazziProto1/var/Colibri/ap/subsystems/navigation/discsurvey.o
disc_survey_init                                  /home/lionel/paparazziProto1/var/Colibri/ap/subsystems/navigation/discsurvey.o
dist2_to_home                                     /home/lionel/paparazziProto1/var/Colibri/ap/firmwares/fixedwing/datalink.o
                                                  /home/lionel/paparazziProto1/var/Colibri/ap/subsystems/nav.o
                                                  /home/lionel/paparazziProto1/var/Colibri/ap/firmwares/fixedwing/main_ap.o
dist2_to_wp                                       /home/lionel/paparazziProto1/var/Colibri/ap/firmwares/fixedwing/datalink.o
                                                  /home/lionel/paparazziProto1/var/Colibri/ap/subsystems/nav.o
                                                  /home/lionel/paparazziProto1/var/Colibri/ap/firmwares/fixedwing/main_ap.o
dl_buffer                                         /home/lionel/paparazziProto1/var/Colibri/ap/firmwares/fixedwing/datalink.o
                                                  /home/lionel/paparazziProto1/var/Colibri/ap/firmwares/fixedwing/main_ap.o
dl_msg_available                                  /home/lionel/paparazziProto1/var/Colibri/ap/firmwares/fixedwing/datalink.o
                                                  /home/lionel/paparazziProto1/var/Colibri/ap/firmwares/fixedwing/main_ap.o
dl_parse_msg                                      /home/lionel/paparazziProto1/var/Colibri/ap/firmwares/fixedwing/datalink.o
                                                  /home/lionel/paparazziProto1/var/Colibri/ap/firmwares/fixedwing/main_ap.o
downlink_nb_bytes                                 /home/lionel/paparazziProto1/var/Colibri/ap/firmwares/fixedwing/datalink.o
                                                  /home/lionel/paparazziProto1/var/Colibri/ap/subsystems/datalink/downlink.o
                                                  /home/lionel/paparazziProto1/var/Colibri/ap/firmwares/fixedwing/main_ap.o
                                                  /home/lionel/paparazziProto1/var/Colibri/ap/firmwares/fixedwing/main_fbw.o
downlink_nb_msgs                                  /home/lionel/paparazziProto1/var/Colibri/ap/firmwares/fixedwing/datalink.o
                                                  /home/lionel/paparazziProto1/var/Colibri/ap/subsystems/datalink/downlink.o
                                                  /home/lionel/paparazziProto1/var/Colibri/ap/firmwares/fixedwing/main_ap.o
                                                  /home/lionel/paparazziProto1/var/Colibri/ap/firmwares/fixedwing/main_fbw.o
downlink_nb_ovrn                                  /home/lionel/paparazziProto1/var/Colibri/ap/firmwares/fixedwing/datalink.o
                                                  /home/lionel/paparazziProto1/var/Colibri/ap/subsystems/datalink/downlink.o
                                                  /home/lionel/paparazziProto1/var/Colibri/ap/firmwares/fixedwing/main_ap.o
                                                  /home/lionel/paparazziProto1/var/Colibri/ap/firmwares/fixedwing/main_fbw.o
ecef_of_enu_point_d                               /home/lionel/paparazziProto1/var/Colibri/ap/math/pprz_geodetic_double.o
ecef_of_enu_point_f                               /home/lionel/paparazziProto1/var/Colibri/ap/math/pprz_geodetic_float.o
ecef_of_enu_point_i                               /home/lionel/paparazziProto1/var/Colibri/ap/math/pprz_geodetic_int.o
ecef_of_enu_vect_d                                /home/lionel/paparazziProto1/var/Colibri/ap/math/pprz_geodetic_double.o
ecef_of_enu_vect_f                                /home/lionel/paparazziProto1/var/Colibri/ap/math/pprz_geodetic_float.o
ecef_of_enu_vect_i                                /home/lionel/paparazziProto1/var/Colibri/ap/math/pprz_geodetic_int.o
ecef_of_lla_d                                     /home/lionel/paparazziProto1/var/Colibri/ap/math/pprz_geodetic_double.o
                                                  /home/lionel/paparazziProto1/var/Colibri/ap/math/pprz_geodetic_int.o
ecef_of_lla_f                                     /home/lionel/paparazziProto1/var/Colibri/ap/math/pprz_geodetic_float.o
ecef_of_lla_i                                     /home/lionel/paparazziProto1/var/Colibri/ap/math/pprz_geodetic_int.o
ecef_of_ned_point_d                               /home/lionel/paparazziProto1/var/Colibri/ap/math/pprz_geodetic_double.o
ecef_of_ned_point_f                               /home/lionel/paparazziProto1/var/Colibri/ap/math/pprz_geodetic_float.o
ecef_of_ned_point_i                               /home/lionel/paparazziProto1/var/Colibri/ap/math/pprz_geodetic_int.o
ecef_of_ned_vect_d                                /home/lionel/paparazziProto1/var/Colibri/ap/math/pprz_geodetic_double.o
ecef_of_ned_vect_f                                /home/lionel/paparazziProto1/var/Colibri/ap/math/pprz_geodetic_float.o
ecef_of_ned_vect_i                                /home/lionel/paparazziProto1/var/Colibri/ap/math/pprz_geodetic_int.o
electrical                                        /home/lionel/paparazziProto1/var/Colibri/ap/firmwares/fixedwing/main_ap.o
                                                  /home/lionel/paparazziProto1/var/Colibri/ap/subsystems/electrical.o
                                                  /home/lionel/paparazziProto1/var/Colibri/ap/firmwares/fixedwing/main_fbw.o
electrical_init                                   /home/lionel/paparazziProto1/var/Colibri/ap/subsystems/electrical.o
                                                  /home/lionel/paparazziProto1/var/Colibri/ap/firmwares/fixedwing/main_fbw.o
electrical_periodic                               /home/lionel/paparazziProto1/var/Colibri/ap/subsystems/electrical.o
                                                  /home/lionel/paparazziProto1/var/Colibri/ap/firmwares/fixedwing/main_fbw.o
electrical_tid                                    /home/lionel/paparazziProto1/var/Colibri/ap/firmwares/fixedwing/main_fbw.o
enableFIQ                                         /home/lionel/paparazziProto1/var/Colibri/ap/arch/lpc21/armVIC.o
enableIRQ                                         /home/lionel/paparazziProto1/var/Colibri/ap/arch/lpc21/armVIC.o
                                                  /home/lionel/paparazziProto1/var/Colibri/ap/arch/lpc21/subsystems/settings_arch.o
                                                  /home/lionel/paparazziProto1/var/Colibri/ap/firmwares/fixedwing/main_ap.o
                                                  /home/lionel/paparazziProto1/var/Colibri/ap/arch/lpc21/mcu_periph/i2c_arch.o
                                                  /home/lionel/paparazziProto1/var/Colibri/ap/mcu_periph/sys_time.o
energy                                            /home/lionel/paparazziProto1/var/Colibri/ap/firmwares/fixedwing/main_ap.o
entry_center                                      /home/lionel/paparazziProto1/var/Colibri/ap/subsystems/navigation/poly_survey_adv.o
enu_of_ecef_point_d                               /home/lionel/paparazziProto1/var/Colibri/ap/math/pprz_geodetic_double.o
enu_of_ecef_point_f                               /home/lionel/paparazziProto1/var/Colibri/ap/math/pprz_geodetic_float.o
enu_of_ecef_point_i                               /home/lionel/paparazziProto1/var/Colibri/ap/math/pprz_geodetic_int.o
enu_of_ecef_vect_d                                /home/lionel/paparazziProto1/var/Colibri/ap/math/pprz_geodetic_double.o
enu_of_ecef_vect_f                                /home/lionel/paparazziProto1/var/Colibri/ap/math/pprz_geodetic_float.o
enu_of_ecef_vect_i                                /home/lionel/paparazziProto1/var/Colibri/ap/math/pprz_geodetic_int.o
enu_of_lla_point_f                                /home/lionel/paparazziProto1/var/Colibri/ap/math/pprz_geodetic_float.o
enu_of_lla_point_i                                /home/lionel/paparazziProto1/var/Colibri/ap/math/pprz_geodetic_int.o
enu_of_lla_vect_i                                 /home/lionel/paparazziProto1/var/Colibri/ap/math/pprz_geodetic_int.o
estimator_AOA                                     /home/lionel/paparazziProto1/var/Colibri/ap/./estimator.o
estimator_airspeed                                /home/lionel/paparazziProto1/var/Colibri/ap/firmwares/fixedwing/datalink.o
                                                  /home/lionel/paparazziProto1/var/Colibri/ap/subsystems/navigation/snav.o
                                                  /home/lionel/paparazziProto1/var/Colibri/ap/./estimator.o
estimator_flight_time                             /home/lionel/paparazziProto1/var/Colibri/ap/firmwares/fixedwing/datalink.o
                                                  /home/lionel/paparazziProto1/var/Colibri/ap/./estimator.o
                                                  /home/lionel/paparazziProto1/var/Colibri/ap/firmwares/fixedwing/main_ap.o
estimator_hspeed_dir                              /home/lionel/paparazziProto1/var/Colibri/ap/subsystems/navigation/poly_survey_adv.o
                                                  /home/lionel/paparazziProto1/var/Colibri/ap/subsystems/navigation/snav.o
                                                  /home/lionel/paparazziProto1/var/Colibri/ap/subsystems/navigation/nav_survey_rectangle.o
                                                  /home/lionel/paparazziProto1/var/Colibri/ap/subsystems/nav.o
                                                  /home/lionel/paparazziProto1/var/Colibri/ap/firmwares/fixedwing/stabilization/stabilization_attitude.o
                                                  /home/lionel/paparazziProto1/var/Colibri/ap/./estimator.o
estimator_hspeed_mod                              /home/lionel/paparazziProto1/var/Colibri/ap/subsystems/navigation/gls.o
                                                  /home/lionel/paparazziProto1/var/Colibri/ap/subsystems/navigation/OSAMNav.o
                                                  /home/lionel/paparazziProto1/var/Colibri/ap/subsystems/nav.o
                                                  /home/lionel/paparazziProto1/var/Colibri/ap/firmwares/fixedwing/stabilization/stabilization_attitude.o
                                                  /home/lionel/paparazziProto1/var/Colibri/ap/./estimator.o
                                                  /home/lionel/paparazziProto1/var/Colibri/ap/firmwares/fixedwing/main_ap.o
estimator_init                                    /home/lionel/paparazziProto1/var/Colibri/ap/./estimator.o
                                                  /home/lionel/paparazziProto1/var/Colibri/ap/firmwares/fixedwing/main_ap.o
estimator_p                                       /home/lionel/paparazziProto1/var/Colibri/ap/subsystems/ahrs/ahrs_infrared.o
                                                  /home/lionel/paparazziProto1/var/Colibri/ap/firmwares/fixedwing/stabilization/stabilization_attitude.o
                                                  /home/lionel/paparazziProto1/var/Colibri/ap/./estimator.o
estimator_phi                                     /home/lionel/paparazziProto1/var/Colibri/ap/subsystems/ahrs/ahrs_infrared.o
                                                  /home/lionel/paparazziProto1/var/Colibri/ap/firmwares/fixedwing/stabilization/stabilization_attitude.o
                                                  /home/lionel/paparazziProto1/var/Colibri/ap/./estimator.o
                                                  /home/lionel/paparazziProto1/var/Colibri/ap/firmwares/fixedwing/main_ap.o
estimator_psi                                     /home/lionel/paparazziProto1/var/Colibri/ap/subsystems/ahrs/ahrs_infrared.o
                                                  /home/lionel/paparazziProto1/var/Colibri/ap/./estimator.o
                                                  /home/lionel/paparazziProto1/var/Colibri/ap/firmwares/fixedwing/main_ap.o
estimator_q                                       /home/lionel/paparazziProto1/var/Colibri/ap/subsystems/ahrs/ahrs_infrared.o
                                                  /home/lionel/paparazziProto1/var/Colibri/ap/./estimator.o
estimator_r                                       /home/lionel/paparazziProto1/var/Colibri/ap/subsystems/ahrs/ahrs_infrared.o
                                                  /home/lionel/paparazziProto1/var/Colibri/ap/./estimator.o
estimator_t                                       /home/lionel/paparazziProto1/var/Colibri/ap/./estimator.o
estimator_theta                                   /home/lionel/paparazziProto1/var/Colibri/ap/subsystems/ahrs/ahrs_infrared.o
                                                  /home/lionel/paparazziProto1/var/Colibri/ap/firmwares/fixedwing/stabilization/stabilization_attitude.o
                                                  /home/lionel/paparazziProto1/var/Colibri/ap/./estimator.o
                                                  /home/lionel/paparazziProto1/var/Colibri/ap/firmwares/fixedwing/main_ap.o
estimator_update_state_gps                        /home/lionel/paparazziProto1/var/Colibri/ap/./estimator.o
                                                  /home/lionel/paparazziProto1/var/Colibri/ap/firmwares/fixedwing/main_ap.o
estimator_x                                       /home/lionel/paparazziProto1/var/Colibri/ap/firmwares/fixedwing/datalink.o
                                                  /home/lionel/paparazziProto1/var/Colibri/ap/subsystems/navigation/gls.o
                                                  /home/lionel/paparazziProto1/var/Colibri/ap/subsystems/navigation/spiral.o
                                                  /home/lionel/paparazziProto1/var/Colibri/ap/subsystems/navigation/snav.o
                                                  /home/lionel/paparazziProto1/var/Colibri/ap/subsystems/navigation/OSAMNav.o
                                                  /home/lionel/paparazziProto1/var/Colibri/ap/subsystems/navigation/discsurvey.o
                                                  /home/lionel/paparazziProto1/var/Colibri/ap/subsystems/navigation/nav_survey_rectangle.o
                                                  /home/lionel/paparazziProto1/var/Colibri/ap/subsystems/nav.o
                                                  /home/lionel/paparazziProto1/var/Colibri/ap/./estimator.o
                                                  /home/lionel/paparazziProto1/var/Colibri/ap/firmwares/fixedwing/main_ap.o
estimator_y                                       /home/lionel/paparazziProto1/var/Colibri/ap/firmwares/fixedwing/datalink.o
                                                  /home/lionel/paparazziProto1/var/Colibri/ap/subsystems/navigation/gls.o
                                                  /home/lionel/paparazziProto1/var/Colibri/ap/subsystems/navigation/spiral.o
                                                  /home/lionel/paparazziProto1/var/Colibri/ap/subsystems/navigation/snav.o
                                                  /home/lionel/paparazziProto1/var/Colibri/ap/subsystems/navigation/OSAMNav.o
                                                  /home/lionel/paparazziProto1/var/Colibri/ap/subsystems/navigation/discsurvey.o
                                                  /home/lionel/paparazziProto1/var/Colibri/ap/subsystems/navigation/nav_survey_rectangle.o
                                                  /home/lionel/paparazziProto1/var/Colibri/ap/subsystems/nav.o
                                                  /home/lionel/paparazziProto1/var/Colibri/ap/./estimator.o
                                                  /home/lionel/paparazziProto1/var/Colibri/ap/firmwares/fixedwing/main_ap.o
estimator_z                                       /home/lionel/paparazziProto1/var/Colibri/ap/subsystems/navigation/poly_survey_adv.o
                                                  /home/lionel/paparazziProto1/var/Colibri/ap/subsystems/navigation/spiral.o
                                                  /home/lionel/paparazziProto1/var/Colibri/ap/subsystems/navigation/OSAMNav.o
                                                  /home/lionel/paparazziProto1/var/Colibri/ap/subsystems/nav.o
                                                  /home/lionel/paparazziProto1/var/Colibri/ap/firmwares/fixedwing/guidance/guidance_v.o
                                                  /home/lionel/paparazziProto1/var/Colibri/ap/./estimator.o
                                                  /home/lionel/paparazziProto1/var/Colibri/ap/firmwares/fixedwing/main_ap.o
estimator_z_dot                                   /home/lionel/paparazziProto1/var/Colibri/ap/firmwares/fixedwing/guidance/guidance_v.o
                                                  /home/lionel/paparazziProto1/var/Colibri/ap/./estimator.o
                                                  /home/lionel/paparazziProto1/var/Colibri/ap/firmwares/fixedwing/main_ap.o
event_task_ap                                     /home/lionel/paparazziProto1/var/Colibri/ap/firmwares/fixedwing/main_ap.o
                                                  /home/lionel/paparazziProto1/var/Colibri/ap/firmwares/fixedwing/main.o
event_task_fbw                                    /home/lionel/paparazziProto1/var/Colibri/ap/firmwares/fixedwing/main_fbw.o
                                                  /home/lionel/paparazziProto1/var/Colibri/ap/firmwares/fixedwing/main.o
exit                                              /home/lionel/paparazziProto1/var/Colibri/ap/crt0.o
exp                                               /opt/paparazzi/arm-multilib/lib/gcc/arm-none-eabi/4.6.2/../../../../arm-none-eabi/lib/thumb/libm.a(lib_a-w_exp.o)
                                                  /home/lionel/paparazziProto1/var/Colibri/ap/math/pprz_geodetic_double.o
                                                  /home/lionel/paparazziProto1/var/Colibri/ap/math/pprz_geodetic_float.o
expm1                                             /opt/paparazzi/arm-multilib/lib/gcc/arm-none-eabi/4.6.2/../../../../arm-none-eabi/lib/thumb/libm.a(lib_a-s_expm1.o)
                                                  /opt/paparazzi/arm-multilib/lib/gcc/arm-none-eabi/4.6.2/../../../../arm-none-eabi/lib/thumb/libm.a(lib_a-e_sinh.o)
                                                  /opt/paparazzi/arm-multilib/lib/gcc/arm-none-eabi/4.6.2/../../../../arm-none-eabi/lib/thumb/libm.a(lib_a-e_cosh.o)
fabs                                              /opt/paparazzi/arm-multilib/lib/gcc/arm-none-eabi/4.6.2/../../../../arm-none-eabi/lib/thumb/libm.a(lib_a-s_fabs.o)
                                                  /opt/paparazzi/arm-multilib/lib/gcc/arm-none-eabi/4.6.2/../../../../arm-none-eabi/lib/thumb/libm.a(lib_a-k_tan.o)
                                                  /opt/paparazzi/arm-multilib/lib/gcc/arm-none-eabi/4.6.2/../../../../arm-none-eabi/lib/thumb/libm.a(lib_a-e_sinh.o)
                                                  /opt/paparazzi/arm-multilib/lib/gcc/arm-none-eabi/4.6.2/../../../../arm-none-eabi/lib/thumb/libm.a(lib_a-e_rem_pio2.o)
                                                  /opt/paparazzi/arm-multilib/lib/gcc/arm-none-eabi/4.6.2/../../../../arm-none-eabi/lib/thumb/libm.a(lib_a-e_pow.o)
                                                  /opt/paparazzi/arm-multilib/lib/gcc/arm-none-eabi/4.6.2/../../../../arm-none-eabi/lib/thumb/libm.a(lib_a-e_cosh.o)
                                                  /opt/paparazzi/arm-multilib/lib/gcc/arm-none-eabi/4.6.2/../../../../arm-none-eabi/lib/thumb/libm.a(lib_a-e_atan2.o)
                                                  /opt/paparazzi/arm-multilib/lib/gcc/arm-none-eabi/4.6.2/../../../../arm-none-eabi/lib/thumb/libm.a(lib_a-e_asin.o)
                                                  /opt/paparazzi/arm-multilib/lib/gcc/arm-none-eabi/4.6.2/../../../../arm-none-eabi/lib/thumb/libm.a(lib_a-w_cosh.o)
                                                  /opt/paparazzi/arm-multilib/lib/gcc/arm-none-eabi/4.6.2/../../../../arm-none-eabi/lib/thumb/libm.a(lib_a-w_asin.o)
                                                  /opt/paparazzi/arm-multilib/lib/gcc/arm-none-eabi/4.6.2/../../../../arm-none-eabi/lib/thumb/libm.a(lib_a-w_acos.o)
                                                  /opt/paparazzi/arm-multilib/lib/gcc/arm-none-eabi/4.6.2/../../../../arm-none-eabi/lib/thumb/libm.a(lib_a-s_atan.o)
fabsf                                             /opt/paparazzi/arm-multilib/lib/gcc/arm-none-eabi/4.6.2/../../../../arm-none-eabi/lib/thumb/libm.a(lib_a-sf_fabs.o)
                                                  /opt/paparazzi/arm-multilib/lib/gcc/arm-none-eabi/4.6.2/../../../../arm-none-eabi/lib/thumb/libm.a(lib_a-kf_tan.o)
                                                  /opt/paparazzi/arm-multilib/lib/gcc/arm-none-eabi/4.6.2/../../../../arm-none-eabi/lib/thumb/libm.a(lib_a-ef_rem_pio2.o)
                                                  /opt/paparazzi/arm-multilib/lib/gcc/arm-none-eabi/4.6.2/../../../../arm-none-eabi/lib/thumb/libm.a(lib_a-ef_pow.o)
                                                  /opt/paparazzi/arm-multilib/lib/gcc/arm-none-eabi/4.6.2/../../../../arm-none-eabi/lib/thumb/libm.a(lib_a-ef_atan2.o)
                                                  /opt/paparazzi/arm-multilib/lib/gcc/arm-none-eabi/4.6.2/../../../../arm-none-eabi/lib/thumb/libm.a(lib_a-sf_atan.o)
fbw_mode                                          /home/lionel/paparazziProto1/var/Colibri/ap/firmwares/fixedwing/main_fbw.o
fbw_new_actuators                                 /home/lionel/paparazziProto1/var/Colibri/ap/firmwares/fixedwing/main_fbw.o
fbw_periodic_tid                                  /home/lionel/paparazziProto1/var/Colibri/ap/firmwares/fixedwing/main_fbw.o
fbw_state                                         /home/lionel/paparazziProto1/var/Colibri/ap/./inter_mcu.o
                                                  /home/lionel/paparazziProto1/var/Colibri/ap/firmwares/fixedwing/main_ap.o
                                                  /home/lionel/paparazziProto1/var/Colibri/ap/firmwares/fixedwing/main_fbw.o
finite                                            /opt/paparazzi/arm-multilib/lib/gcc/arm-none-eabi/4.6.2/../../../../arm-none-eabi/lib/thumb/libm.a(lib_a-s_finite.o)
                                                  /opt/paparazzi/arm-multilib/lib/gcc/arm-none-eabi/4.6.2/../../../../arm-none-eabi/lib/thumb/libm.a(lib_a-w_sinh.o)
                                                  /opt/paparazzi/arm-multilib/lib/gcc/arm-none-eabi/4.6.2/../../../../arm-none-eabi/lib/thumb/libm.a(lib_a-w_pow.o)
                                                  /opt/paparazzi/arm-multilib/lib/gcc/arm-none-eabi/4.6.2/../../../../arm-none-eabi/lib/thumb/libm.a(lib_a-w_exp.o)
finitef                                           /opt/paparazzi/arm-multilib/lib/gcc/arm-none-eabi/4.6.2/../../../../arm-none-eabi/lib/thumb/libm.a(lib_a-sf_finite.o)
                                                  /opt/paparazzi/arm-multilib/lib/gcc/arm-none-eabi/4.6.2/../../../../arm-none-eabi/lib/thumb/libm.a(lib_a-wf_pow.o)
flight_altitude                                   /home/lionel/paparazziProto1/var/Colibri/ap/firmwares/fixedwing/datalink.o
                                                  /home/lionel/paparazziProto1/var/Colibri/ap/subsystems/nav.o
                                                  /home/lionel/paparazziProto1/var/Colibri/ap/firmwares/fixedwing/main_ap.o
floor                                             /opt/paparazzi/arm-multilib/lib/gcc/arm-none-eabi/4.6.2/../../../../arm-none-eabi/lib/thumb/libm.a(lib_a-s_floor.o)
                                                  /opt/paparazzi/arm-multilib/lib/gcc/arm-none-eabi/4.6.2/../../../../arm-none-eabi/lib/thumb/libm.a(lib_a-k_rem_pio2.o)
floorf                                            /opt/paparazzi/arm-multilib/lib/gcc/arm-none-eabi/4.6.2/../../../../arm-none-eabi/lib/thumb/libm.a(lib_a-sf_floor.o)
                                                  /opt/paparazzi/arm-multilib/lib/gcc/arm-none-eabi/4.6.2/../../../../arm-none-eabi/lib/thumb/libm.a(lib_a-kf_rem_pio2.o)
fly_to_xy                                         /home/lionel/paparazziProto1/var/Colibri/ap/subsystems/nav.o
fp_pitch                                          /home/lionel/paparazziProto1/var/Colibri/ap/subsystems/nav.o
gc_of_gd_lat_d                                    /home/lionel/paparazziProto1/var/Colibri/ap/math/pprz_geodetic_double.o
get_ac_info                                       /home/lionel/paparazziProto1/var/Colibri/ap/subsystems/navigation/traffic_info.o
gls                                               /home/lionel/paparazziProto1/var/Colibri/ap/subsystems/navigation/gls.o
gls_init                                          /home/lionel/paparazziProto1/var/Colibri/ap/subsystems/navigation/gls.o
gps                                               /home/lionel/paparazziProto1/var/Colibri/ap/subsystems/gps.o
                                                  /home/lionel/paparazziProto1/var/Colibri/ap/subsystems/gps/gps_ubx.o
                                                  /home/lionel/paparazziProto1/var/Colibri/ap/subsystems/ahrs/ahrs_infrared.o
                                                  /home/lionel/paparazziProto1/var/Colibri/ap/firmwares/fixedwing/datalink.o
                                                  /home/lionel/paparazziProto1/var/Colibri/ap/subsystems/navigation/snav.o
                                                  /home/lionel/paparazziProto1/var/Colibri/ap/subsystems/nav.o
                                                  /home/lionel/paparazziProto1/var/Colibri/ap/./estimator.o
                                                  /home/lionel/paparazziProto1/var/Colibri/ap/firmwares/fixedwing/main_ap.o
gps_impl_init                                     /home/lionel/paparazziProto1/var/Colibri/ap/subsystems/gps/gps_ubx.o
                                                  /home/lionel/paparazziProto1/var/Colibri/ap/subsystems/gps.o
gps_init                                          /home/lionel/paparazziProto1/var/Colibri/ap/subsystems/gps.o
                                                  /home/lionel/paparazziProto1/var/Colibri/ap/firmwares/fixedwing/main_ap.o
gps_lost                                          /home/lionel/paparazziProto1/var/Colibri/ap/firmwares/fixedwing/main_ap.o
gps_ubx                                           /home/lionel/paparazziProto1/var/Colibri/ap/subsystems/gps/gps_ubx.o
                                                  /home/lionel/paparazziProto1/var/Colibri/ap/firmwares/fixedwing/main_ap.o
gps_ubx_parse                                     /home/lionel/paparazziProto1/var/Colibri/ap/subsystems/gps/gps_ubx.o
                                                  /home/lionel/paparazziProto1/var/Colibri/ap/firmwares/fixedwing/main_ap.o
gps_ubx_read_message                              /home/lionel/paparazziProto1/var/Colibri/ap/subsystems/gps/gps_ubx.o
                                                  /home/lionel/paparazziProto1/var/Colibri/ap/firmwares/fixedwing/main_ap.o
ground_alt                                        /home/lionel/paparazziProto1/var/Colibri/ap/subsystems/navigation/nav_cube.o
                                                  /home/lionel/paparazziProto1/var/Colibri/ap/subsystems/nav.o
h_ctl_aileron_of_throttle                         /home/lionel/paparazziProto1/var/Colibri/ap/firmwares/fixedwing/datalink.o
                                                  /home/lionel/paparazziProto1/var/Colibri/ap/firmwares/fixedwing/stabilization/stabilization_attitude.o
                                                  /home/lionel/paparazziProto1/var/Colibri/ap/firmwares/fixedwing/main_ap.o
h_ctl_aileron_setpoint                            /home/lionel/paparazziProto1/var/Colibri/ap/firmwares/fixedwing/stabilization/stabilization_attitude.o
                                                  /home/lionel/paparazziProto1/var/Colibri/ap/firmwares/fixedwing/main_ap.o
h_ctl_attitude_loop                               /home/lionel/paparazziProto1/var/Colibri/ap/firmwares/fixedwing/stabilization/stabilization_attitude.o
                                                  /home/lionel/paparazziProto1/var/Colibri/ap/firmwares/fixedwing/main_ap.o
h_ctl_auto1_rate                                  /home/lionel/paparazziProto1/var/Colibri/ap/firmwares/fixedwing/stabilization/stabilization_attitude.o
h_ctl_course_dgain                                /home/lionel/paparazziProto1/var/Colibri/ap/firmwares/fixedwing/datalink.o
                                                  /home/lionel/paparazziProto1/var/Colibri/ap/firmwares/fixedwing/stabilization/stabilization_attitude.o
                                                  /home/lionel/paparazziProto1/var/Colibri/ap/firmwares/fixedwing/main_ap.o
h_ctl_course_loop                                 /home/lionel/paparazziProto1/var/Colibri/ap/firmwares/fixedwing/stabilization/stabilization_attitude.o
                                                  /home/lionel/paparazziProto1/var/Colibri/ap/firmwares/fixedwing/main_ap.o
h_ctl_course_pgain                                /home/lionel/paparazziProto1/var/Colibri/ap/firmwares/fixedwing/datalink.o
                                                  /home/lionel/paparazziProto1/var/Colibri/ap/subsystems/nav.o
                                                  /home/lionel/paparazziProto1/var/Colibri/ap/firmwares/fixedwing/stabilization/stabilization_attitude.o
                                                  /home/lionel/paparazziProto1/var/Colibri/ap/firmwares/fixedwing/main_ap.o
h_ctl_course_pre_bank                             /home/lionel/paparazziProto1/var/Colibri/ap/subsystems/nav.o
                                                  /home/lionel/paparazziProto1/var/Colibri/ap/firmwares/fixedwing/stabilization/stabilization_attitude.o
h_ctl_course_pre_bank_correction                  /home/lionel/paparazziProto1/var/Colibri/ap/firmwares/fixedwing/datalink.o
                                                  /home/lionel/paparazziProto1/var/Colibri/ap/firmwares/fixedwing/stabilization/stabilization_attitude.o
                                                  /home/lionel/paparazziProto1/var/Colibri/ap/firmwares/fixedwing/main_ap.o
h_ctl_course_setpoint                             /home/lionel/paparazziProto1/var/Colibri/ap/subsystems/nav.o
                                                  /home/lionel/paparazziProto1/var/Colibri/ap/firmwares/fixedwing/stabilization/stabilization_attitude.o
                                                  /home/lionel/paparazziProto1/var/Colibri/ap/firmwares/fixedwing/main_ap.o
h_ctl_disabled                                    /home/lionel/paparazziProto1/var/Colibri/ap/firmwares/fixedwing/stabilization/stabilization_attitude.o
h_ctl_elevator_of_roll                            /home/lionel/paparazziProto1/var/Colibri/ap/firmwares/fixedwing/datalink.o
                                                  /home/lionel/paparazziProto1/var/Colibri/ap/firmwares/fixedwing/stabilization/stabilization_attitude.o
                                                  /home/lionel/paparazziProto1/var/Colibri/ap/firmwares/fixedwing/main_ap.o
h_ctl_elevator_setpoint                           /home/lionel/paparazziProto1/var/Colibri/ap/firmwares/fixedwing/stabilization/stabilization_attitude.o
                                                  /home/lionel/paparazziProto1/var/Colibri/ap/firmwares/fixedwing/main_ap.o
h_ctl_init                                        /home/lionel/paparazziProto1/var/Colibri/ap/firmwares/fixedwing/stabilization/stabilization_attitude.o
                                                  /home/lionel/paparazziProto1/var/Colibri/ap/firmwares/fixedwing/main_ap.o
h_ctl_pitch_dgain                                 /home/lionel/paparazziProto1/var/Colibri/ap/firmwares/fixedwing/datalink.o
                                                  /home/lionel/paparazziProto1/var/Colibri/ap/firmwares/fixedwing/stabilization/stabilization_attitude.o
                                                  /home/lionel/paparazziProto1/var/Colibri/ap/firmwares/fixedwing/main_ap.o
h_ctl_pitch_loop_setpoint                         /home/lionel/paparazziProto1/var/Colibri/ap/firmwares/fixedwing/stabilization/stabilization_attitude.o
                                                  /home/lionel/paparazziProto1/var/Colibri/ap/firmwares/fixedwing/main_ap.o
h_ctl_pitch_pgain                                 /home/lionel/paparazziProto1/var/Colibri/ap/firmwares/fixedwing/datalink.o
                                                  /home/lionel/paparazziProto1/var/Colibri/ap/firmwares/fixedwing/stabilization/stabilization_attitude.o
                                                  /home/lionel/paparazziProto1/var/Colibri/ap/firmwares/fixedwing/main_ap.o
h_ctl_pitch_setpoint                              /home/lionel/paparazziProto1/var/Colibri/ap/firmwares/fixedwing/stabilization/stabilization_attitude.o
                                                  /home/lionel/paparazziProto1/var/Colibri/ap/firmwares/fixedwing/main_ap.o
h_ctl_roll_attitude_gain                          /home/lionel/paparazziProto1/var/Colibri/ap/firmwares/fixedwing/datalink.o
                                                  /home/lionel/paparazziProto1/var/Colibri/ap/firmwares/fixedwing/stabilization/stabilization_attitude.o
                                                  /home/lionel/paparazziProto1/var/Colibri/ap/firmwares/fixedwing/main_ap.o
h_ctl_roll_max_setpoint                           /home/lionel/paparazziProto1/var/Colibri/ap/firmwares/fixedwing/datalink.o
                                                  /home/lionel/paparazziProto1/var/Colibri/ap/subsystems/nav.o
                                                  /home/lionel/paparazziProto1/var/Colibri/ap/firmwares/fixedwing/stabilization/stabilization_attitude.o
                                                  /home/lionel/paparazziProto1/var/Colibri/ap/firmwares/fixedwing/main_ap.o
h_ctl_roll_pgain                                  /home/lionel/paparazziProto1/var/Colibri/ap/firmwares/fixedwing/stabilization/stabilization_attitude.o
h_ctl_roll_rate_gain                              /home/lionel/paparazziProto1/var/Colibri/ap/firmwares/fixedwing/datalink.o
                                                  /home/lionel/paparazziProto1/var/Colibri/ap/firmwares/fixedwing/stabilization/stabilization_attitude.o
                                                  /home/lionel/paparazziProto1/var/Colibri/ap/firmwares/fixedwing/main_ap.o
h_ctl_roll_setpoint                               /home/lionel/paparazziProto1/var/Colibri/ap/subsystems/nav.o
                                                  /home/lionel/paparazziProto1/var/Colibri/ap/firmwares/fixedwing/stabilization/stabilization_attitude.o
                                                  /home/lionel/paparazziProto1/var/Colibri/ap/firmwares/fixedwing/main_ap.o
h_ctl_roll_slew                                   /home/lionel/paparazziProto1/var/Colibri/ap/firmwares/fixedwing/datalink.o
                                                  /home/lionel/paparazziProto1/var/Colibri/ap/firmwares/fixedwing/stabilization/stabilization_attitude.o
                                                  /home/lionel/paparazziProto1/var/Colibri/ap/firmwares/fixedwing/main_ap.o
handle_periodic_tasks_ap                          /home/lionel/paparazziProto1/var/Colibri/ap/firmwares/fixedwing/main_ap.o
                                                  /home/lionel/paparazziProto1/var/Colibri/ap/firmwares/fixedwing/main.o
handle_periodic_tasks_fbw                         /home/lionel/paparazziProto1/var/Colibri/ap/firmwares/fixedwing/main_fbw.o
                                                  /home/lionel/paparazziProto1/var/Colibri/ap/firmwares/fixedwing/main.o
horizontal_mode                                   /home/lionel/paparazziProto1/var/Colibri/ap/subsystems/nav.o
                                                  /home/lionel/paparazziProto1/var/Colibri/ap/firmwares/fixedwing/main_ap.o
i2c_event                                         /home/lionel/paparazziProto1/var/Colibri/ap/arch/lpc21/mcu_periph/i2c_arch.o
                                                  /home/lionel/paparazziProto1/var/Colibri/ap/firmwares/fixedwing/main_fbw.o
i2c_idle                                          /home/lionel/paparazziProto1/var/Colibri/ap/arch/lpc21/mcu_periph/i2c_arch.o
i2c_init                                          /home/lionel/paparazziProto1/var/Colibri/ap/mcu_periph/i2c.o
i2c_setbitrate                                    /home/lionel/paparazziProto1/var/Colibri/ap/arch/lpc21/mcu_periph/i2c_arch.o
i2c_submit                                        /home/lionel/paparazziProto1/var/Colibri/ap/arch/lpc21/mcu_periph/i2c_arch.o
infrared                                          /home/lionel/paparazziProto1/var/Colibri/ap/subsystems/sensors/infrared_adc.o
                                                  /home/lionel/paparazziProto1/var/Colibri/ap/subsystems/sensors/infrared.o
                                                  /home/lionel/paparazziProto1/var/Colibri/ap/subsystems/ahrs/ahrs_infrared.o
                                                  /home/lionel/paparazziProto1/var/Colibri/ap/firmwares/fixedwing/main_ap.o
infrared_adc_init                                 /home/lionel/paparazziProto1/var/Colibri/ap/subsystems/sensors/infrared_adc.o
                                                  /home/lionel/paparazziProto1/var/Colibri/ap/firmwares/fixedwing/main_ap.o
infrared_adc_update                               /home/lionel/paparazziProto1/var/Colibri/ap/subsystems/sensors/infrared_adc.o
                                                  /home/lionel/paparazziProto1/var/Colibri/ap/firmwares/fixedwing/main_ap.o
infrared_event                                    /home/lionel/paparazziProto1/var/Colibri/ap/subsystems/sensors/infrared_adc.o
infrared_init                                     /home/lionel/paparazziProto1/var/Colibri/ap/subsystems/sensors/infrared_adc.o
infrared_struct_init                              /home/lionel/paparazziProto1/var/Colibri/ap/subsystems/sensors/infrared.o
                                                  /home/lionel/paparazziProto1/var/Colibri/ap/subsystems/sensors/infrared_adc.o
infrared_update                                   /home/lionel/paparazziProto1/var/Colibri/ap/subsystems/sensors/infrared_adc.o
init                                              /home/lionel/paparazziProto1/var/Colibri/ap/subsystems/navigation/gls.o
init_ap                                           /home/lionel/paparazziProto1/var/Colibri/ap/firmwares/fixedwing/main_ap.o
                                                  /home/lionel/paparazziProto1/var/Colibri/ap/firmwares/fixedwing/main.o
init_fbw                                          /home/lionel/paparazziProto1/var/Colibri/ap/firmwares/fixedwing/main_fbw.o
                                                  /home/lionel/paparazziProto1/var/Colibri/ap/firmwares/fixedwing/main.o
init_poly_survey_adv                              /home/lionel/paparazziProto1/var/Colibri/ap/subsystems/navigation/poly_survey_adv.o
inter_mcu_received_ap                             /home/lionel/paparazziProto1/var/Colibri/ap/./inter_mcu.o
                                                  /home/lionel/paparazziProto1/var/Colibri/ap/firmwares/fixedwing/main_ap.o
                                                  /home/lionel/paparazziProto1/var/Colibri/ap/firmwares/fixedwing/main_fbw.o
inter_mcu_received_fbw                            /home/lionel/paparazziProto1/var/Colibri/ap/./inter_mcu.o
                                                  /home/lionel/paparazziProto1/var/Colibri/ap/firmwares/fixedwing/main_ap.o
                                                  /home/lionel/paparazziProto1/var/Colibri/ap/firmwares/fixedwing/main_fbw.o
ir_adc                                            /home/lionel/paparazziProto1/var/Colibri/ap/subsystems/sensors/infrared_adc.o
kill_throttle                                     /home/lionel/paparazziProto1/var/Colibri/ap/firmwares/fixedwing/main_ap.o
                                                  /home/lionel/paparazziProto1/var/Colibri/ap/firmwares/fixedwing/datalink.o
                                                  /home/lionel/paparazziProto1/var/Colibri/ap/subsystems/navigation/OSAMNav.o
                                                  /home/lionel/paparazziProto1/var/Colibri/ap/subsystems/nav.o
last_block                                        /home/lionel/paparazziProto1/var/Colibri/ap/subsystems/navigation/common_flight_plan.o
last_stage                                        /home/lionel/paparazziProto1/var/Colibri/ap/subsystems/navigation/common_flight_plan.o
last_x                                            /home/lionel/paparazziProto1/var/Colibri/ap/subsystems/navigation/poly_survey_adv.o
                                                  /home/lionel/paparazziProto1/var/Colibri/ap/subsystems/nav.o
last_y                                            /home/lionel/paparazziProto1/var/Colibri/ap/subsystems/navigation/poly_survey_adv.o
                                                  /home/lionel/paparazziProto1/var/Colibri/ap/subsystems/nav.o
lateral_mode                                      /home/lionel/paparazziProto1/var/Colibri/ap/firmwares/fixedwing/main_ap.o
                                                  /home/lionel/paparazziProto1/var/Colibri/ap/subsystems/nav.o
launch                                            /home/lionel/paparazziProto1/var/Colibri/ap/firmwares/fixedwing/main_ap.o
                                                  /home/lionel/paparazziProto1/var/Colibri/ap/firmwares/fixedwing/datalink.o
lla_of_ecef_d                                     /home/lionel/paparazziProto1/var/Colibri/ap/math/pprz_geodetic_double.o
                                                  /home/lionel/paparazziProto1/var/Colibri/ap/math/pprz_geodetic_int.o
lla_of_ecef_f                                     /home/lionel/paparazziProto1/var/Colibri/ap/math/pprz_geodetic_float.o
lla_of_ecef_i                                     /home/lionel/paparazziProto1/var/Colibri/ap/math/pprz_geodetic_int.o
lla_of_utm_d                                      /home/lionel/paparazziProto1/var/Colibri/ap/math/pprz_geodetic_double.o
lla_of_utm_f                                      /home/lionel/paparazziProto1/var/Colibri/ap/math/pprz_geodetic_float.o
log                                               /opt/paparazzi/arm-multilib/lib/gcc/arm-none-eabi/4.6.2/../../../../arm-none-eabi/lib/thumb/libm.a(lib_a-w_log.o)
                                                  /home/lionel/paparazziProto1/var/Colibri/ap/math/pprz_geodetic_double.o
                                                  /home/lionel/paparazziProto1/var/Colibri/ap/math/pprz_geodetic_float.o
ltp_def_from_ecef_d                               /home/lionel/paparazziProto1/var/Colibri/ap/math/pprz_geodetic_double.o
ltp_def_from_ecef_f                               /home/lionel/paparazziProto1/var/Colibri/ap/math/pprz_geodetic_float.o
ltp_def_from_ecef_i                               /home/lionel/paparazziProto1/var/Colibri/ap/math/pprz_geodetic_int.o
ltp_def_from_lla_f                                /home/lionel/paparazziProto1/var/Colibri/ap/math/pprz_geodetic_float.o
ltp_def_from_lla_i                                /home/lionel/paparazziProto1/var/Colibri/ap/math/pprz_geodetic_int.o
main                                              /home/lionel/paparazziProto1/var/Colibri/ap/firmwares/fixedwing/main.o
                                                  /home/lionel/paparazziProto1/var/Colibri/ap/crt0.o
matherr                                           /opt/paparazzi/arm-multilib/lib/gcc/arm-none-eabi/4.6.2/../../../../arm-none-eabi/lib/thumb/libm.a(lib_a-s_matherr.o)
                                                  /opt/paparazzi/arm-multilib/lib/gcc/arm-none-eabi/4.6.2/../../../../arm-none-eabi/lib/thumb/libm.a(lib_a-wf_sqrt.o)
                                                  /opt/paparazzi/arm-multilib/lib/gcc/arm-none-eabi/4.6.2/../../../../arm-none-eabi/lib/thumb/libm.a(lib_a-wf_pow.o)
                                                  /opt/paparazzi/arm-multilib/lib/gcc/arm-none-eabi/4.6.2/../../../../arm-none-eabi/lib/thumb/libm.a(lib_a-w_sqrt.o)
                                                  /opt/paparazzi/arm-multilib/lib/gcc/arm-none-eabi/4.6.2/../../../../arm-none-eabi/lib/thumb/libm.a(lib_a-w_sinh.o)
                                                  /opt/paparazzi/arm-multilib/lib/gcc/arm-none-eabi/4.6.2/../../../../arm-none-eabi/lib/thumb/libm.a(lib_a-w_pow.o)
                                                  /opt/paparazzi/arm-multilib/lib/gcc/arm-none-eabi/4.6.2/../../../../arm-none-eabi/lib/thumb/libm.a(lib_a-w_log.o)
                                                  /opt/paparazzi/arm-multilib/lib/gcc/arm-none-eabi/4.6.2/../../../../arm-none-eabi/lib/thumb/libm.a(lib_a-w_exp.o)
                                                  /opt/paparazzi/arm-multilib/lib/gcc/arm-none-eabi/4.6.2/../../../../arm-none-eabi/lib/thumb/libm.a(lib_a-w_cosh.o)
                                                  /opt/paparazzi/arm-multilib/lib/gcc/arm-none-eabi/4.6.2/../../../../arm-none-eabi/lib/thumb/libm.a(lib_a-w_asin.o)
                                                  /opt/paparazzi/arm-multilib/lib/gcc/arm-none-eabi/4.6.2/../../../../arm-none-eabi/lib/thumb/libm.a(lib_a-w_acos.o)
max_dist_from_home                                /home/lionel/paparazziProto1/var/Colibri/ap/subsystems/nav.o
mcu_arch_init                                     /home/lionel/paparazziProto1/var/Colibri/ap/arch/lpc21/mcu_arch.o
                                                  /home/lionel/paparazziProto1/var/Colibri/ap/mcu.o
mcu_init                                          /home/lionel/paparazziProto1/var/Colibri/ap/mcu.o
                                                  /home/lionel/paparazziProto1/var/Colibri/ap/firmwares/fixedwing/main_fbw.o
modules_tid                                       /home/lionel/paparazziProto1/var/Colibri/ap/firmwares/fixedwing/main_ap.o
monitor_task                                      /home/lionel/paparazziProto1/var/Colibri/ap/firmwares/fixedwing/main_ap.o
monitor_tid                                       /home/lionel/paparazziProto1/var/Colibri/ap/firmwares/fixedwing/main_ap.o
nan                                               /opt/paparazzi/arm-multilib/lib/gcc/arm-none-eabi/4.6.2/../../../../arm-none-eabi/lib/thumb/libm.a(lib_a-s_nan.o)
                                                  /opt/paparazzi/arm-multilib/lib/gcc/arm-none-eabi/4.6.2/../../../../arm-none-eabi/lib/thumb/libm.a(lib_a-e_pow.o)
                                                  /opt/paparazzi/arm-multilib/lib/gcc/arm-none-eabi/4.6.2/../../../../arm-none-eabi/lib/thumb/libm.a(lib_a-w_log.o)
                                                  /opt/paparazzi/arm-multilib/lib/gcc/arm-none-eabi/4.6.2/../../../../arm-none-eabi/lib/thumb/libm.a(lib_a-w_asin.o)
                                                  /opt/paparazzi/arm-multilib/lib/gcc/arm-none-eabi/4.6.2/../../../../arm-none-eabi/lib/thumb/libm.a(lib_a-w_acos.o)
nanf                                              /opt/paparazzi/arm-multilib/lib/gcc/arm-none-eabi/4.6.2/../../../../arm-none-eabi/lib/thumb/libm.a(lib_a-sf_nan.o)
                                                  /opt/paparazzi/arm-multilib/lib/gcc/arm-none-eabi/4.6.2/../../../../arm-none-eabi/lib/thumb/libm.a(lib_a-ef_pow.o)
nav_altitude                                      /home/lionel/paparazziProto1/var/Colibri/ap/subsystems/nav.o
                                                  /home/lionel/paparazziProto1/var/Colibri/ap/subsystems/navigation/border_line.o
                                                  /home/lionel/paparazziProto1/var/Colibri/ap/subsystems/navigation/gls.o
                                                  /home/lionel/paparazziProto1/var/Colibri/ap/subsystems/navigation/poly_survey_adv.o
                                                  /home/lionel/paparazziProto1/var/Colibri/ap/subsystems/navigation/snav.o
                                                  /home/lionel/paparazziProto1/var/Colibri/ap/subsystems/navigation/OSAMNav.o
                                                  /home/lionel/paparazziProto1/var/Colibri/ap/subsystems/navigation/discsurvey.o
                                                  /home/lionel/paparazziProto1/var/Colibri/ap/subsystems/navigation/nav_line.o
                                                  /home/lionel/paparazziProto1/var/Colibri/ap/subsystems/navigation/nav_survey_rectangle.o
nav_approaching_xy                                /home/lionel/paparazziProto1/var/Colibri/ap/subsystems/nav.o
                                                  /home/lionel/paparazziProto1/var/Colibri/ap/subsystems/navigation/border_line.o
                                                  /home/lionel/paparazziProto1/var/Colibri/ap/subsystems/navigation/poly_survey_adv.o
                                                  /home/lionel/paparazziProto1/var/Colibri/ap/subsystems/navigation/spiral.o
                                                  /home/lionel/paparazziProto1/var/Colibri/ap/subsystems/navigation/snav.o
                                                  /home/lionel/paparazziProto1/var/Colibri/ap/subsystems/navigation/OSAMNav.o
                                                  /home/lionel/paparazziProto1/var/Colibri/ap/subsystems/navigation/discsurvey.o
                                                  /home/lionel/paparazziProto1/var/Colibri/ap/subsystems/navigation/nav_line.o
nav_block                                         /home/lionel/paparazziProto1/var/Colibri/ap/firmwares/fixedwing/datalink.o
                                                  /home/lionel/paparazziProto1/var/Colibri/ap/subsystems/navigation/common_flight_plan.o
                                                  /home/lionel/paparazziProto1/var/Colibri/ap/subsystems/nav.o
                                                  /home/lionel/paparazziProto1/var/Colibri/ap/firmwares/fixedwing/main_ap.o
nav_circle_XY                                     /home/lionel/paparazziProto1/var/Colibri/ap/subsystems/nav.o
                                                  /home/lionel/paparazziProto1/var/Colibri/ap/subsystems/navigation/border_line.o
                                                  /home/lionel/paparazziProto1/var/Colibri/ap/subsystems/navigation/poly_survey_adv.o
                                                  /home/lionel/paparazziProto1/var/Colibri/ap/subsystems/navigation/spiral.o
                                                  /home/lionel/paparazziProto1/var/Colibri/ap/subsystems/navigation/snav.o
                                                  /home/lionel/paparazziProto1/var/Colibri/ap/subsystems/navigation/OSAMNav.o
                                                  /home/lionel/paparazziProto1/var/Colibri/ap/subsystems/navigation/discsurvey.o
                                                  /home/lionel/paparazziProto1/var/Colibri/ap/subsystems/navigation/nav_line.o
                                                  /home/lionel/paparazziProto1/var/Colibri/ap/subsystems/navigation/nav_survey_rectangle.o
nav_circle_radians                                /home/lionel/paparazziProto1/var/Colibri/ap/firmwares/fixedwing/datalink.o
                                                  /home/lionel/paparazziProto1/var/Colibri/ap/subsystems/navigation/OSAMNav.o
                                                  /home/lionel/paparazziProto1/var/Colibri/ap/subsystems/nav.o
                                                  /home/lionel/paparazziProto1/var/Colibri/ap/firmwares/fixedwing/main_ap.o
nav_circle_radius                                 /home/lionel/paparazziProto1/var/Colibri/ap/subsystems/nav.o
                                                  /home/lionel/paparazziProto1/var/Colibri/ap/firmwares/fixedwing/main_ap.o
nav_circle_trigo_qdr                              /home/lionel/paparazziProto1/var/Colibri/ap/subsystems/navigation/border_line.o
                                                  /home/lionel/paparazziProto1/var/Colibri/ap/subsystems/navigation/snav.o
                                                  /home/lionel/paparazziProto1/var/Colibri/ap/subsystems/navigation/OSAMNav.o
                                                  /home/lionel/paparazziProto1/var/Colibri/ap/subsystems/navigation/discsurvey.o
                                                  /home/lionel/paparazziProto1/var/Colibri/ap/subsystems/navigation/nav_line.o
                                                  /home/lionel/paparazziProto1/var/Colibri/ap/subsystems/nav.o
nav_circle_x                                      /home/lionel/paparazziProto1/var/Colibri/ap/subsystems/nav.o
                                                  /home/lionel/paparazziProto1/var/Colibri/ap/firmwares/fixedwing/main_ap.o
nav_circle_y                                      /home/lionel/paparazziProto1/var/Colibri/ap/subsystems/nav.o
                                                  /home/lionel/paparazziProto1/var/Colibri/ap/firmwares/fixedwing/main_ap.o
nav_climb                                         /home/lionel/paparazziProto1/var/Colibri/ap/subsystems/nav.o
nav_course                                        /home/lionel/paparazziProto1/var/Colibri/ap/firmwares/fixedwing/datalink.o
                                                  /home/lionel/paparazziProto1/var/Colibri/ap/subsystems/nav.o
                                                  /home/lionel/paparazziProto1/var/Colibri/ap/firmwares/fixedwing/main_ap.o
nav_cube                                          /home/lionel/paparazziProto1/var/Colibri/ap/subsystems/navigation/nav_cube.o
nav_cube_init                                     /home/lionel/paparazziProto1/var/Colibri/ap/subsystems/navigation/nav_cube.o
nav_eight                                         /home/lionel/paparazziProto1/var/Colibri/ap/subsystems/nav.o
nav_eight_init                                    /home/lionel/paparazziProto1/var/Colibri/ap/subsystems/nav.o
nav_glide_pitch_trim                              /home/lionel/paparazziProto1/var/Colibri/ap/subsystems/nav.o
nav_goto_block                                    /home/lionel/paparazziProto1/var/Colibri/ap/subsystems/navigation/common_flight_plan.o
                                                  /home/lionel/paparazziProto1/var/Colibri/ap/firmwares/fixedwing/datalink.o
nav_ground_speed_pgain                            /home/lionel/paparazziProto1/var/Colibri/ap/subsystems/nav.o
nav_ground_speed_setpoint                         /home/lionel/paparazziProto1/var/Colibri/ap/subsystems/nav.o
nav_home                                          /home/lionel/paparazziProto1/var/Colibri/ap/subsystems/nav.o
                                                  /home/lionel/paparazziProto1/var/Colibri/ap/firmwares/fixedwing/main_ap.o
nav_in_circle                                     /home/lionel/paparazziProto1/var/Colibri/ap/subsystems/nav.o
                                                  /home/lionel/paparazziProto1/var/Colibri/ap/subsystems/navigation/nav_survey_rectangle.o
                                                  /home/lionel/paparazziProto1/var/Colibri/ap/firmwares/fixedwing/main_ap.o
nav_in_segment                                    /home/lionel/paparazziProto1/var/Colibri/ap/subsystems/nav.o
                                                  /home/lionel/paparazziProto1/var/Colibri/ap/subsystems/navigation/nav_survey_rectangle.o
                                                  /home/lionel/paparazziProto1/var/Colibri/ap/firmwares/fixedwing/main_ap.o
nav_init                                          /home/lionel/paparazziProto1/var/Colibri/ap/subsystems/nav.o
                                                  /home/lionel/paparazziProto1/var/Colibri/ap/firmwares/fixedwing/main_ap.o
nav_init_block                                    /home/lionel/paparazziProto1/var/Colibri/ap/subsystems/navigation/common_flight_plan.o
                                                  /home/lionel/paparazziProto1/var/Colibri/ap/subsystems/nav.o
nav_init_stage                                    /home/lionel/paparazziProto1/var/Colibri/ap/subsystems/nav.o
                                                  /home/lionel/paparazziProto1/var/Colibri/ap/subsystems/navigation/border_line.o
                                                  /home/lionel/paparazziProto1/var/Colibri/ap/subsystems/navigation/poly_survey_adv.o
                                                  /home/lionel/paparazziProto1/var/Colibri/ap/subsystems/navigation/OSAMNav.o
                                                  /home/lionel/paparazziProto1/var/Colibri/ap/subsystems/navigation/discsurvey.o
                                                  /home/lionel/paparazziProto1/var/Colibri/ap/subsystems/navigation/nav_line.o
                                                  /home/lionel/paparazziProto1/var/Colibri/ap/subsystems/navigation/common_flight_plan.o
nav_line                                          /home/lionel/paparazziProto1/var/Colibri/ap/subsystems/navigation/nav_line.o
nav_line_init                                     /home/lionel/paparazziProto1/var/Colibri/ap/subsystems/navigation/nav_line.o
nav_mode                                          /home/lionel/paparazziProto1/var/Colibri/ap/subsystems/nav.o
nav_move_waypoint                                 /home/lionel/paparazziProto1/var/Colibri/ap/subsystems/nav.o
                                                  /home/lionel/paparazziProto1/var/Colibri/ap/firmwares/fixedwing/datalink.o
nav_oval                                          /home/lionel/paparazziProto1/var/Colibri/ap/subsystems/nav.o
nav_oval_count                                    /home/lionel/paparazziProto1/var/Colibri/ap/firmwares/fixedwing/datalink.o
                                                  /home/lionel/paparazziProto1/var/Colibri/ap/subsystems/nav.o
                                                  /home/lionel/paparazziProto1/var/Colibri/ap/firmwares/fixedwing/main_ap.o
nav_oval_init                                     /home/lionel/paparazziProto1/var/Colibri/ap/subsystems/nav.o
nav_periodic_task                                 /home/lionel/paparazziProto1/var/Colibri/ap/subsystems/nav.o
                                                  /home/lionel/paparazziProto1/var/Colibri/ap/firmwares/fixedwing/main_ap.o
nav_pitch                                         /home/lionel/paparazziProto1/var/Colibri/ap/subsystems/navigation/border_line.o
                                                  /home/lionel/paparazziProto1/var/Colibri/ap/subsystems/navigation/gls.o
                                                  /home/lionel/paparazziProto1/var/Colibri/ap/subsystems/navigation/poly_survey_adv.o
                                                  /home/lionel/paparazziProto1/var/Colibri/ap/subsystems/navigation/snav.o
                                                  /home/lionel/paparazziProto1/var/Colibri/ap/subsystems/navigation/OSAMNav.o
                                                  /home/lionel/paparazziProto1/var/Colibri/ap/subsystems/navigation/discsurvey.o
                                                  /home/lionel/paparazziProto1/var/Colibri/ap/subsystems/navigation/nav_line.o
                                                  /home/lionel/paparazziProto1/var/Colibri/ap/subsystems/navigation/nav_survey_rectangle.o
                                                  /home/lionel/paparazziProto1/var/Colibri/ap/subsystems/nav.o
                                                  /home/lionel/paparazziProto1/var/Colibri/ap/firmwares/fixedwing/guidance/guidance_v.o
                                                  /home/lionel/paparazziProto1/var/Colibri/ap/firmwares/fixedwing/main_ap.o
nav_radius                                        /home/lionel/paparazziProto1/var/Colibri/ap/firmwares/fixedwing/datalink.o
                                                  /home/lionel/paparazziProto1/var/Colibri/ap/subsystems/navigation/OSAMNav.o
                                                  /home/lionel/paparazziProto1/var/Colibri/ap/subsystems/nav.o
                                                  /home/lionel/paparazziProto1/var/Colibri/ap/firmwares/fixedwing/main_ap.o
nav_reset_reference                               /home/lionel/paparazziProto1/var/Colibri/ap/subsystems/nav.o
nav_route_xy                                      /home/lionel/paparazziProto1/var/Colibri/ap/subsystems/nav.o
                                                  /home/lionel/paparazziProto1/var/Colibri/ap/subsystems/navigation/border_line.o
                                                  /home/lionel/paparazziProto1/var/Colibri/ap/subsystems/navigation/gls.o
                                                  /home/lionel/paparazziProto1/var/Colibri/ap/subsystems/navigation/poly_survey_adv.o
                                                  /home/lionel/paparazziProto1/var/Colibri/ap/subsystems/navigation/spiral.o
                                                  /home/lionel/paparazziProto1/var/Colibri/ap/subsystems/navigation/snav.o
                                                  /home/lionel/paparazziProto1/var/Colibri/ap/subsystems/navigation/OSAMNav.o
                                                  /home/lionel/paparazziProto1/var/Colibri/ap/subsystems/navigation/discsurvey.o
                                                  /home/lionel/paparazziProto1/var/Colibri/ap/subsystems/navigation/nav_line.o
                                                  /home/lionel/paparazziProto1/var/Colibri/ap/subsystems/navigation/nav_survey_rectangle.o
nav_segment_x_1                                   /home/lionel/paparazziProto1/var/Colibri/ap/subsystems/nav.o
                                                  /home/lionel/paparazziProto1/var/Colibri/ap/firmwares/fixedwing/main_ap.o
nav_segment_x_2                                   /home/lionel/paparazziProto1/var/Colibri/ap/subsystems/nav.o
                                                  /home/lionel/paparazziProto1/var/Colibri/ap/firmwares/fixedwing/main_ap.o
nav_segment_y_1                                   /home/lionel/paparazziProto1/var/Colibri/ap/subsystems/nav.o
                                                  /home/lionel/paparazziProto1/var/Colibri/ap/firmwares/fixedwing/main_ap.o
nav_segment_y_2                                   /home/lionel/paparazziProto1/var/Colibri/ap/subsystems/nav.o
                                                  /home/lionel/paparazziProto1/var/Colibri/ap/firmwares/fixedwing/main_ap.o
nav_shift                                         /home/lionel/paparazziProto1/var/Colibri/ap/firmwares/fixedwing/datalink.o
                                                  /home/lionel/paparazziProto1/var/Colibri/ap/subsystems/nav.o
                                                  /home/lionel/paparazziProto1/var/Colibri/ap/firmwares/fixedwing/main_ap.o
nav_stage                                         /home/lionel/paparazziProto1/var/Colibri/ap/firmwares/fixedwing/datalink.o
                                                  /home/lionel/paparazziProto1/var/Colibri/ap/subsystems/navigation/common_flight_plan.o
                                                  /home/lionel/paparazziProto1/var/Colibri/ap/subsystems/nav.o
                                                  /home/lionel/paparazziProto1/var/Colibri/ap/firmwares/fixedwing/main_ap.o
nav_survey_active                                 /home/lionel/paparazziProto1/var/Colibri/ap/subsystems/navigation/nav_survey_rectangle.o
                                                  /home/lionel/paparazziProto1/var/Colibri/ap/subsystems/nav.o
                                                  /home/lionel/paparazziProto1/var/Colibri/ap/firmwares/fixedwing/main_ap.o
nav_survey_east                                   /home/lionel/paparazziProto1/var/Colibri/ap/subsystems/navigation/nav_survey_rectangle.o
                                                  /home/lionel/paparazziProto1/var/Colibri/ap/subsystems/nav.o
                                                  /home/lionel/paparazziProto1/var/Colibri/ap/firmwares/fixedwing/main_ap.o
nav_survey_north                                  /home/lionel/paparazziProto1/var/Colibri/ap/subsystems/navigation/nav_survey_rectangle.o
                                                  /home/lionel/paparazziProto1/var/Colibri/ap/subsystems/nav.o
                                                  /home/lionel/paparazziProto1/var/Colibri/ap/firmwares/fixedwing/main_ap.o
nav_survey_rectangle                              /home/lionel/paparazziProto1/var/Colibri/ap/subsystems/navigation/nav_survey_rectangle.o
nav_survey_rectangle_init                         /home/lionel/paparazziProto1/var/Colibri/ap/subsystems/navigation/nav_survey_rectangle.o
nav_survey_shift                                  /home/lionel/paparazziProto1/var/Colibri/ap/subsystems/navigation/discsurvey.o
                                                  /home/lionel/paparazziProto1/var/Colibri/ap/subsystems/navigation/nav_survey_rectangle.o
                                                  /home/lionel/paparazziProto1/var/Colibri/ap/subsystems/nav.o
nav_survey_south                                  /home/lionel/paparazziProto1/var/Colibri/ap/subsystems/navigation/nav_survey_rectangle.o
                                                  /home/lionel/paparazziProto1/var/Colibri/ap/subsystems/nav.o
                                                  /home/lionel/paparazziProto1/var/Colibri/ap/firmwares/fixedwing/main_ap.o
nav_survey_west                                   /home/lionel/paparazziProto1/var/Colibri/ap/subsystems/navigation/nav_survey_rectangle.o
                                                  /home/lionel/paparazziProto1/var/Colibri/ap/subsystems/nav.o
                                                  /home/lionel/paparazziProto1/var/Colibri/ap/firmwares/fixedwing/main_ap.o
nav_throttle_setpoint                             /home/lionel/paparazziProto1/var/Colibri/ap/subsystems/navigation/OSAMNav.o
                                                  /home/lionel/paparazziProto1/var/Colibri/ap/subsystems/nav.o
                                                  /home/lionel/paparazziProto1/var/Colibri/ap/firmwares/fixedwing/main_ap.o
nav_update_waypoints_alt                          /home/lionel/paparazziProto1/var/Colibri/ap/subsystems/nav.o
nav_utm_east0                                     /home/lionel/paparazziProto1/var/Colibri/ap/subsystems/nav.o
                                                  /home/lionel/paparazziProto1/var/Colibri/ap/firmwares/fixedwing/datalink.o
                                                  /home/lionel/paparazziProto1/var/Colibri/ap/./estimator.o
                                                  /home/lionel/paparazziProto1/var/Colibri/ap/firmwares/fixedwing/main_ap.o
nav_utm_north0                                    /home/lionel/paparazziProto1/var/Colibri/ap/subsystems/nav.o
                                                  /home/lionel/paparazziProto1/var/Colibri/ap/firmwares/fixedwing/datalink.o
                                                  /home/lionel/paparazziProto1/var/Colibri/ap/./estimator.o
                                                  /home/lionel/paparazziProto1/var/Colibri/ap/firmwares/fixedwing/main_ap.o
nav_utm_zone0                                     /home/lionel/paparazziProto1/var/Colibri/ap/subsystems/nav.o
                                                  /home/lionel/paparazziProto1/var/Colibri/ap/subsystems/gps/gps_ubx.o
                                                  /home/lionel/paparazziProto1/var/Colibri/ap/firmwares/fixedwing/datalink.o
                                                  /home/lionel/paparazziProto1/var/Colibri/ap/firmwares/fixedwing/main_ap.o
nav_without_gps                                   /home/lionel/paparazziProto1/var/Colibri/ap/subsystems/nav.o
                                                  /home/lionel/paparazziProto1/var/Colibri/ap/firmwares/fixedwing/main_ap.o
navigation_task                                   /home/lionel/paparazziProto1/var/Colibri/ap/firmwares/fixedwing/main_ap.o
navigation_tid                                    /home/lionel/paparazziProto1/var/Colibri/ap/firmwares/fixedwing/main_ap.o
nb_waypoint                                       /home/lionel/paparazziProto1/var/Colibri/ap/subsystems/nav.o
                                                  /home/lionel/paparazziProto1/var/Colibri/ap/firmwares/fixedwing/main_ap.o
ned_of_ecef_point_d                               /home/lionel/paparazziProto1/var/Colibri/ap/math/pprz_geodetic_double.o
ned_of_ecef_point_f                               /home/lionel/paparazziProto1/var/Colibri/ap/math/pprz_geodetic_float.o
ned_of_ecef_point_i                               /home/lionel/paparazziProto1/var/Colibri/ap/math/pprz_geodetic_int.o
ned_of_ecef_vect_d                                /home/lionel/paparazziProto1/var/Colibri/ap/math/pprz_geodetic_double.o
ned_of_ecef_vect_f                                /home/lionel/paparazziProto1/var/Colibri/ap/math/pprz_geodetic_float.o
ned_of_ecef_vect_i                                /home/lionel/paparazziProto1/var/Colibri/ap/math/pprz_geodetic_int.o
ned_of_lla_point_f                                /home/lionel/paparazziProto1/var/Colibri/ap/math/pprz_geodetic_float.o
ned_of_lla_point_i                                /home/lionel/paparazziProto1/var/Colibri/ap/math/pprz_geodetic_int.o
ned_of_lla_vect_i                                 /home/lionel/paparazziProto1/var/Colibri/ap/math/pprz_geodetic_int.o
oval_status                                       /home/lionel/paparazziProto1/var/Colibri/ap/subsystems/nav.o
parse_rc_3ch_datalink                             /home/lionel/paparazziProto1/var/Colibri/ap/subsystems/radio_control/rc_datalink.o
                                                  /home/lionel/paparazziProto1/var/Colibri/ap/firmwares/fixedwing/datalink.o
parse_rc_4ch_datalink                             /home/lionel/paparazziProto1/var/Colibri/ap/subsystems/radio_control/rc_datalink.o
                                                  /home/lionel/paparazziProto1/var/Colibri/ap/firmwares/fixedwing/datalink.o
periodic_task_fbw                                 /home/lionel/paparazziProto1/var/Colibri/ap/firmwares/fixedwing/main_fbw.o
pers_settings                                     /home/lionel/paparazziProto1/var/Colibri/ap/subsystems/settings.o
persistent_read                                   /home/lionel/paparazziProto1/var/Colibri/ap/arch/lpc21/subsystems/settings_arch.o
persistent_write                                  /home/lionel/paparazziProto1/var/Colibri/ap/arch/lpc21/subsystems/settings_arch.o
poly_count                                        /home/lionel/paparazziProto1/var/Colibri/ap/subsystems/navigation/poly_survey_adv.o
poly_first                                        /home/lionel/paparazziProto1/var/Colibri/ap/subsystems/navigation/poly_survey_adv.o
poly_survey_adv                                   /home/lionel/paparazziProto1/var/Colibri/ap/subsystems/navigation/poly_survey_adv.o
pow                                               /opt/paparazzi/arm-multilib/lib/gcc/arm-none-eabi/4.6.2/../../../../arm-none-eabi/lib/thumb/libm.a(lib_a-w_pow.o)
                                                  /home/lionel/paparazziProto1/var/Colibri/ap/math/pprz_geodetic_double.o
                                                  /home/lionel/paparazziProto1/var/Colibri/ap/math/pprz_geodetic_float.o
power_switch                                      /home/lionel/paparazziProto1/var/Colibri/ap/firmwares/fixedwing/main_ap.o
powf                                              /opt/paparazzi/arm-multilib/lib/gcc/arm-none-eabi/4.6.2/../../../../arm-none-eabi/lib/thumb/libm.a(lib_a-wf_pow.o)
                                                  /home/lionel/paparazziProto1/var/Colibri/ap/math/pprz_geodetic_float.o
pprz_mode                                         /home/lionel/paparazziProto1/var/Colibri/ap/firmwares/fixedwing/main_ap.o
                                                  /home/lionel/paparazziProto1/var/Colibri/ap/firmwares/fixedwing/datalink.o
                                                  /home/lionel/paparazziProto1/var/Colibri/ap/subsystems/nav.o
pprz_tp                                           /home/lionel/paparazziProto1/var/Colibri/ap/subsystems/datalink/pprz_transport.o
                                                  /home/lionel/paparazziProto1/var/Colibri/ap/firmwares/fixedwing/main_ap.o
pprz_trig_int                                     /home/lionel/paparazziProto1/var/Colibri/ap/math/pprz_trig_int.o
psa_altitude                                      /home/lionel/paparazziProto1/var/Colibri/ap/subsystems/navigation/poly_survey_adv.o
psa_min_rad                                       /home/lionel/paparazziProto1/var/Colibri/ap/subsystems/navigation/poly_survey_adv.o
psa_shot_dist                                     /home/lionel/paparazziProto1/var/Colibri/ap/subsystems/navigation/poly_survey_adv.o
psa_stage                                         /home/lionel/paparazziProto1/var/Colibri/ap/subsystems/navigation/poly_survey_adv.o
psa_sweep_width                                   /home/lionel/paparazziProto1/var/Colibri/ap/subsystems/navigation/poly_survey_adv.o
rad_vec                                           /home/lionel/paparazziProto1/var/Colibri/ap/subsystems/navigation/poly_survey_adv.o
radio_control                                     /home/lionel/paparazziProto1/var/Colibri/ap/subsystems/radio_control.o
                                                  /home/lionel/paparazziProto1/var/Colibri/ap/firmwares/fixedwing/main_fbw.o
radio_control_impl_init                           /home/lionel/paparazziProto1/var/Colibri/ap/subsystems/radio_control/rc_datalink.o
                                                  /home/lionel/paparazziProto1/var/Colibri/ap/firmwares/fixedwing/main_fbw.o
rc_dl_frame_available                             /home/lionel/paparazziProto1/var/Colibri/ap/subsystems/radio_control/rc_datalink.o
                                                  /home/lionel/paparazziProto1/var/Colibri/ap/firmwares/fixedwing/main_fbw.o
rc_dl_values                                      /home/lionel/paparazziProto1/var/Colibri/ap/subsystems/radio_control/rc_datalink.o
                                                  /home/lionel/paparazziProto1/var/Colibri/ap/firmwares/fixedwing/main_fbw.o
rc_pitch                                          /home/lionel/paparazziProto1/var/Colibri/ap/subsystems/nav.o
reporting_task                                    /home/lionel/paparazziProto1/var/Colibri/ap/firmwares/fixedwing/main_ap.o
reset                                             /home/lionel/paparazziProto1/var/Colibri/ap/crt0.o
                                                  /home/lionel/paparazziProto1/var/Colibri/ap/arch/lpc21/mcu_arch.o
restoreFIQ                                        /home/lionel/paparazziProto1/var/Colibri/ap/arch/lpc21/armVIC.o
restoreIRQ                                        /home/lionel/paparazziProto1/var/Colibri/ap/arch/lpc21/armVIC.o
                                                  /home/lionel/paparazziProto1/var/Colibri/ap/arch/lpc21/mcu_periph/uart_arch.o
ret_end                                           /home/lionel/paparazziProto1/var/Colibri/ap/subsystems/navigation/poly_survey_adv.o
ret_start                                         /home/lionel/paparazziProto1/var/Colibri/ap/subsystems/navigation/poly_survey_adv.o
return_angle                                      /home/lionel/paparazziProto1/var/Colibri/ap/subsystems/navigation/poly_survey_adv.o
rint                                              /opt/paparazzi/arm-multilib/lib/gcc/arm-none-eabi/4.6.2/../../../../arm-none-eabi/lib/thumb/libm.a(lib_a-s_rint.o)
                                                  /opt/paparazzi/arm-multilib/lib/gcc/arm-none-eabi/4.6.2/../../../../arm-none-eabi/lib/thumb/libm.a(lib_a-wf_pow.o)
                                                  /opt/paparazzi/arm-multilib/lib/gcc/arm-none-eabi/4.6.2/../../../../arm-none-eabi/lib/thumb/libm.a(lib_a-w_pow.o)
                                                  /home/lionel/paparazziProto1/var/Colibri/ap/math/pprz_geodetic_int.o
route_ap_time                                     /home/lionel/paparazziProto1/var/Colibri/ap/firmwares/fixedwing/stabilization/stabilization_attitude.o
                                                  /home/lionel/paparazziProto1/var/Colibri/ap/firmwares/fixedwing/datalink.o
                                                  /home/lionel/paparazziProto1/var/Colibri/ap/subsystems/nav.o
                                                  /home/lionel/paparazziProto1/var/Colibri/ap/firmwares/fixedwing/main_ap.o
scalbn                                            /opt/paparazzi/arm-multilib/lib/gcc/arm-none-eabi/4.6.2/../../../../arm-none-eabi/lib/thumb/libm.a(lib_a-s_scalbn.o)
                                                  /opt/paparazzi/arm-multilib/lib/gcc/arm-none-eabi/4.6.2/../../../../arm-none-eabi/lib/thumb/libm.a(lib_a-k_rem_pio2.o)
                                                  /opt/paparazzi/arm-multilib/lib/gcc/arm-none-eabi/4.6.2/../../../../arm-none-eabi/lib/thumb/libm.a(lib_a-e_pow.o)
scalbnf                                           /opt/paparazzi/arm-multilib/lib/gcc/arm-none-eabi/4.6.2/../../../../arm-none-eabi/lib/thumb/libm.a(lib_a-sf_scalbn.o)
                                                  /opt/paparazzi/arm-multilib/lib/gcc/arm-none-eabi/4.6.2/../../../../arm-none-eabi/lib/thumb/libm.a(lib_a-kf_rem_pio2.o)
                                                  /opt/paparazzi/arm-multilib/lib/gcc/arm-none-eabi/4.6.2/../../../../arm-none-eabi/lib/thumb/libm.a(lib_a-ef_pow.o)
seg_center1                                       /home/lionel/paparazziProto1/var/Colibri/ap/subsystems/navigation/poly_survey_adv.o
seg_center2                                       /home/lionel/paparazziProto1/var/Colibri/ap/subsystems/navigation/poly_survey_adv.o
seg_end                                           /home/lionel/paparazziProto1/var/Colibri/ap/subsystems/navigation/poly_survey_adv.o
seg_start                                         /home/lionel/paparazziProto1/var/Colibri/ap/subsystems/navigation/poly_survey_adv.o
segment_angle                                     /home/lionel/paparazziProto1/var/Colibri/ap/subsystems/navigation/poly_survey_adv.o
sensors_task                                      /home/lionel/paparazziProto1/var/Colibri/ap/firmwares/fixedwing/main_ap.o
sensors_tid                                       /home/lionel/paparazziProto1/var/Colibri/ap/firmwares/fixedwing/main_ap.o
servos_4017_idx                                   /home/lionel/paparazziProto1/var/Colibri/ap/arch/lpc21/servos_4017_hw.o
                                                  /home/lionel/paparazziProto1/var/Colibri/ap/arch/lpc21/mcu_periph/sys_time_arch.o
servos_values                                     /home/lionel/paparazziProto1/var/Colibri/ap/arch/lpc21/servos_4017_hw.o
                                                  /home/lionel/paparazziProto1/var/Colibri/ap/firmwares/fixedwing/main_fbw.o
                                                  /home/lionel/paparazziProto1/var/Colibri/ap/arch/lpc21/mcu_periph/sys_time_arch.o
settings_init                                     /home/lionel/paparazziProto1/var/Colibri/ap/subsystems/settings.o
                                                  /home/lionel/paparazziProto1/var/Colibri/ap/firmwares/fixedwing/main_ap.o
settings_store                                    /home/lionel/paparazziProto1/var/Colibri/ap/subsystems/settings.o
settings_store_now                                /home/lionel/paparazziProto1/var/Colibri/ap/subsystems/settings.o
sin                                               /opt/paparazzi/arm-multilib/lib/gcc/arm-none-eabi/4.6.2/../../../../arm-none-eabi/lib/thumb/libm.a(lib_a-s_sin.o)
                                                  /home/lionel/paparazziProto1/var/Colibri/ap/subsystems/navigation/border_line.o
                                                  /home/lionel/paparazziProto1/var/Colibri/ap/subsystems/navigation/snav.o
                                                  /home/lionel/paparazziProto1/var/Colibri/ap/subsystems/navigation/OSAMNav.o
                                                  /home/lionel/paparazziProto1/var/Colibri/ap/subsystems/navigation/discsurvey.o
                                                  /home/lionel/paparazziProto1/var/Colibri/ap/subsystems/navigation/nav_cube.o
                                                  /home/lionel/paparazziProto1/var/Colibri/ap/subsystems/nav.o
                                                  /home/lionel/paparazziProto1/var/Colibri/ap/math/pprz_geodetic_double.o
                                                  /home/lionel/paparazziProto1/var/Colibri/ap/math/pprz_geodetic_float.o
sinf                                              /opt/paparazzi/arm-multilib/lib/gcc/arm-none-eabi/4.6.2/../../../../arm-none-eabi/lib/thumb/libm.a(lib_a-sf_sin.o)
                                                  /home/lionel/paparazziProto1/var/Colibri/ap/subsystems/ahrs/ahrs_infrared.o
                                                  /home/lionel/paparazziProto1/var/Colibri/ap/math/pprz_geodetic_double.o
                                                  /home/lionel/paparazziProto1/var/Colibri/ap/math/pprz_geodetic_float.o
                                                  /home/lionel/paparazziProto1/var/Colibri/ap/math/pprz_geodetic_int.o
sinh                                              /opt/paparazzi/arm-multilib/lib/gcc/arm-none-eabi/4.6.2/../../../../arm-none-eabi/lib/thumb/libm.a(lib_a-w_sinh.o)
                                                  /home/lionel/paparazziProto1/var/Colibri/ap/math/pprz_geodetic_double.o
                                                  /home/lionel/paparazziProto1/var/Colibri/ap/math/pprz_geodetic_float.o
snav_circle1                                      /home/lionel/paparazziProto1/var/Colibri/ap/subsystems/navigation/snav.o
snav_circle2                                      /home/lionel/paparazziProto1/var/Colibri/ap/subsystems/navigation/snav.o
snav_desired_tow                                  /home/lionel/paparazziProto1/var/Colibri/ap/subsystems/navigation/snav.o
snav_init                                         /home/lionel/paparazziProto1/var/Colibri/ap/subsystems/navigation/snav.o
snav_on_time                                      /home/lionel/paparazziProto1/var/Colibri/ap/subsystems/navigation/snav.o
snav_route                                        /home/lionel/paparazziProto1/var/Colibri/ap/subsystems/navigation/snav.o
sqrt                                              /opt/paparazzi/arm-multilib/lib/gcc/arm-none-eabi/4.6.2/../../../../arm-none-eabi/lib/thumb/libm.a(lib_a-w_sqrt.o)
                                                  /home/lionel/paparazziProto1/var/Colibri/ap/subsystems/navigation/border_line.o
                                                  /home/lionel/paparazziProto1/var/Colibri/ap/subsystems/navigation/gls.o
                                                  /home/lionel/paparazziProto1/var/Colibri/ap/subsystems/navigation/poly_survey_adv.o
                                                  /home/lionel/paparazziProto1/var/Colibri/ap/subsystems/navigation/spiral.o
                                                  /home/lionel/paparazziProto1/var/Colibri/ap/subsystems/navigation/snav.o
                                                  /home/lionel/paparazziProto1/var/Colibri/ap/subsystems/navigation/OSAMNav.o
                                                  /home/lionel/paparazziProto1/var/Colibri/ap/subsystems/navigation/discsurvey.o
                                                  /home/lionel/paparazziProto1/var/Colibri/ap/subsystems/navigation/nav_line.o
                                                  /home/lionel/paparazziProto1/var/Colibri/ap/subsystems/nav.o
                                                  /home/lionel/paparazziProto1/var/Colibri/ap/math/pprz_geodetic_double.o
sqrtf                                             /opt/paparazzi/arm-multilib/lib/gcc/arm-none-eabi/4.6.2/../../../../arm-none-eabi/lib/thumb/libm.a(lib_a-wf_sqrt.o)
                                                  /home/lionel/paparazziProto1/var/Colibri/ap/math/pprz_geodetic_double.o
                                                  /home/lionel/paparazziProto1/var/Colibri/ap/math/pprz_geodetic_float.o
stage_time                                        /home/lionel/paparazziProto1/var/Colibri/ap/subsystems/navigation/OSAMNav.o
                                                  /home/lionel/paparazziProto1/var/Colibri/ap/subsystems/navigation/common_flight_plan.o
                                                  /home/lionel/paparazziProto1/var/Colibri/ap/subsystems/nav.o
                                                  /home/lionel/paparazziProto1/var/Colibri/ap/firmwares/fixedwing/main_ap.o
start                                             /home/lionel/paparazziProto1/var/Colibri/ap/crt0.o
sweep_vec                                         /home/lionel/paparazziProto1/var/Colibri/ap/subsystems/navigation/poly_survey_adv.o
sys_time                                          /home/lionel/paparazziProto1/var/Colibri/ap/firmwares/fixedwing/main_ap.o
                                                  /home/lionel/paparazziProto1/var/Colibri/ap/firmwares/fixedwing/main_fbw.o
                                                  /home/lionel/paparazziProto1/var/Colibri/ap/arch/lpc21/mcu_periph/sys_time_arch.o
                                                  /home/lionel/paparazziProto1/var/Colibri/ap/mcu_periph/sys_time.o
sys_time_arch_init                                /home/lionel/paparazziProto1/var/Colibri/ap/arch/lpc21/mcu_periph/sys_time_arch.o
                                                  /home/lionel/paparazziProto1/var/Colibri/ap/mcu_periph/sys_time.o
sys_time_cancel_timer                             /home/lionel/paparazziProto1/var/Colibri/ap/mcu_periph/sys_time.o
sys_time_init                                     /home/lionel/paparazziProto1/var/Colibri/ap/mcu_periph/sys_time.o
                                                  /home/lionel/paparazziProto1/var/Colibri/ap/mcu.o
sys_time_register_timer                           /home/lionel/paparazziProto1/var/Colibri/ap/mcu_periph/sys_time.o
                                                  /home/lionel/paparazziProto1/var/Colibri/ap/firmwares/fixedwing/main_ap.o
                                                  /home/lionel/paparazziProto1/var/Colibri/ap/firmwares/fixedwing/main_fbw.o
sys_time_update_timer                             /home/lionel/paparazziProto1/var/Colibri/ap/mcu_periph/sys_time.o
tan                                               /opt/paparazzi/arm-multilib/lib/gcc/arm-none-eabi/4.6.2/../../../../arm-none-eabi/lib/thumb/libm.a(lib_a-s_tan.o)
                                                  /home/lionel/paparazziProto1/var/Colibri/ap/subsystems/navigation/gls.o
                                                  /home/lionel/paparazziProto1/var/Colibri/ap/subsystems/navigation/OSAMNav.o
                                                  /home/lionel/paparazziProto1/var/Colibri/ap/math/pprz_geodetic_double.o
                                                  /home/lionel/paparazziProto1/var/Colibri/ap/math/pprz_geodetic_float.o
tanf                                              /opt/paparazzi/arm-multilib/lib/gcc/arm-none-eabi/4.6.2/../../../../arm-none-eabi/lib/thumb/libm.a(lib_a-sf_tan.o)
                                                  /home/lionel/paparazziProto1/var/Colibri/ap/subsystems/navigation/poly_survey_adv.o
target_speed                                      /home/lionel/paparazziProto1/var/Colibri/ap/subsystems/navigation/gls.o
telemetry_mode_Ap                                 /home/lionel/paparazziProto1/var/Colibri/ap/firmwares/fixedwing/ap_downlink.o
                                                  /home/lionel/paparazziProto1/var/Colibri/ap/firmwares/fixedwing/datalink.o
                                                  /home/lionel/paparazziProto1/var/Colibri/ap/firmwares/fixedwing/main_ap.o
telemetry_mode_Fbw                                /home/lionel/paparazziProto1/var/Colibri/ap/firmwares/fixedwing/fbw_downlink.o
                                                  /home/lionel/paparazziProto1/var/Colibri/ap/firmwares/fixedwing/datalink.o
                                                  /home/lionel/paparazziProto1/var/Colibri/ap/firmwares/fixedwing/main_ap.o
                                                  /home/lionel/paparazziProto1/var/Colibri/ap/firmwares/fixedwing/main_fbw.o
telemetry_tid                                     /home/lionel/paparazziProto1/var/Colibri/ap/firmwares/fixedwing/main_ap.o
the_acs                                           /home/lionel/paparazziProto1/var/Colibri/ap/firmwares/fixedwing/datalink.o
                                                  /home/lionel/paparazziProto1/var/Colibri/ap/subsystems/navigation/traffic_info.o
the_acs_id                                        /home/lionel/paparazziProto1/var/Colibri/ap/firmwares/fixedwing/datalink.o
                                                  /home/lionel/paparazziProto1/var/Colibri/ap/subsystems/navigation/traffic_info.o
time_since_last_ap                                /home/lionel/paparazziProto1/var/Colibri/ap/firmwares/fixedwing/main_fbw.o
                                                  /home/lionel/paparazziProto1/var/Colibri/ap/./inter_mcu.o
too_far_from_home                                 /home/lionel/paparazziProto1/var/Colibri/ap/subsystems/nav.o
                                                  /home/lionel/paparazziProto1/var/Colibri/ap/firmwares/fixedwing/main_ap.o
traffic_info_init                                 /home/lionel/paparazziProto1/var/Colibri/ap/subsystems/navigation/traffic_info.o
                                                  /home/lionel/paparazziProto1/var/Colibri/ap/firmwares/fixedwing/main_ap.o
uart0                                             /home/lionel/paparazziProto1/var/Colibri/ap/subsystems/gps/gps_ubx.o
                                                  /home/lionel/paparazziProto1/var/Colibri/ap/arch/lpc21/mcu_periph/uart_arch.o
                                                  /home/lionel/paparazziProto1/var/Colibri/ap/mcu_periph/uart.o
                                                  /home/lionel/paparazziProto1/var/Colibri/ap/firmwares/fixedwing/main_ap.o
uart0_ISR                                         /home/lionel/paparazziProto1/var/Colibri/ap/arch/lpc21/mcu_periph/uart_arch.o
uart0_init                                        /home/lionel/paparazziProto1/var/Colibri/ap/arch/lpc21/mcu_periph/uart_arch.o
                                                  /home/lionel/paparazziProto1/var/Colibri/ap/mcu.o
uart1                                             /home/lionel/paparazziProto1/var/Colibri/ap/firmwares/fixedwing/datalink.o
                                                  /home/lionel/paparazziProto1/var/Colibri/ap/arch/lpc21/mcu_periph/uart_arch.o
                                                  /home/lionel/paparazziProto1/var/Colibri/ap/mcu_periph/uart.o
                                                  /home/lionel/paparazziProto1/var/Colibri/ap/firmwares/fixedwing/main_ap.o
                                                  /home/lionel/paparazziProto1/var/Colibri/ap/firmwares/fixedwing/main_fbw.o
uart1_ISR                                         /home/lionel/paparazziProto1/var/Colibri/ap/arch/lpc21/mcu_periph/uart_arch.o
uart1_init                                        /home/lionel/paparazziProto1/var/Colibri/ap/arch/lpc21/mcu_periph/uart_arch.o
                                                  /home/lionel/paparazziProto1/var/Colibri/ap/mcu.o
uart_check_free_space                             /home/lionel/paparazziProto1/var/Colibri/ap/mcu_periph/uart.o
                                                  /home/lionel/paparazziProto1/var/Colibri/ap/firmwares/fixedwing/datalink.o
                                                  /home/lionel/paparazziProto1/var/Colibri/ap/firmwares/fixedwing/main_ap.o
                                                  /home/lionel/paparazziProto1/var/Colibri/ap/firmwares/fixedwing/main_fbw.o
uart_periph_init                                  /home/lionel/paparazziProto1/var/Colibri/ap/mcu_periph/uart.o
                                                  /home/lionel/paparazziProto1/var/Colibri/ap/arch/lpc21/mcu_periph/uart_arch.o
uart_periph_set_baudrate                          /home/lionel/paparazziProto1/var/Colibri/ap/arch/lpc21/mcu_periph/uart_arch.o
uart_transmit                                     /home/lionel/paparazziProto1/var/Colibri/ap/arch/lpc21/mcu_periph/uart_arch.o
                                                  /home/lionel/paparazziProto1/var/Colibri/ap/subsystems/gps/gps_ubx.o
                                                  /home/lionel/paparazziProto1/var/Colibri/ap/firmwares/fixedwing/datalink.o
                                                  /home/lionel/paparazziProto1/var/Colibri/ap/firmwares/fixedwing/main_ap.o
                                                  /home/lionel/paparazziProto1/var/Colibri/ap/firmwares/fixedwing/main_fbw.o
ubxsend_cfg_rst                                   /home/lionel/paparazziProto1/var/Colibri/ap/subsystems/gps/gps_ubx.o
utm_of_lla_f                                      /home/lionel/paparazziProto1/var/Colibri/ap/math/pprz_geodetic_float.o
                                                  /home/lionel/paparazziProto1/var/Colibri/ap/subsystems/gps/gps_ubx.o
                                                  /home/lionel/paparazziProto1/var/Colibri/ap/firmwares/fixedwing/datalink.o
                                                  /home/lionel/paparazziProto1/var/Colibri/ap/subsystems/nav.o
v_ctl_altitude_error                              /home/lionel/paparazziProto1/var/Colibri/ap/firmwares/fixedwing/guidance/guidance_v.o
                                                  /home/lionel/paparazziProto1/var/Colibri/ap/firmwares/fixedwing/stabilization/stabilization_attitude.o
v_ctl_altitude_loop                               /home/lionel/paparazziProto1/var/Colibri/ap/firmwares/fixedwing/guidance/guidance_v.o
                                                  /home/lionel/paparazziProto1/var/Colibri/ap/firmwares/fixedwing/main_ap.o
v_ctl_altitude_max_climb                          /home/lionel/paparazziProto1/var/Colibri/ap/firmwares/fixedwing/guidance/guidance_v.o
v_ctl_altitude_pgain                              /home/lionel/paparazziProto1/var/Colibri/ap/firmwares/fixedwing/datalink.o
                                                  /home/lionel/paparazziProto1/var/Colibri/ap/subsystems/navigation/gls.o
                                                  /home/lionel/paparazziProto1/var/Colibri/ap/firmwares/fixedwing/guidance/guidance_v.o
                                                  /home/lionel/paparazziProto1/var/Colibri/ap/firmwares/fixedwing/main_ap.o
v_ctl_altitude_pre_climb                          /home/lionel/paparazziProto1/var/Colibri/ap/subsystems/navigation/border_line.o
                                                  /home/lionel/paparazziProto1/var/Colibri/ap/subsystems/navigation/gls.o
                                                  /home/lionel/paparazziProto1/var/Colibri/ap/subsystems/navigation/poly_survey_adv.o
                                                  /home/lionel/paparazziProto1/var/Colibri/ap/subsystems/navigation/snav.o
                                                  /home/lionel/paparazziProto1/var/Colibri/ap/subsystems/navigation/OSAMNav.o
                                                  /home/lionel/paparazziProto1/var/Colibri/ap/subsystems/navigation/discsurvey.o
                                                  /home/lionel/paparazziProto1/var/Colibri/ap/subsystems/navigation/nav_line.o
                                                  /home/lionel/paparazziProto1/var/Colibri/ap/subsystems/navigation/nav_survey_rectangle.o
                                                  /home/lionel/paparazziProto1/var/Colibri/ap/subsystems/nav.o
                                                  /home/lionel/paparazziProto1/var/Colibri/ap/firmwares/fixedwing/guidance/guidance_v.o
v_ctl_altitude_pre_climb_correction               /home/lionel/paparazziProto1/var/Colibri/ap/firmwares/fixedwing/guidance/guidance_v.o
v_ctl_altitude_setpoint                           /home/lionel/paparazziProto1/var/Colibri/ap/subsystems/nav.o
                                                  /home/lionel/paparazziProto1/var/Colibri/ap/firmwares/fixedwing/guidance/guidance_v.o
                                                  /home/lionel/paparazziProto1/var/Colibri/ap/firmwares/fixedwing/main_ap.o
v_ctl_auto_pitch_igain                            /home/lionel/paparazziProto1/var/Colibri/ap/firmwares/fixedwing/guidance/guidance_v.o
v_ctl_auto_pitch_pgain                            /home/lionel/paparazziProto1/var/Colibri/ap/firmwares/fixedwing/guidance/guidance_v.o
v_ctl_auto_pitch_sum_err                          /home/lionel/paparazziProto1/var/Colibri/ap/firmwares/fixedwing/guidance/guidance_v.o
v_ctl_auto_throttle_climb_throttle_increment      /home/lionel/paparazziProto1/var/Colibri/ap/firmwares/fixedwing/datalink.o
                                                  /home/lionel/paparazziProto1/var/Colibri/ap/firmwares/fixedwing/guidance/guidance_v.o
                                                  /home/lionel/paparazziProto1/var/Colibri/ap/firmwares/fixedwing/main_ap.o
v_ctl_auto_throttle_cruise_throttle               /home/lionel/paparazziProto1/var/Colibri/ap/firmwares/fixedwing/datalink.o
                                                  /home/lionel/paparazziProto1/var/Colibri/ap/firmwares/fixedwing/guidance/guidance_v.o
                                                  /home/lionel/paparazziProto1/var/Colibri/ap/firmwares/fixedwing/stabilization/stabilization_attitude.o
                                                  /home/lionel/paparazziProto1/var/Colibri/ap/firmwares/fixedwing/main_ap.o
v_ctl_auto_throttle_dash_trim                     /home/lionel/paparazziProto1/var/Colibri/ap/firmwares/fixedwing/stabilization/stabilization_attitude.o
v_ctl_auto_throttle_dgain                         /home/lionel/paparazziProto1/var/Colibri/ap/firmwares/fixedwing/datalink.o
                                                  /home/lionel/paparazziProto1/var/Colibri/ap/firmwares/fixedwing/guidance/guidance_v.o
                                                  /home/lionel/paparazziProto1/var/Colibri/ap/firmwares/fixedwing/main_ap.o
v_ctl_auto_throttle_igain                         /home/lionel/paparazziProto1/var/Colibri/ap/firmwares/fixedwing/datalink.o
                                                  /home/lionel/paparazziProto1/var/Colibri/ap/firmwares/fixedwing/guidance/guidance_v.o
                                                  /home/lionel/paparazziProto1/var/Colibri/ap/firmwares/fixedwing/main_ap.o
v_ctl_auto_throttle_loiter_trim                   /home/lionel/paparazziProto1/var/Colibri/ap/firmwares/fixedwing/stabilization/stabilization_attitude.o
v_ctl_auto_throttle_max_cruise_throttle           /home/lionel/paparazziProto1/var/Colibri/ap/firmwares/fixedwing/datalink.o
                                                  /home/lionel/paparazziProto1/var/Colibri/ap/firmwares/fixedwing/guidance/guidance_v.o
v_ctl_auto_throttle_min_cruise_throttle           /home/lionel/paparazziProto1/var/Colibri/ap/firmwares/fixedwing/datalink.o
                                                  /home/lionel/paparazziProto1/var/Colibri/ap/firmwares/fixedwing/guidance/guidance_v.o
v_ctl_auto_throttle_nominal_cruise_throttle       /home/lionel/paparazziProto1/var/Colibri/ap/firmwares/fixedwing/datalink.o
                                                  /home/lionel/paparazziProto1/var/Colibri/ap/firmwares/fixedwing/guidance/guidance_v.o
                                                  /home/lionel/paparazziProto1/var/Colibri/ap/firmwares/fixedwing/stabilization/stabilization_attitude.o
v_ctl_auto_throttle_pgain                         /home/lionel/paparazziProto1/var/Colibri/ap/firmwares/fixedwing/datalink.o
                                                  /home/lionel/paparazziProto1/var/Colibri/ap/firmwares/fixedwing/guidance/guidance_v.o
                                                  /home/lionel/paparazziProto1/var/Colibri/ap/firmwares/fixedwing/main_ap.o
v_ctl_auto_throttle_pitch_of_vz_dgain             /home/lionel/paparazziProto1/var/Colibri/ap/firmwares/fixedwing/datalink.o
                                                  /home/lionel/paparazziProto1/var/Colibri/ap/firmwares/fixedwing/guidance/guidance_v.o
                                                  /home/lionel/paparazziProto1/var/Colibri/ap/firmwares/fixedwing/main_ap.o
v_ctl_auto_throttle_pitch_of_vz_pgain             /home/lionel/paparazziProto1/var/Colibri/ap/firmwares/fixedwing/datalink.o
                                                  /home/lionel/paparazziProto1/var/Colibri/ap/firmwares/fixedwing/guidance/guidance_v.o
                                                  /home/lionel/paparazziProto1/var/Colibri/ap/firmwares/fixedwing/main_ap.o
v_ctl_auto_throttle_submode                       /home/lionel/paparazziProto1/var/Colibri/ap/subsystems/nav.o
                                                  /home/lionel/paparazziProto1/var/Colibri/ap/firmwares/fixedwing/guidance/guidance_v.o
                                                  /home/lionel/paparazziProto1/var/Colibri/ap/firmwares/fixedwing/main_ap.o
v_ctl_auto_throttle_sum_err                       /home/lionel/paparazziProto1/var/Colibri/ap/firmwares/fixedwing/guidance/guidance_v.o
                                                  /home/lionel/paparazziProto1/var/Colibri/ap/firmwares/fixedwing/main_ap.o
v_ctl_climb_loop                                  /home/lionel/paparazziProto1/var/Colibri/ap/firmwares/fixedwing/guidance/guidance_v.o
                                                  /home/lionel/paparazziProto1/var/Colibri/ap/firmwares/fixedwing/main_ap.o
v_ctl_climb_mode                                  /home/lionel/paparazziProto1/var/Colibri/ap/subsystems/navigation/border_line.o
                                                  /home/lionel/paparazziProto1/var/Colibri/ap/subsystems/navigation/gls.o
                                                  /home/lionel/paparazziProto1/var/Colibri/ap/subsystems/navigation/poly_survey_adv.o
                                                  /home/lionel/paparazziProto1/var/Colibri/ap/subsystems/navigation/snav.o
                                                  /home/lionel/paparazziProto1/var/Colibri/ap/subsystems/navigation/OSAMNav.o
                                                  /home/lionel/paparazziProto1/var/Colibri/ap/subsystems/navigation/discsurvey.o
                                                  /home/lionel/paparazziProto1/var/Colibri/ap/subsystems/navigation/nav_line.o
                                                  /home/lionel/paparazziProto1/var/Colibri/ap/subsystems/navigation/nav_survey_rectangle.o
                                                  /home/lionel/paparazziProto1/var/Colibri/ap/subsystems/nav.o
                                                  /home/lionel/paparazziProto1/var/Colibri/ap/firmwares/fixedwing/guidance/guidance_v.o
v_ctl_climb_setpoint                              /home/lionel/paparazziProto1/var/Colibri/ap/firmwares/fixedwing/guidance/guidance_v.o
                                                  /home/lionel/paparazziProto1/var/Colibri/ap/firmwares/fixedwing/main_ap.o
v_ctl_init                                        /home/lionel/paparazziProto1/var/Colibri/ap/firmwares/fixedwing/guidance/guidance_v.o
                                                  /home/lionel/paparazziProto1/var/Colibri/ap/firmwares/fixedwing/main_ap.o
v_ctl_mode                                        /home/lionel/paparazziProto1/var/Colibri/ap/subsystems/navigation/border_line.o
                                                  /home/lionel/paparazziProto1/var/Colibri/ap/subsystems/navigation/gls.o
                                                  /home/lionel/paparazziProto1/var/Colibri/ap/subsystems/navigation/poly_survey_adv.o
                                                  /home/lionel/paparazziProto1/var/Colibri/ap/subsystems/navigation/snav.o
                                                  /home/lionel/paparazziProto1/var/Colibri/ap/subsystems/navigation/OSAMNav.o
                                                  /home/lionel/paparazziProto1/var/Colibri/ap/subsystems/navigation/discsurvey.o
                                                  /home/lionel/paparazziProto1/var/Colibri/ap/subsystems/navigation/nav_line.o
                                                  /home/lionel/paparazziProto1/var/Colibri/ap/subsystems/navigation/nav_survey_rectangle.o
                                                  /home/lionel/paparazziProto1/var/Colibri/ap/subsystems/nav.o
                                                  /home/lionel/paparazziProto1/var/Colibri/ap/firmwares/fixedwing/guidance/guidance_v.o
                                                  /home/lionel/paparazziProto1/var/Colibri/ap/firmwares/fixedwing/main_ap.o
v_ctl_throttle_setpoint                           /home/lionel/paparazziProto1/var/Colibri/ap/firmwares/fixedwing/guidance/guidance_v.o
                                                  /home/lionel/paparazziProto1/var/Colibri/ap/firmwares/fixedwing/stabilization/stabilization_attitude.o
                                                  /home/lionel/paparazziProto1/var/Colibri/ap/firmwares/fixedwing/main_ap.o
v_ctl_throttle_slew                               /home/lionel/paparazziProto1/var/Colibri/ap/firmwares/fixedwing/guidance/guidance_v.o
                                                  /home/lionel/paparazziProto1/var/Colibri/ap/firmwares/fixedwing/main_ap.o
v_ctl_throttle_slewed                             /home/lionel/paparazziProto1/var/Colibri/ap/firmwares/fixedwing/guidance/guidance_v.o
                                                  /home/lionel/paparazziProto1/var/Colibri/ap/firmwares/fixedwing/main_ap.o
vsupply                                           /home/lionel/paparazziProto1/var/Colibri/ap/firmwares/fixedwing/main_ap.o
waypoints                                         /home/lionel/paparazziProto1/var/Colibri/ap/subsystems/nav.o
                                                  /home/lionel/paparazziProto1/var/Colibri/ap/firmwares/fixedwing/datalink.o
                                                  /home/lionel/paparazziProto1/var/Colibri/ap/subsystems/navigation/border_line.o
                                                  /home/lionel/paparazziProto1/var/Colibri/ap/subsystems/navigation/gls.o
                                                  /home/lionel/paparazziProto1/var/Colibri/ap/subsystems/navigation/poly_survey_adv.o
                                                  /home/lionel/paparazziProto1/var/Colibri/ap/subsystems/navigation/spiral.o
                                                  /home/lionel/paparazziProto1/var/Colibri/ap/subsystems/navigation/snav.o
                                                  /home/lionel/paparazziProto1/var/Colibri/ap/subsystems/navigation/OSAMNav.o
                                                  /home/lionel/paparazziProto1/var/Colibri/ap/subsystems/navigation/discsurvey.o
                                                  /home/lionel/paparazziProto1/var/Colibri/ap/subsystems/navigation/nav_cube.o
                                                  /home/lionel/paparazziProto1/var/Colibri/ap/subsystems/navigation/nav_line.o
                                                  /home/lionel/paparazziProto1/var/Colibri/ap/subsystems/navigation/nav_survey_rectangle.o
                                                  /home/lionel/paparazziProto1/var/Colibri/ap/firmwares/fixedwing/main_ap.o
wind_east                                         /home/lionel/paparazziProto1/var/Colibri/ap/subsystems/ahrs/ahrs_infrared.o
                                                  /home/lionel/paparazziProto1/var/Colibri/ap/firmwares/fixedwing/datalink.o
                                                  /home/lionel/paparazziProto1/var/Colibri/ap/subsystems/navigation/snav.o
                                                  /home/lionel/paparazziProto1/var/Colibri/ap/subsystems/navigation/discsurvey.o
                                                  /home/lionel/paparazziProto1/var/Colibri/ap/./estimator.o
wind_north                                        /home/lionel/paparazziProto1/var/Colibri/ap/subsystems/ahrs/ahrs_infrared.o
                                                  /home/lionel/paparazziProto1/var/Colibri/ap/firmwares/fixedwing/datalink.o
                                                  /home/lionel/paparazziProto1/var/Colibri/ap/subsystems/navigation/snav.o
                                                  /home/lionel/paparazziProto1/var/Colibri/ap/subsystems/navigation/discsurvey.o
                                                  /home/lionel/paparazziProto1/var/Colibri/ap/./estimator.o
