   1              		.cpu arm7tdmi
   2              		.fpu softvfp
   3              		.eabi_attribute 20, 1
   4              		.eabi_attribute 21, 1
   5              		.eabi_attribute 23, 3
   6              		.eabi_attribute 24, 1
   7              		.eabi_attribute 25, 1
   8              		.eabi_attribute 26, 1
   9              		.eabi_attribute 30, 4
  10              		.eabi_attribute 34, 0
  11              		.eabi_attribute 18, 4
  12              		.file	"datalink.c"
  13              		.global	__aeabi_i2f
  14              		.global	__aeabi_fdiv
  15              		.global	__aeabi_fsub
  16              		.global	__aeabi_f2d
  17              		.global	__aeabi_ddiv
  18              		.global	__aeabi_dmul
  19              		.global	__aeabi_d2f
  20              		.global	__aeabi_ui2f
  21              		.global	__aeabi_i2d
  22              		.global	__aeabi_fadd
  23              		.global	__aeabi_d2uiz
  24              		.global	__aeabi_f2uiz
  25              		.global	__aeabi_fcmpeq
  26              		.global	__aeabi_fcmpgt
  27              		.global	__aeabi_fcmplt
  28              		.section	.text.dl_parse_msg,"ax",%progbits
  29              		.align	2
  30              		.global	dl_parse_msg
  32              	dl_parse_msg:
  33              		@ Function supports interworking.
  34              		@ args = 0, pretend = 0, frame = 88
  35              		@ frame_needed = 0, uses_anonymous_args = 0
  36 0000 F04F2DE9 		stmfd	sp!, {r4, r5, r6, r7, r8, r9, r10, fp, lr}
  37 0004 F44F9FE5 		ldr	r4, .L132
  38 0008 0150D4E5 		ldrb	r5, [r4, #1]	@ zero_extendqisi2
  39 000c F03F9FE5 		ldr	r3, .L132+4
  40 0010 0020A0E3 		mov	r2, #0
  41 0014 080055E3 		cmp	r5, #8
  42 0018 64D04DE2 		sub	sp, sp, #100
  43 001c B020C3E1 		strh	r2, [r3]	@ movhi
  44 0020 2700001A 		bne	.L2
  45 0024 DC0F9FE5 		ldr	r0, .L132+8
  46 0028 0610A0E3 		mov	r1, #6
  47 002c FEFFFFEB 		bl	uart_check_free_space
  48 0030 000050E3 		cmp	r0, #0
  49 0034 9604000A 		beq	.L97
  50 0038 CC3F9FE5 		ldr	r3, .L132+12
  51 003c B020D3E1 		ldrh	r2, [r3]
  52 0040 062082E2 		add	r2, r2, #6
  53 0044 B020C3E1 		strh	r2, [r3]	@ movhi
  54 0048 C03F9FE5 		ldr	r3, .L132+16
  55 004c B020D3E1 		ldrh	r2, [r3]
  56 0050 B00F9FE5 		ldr	r0, .L132+8
  57 0054 012082E2 		add	r2, r2, #1
  58 0058 9910A0E3 		mov	r1, #153
  59 005c B020C3E1 		strh	r2, [r3]	@ movhi
  60 0060 AC6F9FE5 		ldr	r6, .L132+20
  61 0064 FEFFFFEB 		bl	uart_transmit
  62 0068 A84F9FE5 		ldr	r4, .L132+24
  63 006c 940F9FE5 		ldr	r0, .L132+8
  64 0070 0610A0E3 		mov	r1, #6
  65 0074 FEFFFFEB 		bl	uart_transmit
  66 0078 0E30A0E3 		mov	r3, #14
  67 007c 840F9FE5 		ldr	r0, .L132+8
  68 0080 0210A0E3 		mov	r1, #2
  69 0084 0030C4E5 		strb	r3, [r4]
  70 0088 0050C6E5 		strb	r5, [r6]
  71 008c FEFFFFEB 		bl	uart_transmit
  72 0090 0030D6E5 		ldrb	r3, [r6]	@ zero_extendqisi2
  73 0094 0020D4E5 		ldrb	r2, [r4]	@ zero_extendqisi2
  74 0098 033083E2 		add	r3, r3, #3
  75 009c FF3003E2 		and	r3, r3, #255
  76 00a0 0030C6E5 		strb	r3, [r6]
  77 00a4 5C0F9FE5 		ldr	r0, .L132+8
  78 00a8 023083E0 		add	r3, r3, r2
  79 00ac 0310A0E3 		mov	r1, #3
  80 00b0 0030C4E5 		strb	r3, [r4]
  81 00b4 FEFFFFEB 		bl	uart_transmit
  82 00b8 480F9FE5 		ldr	r0, .L132+8
  83 00bc 0010D6E5 		ldrb	r1, [r6]	@ zero_extendqisi2
  84 00c0 950100EA 		b	.L124
  85              	.L2:
  86 00c4 010055E3 		cmp	r5, #1
  87 00c8 8900001A 		bne	.L5
  88 00cc 1830D4E5 		ldrb	r3, [r4, #24]	@ zero_extendqisi2
  89 00d0 020053E3 		cmp	r3, #2
  90 00d4 8604000A 		beq	.L1
  91 00d8 0D20D4E5 		ldrb	r2, [r4, #13]	@ zero_extendqisi2
  92 00dc 0C10D4E5 		ldrb	r1, [r4, #12]	@ zero_extendqisi2
  93 00e0 0C208DE5 		str	r2, [sp, #12]
  94 00e4 0F20D4E5 		ldrb	r2, [r4, #15]	@ zero_extendqisi2
  95 00e8 08108DE5 		str	r1, [sp, #8]
  96 00ec 14208DE5 		str	r2, [sp, #20]
  97 00f0 0E10D4E5 		ldrb	r1, [r4, #14]	@ zero_extendqisi2
  98 00f4 0220D4E5 		ldrb	r2, [r4, #2]	@ zero_extendqisi2
  99 00f8 10108DE5 		str	r1, [sp, #16]
 100 00fc 18208DE5 		str	r2, [sp, #24]
 101 0100 1410D4E5 		ldrb	r1, [r4, #20]	@ zero_extendqisi2
 102 0104 0320D4E5 		ldrb	r2, [r4, #3]	@ zero_extendqisi2
 103 0108 20108DE5 		str	r1, [sp, #32]
 104 010c 1C208DE5 		str	r2, [sp, #28]
 105 0110 1610D4E5 		ldrb	r1, [r4, #22]	@ zero_extendqisi2
 106 0114 1520D4E5 		ldrb	r2, [r4, #21]	@ zero_extendqisi2
 107 0118 28108DE5 		str	r1, [sp, #40]
 108 011c 24208DE5 		str	r2, [sp, #36]
 109 0120 1010D4E5 		ldrb	r1, [r4, #16]	@ zero_extendqisi2
 110 0124 1720D4E5 		ldrb	r2, [r4, #23]	@ zero_extendqisi2
 111 0128 30108DE5 		str	r1, [sp, #48]
 112 012c 2C208DE5 		str	r2, [sp, #44]
 113 0130 1210D4E5 		ldrb	r1, [r4, #18]	@ zero_extendqisi2
 114 0134 1120D4E5 		ldrb	r2, [r4, #17]	@ zero_extendqisi2
 115 0138 DCBE9FE5 		ldr	fp, .L132+28
 116 013c 04C0D4E5 		ldrb	ip, [r4, #4]	@ zero_extendqisi2
 117 0140 0590D4E5 		ldrb	r9, [r4, #5]	@ zero_extendqisi2
 118 0144 06A0D4E5 		ldrb	r10, [r4, #6]	@ zero_extendqisi2
 119 0148 0700D4E5 		ldrb	r0, [r4, #7]	@ zero_extendqisi2
 120 014c 0850D4E5 		ldrb	r5, [r4, #8]	@ zero_extendqisi2
 121 0150 0960D4E5 		ldrb	r6, [r4, #9]	@ zero_extendqisi2
 122 0154 0A80D4E5 		ldrb	r8, [r4, #10]	@ zero_extendqisi2
 123 0158 0B70D4E5 		ldrb	r7, [r4, #11]	@ zero_extendqisi2
 124 015c 34208DE5 		str	r2, [sp, #52]
 125 0160 38108DE5 		str	r1, [sp, #56]
 126 0164 0020DBE5 		ldrb	r2, [fp]	@ zero_extendqisi2
 127 0168 1340D4E5 		ldrb	r4, [r4, #19]	@ zero_extendqisi2
 128 016c 170052E3 		cmp	r2, #23
 129 0170 3C408DE5 		str	r4, [sp, #60]
 130 0174 5E04008A 		bhi	.L1
 131 0178 000053E3 		cmp	r3, #0
 132 017c 9C1E9FE5 		ldr	r1, .L132+32
 133 0180 9CEE9FE5 		ldr	lr, .L132+36
 134 0184 0500000A 		beq	.L7
 135 0188 0340D1E7 		ldrb	r4, [r1, r3]	@ zero_extendqisi2
 136 018c 000054E3 		cmp	r4, #0
 137 0190 01408202 		addeq	r4, r2, #1
 138 0194 0040CB05 		streqb	r4, [fp]
 139 0198 0320C107 		streqb	r2, [r1, r3]
 140 019c 8232CE07 		streqb	r3, [lr, r2, asl #5]
 141              	.L7:
 142 01a0 0AA8A0E1 		mov	r10, r10, asl #16
 143 01a4 0340D1E7 		ldrb	r4, [r1, r3]	@ zero_extendqisi2
 144 01a8 00AC8AE1 		orr	r10, r10, r0, asl #24
 145 01ac 09048CE1 		orr	r0, ip, r9, asl #8
 146 01b0 00008AE1 		orr	r0, r10, r0
 147 01b4 84428EE0 		add	r4, lr, r4, asl #5
 148 01b8 FEFFFFEB 		bl	__aeabi_i2f
 149 01bc 641E9FE5 		ldr	r1, .L132+40
 150 01c0 FEFFFFEB 		bl	__aeabi_fdiv
 151 01c4 603E9FE5 		ldr	r3, .L132+44
 152 01c8 0090A0E1 		mov	r9, r0
 153 01cc 000093E5 		ldr	r0, [r3]
 154 01d0 FEFFFFEB 		bl	__aeabi_i2f
 155 01d4 0010A0E1 		mov	r1, r0
 156 01d8 0900A0E1 		mov	r0, r9
 157 01dc FEFFFFEB 		bl	__aeabi_fsub
 158 01e0 0888A0E1 		mov	r8, r8, asl #16
 159 01e4 040084E5 		str	r0, [r4, #4]	@ float
 160 01e8 077C88E1 		orr	r7, r8, r7, asl #24
 161 01ec 060485E1 		orr	r0, r5, r6, asl #8
 162 01f0 000087E1 		orr	r0, r7, r0
 163 01f4 FEFFFFEB 		bl	__aeabi_i2f
 164 01f8 281E9FE5 		ldr	r1, .L132+40
 165 01fc FEFFFFEB 		bl	__aeabi_fdiv
 166 0200 283E9FE5 		ldr	r3, .L132+48
 167 0204 0050A0E1 		mov	r5, r0
 168 0208 000093E5 		ldr	r0, [r3]
 169 020c FEFFFFEB 		bl	__aeabi_i2f
 170 0210 0010A0E1 		mov	r1, r0
 171 0214 0500A0E1 		mov	r0, r5
 172 0218 FEFFFFEB 		bl	__aeabi_fsub
 173 021c 18208DE2 		add	r2, sp, #24
 174 0220 0C0092E8 		ldmia	r2, {r2, r3}
 175 0224 080084E5 		str	r0, [r4, #8]	@ float
 176 0228 030482E1 		orr	r0, r2, r3, asl #8
 177 022c 0008A0E1 		mov	r0, r0, asl #16
 178 0230 4008A0E1 		mov	r0, r0, asr #16
 179 0234 FEFFFFEB 		bl	__aeabi_i2f
 180 0238 FEFFFFEB 		bl	__aeabi_f2d
 181 023c 0020A0E3 		mov	r2, #0
 182 0240 EC3D9FE5 		ldr	r3, .L132+52
 183 0244 FEFFFFEB 		bl	__aeabi_ddiv
 184 0248 E82D9FE5 		ldr	r2, .L132+56
 185 024c E83D9FE5 		ldr	r3, .L132+60
 186 0250 FEFFFFEB 		bl	__aeabi_dmul
 187 0254 FEFFFFEB 		bl	__aeabi_d2f
 188 0258 10109DE5 		ldr	r1, [sp, #16]
 189 025c 14209DE5 		ldr	r2, [sp, #20]
 190 0260 0C0084E5 		str	r0, [r4, #12]	@ float
 191 0264 0108A0E1 		mov	r0, r1, asl #16
 192 0268 08108DE2 		add	r1, sp, #8
 193 026c 020C80E1 		orr	r0, r0, r2, asl #24
 194 0270 060091E8 		ldmia	r1, {r1, r2}
 195 0274 023481E1 		orr	r3, r1, r2, asl #8
 196 0278 030080E1 		orr	r0, r0, r3
 197 027c FEFFFFEB 		bl	__aeabi_i2f
 198 0280 A01D9FE5 		ldr	r1, .L132+40
 199 0284 FEFFFFEB 		bl	__aeabi_fdiv
 200 0288 20309DE5 		ldr	r3, [sp, #32]
 201 028c 24109DE5 		ldr	r1, [sp, #36]
 202 0290 100084E5 		str	r0, [r4, #16]	@ float
 203 0294 010483E1 		orr	r0, r3, r1, asl #8
 204 0298 FEFFFFEB 		bl	__aeabi_ui2f
 205 029c 841D9FE5 		ldr	r1, .L132+40
 206 02a0 FEFFFFEB 		bl	__aeabi_fdiv
 207 02a4 28208DE2 		add	r2, sp, #40
 208 02a8 0C0092E8 		ldmia	r2, {r2, r3}
 209 02ac 140084E5 		str	r0, [r4, #20]	@ float
 210 02b0 030482E1 		orr	r0, r2, r3, asl #8
 211 02b4 0008A0E1 		mov	r0, r0, asl #16
 212 02b8 4008A0E1 		mov	r0, r0, asr #16
 213 02bc FEFFFFEB 		bl	__aeabi_i2f
 214 02c0 601D9FE5 		ldr	r1, .L132+40
 215 02c4 FEFFFFEB 		bl	__aeabi_fdiv
 216 02c8 180084E5 		str	r0, [r4, #24]	@ float
 217 02cc 38009DE5 		ldr	r0, [sp, #56]
 218 02d0 3C109DE5 		ldr	r1, [sp, #60]
 219 02d4 0038A0E1 		mov	r3, r0, asl #16
 220 02d8 30008DE2 		add	r0, sp, #48
 221 02dc 013C83E1 		orr	r3, r3, r1, asl #24
 222 02e0 030090E8 		ldmia	r0, {r0, r1}
 223 02e4 012480E1 		orr	r2, r0, r1, asl #8
 224 02e8 023083E1 		orr	r3, r3, r2
 225 02ec 1C3084E5 		str	r3, [r4, #28]
 226 02f0 FF0300EA 		b	.L1
 227              	.L5:
 228 02f4 020055E3 		cmp	r5, #2
 229 02f8 0C01001A 		bne	.L8
 230 02fc 0380D4E5 		ldrb	r8, [r4, #3]	@ zero_extendqisi2
 231 0300 020058E3 		cmp	r8, #2
 232 0304 FA03001A 		bne	.L1
 233 0308 0E00D4E5 		ldrb	r0, [r4, #14]	@ zero_extendqisi2
 234 030c 0F30D4E5 		ldrb	r3, [r4, #15]	@ zero_extendqisi2
 235 0310 0008A0E1 		mov	r0, r0, asl #16
 236 0314 0D20D4E5 		ldrb	r2, [r4, #13]	@ zero_extendqisi2
 237 0318 030C80E1 		orr	r0, r0, r3, asl #24
 238 031c 0C30D4E5 		ldrb	r3, [r4, #12]	@ zero_extendqisi2
 239 0320 023483E1 		orr	r3, r3, r2, asl #8
 240 0324 030080E1 		orr	r0, r0, r3
 241 0328 FEFFFFEB 		bl	__aeabi_i2f
 242 032c F41C9FE5 		ldr	r1, .L132+40
 243 0330 FEFFFFEB 		bl	__aeabi_fdiv
 244 0334 0050A0E1 		mov	r5, r0
 245 0338 40008DE5 		str	r0, [sp, #64]	@ float
 246 033c 0600D4E5 		ldrb	r0, [r4, #6]	@ zero_extendqisi2
 247 0340 0730D4E5 		ldrb	r3, [r4, #7]	@ zero_extendqisi2
 248 0344 0008A0E1 		mov	r0, r0, asl #16
 249 0348 0520D4E5 		ldrb	r2, [r4, #5]	@ zero_extendqisi2
 250 034c 030C80E1 		orr	r0, r0, r3, asl #24
 251 0350 0430D4E5 		ldrb	r3, [r4, #4]	@ zero_extendqisi2
 252 0354 023483E1 		orr	r3, r3, r2, asl #8
 253 0358 030080E1 		orr	r0, r0, r3
 254 035c FEFFFFEB 		bl	__aeabi_i2d
 255 0360 0020A0E3 		mov	r2, #0
 256 0364 D43C9FE5 		ldr	r3, .L132+64
 257 0368 FEFFFFEB 		bl	__aeabi_ddiv
 258 036c FEFFFFEB 		bl	__aeabi_d2f
 259 0370 FEFFFFEB 		bl	__aeabi_f2d
 260 0374 BC2C9FE5 		ldr	r2, .L132+56
 261 0378 BC3C9FE5 		ldr	r3, .L132+60
 262 037c FEFFFFEB 		bl	__aeabi_dmul
 263 0380 FEFFFFEB 		bl	__aeabi_d2f
 264 0384 48008DE5 		str	r0, [sp, #72]	@ float
 265 0388 0A00D4E5 		ldrb	r0, [r4, #10]	@ zero_extendqisi2
 266 038c 0B30D4E5 		ldrb	r3, [r4, #11]	@ zero_extendqisi2
 267 0390 0008A0E1 		mov	r0, r0, asl #16
 268 0394 0920D4E5 		ldrb	r2, [r4, #9]	@ zero_extendqisi2
 269 0398 030C80E1 		orr	r0, r0, r3, asl #24
 270 039c 0830D4E5 		ldrb	r3, [r4, #8]	@ zero_extendqisi2
 271 03a0 023483E1 		orr	r3, r3, r2, asl #8
 272 03a4 030080E1 		orr	r0, r0, r3
 273 03a8 FEFFFFEB 		bl	__aeabi_i2d
 274 03ac 0020A0E3 		mov	r2, #0
 275 03b0 883C9FE5 		ldr	r3, .L132+64
 276 03b4 FEFFFFEB 		bl	__aeabi_ddiv
 277 03b8 FEFFFFEB 		bl	__aeabi_d2f
 278 03bc FEFFFFEB 		bl	__aeabi_f2d
 279 03c0 702C9FE5 		ldr	r2, .L132+56
 280 03c4 703C9FE5 		ldr	r3, .L132+60
 281 03c8 FEFFFFEB 		bl	__aeabi_dmul
 282 03cc FEFFFFEB 		bl	__aeabi_d2f
 283 03d0 6C7C9FE5 		ldr	r7, .L132+68
 284 03d4 0260D4E5 		ldrb	r6, [r4, #2]	@ zero_extendqisi2
 285 03d8 0030D7E5 		ldrb	r3, [r7]	@ zero_extendqisi2
 286 03dc 44008DE5 		str	r0, [sp, #68]	@ float
 287 03e0 44108DE2 		add	r1, sp, #68
 288 03e4 50008DE2 		add	r0, sp, #80
 289 03e8 5C30CDE5 		strb	r3, [sp, #92]
 290 03ec FEFFFFEB 		bl	utm_of_lla_f
 291 03f0 50209DE5 		ldr	r2, [sp, #80]	@ float
 292 03f4 54109DE5 		ldr	r1, [sp, #84]	@ float
 293 03f8 0530A0E1 		mov	r3, r5
 294 03fc 0600A0E1 		mov	r0, r6
 295 0400 FEFFFFEB 		bl	nav_move_waypoint
 296 0404 203C9FE5 		ldr	r3, .L132+44
 297 0408 000093E5 		ldr	r0, [r3]
 298 040c FEFFFFEB 		bl	__aeabi_i2f
 299 0410 0C40A0E3 		mov	r4, #12
 300 0414 960404E0 		mul	r4, r6, r4
 301 0418 285C9FE5 		ldr	r5, .L132+72
 302 041c 0010A0E1 		mov	r1, r0
 303 0420 040095E7 		ldr	r0, [r5, r4]	@ float
 304 0424 FEFFFFEB 		bl	__aeabi_fadd
 305 0428 003C9FE5 		ldr	r3, .L132+48
 306 042c 54008DE5 		str	r0, [sp, #84]	@ float
 307 0430 000093E5 		ldr	r0, [r3]
 308 0434 FEFFFFEB 		bl	__aeabi_i2f
 309 0438 049085E0 		add	r9, r5, r4
 310 043c 0010A0E1 		mov	r1, r0
 311 0440 040099E5 		ldr	r0, [r9, #4]	@ float
 312 0444 FEFFFFEB 		bl	__aeabi_fadd
 313 0448 1410A0E3 		mov	r1, #20
 314 044c 50008DE5 		str	r0, [sp, #80]	@ float
 315 0450 B00B9FE5 		ldr	r0, .L132+8
 316 0454 FEFFFFEB 		bl	uart_check_free_space
 317 0458 000050E3 		cmp	r0, #0
 318 045c 8C03000A 		beq	.L97
 319 0460 A43B9FE5 		ldr	r3, .L132+12
 320 0464 B020D3E1 		ldrh	r2, [r3]
 321 0468 142082E2 		add	r2, r2, #20
 322 046c B020C3E1 		strh	r2, [r3]	@ movhi
 323 0470 983B9FE5 		ldr	r3, .L132+16
 324 0474 B020D3E1 		ldrh	r2, [r3]
 325 0478 880B9FE5 		ldr	r0, .L132+8
 326 047c 012082E2 		add	r2, r2, #1
 327 0480 9910A0E3 		mov	r1, #153
 328 0484 885B9FE5 		ldr	r5, .L132+20
 329 0488 B020C3E1 		strh	r2, [r3]	@ movhi
 330 048c FEFFFFEB 		bl	uart_transmit
 331 0490 700B9FE5 		ldr	r0, .L132+8
 332 0494 1410A0E3 		mov	r1, #20
 333 0498 784B9FE5 		ldr	r4, .L132+24
 334 049c FEFFFFEB 		bl	uart_transmit
 335 04a0 1630A0E3 		mov	r3, #22
 336 04a4 0030C5E5 		strb	r3, [r5]
 337 04a8 580B9FE5 		ldr	r0, .L132+8
 338 04ac 2A30A0E3 		mov	r3, #42
 339 04b0 0810A0E1 		mov	r1, r8
 340 04b4 0030C4E5 		strb	r3, [r4]
 341 04b8 FEFFFFEB 		bl	uart_transmit
 342 04bc 0030D5E5 		ldrb	r3, [r5]	@ zero_extendqisi2
 343 04c0 0020D4E5 		ldrb	r2, [r4]	@ zero_extendqisi2
 344 04c4 233083E2 		add	r3, r3, #35
 345 04c8 FF3003E2 		and	r3, r3, #255
 346 04cc 0030C5E5 		strb	r3, [r5]
 347 04d0 300B9FE5 		ldr	r0, .L132+8
 348 04d4 023083E0 		add	r3, r3, r2
 349 04d8 2310A0E3 		mov	r1, #35
 350 04dc 0030C4E5 		strb	r3, [r4]
 351 04e0 FEFFFFEB 		bl	uart_transmit
 352 04e4 0030D5E5 		ldrb	r3, [r5]	@ zero_extendqisi2
 353 04e8 0020D4E5 		ldrb	r2, [r4]	@ zero_extendqisi2
 354 04ec 033086E0 		add	r3, r6, r3
 355 04f0 FF3003E2 		and	r3, r3, #255
 356 04f4 0030C5E5 		strb	r3, [r5]
 357 04f8 080B9FE5 		ldr	r0, .L132+8
 358 04fc 023083E0 		add	r3, r3, r2
 359 0500 0610A0E1 		mov	r1, r6
 360 0504 0030C4E5 		strb	r3, [r4]
 361 0508 FEFFFFEB 		bl	uart_transmit
 362 050c 5410DDE5 		ldrb	r1, [sp, #84]	@ zero_extendqisi2
 363 0510 0030D5E5 		ldrb	r3, [r5]	@ zero_extendqisi2
 364 0514 0020D4E5 		ldrb	r2, [r4]	@ zero_extendqisi2
 365 0518 033081E0 		add	r3, r1, r3
 366 051c FF3003E2 		and	r3, r3, #255
 367 0520 0030C5E5 		strb	r3, [r5]
 368 0524 DC0A9FE5 		ldr	r0, .L132+8
 369 0528 023083E0 		add	r3, r3, r2
 370 052c 0030C4E5 		strb	r3, [r4]
 371 0530 FEFFFFEB 		bl	uart_transmit
 372 0534 5510DDE5 		ldrb	r1, [sp, #85]	@ zero_extendqisi2
 373 0538 0030D5E5 		ldrb	r3, [r5]	@ zero_extendqisi2
 374 053c 0020D4E5 		ldrb	r2, [r4]	@ zero_extendqisi2
 375 0540 033081E0 		add	r3, r1, r3
 376 0544 FF3003E2 		and	r3, r3, #255
 377 0548 0030C5E5 		strb	r3, [r5]
 378 054c B40A9FE5 		ldr	r0, .L132+8
 379 0550 023083E0 		add	r3, r3, r2
 380 0554 0030C4E5 		strb	r3, [r4]
 381 0558 FEFFFFEB 		bl	uart_transmit
 382 055c 5610DDE5 		ldrb	r1, [sp, #86]	@ zero_extendqisi2
 383 0560 0030D5E5 		ldrb	r3, [r5]	@ zero_extendqisi2
 384 0564 0020D4E5 		ldrb	r2, [r4]	@ zero_extendqisi2
 385 0568 033081E0 		add	r3, r1, r3
 386 056c FF3003E2 		and	r3, r3, #255
 387 0570 0030C5E5 		strb	r3, [r5]
 388 0574 8C0A9FE5 		ldr	r0, .L132+8
 389 0578 023083E0 		add	r3, r3, r2
 390 057c 0030C4E5 		strb	r3, [r4]
 391 0580 FEFFFFEB 		bl	uart_transmit
 392 0584 5710DDE5 		ldrb	r1, [sp, #87]	@ zero_extendqisi2
 393 0588 0030D5E5 		ldrb	r3, [r5]	@ zero_extendqisi2
 394 058c 0020D4E5 		ldrb	r2, [r4]	@ zero_extendqisi2
 395 0590 033081E0 		add	r3, r1, r3
 396 0594 FF3003E2 		and	r3, r3, #255
 397 0598 0030C5E5 		strb	r3, [r5]
 398 059c 640A9FE5 		ldr	r0, .L132+8
 399 05a0 023083E0 		add	r3, r3, r2
 400 05a4 0030C4E5 		strb	r3, [r4]
 401 05a8 FEFFFFEB 		bl	uart_transmit
 402 05ac 5010DDE5 		ldrb	r1, [sp, #80]	@ zero_extendqisi2
 403 05b0 0030D5E5 		ldrb	r3, [r5]	@ zero_extendqisi2
 404 05b4 0020D4E5 		ldrb	r2, [r4]	@ zero_extendqisi2
 405 05b8 033081E0 		add	r3, r1, r3
 406 05bc FF3003E2 		and	r3, r3, #255
 407 05c0 0030C5E5 		strb	r3, [r5]
 408 05c4 3C0A9FE5 		ldr	r0, .L132+8
 409 05c8 023083E0 		add	r3, r3, r2
 410 05cc 0030C4E5 		strb	r3, [r4]
 411 05d0 FEFFFFEB 		bl	uart_transmit
 412 05d4 5110DDE5 		ldrb	r1, [sp, #81]	@ zero_extendqisi2
 413 05d8 0030D5E5 		ldrb	r3, [r5]	@ zero_extendqisi2
 414 05dc 0020D4E5 		ldrb	r2, [r4]	@ zero_extendqisi2
 415 05e0 033081E0 		add	r3, r1, r3
 416 05e4 FF3003E2 		and	r3, r3, #255
 417 05e8 0030C5E5 		strb	r3, [r5]
 418 05ec 140A9FE5 		ldr	r0, .L132+8
 419 05f0 023083E0 		add	r3, r3, r2
 420 05f4 0030C4E5 		strb	r3, [r4]
 421 05f8 FEFFFFEB 		bl	uart_transmit
 422 05fc 5210DDE5 		ldrb	r1, [sp, #82]	@ zero_extendqisi2
 423 0600 0030D5E5 		ldrb	r3, [r5]	@ zero_extendqisi2
 424 0604 0020D4E5 		ldrb	r2, [r4]	@ zero_extendqisi2
 425 0608 033081E0 		add	r3, r1, r3
 426 060c FF3003E2 		and	r3, r3, #255
 427 0610 0030C5E5 		strb	r3, [r5]
 428 0614 EC099FE5 		ldr	r0, .L132+8
 429 0618 023083E0 		add	r3, r3, r2
 430 061c 0030C4E5 		strb	r3, [r4]
 431 0620 FEFFFFEB 		bl	uart_transmit
 432 0624 5310DDE5 		ldrb	r1, [sp, #83]	@ zero_extendqisi2
 433 0628 0030D5E5 		ldrb	r3, [r5]	@ zero_extendqisi2
 434 062c 0020D4E5 		ldrb	r2, [r4]	@ zero_extendqisi2
 435 0630 033081E0 		add	r3, r1, r3
 436 0634 FF3003E2 		and	r3, r3, #255
 437 0638 0030C5E5 		strb	r3, [r5]
 438 063c C4099FE5 		ldr	r0, .L132+8
 439 0640 023083E0 		add	r3, r3, r2
 440 0644 0030C4E5 		strb	r3, [r4]
 441 0648 FEFFFFEB 		bl	uart_transmit
 442 064c 4010DDE5 		ldrb	r1, [sp, #64]	@ zero_extendqisi2
 443 0650 0030D5E5 		ldrb	r3, [r5]	@ zero_extendqisi2
 444 0654 0020D4E5 		ldrb	r2, [r4]	@ zero_extendqisi2
 445 0658 033081E0 		add	r3, r1, r3
 446 065c FF3003E2 		and	r3, r3, #255
 447 0660 0030C5E5 		strb	r3, [r5]
 448 0664 9C099FE5 		ldr	r0, .L132+8
 449 0668 023083E0 		add	r3, r3, r2
 450 066c 0030C4E5 		strb	r3, [r4]
 451 0670 FEFFFFEB 		bl	uart_transmit
 452 0674 4110DDE5 		ldrb	r1, [sp, #65]	@ zero_extendqisi2
 453 0678 0030D5E5 		ldrb	r3, [r5]	@ zero_extendqisi2
 454 067c 0020D4E5 		ldrb	r2, [r4]	@ zero_extendqisi2
 455 0680 033081E0 		add	r3, r1, r3
 456 0684 FF3003E2 		and	r3, r3, #255
 457 0688 0030C5E5 		strb	r3, [r5]
 458 068c 74099FE5 		ldr	r0, .L132+8
 459 0690 023083E0 		add	r3, r3, r2
 460 0694 0030C4E5 		strb	r3, [r4]
 461 0698 FEFFFFEB 		bl	uart_transmit
 462 069c 4210DDE5 		ldrb	r1, [sp, #66]	@ zero_extendqisi2
 463 06a0 0030D5E5 		ldrb	r3, [r5]	@ zero_extendqisi2
 464 06a4 0020D4E5 		ldrb	r2, [r4]	@ zero_extendqisi2
 465 06a8 033081E0 		add	r3, r1, r3
 466 06ac FF3003E2 		and	r3, r3, #255
 467 06b0 0030C5E5 		strb	r3, [r5]
 468 06b4 4C099FE5 		ldr	r0, .L132+8
 469 06b8 023083E0 		add	r3, r3, r2
 470 06bc 0030C4E5 		strb	r3, [r4]
 471 06c0 FEFFFFEB 		bl	uart_transmit
 472 06c4 4310DDE5 		ldrb	r1, [sp, #67]	@ zero_extendqisi2
 473 06c8 0030D5E5 		ldrb	r3, [r5]	@ zero_extendqisi2
 474 06cc 0020D4E5 		ldrb	r2, [r4]	@ zero_extendqisi2
 475 06d0 033081E0 		add	r3, r1, r3
 476 06d4 FF3003E2 		and	r3, r3, #255
 477 06d8 0030C5E5 		strb	r3, [r5]
 478 06dc 24099FE5 		ldr	r0, .L132+8
 479 06e0 023083E0 		add	r3, r3, r2
 480 06e4 0030C4E5 		strb	r3, [r4]
 481 06e8 FEFFFFEB 		bl	uart_transmit
 482 06ec 0010D7E5 		ldrb	r1, [r7]	@ zero_extendqisi2
 483              	.L125:
 484 06f0 0030D5E5 		ldrb	r3, [r5]	@ zero_extendqisi2
 485 06f4 0020D4E5 		ldrb	r2, [r4]	@ zero_extendqisi2
 486 06f8 033081E0 		add	r3, r1, r3
 487 06fc FF3003E2 		and	r3, r3, #255
 488 0700 0030C5E5 		strb	r3, [r5]
 489 0704 FC089FE5 		ldr	r0, .L132+8
 490 0708 023083E0 		add	r3, r3, r2
 491 070c 0030C4E5 		strb	r3, [r4]
 492 0710 FEFFFFEB 		bl	uart_transmit
 493 0714 EC089FE5 		ldr	r0, .L132+8
 494 0718 0010D5E5 		ldrb	r1, [r5]	@ zero_extendqisi2
 495              	.L124:
 496 071c FEFFFFEB 		bl	uart_transmit
 497 0720 E0089FE5 		ldr	r0, .L132+8
 498 0724 0010D4E5 		ldrb	r1, [r4]	@ zero_extendqisi2
 499 0728 FEFFFFEB 		bl	uart_transmit
 500 072c F00200EA 		b	.L1
 501              	.L8:
 502 0730 050055E3 		cmp	r5, #5
 503 0734 FA00001A 		bne	.L11
 504 0738 0360D4E5 		ldrb	r6, [r4, #3]	@ zero_extendqisi2
 505 073c 020056E3 		cmp	r6, #2
 506 0740 EB02001A 		bne	.L1
 507 0744 0200D4E5 		ldrb	r0, [r4, #2]	@ zero_extendqisi2
 508 0748 FEFFFFEB 		bl	nav_goto_block
 509 074c F8389FE5 		ldr	r3, .L132+76
 510 0750 B0089FE5 		ldr	r0, .L132+8
 511 0754 1A10A0E3 		mov	r1, #26
 512 0758 004093E5 		ldr	r4, [r3]	@ float
 513 075c FEFFFFEB 		bl	uart_check_free_space
 514 0760 000050E3 		cmp	r0, #0
 515 0764 CA02000A 		beq	.L97
 516 0768 0201C4E3 		bic	r0, r4, #-2147483648
 517 076c FEFFFFEB 		bl	__aeabi_f2d
 518 0770 D8289FE5 		ldr	r2, .L132+80
 519 0774 D8389FE5 		ldr	r3, .L132+84
 520 0778 FEFFFFEB 		bl	__aeabi_ddiv
 521 077c FEFFFFEB 		bl	__aeabi_d2uiz
 522 0780 84389FE5 		ldr	r3, .L132+12
 523 0784 B020D3E1 		ldrh	r2, [r3]
 524 0788 1A2082E2 		add	r2, r2, #26
 525 078c B020C3E1 		strh	r2, [r3]	@ movhi
 526 0790 78389FE5 		ldr	r3, .L132+16
 527 0794 B020D3E1 		ldrh	r2, [r3]
 528 0798 FF7000E2 		and	r7, r0, #255
 529 079c 012082E2 		add	r2, r2, #1
 530 07a0 60089FE5 		ldr	r0, .L132+8
 531 07a4 9910A0E3 		mov	r1, #153
 532 07a8 64589FE5 		ldr	r5, .L132+20
 533 07ac B020C3E1 		strh	r2, [r3]	@ movhi
 534 07b0 FEFFFFEB 		bl	uart_transmit
 535 07b4 4C089FE5 		ldr	r0, .L132+8
 536 07b8 1A10A0E3 		mov	r1, #26
 537 07bc 54489FE5 		ldr	r4, .L132+24
 538 07c0 FEFFFFEB 		bl	uart_transmit
 539 07c4 1C30A0E3 		mov	r3, #28
 540 07c8 0610A0E1 		mov	r1, r6
 541 07cc 0030C5E5 		strb	r3, [r5]
 542 07d0 30089FE5 		ldr	r0, .L132+8
 543 07d4 3630A0E3 		mov	r3, #54
 544 07d8 0030C4E5 		strb	r3, [r4]
 545 07dc FEFFFFEB 		bl	uart_transmit
 546 07e0 0030D5E5 		ldrb	r3, [r5]	@ zero_extendqisi2
 547 07e4 0020D4E5 		ldrb	r2, [r4]	@ zero_extendqisi2
 548 07e8 0A3083E2 		add	r3, r3, #10
 549 07ec FF3003E2 		and	r3, r3, #255
 550 07f0 0030C5E5 		strb	r3, [r5]
 551 07f4 0C089FE5 		ldr	r0, .L132+8
 552 07f8 023083E0 		add	r3, r3, r2
 553 07fc 0A10A0E3 		mov	r1, #10
 554 0800 0030C4E5 		strb	r3, [r4]
 555 0804 FEFFFFEB 		bl	uart_transmit
 556 0808 48389FE5 		ldr	r3, .L132+88
 557 080c 0010D3E5 		ldrb	r1, [r3]	@ zero_extendqisi2
 558 0810 0030D5E5 		ldrb	r3, [r5]	@ zero_extendqisi2
 559 0814 0020D4E5 		ldrb	r2, [r4]	@ zero_extendqisi2
 560 0818 033081E0 		add	r3, r1, r3
 561 081c FF3003E2 		and	r3, r3, #255
 562 0820 0030C5E5 		strb	r3, [r5]
 563 0824 DC079FE5 		ldr	r0, .L132+8
 564 0828 023083E0 		add	r3, r3, r2
 565 082c 0030C4E5 		strb	r3, [r4]
 566 0830 FEFFFFEB 		bl	uart_transmit
 567 0834 20389FE5 		ldr	r3, .L132+92
 568 0838 0010D3E5 		ldrb	r1, [r3]	@ zero_extendqisi2
 569 083c 0030D5E5 		ldrb	r3, [r5]	@ zero_extendqisi2
 570 0840 0020D4E5 		ldrb	r2, [r4]	@ zero_extendqisi2
 571 0844 033081E0 		add	r3, r1, r3
 572 0848 10689FE5 		ldr	r6, .L132+96
 573 084c FF3003E2 		and	r3, r3, #255
 574 0850 0030C5E5 		strb	r3, [r5]
 575 0854 AC079FE5 		ldr	r0, .L132+8
 576 0858 023083E0 		add	r3, r3, r2
 577 085c 0030C4E5 		strb	r3, [r4]
 578 0860 FEFFFFEB 		bl	uart_transmit
 579 0864 0010D6E5 		ldrb	r1, [r6]	@ zero_extendqisi2
 580 0868 0030D5E5 		ldrb	r3, [r5]	@ zero_extendqisi2
 581 086c 0020D4E5 		ldrb	r2, [r4]	@ zero_extendqisi2
 582 0870 033081E0 		add	r3, r1, r3
 583 0874 FF3003E2 		and	r3, r3, #255
 584 0878 0030C5E5 		strb	r3, [r5]
 585 087c 84079FE5 		ldr	r0, .L132+8
 586 0880 023083E0 		add	r3, r3, r2
 587 0884 0030C4E5 		strb	r3, [r4]
 588 0888 FEFFFFEB 		bl	uart_transmit
 589 088c 0110D6E5 		ldrb	r1, [r6, #1]	@ zero_extendqisi2
 590 0890 0030D5E5 		ldrb	r3, [r5]	@ zero_extendqisi2
 591 0894 0020D4E5 		ldrb	r2, [r4]	@ zero_extendqisi2
 592 0898 033081E0 		add	r3, r1, r3
 593 089c FF3003E2 		and	r3, r3, #255
 594 08a0 0030C5E5 		strb	r3, [r5]
 595 08a4 5C079FE5 		ldr	r0, .L132+8
 596 08a8 023083E0 		add	r3, r3, r2
 597 08ac 0030C4E5 		strb	r3, [r4]
 598 08b0 FEFFFFEB 		bl	uart_transmit
 599 08b4 0210D6E5 		ldrb	r1, [r6, #2]	@ zero_extendqisi2
 600 08b8 0030D5E5 		ldrb	r3, [r5]	@ zero_extendqisi2
 601 08bc 0020D4E5 		ldrb	r2, [r4]	@ zero_extendqisi2
 602 08c0 033081E0 		add	r3, r1, r3
 603 08c4 FF3003E2 		and	r3, r3, #255
 604 08c8 0030C5E5 		strb	r3, [r5]
 605 08cc 34079FE5 		ldr	r0, .L132+8
 606 08d0 023083E0 		add	r3, r3, r2
 607 08d4 0030C4E5 		strb	r3, [r4]
 608 08d8 FEFFFFEB 		bl	uart_transmit
 609 08dc 0310D6E5 		ldrb	r1, [r6, #3]	@ zero_extendqisi2
 610 08e0 0030D5E5 		ldrb	r3, [r5]	@ zero_extendqisi2
 611 08e4 0020D4E5 		ldrb	r2, [r4]	@ zero_extendqisi2
 612 08e8 033081E0 		add	r3, r1, r3
 613 08ec 70679FE5 		ldr	r6, .L132+100
 614 08f0 FF3003E2 		and	r3, r3, #255
 615 08f4 0030C5E5 		strb	r3, [r5]
 616 08f8 08079FE5 		ldr	r0, .L132+8
 617 08fc 023083E0 		add	r3, r3, r2
 618 0900 0030C4E5 		strb	r3, [r4]
 619 0904 FEFFFFEB 		bl	uart_transmit
 620 0908 0010D6E5 		ldrb	r1, [r6]	@ zero_extendqisi2
 621 090c 0030D5E5 		ldrb	r3, [r5]	@ zero_extendqisi2
 622 0910 0020D4E5 		ldrb	r2, [r4]	@ zero_extendqisi2
 623 0914 033081E0 		add	r3, r1, r3
 624 0918 FF3003E2 		and	r3, r3, #255
 625 091c 0030C5E5 		strb	r3, [r5]
 626 0920 E0069FE5 		ldr	r0, .L132+8
 627 0924 023083E0 		add	r3, r3, r2
 628 0928 0030C4E5 		strb	r3, [r4]
 629 092c FEFFFFEB 		bl	uart_transmit
 630 0930 0110D6E5 		ldrb	r1, [r6, #1]	@ zero_extendqisi2
 631 0934 0030D5E5 		ldrb	r3, [r5]	@ zero_extendqisi2
 632 0938 0020D4E5 		ldrb	r2, [r4]	@ zero_extendqisi2
 633 093c 033081E0 		add	r3, r1, r3
 634 0940 FF3003E2 		and	r3, r3, #255
 635 0944 0030C5E5 		strb	r3, [r5]
 636 0948 B8069FE5 		ldr	r0, .L132+8
 637 094c 023083E0 		add	r3, r3, r2
 638 0950 0030C4E5 		strb	r3, [r4]
 639 0954 FEFFFFEB 		bl	uart_transmit
 640 0958 0210D6E5 		ldrb	r1, [r6, #2]	@ zero_extendqisi2
 641 095c 0030D5E5 		ldrb	r3, [r5]	@ zero_extendqisi2
 642 0960 0020D4E5 		ldrb	r2, [r4]	@ zero_extendqisi2
 643 0964 033081E0 		add	r3, r1, r3
 644 0968 FF3003E2 		and	r3, r3, #255
 645 096c 0030C5E5 		strb	r3, [r5]
 646 0970 90069FE5 		ldr	r0, .L132+8
 647 0974 023083E0 		add	r3, r3, r2
 648 0978 0030C4E5 		strb	r3, [r4]
 649 097c FEFFFFEB 		bl	uart_transmit
 650 0980 0310D6E5 		ldrb	r1, [r6, #3]	@ zero_extendqisi2
 651 0984 0030D5E5 		ldrb	r3, [r5]	@ zero_extendqisi2
 652 0988 0020D4E5 		ldrb	r2, [r4]	@ zero_extendqisi2
 653 098c 033081E0 		add	r3, r1, r3
 654 0990 D0669FE5 		ldr	r6, .L132+104
 655 0994 FF3003E2 		and	r3, r3, #255
 656 0998 0030C5E5 		strb	r3, [r5]
 657 099c 64069FE5 		ldr	r0, .L132+8
 658 09a0 023083E0 		add	r3, r3, r2
 659 09a4 0030C4E5 		strb	r3, [r4]
 660 09a8 FEFFFFEB 		bl	uart_transmit
 661 09ac 0010D6E5 		ldrb	r1, [r6]	@ zero_extendqisi2
 662 09b0 0030D5E5 		ldrb	r3, [r5]	@ zero_extendqisi2
 663 09b4 0020D4E5 		ldrb	r2, [r4]	@ zero_extendqisi2
 664 09b8 033081E0 		add	r3, r1, r3
 665 09bc FF3003E2 		and	r3, r3, #255
 666 09c0 0030C5E5 		strb	r3, [r5]
 667 09c4 3C069FE5 		ldr	r0, .L132+8
 668 09c8 023083E0 		add	r3, r3, r2
 669 09cc 0030C4E5 		strb	r3, [r4]
 670 09d0 FEFFFFEB 		bl	uart_transmit
 671 09d4 0110D6E5 		ldrb	r1, [r6, #1]	@ zero_extendqisi2
 672 09d8 0030D5E5 		ldrb	r3, [r5]	@ zero_extendqisi2
 673 09dc 0020D4E5 		ldrb	r2, [r4]	@ zero_extendqisi2
 674 09e0 033081E0 		add	r3, r1, r3
 675 09e4 FF3003E2 		and	r3, r3, #255
 676 09e8 0030C5E5 		strb	r3, [r5]
 677 09ec 14069FE5 		ldr	r0, .L132+8
 678 09f0 023083E0 		add	r3, r3, r2
 679 09f4 0030C4E5 		strb	r3, [r4]
 680 09f8 FEFFFFEB 		bl	uart_transmit
 681 09fc 0210D6E5 		ldrb	r1, [r6, #2]	@ zero_extendqisi2
 682 0a00 0030D5E5 		ldrb	r3, [r5]	@ zero_extendqisi2
 683 0a04 0020D4E5 		ldrb	r2, [r4]	@ zero_extendqisi2
 684 0a08 033081E0 		add	r3, r1, r3
 685 0a0c FF3003E2 		and	r3, r3, #255
 686 0a10 0030C5E5 		strb	r3, [r5]
 687 0a14 EC059FE5 		ldr	r0, .L132+8
 688 0a18 023083E0 		add	r3, r3, r2
 689 0a1c 0030C4E5 		strb	r3, [r4]
 690 0a20 FEFFFFEB 		bl	uart_transmit
 691 0a24 0310D6E5 		ldrb	r1, [r6, #3]	@ zero_extendqisi2
 692 0a28 0030D5E5 		ldrb	r3, [r5]	@ zero_extendqisi2
 693 0a2c 0020D4E5 		ldrb	r2, [r4]	@ zero_extendqisi2
 694 0a30 033081E0 		add	r3, r1, r3
 695 0a34 30669FE5 		ldr	r6, .L132+108
 696 0a38 FF3003E2 		and	r3, r3, #255
 697 0a3c 0030C5E5 		strb	r3, [r5]
 698 0a40 C0059FE5 		ldr	r0, .L132+8
 699 0a44 023083E0 		add	r3, r3, r2
 700 0a48 0030C4E5 		strb	r3, [r4]
 701 0a4c FEFFFFEB 		bl	uart_transmit
 702 0a50 0010D6E5 		ldrb	r1, [r6]	@ zero_extendqisi2
 703 0a54 0030D5E5 		ldrb	r3, [r5]	@ zero_extendqisi2
 704 0a58 0020D4E5 		ldrb	r2, [r4]	@ zero_extendqisi2
 705 0a5c 033081E0 		add	r3, r1, r3
 706 0a60 FF3003E2 		and	r3, r3, #255
 707 0a64 0030C5E5 		strb	r3, [r5]
 708 0a68 98059FE5 		ldr	r0, .L132+8
 709 0a6c 023083E0 		add	r3, r3, r2
 710 0a70 0030C4E5 		strb	r3, [r4]
 711 0a74 FEFFFFEB 		bl	uart_transmit
 712 0a78 0110D6E5 		ldrb	r1, [r6, #1]	@ zero_extendqisi2
 713 0a7c 0030D5E5 		ldrb	r3, [r5]	@ zero_extendqisi2
 714 0a80 0020D4E5 		ldrb	r2, [r4]	@ zero_extendqisi2
 715 0a84 033081E0 		add	r3, r1, r3
 716 0a88 FF3003E2 		and	r3, r3, #255
 717 0a8c 0030C5E5 		strb	r3, [r5]
 718 0a90 70059FE5 		ldr	r0, .L132+8
 719 0a94 023083E0 		add	r3, r3, r2
 720 0a98 0030C4E5 		strb	r3, [r4]
 721 0a9c FEFFFFEB 		bl	uart_transmit
 722 0aa0 0210D6E5 		ldrb	r1, [r6, #2]	@ zero_extendqisi2
 723 0aa4 0030D5E5 		ldrb	r3, [r5]	@ zero_extendqisi2
 724 0aa8 0020D4E5 		ldrb	r2, [r4]	@ zero_extendqisi2
 725 0aac 033081E0 		add	r3, r1, r3
 726 0ab0 FF3003E2 		and	r3, r3, #255
 727 0ab4 0030C5E5 		strb	r3, [r5]
 728 0ab8 48059FE5 		ldr	r0, .L132+8
 729 0abc 023083E0 		add	r3, r3, r2
 730 0ac0 0030C4E5 		strb	r3, [r4]
 731 0ac4 FEFFFFEB 		bl	uart_transmit
 732 0ac8 0310D6E5 		ldrb	r1, [r6, #3]	@ zero_extendqisi2
 733 0acc 0030D5E5 		ldrb	r3, [r5]	@ zero_extendqisi2
 734 0ad0 0020D4E5 		ldrb	r2, [r4]	@ zero_extendqisi2
 735 0ad4 033081E0 		add	r3, r1, r3
 736 0ad8 FF3003E2 		and	r3, r3, #255
 737 0adc 0030C5E5 		strb	r3, [r5]
 738 0ae0 20059FE5 		ldr	r0, .L132+8
 739 0ae4 023083E0 		add	r3, r3, r2
 740 0ae8 0030C4E5 		strb	r3, [r4]
 741 0aec FEFFFFEB 		bl	uart_transmit
 742 0af0 0030D5E5 		ldrb	r3, [r5]	@ zero_extendqisi2
 743 0af4 0020D4E5 		ldrb	r2, [r4]	@ zero_extendqisi2
 744 0af8 033087E0 		add	r3, r7, r3
 745 0afc FF3003E2 		and	r3, r3, #255
 746 0b00 0030C5E5 		strb	r3, [r5]
 747 0b04 0710A0E1 		mov	r1, r7
 748 0b08 023083E0 		add	r3, r3, r2
 749 0b0c F4049FE5 		ldr	r0, .L132+8
 750 0b10 0030C4E5 		strb	r3, [r4]
 751 0b14 FEFFFFEB 		bl	uart_transmit
 752 0b18 50359FE5 		ldr	r3, .L132+112
 753 0b1c 0010D3E5 		ldrb	r1, [r3]	@ zero_extendqisi2
 754 0b20 F2FEFFEA 		b	.L125
 755              	.L11:
 756 0b24 030055E3 		cmp	r5, #3
 757 0b28 2100001A 		bne	.L14
 758 0b2c 0230D4E5 		ldrb	r3, [r4, #2]	@ zero_extendqisi2
 759 0b30 020053E3 		cmp	r3, #2
 760 0b34 EE01001A 		bne	.L1
 761 0b38 0620D4E5 		ldrb	r2, [r4, #6]	@ zero_extendqisi2
 762 0b3c 0730D4E5 		ldrb	r3, [r4, #7]	@ zero_extendqisi2
 763 0b40 0228A0E1 		mov	r2, r2, asl #16
 764 0b44 032C82E1 		orr	r2, r2, r3, asl #24
 765 0b48 0510D4E5 		ldrb	r1, [r4, #5]	@ zero_extendqisi2
 766 0b4c 0430D4E5 		ldrb	r3, [r4, #4]	@ zero_extendqisi2
 767 0b50 013483E1 		orr	r3, r3, r1, asl #8
 768 0b54 032082E1 		orr	r2, r2, r3
 769 0b58 14359FE5 		ldr	r3, .L132+116
 770 0b5c 002083E5 		str	r2, [r3]	@ float
 771 0b60 0A20D4E5 		ldrb	r2, [r4, #10]	@ zero_extendqisi2
 772 0b64 0B30D4E5 		ldrb	r3, [r4, #11]	@ zero_extendqisi2
 773 0b68 0228A0E1 		mov	r2, r2, asl #16
 774 0b6c 032C82E1 		orr	r2, r2, r3, asl #24
 775 0b70 0910D4E5 		ldrb	r1, [r4, #9]	@ zero_extendqisi2
 776 0b74 0830D4E5 		ldrb	r3, [r4, #8]	@ zero_extendqisi2
 777 0b78 013483E1 		orr	r3, r3, r1, asl #8
 778 0b7c 032082E1 		orr	r2, r2, r3
 779 0b80 F0349FE5 		ldr	r3, .L132+120
 780 0b84 002083E5 		str	r2, [r3]	@ float
 781 0b88 0E20D4E5 		ldrb	r2, [r4, #14]	@ zero_extendqisi2
 782 0b8c 0F30D4E5 		ldrb	r3, [r4, #15]	@ zero_extendqisi2
 783 0b90 0228A0E1 		mov	r2, r2, asl #16
 784 0b94 032C82E1 		orr	r2, r2, r3, asl #24
 785 0b98 0D10D4E5 		ldrb	r1, [r4, #13]	@ zero_extendqisi2
 786 0b9c 0C30D4E5 		ldrb	r3, [r4, #12]	@ zero_extendqisi2
 787 0ba0 013483E1 		orr	r3, r3, r1, asl #8
 788 0ba4 032082E1 		orr	r2, r2, r3
 789 0ba8 CC349FE5 		ldr	r3, .L132+124
 790 0bac 002083E5 		str	r2, [r3]	@ float
 791 0bb0 CF0100EA 		b	.L1
 792              	.L14:
 793 0bb4 040055E3 		cmp	r5, #4
 794 0bb8 AE00001A 		bne	.L6
 795 0bbc 0330D4E5 		ldrb	r3, [r4, #3]	@ zero_extendqisi2
 796 0bc0 020053E3 		cmp	r3, #2
 797 0bc4 CA01001A 		bne	.L1
 798 0bc8 0620D4E5 		ldrb	r2, [r4, #6]	@ zero_extendqisi2
 799 0bcc 0730D4E5 		ldrb	r3, [r4, #7]	@ zero_extendqisi2
 800 0bd0 0228A0E1 		mov	r2, r2, asl #16
 801 0bd4 032C82E1 		orr	r2, r2, r3, asl #24
 802 0bd8 0510D4E5 		ldrb	r1, [r4, #5]	@ zero_extendqisi2
 803 0bdc 0430D4E5 		ldrb	r3, [r4, #4]	@ zero_extendqisi2
 804 0be0 0260D4E5 		ldrb	r6, [r4, #2]	@ zero_extendqisi2
 805 0be4 013483E1 		orr	r3, r3, r1, asl #8
 806 0be8 034082E1 		orr	r4, r2, r3
 807 0bec 50408DE5 		str	r4, [sp, #80]	@ float
 808 0bf0 1E0056E3 		cmp	r6, #30
 809 0bf4 06F19F97 		ldrls	pc, [pc, r6, asl #2]
 810 0bf8 550100EA 		b	.L130
 811              	.L17:
 812 0bfc 780C0000 		.word	.L16
 813 0c00 880C0000 		.word	.L18
 814 0c04 9C0C0000 		.word	.L19
 815 0c08 A40C0000 		.word	.L20
 816 0c0c B00C0000 		.word	.L21
 817 0c10 B80C0000 		.word	.L22
 818 0c14 C00C0000 		.word	.L23
 819 0c18 C80C0000 		.word	.L24
 820 0c1c D00C0000 		.word	.L25
 821 0c20 D80C0000 		.word	.L26
 822 0c24 E00C0000 		.word	.L27
 823 0c28 E80C0000 		.word	.L28
 824 0c2c F00C0000 		.word	.L29
 825 0c30 F80C0000 		.word	.L30
 826 0c34 000D0000 		.word	.L31
 827 0c38 5C0D0000 		.word	.L32
 828 0c3c 640D0000 		.word	.L33
 829 0c40 6C0D0000 		.word	.L34
 830 0c44 740D0000 		.word	.L35
 831 0c48 7C0D0000 		.word	.L36
 832 0c4c 840D0000 		.word	.L37
 833 0c50 8C0D0000 		.word	.L38
 834 0c54 940D0000 		.word	.L39
 835 0c58 9C0D0000 		.word	.L40
 836 0c5c D40D0000 		.word	.L41
 837 0c60 F00D0000 		.word	.L42
 838 0c64 380E0000 		.word	.L43
 839 0c68 480E0000 		.word	.L44
 840 0c6c 580E0000 		.word	.L45
 841 0c70 680E0000 		.word	.L46
 842 0c74 3C110000 		.word	.L96
 843              	.L16:
 844 0c78 0400A0E1 		mov	r0, r4
 845 0c7c FEFFFFEB 		bl	__aeabi_f2uiz
 846 0c80 F8339FE5 		ldr	r3, .L132+128
 847 0c84 020000EA 		b	.L119
 848              	.L18:
 849 0c88 0400A0E1 		mov	r0, r4
 850 0c8c FEFFFFEB 		bl	__aeabi_f2uiz
 851 0c90 EC339FE5 		ldr	r3, .L132+132
 852              	.L119:
 853 0c94 0000C3E5 		strb	r0, [r3]
 854 0c98 2D0100EA 		b	.L130
 855              	.L19:
 856 0c9c E4339FE5 		ldr	r3, .L132+136
 857 0ca0 000000EA 		b	.L120
 858              	.L20:
 859 0ca4 E0339FE5 		ldr	r3, .L132+140
 860              	.L120:
 861 0ca8 004083E5 		str	r4, [r3]	@ float
 862 0cac 280100EA 		b	.L130
 863              	.L21:
 864 0cb0 D8339FE5 		ldr	r3, .L132+144
 865 0cb4 FBFFFFEA 		b	.L120
 866              	.L22:
 867 0cb8 D4339FE5 		ldr	r3, .L132+148
 868 0cbc F9FFFFEA 		b	.L120
 869              	.L23:
 870 0cc0 D0339FE5 		ldr	r3, .L132+152
 871 0cc4 F7FFFFEA 		b	.L120
 872              	.L24:
 873 0cc8 CC339FE5 		ldr	r3, .L132+156
 874 0ccc F5FFFFEA 		b	.L120
 875              	.L25:
 876 0cd0 C8339FE5 		ldr	r3, .L132+160
 877 0cd4 F3FFFFEA 		b	.L120
 878              	.L26:
 879 0cd8 C4339FE5 		ldr	r3, .L132+164
 880 0cdc F1FFFFEA 		b	.L120
 881              	.L27:
 882 0ce0 C0339FE5 		ldr	r3, .L132+168
 883 0ce4 EFFFFFEA 		b	.L120
 884              	.L28:
 885 0ce8 BC339FE5 		ldr	r3, .L132+172
 886 0cec EDFFFFEA 		b	.L120
 887              	.L29:
 888 0cf0 B8339FE5 		ldr	r3, .L132+176
 889 0cf4 EBFFFFEA 		b	.L120
 890              	.L30:
 891 0cf8 B4339FE5 		ldr	r3, .L132+180
 892 0cfc E9FFFFEA 		b	.L120
 893              	.L31:
 894 0d00 0400A0E1 		mov	r0, r4
 895 0d04 0010A0E3 		mov	r1, #0
 896 0d08 FEFFFFEB 		bl	__aeabi_fcmpeq
 897 0d0c 000050E3 		cmp	r0, #0
 898 0d10 A0339F15 		ldrne	r3, .L132+184
 899 0d14 00409315 		ldrne	r4, [r3]	@ float
 900 0d18 9C339FE5 		ldr	r3, .L132+188
 901 0d1c 9C539FE5 		ldr	r5, .L132+192
 902 0d20 007093E5 		ldr	r7, [r3]	@ float
 903 0d24 004085E5 		str	r4, [r5]	@ float
 904 0d28 0400A0E1 		mov	r0, r4
 905 0d2c 0710A0E1 		mov	r1, r7
 906 0d30 FEFFFFEB 		bl	__aeabi_fcmpgt
 907 0d34 000050E3 		cmp	r0, #0
 908 0d38 1E00001A 		bne	.L127
 909 0d3c 80339FE5 		ldr	r3, .L132+196
 910 0d40 007093E5 		ldr	r7, [r3]	@ float
 911 0d44 0400A0E1 		mov	r0, r4
 912 0d48 0710A0E1 		mov	r1, r7
 913 0d4c FEFFFFEB 		bl	__aeabi_fcmplt
 914 0d50 000050E3 		cmp	r0, #0
 915 0d54 3400000A 		beq	.L58
 916 0d58 160000EA 		b	.L127
 917              	.L32:
 918 0d5c 64339FE5 		ldr	r3, .L132+200
 919 0d60 D0FFFFEA 		b	.L120
 920              	.L33:
 921 0d64 60339FE5 		ldr	r3, .L132+204
 922 0d68 CEFFFFEA 		b	.L120
 923              	.L34:
 924 0d6c 5C339FE5 		ldr	r3, .L132+208
 925 0d70 CCFFFFEA 		b	.L120
 926              	.L35:
 927 0d74 58339FE5 		ldr	r3, .L132+212
 928 0d78 CAFFFFEA 		b	.L120
 929              	.L36:
 930 0d7c 54339FE5 		ldr	r3, .L132+216
 931 0d80 C8FFFFEA 		b	.L120
 932              	.L37:
 933 0d84 50339FE5 		ldr	r3, .L132+220
 934 0d88 C6FFFFEA 		b	.L120
 935              	.L38:
 936 0d8c 4C339FE5 		ldr	r3, .L132+224
 937 0d90 C4FFFFEA 		b	.L120
 938              	.L39:
 939 0d94 48339FE5 		ldr	r3, .L132+228
 940 0d98 C2FFFFEA 		b	.L120
 941              	.L40:
 942 0d9c 0070A0E3 		mov	r7, #0
 943 0da0 0400A0E1 		mov	r0, r4
 944 0da4 0710A0E1 		mov	r1, r7
 945 0da8 FEFFFFEB 		bl	__aeabi_fcmpeq
 946 0dac 000050E3 		cmp	r0, #0
 947 0db0 30539FE5 		ldr	r5, .L132+232
 948 0db4 0100000A 		beq	.L114
 949              	.L127:
 950 0db8 007085E5 		str	r7, [r5]	@ float
 951 0dbc 1A0000EA 		b	.L58
 952              	.L114:
 953 0dc0 000095E5 		ldr	r0, [r5]	@ float
 954 0dc4 0410A0E1 		mov	r1, r4
 955 0dc8 FEFFFFEB 		bl	__aeabi_fadd
 956 0dcc 000085E5 		str	r0, [r5]	@ float
 957 0dd0 150000EA 		b	.L58
 958              	.L41:
 959 0dd4 10239FE5 		ldr	r2, .L132+236
 960 0dd8 0030A0E3 		mov	r3, #0
 961 0ddc B030C2E1 		strh	r3, [r2]	@ movhi
 962 0de0 1C239FE5 		ldr	r2, .L132+260
 963 0de4 0030C2E5 		strb	r3, [r2]
 964 0de8 0030A0E3 		mov	r3, #0
 965 0dec 0F0000EA 		b	.L121
 966              	.L42:
 967 0df0 0400A0E1 		mov	r0, r4
 968 0df4 FE15A0E3 		mov	r1, #1065353216
 969 0df8 FEFFFFEB 		bl	__aeabi_fcmpeq
 970 0dfc 000050E3 		cmp	r0, #0
 971 0e00 E8529FE5 		ldr	r5, .L132+240
 972 0e04 1C329F15 		ldrne	r3, .L132+40
 973 0e08 0600001A 		bne	.L118
 974 0e0c 0400A0E1 		mov	r0, r4
 975 0e10 DC129FE5 		ldr	r1, .L132+244
 976 0e14 FEFFFFEB 		bl	__aeabi_fcmpeq
 977 0e18 000050E3 		cmp	r0, #0
 978 0e1c 00408505 		streq	r4, [r5]	@ float
 979 0e20 0100000A 		beq	.L58
 980 0e24 CC329FE5 		ldr	r3, .L132+248
 981              	.L118:
 982 0e28 003085E5 		str	r3, [r5]	@ float
 983              	.L58:
 984 0e2c 003095E5 		ldr	r3, [r5]	@ float
 985              	.L121:
 986 0e30 50308DE5 		str	r3, [sp, #80]	@ float
 987 0e34 C60000EA 		b	.L130
 988              	.L43:
 989 0e38 0400A0E1 		mov	r0, r4
 990 0e3c FEFFFFEB 		bl	__aeabi_f2uiz
 991 0e40 B4329FE5 		ldr	r3, .L132+252
 992 0e44 92FFFFEA 		b	.L119
 993              	.L44:
 994 0e48 0400A0E1 		mov	r0, r4
 995 0e4c FEFFFFEB 		bl	__aeabi_f2uiz
 996 0e50 A8329FE5 		ldr	r3, .L132+256
 997 0e54 8EFFFFEA 		b	.L119
 998              	.L45:
 999 0e58 0400A0E1 		mov	r0, r4
 1000 0e5c FEFFFFEB 		bl	__aeabi_f2uiz
 1001 0e60 9C329FE5 		ldr	r3, .L132+260
 1002 0e64 8AFFFFEA 		b	.L119
 1003              	.L46:
 1004 0e68 0400A0E1 		mov	r0, r4
 1005 0e6c FEFFFFEB 		bl	__aeabi_f2uiz
 1006 0e70 90329FE5 		ldr	r3, .L132+264
 1007 0e74 86FFFFEA 		b	.L119
 1008              	.L6:
 1009 0e78 100055E3 		cmp	r5, #16
 1010 0e7c 0901001A 		bne	.L63
 1011 0e80 0330D4E5 		ldrb	r3, [r4, #3]	@ zero_extendqisi2
 1012 0e84 020053E3 		cmp	r3, #2
 1013 0e88 1901001A 		bne	.L1
 1014 0e8c 0260D4E5 		ldrb	r6, [r4, #2]	@ zero_extendqisi2
 1015 0e90 1E0056E3 		cmp	r6, #30
 1016 0e94 06F19F97 		ldrls	pc, [pc, r6, asl #2]
 1017 0e98 AB0000EA 		b	.L100
 1018              	.L66:
 1019 0e9c 180F0000 		.word	.L65
 1020 0ea0 200F0000 		.word	.L67
 1021 0ea4 280F0000 		.word	.L68
 1022 0ea8 300F0000 		.word	.L69
 1023 0eac 380F0000 		.word	.L70
 1024 0eb0 400F0000 		.word	.L71
 1025 0eb4 480F0000 		.word	.L72
 1026 0eb8 500F0000 		.word	.L73
 1027 0ebc 580F0000 		.word	.L74
 1028 0ec0 600F0000 		.word	.L75
 1029 0ec4 680F0000 		.word	.L76
 1030 0ec8 700F0000 		.word	.L77
 1031 0ecc 780F0000 		.word	.L78
 1032 0ed0 800F0000 		.word	.L79
 1033 0ed4 880F0000 		.word	.L80
 1034 0ed8 900F0000 		.word	.L81
 1035 0edc 980F0000 		.word	.L82
 1036 0ee0 A00F0000 		.word	.L83
 1037 0ee4 A80F0000 		.word	.L84
 1038 0ee8 B00F0000 		.word	.L85
 1039 0eec B80F0000 		.word	.L86
 1040 0ef0 C00F0000 		.word	.L87
 1041 0ef4 C80F0000 		.word	.L88
 1042 0ef8 D00F0000 		.word	.L89
 1043 0efc D80F0000 		.word	.L90
 1044 0f00 E40F0000 		.word	.L91
 1045 0f04 F00F0000 		.word	.L92
 1046 0f08 F80F0000 		.word	.L93
 1047 0f0c 28110000 		.word	.L94
 1048 0f10 30110000 		.word	.L95
 1049 0f14 3C110000 		.word	.L96
 1050              	.L65:
 1051 0f18 60319FE5 		ldr	r3, .L132+128
 1052 0f1c 840000EA 		b	.L128
 1053              	.L67:
 1054 0f20 5C319FE5 		ldr	r3, .L132+132
 1055 0f24 820000EA 		b	.L128
 1056              	.L68:
 1057 0f28 58319FE5 		ldr	r3, .L132+136
 1058 0f2c 2D0000EA 		b	.L123
 1059              	.L69:
 1060 0f30 54319FE5 		ldr	r3, .L132+140
 1061 0f34 2B0000EA 		b	.L123
 1062              	.L70:
 1063 0f38 50319FE5 		ldr	r3, .L132+144
 1064 0f3c 290000EA 		b	.L123
 1065              	.L71:
 1066 0f40 4C319FE5 		ldr	r3, .L132+148
 1067 0f44 270000EA 		b	.L123
 1068              	.L72:
 1069 0f48 48319FE5 		ldr	r3, .L132+152
 1070 0f4c 250000EA 		b	.L123
 1071              	.L73:
 1072 0f50 44319FE5 		ldr	r3, .L132+156
 1073 0f54 230000EA 		b	.L123
 1074              	.L74:
 1075 0f58 40319FE5 		ldr	r3, .L132+160
 1076 0f5c 210000EA 		b	.L123
 1077              	.L75:
 1078 0f60 3C319FE5 		ldr	r3, .L132+164
 1079 0f64 1F0000EA 		b	.L123
 1080              	.L76:
 1081 0f68 38319FE5 		ldr	r3, .L132+168
 1082 0f6c 1D0000EA 		b	.L123
 1083              	.L77:
 1084 0f70 34319FE5 		ldr	r3, .L132+172
 1085 0f74 1B0000EA 		b	.L123
 1086              	.L78:
 1087 0f78 30319FE5 		ldr	r3, .L132+176
 1088 0f7c 190000EA 		b	.L123
 1089              	.L79:
 1090 0f80 2C319FE5 		ldr	r3, .L132+180
 1091 0f84 170000EA 		b	.L123
 1092              	.L80:
 1093 0f88 30319FE5 		ldr	r3, .L132+192
 1094 0f8c 150000EA 		b	.L123
 1095              	.L81:
 1096 0f90 30319FE5 		ldr	r3, .L132+200
 1097 0f94 130000EA 		b	.L123
 1098              	.L82:
 1099 0f98 2C319FE5 		ldr	r3, .L132+204
 1100 0f9c 110000EA 		b	.L123
 1101              	.L83:
 1102 0fa0 28319FE5 		ldr	r3, .L132+208
 1103 0fa4 0F0000EA 		b	.L123
 1104              	.L84:
 1105 0fa8 24319FE5 		ldr	r3, .L132+212
 1106 0fac 0D0000EA 		b	.L123
 1107              	.L85:
 1108 0fb0 20319FE5 		ldr	r3, .L132+216
 1109 0fb4 0B0000EA 		b	.L123
 1110              	.L86:
 1111 0fb8 1C319FE5 		ldr	r3, .L132+220
 1112 0fbc 090000EA 		b	.L123
 1113              	.L87:
 1114 0fc0 18319FE5 		ldr	r3, .L132+224
 1115 0fc4 070000EA 		b	.L123
 1116              	.L88:
 1117 0fc8 14319FE5 		ldr	r3, .L132+228
 1118 0fcc 050000EA 		b	.L123
 1119              	.L89:
 1120 0fd0 10319FE5 		ldr	r3, .L132+232
 1121 0fd4 030000EA 		b	.L123
 1122              	.L90:
 1123 0fd8 0C319FE5 		ldr	r3, .L132+236
 1124 0fdc B000D3E1 		ldrh	r0, [r3]
 1125 0fe0 570000EA 		b	.L122
 1126              	.L91:
 1127 0fe4 04319FE5 		ldr	r3, .L132+240
 1128              	.L123:
 1129 0fe8 000093E5 		ldr	r0, [r3]	@ float
 1130 0fec 570000EA 		b	.L64
 1131              	.L92:
 1132 0ff0 04319FE5 		ldr	r3, .L132+252
 1133 0ff4 4E0000EA 		b	.L128
 1134              	.L93:
 1135 0ff8 00319FE5 		ldr	r3, .L132+256
 1136 0ffc 4C0000EA 		b	.L128
 1137              	.L133:
 1138              		.align	2
 1139              	.L132:
 1140 1000 00000000 		.word	dl_buffer
 1141 1004 00000000 		.word	datalink_time
 1142 1008 00000000 		.word	uart1
 1143 100c 00000000 		.word	downlink_nb_bytes
 1144 1010 00000000 		.word	downlink_nb_msgs
 1145 1014 00000000 		.word	ck_a
 1146 1018 00000000 		.word	ck_b
 1147 101c 00000000 		.word	acs_idx
 1148 1020 00000000 		.word	the_acs_id
 1149 1024 00000000 		.word	the_acs
 1150 1028 0000C842 		.word	1120403456
 1151 102c 00000000 		.word	nav_utm_east0
 1152 1030 00000000 		.word	nav_utm_north0
 1153 1034 00002440 		.word	1076101120
 1154 1038 399D52A2 		.word	-1571644103
 1155 103c 46DF913F 		.word	1066524486
 1156 1040 D0126341 		.word	1097011920
 1157 1044 00000000 		.word	nav_utm_zone0
 1158 1048 00000000 		.word	waypoints
 1159 104c 00000000 		.word	nav_circle_radians
 1160 1050 182D4454 		.word	1413754136
 1161 1054 FB211940 		.word	1075388923
 1162 1058 00000000 		.word	nav_block
 1163 105c 00000000 		.word	nav_stage
 1164 1060 00000000 		.word	estimator_x
 1165 1064 00000000 		.word	estimator_y
 1166 1068 00000000 		.word	dist2_to_wp
 1167 106c 00000000 		.word	dist2_to_home
 1168 1070 00000000 		.word	nav_oval_count
 1169 1074 00000000 		.word	wind_east
 1170 1078 00000000 		.word	wind_north
 1171 107c 00000000 		.word	estimator_airspeed
 1172 1080 00000000 		.word	telemetry_mode_Ap
 1173 1084 00000000 		.word	telemetry_mode_Fbw
 1174 1088 00000000 		.word	h_ctl_pitch_pgain
 1175 108c 00000000 		.word	h_ctl_pitch_dgain
 1176 1090 00000000 		.word	h_ctl_elevator_of_roll
 1177 1094 00000000 		.word	h_ctl_roll_attitude_gain
 1178 1098 00000000 		.word	h_ctl_roll_rate_gain
 1179 109c 00000000 		.word	h_ctl_aileron_of_throttle
 1180 10a0 00000000 		.word	h_ctl_roll_slew
 1181 10a4 00000000 		.word	h_ctl_course_pgain
 1182 10a8 00000000 		.word	h_ctl_course_dgain
 1183 10ac 00000000 		.word	h_ctl_course_pre_bank_correction
 1184 10b0 00000000 		.word	h_ctl_roll_max_setpoint
 1185 10b4 00000000 		.word	v_ctl_altitude_pgain
 1186 10b8 00000000 		.word	v_ctl_auto_throttle_nominal_cruise_throttle
 1187 10bc 00000000 		.word	v_ctl_auto_throttle_max_cruise_throttle
 1188 10c0 00000000 		.word	v_ctl_auto_throttle_cruise_throttle
 1189 10c4 00000000 		.word	v_ctl_auto_throttle_min_cruise_throttle
 1190 10c8 00000000 		.word	v_ctl_auto_throttle_pgain
 1191 10cc 00000000 		.word	v_ctl_auto_throttle_igain
 1192 10d0 00000000 		.word	v_ctl_auto_throttle_dgain
 1193 10d4 00000000 		.word	v_ctl_auto_throttle_climb_throttle_increment
 1194 10d8 00000000 		.word	v_ctl_auto_throttle_pitch_of_vz_pgain
 1195 10dc 00000000 		.word	v_ctl_auto_throttle_pitch_of_vz_dgain
 1196 10e0 00000000 		.word	flight_altitude
 1197 10e4 00000000 		.word	nav_course
 1198 10e8 00000000 		.word	nav_shift
 1199 10ec 00000000 		.word	estimator_flight_time
 1200 10f0 00000000 		.word	nav_radius
 1201 10f4 000080BF 		.word	-1082130432
 1202 10f8 0000C8C2 		.word	-1027080192
 1203 10fc 00000000 		.word	route_ap_time
 1204 1100 00000000 		.word	pprz_mode
 1205 1104 00000000 		.word	launch
 1206 1108 00000000 		.word	kill_throttle
 1207 110c 00000000 		.word	gps
 1208 1110 00000000 		.word	downlink_nb_bytes
 1209 1114 00000000 		.word	downlink_nb_msgs
 1210 1118 00000000 		.word	ck_a
 1211 111c 00000000 		.word	ck_b
 1212 1120 00000000 		.word	uart1
 1213 1124 00000000 		.word	downlink_nb_ovrn
 1214              	.L94:
 1215 1128 2C301FE5 		ldr	r3, .L132+260
 1216 112c 000000EA 		b	.L128
 1217              	.L95:
 1218 1130 30301FE5 		ldr	r3, .L132+264
 1219              	.L128:
 1220 1134 0000D3E5 		ldrb	r0, [r3]	@ zero_extendqisi2
 1221 1138 010000EA 		b	.L122
 1222              	.L96:
 1223 113c 38301FE5 		ldr	r3, .L132+268
 1224 1140 B00FD3E1 		ldrh	r0, [r3, #240]
 1225              	.L122:
 1226 1144 FEFFFFEB 		bl	__aeabi_ui2f
 1227 1148 000000EA 		b	.L64
 1228              	.L100:
 1229 114c 0000A0E3 		mov	r0, #0
 1230              	.L64:
 1231 1150 50008DE5 		str	r0, [sp, #80]	@ float
 1232              	.L130:
 1233 1154 3C001FE5 		ldr	r0, .L132+288
 1234 1158 0B10A0E3 		mov	r1, #11
 1235 115c FEFFFFEB 		bl	uart_check_free_space
 1236 1160 000050E3 		cmp	r0, #0
 1237 1164 4A00000A 		beq	.L97
 1238 1168 60301FE5 		ldr	r3, .L132+272
 1239 116c B020D3E1 		ldrh	r2, [r3]
 1240 1170 0B2082E2 		add	r2, r2, #11
 1241 1174 B020C3E1 		strh	r2, [r3]	@ movhi
 1242 1178 6C301FE5 		ldr	r3, .L132+276
 1243 117c B020D3E1 		ldrh	r2, [r3]
 1244 1180 68001FE5 		ldr	r0, .L132+288
 1245 1184 012082E2 		add	r2, r2, #1
 1246 1188 9910A0E3 		mov	r1, #153
 1247 118c 7C501FE5 		ldr	r5, .L132+280
 1248 1190 B020C3E1 		strh	r2, [r3]	@ movhi
 1249 1194 FEFFFFEB 		bl	uart_transmit
 1250 1198 80001FE5 		ldr	r0, .L132+288
 1251 119c 0B10A0E3 		mov	r1, #11
 1252 11a0 8C401FE5 		ldr	r4, .L132+284
 1253 11a4 FEFFFFEB 		bl	uart_transmit
 1254 11a8 0D30A0E3 		mov	r3, #13
 1255 11ac 0030C5E5 		strb	r3, [r5]
 1256 11b0 98001FE5 		ldr	r0, .L132+288
 1257 11b4 1830A0E3 		mov	r3, #24
 1258 11b8 0210A0E3 		mov	r1, #2
 1259 11bc 0030C4E5 		strb	r3, [r4]
 1260 11c0 FEFFFFEB 		bl	uart_transmit
 1261 11c4 0030D5E5 		ldrb	r3, [r5]	@ zero_extendqisi2
 1262 11c8 0020D4E5 		ldrb	r2, [r4]	@ zero_extendqisi2
 1263 11cc 1F3083E2 		add	r3, r3, #31
 1264 11d0 FF3003E2 		and	r3, r3, #255
 1265 11d4 0030C5E5 		strb	r3, [r5]
 1266 11d8 C0001FE5 		ldr	r0, .L132+288
 1267 11dc 023083E0 		add	r3, r3, r2
 1268 11e0 1F10A0E3 		mov	r1, #31
 1269 11e4 0030C4E5 		strb	r3, [r4]
 1270 11e8 FEFFFFEB 		bl	uart_transmit
 1271 11ec 0030D5E5 		ldrb	r3, [r5]	@ zero_extendqisi2
 1272 11f0 0020D4E5 		ldrb	r2, [r4]	@ zero_extendqisi2
 1273 11f4 033086E0 		add	r3, r6, r3
 1274 11f8 FF3003E2 		and	r3, r3, #255
 1275 11fc 0030C5E5 		strb	r3, [r5]
 1276 1200 E8001FE5 		ldr	r0, .L132+288
 1277 1204 023083E0 		add	r3, r3, r2
 1278 1208 0610A0E1 		mov	r1, r6
 1279 120c 0030C4E5 		strb	r3, [r4]
 1280 1210 FEFFFFEB 		bl	uart_transmit
 1281 1214 5010DDE5 		ldrb	r1, [sp, #80]	@ zero_extendqisi2
 1282 1218 0030D5E5 		ldrb	r3, [r5]	@ zero_extendqisi2
 1283 121c 0020D4E5 		ldrb	r2, [r4]	@ zero_extendqisi2
 1284 1220 033081E0 		add	r3, r1, r3
 1285 1224 FF3003E2 		and	r3, r3, #255
 1286 1228 0030C5E5 		strb	r3, [r5]
 1287 122c 14011FE5 		ldr	r0, .L132+288
 1288 1230 023083E0 		add	r3, r3, r2
 1289 1234 0030C4E5 		strb	r3, [r4]
 1290 1238 FEFFFFEB 		bl	uart_transmit
 1291 123c 5110DDE5 		ldrb	r1, [sp, #81]	@ zero_extendqisi2
 1292 1240 0030D5E5 		ldrb	r3, [r5]	@ zero_extendqisi2
 1293 1244 0020D4E5 		ldrb	r2, [r4]	@ zero_extendqisi2
 1294 1248 033081E0 		add	r3, r1, r3
 1295 124c FF3003E2 		and	r3, r3, #255
 1296 1250 0030C5E5 		strb	r3, [r5]
 1297 1254 3C011FE5 		ldr	r0, .L132+288
 1298 1258 023083E0 		add	r3, r3, r2
 1299 125c 0030C4E5 		strb	r3, [r4]
 1300 1260 FEFFFFEB 		bl	uart_transmit
 1301 1264 5210DDE5 		ldrb	r1, [sp, #82]	@ zero_extendqisi2
 1302 1268 0030D5E5 		ldrb	r3, [r5]	@ zero_extendqisi2
 1303 126c 0020D4E5 		ldrb	r2, [r4]	@ zero_extendqisi2
 1304 1270 033081E0 		add	r3, r1, r3
 1305 1274 FF3003E2 		and	r3, r3, #255
 1306 1278 0030C5E5 		strb	r3, [r5]
 1307 127c 64011FE5 		ldr	r0, .L132+288
 1308 1280 023083E0 		add	r3, r3, r2
 1309 1284 0030C4E5 		strb	r3, [r4]
 1310 1288 FEFFFFEB 		bl	uart_transmit
 1311 128c 5310DDE5 		ldrb	r1, [sp, #83]	@ zero_extendqisi2
 1312 1290 16FDFFEA 		b	.L125
 1313              	.L97:
 1314 1294 78311FE5 		ldr	r3, .L132+292
 1315 1298 0020D3E5 		ldrb	r2, [r3]	@ zero_extendqisi2
 1316 129c 012082E2 		add	r2, r2, #1
 1317 12a0 0020C3E5 		strb	r2, [r3]
 1318 12a4 120000EA 		b	.L1
 1319              	.L63:
 1320 12a8 330055E3 		cmp	r5, #51
 1321 12ac 0400001A 		bne	.L12
 1322 12b0 0200D4E5 		ldrb	r0, [r4, #2]	@ zero_extendqisi2
 1323 12b4 D310D4E1 		ldrsb	r1, [r4, #3]
 1324 12b8 D420D4E1 		ldrsb	r2, [r4, #4]
 1325 12bc FEFFFFEB 		bl	parse_rc_3ch_datalink
 1326 12c0 0B0000EA 		b	.L1
 1327              	.L12:
 1328 12c4 340055E3 		cmp	r5, #52
 1329 12c8 0900001A 		bne	.L1
 1330 12cc 0230D4E5 		ldrb	r3, [r4, #2]	@ zero_extendqisi2
 1331 12d0 020053E3 		cmp	r3, #2
 1332 12d4 0600001A 		bne	.L1
 1333 12d8 D7C0D4E1 		ldrsb	ip, [r4, #7]
 1334 12dc 0300D4E5 		ldrb	r0, [r4, #3]	@ zero_extendqisi2
 1335 12e0 0410D4E5 		ldrb	r1, [r4, #4]	@ zero_extendqisi2
 1336 12e4 D520D4E1 		ldrsb	r2, [r4, #5]
 1337 12e8 D630D4E1 		ldrsb	r3, [r4, #6]
 1338 12ec 00C08DE5 		str	ip, [sp]
 1339 12f0 FEFFFFEB 		bl	parse_rc_4ch_datalink
 1340              	.L1:
 1341 12f4 64D08DE2 		add	sp, sp, #100
 1342              		@ sp needed
 1343 12f8 F04FBDE8 		ldmfd	sp!, {r4, r5, r6, r7, r8, r9, r10, fp, lr}
 1344 12fc 1EFF2FE1 		bx	lr
 1346              		.comm	dl_buffer,128,8
 1347              		.comm	datalink_time,2,2
 1348              		.comm	dl_msg_available,1,1
 1349              		.ident	"GCC: (GNU Tools for ARM Embedded Processors) 4.8.3 20131129 (release) [ARM/embedded-4_8-br
DEFINED SYMBOLS
                            *ABS*:00000000 datalink.c
     /tmp/ccNVBte6.s:29     .text.dl_parse_msg:00000000 $a
     /tmp/ccNVBte6.s:32     .text.dl_parse_msg:00000000 dl_parse_msg
     /tmp/ccNVBte6.s:812    .text.dl_parse_msg:00000bfc $d
     /tmp/ccNVBte6.s:844    .text.dl_parse_msg:00000c78 $a
     /tmp/ccNVBte6.s:1019   .text.dl_parse_msg:00000e9c $d
     /tmp/ccNVBte6.s:1051   .text.dl_parse_msg:00000f18 $a
     /tmp/ccNVBte6.s:1140   .text.dl_parse_msg:00001000 $d
                            *COM*:00000080 dl_buffer
                            *COM*:00000002 datalink_time
     /tmp/ccNVBte6.s:1215   .text.dl_parse_msg:00001128 $a
                            *COM*:00000001 dl_msg_available

UNDEFINED SYMBOLS
__aeabi_i2f
__aeabi_fdiv
__aeabi_fsub
__aeabi_f2d
__aeabi_ddiv
__aeabi_dmul
__aeabi_d2f
__aeabi_ui2f
__aeabi_i2d
__aeabi_fadd
__aeabi_d2uiz
__aeabi_f2uiz
__aeabi_fcmpeq
__aeabi_fcmpgt
__aeabi_fcmplt
uart_check_free_space
uart_transmit
utm_of_lla_f
nav_move_waypoint
nav_goto_block
uart1
downlink_nb_bytes
downlink_nb_msgs
ck_a
ck_b
acs_idx
the_acs_id
the_acs
nav_utm_east0
nav_utm_north0
nav_utm_zone0
waypoints
nav_circle_radians
nav_block
nav_stage
estimator_x
estimator_y
dist2_to_wp
dist2_to_home
nav_oval_count
wind_east
wind_north
estimator_airspeed
telemetry_mode_Ap
telemetry_mode_Fbw
h_ctl_pitch_pgain
h_ctl_pitch_dgain
h_ctl_elevator_of_roll
h_ctl_roll_attitude_gain
h_ctl_roll_rate_gain
h_ctl_aileron_of_throttle
h_ctl_roll_slew
h_ctl_course_pgain
h_ctl_course_dgain
h_ctl_course_pre_bank_correction
h_ctl_roll_max_setpoint
v_ctl_altitude_pgain
v_ctl_auto_throttle_nominal_cruise_throttle
v_ctl_auto_throttle_max_cruise_throttle
v_ctl_auto_throttle_cruise_throttle
v_ctl_auto_throttle_min_cruise_throttle
v_ctl_auto_throttle_pgain
v_ctl_auto_throttle_igain
v_ctl_auto_throttle_dgain
v_ctl_auto_throttle_climb_throttle_increment
v_ctl_auto_throttle_pitch_of_vz_pgain
v_ctl_auto_throttle_pitch_of_vz_dgain
flight_altitude
nav_course
nav_shift
estimator_flight_time
nav_radius
route_ap_time
pprz_mode
launch
kill_throttle
gps
downlink_nb_ovrn
parse_rc_3ch_datalink
parse_rc_4ch_datalink
