   1              		.cpu arm7tdmi
   2              		.fpu softvfp
   3              		.eabi_attribute 20, 1
   4              		.eabi_attribute 21, 1
   5              		.eabi_attribute 23, 3
   6              		.eabi_attribute 24, 1
   7              		.eabi_attribute 25, 1
   8              		.eabi_attribute 26, 1
   9              		.eabi_attribute 30, 4
  10              		.eabi_attribute 34, 0
  11              		.eabi_attribute 18, 4
  12              		.file	"gls.c"
  13              		.global	__aeabi_fcmpeq
  14              		.global	__aeabi_fsub
  15              		.global	__aeabi_fmul
  16              		.global	__aeabi_fadd
  17              		.global	__aeabi_f2d
  18              		.global	__aeabi_d2f
  19              		.global	__aeabi_ddiv
  20              		.global	__aeabi_fdiv
  21              		.global	__aeabi_fcmpgt
  22              		.section	.text.gls_init,"ax",%progbits
  23              		.align	2
  24              		.global	gls_init
  26              	gls_init:
  27              		@ Function supports interworking.
  28              		@ args = 0, pretend = 0, frame = 24
  29              		@ frame_needed = 0, uses_anonymous_args = 0
  30 0000 28329FE5 		ldr	r3, .L11
  31 0004 F04F2DE9 		stmfd	sp!, {r4, r5, r6, r7, r8, r9, r10, fp, lr}
  32 0008 02A0A0E1 		mov	r10, r2
  33 000c 0120A0E3 		mov	r2, #1
  34 0010 0020C3E5 		strb	r2, [r3]
  35 0014 18229FE5 		ldr	r2, .L11+4
  36 0018 18329FE5 		ldr	r3, .L11+8
  37 001c 002083E5 		str	r2, [r3]	@ float
  38 0020 14229FE5 		ldr	r2, .L11+12
  39 0024 14329FE5 		ldr	r3, .L11+16
  40 0028 0C50A0E3 		mov	r5, #12
  41 002c 002083E5 		str	r2, [r3]	@ float
  42 0030 950A03E0 		mul	r3, r5, r10
  43 0034 900505E0 		mul	r5, r0, r5
  44 0038 04429FE5 		ldr	r4, .L11+20
  45 003c 037094E7 		ldr	r7, [r4, r3]	@ float
  46 0040 1CD04DE2 		sub	sp, sp, #28
  47 0044 14108DE5 		str	r1, [sp, #20]
  48 0048 0060A0E1 		mov	r6, r0
  49 004c 0710A0E1 		mov	r1, r7
  50 0050 050094E7 		ldr	r0, [r4, r5]	@ float
  51 0054 038084E0 		add	r8, r4, r3
  52 0058 FEFFFFEB 		bl	__aeabi_fcmpeq
  53 005c 000050E3 		cmp	r0, #0
  54 0060 059084E0 		add	r9, r4, r5
  55 0064 0800000A 		beq	.L2
  56 0068 040099E5 		ldr	r0, [r9, #4]	@ float
  57 006c 041098E5 		ldr	r1, [r8, #4]	@ float
  58 0070 FEFFFFEB 		bl	__aeabi_fcmpeq
  59 0074 000050E3 		cmp	r0, #0
  60 0078 0300000A 		beq	.L2
  61 007c 0700A0E1 		mov	r0, r7
  62 0080 FE15A0E3 		mov	r1, #1065353216
  63 0084 FEFFFFEB 		bl	__aeabi_fsub
  64 0088 050084E7 		str	r0, [r4, r5]	@ float
  65              	.L2:
  66 008c 0CB0A0E3 		mov	fp, #12
  67 0090 9B0602E0 		mul	r2, fp, r6
  68 0094 9B0A0AE0 		mul	r10, fp, r10
  69 0098 020094E7 		ldr	r0, [r4, r2]	@ float
  70 009c 0A1094E7 		ldr	r1, [r4, r10]	@ float
  71 00a0 025084E0 		add	r5, r4, r2
  72 00a4 10208DE5 		str	r2, [sp, #16]
  73 00a8 FEFFFFEB 		bl	__aeabi_fsub
  74 00ac 0A8084E0 		add	r8, r4, r10
  75 00b0 00C0A0E1 		mov	ip, r0
  76 00b4 041098E5 		ldr	r1, [r8, #4]	@ float
  77 00b8 040095E5 		ldr	r0, [r5, #4]	@ float
  78 00bc 04C08DE5 		str	ip, [sp, #4]
  79 00c0 FEFFFFEB 		bl	__aeabi_fsub
  80 00c4 04C09DE5 		ldr	ip, [sp, #4]
  81 00c8 0090A0E1 		mov	r9, r0
  82 00cc 0C10A0E1 		mov	r1, ip
  83 00d0 0C00A0E1 		mov	r0, ip
  84 00d4 FEFFFFEB 		bl	__aeabi_fmul
  85 00d8 0910A0E1 		mov	r1, r9
  86 00dc 0060A0E1 		mov	r6, r0
  87 00e0 0900A0E1 		mov	r0, r9
  88 00e4 FEFFFFEB 		bl	__aeabi_fmul
  89 00e8 0010A0E1 		mov	r1, r0
  90 00ec 0600A0E1 		mov	r0, r6
  91 00f0 FEFFFFEB 		bl	__aeabi_fadd
  92 00f4 FEFFFFEB 		bl	__aeabi_f2d
  93 00f8 FEFFFFEB 		bl	sqrt
  94 00fc FEFFFFEB 		bl	__aeabi_d2f
  95 0100 30319FE5 		ldr	r3, .L11+8
  96 0104 0060A0E1 		mov	r6, r0
  97 0108 000093E5 		ldr	r0, [r3]	@ float
  98 010c FEFFFFEB 		bl	__aeabi_f2d
  99 0110 FEFFFFEB 		bl	tan
 100 0114 0020A0E1 		mov	r2, r0
 101 0118 0130A0E1 		mov	r3, r1
 102 011c 080095E5 		ldr	r0, [r5, #8]	@ float
 103 0120 081098E5 		ldr	r1, [r8, #8]	@ float
 104 0124 0C208DE5 		str	r2, [sp, #12]
 105 0128 08308DE5 		str	r3, [sp, #8]
 106 012c FEFFFFEB 		bl	__aeabi_fsub
 107 0130 FEFFFFEB 		bl	__aeabi_f2d
 108 0134 08309DE5 		ldr	r3, [sp, #8]
 109 0138 0C209DE5 		ldr	r2, [sp, #12]
 110 013c FEFFFFEB 		bl	__aeabi_ddiv
 111 0140 FEFFFFEB 		bl	__aeabi_d2f
 112 0144 04C09DE5 		ldr	ip, [sp, #4]
 113 0148 0070A0E1 		mov	r7, r0
 114 014c 0610A0E1 		mov	r1, r6
 115 0150 0C00A0E1 		mov	r0, ip
 116 0154 FEFFFFEB 		bl	__aeabi_fdiv
 117 0158 14209DE5 		ldr	r2, [sp, #20]
 118 015c 9B0202E0 		mul	r2, fp, r2
 119 0160 0710A0E1 		mov	r1, r7
 120 0164 02B084E0 		add	fp, r4, r2
 121 0168 0C208DE5 		str	r2, [sp, #12]
 122 016c 08008DE5 		str	r0, [sp, #8]
 123 0170 FEFFFFEB 		bl	__aeabi_fmul
 124 0174 0010A0E1 		mov	r1, r0
 125 0178 0A0094E7 		ldr	r0, [r4, r10]	@ float
 126 017c FEFFFFEB 		bl	__aeabi_fadd
 127 0180 0C209DE5 		ldr	r2, [sp, #12]
 128 0184 0610A0E1 		mov	r1, r6
 129 0188 020084E7 		str	r0, [r4, r2]	@ float
 130 018c 00A0A0E1 		mov	r10, r0
 131 0190 0900A0E1 		mov	r0, r9
 132 0194 FEFFFFEB 		bl	__aeabi_fdiv
 133 0198 0710A0E1 		mov	r1, r7
 134 019c 0090A0E1 		mov	r9, r0
 135 01a0 FEFFFFEB 		bl	__aeabi_fmul
 136 01a4 0010A0E1 		mov	r1, r0
 137 01a8 040098E5 		ldr	r0, [r8, #4]	@ float
 138 01ac FEFFFFEB 		bl	__aeabi_fadd
 139 01b0 082095E5 		ldr	r2, [r5, #8]	@ float
 140 01b4 04008BE5 		str	r0, [fp, #4]	@ float
 141 01b8 0040A0E1 		mov	r4, r0
 142 01bc 08208BE5 		str	r2, [fp, #8]	@ float
 143 01c0 0700A0E1 		mov	r0, r7
 144 01c4 0610A0E1 		mov	r1, r6
 145 01c8 FEFFFFEB 		bl	__aeabi_fcmpgt
 146 01cc 000050E3 		cmp	r0, #0
 147 01d0 08309DE5 		ldr	r3, [sp, #8]
 148 01d4 1100000A 		beq	.L5
 149 01d8 60209FE5 		ldr	r2, .L11+16
 150 01dc 006092E5 		ldr	r6, [r2]	@ float
 151 01e0 0300A0E1 		mov	r0, r3
 152 01e4 0610A0E1 		mov	r1, r6
 153 01e8 FEFFFFEB 		bl	__aeabi_fmul
 154 01ec 0010A0E1 		mov	r1, r0
 155 01f0 0A00A0E1 		mov	r0, r10
 156 01f4 FEFFFFEB 		bl	__aeabi_fadd
 157 01f8 10209DE5 		ldr	r2, [sp, #16]
 158 01fc 40309FE5 		ldr	r3, .L11+20
 159 0200 0610A0E1 		mov	r1, r6
 160 0204 020083E7 		str	r0, [r3, r2]	@ float
 161 0208 0900A0E1 		mov	r0, r9
 162 020c FEFFFFEB 		bl	__aeabi_fmul
 163 0210 0010A0E1 		mov	r1, r0
 164 0214 0400A0E1 		mov	r0, r4
 165 0218 FEFFFFEB 		bl	__aeabi_fadd
 166 021c 040085E5 		str	r0, [r5, #4]	@ float
 167              	.L5:
 168 0220 0000A0E3 		mov	r0, #0
 169 0224 1CD08DE2 		add	sp, sp, #28
 170              		@ sp needed
 171 0228 F04FBDE8 		ldmfd	sp!, {r4, r5, r6, r7, r8, r9, r10, fp, lr}
 172 022c 1EFF2FE1 		bx	lr
 173              	.L12:
 174              		.align	2
 175              	.L11:
 176 0230 00000000 		.word	.LANCHOR0
 177 0234 C2B8B23D 		.word	1035122882
 178 0238 00000000 		.word	app_angle
 179 023c 0000C842 		.word	1120403456
 180 0240 00000000 		.word	app_intercept_af_tod
 181 0244 00000000 		.word	waypoints
 183              		.global	__aeabi_fcmplt
 184              		.section	.text.gls,"ax",%progbits
 185              		.align	2
 186              		.global	gls
 188              	gls:
 189              		@ Function supports interworking.
 190              		@ args = 0, pretend = 0, frame = 8
 191              		@ frame_needed = 0, uses_anonymous_args = 0
 192 0000 F74F2DE9 		stmfd	sp!, {r0, r1, r2, r4, r5, r6, r7, r8, r9, r10, fp, lr}
 193 0004 9C329FE5 		ldr	r3, .L33
 194 0008 0290A0E1 		mov	r9, r2
 195 000c 0020D3E5 		ldrb	r2, [r3]	@ zero_extendqisi2
 196 0010 000052E3 		cmp	r2, #0
 197 0014 0020A013 		movne	r2, #0
 198 0018 0020C315 		strneb	r2, [r3]
 199 001c 0C30A0E3 		mov	r3, #12
 200 0020 930102E0 		mul	r2, r3, r1
 201 0024 990303E0 		mul	r3, r9, r3
 202 0028 7C429FE5 		ldr	r4, .L33+4
 203 002c 02B094E7 		ldr	fp, [r4, r2]	@ float
 204 0030 04008DE5 		str	r0, [sp, #4]
 205 0034 0160A0E1 		mov	r6, r1
 206 0038 030094E7 		ldr	r0, [r4, r3]	@ float
 207 003c 0B10A0E1 		mov	r1, fp
 208 0040 027084E0 		add	r7, r4, r2
 209 0044 035084E0 		add	r5, r4, r3
 210 0048 FEFFFFEB 		bl	__aeabi_fsub
 211 004c 04A097E5 		ldr	r10, [r7, #4]	@ float
 212 0050 0080A0E1 		mov	r8, r0
 213 0054 0A10A0E1 		mov	r1, r10
 214 0058 040095E5 		ldr	r0, [r5, #4]	@ float
 215 005c FEFFFFEB 		bl	__aeabi_fsub
 216 0060 0810A0E1 		mov	r1, r8
 217 0064 0070A0E1 		mov	r7, r0
 218 0068 0800A0E1 		mov	r0, r8
 219 006c FEFFFFEB 		bl	__aeabi_fmul
 220 0070 0710A0E1 		mov	r1, r7
 221 0074 0050A0E1 		mov	r5, r0
 222 0078 0700A0E1 		mov	r0, r7
 223 007c FEFFFFEB 		bl	__aeabi_fmul
 224 0080 0010A0E1 		mov	r1, r0
 225 0084 0500A0E1 		mov	r0, r5
 226 0088 FEFFFFEB 		bl	__aeabi_fadd
 227 008c FE15A0E3 		mov	r1, #1065353216
 228 0090 0050A0E1 		mov	r5, r0
 229 0094 FEFFFFEB 		bl	__aeabi_fcmpgt
 230 0098 10329FE5 		ldr	r3, .L33+8
 231 009c 000050E3 		cmp	r0, #0
 232 00a0 0B10A0E1 		mov	r1, fp
 233 00a4 000093E5 		ldr	r0, [r3]	@ float
 234 00a8 FE55A003 		moveq	r5, #1065353216
 235 00ac FEFFFFEB 		bl	__aeabi_fsub
 236 00b0 0810A0E1 		mov	r1, r8
 237 00b4 FEFFFFEB 		bl	__aeabi_fmul
 238 00b8 F4319FE5 		ldr	r3, .L33+12
 239 00bc 0080A0E1 		mov	r8, r0
 240 00c0 0A10A0E1 		mov	r1, r10
 241 00c4 000093E5 		ldr	r0, [r3]	@ float
 242 00c8 FEFFFFEB 		bl	__aeabi_fsub
 243 00cc 0710A0E1 		mov	r1, r7
 244 00d0 FEFFFFEB 		bl	__aeabi_fmul
 245 00d4 0010A0E1 		mov	r1, r0
 246 00d8 0800A0E1 		mov	r0, r8
 247 00dc FEFFFFEB 		bl	__aeabi_fadd
 248 00e0 0510A0E1 		mov	r1, r5
 249 00e4 FEFFFFEB 		bl	__aeabi_fdiv
 250 00e8 FE15A0E3 		mov	r1, #1065353216
 251 00ec 0080A0E1 		mov	r8, r0
 252 00f0 FEFFFFEB 		bl	__aeabi_fcmpgt
 253 00f4 000050E3 		cmp	r0, #0
 254 00f8 FE85A013 		movne	r8, #1065353216
 255 00fc 0400001A 		bne	.L16
 256 0100 0800A0E1 		mov	r0, r8
 257 0104 AC119FE5 		ldr	r1, .L33+16
 258 0108 FEFFFFEB 		bl	__aeabi_fcmplt
 259 010c 000050E3 		cmp	r0, #0
 260 0110 A0819F15 		ldrne	r8, .L33+16
 261              	.L16:
 262 0114 0500A0E1 		mov	r0, r5
 263 0118 FEFFFFEB 		bl	__aeabi_f2d
 264 011c FEFFFFEB 		bl	sqrt
 265 0120 0C30A0E3 		mov	r3, #12
 266 0124 934626E0 		mla	r6, r3, r6, r4
 267 0128 994323E0 		mla	r3, r9, r3, r4
 268 012c 087096E5 		ldr	r7, [r6, #8]	@ float
 269 0130 085093E5 		ldr	r5, [r3, #8]	@ float
 270 0134 00A0A0E1 		mov	r10, r0
 271 0138 01B0A0E1 		mov	fp, r1
 272 013c 0700A0E1 		mov	r0, r7
 273 0140 0510A0E1 		mov	r1, r5
 274 0144 FEFFFFEB 		bl	__aeabi_fsub
 275 0148 0B10A0E1 		mov	r1, fp
 276 014c 026180E2 		add	r6, r0, #-2147483648
 277 0150 0A00A0E1 		mov	r0, r10
 278 0154 FEFFFFEB 		bl	__aeabi_d2f
 279 0158 5C319FE5 		ldr	r3, .L33+20
 280 015c 001093E5 		ldr	r1, [r3]	@ float
 281 0160 FEFFFFEB 		bl	__aeabi_fdiv
 282 0164 0010A0E1 		mov	r1, r0
 283 0168 0600A0E1 		mov	r0, r6
 284 016c FEFFFFEB 		bl	__aeabi_fdiv
 285 0170 0010A0E3 		mov	r1, #0
 286 0174 0060A0E1 		mov	r6, r0
 287 0178 FEFFFFEB 		bl	__aeabi_fcmpgt
 288 017c 00A0A0E3 		mov	r10, #0
 289 0180 000050E3 		cmp	r0, #0
 290 0184 0A60A011 		movne	r6, r10
 291 0188 0400001A 		bne	.L17
 292 018c 0600A0E1 		mov	r0, r6
 293 0190 28119FE5 		ldr	r1, .L33+24
 294 0194 FEFFFFEB 		bl	__aeabi_fcmplt
 295 0198 000050E3 		cmp	r0, #0
 296 019c 1C619F15 		ldrne	r6, .L33+24
 297              	.L17:
 298 01a0 0500A0E1 		mov	r0, r5
 299 01a4 0710A0E1 		mov	r1, r7
 300 01a8 FEFFFFEB 		bl	__aeabi_fsub
 301 01ac 0010A0E1 		mov	r1, r0
 302 01b0 0800A0E1 		mov	r0, r8
 303 01b4 FEFFFFEB 		bl	__aeabi_fmul
 304 01b8 0010A0E1 		mov	r1, r0
 305 01bc 0700A0E1 		mov	r0, r7
 306 01c0 FEFFFFEB 		bl	__aeabi_fadd
 307 01c4 F8309FE5 		ldr	r3, .L33+28
 308 01c8 001093E5 		ldr	r1, [r3]
 309 01cc 00B0A0E1 		mov	fp, r0
 310 01d0 021181E2 		add	r1, r1, #-2147483648
 311 01d4 0600A0E1 		mov	r0, r6
 312 01d8 FEFFFFEB 		bl	__aeabi_fdiv
 313 01dc 0010A0E1 		mov	r1, r0
 314 01e0 0700A0E1 		mov	r0, r7
 315 01e4 FEFFFFEB 		bl	__aeabi_fadd
 316 01e8 0030A0E1 		mov	r3, r0
 317 01ec 0310A0E1 		mov	r1, r3
 318 01f0 0B00A0E1 		mov	r0, fp
 319 01f4 00308DE5 		str	r3, [sp]
 320 01f8 FEFFFFEB 		bl	__aeabi_fcmpgt
 321 01fc 00309DE5 		ldr	r3, [sp]
 322 0200 000050E3 		cmp	r0, #0
 323 0204 0350A011 		movne	r5, r3
 324 0208 0400001A 		bne	.L18
 325 020c 0510A0E1 		mov	r1, r5
 326 0210 0B00A0E1 		mov	r0, fp
 327 0214 FEFFFFEB 		bl	__aeabi_fcmplt
 328 0218 000050E3 		cmp	r0, #0
 329 021c 0B50A001 		moveq	r5, fp
 330              	.L18:
 331 0220 0800A0E1 		mov	r0, r8
 332 0224 BF14A0E3 		mov	r1, #-1090519040
 333 0228 FEFFFFEB 		bl	__aeabi_fcmplt
 334 022c 94109FE5 		ldr	r1, .L33+32
 335 0230 94309FE5 		ldr	r3, .L33+36
 336 0234 000050E3 		cmp	r0, #0
 337 0238 90209FE5 		ldr	r2, .L33+40
 338 023c 00A08115 		strne	r10, [r1]	@ float
 339 0240 00A083E5 		str	r10, [r3]	@ float
 340 0244 0010A013 		movne	r1, #0
 341 0248 04309DE5 		ldr	r3, [sp, #4]
 342 024c 0010C215 		strneb	r1, [r2]
 343 0250 0000C205 		streqb	r0, [r2]
 344 0254 0C20A0E3 		mov	r2, #12
 345 0258 920303E0 		mul	r3, r2, r3
 346 025c 920909E0 		mul	r9, r2, r9
 347 0260 6CE09FE5 		ldr	lr, .L33+44
 348 0264 6CC09FE5 		ldr	ip, .L33+48
 349 0268 0380A0E3 		mov	r8, #3
 350 026c 0080CEE5 		strb	r8, [lr]
 351 0270 00708C15 		strne	r7, [ip]	@ float
 352 0274 00508C05 		streq	r5, [ip]	@ float
 353 0278 00608105 		streq	r6, [r1]	@ float
 354 027c 09C084E0 		add	ip, r4, r9
 355 0280 031084E0 		add	r1, r4, r3
 356 0284 030094E7 		ldr	r0, [r4, r3]	@ float
 357 0288 041091E5 		ldr	r1, [r1, #4]	@ float
 358 028c 092094E7 		ldr	r2, [r4, r9]	@ float
 359 0290 04309CE5 		ldr	r3, [ip, #4]	@ float
 360 0294 FEFFFFEB 		bl	nav_route_xy
 361 0298 0100A0E3 		mov	r0, #1
 362 029c 0CD08DE2 		add	sp, sp, #12
 363              		@ sp needed
 364 02a0 F04FBDE8 		ldmfd	sp!, {r4, r5, r6, r7, r8, r9, r10, fp, lr}
 365 02a4 1EFF2FE1 		bx	lr
 366              	.L34:
 367              		.align	2
 368              	.L33:
 369 02a8 00000000 		.word	.LANCHOR0
 370 02ac 00000000 		.word	waypoints
 371 02b0 00000000 		.word	estimator_x
 372 02b4 00000000 		.word	estimator_y
 373 02b8 000080BF 		.word	-1082130432
 374 02bc 00000000 		.word	estimator_hspeed_mod
 375 02c0 0000A0C0 		.word	-1063256064
 376 02c4 00000000 		.word	v_ctl_altitude_pgain
 377 02c8 00000000 		.word	v_ctl_altitude_pre_climb
 378 02cc 00000000 		.word	nav_pitch
 379 02d0 00000000 		.word	v_ctl_climb_mode
 380 02d4 00000000 		.word	v_ctl_mode
 381 02d8 00000000 		.word	nav_altitude
 383              		.global	init
 384              		.comm	app_intercept_af_tod,4,4
 385              		.comm	app_angle,4,4
 386              		.comm	target_speed,4,4
 387              		.section	.data.init,"aw",%progbits
 388              		.set	.LANCHOR0,. + 0
 391              	init:
 392 0000 01       		.byte	1
 393              		.ident	"GCC: (GNU Tools for ARM Embedded Processors) 4.8.3 20131129 (release) [ARM/embedded-4_8-br
DEFINED SYMBOLS
                            *ABS*:00000000 gls.c
     /tmp/cc8BJApi.s:23     .text.gls_init:00000000 $a
     /tmp/cc8BJApi.s:26     .text.gls_init:00000000 gls_init
     /tmp/cc8BJApi.s:176    .text.gls_init:00000230 $d
                            *COM*:00000004 app_angle
                            *COM*:00000004 app_intercept_af_tod
     /tmp/cc8BJApi.s:185    .text.gls:00000000 $a
     /tmp/cc8BJApi.s:188    .text.gls:00000000 gls
     /tmp/cc8BJApi.s:369    .text.gls:000002a8 $d
     /tmp/cc8BJApi.s:391    .data.init:00000000 init
                            *COM*:00000004 target_speed

UNDEFINED SYMBOLS
__aeabi_fcmpeq
__aeabi_fsub
__aeabi_fmul
__aeabi_fadd
__aeabi_f2d
__aeabi_d2f
__aeabi_ddiv
__aeabi_fdiv
__aeabi_fcmpgt
sqrt
tan
waypoints
__aeabi_fcmplt
nav_route_xy
estimator_x
estimator_y
estimator_hspeed_mod
v_ctl_altitude_pgain
v_ctl_altitude_pre_climb
nav_pitch
v_ctl_climb_mode
v_ctl_mode
nav_altitude
