   1              		.cpu arm7tdmi
   2              		.fpu softvfp
   3              		.eabi_attribute 20, 1
   4              		.eabi_attribute 21, 1
   5              		.eabi_attribute 23, 3
   6              		.eabi_attribute 24, 1
   7              		.eabi_attribute 25, 1
   8              		.eabi_attribute 26, 1
   9              		.eabi_attribute 30, 4
  10              		.eabi_attribute 34, 0
  11              		.eabi_attribute 18, 4
  12              		.file	"gps_ubx.c"
  13              		.section	.text.gps_impl_init,"ax",%progbits
  14              		.align	2
  15              		.global	gps_impl_init
  17              	gps_impl_init:
  18              		@ Function supports interworking.
  19              		@ args = 0, pretend = 0, frame = 0
  20              		@ frame_needed = 0, uses_anonymous_args = 0
  21              		@ link register save eliminated.
  22 0000 18309FE5 		ldr	r3, .L2
  23 0004 0020A0E3 		mov	r2, #0
  24 0008 0921C3E5 		strb	r2, [r3, #265]
  25 000c 0020C3E5 		strb	r2, [r3]
  26 0010 1121C3E5 		strb	r2, [r3, #273]
  27 0014 1221C3E5 		strb	r2, [r3, #274]
  28 0018 1521C3E5 		strb	r2, [r3, #277]
  29 001c 1EFF2FE1 		bx	lr
  30              	.L3:
  31              		.align	2
  32              	.L2:
  33 0020 00000000 		.word	gps_ubx
  35              		.global	__aeabi_i2d
  36              		.global	__aeabi_dmul
  37              		.global	__aeabi_d2iz
  38              		.global	__aeabi_i2f
  39              		.global	__aeabi_fdiv
  40              		.global	__aeabi_fmul
  41              		.global	__aeabi_f2iz
  42              		.global	__aeabi_ui2d
  43              		.global	__aeabi_d2uiz
  44              		.section	.text.gps_ubx_read_message,"ax",%progbits
  45              		.align	2
  46              		.global	gps_ubx_read_message
  48              	gps_ubx_read_message:
  49              		@ Function supports interworking.
  50              		@ args = 0, pretend = 0, frame = 32
  51              		@ frame_needed = 0, uses_anonymous_args = 0
  52 0000 F0402DE9 		stmfd	sp!, {r4, r5, r6, r7, lr}
  53 0004 00459FE5 		ldr	r4, .L18
  54 0008 0861D4E5 		ldrb	r6, [r4, #264]	@ zero_extendqisi2
  55 000c 010056E3 		cmp	r6, #1
  56 0010 24D04DE2 		sub	sp, sp, #36
  57 0014 3901001A 		bne	.L4
  58 0018 0731D4E5 		ldrb	r3, [r4, #263]	@ zero_extendqisi2
  59 001c 060053E3 		cmp	r3, #6
  60 0020 6800001A 		bne	.L7
  61 0024 0A20D4E5 		ldrb	r2, [r4, #10]	@ zero_extendqisi2
  62 0028 0B10D4E5 		ldrb	r1, [r4, #11]	@ zero_extendqisi2
  63 002c 0228A0E1 		mov	r2, r2, asl #16
  64 0030 0900D4E5 		ldrb	r0, [r4, #9]	@ zero_extendqisi2
  65 0034 012C82E1 		orr	r2, r2, r1, asl #24
  66 0038 0810D4E5 		ldrb	r1, [r4, #8]	@ zero_extendqisi2
  67 003c CC349FE5 		ldr	r3, .L18+4
  68 0040 001481E1 		orr	r1, r1, r0, asl #8
  69 0044 012082E1 		orr	r2, r2, r1
  70 0048 602083E5 		str	r2, [r3, #96]
  71 004c 1110D4E5 		ldrb	r1, [r4, #17]	@ zero_extendqisi2
  72 0050 1020D4E5 		ldrb	r2, [r4, #16]	@ zero_extendqisi2
  73 0054 012482E1 		orr	r2, r2, r1, asl #8
  74 0058 1610D4E5 		ldrb	r1, [r4, #22]	@ zero_extendqisi2
  75 005c 1500D4E5 		ldrb	r0, [r4, #21]	@ zero_extendqisi2
  76 0060 0118A0E1 		mov	r1, r1, asl #16
  77 0064 001481E1 		orr	r1, r1, r0, asl #8
  78 0068 1400D4E5 		ldrb	r0, [r4, #20]	@ zero_extendqisi2
  79 006c 001081E1 		orr	r1, r1, r0
  80 0070 1700D4E5 		ldrb	r0, [r4, #23]	@ zero_extendqisi2
  81 0074 001C81E1 		orr	r1, r1, r0, asl #24
  82 0078 001083E5 		str	r1, [r3]
  83 007c 1A10D4E5 		ldrb	r1, [r4, #26]	@ zero_extendqisi2
  84 0080 1900D4E5 		ldrb	r0, [r4, #25]	@ zero_extendqisi2
  85 0084 0118A0E1 		mov	r1, r1, asl #16
  86 0088 001481E1 		orr	r1, r1, r0, asl #8
  87 008c 1800D4E5 		ldrb	r0, [r4, #24]	@ zero_extendqisi2
  88 0090 001081E1 		orr	r1, r1, r0
  89 0094 1B00D4E5 		ldrb	r0, [r4, #27]	@ zero_extendqisi2
  90 0098 001C81E1 		orr	r1, r1, r0, asl #24
  91 009c 041083E5 		str	r1, [r3, #4]
  92 00a0 1E10D4E5 		ldrb	r1, [r4, #30]	@ zero_extendqisi2
  93 00a4 1D00D4E5 		ldrb	r0, [r4, #29]	@ zero_extendqisi2
  94 00a8 0118A0E1 		mov	r1, r1, asl #16
  95 00ac 001481E1 		orr	r1, r1, r0, asl #8
  96 00b0 1C00D4E5 		ldrb	r0, [r4, #28]	@ zero_extendqisi2
  97 00b4 001081E1 		orr	r1, r1, r0
  98 00b8 1F00D4E5 		ldrb	r0, [r4, #31]	@ zero_extendqisi2
  99 00bc 001C81E1 		orr	r1, r1, r0, asl #24
 100 00c0 081083E5 		str	r1, [r3, #8]
 101 00c4 2210D4E5 		ldrb	r1, [r4, #34]	@ zero_extendqisi2
 102 00c8 2300D4E5 		ldrb	r0, [r4, #35]	@ zero_extendqisi2
 103 00cc 0118A0E1 		mov	r1, r1, asl #16
 104 00d0 21C0D4E5 		ldrb	ip, [r4, #33]	@ zero_extendqisi2
 105 00d4 001C81E1 		orr	r1, r1, r0, asl #24
 106 00d8 2000D4E5 		ldrb	r0, [r4, #32]	@ zero_extendqisi2
 107 00dc 0C0480E1 		orr	r0, r0, ip, asl #8
 108 00e0 001081E1 		orr	r1, r1, r0
 109 00e4 4C1083E5 		str	r1, [r3, #76]
 110 00e8 2610D4E5 		ldrb	r1, [r4, #38]	@ zero_extendqisi2
 111 00ec 2500D4E5 		ldrb	r0, [r4, #37]	@ zero_extendqisi2
 112 00f0 0118A0E1 		mov	r1, r1, asl #16
 113 00f4 001481E1 		orr	r1, r1, r0, asl #8
 114 00f8 2400D4E5 		ldrb	r0, [r4, #36]	@ zero_extendqisi2
 115 00fc 001081E1 		orr	r1, r1, r0
 116 0100 2700D4E5 		ldrb	r0, [r4, #39]	@ zero_extendqisi2
 117 0104 BC25C3E1 		strh	r2, [r3, #92]	@ movhi
 118 0108 1220D4E5 		ldrb	r2, [r4, #18]	@ zero_extendqisi2
 119 010c 001C81E1 		orr	r1, r1, r0, asl #24
 120 0110 5B20C3E5 		strb	r2, [r3, #91]
 121 0114 2C1083E5 		str	r1, [r3, #44]
 122 0118 2A10D4E5 		ldrb	r1, [r4, #42]	@ zero_extendqisi2
 123 011c 2900D4E5 		ldrb	r0, [r4, #41]	@ zero_extendqisi2
 124 0120 0118A0E1 		mov	r1, r1, asl #16
 125 0124 001481E1 		orr	r1, r1, r0, asl #8
 126 0128 2800D4E5 		ldrb	r0, [r4, #40]	@ zero_extendqisi2
 127 012c 001081E1 		orr	r1, r1, r0
 128 0130 2B00D4E5 		ldrb	r0, [r4, #43]	@ zero_extendqisi2
 129 0134 001C81E1 		orr	r1, r1, r0, asl #24
 130 0138 301083E5 		str	r1, [r3, #48]
 131 013c 2E10D4E5 		ldrb	r1, [r4, #46]	@ zero_extendqisi2
 132 0140 2D00D4E5 		ldrb	r0, [r4, #45]	@ zero_extendqisi2
 133 0144 0118A0E1 		mov	r1, r1, asl #16
 134 0148 001481E1 		orr	r1, r1, r0, asl #8
 135 014c 2C00D4E5 		ldrb	r0, [r4, #44]	@ zero_extendqisi2
 136 0150 001081E1 		orr	r1, r1, r0
 137 0154 2F00D4E5 		ldrb	r0, [r4, #47]	@ zero_extendqisi2
 138 0158 001C81E1 		orr	r1, r1, r0, asl #24
 139 015c 341083E5 		str	r1, [r3, #52]
 140 0160 3210D4E5 		ldrb	r1, [r4, #50]	@ zero_extendqisi2
 141 0164 3300D4E5 		ldrb	r0, [r4, #51]	@ zero_extendqisi2
 142 0168 0118A0E1 		mov	r1, r1, asl #16
 143 016c 001C81E1 		orr	r1, r1, r0, asl #24
 144 0170 31C0D4E5 		ldrb	ip, [r4, #49]	@ zero_extendqisi2
 145 0174 3000D4E5 		ldrb	r0, [r4, #48]	@ zero_extendqisi2
 146 0178 0C0480E1 		orr	r0, r0, ip, asl #8
 147 017c 001081E1 		orr	r1, r1, r0
 148 0180 501083E5 		str	r1, [r3, #80]
 149 0184 3500D4E5 		ldrb	r0, [r4, #53]	@ zero_extendqisi2
 150 0188 3410D4E5 		ldrb	r1, [r4, #52]	@ zero_extendqisi2
 151 018c 001481E1 		orr	r1, r1, r0, asl #8
 152 0190 B815C3E1 		strh	r1, [r3, #88]	@ movhi
 153 0194 3710D4E5 		ldrb	r1, [r4, #55]	@ zero_extendqisi2
 154 0198 030052E3 		cmp	r2, #3
 155 019c 5A10C3E5 		strb	r1, [r3, #90]
 156 01a0 0128A003 		moveq	r2, #65536
 157 01a4 68339FE5 		ldr	r3, .L18+8
 158 01a8 0400000A 		beq	.L16
 159 01ac 102093E5 		ldr	r2, [r3, #16]
 160 01b0 010812E3 		tst	r2, #65536
 161 01b4 0128A0E3 		mov	r2, #65536
 162 01b8 14208305 		streq	r2, [r3, #20]
 163 01bc CF00000A 		beq	.L4
 164              	.L16:
 165 01c0 1C2083E5 		str	r2, [r3, #28]
 166 01c4 CD0000EA 		b	.L4
 167              	.L7:
 168 01c8 020053E3 		cmp	r3, #2
 169 01cc 4F00001A 		bne	.L10
 170 01d0 1230D4E5 		ldrb	r3, [r4, #18]	@ zero_extendqisi2
 171 01d4 1120D4E5 		ldrb	r2, [r4, #17]	@ zero_extendqisi2
 172 01d8 0338A0E1 		mov	r3, r3, asl #16
 173 01dc 023483E1 		orr	r3, r3, r2, asl #8
 174 01e0 1020D4E5 		ldrb	r2, [r4, #16]	@ zero_extendqisi2
 175 01e4 1300D4E5 		ldrb	r0, [r4, #19]	@ zero_extendqisi2
 176 01e8 023083E1 		orr	r3, r3, r2
 177 01ec 000C83E1 		orr	r0, r3, r0, asl #24
 178 01f0 FEFFFFEB 		bl	__aeabi_i2d
 179 01f4 1C239FE5 		ldr	r2, .L18+12
 180 01f8 1C339FE5 		ldr	r3, .L18+16
 181 01fc FEFFFFEB 		bl	__aeabi_dmul
 182 0200 FEFFFFEB 		bl	__aeabi_d2iz
 183 0204 0E30D4E5 		ldrb	r3, [r4, #14]	@ zero_extendqisi2
 184 0208 0D20D4E5 		ldrb	r2, [r4, #13]	@ zero_extendqisi2
 185 020c FC529FE5 		ldr	r5, .L18+4
 186 0210 0338A0E1 		mov	r3, r3, asl #16
 187 0214 023483E1 		orr	r3, r3, r2, asl #8
 188 0218 0C20D4E5 		ldrb	r2, [r4, #12]	@ zero_extendqisi2
 189 021c 0060A0E1 		mov	r6, r0
 190 0220 100085E5 		str	r0, [r5, #16]
 191 0224 0F00D4E5 		ldrb	r0, [r4, #15]	@ zero_extendqisi2
 192 0228 023083E1 		orr	r3, r3, r2
 193 022c 000C83E1 		orr	r0, r3, r0, asl #24
 194 0230 FEFFFFEB 		bl	__aeabi_i2d
 195 0234 DC229FE5 		ldr	r2, .L18+12
 196 0238 DC329FE5 		ldr	r3, .L18+16
 197 023c FEFFFFEB 		bl	__aeabi_dmul
 198 0240 FEFFFFEB 		bl	__aeabi_d2iz
 199 0244 1630D4E5 		ldrb	r3, [r4, #22]	@ zero_extendqisi2
 200 0248 1520D4E5 		ldrb	r2, [r4, #21]	@ zero_extendqisi2
 201 024c 0338A0E1 		mov	r3, r3, asl #16
 202 0250 023483E1 		orr	r3, r3, r2, asl #8
 203 0254 1420D4E5 		ldrb	r2, [r4, #20]	@ zero_extendqisi2
 204 0258 023083E1 		orr	r3, r3, r2
 205 025c 1720D4E5 		ldrb	r2, [r4, #23]	@ zero_extendqisi2
 206 0260 023C83E1 		orr	r3, r3, r2, asl #24
 207 0264 143085E5 		str	r3, [r5, #20]
 208 0268 1A30D4E5 		ldrb	r3, [r4, #26]	@ zero_extendqisi2
 209 026c 1920D4E5 		ldrb	r2, [r4, #25]	@ zero_extendqisi2
 210 0270 0338A0E1 		mov	r3, r3, asl #16
 211 0274 023483E1 		orr	r3, r3, r2, asl #8
 212 0278 1820D4E5 		ldrb	r2, [r4, #24]	@ zero_extendqisi2
 213 027c 023083E1 		orr	r3, r3, r2
 214 0280 1B20D4E5 		ldrb	r2, [r4, #27]	@ zero_extendqisi2
 215 0284 0070A0E1 		mov	r7, r0
 216 0288 023C83E1 		orr	r3, r3, r2, asl #24
 217 028c 0C0085E5 		str	r0, [r5, #12]
 218 0290 0600A0E1 		mov	r0, r6
 219 0294 283085E5 		str	r3, [r5, #40]
 220 0298 FEFFFFEB 		bl	__aeabi_i2f
 221 029c 7C129FE5 		ldr	r1, .L18+20
 222 02a0 FEFFFFEB 		bl	__aeabi_fdiv
 223 02a4 08008DE5 		str	r0, [sp, #8]	@ float
 224 02a8 0700A0E1 		mov	r0, r7
 225 02ac FEFFFFEB 		bl	__aeabi_i2f
 226 02b0 68129FE5 		ldr	r1, .L18+20
 227 02b4 FEFFFFEB 		bl	__aeabi_fdiv
 228 02b8 64429FE5 		ldr	r4, .L18+24
 229 02bc 0030D4E5 		ldrb	r3, [r4]	@ zero_extendqisi2
 230 02c0 04008DE5 		str	r0, [sp, #4]	@ float
 231 02c4 04108DE2 		add	r1, sp, #4
 232 02c8 10008DE2 		add	r0, sp, #16
 233 02cc 1C30CDE5 		strb	r3, [sp, #28]
 234 02d0 FEFFFFEB 		bl	utm_of_lla_f
 235 02d4 4C129FE5 		ldr	r1, .L18+28
 236 02d8 14009DE5 		ldr	r0, [sp, #20]	@ float
 237 02dc FEFFFFEB 		bl	__aeabi_fmul
 238 02e0 FEFFFFEB 		bl	__aeabi_f2iz
 239 02e4 3C129FE5 		ldr	r1, .L18+28
 240 02e8 1C0085E5 		str	r0, [r5, #28]
 241 02ec 10009DE5 		ldr	r0, [sp, #16]	@ float
 242 02f0 FEFFFFEB 		bl	__aeabi_fmul
 243 02f4 FEFFFFEB 		bl	__aeabi_f2iz
 244 02f8 143095E5 		ldr	r3, [r5, #20]
 245 02fc 203085E5 		str	r3, [r5, #32]
 246 0300 0030D4E5 		ldrb	r3, [r4]	@ zero_extendqisi2
 247 0304 180085E5 		str	r0, [r5, #24]
 248 0308 2430C5E5 		strb	r3, [r5, #36]
 249 030c 7B0000EA 		b	.L4
 250              	.L10:
 251 0310 120053E3 		cmp	r3, #18
 252 0314 5300001A 		bne	.L11
 253 0318 1920D4E5 		ldrb	r2, [r4, #25]	@ zero_extendqisi2
 254 031c 1830D4E5 		ldrb	r3, [r4, #24]	@ zero_extendqisi2
 255 0320 E8519FE5 		ldr	r5, .L18+4
 256 0324 023483E1 		orr	r3, r3, r2, asl #8
 257 0328 B634C5E1 		strh	r3, [r5, #70]	@ movhi
 258 032c 1D20D4E5 		ldrb	r2, [r4, #29]	@ zero_extendqisi2
 259 0330 1C30D4E5 		ldrb	r3, [r4, #28]	@ zero_extendqisi2
 260 0334 023483E1 		orr	r3, r3, r2, asl #8
 261 0338 B434C5E1 		strh	r3, [r5, #68]	@ movhi
 262 033c 0E30D4E5 		ldrb	r3, [r4, #14]	@ zero_extendqisi2
 263 0340 0D20D4E5 		ldrb	r2, [r4, #13]	@ zero_extendqisi2
 264 0344 0338A0E1 		mov	r3, r3, asl #16
 265 0348 023483E1 		orr	r3, r3, r2, asl #8
 266 034c 0C20D4E5 		ldrb	r2, [r4, #12]	@ zero_extendqisi2
 267 0350 023083E1 		orr	r3, r3, r2
 268 0354 0F20D4E5 		ldrb	r2, [r4, #15]	@ zero_extendqisi2
 269 0358 023C83E1 		orr	r3, r3, r2, asl #24
 270 035c 383085E5 		str	r3, [r5, #56]
 271 0360 1230D4E5 		ldrb	r3, [r4, #18]	@ zero_extendqisi2
 272 0364 1120D4E5 		ldrb	r2, [r4, #17]	@ zero_extendqisi2
 273 0368 0338A0E1 		mov	r3, r3, asl #16
 274 036c 023483E1 		orr	r3, r3, r2, asl #8
 275 0370 1020D4E5 		ldrb	r2, [r4, #16]	@ zero_extendqisi2
 276 0374 023083E1 		orr	r3, r3, r2
 277 0378 1320D4E5 		ldrb	r2, [r4, #19]	@ zero_extendqisi2
 278 037c 023C83E1 		orr	r3, r3, r2, asl #24
 279 0380 3C3085E5 		str	r3, [r5, #60]
 280 0384 1630D4E5 		ldrb	r3, [r4, #22]	@ zero_extendqisi2
 281 0388 1520D4E5 		ldrb	r2, [r4, #21]	@ zero_extendqisi2
 282 038c 0338A0E1 		mov	r3, r3, asl #16
 283 0390 023483E1 		orr	r3, r3, r2, asl #8
 284 0394 1420D4E5 		ldrb	r2, [r4, #20]	@ zero_extendqisi2
 285 0398 023083E1 		orr	r3, r3, r2
 286 039c 1720D4E5 		ldrb	r2, [r4, #23]	@ zero_extendqisi2
 287 03a0 2200D4E5 		ldrb	r0, [r4, #34]	@ zero_extendqisi2
 288 03a4 023C83E1 		orr	r3, r3, r2, asl #24
 289 03a8 403085E5 		str	r3, [r5, #64]
 290 03ac 2130D4E5 		ldrb	r3, [r4, #33]	@ zero_extendqisi2
 291 03b0 0008A0E1 		mov	r0, r0, asl #16
 292 03b4 030480E1 		orr	r0, r0, r3, asl #8
 293 03b8 2030D4E5 		ldrb	r3, [r4, #32]	@ zero_extendqisi2
 294 03bc 030080E1 		orr	r0, r0, r3
 295 03c0 2330D4E5 		ldrb	r3, [r4, #35]	@ zero_extendqisi2
 296 03c4 0A70A0E3 		mov	r7, #10
 297 03c8 030C80E1 		orr	r0, r0, r3, asl #24
 298 03cc 970000E0 		mul	r0, r7, r0
 299 03d0 FEFFFFEB 		bl	__aeabi_i2d
 300 03d4 3C219FE5 		ldr	r2, .L18+12
 301 03d8 3C319FE5 		ldr	r3, .L18+16
 302 03dc FEFFFFEB 		bl	__aeabi_dmul
 303 03e0 0020A0E3 		mov	r2, #0
 304 03e4 40319FE5 		ldr	r3, .L18+32
 305 03e8 FEFFFFEB 		bl	__aeabi_dmul
 306 03ec FEFFFFEB 		bl	__aeabi_d2iz
 307 03f0 480085E5 		str	r0, [r5, #72]
 308 03f4 2A00D4E5 		ldrb	r0, [r4, #42]	@ zero_extendqisi2
 309 03f8 2B30D4E5 		ldrb	r3, [r4, #43]	@ zero_extendqisi2
 310 03fc 0008A0E1 		mov	r0, r0, asl #16
 311 0400 2920D4E5 		ldrb	r2, [r4, #41]	@ zero_extendqisi2
 312 0404 030C80E1 		orr	r0, r0, r3, asl #24
 313 0408 2830D4E5 		ldrb	r3, [r4, #40]	@ zero_extendqisi2
 314 040c 023483E1 		orr	r3, r3, r2, asl #8
 315 0410 030080E1 		orr	r0, r0, r3
 316 0414 970000E0 		mul	r0, r7, r0
 317 0418 FEFFFFEB 		bl	__aeabi_ui2d
 318 041c F4209FE5 		ldr	r2, .L18+12
 319 0420 F4309FE5 		ldr	r3, .L18+16
 320 0424 FEFFFFEB 		bl	__aeabi_dmul
 321 0428 0020A0E3 		mov	r2, #0
 322 042c F8309FE5 		ldr	r3, .L18+32
 323 0430 FEFFFFEB 		bl	__aeabi_dmul
 324 0434 FEFFFFEB 		bl	__aeabi_d2uiz
 325 0438 0A30D4E5 		ldrb	r3, [r4, #10]	@ zero_extendqisi2
 326 043c 0B20D4E5 		ldrb	r2, [r4, #11]	@ zero_extendqisi2
 327 0440 0338A0E1 		mov	r3, r3, asl #16
 328 0444 023C83E1 		orr	r3, r3, r2, asl #24
 329 0448 0910D4E5 		ldrb	r1, [r4, #9]	@ zero_extendqisi2
 330 044c 0820D4E5 		ldrb	r2, [r4, #8]	@ zero_extendqisi2
 331 0450 012482E1 		orr	r2, r2, r1, asl #8
 332 0454 023083E1 		orr	r3, r3, r2
 333 0458 540085E5 		str	r0, [r5, #84]
 334 045c 603085E5 		str	r3, [r5, #96]
 335 0460 1561C4E5 		strb	r6, [r4, #277]
 336 0464 250000EA 		b	.L4
 337              	.L11:
 338 0468 300053E3 		cmp	r3, #48
 339 046c 1A00001A 		bne	.L12
 340 0470 0C10D4E5 		ldrb	r1, [r4, #12]	@ zero_extendqisi2
 341 0474 94309FE5 		ldr	r3, .L18+4
 342 0478 100051E3 		cmp	r1, #16
 343 047c 1010A023 		movcs	r1, #16
 344 0480 6410C3E5 		strb	r1, [r3, #100]
 345 0484 0020A0E3 		mov	r2, #0
 346              	.L13:
 347 0488 010052E1 		cmp	r2, r1
 348 048c 0C4084E2 		add	r4, r4, #12
 349 0490 083083E2 		add	r3, r3, #8
 350 0494 1900000A 		beq	.L4
 351 0498 0500D4E5 		ldrb	r0, [r4, #5]	@ zero_extendqisi2
 352 049c 5E00C3E5 		strb	r0, [r3, #94]
 353 04a0 0600D4E5 		ldrb	r0, [r4, #6]	@ zero_extendqisi2
 354 04a4 5F00C3E5 		strb	r0, [r3, #95]
 355 04a8 0700D4E5 		ldrb	r0, [r4, #7]	@ zero_extendqisi2
 356 04ac 6000C3E5 		strb	r0, [r3, #96]
 357 04b0 0800D4E5 		ldrb	r0, [r4, #8]	@ zero_extendqisi2
 358 04b4 6100C3E5 		strb	r0, [r3, #97]
 359 04b8 0900D4E5 		ldrb	r0, [r4, #9]	@ zero_extendqisi2
 360 04bc 0BC0D4E5 		ldrb	ip, [r4, #11]	@ zero_extendqisi2
 361 04c0 6200C3E5 		strb	r0, [r3, #98]
 362 04c4 0A00D4E5 		ldrb	r0, [r4, #10]	@ zero_extendqisi2
 363 04c8 012082E2 		add	r2, r2, #1
 364 04cc 0C0480E1 		orr	r0, r0, ip, asl #8
 365 04d0 B406C3E1 		strh	r0, [r3, #100]	@ movhi
 366 04d4 FF2002E2 		and	r2, r2, #255
 367 04d8 EAFFFFEA 		b	.L13
 368              	.L12:
 369 04dc 030053E3 		cmp	r3, #3
 370 04e0 0600001A 		bne	.L4
 371 04e4 24309FE5 		ldr	r3, .L18+4
 372 04e8 0C20D4E5 		ldrb	r2, [r4, #12]	@ zero_extendqisi2
 373 04ec 5B20C3E5 		strb	r2, [r3, #91]
 374 04f0 0D30D4E5 		ldrb	r3, [r4, #13]	@ zero_extendqisi2
 375 04f4 1331C4E5 		strb	r3, [r4, #275]
 376 04f8 1330D4E5 		ldrb	r3, [r4, #19]	@ zero_extendqisi2
 377 04fc 1431C4E5 		strb	r3, [r4, #276]
 378              	.L4:
 379 0500 24D08DE2 		add	sp, sp, #36
 380              		@ sp needed
 381 0504 F040BDE8 		ldmfd	sp!, {r4, r5, r6, r7, lr}
 382 0508 1EFF2FE1 		bx	lr
 383              	.L19:
 384              		.align	2
 385              	.L18:
 386 050c 00000000 		.word	gps_ubx
 387 0510 00000000 		.word	gps
 388 0514 008002E0 		.word	-536707072
 389 0518 399D52A2 		.word	-1571644103
 390 051c 46DF913F 		.word	1066524486
 391 0520 8096184B 		.word	1259902592
 392 0524 00000000 		.word	nav_utm_zone0
 393 0528 0000C842 		.word	1120403456
 394 052c 00002440 		.word	1076101120
 396              		.section	.text.gps_ubx_parse,"ax",%progbits
 397              		.align	2
 398              		.global	gps_ubx_parse
 400              	gps_ubx_parse:
 401              		@ Function supports interworking.
 402              		@ args = 0, pretend = 0, frame = 0
 403              		@ frame_needed = 0, uses_anonymous_args = 0
 404              		@ link register save eliminated.
 405 0000 88319FE5 		ldr	r3, .L48
 406 0004 0921D3E5 		ldrb	r2, [r3, #265]	@ zero_extendqisi2
 407 0008 060052E3 		cmp	r2, #6
 408 000c 0600008A 		bhi	.L21
 409 0010 0D11D3E5 		ldrb	r1, [r3, #269]	@ zero_extendqisi2
 410 0014 0EC1D3E5 		ldrb	ip, [r3, #270]	@ zero_extendqisi2
 411 0018 011080E0 		add	r1, r0, r1
 412 001c FF1001E2 		and	r1, r1, #255
 413 0020 0D11C3E5 		strb	r1, [r3, #269]
 414 0024 0C1081E0 		add	r1, r1, ip
 415 0028 0E11C3E5 		strb	r1, [r3, #270]
 416              	.L21:
 417 002c 080052E3 		cmp	r2, #8
 418 0030 02F19F97 		ldrls	pc, [pc, r2, asl #2]
 419 0034 4D0000EA 		b	.L22
 420              	.L24:
 421 0038 5C000000 		.word	.L23
 422 003c 6C000000 		.word	.L25
 423 0040 8C000000 		.word	.L26
 424 0044 AC000000 		.word	.L27
 425 0048 B8000000 		.word	.L28
 426 004c C8000000 		.word	.L29
 427 0050 04010000 		.word	.L30
 428 0054 34010000 		.word	.L31
 429 0058 54010000 		.word	.L32
 430              	.L23:
 431 005c B50050E3 		cmp	r0, #181
 432 0060 0120A003 		moveq	r2, #1
 433 0064 1EFF2F11 		bxne	lr
 434 0068 460000EA 		b	.L45
 435              	.L25:
 436 006c 620050E3 		cmp	r0, #98
 437 0070 0520A013 		movne	r2, #5
 438 0074 3E00001A 		bne	.L43
 439 0078 0020A0E3 		mov	r2, #0
 440 007c 0D21C3E5 		strb	r2, [r3, #269]
 441 0080 0E21C3E5 		strb	r2, [r3, #270]
 442 0084 0220A0E3 		mov	r2, #2
 443 0088 3E0000EA 		b	.L45
 444              	.L26:
 445 008c 0010D3E5 		ldrb	r1, [r3]	@ zero_extendqisi2
 446 0090 F8209FE5 		ldr	r2, .L48
 447 0094 000051E3 		cmp	r1, #0
 448 0098 0110A013 		movne	r1, #1
 449 009c 0801C205 		streqb	r0, [r2, #264]
 450 00a0 0330A003 		moveq	r3, #3
 451 00a4 0F00001A 		bne	.L44
 452 00a8 130000EA 		b	.L46
 453              	.L27:
 454 00ac 0701C3E5 		strb	r0, [r3, #263]
 455 00b0 0420A0E3 		mov	r2, #4
 456 00b4 330000EA 		b	.L45
 457              	.L28:
 458 00b8 D4209FE5 		ldr	r2, .L48+4
 459 00bc B20083E1 		strh	r0, [r3, r2]	@ movhi
 460 00c0 0520A0E3 		mov	r2, #5
 461 00c4 2F0000EA 		b	.L45
 462              	.L29:
 463 00c8 C4109FE5 		ldr	r1, .L48+4
 464 00cc B1C093E1 		ldrh	ip, [r3, r1]
 465 00d0 00048CE1 		orr	r0, ip, r0, asl #8
 466 00d4 FF0050E3 		cmp	r0, #255
 467 00d8 B0209FE5 		ldr	r2, .L48
 468 00dc B10083E1 		strh	r0, [r3, r1]	@ movhi
 469 00e0 0200009A 		bls	.L38
 470 00e4 0210A0E3 		mov	r1, #2
 471              	.L44:
 472 00e8 1211C2E5 		strb	r1, [r2, #274]
 473 00ec 210000EA 		b	.L36
 474              	.L38:
 475 00f0 0030A0E3 		mov	r3, #0
 476 00f4 0C31C2E5 		strb	r3, [r2, #268]
 477 00f8 0630A0E3 		mov	r3, #6
 478              	.L46:
 479 00fc 0931C2E5 		strb	r3, [r2, #265]
 480 0100 1EFF2FE1 		bx	lr
 481              	.L30:
 482 0104 0C21D3E5 		ldrb	r2, [r3, #268]	@ zero_extendqisi2
 483 0108 021083E0 		add	r1, r3, r2
 484 010c 0800C1E5 		strb	r0, [r1, #8]
 485 0110 012082E2 		add	r2, r2, #1
 486 0114 78109FE5 		ldr	r1, .L48+4
 487 0118 FF2002E2 		and	r2, r2, #255
 488 011c 0C21C3E5 		strb	r2, [r3, #268]
 489 0120 B13093E1 		ldrh	r3, [r3, r1]
 490 0124 020053E1 		cmp	r3, r2
 491 0128 0720A093 		movls	r2, #7
 492 012c 1EFF2F81 		bxhi	lr
 493 0130 050000EA 		b	.L47
 494              	.L31:
 495 0134 0D21D3E5 		ldrb	r2, [r3, #269]	@ zero_extendqisi2
 496 0138 000052E1 		cmp	r2, r0
 497 013c 0100000A 		beq	.L40
 498              	.L41:
 499 0140 0320A0E3 		mov	r2, #3
 500 0144 0A0000EA 		b	.L43
 501              	.L40:
 502 0148 0820A0E3 		mov	r2, #8
 503              	.L47:
 504 014c 3C309FE5 		ldr	r3, .L48
 505 0150 0C0000EA 		b	.L45
 506              	.L32:
 507 0154 0E21D3E5 		ldrb	r2, [r3, #270]	@ zero_extendqisi2
 508 0158 000052E1 		cmp	r2, r0
 509 015c F7FFFF1A 		bne	.L41
 510 0160 28209FE5 		ldr	r2, .L48
 511 0164 0110A0E3 		mov	r1, #1
 512 0168 0010C2E5 		strb	r1, [r2]
 513 016c 040000EA 		b	.L42
 514              	.L22:
 515 0170 0420A0E3 		mov	r2, #4
 516              	.L43:
 517 0174 1221C3E5 		strb	r2, [r3, #274]
 518              	.L36:
 519 0178 1121D3E5 		ldrb	r2, [r3, #273]	@ zero_extendqisi2
 520 017c 012082E2 		add	r2, r2, #1
 521 0180 1121C3E5 		strb	r2, [r3, #273]
 522              	.L42:
 523 0184 0020A0E3 		mov	r2, #0
 524              	.L45:
 525 0188 0921C3E5 		strb	r2, [r3, #265]
 526 018c 1EFF2FE1 		bx	lr
 527              	.L49:
 528              		.align	2
 529              	.L48:
 530 0190 00000000 		.word	gps_ubx
 531 0194 0A010000 		.word	266
 533              		.section	.text.ubxsend_cfg_rst,"ax",%progbits
 534              		.align	2
 535              		.global	ubxsend_cfg_rst
 537              	ubxsend_cfg_rst:
 538              		@ Function supports interworking.
 539              		@ args = 0, pretend = 0, frame = 8
 540              		@ frame_needed = 0, uses_anonymous_args = 0
 541 0000 F3412DE9 		stmfd	sp!, {r0, r1, r4, r5, r6, r7, r8, lr}
 542 0004 80519FE5 		ldr	r5, .L51
 543 0008 0080A0E1 		mov	r8, r0
 544 000c 0170A0E1 		mov	r7, r1
 545 0010 0500A0E1 		mov	r0, r5
 546 0014 B510A0E3 		mov	r1, #181
 547 0018 70419FE5 		ldr	r4, .L51+4
 548 001c FEFFFFEB 		bl	uart_transmit
 549 0020 0500A0E1 		mov	r0, r5
 550 0024 6210A0E3 		mov	r1, #98
 551 0028 FEFFFFEB 		bl	uart_transmit
 552 002c 0060A0E3 		mov	r6, #0
 553 0030 0500A0E1 		mov	r0, r5
 554 0034 0610A0E3 		mov	r1, #6
 555 0038 1061C4E5 		strb	r6, [r4, #272]
 556 003c 0F61C4E5 		strb	r6, [r4, #271]
 557 0040 FEFFFFEB 		bl	uart_transmit
 558 0044 0F31D4E5 		ldrb	r3, [r4, #271]	@ zero_extendqisi2
 559 0048 1021D4E5 		ldrb	r2, [r4, #272]	@ zero_extendqisi2
 560 004c 063083E2 		add	r3, r3, #6
 561 0050 FF3003E2 		and	r3, r3, #255
 562 0054 0F31C4E5 		strb	r3, [r4, #271]
 563 0058 0500A0E1 		mov	r0, r5
 564 005c 023083E0 		add	r3, r3, r2
 565 0060 0410A0E3 		mov	r1, #4
 566 0064 1031C4E5 		strb	r3, [r4, #272]
 567 0068 FEFFFFEB 		bl	uart_transmit
 568 006c 0F31D4E5 		ldrb	r3, [r4, #271]	@ zero_extendqisi2
 569 0070 1021D4E5 		ldrb	r2, [r4, #272]	@ zero_extendqisi2
 570 0074 043083E2 		add	r3, r3, #4
 571 0078 FF3003E2 		and	r3, r3, #255
 572 007c 0F31C4E5 		strb	r3, [r4, #271]
 573 0080 0500A0E1 		mov	r0, r5
 574 0084 023083E0 		add	r3, r3, r2
 575 0088 0410A0E3 		mov	r1, #4
 576 008c 1031C4E5 		strb	r3, [r4, #272]
 577 0090 FEFFFFEB 		bl	uart_transmit
 578 0094 0F31D4E5 		ldrb	r3, [r4, #271]	@ zero_extendqisi2
 579 0098 1021D4E5 		ldrb	r2, [r4, #272]	@ zero_extendqisi2
 580 009c 043083E2 		add	r3, r3, #4
 581 00a0 FF3003E2 		and	r3, r3, #255
 582 00a4 0F31C4E5 		strb	r3, [r4, #271]
 583 00a8 0500A0E1 		mov	r0, r5
 584 00ac 023083E0 		add	r3, r3, r2
 585 00b0 0610A0E1 		mov	r1, r6
 586 00b4 1031C4E5 		strb	r3, [r4, #272]
 587 00b8 FEFFFFEB 		bl	uart_transmit
 588 00bc 1021D4E5 		ldrb	r2, [r4, #272]	@ zero_extendqisi2
 589 00c0 0F31D4E5 		ldrb	r3, [r4, #271]	@ zero_extendqisi2
 590 00c4 B680CDE1 		strh	r8, [sp, #6]	@ movhi
 591 00c8 FF8008E2 		and	r8, r8, #255
 592 00cc 033082E0 		add	r3, r2, r3
 593 00d0 0500A0E1 		mov	r0, r5
 594 00d4 0810A0E1 		mov	r1, r8
 595 00d8 1031C4E5 		strb	r3, [r4, #272]
 596 00dc FEFFFFEB 		bl	uart_transmit
 597 00e0 0F31D4E5 		ldrb	r3, [r4, #271]	@ zero_extendqisi2
 598 00e4 038088E0 		add	r8, r8, r3
 599 00e8 1031D4E5 		ldrb	r3, [r4, #272]	@ zero_extendqisi2
 600 00ec FF8008E2 		and	r8, r8, #255
 601 00f0 0F81C4E5 		strb	r8, [r4, #271]
 602 00f4 038088E0 		add	r8, r8, r3
 603 00f8 1081C4E5 		strb	r8, [r4, #272]
 604 00fc 0780DDE5 		ldrb	r8, [sp, #7]	@ zero_extendqisi2
 605 0100 0500A0E1 		mov	r0, r5
 606 0104 0810A0E1 		mov	r1, r8
 607 0108 FEFFFFEB 		bl	uart_transmit
 608 010c 0F31D4E5 		ldrb	r3, [r4, #271]	@ zero_extendqisi2
 609 0110 038088E0 		add	r8, r8, r3
 610 0114 1031D4E5 		ldrb	r3, [r4, #272]	@ zero_extendqisi2
 611 0118 FF8008E2 		and	r8, r8, #255
 612 011c 0F81C4E5 		strb	r8, [r4, #271]
 613 0120 0500A0E1 		mov	r0, r5
 614 0124 038088E0 		add	r8, r8, r3
 615 0128 0710A0E1 		mov	r1, r7
 616 012c 1081C4E5 		strb	r8, [r4, #272]
 617 0130 FEFFFFEB 		bl	uart_transmit
 618 0134 0F31D4E5 		ldrb	r3, [r4, #271]	@ zero_extendqisi2
 619 0138 037087E0 		add	r7, r7, r3
 620 013c 1031D4E5 		ldrb	r3, [r4, #272]	@ zero_extendqisi2
 621 0140 FF7007E2 		and	r7, r7, #255
 622 0144 0F71C4E5 		strb	r7, [r4, #271]
 623 0148 0500A0E1 		mov	r0, r5
 624 014c 037087E0 		add	r7, r7, r3
 625 0150 0610A0E1 		mov	r1, r6
 626 0154 1071C4E5 		strb	r7, [r4, #272]
 627 0158 FEFFFFEB 		bl	uart_transmit
 628 015c 0F11D4E5 		ldrb	r1, [r4, #271]	@ zero_extendqisi2
 629 0160 1031D4E5 		ldrb	r3, [r4, #272]	@ zero_extendqisi2
 630 0164 0500A0E1 		mov	r0, r5
 631 0168 033081E0 		add	r3, r1, r3
 632 016c 1031C4E5 		strb	r3, [r4, #272]
 633 0170 FEFFFFEB 		bl	uart_transmit
 634 0174 0500A0E1 		mov	r0, r5
 635 0178 1011D4E5 		ldrb	r1, [r4, #272]	@ zero_extendqisi2
 636 017c FEFFFFEB 		bl	uart_transmit
 637 0180 08D08DE2 		add	sp, sp, #8
 638              		@ sp needed
 639 0184 F041BDE8 		ldmfd	sp!, {r4, r5, r6, r7, r8, lr}
 640 0188 1EFF2FE1 		bx	lr
 641              	.L52:
 642              		.align	2
 643              	.L51:
 644 018c 00000000 		.word	uart0
 645 0190 00000000 		.word	gps_ubx
 647              		.comm	gps_ubx,280,8
 648              		.ident	"GCC: (GNU Tools for ARM Embedded Processors) 4.8.3 20131129 (release) [ARM/embedded-4_8-br