   1              		.cpu arm7tdmi
   2              		.fpu softvfp
   3              		.eabi_attribute 20, 1
   4              		.eabi_attribute 21, 1
   5              		.eabi_attribute 23, 3
   6              		.eabi_attribute 24, 1
   7              		.eabi_attribute 25, 1
   8              		.eabi_attribute 26, 1
   9              		.eabi_attribute 30, 4
  10              		.eabi_attribute 34, 0
  11              		.eabi_attribute 18, 4
  12              		.file	"guidance_v.c"
  13              		.section	.text.v_ctl_init,"ax",%progbits
  14              		.align	2
  15              		.global	v_ctl_init
  17              	v_ctl_init:
  18              		@ Function supports interworking.
  19              		@ args = 0, pretend = 0, frame = 0
  20              		@ frame_needed = 0, uses_anonymous_args = 0
  21              		@ link register save eliminated.
  22 0000 D4309FE5 		ldr	r3, .L2
  23 0004 0020A0E3 		mov	r2, #0
  24 0008 D0109FE5 		ldr	r1, .L2+4
  25 000c 0020C3E5 		strb	r2, [r3]
  26 0010 0030A0E3 		mov	r3, #0
  27 0014 003081E5 		str	r3, [r1]	@ float
  28 0018 C4109FE5 		ldr	r1, .L2+8
  29 001c C4009FE5 		ldr	r0, .L2+12
  30 0020 003081E5 		str	r3, [r1]	@ float
  31 0024 C0109FE5 		ldr	r1, .L2+16
  32 0028 000081E5 		str	r0, [r1]	@ float
  33 002c BC109FE5 		ldr	r1, .L2+20
  34 0030 003081E5 		str	r3, [r1]	@ float
  35 0034 B8109FE5 		ldr	r1, .L2+24
  36 0038 FE05A0E3 		mov	r0, #1065353216
  37 003c 000081E5 		str	r0, [r1]	@ float
  38 0040 B0109FE5 		ldr	r1, .L2+28
  39 0044 3FC4A0E3 		mov	ip, #1056964608
  40 0048 00C081E5 		str	ip, [r1]	@ float
  41 004c A8109FE5 		ldr	r1, .L2+32
  42 0050 003081E5 		str	r3, [r1]	@ float
  43 0054 A4109FE5 		ldr	r1, .L2+36
  44 0058 0020C1E5 		strb	r2, [r1]
  45 005c A0109FE5 		ldr	r1, .L2+40
  46 0060 A0C09FE5 		ldr	ip, .L2+44
  47 0064 0020C1E5 		strb	r2, [r1]
  48 0068 9C109FE5 		ldr	r1, .L2+48
  49 006c 00108CE5 		str	r1, [ip]	@ float
  50 0070 98C09FE5 		ldr	ip, .L2+52
  51 0074 00308CE5 		str	r3, [ip]	@ float
  52 0078 94C09FE5 		ldr	ip, .L2+56
  53 007c 00008CE5 		str	r0, [ip]	@ float
  54 0080 90009FE5 		ldr	r0, .L2+60
  55 0084 001080E5 		str	r1, [r0]	@ float
  56 0088 8C009FE5 		ldr	r0, .L2+64
  57 008c 8C109FE5 		ldr	r1, .L2+68
  58 0090 000081E5 		str	r0, [r1]	@ float
  59 0094 88009FE5 		ldr	r0, .L2+72
  60 0098 88109FE5 		ldr	r1, .L2+76
  61 009c 000081E5 		str	r0, [r1]	@ float
  62 00a0 84109FE5 		ldr	r1, .L2+80
  63 00a4 FA05A0E3 		mov	r0, #1048576000
  64 00a8 000081E5 		str	r0, [r1]	@ float
  65 00ac 7C109FE5 		ldr	r1, .L2+84
  66 00b0 003081E5 		str	r3, [r1]	@ float
  67 00b4 78109FE5 		ldr	r1, .L2+88
  68 00b8 78009FE5 		ldr	r0, .L2+92
  69 00bc 003081E5 		str	r3, [r1]	@ float
  70 00c0 74109FE5 		ldr	r1, .L2+96
  71 00c4 000081E5 		str	r0, [r1]	@ float
  72 00c8 70109FE5 		ldr	r1, .L2+100
  73 00cc 003081E5 		str	r3, [r1]	@ float
  74 00d0 6C309FE5 		ldr	r3, .L2+104
  75 00d4 B020C3E1 		strh	r2, [r3]	@ movhi
  76 00d8 1EFF2FE1 		bx	lr
  77              	.L3:
  78              		.align	2
  79              	.L2:
  80 00dc 00000000 		.word	v_ctl_mode
  81 00e0 00000000 		.word	v_ctl_altitude_setpoint
  82 00e4 00000000 		.word	v_ctl_altitude_pre_climb
  83 00e8 7368113E 		.word	1041328243
  84 00ec 00000000 		.word	v_ctl_altitude_pgain
  85 00f0 00000000 		.word	v_ctl_altitude_error
  86 00f4 00000000 		.word	v_ctl_altitude_pre_climb_correction
  87 00f8 00000000 		.word	v_ctl_altitude_max_climb
  88 00fc 00000000 		.word	v_ctl_climb_setpoint
  89 0100 00000000 		.word	v_ctl_climb_mode
  90 0104 00000000 		.word	v_ctl_auto_throttle_submode
  91 0108 00000000 		.word	v_ctl_auto_throttle_nominal_cruise_throttle
  92 010c CDCCCC3E 		.word	1053609165
  93 0110 00000000 		.word	v_ctl_auto_throttle_min_cruise_throttle
  94 0114 00000000 		.word	v_ctl_auto_throttle_max_cruise_throttle
  95 0118 00000000 		.word	v_ctl_auto_throttle_cruise_throttle
  96 011c 9A99193E 		.word	1041865114
  97 0120 00000000 		.word	v_ctl_auto_throttle_climb_throttle_increment
  98 0124 6F12033C 		.word	1006834287
  99 0128 00000000 		.word	v_ctl_auto_throttle_pgain
 100 012c 00000000 		.word	v_ctl_auto_throttle_igain
 101 0130 00000000 		.word	v_ctl_auto_throttle_dgain
 102 0134 00000000 		.word	v_ctl_auto_throttle_sum_err
 103 0138 295C0F3E 		.word	1041194025
 104 013c 00000000 		.word	v_ctl_auto_throttle_pitch_of_vz_pgain
 105 0140 00000000 		.word	v_ctl_auto_throttle_pitch_of_vz_dgain
 106 0144 00000000 		.word	v_ctl_throttle_setpoint
 108              		.global	__aeabi_fsub
 109              		.global	__aeabi_fmul
 110              		.global	__aeabi_fadd
 111              		.global	__aeabi_fcmpgt
 112              		.global	__aeabi_fcmplt
 113              		.section	.text.v_ctl_altitude_loop,"ax",%progbits
 114              		.align	2
 115              		.global	v_ctl_altitude_loop
 117              	v_ctl_altitude_loop:
 118              		@ Function supports interworking.
 119              		@ args = 0, pretend = 0, frame = 0
 120              		@ frame_needed = 0, uses_anonymous_args = 0
 121 0000 F8402DE9 		stmfd	sp!, {r3, r4, r5, r6, r7, lr}
 122 0004 DC309FE5 		ldr	r3, .L24
 123 0008 000093E5 		ldr	r0, [r3]	@ float
 124 000c D8309FE5 		ldr	r3, .L24+4
 125 0010 001093E5 		ldr	r1, [r3]	@ float
 126 0014 FEFFFFEB 		bl	__aeabi_fsub
 127 0018 D0309FE5 		ldr	r3, .L24+8
 128 001c 000083E5 		str	r0, [r3]	@ float
 129 0020 CC309FE5 		ldr	r3, .L24+12
 130 0024 001093E5 		ldr	r1, [r3]	@ float
 131 0028 0060A0E1 		mov	r6, r0
 132 002c FEFFFFEB 		bl	__aeabi_fmul
 133 0030 C0309FE5 		ldr	r3, .L24+16
 134 0034 0040A0E1 		mov	r4, r0
 135 0038 000093E5 		ldr	r0, [r3]	@ float
 136 003c B8309FE5 		ldr	r3, .L24+20
 137 0040 001093E5 		ldr	r1, [r3]	@ float
 138 0044 FEFFFFEB 		bl	__aeabi_fmul
 139 0048 0010A0E1 		mov	r1, r0
 140 004c 0400A0E1 		mov	r0, r4
 141 0050 FEFFFFEB 		bl	__aeabi_fadd
 142 0054 A4309FE5 		ldr	r3, .L24+24
 143 0058 A4409FE5 		ldr	r4, .L24+28
 144 005c 005093E5 		ldr	r5, [r3]	@ float
 145 0060 000084E5 		str	r0, [r4]	@ float
 146 0064 0510A0E1 		mov	r1, r5
 147 0068 0070A0E1 		mov	r7, r0
 148 006c FEFFFFEB 		bl	__aeabi_fcmpgt
 149 0070 000050E3 		cmp	r0, #0
 150 0074 0500001A 		bne	.L21
 151 0078 025185E2 		add	r5, r5, #-2147483648
 152 007c 0700A0E1 		mov	r0, r7
 153 0080 0510A0E1 		mov	r1, r5
 154 0084 FEFFFFEB 		bl	__aeabi_fcmplt
 155 0088 000050E3 		cmp	r0, #0
 156 008c 0000000A 		beq	.L7
 157              	.L21:
 158 0090 005084E5 		str	r5, [r4]	@ float
 159              	.L7:
 160 0094 6C309FE5 		ldr	r3, .L24+32
 161 0098 0050D3E5 		ldrb	r5, [r3]	@ zero_extendqisi2
 162 009c 000055E3 		cmp	r5, #0
 163 00a0 0E00001A 		bne	.L4
 164 00a4 0261C6E3 		bic	r6, r6, #-2147483648
 165 00a8 0600A0E1 		mov	r0, r6
 166 00ac 4114A0E3 		mov	r1, #1090519040
 167 00b0 FEFFFFEB 		bl	__aeabi_fcmplt
 168 00b4 50409FE5 		ldr	r4, .L24+36
 169 00b8 000050E3 		cmp	r0, #0
 170 00bc 0050C415 		strneb	r5, [r4]
 171 00c0 0600001A 		bne	.L4
 172 00c4 0600A0E1 		mov	r0, r6
 173 00c8 40109FE5 		ldr	r1, .L24+40
 174 00cc FEFFFFEB 		bl	__aeabi_fcmpgt
 175 00d0 000050E3 		cmp	r0, #0
 176 00d4 0130A013 		movne	r3, #1
 177 00d8 0230A003 		moveq	r3, #2
 178 00dc 0030C4E5 		strb	r3, [r4]
 179              	.L4:
 180 00e0 F840BDE8 		ldmfd	sp!, {r3, r4, r5, r6, r7, lr}
 181 00e4 1EFF2FE1 		bx	lr
 182              	.L25:
 183              		.align	2
 184              	.L24:
 185 00e8 00000000 		.word	v_ctl_altitude_setpoint
 186 00ec 00000000 		.word	estimator_z
 187 00f0 00000000 		.word	v_ctl_altitude_error
 188 00f4 00000000 		.word	v_ctl_altitude_pgain
 189 00f8 00000000 		.word	v_ctl_altitude_pre_climb
 190 00fc 00000000 		.word	v_ctl_altitude_pre_climb_correction
 191 0100 00000000 		.word	v_ctl_altitude_max_climb
 192 0104 00000000 		.word	v_ctl_climb_setpoint
 193 0108 00000000 		.word	v_ctl_climb_mode
 194 010c 00000000 		.word	v_ctl_auto_throttle_submode
 195 0110 00009041 		.word	1099956224
 197              		.global	__aeabi_f2d
 198              		.global	__aeabi_dsub
 199              		.global	__aeabi_ddiv
 200              		.global	__aeabi_d2f
 201              		.global	__aeabi_dmul
 202              		.global	__aeabi_dadd
 203              		.global	__aeabi_f2iz
 204              		.section	.text.v_ctl_climb_loop,"ax",%progbits
 205              		.align	2
 206              		.global	v_ctl_climb_loop
 208              	v_ctl_climb_loop:
 209              		@ Function supports interworking.
 210              		@ args = 0, pretend = 0, frame = 8
 211              		@ frame_needed = 0, uses_anonymous_args = 0
 212 0000 24339FE5 		ldr	r3, .L57
 213 0004 F74F2DE9 		stmfd	sp!, {r0, r1, r2, r4, r5, r6, r7, r8, r9, r10, fp, lr}
 214 0008 007093E5 		ldr	r7, [r3]	@ float
 215 000c 1C339FE5 		ldr	r3, .L57+4
 216 0010 0710A0E1 		mov	r1, r7
 217 0014 000093E5 		ldr	r0, [r3]	@ float
 218 0018 FEFFFFEB 		bl	__aeabi_fsub
 219 001c 10439FE5 		ldr	r4, .L57+8
 220 0020 001094E5 		ldr	r1, [r4]	@ float
 221 0024 0080A0E1 		mov	r8, r0
 222 0028 FEFFFFEB 		bl	__aeabi_fsub
 223 002c 04339FE5 		ldr	r3, .L57+12
 224 0030 0060A0E1 		mov	r6, r0
 225 0034 008084E5 		str	r8, [r4]	@ float
 226 0038 001093E5 		ldr	r1, [r3]	@ float
 227 003c 0700A0E1 		mov	r0, r7
 228 0040 FEFFFFEB 		bl	__aeabi_fmul
 229 0044 F0329FE5 		ldr	r3, .L57+16
 230 0048 001093E5 		ldr	r1, [r3]	@ float
 231 004c FEFFFFEB 		bl	__aeabi_fadd
 232 0050 E8429FE5 		ldr	r4, .L57+20
 233 0054 E8329FE5 		ldr	r3, .L57+24
 234 0058 009094E5 		ldr	r9, [r4]	@ float
 235 005c 001093E5 		ldr	r1, [r3]	@ float
 236 0060 0050A0E1 		mov	r5, r0
 237 0064 0900A0E1 		mov	r0, r9
 238 0068 FEFFFFEB 		bl	__aeabi_fmul
 239 006c 0010A0E1 		mov	r1, r0
 240 0070 0800A0E1 		mov	r0, r8
 241 0074 FEFFFFEB 		bl	__aeabi_fadd
 242 0078 C8329FE5 		ldr	r3, .L57+28
 243 007c 00A0A0E1 		mov	r10, r0
 244 0080 001093E5 		ldr	r1, [r3]	@ float
 245 0084 0600A0E1 		mov	r0, r6
 246 0088 FEFFFFEB 		bl	__aeabi_fmul
 247 008c 0010A0E1 		mov	r1, r0
 248 0090 0A00A0E1 		mov	r0, r10
 249 0094 FEFFFFEB 		bl	__aeabi_fadd
 250 0098 AC329FE5 		ldr	r3, .L57+32
 251 009c 001093E5 		ldr	r1, [r3]	@ float
 252 00a0 FEFFFFEB 		bl	__aeabi_fmul
 253 00a4 0010A0E1 		mov	r1, r0
 254 00a8 0500A0E1 		mov	r0, r5
 255 00ac FEFFFFEB 		bl	__aeabi_fsub
 256 00b0 98329FE5 		ldr	r3, .L57+36
 257 00b4 0050A0E1 		mov	r5, r0
 258 00b8 001093E5 		ldr	r1, [r3]	@ float
 259 00bc 0600A0E1 		mov	r0, r6
 260 00c0 FEFFFFEB 		bl	__aeabi_fmul
 261 00c4 0010A0E1 		mov	r1, r0
 262 00c8 0700A0E1 		mov	r0, r7
 263 00cc FEFFFFEB 		bl	__aeabi_fadd
 264 00d0 7C329FE5 		ldr	r3, .L57+40
 265 00d4 001093E5 		ldr	r1, [r3]	@ float
 266 00d8 FEFFFFEB 		bl	__aeabi_fmul
 267 00dc 74329FE5 		ldr	r3, .L57+44
 268 00e0 0030D3E5 		ldrb	r3, [r3]	@ zero_extendqisi2
 269 00e4 010053E3 		cmp	r3, #1
 270 00e8 00A0A0E1 		mov	r10, r0
 271 00ec 68629FE5 		ldr	r6, .L57+48
 272 00f0 0200000A 		beq	.L28
 273 00f4 020053E3 		cmp	r3, #2
 274 00f8 0B00000A 		beq	.L29
 275 00fc 600000EA 		b	.L56
 276              	.L28:
 277 0100 0700A0E1 		mov	r0, r7
 278 0104 0010A0E3 		mov	r1, #0
 279 0108 FEFFFFEB 		bl	__aeabi_fcmpgt
 280 010c 000050E3 		cmp	r0, #0
 281 0110 48329F15 		ldrne	r3, .L57+52
 282 0114 BF34A003 		moveq	r3, #-1090519040
 283 0118 00308615 		strne	r3, [r6]	@ float
 284 011c FE55A013 		movne	r5, #1065353216
 285 0120 00308605 		streq	r3, [r6]	@ float
 286 0124 0050A003 		moveq	r5, #0
 287 0128 670000EA 		b	.L32
 288              	.L29:
 289 012c 30329FE5 		ldr	r3, .L57+56
 290 0130 003093E5 		ldr	r3, [r3]	@ float
 291 0134 0201C3E3 		bic	r0, r3, #-2147483648
 292 0138 04308DE5 		str	r3, [sp, #4]	@ float
 293 013c FEFFFFEB 		bl	__aeabi_f2d
 294 0140 0020A0E3 		mov	r2, #0
 295 0144 1C329FE5 		ldr	r3, .L57+60
 296 0148 FEFFFFEB 		bl	__aeabi_dsub
 297 014c 0020A0E3 		mov	r2, #0
 298 0150 14329FE5 		ldr	r3, .L57+64
 299 0154 FEFFFFEB 		bl	__aeabi_ddiv
 300 0158 FEFFFFEB 		bl	__aeabi_d2f
 301 015c 0070A0E1 		mov	r7, r0
 302 0160 0710A0E1 		mov	r1, r7
 303 0164 FE05A0E3 		mov	r0, #1065353216
 304 0168 FEFFFFEB 		bl	__aeabi_fsub
 305 016c 0510A0E1 		mov	r1, r5
 306 0170 00B0A0E1 		mov	fp, r0
 307 0174 FEFFFFEB 		bl	__aeabi_fmul
 308 0178 0A10A0E1 		mov	r1, r10
 309 017c 0050A0E1 		mov	r5, r0
 310 0180 0B00A0E1 		mov	r0, fp
 311 0184 FEFFFFEB 		bl	__aeabi_fmul
 312 0188 0810A0E1 		mov	r1, r8
 313 018c 00A0A0E1 		mov	r10, r0
 314 0190 0B00A0E1 		mov	r0, fp
 315 0194 FEFFFFEB 		bl	__aeabi_fmul
 316 0198 0010A0E1 		mov	r1, r0
 317 019c 0900A0E1 		mov	r0, r9
 318 01a0 FEFFFFEB 		bl	__aeabi_fadd
 319 01a4 C4919FE5 		ldr	r9, .L57+68
 320 01a8 0910A0E1 		mov	r1, r9
 321 01ac 0080A0E1 		mov	r8, r0
 322 01b0 FEFFFFEB 		bl	__aeabi_fcmpgt
 323 01b4 000050E3 		cmp	r0, #0
 324 01b8 0600001A 		bne	.L36
 325 01bc B0919FE5 		ldr	r9, .L57+72
 326 01c0 0800A0E1 		mov	r0, r8
 327 01c4 0910A0E1 		mov	r1, r9
 328 01c8 FEFFFFEB 		bl	__aeabi_fcmplt
 329 01cc 000050E3 		cmp	r0, #0
 330 01d0 00808405 		streq	r8, [r4]	@ float
 331 01d4 0000000A 		beq	.L35
 332              	.L36:
 333 01d8 009084E5 		str	r9, [r4]	@ float
 334              	.L35:
 335 01dc 04009DE5 		ldr	r0, [sp, #4]	@ float
 336 01e0 0010A0E3 		mov	r1, #0
 337 01e4 FEFFFFEB 		bl	__aeabi_fcmpgt
 338 01e8 000050E3 		cmp	r0, #0
 339 01ec 0C00000A 		beq	.L53
 340 01f0 0500A0E1 		mov	r0, r5
 341 01f4 0710A0E1 		mov	r1, r7
 342 01f8 FEFFFFEB 		bl	__aeabi_fadd
 343 01fc 0050A0E1 		mov	r5, r0
 344 0200 0A00A0E1 		mov	r0, r10
 345 0204 FEFFFFEB 		bl	__aeabi_f2d
 346 0208 0080A0E1 		mov	r8, r0
 347 020c 0700A0E1 		mov	r0, r7
 348 0210 0190A0E1 		mov	r9, r1
 349 0214 FEFFFFEB 		bl	__aeabi_f2d
 350 0218 58219FE5 		ldr	r2, .L57+76
 351 021c 58319FE5 		ldr	r3, .L57+80
 352 0220 0E0000EA 		b	.L55
 353              	.L53:
 354 0224 0010A0E3 		mov	r1, #0
 355 0228 0700A0E1 		mov	r0, r7
 356 022c FEFFFFEB 		bl	__aeabi_fmul
 357 0230 0010A0E1 		mov	r1, r0
 358 0234 0500A0E1 		mov	r0, r5
 359 0238 FEFFFFEB 		bl	__aeabi_fadd
 360 023c 0050A0E1 		mov	r5, r0
 361 0240 0A00A0E1 		mov	r0, r10
 362 0244 FEFFFFEB 		bl	__aeabi_f2d
 363 0248 0080A0E1 		mov	r8, r0
 364 024c 0700A0E1 		mov	r0, r7
 365 0250 0190A0E1 		mov	r9, r1
 366 0254 FEFFFFEB 		bl	__aeabi_f2d
 367 0258 20319FE5 		ldr	r3, .L57+84
 368 025c 0020A0E3 		mov	r2, #0
 369              	.L55:
 370 0260 FEFFFFEB 		bl	__aeabi_dmul
 371 0264 0020A0E1 		mov	r2, r0
 372 0268 0130A0E1 		mov	r3, r1
 373 026c 0800A0E1 		mov	r0, r8
 374 0270 0910A0E1 		mov	r1, r9
 375 0274 FEFFFFEB 		bl	__aeabi_dadd
 376 0278 FEFFFFEB 		bl	__aeabi_d2f
 377 027c 000086E5 		str	r0, [r6]	@ float
 378 0280 110000EA 		b	.L32
 379              	.L56:
 380 0284 0810A0E1 		mov	r1, r8
 381 0288 0900A0E1 		mov	r0, r9
 382 028c FEFFFFEB 		bl	__aeabi_fadd
 383 0290 D8809FE5 		ldr	r8, .L57+68
 384 0294 0810A0E1 		mov	r1, r8
 385 0298 0070A0E1 		mov	r7, r0
 386 029c FEFFFFEB 		bl	__aeabi_fcmpgt
 387 02a0 000050E3 		cmp	r0, #0
 388 02a4 0600001A 		bne	.L42
 389 02a8 C4809FE5 		ldr	r8, .L57+72
 390 02ac 0700A0E1 		mov	r0, r7
 391 02b0 0810A0E1 		mov	r1, r8
 392 02b4 FEFFFFEB 		bl	__aeabi_fcmplt
 393 02b8 000050E3 		cmp	r0, #0
 394 02bc 00708405 		streq	r7, [r4]	@ float
 395 02c0 0000000A 		beq	.L41
 396              	.L42:
 397 02c4 008084E5 		str	r8, [r4]	@ float
 398              	.L41:
 399 02c8 00A086E5 		str	r10, [r6]	@ float
 400              	.L32:
 401 02cc B0109FE5 		ldr	r1, .L57+88
 402 02d0 0500A0E1 		mov	r0, r5
 403 02d4 FEFFFFEB 		bl	__aeabi_fmul
 404 02d8 0010A0E3 		mov	r1, #0
 405 02dc 0040A0E1 		mov	r4, r0
 406 02e0 FEFFFFEB 		bl	__aeabi_fcmplt
 407 02e4 000050E3 		cmp	r0, #0
 408 02e8 0000A013 		movne	r0, #0
 409 02ec 0900001A 		bne	.L43
 410 02f0 0400A0E1 		mov	r0, r4
 411 02f4 88109FE5 		ldr	r1, .L57+88
 412 02f8 FEFFFFEB 		bl	__aeabi_fcmpgt
 413 02fc 000050E3 		cmp	r0, #0
 414 0300 960DA013 		movne	r0, #9600
 415 0304 0300001A 		bne	.L43
 416 0308 0400A0E1 		mov	r0, r4
 417 030c FEFFFFEB 		bl	__aeabi_f2iz
 418 0310 0008A0E1 		mov	r0, r0, asl #16
 419 0314 2008A0E1 		mov	r0, r0, lsr #16
 420              	.L43:
 421 0318 68309FE5 		ldr	r3, .L57+92
 422 031c B000C3E1 		strh	r0, [r3]	@ movhi
 423 0320 0CD08DE2 		add	sp, sp, #12
 424              		@ sp needed
 425 0324 F04FBDE8 		ldmfd	sp!, {r4, r5, r6, r7, r8, r9, r10, fp, lr}
 426 0328 1EFF2FE1 		bx	lr
 427              	.L58:
 428              		.align	2
 429              	.L57:
 430 032c 00000000 		.word	v_ctl_climb_setpoint
 431 0330 00000000 		.word	estimator_z_dot
 432 0334 00000000 		.word	.LANCHOR0
 433 0338 00000000 		.word	v_ctl_auto_throttle_climb_throttle_increment
 434 033c 00000000 		.word	v_ctl_auto_throttle_cruise_throttle
 435 0340 00000000 		.word	v_ctl_auto_throttle_sum_err
 436 0344 00000000 		.word	v_ctl_auto_throttle_igain
 437 0348 00000000 		.word	v_ctl_auto_throttle_dgain
 438 034c 00000000 		.word	v_ctl_auto_throttle_pgain
 439 0350 00000000 		.word	v_ctl_auto_throttle_pitch_of_vz_dgain
 440 0354 00000000 		.word	v_ctl_auto_throttle_pitch_of_vz_pgain
 441 0358 00000000 		.word	v_ctl_auto_throttle_submode
 442 035c 00000000 		.word	nav_pitch
 443 0360 B81E053F 		.word	1057300152
 444 0364 00000000 		.word	v_ctl_altitude_error
 445 0368 00002040 		.word	1075838976
 446 036c 00002440 		.word	1076101120
 447 0370 00001643 		.word	1125515264
 448 0374 000016C3 		.word	-1021968384
 449 0378 A4703D0A 		.word	171798692
 450 037c D7A3E03F 		.word	1071686615
 451 0380 0000E0BF 		.word	-1075838976
 452 0384 00001646 		.word	1175846912
 453 0388 00000000 		.word	v_ctl_throttle_setpoint
 455              		.global	__aeabi_i2d
 456              		.global	__aeabi_dcmpgt
 457              		.global	__aeabi_dcmplt
 458              		.section	.text.v_ctl_throttle_slew,"ax",%progbits
 459              		.align	2
 460              		.global	v_ctl_throttle_slew
 462              	v_ctl_throttle_slew:
 463              		@ Function supports interworking.
 464              		@ args = 0, pretend = 0, frame = 0
 465              		@ frame_needed = 0, uses_anonymous_args = 0
 466 0000 F0412DE9 		stmfd	sp!, {r4, r5, r6, r7, r8, lr}
 467 0004 6C309FE5 		ldr	r3, .L63
 468 0008 6C809FE5 		ldr	r8, .L63+4
 469 000c B000D3E1 		ldrh	r0, [r3]
 470 0010 B070D8E1 		ldrh	r7, [r8]
 471 0014 000067E0 		rsb	r0, r7, r0
 472 0018 0008A0E1 		mov	r0, r0, asl #16
 473 001c 2068A0E1 		mov	r6, r0, lsr #16
 474 0020 4008A0E1 		mov	r0, r0, asr #16
 475 0024 FEFFFFEB 		bl	__aeabi_i2d
 476 0028 0020A0E3 		mov	r2, #0
 477 002c 4C309FE5 		ldr	r3, .L63+8
 478 0030 0040A0E1 		mov	r4, r0
 479 0034 0150A0E1 		mov	r5, r1
 480 0038 FEFFFFEB 		bl	__aeabi_dcmpgt
 481 003c 000050E3 		cmp	r0, #0
 482 0040 056DA013 		movne	r6, #320
 483 0044 0700001A 		bne	.L60
 484 0048 34309FE5 		ldr	r3, .L63+12
 485 004c 0400A0E1 		mov	r0, r4
 486 0050 0510A0E1 		mov	r1, r5
 487 0054 0020A0E3 		mov	r2, #0
 488 0058 FEFFFFEB 		bl	__aeabi_dcmplt
 489 005c 24309FE5 		ldr	r3, .L63+16
 490 0060 000050E3 		cmp	r0, #0
 491 0064 0360A011 		movne	r6, r3
 492              	.L60:
 493 0068 066087E0 		add	r6, r7, r6
 494 006c B060C8E1 		strh	r6, [r8]	@ movhi
 495 0070 F041BDE8 		ldmfd	sp!, {r4, r5, r6, r7, r8, lr}
 496 0074 1EFF2FE1 		bx	lr
 497              	.L64:
 498              		.align	2
 499              	.L63:
 500 0078 00000000 		.word	v_ctl_throttle_setpoint
 501 007c 00000000 		.word	v_ctl_throttle_slewed
 502 0080 00007440 		.word	1081344000
 503 0084 000074C0 		.word	-1066139648
 504 0088 C0FE0000 		.word	65216
 506              		.comm	v_ctl_throttle_slewed,2,2
 507              		.comm	v_ctl_throttle_setpoint,2,2
 508              		.comm	v_ctl_auto_pitch_sum_err,4,4
 509              		.comm	v_ctl_auto_pitch_igain,4,4
 510              		.comm	v_ctl_auto_pitch_pgain,4,4
 511              		.comm	v_ctl_auto_throttle_pitch_of_vz_dgain,4,4
 512              		.comm	v_ctl_auto_throttle_pitch_of_vz_pgain,4,4
 513              		.comm	v_ctl_auto_throttle_sum_err,4,4
 514              		.comm	v_ctl_auto_throttle_dgain,4,4
 515              		.comm	v_ctl_auto_throttle_igain,4,4
 516              		.comm	v_ctl_auto_throttle_pgain,4,4
 517              		.comm	v_ctl_auto_throttle_climb_throttle_increment,4,4
 518              		.comm	v_ctl_auto_throttle_max_cruise_throttle,4,4
 519              		.comm	v_ctl_auto_throttle_min_cruise_throttle,4,4
 520              		.comm	v_ctl_auto_throttle_nominal_cruise_throttle,4,4
 521              		.comm	v_ctl_auto_throttle_cruise_throttle,4,4
 522              		.comm	v_ctl_auto_throttle_submode,1,1
 523              		.comm	v_ctl_climb_mode,1,1
 524              		.comm	v_ctl_climb_setpoint,4,4
 525              		.comm	v_ctl_altitude_max_climb,4,4
 526              		.comm	v_ctl_altitude_pre_climb_correction,4,4
 527              		.comm	v_ctl_altitude_error,4,4
 528              		.comm	v_ctl_altitude_pgain,4,4
 529              		.comm	v_ctl_altitude_pre_climb,4,4
 530              		.comm	v_ctl_altitude_setpoint,4,4
 531              		.comm	v_ctl_mode,1,1
 532              		.section	.bss.last_err.5764,"aw",%nobits
 533              		.align	2
 534              		.set	.LANCHOR0,. + 0
 537              	last_err.5764:
 538 0000 00000000 		.space	4
 539              		.ident	"GCC: (GNU Tools for ARM Embedded Processors) 4.8.3 20131129 (release) [ARM/embedded-4_8-br