   1              		.cpu arm7tdmi
   2              		.fpu softvfp
   3              		.eabi_attribute 20, 1
   4              		.eabi_attribute 21, 1
   5              		.eabi_attribute 23, 3
   6              		.eabi_attribute 24, 1
   7              		.eabi_attribute 25, 1
   8              		.eabi_attribute 26, 1
   9              		.eabi_attribute 30, 4
  10              		.eabi_attribute 34, 0
  11              		.eabi_attribute 18, 4
  12              		.file	"main_fbw.c"
  13              		.section	.text.inter_mcu_fill_fbw_state,"ax",%progbits
  14              		.align	2
  16              	inter_mcu_fill_fbw_state:
  17              		@ Function supports interworking.
  18              		@ args = 0, pretend = 0, frame = 0
  19              		@ frame_needed = 0, uses_anonymous_args = 0
  20              		@ link register save eliminated.
  21 0000 98309FE5 		ldr	r3, .L14
  22 0004 98109FE5 		ldr	r1, .L14+4
  23 0008 003093E5 		ldr	r3, [r3]
  24 000c 0020A0E3 		mov	r2, #0
  25              	.L3:
  26 0010 B200F1E1 		ldrh	r0, [r1, #2]!
  27 0014 B20083E1 		strh	r0, [r3, r2]	@ movhi
  28 0018 022082E2 		add	r2, r2, #2
  29 001c 0A0052E3 		cmp	r2, #10
  30 0020 FAFFFF1A 		bne	.L3
  31 0024 7C209FE5 		ldr	r2, .L14+8
  32 0028 0510D2E5 		ldrb	r1, [r2, #5]	@ zero_extendqisi2
  33 002c 0A10C3E5 		strb	r1, [r3, #10]
  34 0030 0010D2E5 		ldrb	r1, [r2]	@ zero_extendqisi2
  35 0034 012071E2 		rsbs	r2, r1, #1
  36 0038 0020A033 		movcc	r2, #0
  37 003c 020051E3 		cmp	r1, #2
  38 0040 0210A003 		moveq	r1, #2
  39 0044 0010A013 		movne	r1, #0
  40 0048 021081E1 		orr	r1, r1, r2
  41 004c 021281E1 		orr	r1, r1, r2, asl #4
  42 0050 54209FE5 		ldr	r2, .L14+12
  43 0054 0020D2E5 		ldrb	r2, [r2]	@ zero_extendqisi2
  44 0058 010052E3 		cmp	r2, #1
  45 005c 0400A003 		moveq	r0, #4
  46 0060 0000A013 		movne	r0, #0
  47 0064 020052E3 		cmp	r2, #2
  48 0068 001081E1 		orr	r1, r1, r0
  49 006c 0820A003 		moveq	r2, #8
  50 0070 0020A013 		movne	r2, #0
  51 0074 022081E1 		orr	r2, r1, r2
  52 0078 0B20C3E5 		strb	r2, [r3, #11]
  53 007c 2C209FE5 		ldr	r2, .L14+16
  54 0080 B010D2E1 		ldrh	r1, [r2]
  55 0084 042092E5 		ldr	r2, [r2, #4]
  56 0088 BE10C3E1 		strh	r1, [r3, #14]	@ movhi
  57 008c 102083E5 		str	r2, [r3, #16]
  58 0090 1C309FE5 		ldr	r3, .L14+20
  59 0094 0120A0E3 		mov	r2, #1
  60 0098 0020C3E5 		strb	r2, [r3]
  61 009c 1EFF2FE1 		bx	lr
  62              	.L15:
  63              		.align	2
  64              	.L14:
  65 00a0 00000000 		.word	fbw_state
  66 00a4 06000000 		.word	radio_control+6
  67 00a8 00000000 		.word	radio_control
  68 00ac 00000000 		.word	fbw_mode
  69 00b0 00000000 		.word	electrical
  70 00b4 00000000 		.word	inter_mcu_received_fbw
  72              		.section	.text.init_fbw,"ax",%progbits
  73              		.align	2
  74              		.global	init_fbw
  76              	init_fbw:
  77              		@ Function supports interworking.
  78              		@ args = 0, pretend = 0, frame = 0
  79              		@ frame_needed = 0, uses_anonymous_args = 0
  80 0000 38402DE9 		stmfd	sp!, {r3, r4, r5, lr}
  81 0004 FEFFFFEB 		bl	mcu_init
  82 0008 FEFFFFEB 		bl	electrical_init
  83 000c FEFFFFEB 		bl	actuators_init
  84 0010 0030A0E3 		mov	r3, #0
  85              	.L18:
  86 0014 AC209FE5 		ldr	r2, .L20
  87 0018 B21093E1 		ldrh	r1, [r3, r2]
  88 001c A8209FE5 		ldr	r2, .L20+4
  89 0020 B21083E1 		strh	r1, [r3, r2]	@ movhi
  90 0024 023083E2 		add	r3, r3, #2
  91 0028 0A0053E3 		cmp	r3, #10
  92 002c F8FFFF1A 		bne	.L18
  93 0030 98309FE5 		ldr	r3, .L20+8
  94 0034 0120A0E3 		mov	r2, #1
  95 0038 0020C3E5 		strb	r2, [r3]
  96 003c 90309FE5 		ldr	r3, .L20+12
  97 0040 0040A0E3 		mov	r4, #0
  98 0044 3C20A0E3 		mov	r2, #60
  99 0048 0250A0E3 		mov	r5, #2
 100 004c B220C3E1 		strh	r2, [r3, #2]	@ movhi
 101 0050 B840C3E1 		strh	r4, [r3, #8]	@ movhi
 102 0054 BA40C3E1 		strh	r4, [r3, #10]	@ movhi
 103 0058 BC40C3E1 		strh	r4, [r3, #12]	@ movhi
 104 005c BE40C3E1 		strh	r4, [r3, #14]	@ movhi
 105 0060 B041C3E1 		strh	r4, [r3, #16]	@ movhi
 106 0064 0050C3E5 		strb	r5, [r3]
 107 0068 0440C3E5 		strb	r4, [r3, #4]
 108 006c 0540C3E5 		strb	r4, [r3, #5]
 109 0070 0640C3E5 		strb	r4, [r3, #6]
 110 0074 FEFFFFEB 		bl	radio_control_impl_init
 111 0078 58309FE5 		ldr	r3, .L20+16
 112 007c 003093E5 		ldr	r3, [r3]
 113 0080 0B40C3E5 		strb	r4, [r3, #11]
 114 0084 0C40C3E5 		strb	r4, [r3, #12]
 115 0088 4C309FE5 		ldr	r3, .L20+20
 116 008c 0040C3E5 		strb	r4, [r3]
 117 0090 48309FE5 		ldr	r3, .L20+24
 118 0094 0410A0E1 		mov	r1, r4
 119 0098 44009FE5 		ldr	r0, .L20+28
 120 009c 0050C3E5 		strb	r5, [r3]
 121 00a0 FEFFFFEB 		bl	sys_time_register_timer
 122 00a4 3C309FE5 		ldr	r3, .L20+32
 123 00a8 0410A0E1 		mov	r1, r4
 124 00ac 0000C3E5 		strb	r0, [r3]
 125 00b0 34009FE5 		ldr	r0, .L20+36
 126 00b4 FEFFFFEB 		bl	sys_time_register_timer
 127 00b8 30309FE5 		ldr	r3, .L20+40
 128 00bc 0000C3E5 		strb	r0, [r3]
 129 00c0 3840BDE8 		ldmfd	sp!, {r3, r4, r5, lr}
 130 00c4 1EFF2FE1 		bx	lr
 131              	.L21:
 132              		.align	2
 133              	.L20:
 134 00c8 00000000 		.word	commands_failsafe
 135 00cc 00000000 		.word	commands
 136 00d0 00000000 		.word	.LANCHOR0
 137 00d4 00000000 		.word	radio_control
 138 00d8 00000000 		.word	fbw_state
 139 00dc 00000000 		.word	ap_ok
 140 00e0 00000000 		.word	fbw_mode
 141 00e4 8988883C 		.word	1015580809
 142 00e8 00000000 		.word	fbw_periodic_tid
 143 00ec CDCCCC3D 		.word	1036831949
 144 00f0 00000000 		.word	electrical_tid
 146              		.global	__aeabi_i2f
 147              		.global	__aeabi_f2d
 148              		.global	__aeabi_dmul
 149              		.global	__aeabi_d2f
 150              		.global	__aeabi_f2iz
 151              		.global	__aeabi_i2d
 152              		.global	__aeabi_dadd
 153              		.global	__aeabi_d2uiz
 154              		.section	.text.event_task_fbw,"ax",%progbits
 155              		.align	2
 156              		.global	event_task_fbw
 158              	event_task_fbw:
 159              		@ Function supports interworking.
 160              		@ args = 0, pretend = 0, frame = 16
 161              		@ frame_needed = 0, uses_anonymous_args = 0
 162 0000 FF412DE9 		stmfd	sp!, {r0, r1, r2, r3, r4, r5, r6, r7, r8, lr}
 163 0004 EC049FE5 		ldr	r0, .L78
 164 0008 0030D0E5 		ldrb	r3, [r0]	@ zero_extendqisi2
 165 000c 000053E3 		cmp	r3, #0
 166 0010 6500000A 		beq	.L23
 167 0014 E0349FE5 		ldr	r3, .L78+4
 168 0018 0620D3E5 		ldrb	r2, [r3, #6]	@ zero_extendqisi2
 169 001c 012082E2 		add	r2, r2, #1
 170 0020 0620C3E5 		strb	r2, [r3, #6]
 171 0024 0020A0E3 		mov	r2, #0
 172 0028 B220C3E1 		strh	r2, [r3, #2]	@ movhi
 173 002c 0420C3E5 		strb	r2, [r3, #4]
 174 0030 0020C3E5 		strb	r2, [r3]
 175 0034 C4249FE5 		ldr	r2, .L78+8
 176 0038 D010D2E1 		ldrsb	r1, [r2]
 177 003c 4BC0A0E3 		mov	ip, #75
 178 0040 9C0101E0 		mul	r1, ip, r1
 179 0044 0118A0E1 		mov	r1, r1, asl #16
 180 0048 21C8A0E1 		mov	ip, r1, lsr #16
 181 004c 4118A0E1 		mov	r1, r1, asr #16
 182 0050 960D51E3 		cmp	r1, #9600
 183 0054 961DA0C3 		movgt	r1, #9600
 184 0058 030000CA 		bgt	.L74
 185 005c 960D71E3 		cmn	r1, #9600
 186 0060 B8C0C3A1 		strgeh	ip, [r3, #8]	@ movhi
 187 0064 010000AA 		bge	.L25
 188 0068 94149FE5 		ldr	r1, .L78+12
 189              	.L74:
 190 006c B810C3E1 		strh	r1, [r3, #8]	@ movhi
 191              	.L25:
 192 0070 D110D2E1 		ldrsb	r1, [r2, #1]
 193 0074 4BC0A0E3 		mov	ip, #75
 194 0078 9C0101E0 		mul	r1, ip, r1
 195 007c 0118A0E1 		mov	r1, r1, asl #16
 196 0080 21C8A0E1 		mov	ip, r1, lsr #16
 197 0084 4118A0E1 		mov	r1, r1, asr #16
 198 0088 960D51E3 		cmp	r1, #9600
 199 008c 961DA0C3 		movgt	r1, #9600
 200 0090 030000CA 		bgt	.L75
 201 0094 960D71E3 		cmn	r1, #9600
 202 0098 BAC0C3A1 		strgeh	ip, [r3, #10]	@ movhi
 203 009c 010000AA 		bge	.L28
 204 00a0 5C149FE5 		ldr	r1, .L78+12
 205              	.L75:
 206 00a4 BA10C3E1 		strh	r1, [r3, #10]	@ movhi
 207              	.L28:
 208 00a8 D210D2E1 		ldrsb	r1, [r2, #2]
 209 00ac 4BC0A0E3 		mov	ip, #75
 210 00b0 9C0101E0 		mul	r1, ip, r1
 211 00b4 0118A0E1 		mov	r1, r1, asl #16
 212 00b8 21C8A0E1 		mov	ip, r1, lsr #16
 213 00bc 4118A0E1 		mov	r1, r1, asr #16
 214 00c0 960D51E3 		cmp	r1, #9600
 215 00c4 961DA0C3 		movgt	r1, #9600
 216 00c8 030000CA 		bgt	.L76
 217 00cc 960D71E3 		cmn	r1, #9600
 218 00d0 BCC0C3A1 		strgeh	ip, [r3, #12]	@ movhi
 219 00d4 010000AA 		bge	.L31
 220 00d8 24149FE5 		ldr	r1, .L78+12
 221              	.L76:
 222 00dc BC10C3E1 		strh	r1, [r3, #12]	@ movhi
 223              	.L31:
 224 00e0 D310D2E1 		ldrsb	r1, [r2, #3]
 225 00e4 4BC0A0E3 		mov	ip, #75
 226 00e8 9C0101E0 		mul	r1, ip, r1
 227 00ec 0118A0E1 		mov	r1, r1, asl #16
 228 00f0 21C8A0E1 		mov	ip, r1, lsr #16
 229 00f4 4118A0E1 		mov	r1, r1, asr #16
 230 00f8 960D51E3 		cmp	r1, #9600
 231 00fc 961DA0C3 		movgt	r1, #9600
 232 0100 030000CA 		bgt	.L77
 233 0104 000051E3 		cmp	r1, #0
 234 0108 BEC0C3A1 		strgeh	ip, [r3, #14]	@ movhi
 235 010c 010000AA 		bge	.L34
 236 0110 0010A0E3 		mov	r1, #0
 237              	.L77:
 238 0114 BE10C3E1 		strh	r1, [r3, #14]	@ movhi
 239              	.L34:
 240 0118 D420D2E1 		ldrsb	r2, [r2, #4]
 241 011c 961DA0E3 		mov	r1, #9600
 242 0120 012042E2 		sub	r2, r2, #1
 243 0124 910202E0 		mul	r2, r1, r2
 244 0128 0228A0E1 		mov	r2, r2, asl #16
 245 012c 22C8A0E1 		mov	ip, r2, lsr #16
 246 0130 4228A0E1 		mov	r2, r2, asr #16
 247 0134 010052E1 		cmp	r2, r1
 248 0138 B011C3C1 		strgth	r1, [r3, #16]	@ movhi
 249 013c 030000CA 		bgt	.L37
 250 0140 960D72E3 		cmn	r2, #9600
 251 0144 B8239FB5 		ldrlt	r2, .L78+12
 252 0148 B0C1C3A1 		strgeh	ip, [r3, #16]	@ movhi
 253 014c B021C3B1 		strlth	r2, [r3, #16]	@ movhi
 254              	.L37:
 255 0150 F031D3E1 		ldrsh	r3, [r3, #16]
 256 0154 4B0D73E3 		cmn	r3, #4800
 257 0158 0030A0B3 		movlt	r3, #0
 258 015c 0130A0A3 		movge	r3, #1
 259 0160 A0139FE5 		ldr	r1, .L78+16
 260 0164 000053E3 		cmp	r3, #0
 261 0168 8C239FE5 		ldr	r2, .L78+4
 262 016c 0030C1E5 		strb	r3, [r1]
 263 0170 0B00001A 		bne	.L39
 264 0174 90339FE5 		ldr	r3, .L78+20
 265 0178 BE10D2E1 		ldrh	r1, [r2, #14]
 266 017c B010C3E1 		strh	r1, [r3]	@ movhi
 267 0180 B810D2E1 		ldrh	r1, [r2, #8]
 268 0184 B610C3E1 		strh	r1, [r3, #6]	@ movhi
 269 0188 BA10D2E1 		ldrh	r1, [r2, #10]
 270 018c BC20D2E1 		ldrh	r2, [r2, #12]
 271 0190 B210C3E1 		strh	r1, [r3, #2]	@ movhi
 272 0194 B420C3E1 		strh	r2, [r3, #4]	@ movhi
 273 0198 70339FE5 		ldr	r3, .L78+24
 274 019c 0120A0E3 		mov	r2, #1
 275 01a0 0020C3E5 		strb	r2, [r3]
 276              	.L39:
 277 01a4 0030A0E3 		mov	r3, #0
 278 01a8 0030C0E5 		strb	r3, [r0]
 279              	.L23:
 280 01ac FEFFFFEB 		bl	i2c_event
 281 01b0 5C339FE5 		ldr	r3, .L78+28
 282 01b4 0020D3E5 		ldrb	r2, [r3]	@ zero_extendqisi2
 283 01b8 000052E3 		cmp	r2, #0
 284 01bc 2200000A 		beq	.L40
 285 01c0 0020A0E3 		mov	r2, #0
 286 01c4 0020C3E5 		strb	r2, [r3]
 287 01c8 48339FE5 		ldr	r3, .L78+32
 288 01cc 0020C3E5 		strb	r2, [r3]
 289 01d0 44339FE5 		ldr	r3, .L78+36
 290 01d4 0110A0E3 		mov	r1, #1
 291 01d8 0010C3E5 		strb	r1, [r3]
 292 01dc 3C339FE5 		ldr	r3, .L78+40
 293 01e0 002093E5 		ldr	r2, [r3]
 294 01e4 38339FE5 		ldr	r3, .L78+44
 295 01e8 BA00D2E1 		ldrh	r0, [r2, #10]
 296 01ec B000C3E1 		strh	r0, [r3]	@ movhi
 297 01f0 BC00D2E1 		ldrh	r0, [r2, #12]
 298 01f4 2C339FE5 		ldr	r3, .L78+48
 299 01f8 B000C3E1 		strh	r0, [r3]	@ movhi
 300 01fc 04339FE5 		ldr	r3, .L78+16
 301 0200 0000D3E5 		ldrb	r0, [r3]	@ zero_extendqisi2
 302 0204 020050E3 		cmp	r0, #2
 303 0208 0010C305 		streqb	r1, [r3]
 304 020c 0030D3E5 		ldrb	r3, [r3]	@ zero_extendqisi2
 305 0210 010053E3 		cmp	r3, #1
 306 0214 0400000A 		beq	.L42
 307              	.L43:
 308 0218 F0329FE5 		ldr	r3, .L78+24
 309 021c 0120A0E3 		mov	r2, #1
 310 0220 0020C3E5 		strb	r2, [r3]
 311 0224 FEFFFFEB 		bl	inter_mcu_fill_fbw_state
 312 0228 070000EA 		b	.L40
 313              	.L42:
 314 022c 0030A0E3 		mov	r3, #0
 315              	.L44:
 316 0230 B30092E1 		ldrh	r0, [r2, r3]
 317 0234 D0129FE5 		ldr	r1, .L78+20
 318 0238 B10083E1 		strh	r0, [r3, r1]	@ movhi
 319 023c 023083E2 		add	r3, r3, #2
 320 0240 0A0053E3 		cmp	r3, #10
 321 0244 F9FFFF1A 		bne	.L44
 322 0248 F2FFFFEA 		b	.L43
 323              	.L40:
 324 024c BC629FE5 		ldr	r6, .L78+24
 325 0250 0030D6E5 		ldrb	r3, [r6]	@ zero_extendqisi2
 326 0254 000053E3 		cmp	r3, #0
 327 0258 A300000A 		beq	.L22
 328 025c 0030A0E3 		mov	r3, #0
 329              	.L47:
 330 0260 A4229FE5 		ldr	r2, .L78+20
 331 0264 B21093E1 		ldrh	r1, [r3, r2]
 332 0268 04208DE2 		add	r2, sp, #4
 333 026c B21083E1 		strh	r1, [r3, r2]	@ movhi
 334 0270 023083E2 		add	r3, r3, #2
 335 0274 0A0053E3 		cmp	r3, #10
 336 0278 F8FFFF1A 		bne	.L47
 337 027c A0329FE5 		ldr	r3, .L78+44
 338 0280 F020D3E1 		ldrsh	r2, [r3]
 339 0284 0F0D72E3 		cmn	r2, #960
 340 0288 BA70DDE1 		ldrh	r7, [sp, #10]
 341 028c 98329FB5 		ldrlt	r3, .L78+52
 342 0290 040000BA 		blt	.L48
 343 0294 0F0D52E3 		cmp	r2, #960
 344 0298 0230A0B1 		movlt	r3, r2
 345 029c 0F3DA0A3 		movge	r3, #960
 346 02a0 0338A0E1 		mov	r3, r3, asl #16
 347 02a4 2338A0E1 		mov	r3, r3, lsr #16
 348              	.L48:
 349 02a8 077083E0 		add	r7, r3, r7
 350 02ac 74329FE5 		ldr	r3, .L78+48
 351 02b0 F020D3E1 		ldrsh	r2, [r3]
 352 02b4 0778A0E1 		mov	r7, r7, asl #16
 353 02b8 0F0D72E3 		cmn	r2, #960
 354 02bc 2778A0E1 		mov	r7, r7, lsr #16
 355 02c0 B680DDE1 		ldrh	r8, [sp, #6]
 356 02c4 60329FB5 		ldrlt	r3, .L78+52
 357 02c8 040000BA 		blt	.L49
 358 02cc 0F0D52E3 		cmp	r2, #960
 359 02d0 0230A0B1 		movlt	r3, r2
 360 02d4 0F3DA0A3 		movge	r3, #960
 361 02d8 0338A0E1 		mov	r3, r3, asl #16
 362 02dc 2338A0E1 		mov	r3, r3, lsr #16
 363              	.L49:
 364 02e0 F400DDE1 		ldrsh	r0, [sp, #4]
 365 02e4 088083E0 		add	r8, r3, r8
 366 02e8 FEFFFFEB 		bl	__aeabi_i2f
 367 02ec FEFFFFEB 		bl	__aeabi_f2d
 368 02f0 38229FE5 		ldr	r2, .L78+56
 369 02f4 38329FE5 		ldr	r3, .L78+60
 370 02f8 FEFFFFEB 		bl	__aeabi_dmul
 371 02fc FEFFFFEB 		bl	__aeabi_d2f
 372 0300 FEFFFFEB 		bl	__aeabi_f2iz
 373 0304 5D0E80E2 		add	r0, r0, #1488
 374 0308 0C0080E2 		add	r0, r0, #12
 375 030c 0888A0E1 		mov	r8, r8, asl #16
 376 0310 FA0F50E3 		cmp	r0, #1000
 377 0314 2888A0E1 		mov	r8, r8, lsr #16
 378 0318 FA0FA033 		movcc	r0, #1000
 379 031c 0300003A 		bcc	.L50
 380 0320 7D0E50E3 		cmp	r0, #2000
 381 0324 7D0EA023 		movcs	r0, #2000
 382 0328 0008A0E1 		mov	r0, r0, asl #16
 383 032c 2008A0E1 		mov	r0, r0, lsr #16
 384              	.L50:
 385 0330 00529FE5 		ldr	r5, .L78+64
 386 0334 B800C5E1 		strh	r0, [r5, #8]	@ movhi
 387 0338 FEFFFFEB 		bl	__aeabi_i2d
 388 033c F8219FE5 		ldr	r2, .L78+68
 389 0340 F8319FE5 		ldr	r3, .L78+72
 390 0344 FEFFFFEB 		bl	__aeabi_dmul
 391 0348 0020A0E3 		mov	r2, #0
 392 034c F0319FE5 		ldr	r3, .L78+76
 393 0350 FEFFFFEB 		bl	__aeabi_dmul
 394 0354 0020A0E3 		mov	r2, #0
 395 0358 E8319FE5 		ldr	r3, .L78+80
 396 035c FEFFFFEB 		bl	__aeabi_dadd
 397 0360 FEFFFFEB 		bl	__aeabi_d2uiz
 398 0364 E0419FE5 		ldr	r4, .L78+84
 399 0368 B800C4E1 		strh	r0, [r4, #8]	@ movhi
 400 036c FC00DDE1 		ldrsh	r0, [sp, #12]
 401 0370 FEFFFFEB 		bl	__aeabi_i2f
 402 0374 FEFFFFEB 		bl	__aeabi_f2d
 403 0378 B0219FE5 		ldr	r2, .L78+56
 404 037c B0319FE5 		ldr	r3, .L78+60
 405 0380 FEFFFFEB 		bl	__aeabi_dmul
 406 0384 FEFFFFEB 		bl	__aeabi_d2f
 407 0388 FEFFFFEB 		bl	__aeabi_f2iz
 408 038c 5D0E80E2 		add	r0, r0, #1488
 409 0390 0C0080E2 		add	r0, r0, #12
 410 0394 FA0F50E3 		cmp	r0, #1000
 411 0398 FA0FA033 		movcc	r0, #1000
 412 039c 0300003A 		bcc	.L51
 413 03a0 7D0E50E3 		cmp	r0, #2000
 414 03a4 7D0EA023 		movcs	r0, #2000
 415 03a8 0008A0E1 		mov	r0, r0, asl #16
 416 03ac 2008A0E1 		mov	r0, r0, lsr #16
 417              	.L51:
 418 03b0 BC00C5E1 		strh	r0, [r5, #12]	@ movhi
 419 03b4 FEFFFFEB 		bl	__aeabi_i2d
 420 03b8 7C219FE5 		ldr	r2, .L78+68
 421 03bc 7C319FE5 		ldr	r3, .L78+72
 422 03c0 FEFFFFEB 		bl	__aeabi_dmul
 423 03c4 0020A0E3 		mov	r2, #0
 424 03c8 74319FE5 		ldr	r3, .L78+76
 425 03cc FEFFFFEB 		bl	__aeabi_dmul
 426 03d0 0020A0E3 		mov	r2, #0
 427 03d4 6C319FE5 		ldr	r3, .L78+80
 428 03d8 FEFFFFEB 		bl	__aeabi_dadd
 429 03dc FEFFFFEB 		bl	__aeabi_d2uiz
 430 03e0 BC00C4E1 		strh	r0, [r4, #12]	@ movhi
 431 03e4 0808A0E1 		mov	r0, r8, asl #16
 432 03e8 4008A0E1 		mov	r0, r0, asr #16
 433 03ec FEFFFFEB 		bl	__aeabi_i2f
 434 03f0 FEFFFFEB 		bl	__aeabi_f2d
 435 03f4 34219FE5 		ldr	r2, .L78+56
 436 03f8 34319FE5 		ldr	r3, .L78+60
 437 03fc FEFFFFEB 		bl	__aeabi_dmul
 438 0400 FEFFFFEB 		bl	__aeabi_d2f
 439 0404 FEFFFFEB 		bl	__aeabi_f2iz
 440 0408 5D0E80E2 		add	r0, r0, #1488
 441 040c 0C0080E2 		add	r0, r0, #12
 442 0410 FA0F50E3 		cmp	r0, #1000
 443 0414 FA0FA033 		movcc	r0, #1000
 444 0418 0300003A 		bcc	.L52
 445 041c 7D0E50E3 		cmp	r0, #2000
 446 0420 7D0EA023 		movcs	r0, #2000
 447 0424 0008A0E1 		mov	r0, r0, asl #16
 448 0428 2008A0E1 		mov	r0, r0, lsr #16
 449              	.L52:
 450 042c BE00C5E1 		strh	r0, [r5, #14]	@ movhi
 451 0430 FEFFFFEB 		bl	__aeabi_i2d
 452 0434 00219FE5 		ldr	r2, .L78+68
 453 0438 00319FE5 		ldr	r3, .L78+72
 454 043c FEFFFFEB 		bl	__aeabi_dmul
 455 0440 0020A0E3 		mov	r2, #0
 456 0444 F8309FE5 		ldr	r3, .L78+76
 457 0448 FEFFFFEB 		bl	__aeabi_dmul
 458 044c 0020A0E3 		mov	r2, #0
 459 0450 F0309FE5 		ldr	r3, .L78+80
 460 0454 FEFFFFEB 		bl	__aeabi_dadd
 461 0458 FEFFFFEB 		bl	__aeabi_d2uiz
 462 045c BE00C4E1 		strh	r0, [r4, #14]	@ movhi
 463 0460 0708A0E1 		mov	r0, r7, asl #16
 464 0464 4008A0E1 		mov	r0, r0, asr #16
 465 0468 FEFFFFEB 		bl	__aeabi_i2f
 466 046c FEFFFFEB 		bl	__aeabi_f2d
 467 0470 D8309FE5 		ldr	r3, .L78+88
 468 0474 D8209FE5 		ldr	r2, .L78+92
 469 0478 FEFFFFEB 		bl	__aeabi_dmul
 470 047c FEFFFFEB 		bl	__aeabi_d2f
 471 0480 FEFFFFEB 		bl	__aeabi_f2iz
 472 0484 CC309FE5 		ldr	r3, .L78+96
 473 0488 5D0E80E2 		add	r0, r0, #1488
 474 048c 0C0080E2 		add	r0, r0, #12
 475 0490 030050E1 		cmp	r0, r3
 476 0494 C0009F95 		ldrls	r0, .L78+100
 477 0498 0400009A 		bls	.L53
 478 049c BC309FE5 		ldr	r3, .L78+104
 479 04a0 030050E1 		cmp	r0, r3
 480 04a4 0300A021 		movcs	r0, r3
 481 04a8 0008A0E1 		mov	r0, r0, asl #16
 482 04ac 2008A0E1 		mov	r0, r0, lsr #16
 483              	.L53:
 484 04b0 B400C5E1 		strh	r0, [r5, #4]	@ movhi
 485 04b4 FEFFFFEB 		bl	__aeabi_i2d
 486 04b8 7C209FE5 		ldr	r2, .L78+68
 487 04bc 7C309FE5 		ldr	r3, .L78+72
 488 04c0 FEFFFFEB 		bl	__aeabi_dmul
 489 04c4 0020A0E3 		mov	r2, #0
 490 04c8 74309FE5 		ldr	r3, .L78+76
 491 04cc FEFFFFEB 		bl	__aeabi_dmul
 492 04d0 70309FE5 		ldr	r3, .L78+80
 493 04d4 0020A0E3 		mov	r2, #0
 494 04d8 FEFFFFEB 		bl	__aeabi_dadd
 495 04dc FEFFFFEB 		bl	__aeabi_d2uiz
 496 04e0 0030A0E3 		mov	r3, #0
 497 04e4 B400C4E1 		strh	r0, [r4, #4]	@ movhi
 498 04e8 0030C6E5 		strb	r3, [r6]
 499              	.L22:
 500 04ec 10D08DE2 		add	sp, sp, #16
 501              		@ sp needed
 502 04f0 F041BDE8 		ldmfd	sp!, {r4, r5, r6, r7, r8, lr}
 503 04f4 1EFF2FE1 		bx	lr
 504              	.L79:
 505              		.align	2
 506              	.L78:
 507 04f8 00000000 		.word	rc_dl_frame_available
 508 04fc 00000000 		.word	radio_control
 509 0500 00000000 		.word	rc_dl_values
 510 0504 80DAFFFF 		.word	-9600
 511 0508 00000000 		.word	fbw_mode
 512 050c 00000000 		.word	commands
 513 0510 00000000 		.word	.LANCHOR0
 514 0514 00000000 		.word	inter_mcu_received_ap
 515 0518 00000000 		.word	time_since_last_ap
 516 051c 00000000 		.word	ap_ok
 517 0520 00000000 		.word	ap_state
 518 0524 00000000 		.word	command_roll_trim
 519 0528 00000000 		.word	command_pitch_trim
 520 052c 40FC0000 		.word	64576
 521 0530 E797AAAA 		.word	-1431660569
 522 0534 AAAAAA3F 		.word	1068149418
 523 0538 00000000 		.word	actuators
 524 053c 8DEDB5A0 		.word	-1598689907
 525 0540 F7C6B03E 		.word	1051772663
 526 0544 389C6C41 		.word	1097636920
 527 0548 0000E03F 		.word	1071644672
 528 054c 00000000 		.word	servos_values
 529 0550 5555A5BF 		.word	-1079683755
 530 0554 19685555 		.word	1431660569
 531 0558 4B040000 		.word	1099
 532 055c 4C040000 		.word	1100
 533 0560 6C070000 		.word	1900
 535              		.section	.text.periodic_task_fbw,"ax",%progbits
 536              		.align	2
 537              		.global	periodic_task_fbw
 539              	periodic_task_fbw:
 540              		@ Function supports interworking.
 541              		@ args = 0, pretend = 0, frame = 0
 542              		@ frame_needed = 0, uses_anonymous_args = 0
 543 0000 F84F2DE9 		stmfd	sp!, {r3, r4, r5, r6, r7, r8, r9, r10, fp, lr}
 544 0004 743D9FE5 		ldr	r3, .L139
 545 0008 0020D3E5 		ldrb	r2, [r3]	@ zero_extendqisi2
 546 000c 012082E2 		add	r2, r2, #1
 547 0010 FF2002E2 		and	r2, r2, #255
 548 0014 3B0052E3 		cmp	r2, #59
 549 0018 646D9FE5 		ldr	r6, .L139+4
 550 001c 0020A083 		movhi	r2, #0
 551 0020 0020C385 		strhib	r2, [r3]
 552 0024 0630D685 		ldrhib	r3, [r6, #6]	@ zero_extendqisi2
 553 0028 0020C395 		strlsb	r2, [r3]
 554 002c 0530C685 		strhib	r3, [r6, #5]
 555 0030 B230D6E1 		ldrh	r3, [r6, #2]
 556 0034 0620C685 		strhib	r2, [r6, #6]
 557 0038 3B0053E3 		cmp	r3, #59
 558 003c 402D9FE5 		ldr	r2, .L139+4
 559 0040 0210A083 		movhi	r1, #2
 560 0044 0010C285 		strhib	r1, [r2]
 561 0048 0400008A 		bhi	.L84
 562 004c 1D0053E3 		cmp	r3, #29
 563 0050 0110A083 		movhi	r1, #1
 564 0054 0010C285 		strhib	r1, [r2]
 565 0058 0F10A083 		movhi	r1, #15
 566 005c 0410C285 		strhib	r1, [r2, #4]
 567              	.L84:
 568 0060 208D9FE5 		ldr	r8, .L139+8
 569 0064 013083E2 		add	r3, r3, #1
 570 0068 B230C6E1 		strh	r3, [r6, #2]	@ movhi
 571 006c 0030D8E5 		ldrb	r3, [r8]	@ zero_extendqisi2
 572 0070 000053E3 		cmp	r3, #0
 573 0074 0400001A 		bne	.L85
 574 0078 043D9FE5 		ldr	r3, .L139+4
 575 007c 0030D3E5 		ldrb	r3, [r3]	@ zero_extendqisi2
 576 0080 020053E3 		cmp	r3, #2
 577 0084 0130A003 		moveq	r3, #1
 578 0088 0030C805 		streqb	r3, [r8]
 579              	.L85:
 580 008c F83C9FE5 		ldr	r3, .L139+12
 581 0090 0020D3E5 		ldrb	r2, [r3]	@ zero_extendqisi2
 582 0094 1D0052E3 		cmp	r2, #29
 583 0098 01208292 		addls	r2, r2, #1
 584 009c 0020C395 		strlsb	r2, [r3]
 585 00a0 E83C9F85 		ldrhi	r3, .L139+16
 586 00a4 0020A083 		movhi	r2, #0
 587 00a8 0020C385 		strhib	r2, [r3]
 588 00ac FEFFFF8B 		blhi	inter_mcu_fill_fbw_state
 589              	.L87:
 590 00b0 0030D8E5 		ldrb	r3, [r8]	@ zero_extendqisi2
 591 00b4 010053E3 		cmp	r3, #1
 592 00b8 1000001A 		bne	.L88
 593 00bc CC3C9FE5 		ldr	r3, .L139+16
 594 00c0 0030D3E5 		ldrb	r3, [r3]	@ zero_extendqisi2
 595 00c4 000053E3 		cmp	r3, #0
 596 00c8 0C00001A 		bne	.L88
 597 00cc B42C9FE5 		ldr	r2, .L139+8
 598 00d0 0210A0E3 		mov	r1, #2
 599 00d4 0010C2E5 		strb	r1, [r2]
 600              	.L90:
 601 00d8 B42C9FE5 		ldr	r2, .L139+20
 602 00dc B21093E1 		ldrh	r1, [r3, r2]
 603 00e0 B02C9FE5 		ldr	r2, .L139+24
 604 00e4 B21083E1 		strh	r1, [r3, r2]	@ movhi
 605 00e8 023083E2 		add	r3, r3, #2
 606 00ec 0A0053E3 		cmp	r3, #10
 607 00f0 F8FFFF1A 		bne	.L90
 608 00f4 A03C9FE5 		ldr	r3, .L139+28
 609 00f8 0120A0E3 		mov	r2, #1
 610 00fc 0020C3E5 		strb	r2, [r3]
 611              	.L88:
 612 0100 989C9FE5 		ldr	r9, .L139+32
 613 0104 0020D9E5 		ldrb	r2, [r9]	@ zero_extendqisi2
 614 0108 000052E3 		cmp	r2, #0
 615 010c 5D01001A 		bne	.L92
 616 0110 8C3C9FE5 		ldr	r3, .L139+36
 617 0114 0010D3E5 		ldrb	r1, [r3]	@ zero_extendqisi2
 618 0118 011081E2 		add	r1, r1, #1
 619 011c FF1001E2 		and	r1, r1, #255
 620 0120 0E0051E3 		cmp	r1, #14
 621 0124 0020C385 		strhib	r2, [r3]
 622 0128 782C9FE5 		ldr	r2, .L139+40
 623 012c 0010C395 		strlsb	r1, [r3]
 624 0130 0010D2E5 		ldrb	r1, [r2]	@ zero_extendqisi2
 625 0134 011081E2 		add	r1, r1, #1
 626 0138 FF1001E2 		and	r1, r1, #255
 627 013c 1D0051E3 		cmp	r1, #29
 628 0140 647C9FE5 		ldr	r7, .L139+44
 629 0144 0010A083 		movhi	r1, #0
 630 0148 0010C2E5 		strb	r1, [r2]
 631 014c 0020D7E5 		ldrb	r2, [r7]	@ zero_extendqisi2
 632 0150 012082E2 		add	r2, r2, #1
 633 0154 FF2002E2 		and	r2, r2, #255
 634 0158 00A0D3E5 		ldrb	r10, [r3]	@ zero_extendqisi2
 635 015c 770052E3 		cmp	r2, #119
 636 0160 0020A083 		movhi	r2, #0
 637 0164 00005AE3 		cmp	r10, #0
 638 0168 0020C7E5 		strb	r2, [r7]
 639 016c 4900001A 		bne	.L99
 640 0170 380C9FE5 		ldr	r0, .L139+48
 641 0174 1110A0E3 		mov	r1, #17
 642 0178 FEFFFFEB 		bl	uart_check_free_space
 643 017c 000050E3 		cmp	r0, #0
 644 0180 9900000A 		beq	.L104
 645 0184 283C9FE5 		ldr	r3, .L139+52
 646 0188 B020D3E1 		ldrh	r2, [r3]
 647 018c 112082E2 		add	r2, r2, #17
 648 0190 B020C3E1 		strh	r2, [r3]	@ movhi
 649 0194 1C3C9FE5 		ldr	r3, .L139+56
 650 0198 B020D3E1 		ldrh	r2, [r3]
 651 019c 0C0C9FE5 		ldr	r0, .L139+48
 652 01a0 012082E2 		add	r2, r2, #1
 653 01a4 9910A0E3 		mov	r1, #153
 654 01a8 B020C3E1 		strh	r2, [r3]	@ movhi
 655 01ac 085C9FE5 		ldr	r5, .L139+60
 656 01b0 FEFFFFEB 		bl	uart_transmit
 657 01b4 F40B9FE5 		ldr	r0, .L139+48
 658 01b8 1110A0E3 		mov	r1, #17
 659 01bc FEFFFFEB 		bl	uart_transmit
 660 01c0 F84B9FE5 		ldr	r4, .L139+64
 661 01c4 1330A0E3 		mov	r3, #19
 662 01c8 0030C5E5 		strb	r3, [r5]
 663 01cc DC0B9FE5 		ldr	r0, .L139+48
 664 01d0 2430A0E3 		mov	r3, #36
 665 01d4 0210A0E3 		mov	r1, #2
 666 01d8 0030C4E5 		strb	r3, [r4]
 667 01dc FEFFFFEB 		bl	uart_transmit
 668 01e0 0030D5E5 		ldrb	r3, [r5]	@ zero_extendqisi2
 669 01e4 0020D4E5 		ldrb	r2, [r4]	@ zero_extendqisi2
 670 01e8 663083E2 		add	r3, r3, #102
 671 01ec FF3003E2 		and	r3, r3, #255
 672 01f0 0030C5E5 		strb	r3, [r5]
 673 01f4 B40B9FE5 		ldr	r0, .L139+48
 674 01f8 023083E0 		add	r3, r3, r2
 675 01fc 6610A0E3 		mov	r1, #102
 676 0200 0030C4E5 		strb	r3, [r4]
 677 0204 FEFFFFEB 		bl	uart_transmit
 678 0208 0030D5E5 		ldrb	r3, [r5]	@ zero_extendqisi2
 679 020c 0020D4E5 		ldrb	r2, [r4]	@ zero_extendqisi2
 680 0210 053083E2 		add	r3, r3, #5
 681 0214 FF3003E2 		and	r3, r3, #255
 682 0218 0030C5E5 		strb	r3, [r5]
 683 021c 8C0B9FE5 		ldr	r0, .L139+48
 684 0220 023083E0 		add	r3, r3, r2
 685 0224 0510A0E3 		mov	r1, #5
 686 0228 0030C4E5 		strb	r3, [r4]
 687 022c FEFFFFEB 		bl	uart_transmit
 688              	.L102:
 689 0230 603B9FE5 		ldr	r3, .L139+24
 690 0234 0310DAE7 		ldrb	r1, [r10, r3]	@ zero_extendqisi2
 691 0238 03B08AE0 		add	fp, r10, r3
 692 023c 0030D5E5 		ldrb	r3, [r5]	@ zero_extendqisi2
 693 0240 0020D4E5 		ldrb	r2, [r4]	@ zero_extendqisi2
 694 0244 033081E0 		add	r3, r1, r3
 695 0248 FF3003E2 		and	r3, r3, #255
 696 024c 0030C5E5 		strb	r3, [r5]
 697 0250 580B9FE5 		ldr	r0, .L139+48
 698 0254 023083E0 		add	r3, r3, r2
 699 0258 0030C4E5 		strb	r3, [r4]
 700 025c FEFFFFEB 		bl	uart_transmit
 701 0260 0030D5E5 		ldrb	r3, [r5]	@ zero_extendqisi2
 702 0264 0110DBE5 		ldrb	r1, [fp, #1]	@ zero_extendqisi2
 703 0268 0020D4E5 		ldrb	r2, [r4]	@ zero_extendqisi2
 704 026c 033081E0 		add	r3, r1, r3
 705 0270 FF3003E2 		and	r3, r3, #255
 706 0274 0030C5E5 		strb	r3, [r5]
 707 0278 300B9FE5 		ldr	r0, .L139+48
 708 027c 023083E0 		add	r3, r3, r2
 709 0280 02A08AE2 		add	r10, r10, #2
 710 0284 0030C4E5 		strb	r3, [r4]
 711 0288 FEFFFFEB 		bl	uart_transmit
 712 028c 0A005AE3 		cmp	r10, #10
 713 0290 E6FFFF1A 		bne	.L102
 714 0294 4B0000EA 		b	.L134
 715              	.L99:
 716 0298 06005AE3 		cmp	r10, #6
 717 029c 5600001A 		bne	.L103
 718 02a0 080B9FE5 		ldr	r0, .L139+48
 719 02a4 1710A0E3 		mov	r1, #23
 720 02a8 FEFFFFEB 		bl	uart_check_free_space
 721 02ac 000050E3 		cmp	r0, #0
 722 02b0 4D00000A 		beq	.L104
 723 02b4 F83A9FE5 		ldr	r3, .L139+52
 724 02b8 B020D3E1 		ldrh	r2, [r3]
 725 02bc 172082E2 		add	r2, r2, #23
 726 02c0 B020C3E1 		strh	r2, [r3]	@ movhi
 727 02c4 EC3A9FE5 		ldr	r3, .L139+56
 728 02c8 B020D3E1 		ldrh	r2, [r3]
 729 02cc DC0A9FE5 		ldr	r0, .L139+48
 730 02d0 012082E2 		add	r2, r2, #1
 731 02d4 9910A0E3 		mov	r1, #153
 732 02d8 B020C3E1 		strh	r2, [r3]	@ movhi
 733 02dc D85A9FE5 		ldr	r5, .L139+60
 734 02e0 FEFFFFEB 		bl	uart_transmit
 735 02e4 C40A9FE5 		ldr	r0, .L139+48
 736 02e8 1710A0E3 		mov	r1, #23
 737 02ec FEFFFFEB 		bl	uart_transmit
 738 02f0 C84A9FE5 		ldr	r4, .L139+64
 739 02f4 1930A0E3 		mov	r3, #25
 740 02f8 0030C5E5 		strb	r3, [r5]
 741 02fc AC0A9FE5 		ldr	r0, .L139+48
 742 0300 3030A0E3 		mov	r3, #48
 743 0304 0210A0E3 		mov	r1, #2
 744 0308 0030C4E5 		strb	r3, [r4]
 745 030c FEFFFFEB 		bl	uart_transmit
 746 0310 0030D5E5 		ldrb	r3, [r5]	@ zero_extendqisi2
 747 0314 0020D4E5 		ldrb	r2, [r4]	@ zero_extendqisi2
 748 0318 693083E2 		add	r3, r3, #105
 749 031c FF3003E2 		and	r3, r3, #255
 750 0320 0030C5E5 		strb	r3, [r5]
 751 0324 840A9FE5 		ldr	r0, .L139+48
 752 0328 023083E0 		add	r3, r3, r2
 753 032c 6910A0E3 		mov	r1, #105
 754 0330 0030C4E5 		strb	r3, [r4]
 755 0334 FEFFFFEB 		bl	uart_transmit
 756 0338 0030D5E5 		ldrb	r3, [r5]	@ zero_extendqisi2
 757 033c 0020D4E5 		ldrb	r2, [r4]	@ zero_extendqisi2
 758 0340 083083E2 		add	r3, r3, #8
 759 0344 FF3003E2 		and	r3, r3, #255
 760 0348 0030C5E5 		strb	r3, [r5]
 761 034c 5C0A9FE5 		ldr	r0, .L139+48
 762 0350 023083E0 		add	r3, r3, r2
 763 0354 0810A0E3 		mov	r1, #8
 764 0358 0030C4E5 		strb	r3, [r4]
 765 035c FEFFFFEB 		bl	uart_transmit
 766 0360 00A0A0E3 		mov	r10, #0
 767              	.L106:
 768 0364 583A9FE5 		ldr	r3, .L139+68
 769 0368 0310DAE7 		ldrb	r1, [r10, r3]	@ zero_extendqisi2
 770 036c 03B08AE0 		add	fp, r10, r3
 771 0370 0030D5E5 		ldrb	r3, [r5]	@ zero_extendqisi2
 772 0374 0020D4E5 		ldrb	r2, [r4]	@ zero_extendqisi2
 773 0378 033081E0 		add	r3, r1, r3
 774 037c FF3003E2 		and	r3, r3, #255
 775 0380 0030C5E5 		strb	r3, [r5]
 776 0384 240A9FE5 		ldr	r0, .L139+48
 777 0388 023083E0 		add	r3, r3, r2
 778 038c 0030C4E5 		strb	r3, [r4]
 779 0390 FEFFFFEB 		bl	uart_transmit
 780 0394 0030D5E5 		ldrb	r3, [r5]	@ zero_extendqisi2
 781 0398 0110DBE5 		ldrb	r1, [fp, #1]	@ zero_extendqisi2
 782 039c 0020D4E5 		ldrb	r2, [r4]	@ zero_extendqisi2
 783 03a0 033081E0 		add	r3, r1, r3
 784 03a4 FF3003E2 		and	r3, r3, #255
 785 03a8 0030C5E5 		strb	r3, [r5]
 786 03ac FC099FE5 		ldr	r0, .L139+48
 787 03b0 023083E0 		add	r3, r3, r2
 788 03b4 02A08AE2 		add	r10, r10, #2
 789 03b8 0030C4E5 		strb	r3, [r4]
 790 03bc FEFFFFEB 		bl	uart_transmit
 791 03c0 10005AE3 		cmp	r10, #16
 792 03c4 E6FFFF1A 		bne	.L106
 793              	.L134:
 794 03c8 EC399FE5 		ldr	r3, .L139+60
 795 03cc DC099FE5 		ldr	r0, .L139+48
 796 03d0 0010D3E5 		ldrb	r1, [r3]	@ zero_extendqisi2
 797 03d4 FEFFFFEB 		bl	uart_transmit
 798 03d8 E0399FE5 		ldr	r3, .L139+64
 799 03dc CC099FE5 		ldr	r0, .L139+48
 800 03e0 0010D3E5 		ldrb	r1, [r3]	@ zero_extendqisi2
 801 03e4 FEFFFFEB 		bl	uart_transmit
 802 03e8 030000EA 		b	.L103
 803              	.L104:
 804 03ec D4399FE5 		ldr	r3, .L139+72
 805 03f0 0020D3E5 		ldrb	r2, [r3]	@ zero_extendqisi2
 806 03f4 012082E2 		add	r2, r2, #1
 807 03f8 0020C3E5 		strb	r2, [r3]
 808              	.L103:
 809 03fc 0030D7E5 		ldrb	r3, [r7]	@ zero_extendqisi2
 810 0400 120053E3 		cmp	r3, #18
 811 0404 9F00001A 		bne	.L92
 812 0408 A0099FE5 		ldr	r0, .L139+48
 813 040c 1110A0E3 		mov	r1, #17
 814 0410 FEFFFFEB 		bl	uart_check_free_space
 815 0414 000050E3 		cmp	r0, #0
 816 0418 9600000A 		beq	.L108
 817 041c 90399FE5 		ldr	r3, .L139+52
 818 0420 B020D3E1 		ldrh	r2, [r3]
 819 0424 112082E2 		add	r2, r2, #17
 820 0428 B020C3E1 		strh	r2, [r3]	@ movhi
 821 042c 84399FE5 		ldr	r3, .L139+56
 822 0430 B020D3E1 		ldrh	r2, [r3]
 823 0434 74099FE5 		ldr	r0, .L139+48
 824 0438 012082E2 		add	r2, r2, #1
 825 043c 9910A0E3 		mov	r1, #153
 826 0440 74599FE5 		ldr	r5, .L139+60
 827 0444 B020C3E1 		strh	r2, [r3]	@ movhi
 828 0448 FEFFFFEB 		bl	uart_transmit
 829 044c 5C099FE5 		ldr	r0, .L139+48
 830 0450 1110A0E3 		mov	r1, #17
 831 0454 64499FE5 		ldr	r4, .L139+64
 832 0458 FEFFFFEB 		bl	uart_transmit
 833 045c 1330A0E3 		mov	r3, #19
 834 0460 0030C5E5 		strb	r3, [r5]
 835 0464 44099FE5 		ldr	r0, .L139+48
 836 0468 2430A0E3 		mov	r3, #36
 837 046c 0210A0E3 		mov	r1, #2
 838 0470 0030C4E5 		strb	r3, [r4]
 839 0474 FEFFFFEB 		bl	uart_transmit
 840 0478 0030D5E5 		ldrb	r3, [r5]	@ zero_extendqisi2
 841 047c 0020D4E5 		ldrb	r2, [r4]	@ zero_extendqisi2
 842 0480 673083E2 		add	r3, r3, #103
 843 0484 FF3003E2 		and	r3, r3, #255
 844 0488 0030C5E5 		strb	r3, [r5]
 845 048c 1C099FE5 		ldr	r0, .L139+48
 846 0490 023083E0 		add	r3, r3, r2
 847 0494 6710A0E3 		mov	r1, #103
 848 0498 0030C4E5 		strb	r3, [r4]
 849 049c FEFFFFEB 		bl	uart_transmit
 850 04a0 0010D6E5 		ldrb	r1, [r6]	@ zero_extendqisi2
 851 04a4 0030D5E5 		ldrb	r3, [r5]	@ zero_extendqisi2
 852 04a8 0020D4E5 		ldrb	r2, [r4]	@ zero_extendqisi2
 853 04ac 033081E0 		add	r3, r1, r3
 854 04b0 FF3003E2 		and	r3, r3, #255
 855 04b4 0030C5E5 		strb	r3, [r5]
 856 04b8 F0089FE5 		ldr	r0, .L139+48
 857 04bc 023083E0 		add	r3, r3, r2
 858 04c0 0030C4E5 		strb	r3, [r4]
 859 04c4 FEFFFFEB 		bl	uart_transmit
 860 04c8 0510D6E5 		ldrb	r1, [r6, #5]	@ zero_extendqisi2
 861 04cc 0030D5E5 		ldrb	r3, [r5]	@ zero_extendqisi2
 862 04d0 0020D4E5 		ldrb	r2, [r4]	@ zero_extendqisi2
 863 04d4 033081E0 		add	r3, r1, r3
 864 04d8 FF3003E2 		and	r3, r3, #255
 865 04dc 0030C5E5 		strb	r3, [r5]
 866 04e0 C8089FE5 		ldr	r0, .L139+48
 867 04e4 023083E0 		add	r3, r3, r2
 868 04e8 0030C4E5 		strb	r3, [r4]
 869 04ec FEFFFFEB 		bl	uart_transmit
 870 04f0 0010D8E5 		ldrb	r1, [r8]	@ zero_extendqisi2
 871 04f4 0030D5E5 		ldrb	r3, [r5]	@ zero_extendqisi2
 872 04f8 0020D4E5 		ldrb	r2, [r4]	@ zero_extendqisi2
 873 04fc 033081E0 		add	r3, r1, r3
 874 0500 C4789FE5 		ldr	r7, .L139+76
 875 0504 FF3003E2 		and	r3, r3, #255
 876 0508 0030C5E5 		strb	r3, [r5]
 877 050c 9C089FE5 		ldr	r0, .L139+48
 878 0510 023083E0 		add	r3, r3, r2
 879 0514 0030C4E5 		strb	r3, [r4]
 880 0518 FEFFFFEB 		bl	uart_transmit
 881 051c 0010D7E5 		ldrb	r1, [r7]	@ zero_extendqisi2
 882 0520 0030D5E5 		ldrb	r3, [r5]	@ zero_extendqisi2
 883 0524 0020D4E5 		ldrb	r2, [r4]	@ zero_extendqisi2
 884 0528 033081E0 		add	r3, r1, r3
 885 052c FF3003E2 		and	r3, r3, #255
 886 0530 0030C5E5 		strb	r3, [r5]
 887 0534 74089FE5 		ldr	r0, .L139+48
 888 0538 023083E0 		add	r3, r3, r2
 889 053c 0030C4E5 		strb	r3, [r4]
 890 0540 FEFFFFEB 		bl	uart_transmit
 891 0544 0110D7E5 		ldrb	r1, [r7, #1]	@ zero_extendqisi2
 892 0548 0030D5E5 		ldrb	r3, [r5]	@ zero_extendqisi2
 893 054c 0020D4E5 		ldrb	r2, [r4]	@ zero_extendqisi2
 894 0550 033081E0 		add	r3, r1, r3
 895 0554 FF3003E2 		and	r3, r3, #255
 896 0558 0030C5E5 		strb	r3, [r5]
 897 055c 4C089FE5 		ldr	r0, .L139+48
 898 0560 023083E0 		add	r3, r3, r2
 899 0564 0030C4E5 		strb	r3, [r4]
 900 0568 FEFFFFEB 		bl	uart_transmit
 901 056c 0410D7E5 		ldrb	r1, [r7, #4]	@ zero_extendqisi2
 902 0570 0030D5E5 		ldrb	r3, [r5]	@ zero_extendqisi2
 903 0574 0020D4E5 		ldrb	r2, [r4]	@ zero_extendqisi2
 904 0578 033081E0 		add	r3, r1, r3
 905 057c FF3003E2 		and	r3, r3, #255
 906 0580 0030C5E5 		strb	r3, [r5]
 907 0584 24089FE5 		ldr	r0, .L139+48
 908 0588 023083E0 		add	r3, r3, r2
 909 058c 0030C4E5 		strb	r3, [r4]
 910 0590 FEFFFFEB 		bl	uart_transmit
 911 0594 0510D7E5 		ldrb	r1, [r7, #5]	@ zero_extendqisi2
 912 0598 0030D5E5 		ldrb	r3, [r5]	@ zero_extendqisi2
 913 059c 0020D4E5 		ldrb	r2, [r4]	@ zero_extendqisi2
 914 05a0 033081E0 		add	r3, r1, r3
 915 05a4 FF3003E2 		and	r3, r3, #255
 916 05a8 0030C5E5 		strb	r3, [r5]
 917 05ac FC079FE5 		ldr	r0, .L139+48
 918 05b0 023083E0 		add	r3, r3, r2
 919 05b4 0030C4E5 		strb	r3, [r4]
 920 05b8 FEFFFFEB 		bl	uart_transmit
 921 05bc 0610D7E5 		ldrb	r1, [r7, #6]	@ zero_extendqisi2
 922 05c0 0030D5E5 		ldrb	r3, [r5]	@ zero_extendqisi2
 923 05c4 0020D4E5 		ldrb	r2, [r4]	@ zero_extendqisi2
 924 05c8 033081E0 		add	r3, r1, r3
 925 05cc FF3003E2 		and	r3, r3, #255
 926 05d0 0030C5E5 		strb	r3, [r5]
 927 05d4 D4079FE5 		ldr	r0, .L139+48
 928 05d8 023083E0 		add	r3, r3, r2
 929 05dc 0030C4E5 		strb	r3, [r4]
 930 05e0 FEFFFFEB 		bl	uart_transmit
 931 05e4 0710D7E5 		ldrb	r1, [r7, #7]	@ zero_extendqisi2
 932 05e8 0030D5E5 		ldrb	r3, [r5]	@ zero_extendqisi2
 933 05ec 0020D4E5 		ldrb	r2, [r4]	@ zero_extendqisi2
 934 05f0 033081E0 		add	r3, r1, r3
 935 05f4 FF3003E2 		and	r3, r3, #255
 936 05f8 0030C5E5 		strb	r3, [r5]
 937 05fc AC079FE5 		ldr	r0, .L139+48
 938 0600 023083E0 		add	r3, r3, r2
 939 0604 0030C4E5 		strb	r3, [r4]
 940 0608 FEFFFFEB 		bl	uart_transmit
 941 060c 0210D6E5 		ldrb	r1, [r6, #2]	@ zero_extendqisi2
 942 0610 0030D5E5 		ldrb	r3, [r5]	@ zero_extendqisi2
 943 0614 0020D4E5 		ldrb	r2, [r4]	@ zero_extendqisi2
 944 0618 033081E0 		add	r3, r1, r3
 945 061c FF3003E2 		and	r3, r3, #255
 946 0620 0030C5E5 		strb	r3, [r5]
 947 0624 84079FE5 		ldr	r0, .L139+48
 948 0628 023083E0 		add	r3, r3, r2
 949 062c 0030C4E5 		strb	r3, [r4]
 950 0630 FEFFFFEB 		bl	uart_transmit
 951 0634 0310D6E5 		ldrb	r1, [r6, #3]	@ zero_extendqisi2
 952 0638 0030D5E5 		ldrb	r3, [r5]	@ zero_extendqisi2
 953 063c 0020D4E5 		ldrb	r2, [r4]	@ zero_extendqisi2
 954 0640 033081E0 		add	r3, r1, r3
 955 0644 FF3003E2 		and	r3, r3, #255
 956 0648 0030C5E5 		strb	r3, [r5]
 957 064c 5C079FE5 		ldr	r0, .L139+48
 958 0650 023083E0 		add	r3, r3, r2
 959 0654 0030C4E5 		strb	r3, [r4]
 960 0658 FEFFFFEB 		bl	uart_transmit
 961 065c 0010D5E5 		ldrb	r1, [r5]	@ zero_extendqisi2
 962 0660 48079FE5 		ldr	r0, .L139+48
 963 0664 FEFFFFEB 		bl	uart_transmit
 964 0668 40079FE5 		ldr	r0, .L139+48
 965 066c 0010D4E5 		ldrb	r1, [r4]	@ zero_extendqisi2
 966 0670 FEFFFFEB 		bl	uart_transmit
 967 0674 030000EA 		b	.L92
 968              	.L108:
 969 0678 48379FE5 		ldr	r3, .L139+72
 970 067c 0020D3E5 		ldrb	r2, [r3]	@ zero_extendqisi2
 971 0680 012082E2 		add	r2, r2, #1
 972 0684 0020C3E5 		strb	r2, [r3]
 973              	.L92:
 974 0688 0030D9E5 		ldrb	r3, [r9]	@ zero_extendqisi2
 975 068c 010053E3 		cmp	r3, #1
 976 0690 B801001A 		bne	.L80
 977 0694 34379FE5 		ldr	r3, .L139+80
 978 0698 0020D3E5 		ldrb	r2, [r3]	@ zero_extendqisi2
 979 069c 012082E2 		add	r2, r2, #1
 980 06a0 FF2002E2 		and	r2, r2, #255
 981 06a4 1D0052E3 		cmp	r2, #29
 982 06a8 24779FE5 		ldr	r7, .L139+84
 983 06ac 0020A083 		movhi	r2, #0
 984 06b0 0020C3E5 		strb	r2, [r3]
 985 06b4 0020D7E5 		ldrb	r2, [r7]	@ zero_extendqisi2
 986 06b8 012082E2 		add	r2, r2, #1
 987 06bc FF2002E2 		and	r2, r2, #255
 988 06c0 3B0052E3 		cmp	r2, #59
 989 06c4 0C979FE5 		ldr	r9, .L139+88
 990 06c8 0020A083 		movhi	r2, #0
 991 06cc 0020C7E5 		strb	r2, [r7]
 992 06d0 B020D9E1 		ldrh	r2, [r9]
 993 06d4 012082E2 		add	r2, r2, #1
 994 06d8 0228A0E1 		mov	r2, r2, asl #16
 995 06dc 2228A0E1 		mov	r2, r2, lsr #16
 996 06e0 0030D3E5 		ldrb	r3, [r3]	@ zero_extendqisi2
 997 06e4 4B0F52E3 		cmp	r2, #300
 998 06e8 0020A023 		movcs	r2, #0
 999 06ec 000053E3 		cmp	r3, #0
 1000 06f0 B020C9E1 		strh	r2, [r9]	@ movhi
 1001 06f4 4900001A 		bne	.L117
 1002 06f8 B0069FE5 		ldr	r0, .L139+48
 1003 06fc 1110A0E3 		mov	r1, #17
 1004 0700 FEFFFFEB 		bl	uart_check_free_space
 1005 0704 000050E3 		cmp	r0, #0
 1006 0708 9900000A 		beq	.L122
 1007 070c A0369FE5 		ldr	r3, .L139+52
 1008 0710 B020D3E1 		ldrh	r2, [r3]
 1009 0714 112082E2 		add	r2, r2, #17
 1010 0718 B020C3E1 		strh	r2, [r3]	@ movhi
 1011 071c 94369FE5 		ldr	r3, .L139+56
 1012 0720 B020D3E1 		ldrh	r2, [r3]
 1013 0724 84069FE5 		ldr	r0, .L139+48
 1014 0728 012082E2 		add	r2, r2, #1
 1015 072c 9910A0E3 		mov	r1, #153
 1016 0730 B020C3E1 		strh	r2, [r3]	@ movhi
 1017 0734 80A69FE5 		ldr	r10, .L139+60
 1018 0738 FEFFFFEB 		bl	uart_transmit
 1019 073c 6C069FE5 		ldr	r0, .L139+48
 1020 0740 1110A0E3 		mov	r1, #17
 1021 0744 FEFFFFEB 		bl	uart_transmit
 1022 0748 70569FE5 		ldr	r5, .L139+64
 1023 074c 1330A0E3 		mov	r3, #19
 1024 0750 0030CAE5 		strb	r3, [r10]
 1025 0754 54069FE5 		ldr	r0, .L139+48
 1026 0758 2430A0E3 		mov	r3, #36
 1027 075c 0210A0E3 		mov	r1, #2
 1028 0760 0030C5E5 		strb	r3, [r5]
 1029 0764 FEFFFFEB 		bl	uart_transmit
 1030 0768 0030DAE5 		ldrb	r3, [r10]	@ zero_extendqisi2
 1031 076c 0020D5E5 		ldrb	r2, [r5]	@ zero_extendqisi2
 1032 0770 653083E2 		add	r3, r3, #101
 1033 0774 FF3003E2 		and	r3, r3, #255
 1034 0778 0030CAE5 		strb	r3, [r10]
 1035 077c 2C069FE5 		ldr	r0, .L139+48
 1036 0780 023083E0 		add	r3, r3, r2
 1037 0784 6510A0E3 		mov	r1, #101
 1038 0788 0030C5E5 		strb	r3, [r5]
 1039 078c FEFFFFEB 		bl	uart_transmit
 1040 0790 0030DAE5 		ldrb	r3, [r10]	@ zero_extendqisi2
 1041 0794 0020D5E5 		ldrb	r2, [r5]	@ zero_extendqisi2
 1042 0798 053083E2 		add	r3, r3, #5
 1043 079c FF3003E2 		and	r3, r3, #255
 1044 07a0 0030CAE5 		strb	r3, [r10]
 1045 07a4 04069FE5 		ldr	r0, .L139+48
 1046 07a8 023083E0 		add	r3, r3, r2
 1047 07ac 0510A0E3 		mov	r1, #5
 1048 07b0 0030C5E5 		strb	r3, [r5]
 1049 07b4 FEFFFFEB 		bl	uart_transmit
 1050 07b8 1C469FE5 		ldr	r4, .L139+92
 1051 07bc 0AB084E2 		add	fp, r4, #10
 1052              	.L120:
 1053 07c0 0010D4E5 		ldrb	r1, [r4]	@ zero_extendqisi2
 1054 07c4 0030DAE5 		ldrb	r3, [r10]	@ zero_extendqisi2
 1055 07c8 0020D5E5 		ldrb	r2, [r5]	@ zero_extendqisi2
 1056 07cc 033081E0 		add	r3, r1, r3
 1057 07d0 FF3003E2 		and	r3, r3, #255
 1058 07d4 0030CAE5 		strb	r3, [r10]
 1059 07d8 D0059FE5 		ldr	r0, .L139+48
 1060 07dc 023083E0 		add	r3, r3, r2
 1061 07e0 0030C5E5 		strb	r3, [r5]
 1062 07e4 FEFFFFEB 		bl	uart_transmit
 1063 07e8 0110D4E5 		ldrb	r1, [r4, #1]	@ zero_extendqisi2
 1064 07ec 0030DAE5 		ldrb	r3, [r10]	@ zero_extendqisi2
 1065 07f0 0020D5E5 		ldrb	r2, [r5]	@ zero_extendqisi2
 1066 07f4 033081E0 		add	r3, r1, r3
 1067 07f8 FF3003E2 		and	r3, r3, #255
 1068 07fc 0030CAE5 		strb	r3, [r10]
 1069 0800 A8059FE5 		ldr	r0, .L139+48
 1070 0804 023083E0 		add	r3, r3, r2
 1071 0808 024084E2 		add	r4, r4, #2
 1072 080c 0030C5E5 		strb	r3, [r5]
 1073 0810 FEFFFFEB 		bl	uart_transmit
 1074 0814 0B0054E1 		cmp	r4, fp
 1075 0818 E8FFFF1A 		bne	.L120
 1076 081c 4B0000EA 		b	.L138
 1077              	.L117:
 1078 0820 060053E3 		cmp	r3, #6
 1079 0824 5600001A 		bne	.L121
 1080 0828 80059FE5 		ldr	r0, .L139+48
 1081 082c 1110A0E3 		mov	r1, #17
 1082 0830 FEFFFFEB 		bl	uart_check_free_space
 1083 0834 000050E3 		cmp	r0, #0
 1084 0838 4D00000A 		beq	.L122
 1085 083c 70359FE5 		ldr	r3, .L139+52
 1086 0840 B020D3E1 		ldrh	r2, [r3]
 1087 0844 112082E2 		add	r2, r2, #17
 1088 0848 B020C3E1 		strh	r2, [r3]	@ movhi
 1089 084c 64359FE5 		ldr	r3, .L139+56
 1090 0850 B020D3E1 		ldrh	r2, [r3]
 1091 0854 54059FE5 		ldr	r0, .L139+48
 1092 0858 012082E2 		add	r2, r2, #1
 1093 085c 9910A0E3 		mov	r1, #153
 1094 0860 B020C3E1 		strh	r2, [r3]	@ movhi
 1095 0864 50559FE5 		ldr	r5, .L139+60
 1096 0868 FEFFFFEB 		bl	uart_transmit
 1097 086c 3C059FE5 		ldr	r0, .L139+48
 1098 0870 1110A0E3 		mov	r1, #17
 1099 0874 FEFFFFEB 		bl	uart_transmit
 1100 0878 40459FE5 		ldr	r4, .L139+64
 1101 087c 1330A0E3 		mov	r3, #19
 1102 0880 0030C5E5 		strb	r3, [r5]
 1103 0884 24059FE5 		ldr	r0, .L139+48
 1104 0888 2430A0E3 		mov	r3, #36
 1105 088c 0210A0E3 		mov	r1, #2
 1106 0890 0030C4E5 		strb	r3, [r4]
 1107 0894 FEFFFFEB 		bl	uart_transmit
 1108 0898 0030D5E5 		ldrb	r3, [r5]	@ zero_extendqisi2
 1109 089c 0020D4E5 		ldrb	r2, [r4]	@ zero_extendqisi2
 1110 08a0 663083E2 		add	r3, r3, #102
 1111 08a4 FF3003E2 		and	r3, r3, #255
 1112 08a8 0030C5E5 		strb	r3, [r5]
 1113 08ac FC049FE5 		ldr	r0, .L139+48
 1114 08b0 023083E0 		add	r3, r3, r2
 1115 08b4 6610A0E3 		mov	r1, #102
 1116 08b8 0030C4E5 		strb	r3, [r4]
 1117 08bc FEFFFFEB 		bl	uart_transmit
 1118 08c0 0030D5E5 		ldrb	r3, [r5]	@ zero_extendqisi2
 1119 08c4 0020D4E5 		ldrb	r2, [r4]	@ zero_extendqisi2
 1120 08c8 053083E2 		add	r3, r3, #5
 1121 08cc FF3003E2 		and	r3, r3, #255
 1122 08d0 0030C5E5 		strb	r3, [r5]
 1123 08d4 D4049FE5 		ldr	r0, .L139+48
 1124 08d8 023083E0 		add	r3, r3, r2
 1125 08dc 0510A0E3 		mov	r1, #5
 1126 08e0 0030C4E5 		strb	r3, [r4]
 1127 08e4 FEFFFFEB 		bl	uart_transmit
 1128 08e8 00A0A0E3 		mov	r10, #0
 1129              	.L124:
 1130 08ec A4349FE5 		ldr	r3, .L139+24
 1131 08f0 0310DAE7 		ldrb	r1, [r10, r3]	@ zero_extendqisi2
 1132 08f4 03B08AE0 		add	fp, r10, r3
 1133 08f8 0030D5E5 		ldrb	r3, [r5]	@ zero_extendqisi2
 1134 08fc 0020D4E5 		ldrb	r2, [r4]	@ zero_extendqisi2
 1135 0900 033081E0 		add	r3, r1, r3
 1136 0904 FF3003E2 		and	r3, r3, #255
 1137 0908 0030C5E5 		strb	r3, [r5]
 1138 090c 9C049FE5 		ldr	r0, .L139+48
 1139 0910 023083E0 		add	r3, r3, r2
 1140 0914 0030C4E5 		strb	r3, [r4]
 1141 0918 FEFFFFEB 		bl	uart_transmit
 1142 091c 0030D5E5 		ldrb	r3, [r5]	@ zero_extendqisi2
 1143 0920 0110DBE5 		ldrb	r1, [fp, #1]	@ zero_extendqisi2
 1144 0924 0020D4E5 		ldrb	r2, [r4]	@ zero_extendqisi2
 1145 0928 033081E0 		add	r3, r1, r3
 1146 092c FF3003E2 		and	r3, r3, #255
 1147 0930 0030C5E5 		strb	r3, [r5]
 1148 0934 74049FE5 		ldr	r0, .L139+48
 1149 0938 023083E0 		add	r3, r3, r2
 1150 093c 02A08AE2 		add	r10, r10, #2
 1151 0940 0030C4E5 		strb	r3, [r4]
 1152 0944 FEFFFFEB 		bl	uart_transmit
 1153 0948 0A005AE3 		cmp	r10, #10
 1154 094c E6FFFF1A 		bne	.L124
 1155              	.L138:
 1156 0950 64349FE5 		ldr	r3, .L139+60
 1157 0954 54049FE5 		ldr	r0, .L139+48
 1158 0958 0010D3E5 		ldrb	r1, [r3]	@ zero_extendqisi2
 1159 095c FEFFFFEB 		bl	uart_transmit
 1160 0960 58349FE5 		ldr	r3, .L139+64
 1161 0964 44049FE5 		ldr	r0, .L139+48
 1162 0968 0010D3E5 		ldrb	r1, [r3]	@ zero_extendqisi2
 1163 096c FEFFFFEB 		bl	uart_transmit
 1164 0970 030000EA 		b	.L121
 1165              	.L122:
 1166 0974 4C349FE5 		ldr	r3, .L139+72
 1167 0978 0020D3E5 		ldrb	r2, [r3]	@ zero_extendqisi2
 1168 097c 012082E2 		add	r2, r2, #1
 1169 0980 0020C3E5 		strb	r2, [r3]
 1170              	.L121:
 1171 0984 0030D7E5 		ldrb	r3, [r7]	@ zero_extendqisi2
 1172 0988 0C0053E3 		cmp	r3, #12
 1173 098c 9F00001A 		bne	.L125
 1174 0990 18049FE5 		ldr	r0, .L139+48
 1175 0994 1110A0E3 		mov	r1, #17
 1176 0998 FEFFFFEB 		bl	uart_check_free_space
 1177 099c 000050E3 		cmp	r0, #0
 1178 09a0 9600000A 		beq	.L126
 1179 09a4 08349FE5 		ldr	r3, .L139+52
 1180 09a8 B020D3E1 		ldrh	r2, [r3]
 1181 09ac 112082E2 		add	r2, r2, #17
 1182 09b0 B020C3E1 		strh	r2, [r3]	@ movhi
 1183 09b4 FC339FE5 		ldr	r3, .L139+56
 1184 09b8 B020D3E1 		ldrh	r2, [r3]
 1185 09bc EC039FE5 		ldr	r0, .L139+48
 1186 09c0 012082E2 		add	r2, r2, #1
 1187 09c4 9910A0E3 		mov	r1, #153
 1188 09c8 EC539FE5 		ldr	r5, .L139+60
 1189 09cc B020C3E1 		strh	r2, [r3]	@ movhi
 1190 09d0 FEFFFFEB 		bl	uart_transmit
 1191 09d4 D4039FE5 		ldr	r0, .L139+48
 1192 09d8 1110A0E3 		mov	r1, #17
 1193 09dc DC439FE5 		ldr	r4, .L139+64
 1194 09e0 FEFFFFEB 		bl	uart_transmit
 1195 09e4 1330A0E3 		mov	r3, #19
 1196 09e8 0030C5E5 		strb	r3, [r5]
 1197 09ec BC039FE5 		ldr	r0, .L139+48
 1198 09f0 2430A0E3 		mov	r3, #36
 1199 09f4 0210A0E3 		mov	r1, #2
 1200 09f8 0030C4E5 		strb	r3, [r4]
 1201 09fc FEFFFFEB 		bl	uart_transmit
 1202 0a00 0030D5E5 		ldrb	r3, [r5]	@ zero_extendqisi2
 1203 0a04 0020D4E5 		ldrb	r2, [r4]	@ zero_extendqisi2
 1204 0a08 673083E2 		add	r3, r3, #103
 1205 0a0c FF3003E2 		and	r3, r3, #255
 1206 0a10 0030C5E5 		strb	r3, [r5]
 1207 0a14 94039FE5 		ldr	r0, .L139+48
 1208 0a18 023083E0 		add	r3, r3, r2
 1209 0a1c 6710A0E3 		mov	r1, #103
 1210 0a20 0030C4E5 		strb	r3, [r4]
 1211 0a24 FEFFFFEB 		bl	uart_transmit
 1212 0a28 0010D6E5 		ldrb	r1, [r6]	@ zero_extendqisi2
 1213 0a2c 0030D5E5 		ldrb	r3, [r5]	@ zero_extendqisi2
 1214 0a30 0020D4E5 		ldrb	r2, [r4]	@ zero_extendqisi2
 1215 0a34 033081E0 		add	r3, r1, r3
 1216 0a38 FF3003E2 		and	r3, r3, #255
 1217 0a3c 0030C5E5 		strb	r3, [r5]
 1218 0a40 68039FE5 		ldr	r0, .L139+48
 1219 0a44 023083E0 		add	r3, r3, r2
 1220 0a48 0030C4E5 		strb	r3, [r4]
 1221 0a4c FEFFFFEB 		bl	uart_transmit
 1222 0a50 0510D6E5 		ldrb	r1, [r6, #5]	@ zero_extendqisi2
 1223 0a54 0030D5E5 		ldrb	r3, [r5]	@ zero_extendqisi2
 1224 0a58 0020D4E5 		ldrb	r2, [r4]	@ zero_extendqisi2
 1225 0a5c 033081E0 		add	r3, r1, r3
 1226 0a60 FF3003E2 		and	r3, r3, #255
 1227 0a64 0030C5E5 		strb	r3, [r5]
 1228 0a68 40039FE5 		ldr	r0, .L139+48
 1229 0a6c 023083E0 		add	r3, r3, r2
 1230 0a70 0030C4E5 		strb	r3, [r4]
 1231 0a74 FEFFFFEB 		bl	uart_transmit
 1232 0a78 0010D8E5 		ldrb	r1, [r8]	@ zero_extendqisi2
 1233 0a7c 0030D5E5 		ldrb	r3, [r5]	@ zero_extendqisi2
 1234 0a80 0020D4E5 		ldrb	r2, [r4]	@ zero_extendqisi2
 1235 0a84 033081E0 		add	r3, r1, r3
 1236 0a88 3C739FE5 		ldr	r7, .L139+76
 1237 0a8c FF3003E2 		and	r3, r3, #255
 1238 0a90 0030C5E5 		strb	r3, [r5]
 1239 0a94 14039FE5 		ldr	r0, .L139+48
 1240 0a98 023083E0 		add	r3, r3, r2
 1241 0a9c 0030C4E5 		strb	r3, [r4]
 1242 0aa0 FEFFFFEB 		bl	uart_transmit
 1243 0aa4 0010D7E5 		ldrb	r1, [r7]	@ zero_extendqisi2
 1244 0aa8 0030D5E5 		ldrb	r3, [r5]	@ zero_extendqisi2
 1245 0aac 0020D4E5 		ldrb	r2, [r4]	@ zero_extendqisi2
 1246 0ab0 033081E0 		add	r3, r1, r3
 1247 0ab4 FF3003E2 		and	r3, r3, #255
 1248 0ab8 0030C5E5 		strb	r3, [r5]
 1249 0abc EC029FE5 		ldr	r0, .L139+48
 1250 0ac0 023083E0 		add	r3, r3, r2
 1251 0ac4 0030C4E5 		strb	r3, [r4]
 1252 0ac8 FEFFFFEB 		bl	uart_transmit
 1253 0acc 0110D7E5 		ldrb	r1, [r7, #1]	@ zero_extendqisi2
 1254 0ad0 0030D5E5 		ldrb	r3, [r5]	@ zero_extendqisi2
 1255 0ad4 0020D4E5 		ldrb	r2, [r4]	@ zero_extendqisi2
 1256 0ad8 033081E0 		add	r3, r1, r3
 1257 0adc FF3003E2 		and	r3, r3, #255
 1258 0ae0 0030C5E5 		strb	r3, [r5]
 1259 0ae4 C4029FE5 		ldr	r0, .L139+48
 1260 0ae8 023083E0 		add	r3, r3, r2
 1261 0aec 0030C4E5 		strb	r3, [r4]
 1262 0af0 FEFFFFEB 		bl	uart_transmit
 1263 0af4 0410D7E5 		ldrb	r1, [r7, #4]	@ zero_extendqisi2
 1264 0af8 0030D5E5 		ldrb	r3, [r5]	@ zero_extendqisi2
 1265 0afc 0020D4E5 		ldrb	r2, [r4]	@ zero_extendqisi2
 1266 0b00 033081E0 		add	r3, r1, r3
 1267 0b04 FF3003E2 		and	r3, r3, #255
 1268 0b08 0030C5E5 		strb	r3, [r5]
 1269 0b0c 9C029FE5 		ldr	r0, .L139+48
 1270 0b10 023083E0 		add	r3, r3, r2
 1271 0b14 0030C4E5 		strb	r3, [r4]
 1272 0b18 FEFFFFEB 		bl	uart_transmit
 1273 0b1c 0510D7E5 		ldrb	r1, [r7, #5]	@ zero_extendqisi2
 1274 0b20 0030D5E5 		ldrb	r3, [r5]	@ zero_extendqisi2
 1275 0b24 0020D4E5 		ldrb	r2, [r4]	@ zero_extendqisi2
 1276 0b28 033081E0 		add	r3, r1, r3
 1277 0b2c FF3003E2 		and	r3, r3, #255
 1278 0b30 0030C5E5 		strb	r3, [r5]
 1279 0b34 74029FE5 		ldr	r0, .L139+48
 1280 0b38 023083E0 		add	r3, r3, r2
 1281 0b3c 0030C4E5 		strb	r3, [r4]
 1282 0b40 FEFFFFEB 		bl	uart_transmit
 1283 0b44 0610D7E5 		ldrb	r1, [r7, #6]	@ zero_extendqisi2
 1284 0b48 0030D5E5 		ldrb	r3, [r5]	@ zero_extendqisi2
 1285 0b4c 0020D4E5 		ldrb	r2, [r4]	@ zero_extendqisi2
 1286 0b50 033081E0 		add	r3, r1, r3
 1287 0b54 FF3003E2 		and	r3, r3, #255
 1288 0b58 0030C5E5 		strb	r3, [r5]
 1289 0b5c 4C029FE5 		ldr	r0, .L139+48
 1290 0b60 023083E0 		add	r3, r3, r2
 1291 0b64 0030C4E5 		strb	r3, [r4]
 1292 0b68 FEFFFFEB 		bl	uart_transmit
 1293 0b6c 0710D7E5 		ldrb	r1, [r7, #7]	@ zero_extendqisi2
 1294 0b70 0030D5E5 		ldrb	r3, [r5]	@ zero_extendqisi2
 1295 0b74 0020D4E5 		ldrb	r2, [r4]	@ zero_extendqisi2
 1296 0b78 033081E0 		add	r3, r1, r3
 1297 0b7c FF3003E2 		and	r3, r3, #255
 1298 0b80 0030C5E5 		strb	r3, [r5]
 1299 0b84 24029FE5 		ldr	r0, .L139+48
 1300 0b88 023083E0 		add	r3, r3, r2
 1301 0b8c 0030C4E5 		strb	r3, [r4]
 1302 0b90 FEFFFFEB 		bl	uart_transmit
 1303 0b94 0210D6E5 		ldrb	r1, [r6, #2]	@ zero_extendqisi2
 1304 0b98 0030D5E5 		ldrb	r3, [r5]	@ zero_extendqisi2
 1305 0b9c 0020D4E5 		ldrb	r2, [r4]	@ zero_extendqisi2
 1306 0ba0 033081E0 		add	r3, r1, r3
 1307 0ba4 FF3003E2 		and	r3, r3, #255
 1308 0ba8 0030C5E5 		strb	r3, [r5]
 1309 0bac FC019FE5 		ldr	r0, .L139+48
 1310 0bb0 023083E0 		add	r3, r3, r2
 1311 0bb4 0030C4E5 		strb	r3, [r4]
 1312 0bb8 FEFFFFEB 		bl	uart_transmit
 1313 0bbc 0310D6E5 		ldrb	r1, [r6, #3]	@ zero_extendqisi2
 1314 0bc0 0030D5E5 		ldrb	r3, [r5]	@ zero_extendqisi2
 1315 0bc4 0020D4E5 		ldrb	r2, [r4]	@ zero_extendqisi2
 1316 0bc8 033081E0 		add	r3, r1, r3
 1317 0bcc FF3003E2 		and	r3, r3, #255
 1318 0bd0 0030C5E5 		strb	r3, [r5]
 1319 0bd4 D4019FE5 		ldr	r0, .L139+48
 1320 0bd8 023083E0 		add	r3, r3, r2
 1321 0bdc 0030C4E5 		strb	r3, [r4]
 1322 0be0 FEFFFFEB 		bl	uart_transmit
 1323 0be4 0010D5E5 		ldrb	r1, [r5]	@ zero_extendqisi2
 1324 0be8 C0019FE5 		ldr	r0, .L139+48
 1325 0bec FEFFFFEB 		bl	uart_transmit
 1326 0bf0 B8019FE5 		ldr	r0, .L139+48
 1327 0bf4 0010D4E5 		ldrb	r1, [r4]	@ zero_extendqisi2
 1328 0bf8 FEFFFFEB 		bl	uart_transmit
 1329 0bfc 030000EA 		b	.L125
 1330              	.L126:
 1331 0c00 C0319FE5 		ldr	r3, .L139+72
 1332 0c04 0020D3E5 		ldrb	r2, [r3]	@ zero_extendqisi2
 1333 0c08 012082E2 		add	r2, r2, #1
 1334 0c0c 0020C3E5 		strb	r2, [r3]
 1335              	.L125:
 1336 0c10 B030D9E1 		ldrh	r3, [r9]
 1337 0c14 120053E3 		cmp	r3, #18
 1338 0c18 5600001A 		bne	.L80
 1339 0c1c 8C019FE5 		ldr	r0, .L139+48
 1340 0c20 1710A0E3 		mov	r1, #23
 1341 0c24 FEFFFFEB 		bl	uart_check_free_space
 1342 0c28 000050E3 		cmp	r0, #0
 1343 0c2c 4D00000A 		beq	.L128
 1344 0c30 7C319FE5 		ldr	r3, .L139+52
 1345 0c34 B020D3E1 		ldrh	r2, [r3]
 1346 0c38 172082E2 		add	r2, r2, #23
 1347 0c3c B020C3E1 		strh	r2, [r3]	@ movhi
 1348 0c40 70319FE5 		ldr	r3, .L139+56
 1349 0c44 B020D3E1 		ldrh	r2, [r3]
 1350 0c48 60019FE5 		ldr	r0, .L139+48
 1351 0c4c 012082E2 		add	r2, r2, #1
 1352 0c50 9910A0E3 		mov	r1, #153
 1353 0c54 B020C3E1 		strh	r2, [r3]	@ movhi
 1354 0c58 5C519FE5 		ldr	r5, .L139+60
 1355 0c5c FEFFFFEB 		bl	uart_transmit
 1356 0c60 48019FE5 		ldr	r0, .L139+48
 1357 0c64 1710A0E3 		mov	r1, #23
 1358 0c68 FEFFFFEB 		bl	uart_transmit
 1359 0c6c 4C419FE5 		ldr	r4, .L139+64
 1360 0c70 1930A0E3 		mov	r3, #25
 1361 0c74 0030C5E5 		strb	r3, [r5]
 1362 0c78 30019FE5 		ldr	r0, .L139+48
 1363 0c7c 3030A0E3 		mov	r3, #48
 1364 0c80 0210A0E3 		mov	r1, #2
 1365 0c84 0030C4E5 		strb	r3, [r4]
 1366 0c88 FEFFFFEB 		bl	uart_transmit
 1367 0c8c 0030D5E5 		ldrb	r3, [r5]	@ zero_extendqisi2
 1368 0c90 0020D4E5 		ldrb	r2, [r4]	@ zero_extendqisi2
 1369 0c94 693083E2 		add	r3, r3, #105
 1370 0c98 FF3003E2 		and	r3, r3, #255
 1371 0c9c 0030C5E5 		strb	r3, [r5]
 1372 0ca0 08019FE5 		ldr	r0, .L139+48
 1373 0ca4 023083E0 		add	r3, r3, r2
 1374 0ca8 6910A0E3 		mov	r1, #105
 1375 0cac 0030C4E5 		strb	r3, [r4]
 1376 0cb0 FEFFFFEB 		bl	uart_transmit
 1377 0cb4 0030D5E5 		ldrb	r3, [r5]	@ zero_extendqisi2
 1378 0cb8 0020D4E5 		ldrb	r2, [r4]	@ zero_extendqisi2
 1379 0cbc 083083E2 		add	r3, r3, #8
 1380 0cc0 FF3003E2 		and	r3, r3, #255
 1381 0cc4 0030C5E5 		strb	r3, [r5]
 1382 0cc8 E0009FE5 		ldr	r0, .L139+48
 1383 0ccc 023083E0 		add	r3, r3, r2
 1384 0cd0 0810A0E3 		mov	r1, #8
 1385 0cd4 0030C4E5 		strb	r3, [r4]
 1386 0cd8 FEFFFFEB 		bl	uart_transmit
 1387 0cdc 0060A0E3 		mov	r6, #0
 1388              	.L130:
 1389 0ce0 DC309FE5 		ldr	r3, .L139+68
 1390 0ce4 0310D6E7 		ldrb	r1, [r6, r3]	@ zero_extendqisi2
 1391 0ce8 037086E0 		add	r7, r6, r3
 1392 0cec 0030D5E5 		ldrb	r3, [r5]	@ zero_extendqisi2
 1393 0cf0 0020D4E5 		ldrb	r2, [r4]	@ zero_extendqisi2
 1394 0cf4 033081E0 		add	r3, r1, r3
 1395 0cf8 FF3003E2 		and	r3, r3, #255
 1396 0cfc 0030C5E5 		strb	r3, [r5]
 1397 0d00 A8009FE5 		ldr	r0, .L139+48
 1398 0d04 023083E0 		add	r3, r3, r2
 1399 0d08 0030C4E5 		strb	r3, [r4]
 1400 0d0c FEFFFFEB 		bl	uart_transmit
 1401 0d10 0030D5E5 		ldrb	r3, [r5]	@ zero_extendqisi2
 1402 0d14 0110D7E5 		ldrb	r1, [r7, #1]	@ zero_extendqisi2
 1403 0d18 0020D4E5 		ldrb	r2, [r4]	@ zero_extendqisi2
 1404 0d1c 033081E0 		add	r3, r1, r3
 1405 0d20 FF3003E2 		and	r3, r3, #255
 1406 0d24 0030C5E5 		strb	r3, [r5]
 1407 0d28 80009FE5 		ldr	r0, .L139+48
 1408 0d2c 023083E0 		add	r3, r3, r2
 1409 0d30 026086E2 		add	r6, r6, #2
 1410 0d34 0030C4E5 		strb	r3, [r4]
 1411 0d38 FEFFFFEB 		bl	uart_transmit
 1412 0d3c 100056E3 		cmp	r6, #16
 1413 0d40 E6FFFF1A 		bne	.L130
 1414 0d44 70309FE5 		ldr	r3, .L139+60
 1415 0d48 60009FE5 		ldr	r0, .L139+48
 1416 0d4c 0010D3E5 		ldrb	r1, [r3]	@ zero_extendqisi2
 1417 0d50 FEFFFFEB 		bl	uart_transmit
 1418 0d54 64309FE5 		ldr	r3, .L139+64
 1419 0d58 50009FE5 		ldr	r0, .L139+48
 1420 0d5c 0010D3E5 		ldrb	r1, [r3]	@ zero_extendqisi2
 1421 0d60 FEFFFFEB 		bl	uart_transmit
 1422 0d64 030000EA 		b	.L80
 1423              	.L128:
 1424 0d68 58309FE5 		ldr	r3, .L139+72
 1425 0d6c 0020D3E5 		ldrb	r2, [r3]	@ zero_extendqisi2
 1426 0d70 012082E2 		add	r2, r2, #1
 1427 0d74 0020C3E5 		strb	r2, [r3]
 1428              	.L80:
 1429 0d78 F84FBDE8 		ldmfd	sp!, {r3, r4, r5, r6, r7, r8, r9, r10, fp, lr}
 1430 0d7c 1EFF2FE1 		bx	lr
 1431              	.L140:
 1432              		.align	2
 1433              	.L139:
 1434 0d80 00000000 		.word	.LANCHOR1
 1435 0d84 00000000 		.word	radio_control
 1436 0d88 00000000 		.word	fbw_mode
 1437 0d8c 00000000 		.word	time_since_last_ap
 1438 0d90 00000000 		.word	ap_ok
 1439 0d94 00000000 		.word	commands_failsafe
 1440 0d98 00000000 		.word	commands
 1441 0d9c 00000000 		.word	.LANCHOR0
 1442 0da0 00000000 		.word	telemetry_mode_Fbw
 1443 0da4 00000000 		.word	.LANCHOR2
 1444 0da8 00000000 		.word	.LANCHOR3
 1445 0dac 00000000 		.word	.LANCHOR4
 1446 0db0 00000000 		.word	uart1
 1447 0db4 00000000 		.word	downlink_nb_bytes
 1448 0db8 00000000 		.word	downlink_nb_msgs
 1449 0dbc 00000000 		.word	ck_a
 1450 0dc0 00000000 		.word	ck_b
 1451 0dc4 00000000 		.word	actuators
 1452 0dc8 00000000 		.word	downlink_nb_ovrn
 1453 0dcc 00000000 		.word	electrical
 1454 0dd0 00000000 		.word	.LANCHOR5
 1455 0dd4 00000000 		.word	.LANCHOR6
 1456 0dd8 00000000 		.word	.LANCHOR7
 1457 0ddc 08000000 		.word	radio_control+8
 1459              		.section	.text.handle_periodic_tasks_fbw,"ax",%progbits
 1460              		.align	2
 1461              		.global	handle_periodic_tasks_fbw
 1463              	handle_periodic_tasks_fbw:
 1464              		@ Function supports interworking.
 1465              		@ args = 0, pretend = 0, frame = 0
 1466              		@ frame_needed = 0, uses_anonymous_args = 0
 1467 0000 10402DE9 		stmfd	sp!, {r4, lr}
 1468 0004 58309FE5 		ldr	r3, .L150
 1469 0008 0020D3E5 		ldrb	r2, [r3]	@ zero_extendqisi2
 1470 000c 54309FE5 		ldr	r3, .L150+4
 1471 0010 1410A0E3 		mov	r1, #20
 1472 0014 913222E0 		mla	r2, r1, r2, r3
 1473 0018 1410D2E5 		ldrb	r1, [r2, #20]	@ zero_extendqisi2
 1474 001c 000051E3 		cmp	r1, #0
 1475 0020 102082E2 		add	r2, r2, #16
 1476 0024 0340A0E1 		mov	r4, r3
 1477 0028 0030A013 		movne	r3, #0
 1478 002c 0430C215 		strneb	r3, [r2, #4]
 1479 0030 FEFFFF1B 		blne	periodic_task_fbw
 1480              	.L142:
 1481 0034 30309FE5 		ldr	r3, .L150+8
 1482 0038 0030D3E5 		ldrb	r3, [r3]	@ zero_extendqisi2
 1483 003c 1420A0E3 		mov	r2, #20
 1484 0040 924323E0 		mla	r3, r2, r3, r4
 1485 0044 1420D3E5 		ldrb	r2, [r3, #20]	@ zero_extendqisi2
 1486 0048 000052E3 		cmp	r2, #0
 1487 004c 103083E2 		add	r3, r3, #16
 1488 0050 0020A013 		movne	r2, #0
 1489 0054 0420C315 		strneb	r2, [r3, #4]
 1490 0058 FEFFFF1B 		blne	electrical_periodic
 1491              	.L141:
 1492 005c 1040BDE8 		ldmfd	sp!, {r4, lr}
 1493 0060 1EFF2FE1 		bx	lr
 1494              	.L151:
 1495              		.align	2
 1496              	.L150:
 1497 0064 00000000 		.word	fbw_periodic_tid
 1498 0068 00000000 		.word	sys_time
 1499 006c 00000000 		.word	electrical_tid
 1501              		.comm	electrical_tid,1,1
 1502              		.comm	fbw_periodic_tid,1,1
 1503              		.global	fbw_new_actuators
 1504              		.comm	fbw_mode,1,1
 1505              		.section	.bss.i30.5797,"aw",%nobits
 1506              		.set	.LANCHOR3,. + 0
 1509              	i30.5797:
 1510 0000 00       		.space	1
 1511              		.section	.bss.i120.5798,"aw",%nobits
 1512              		.set	.LANCHOR4,. + 0
 1515              	i120.5798:
 1516 0000 00       		.space	1
 1517              		.section	.bss._1Hz.5581,"aw",%nobits
 1518              		.set	.LANCHOR1,. + 0
 1521              	_1Hz.5581:
 1522 0000 00       		.space	1
 1523              		.section	.bss.i300.5827,"aw",%nobits
 1524              		.align	1
 1525              		.set	.LANCHOR7,. + 0
 1528              	i300.5827:
 1529 0000 0000     		.space	2
 1530              		.section	.bss.i15.5796,"aw",%nobits
 1531              		.set	.LANCHOR2,. + 0
 1534              	i15.5796:
 1535 0000 00       		.space	1
 1536              		.section	.bss.fbw_new_actuators,"aw",%nobits
 1537              		.set	.LANCHOR0,. + 0
 1540              	fbw_new_actuators:
 1541 0000 00       		.space	1
 1542              		.section	.bss.i30.5825,"aw",%nobits
 1543              		.set	.LANCHOR5,. + 0
 1546              	i30.5825:
 1547 0000 00       		.space	1
 1548              		.section	.bss.i60.5826,"aw",%nobits
 1549              		.set	.LANCHOR6,. + 0
 1552              	i60.5826:
 1553 0000 00       		.space	1
 1554              		.ident	"GCC: (GNU Tools for ARM Embedded Processors) 4.8.3 20131129 (release) [ARM/embedded-4_8-br