   1              		.cpu arm7tdmi
   2              		.fpu softvfp
   3              		.eabi_attribute 20, 1
   4              		.eabi_attribute 21, 1
   5              		.eabi_attribute 23, 3
   6              		.eabi_attribute 24, 1
   7              		.eabi_attribute 25, 1
   8              		.eabi_attribute 26, 1
   9              		.eabi_attribute 30, 4
  10              		.eabi_attribute 18, 4
  11              		.file	"main_ap.c"
  12              		.section	.text.init_ap,"ax",%progbits
  13              		.align	2
  14              		.global	init_ap
  16              	init_ap:
  17              		@ Function supports interworking.
  18              		@ args = 0, pretend = 0, frame = 0
  19              		@ frame_needed = 0, uses_anonymous_args = 0
  20 0000 38402DE9 		stmfd	sp!, {r3, r4, r5, lr}
  21 0004 C8309FE5 		ldr	r3, .L2
  22 0008 0040A0E3 		mov	r4, #0
  23 000c C4209FE5 		ldr	r2, .L2+4
  24 0010 0040C3E5 		strb	r4, [r3, #0]
  25 0014 C0309FE5 		ldr	r3, .L2+8
  26 0018 C0509FE5 		ldr	r5, .L2+12
  27 001c 002083E5 		str	r2, [r3, #0]	@ float
  28 0020 FEFFFFEB 		bl	gps_init
  29 0024 FEFFFFEB 		bl	ahrs_init
  30 0028 FEFFFFEB 		bl	h_ctl_init
  31 002c FEFFFFEB 		bl	v_ctl_init
  32 0030 FEFFFFEB 		bl	estimator_init
  33 0034 FEFFFFEB 		bl	alt_kalman_init
  34 0038 FEFFFFEB 		bl	nav_init
  35 003c FEFFFFEB 		bl	infrared_adc_init
  36 0040 FEFFFFEB 		bl	settings_init
  37 0044 0410A0E1 		mov	r1, r4
  38 0048 0500A0E1 		mov	r0, r5
  39 004c FEFFFFEB 		bl	sys_time_register_timer
  40 0050 8C309FE5 		ldr	r3, .L2+16
  41 0054 0410A0E1 		mov	r1, r4
  42 0058 0000C3E5 		strb	r0, [r3, #0]
  43 005c FA05A0E3 		mov	r0, #1048576000
  44 0060 FEFFFFEB 		bl	sys_time_register_timer
  45 0064 7C309FE5 		ldr	r3, .L2+20
  46 0068 0410A0E1 		mov	r1, r4
  47 006c 0000C3E5 		strb	r0, [r3, #0]
  48 0070 0500A0E1 		mov	r0, r5
  49 0074 FEFFFFEB 		bl	sys_time_register_timer
  50 0078 6C309FE5 		ldr	r3, .L2+24
  51 007c 0410A0E1 		mov	r1, r4
  52 0080 0000C3E5 		strb	r0, [r3, #0]
  53 0084 0500A0E1 		mov	r0, r5
  54 0088 FEFFFFEB 		bl	sys_time_register_timer
  55 008c 5C309FE5 		ldr	r3, .L2+28
  56 0090 0410A0E1 		mov	r1, r4
  57 0094 0000C3E5 		strb	r0, [r3, #0]
  58 0098 0500A0E1 		mov	r0, r5
  59 009c FEFFFFEB 		bl	sys_time_register_timer
  60 00a0 4C309FE5 		ldr	r3, .L2+32
  61 00a4 0410A0E1 		mov	r1, r4
  62 00a8 0000C3E5 		strb	r0, [r3, #0]
  63 00ac FE05A0E3 		mov	r0, #1065353216
  64 00b0 FEFFFFEB 		bl	sys_time_register_timer
  65 00b4 3C309FE5 		ldr	r3, .L2+36
  66 00b8 0000C3E5 		strb	r0, [r3, #0]
  67 00bc FEFFFFEB 		bl	enableIRQ
  68 00c0 34309FE5 		ldr	r3, .L2+40
  69 00c4 0040C3E5 		strb	r4, [r3, #0]
  70 00c8 FEFFFFEB 		bl	traffic_info_init
  71 00cc 3840BDE8 		ldmfd	sp!, {r3, r4, r5, lr}
  72 00d0 1EFF2FE1 		bx	lr
  73              	.L3:
  74              		.align	2
  75              	.L2:
  76 00d4 00000000 		.word	combi_switch_status
  77 00d8 CDCCCCBE 		.word	-1093874483
  78 00dc 00000000 		.word	combi_switch_value
  79 00e0 8988883C 		.word	1015580809
  80 00e4 00000000 		.word	sensors_tid
  81 00e8 00000000 		.word	navigation_tid
  82 00ec 00000000 		.word	attitude_tid
  83 00f0 00000000 		.word	modules_tid
  84 00f4 00000000 		.word	telemetry_tid
  85 00f8 00000000 		.word	monitor_tid
  86 00fc 00000000 		.word	power_switch
  88              		.global	__aeabi_i2d
  89              		.global	__aeabi_dmul
  90              		.global	__aeabi_ddiv
  91              		.global	__aeabi_d2iz
  92              		.global	__aeabi_i2f
  93              		.global	__aeabi_fadd
  94              		.global	__aeabi_f2d
  95              		.global	__aeabi_d2uiz
  96              		.global	__aeabi_idiv
  97              		.global	__aeabi_f2iz
  98              		.global	__aeabi_ui2f
  99              		.global	__aeabi_fdiv
 100              		.global	__aeabi_fmul
 101              		.section	.text.reporting_task,"ax",%progbits
 102              		.align	2
 103              		.global	reporting_task
 105              	reporting_task:
 106              		@ Function supports interworking.
 107              		@ args = 0, pretend = 0, frame = 16
 108              		@ frame_needed = 0, uses_anonymous_args = 0
 109 0000 FF412DE9 		stmfd	sp!, {r0, r1, r2, r3, r4, r5, r6, r7, r8, lr}
 110 0004 743F9FE5 		ldr	r3, .L261
 111 0008 0030D3E5 		ldrb	r3, [r3, #0]	@ zero_extendqisi2
 112 000c 000053E3 		cmp	r3, #0
 113 0010 4800000A 		beq	.L5
 114 0014 680F9FE5 		ldr	r0, .L261+4
 115 0018 0810A0E3 		mov	r1, #8
 116 001c FEFFFFEB 		bl	uart_check_free_space
 117 0020 000050E3 		cmp	r0, #0
 118 0024 3C00000A 		beq	.L6
 119 0028 CC3F9FE5 		ldr	r3, .L261+124
 120 002c B020D3E1 		ldrh	r2, [r3, #0]
 121 0030 082082E2 		add	r2, r2, #8
 122 0034 B020C3E1 		strh	r2, [r3, #0]	@ movhi
 123 0038 D43F9FE5 		ldr	r3, .L261+148
 124 003c B020D3E1 		ldrh	r2, [r3, #0]
 125 0040 012082E2 		add	r2, r2, #1
 126 0044 B020C3E1 		strh	r2, [r3, #0]	@ movhi
 127 0048 340F9FE5 		ldr	r0, .L261+4
 128 004c 9910A0E3 		mov	r1, #153
 129 0050 C05F9FE5 		ldr	r5, .L261+152
 130 0054 FEFFFFEB 		bl	uart_transmit
 131 0058 240F9FE5 		ldr	r0, .L261+4
 132 005c 0810A0E3 		mov	r1, #8
 133 0060 DC4F9FE5 		ldr	r4, .L261+196
 134 0064 FEFFFFEB 		bl	uart_transmit
 135 0068 0A30A0E3 		mov	r3, #10
 136 006c 0030C5E5 		strb	r3, [r5, #0]
 137 0070 1230A0E3 		mov	r3, #18
 138 0074 0030C4E5 		strb	r3, [r4, #0]
 139 0078 040F9FE5 		ldr	r0, .L261+4
 140 007c 0210A0E3 		mov	r1, #2
 141 0080 FEFFFFEB 		bl	uart_transmit
 142 0084 0030D5E5 		ldrb	r3, [r5, #0]	@ zero_extendqisi2
 143 0088 0020D4E5 		ldrb	r2, [r4, #0]	@ zero_extendqisi2
 144 008c 013083E2 		add	r3, r3, #1
 145 0090 FF3003E2 		and	r3, r3, #255
 146 0094 0030C5E5 		strb	r3, [r5, #0]
 147 0098 E86E9FE5 		ldr	r6, .L261+8
 148 009c 023083E0 		add	r3, r3, r2
 149 00a0 0030C4E5 		strb	r3, [r4, #0]
 150 00a4 D80E9FE5 		ldr	r0, .L261+4
 151 00a8 0110A0E3 		mov	r1, #1
 152 00ac FEFFFFEB 		bl	uart_transmit
 153 00b0 0010D6E5 		ldrb	r1, [r6, #0]	@ zero_extendqisi2
 154 00b4 0030D5E5 		ldrb	r3, [r5, #0]	@ zero_extendqisi2
 155 00b8 0020D4E5 		ldrb	r2, [r4, #0]	@ zero_extendqisi2
 156 00bc 033081E0 		add	r3, r1, r3
 157 00c0 FF3003E2 		and	r3, r3, #255
 158 00c4 0030C5E5 		strb	r3, [r5, #0]
 159 00c8 023083E0 		add	r3, r3, r2
 160 00cc 0030C4E5 		strb	r3, [r4, #0]
 161 00d0 AC0E9FE5 		ldr	r0, .L261+4
 162 00d4 FEFFFFEB 		bl	uart_transmit
 163 00d8 0110D6E5 		ldrb	r1, [r6, #1]	@ zero_extendqisi2
 164 00dc 0030D5E5 		ldrb	r3, [r5, #0]	@ zero_extendqisi2
 165 00e0 0020D4E5 		ldrb	r2, [r4, #0]	@ zero_extendqisi2
 166 00e4 033081E0 		add	r3, r1, r3
 167 00e8 FF3003E2 		and	r3, r3, #255
 168 00ec 0030C5E5 		strb	r3, [r5, #0]
 169 00f0 023083E0 		add	r3, r3, r2
 170 00f4 0030C4E5 		strb	r3, [r4, #0]
 171 00f8 840E9FE5 		ldr	r0, .L261+4
 172 00fc FEFFFFEB 		bl	uart_transmit
 173 0100 0010D5E5 		ldrb	r1, [r5, #0]	@ zero_extendqisi2
 174 0104 780E9FE5 		ldr	r0, .L261+4
 175 0108 FEFFFFEB 		bl	uart_transmit
 176 010c 700E9FE5 		ldr	r0, .L261+4
 177 0110 0010D4E5 		ldrb	r1, [r4, #0]	@ zero_extendqisi2
 178 0114 FEFFFFEB 		bl	uart_transmit
 179 0118 030000EA 		b	.L7
 180              	.L6:
 181 011c 143F9FE5 		ldr	r3, .L261+184
 182 0120 0020D3E5 		ldrb	r2, [r3, #0]	@ zero_extendqisi2
 183 0124 012082E2 		add	r2, r2, #1
 184 0128 0020C3E5 		strb	r2, [r3, #0]
 185              	.L7:
 186 012c 0020A0E3 		mov	r2, #0
 187 0130 483E9FE5 		ldr	r3, .L261
 188 0134 E12700EA 		b	.L256
 189              	.L5:
 190 0138 4C3E9FE5 		ldr	r3, .L261+12
 191 013c 0020D3E5 		ldrb	r2, [r3, #0]	@ zero_extendqisi2
 192 0140 000052E3 		cmp	r2, #0
 193 0144 1C10001A 		bne	.L9
 194 0148 403E9FE5 		ldr	r3, .L261+16
 195 014c 0010D3E5 		ldrb	r1, [r3, #0]	@ zero_extendqisi2
 196 0150 011081E2 		add	r1, r1, #1
 197 0154 FF1001E2 		and	r1, r1, #255
 198 0158 050051E3 		cmp	r1, #5
 199 015c 0010C3E5 		strb	r1, [r3, #0]
 200 0160 0020C385 		strhib	r2, [r3, #0]
 201 0164 283E9FE5 		ldr	r3, .L261+20
 202 0168 0020D3E5 		ldrb	r2, [r3, #0]	@ zero_extendqisi2
 203 016c 012082E2 		add	r2, r2, #1
 204 0170 FF2002E2 		and	r2, r2, #255
 205 0174 1D0052E3 		cmp	r2, #29
 206 0178 0020C3E5 		strb	r2, [r3, #0]
 207 017c 0020A083 		movhi	r2, #0
 208 0180 0020C385 		strhib	r2, [r3, #0]
 209 0184 783E9FE5 		ldr	r3, .L261+132
 210 0188 0020D3E5 		ldrb	r2, [r3, #0]	@ zero_extendqisi2
 211 018c 012082E2 		add	r2, r2, #1
 212 0190 FF2002E2 		and	r2, r2, #255
 213 0194 3B0052E3 		cmp	r2, #59
 214 0198 0020C3E5 		strb	r2, [r3, #0]
 215 019c 0020A083 		movhi	r2, #0
 216 01a0 0020C385 		strhib	r2, [r3, #0]
 217 01a4 903E9FE5 		ldr	r3, .L261+188
 218 01a8 0020D3E5 		ldrb	r2, [r3, #0]	@ zero_extendqisi2
 219 01ac 012082E2 		add	r2, r2, #1
 220 01b0 FF2002E2 		and	r2, r2, #255
 221 01b4 3E0052E3 		cmp	r2, #62
 222 01b8 0020C3E5 		strb	r2, [r3, #0]
 223 01bc 0020A083 		movhi	r2, #0
 224 01c0 0020C385 		strhib	r2, [r3, #0]
 225 01c4 CC3D9FE5 		ldr	r3, .L261+24
 226 01c8 0020D3E5 		ldrb	r2, [r3, #0]	@ zero_extendqisi2
 227 01cc 012082E2 		add	r2, r2, #1
 228 01d0 FF2002E2 		and	r2, r2, #255
 229 01d4 410052E3 		cmp	r2, #65
 230 01d8 0020C3E5 		strb	r2, [r3, #0]
 231 01dc 0020A083 		movhi	r2, #0
 232 01e0 0020C385 		strhib	r2, [r3, #0]
 233 01e4 B03D9FE5 		ldr	r3, .L261+28
 234 01e8 0020D3E5 		ldrb	r2, [r3, #0]	@ zero_extendqisi2
 235 01ec 012082E2 		add	r2, r2, #1
 236 01f0 FF2002E2 		and	r2, r2, #255
 237 01f4 470052E3 		cmp	r2, #71
 238 01f8 0020C3E5 		strb	r2, [r3, #0]
 239 01fc 0020A083 		movhi	r2, #0
 240 0200 0020C385 		strhib	r2, [r3, #0]
 241 0204 943D9FE5 		ldr	r3, .L261+32
 242 0208 0020D3E5 		ldrb	r2, [r3, #0]	@ zero_extendqisi2
 243 020c 012082E2 		add	r2, r2, #1
 244 0210 FF2002E2 		and	r2, r2, #255
 245 0214 590052E3 		cmp	r2, #89
 246 0218 0020C3E5 		strb	r2, [r3, #0]
 247 021c 0020A083 		movhi	r2, #0
 248 0220 0020C385 		strhib	r2, [r3, #0]
 249 0224 783D9FE5 		ldr	r3, .L261+36
 250 0228 0020D3E5 		ldrb	r2, [r3, #0]	@ zero_extendqisi2
 251 022c 012082E2 		add	r2, r2, #1
 252 0230 FF2002E2 		and	r2, r2, #255
 253 0234 770052E3 		cmp	r2, #119
 254 0238 0020C3E5 		strb	r2, [r3, #0]
 255 023c 0020A083 		movhi	r2, #0
 256 0240 0020C385 		strhib	r2, [r3, #0]
 257 0244 5C3D9FE5 		ldr	r3, .L261+40
 258 0248 0020D3E5 		ldrb	r2, [r3, #0]	@ zero_extendqisi2
 259 024c 012082E2 		add	r2, r2, #1
 260 0250 FF2002E2 		and	r2, r2, #255
 261 0254 7D0052E3 		cmp	r2, #125
 262 0258 0020C3E5 		strb	r2, [r3, #0]
 263 025c 0020A083 		movhi	r2, #0
 264 0260 0020C385 		strhib	r2, [r3, #0]
 265 0264 403D9FE5 		ldr	r3, .L261+44
 266 0268 0020D3E5 		ldrb	r2, [r3, #0]	@ zero_extendqisi2
 267 026c 012082E2 		add	r2, r2, #1
 268 0270 FF2002E2 		and	r2, r2, #255
 269 0274 950052E3 		cmp	r2, #149
 270 0278 0020C3E5 		strb	r2, [r3, #0]
 271 027c 0020A083 		movhi	r2, #0
 272 0280 0020C385 		strhib	r2, [r3, #0]
 273 0284 243D9FE5 		ldr	r3, .L261+48
 274 0288 B020D3E1 		ldrh	r2, [r3, #0]
 275 028c 012082E2 		add	r2, r2, #1
 276 0290 0228A0E1 		mov	r2, r2, asl #16
 277 0294 2228A0E1 		mov	r2, r2, lsr #16
 278 0298 4B0F52E3 		cmp	r2, #300
 279 029c B020C3E1 		strh	r2, [r3, #0]	@ movhi
 280 02a0 0020A023 		movcs	r2, #0
 281 02a4 B020C321 		strcsh	r2, [r3, #0]	@ movhi
 282 02a8 043D9FE5 		ldr	r3, .L261+52
 283 02ac B020D3E1 		ldrh	r2, [r3, #0]
 284 02b0 012082E2 		add	r2, r2, #1
 285 02b4 0228A0E1 		mov	r2, r2, asl #16
 286 02b8 F81C9FE5 		ldr	r1, .L261+56
 287 02bc 2228A0E1 		mov	r2, r2, lsr #16
 288 02c0 010052E1 		cmp	r2, r1
 289 02c4 B020C3E1 		strh	r2, [r3, #0]	@ movhi
 290 02c8 0020A083 		movhi	r2, #0
 291 02cc B020C381 		strhih	r2, [r3, #0]	@ movhi
 292 02d0 E43C9FE5 		ldr	r3, .L261+60
 293 02d4 B020D3E1 		ldrh	r2, [r3, #0]
 294 02d8 012082E2 		add	r2, r2, #1
 295 02dc 0228A0E1 		mov	r2, r2, asl #16
 296 02e0 2228A0E1 		mov	r2, r2, lsr #16
 297 02e4 870F52E3 		cmp	r2, #540
 298 02e8 B020C3E1 		strh	r2, [r3, #0]	@ movhi
 299 02ec 0020A023 		movcs	r2, #0
 300 02f0 B020C321 		strcsh	r2, [r3, #0]	@ movhi
 301 02f4 943C9FE5 		ldr	r3, .L261+16
 302 02f8 0030D3E5 		ldrb	r3, [r3, #0]	@ zero_extendqisi2
 303 02fc 000053E3 		cmp	r3, #0
 304 0300 FA01001A 		bne	.L23
 305 0304 B44C9FE5 		ldr	r4, .L261+64
 306 0308 403094E5 		ldr	r3, [r4, #64]
 307 030c 480094E5 		ldr	r0, [r4, #72]
 308 0310 003063E2 		rsb	r3, r3, #0
 309 0314 BC30CDE1 		strh	r3, [sp, #12]	@ movhi
 310 0318 FEFFFFEB 		bl	__aeabi_i2d
 311 031c A02C9FE5 		ldr	r2, .L261+68
 312 0320 A03C9FE5 		ldr	r3, .L261+72
 313 0324 FEFFFFEB 		bl	__aeabi_dmul
 314 0328 0020A0E3 		mov	r2, #0
 315 032c 983C9FE5 		ldr	r3, .L261+76
 316 0330 FEFFFFEB 		bl	__aeabi_ddiv
 317 0334 FEFFFFEB 		bl	__aeabi_d2iz
 318 0338 2110A0E3 		mov	r1, #33
 319 033c BE00CDE1 		strh	r0, [sp, #14]	@ movhi
 320 0340 3C0C9FE5 		ldr	r0, .L261+4
 321 0344 FEFFFFEB 		bl	uart_check_free_space
 322 0348 000050E3 		cmp	r0, #0
 323 034c 3601000A 		beq	.L24
 324 0350 A43C9FE5 		ldr	r3, .L261+124
 325 0354 B020D3E1 		ldrh	r2, [r3, #0]
 326 0358 212082E2 		add	r2, r2, #33
 327 035c B020C3E1 		strh	r2, [r3, #0]	@ movhi
 328 0360 AC3C9FE5 		ldr	r3, .L261+148
 329 0364 B020D3E1 		ldrh	r2, [r3, #0]
 330 0368 012082E2 		add	r2, r2, #1
 331 036c B020C3E1 		strh	r2, [r3, #0]	@ movhi
 332 0370 0C0C9FE5 		ldr	r0, .L261+4
 333 0374 9910A0E3 		mov	r1, #153
 334 0378 986C9FE5 		ldr	r6, .L261+152
 335 037c FEFFFFEB 		bl	uart_transmit
 336 0380 FC0B9FE5 		ldr	r0, .L261+4
 337 0384 2110A0E3 		mov	r1, #33
 338 0388 B45C9FE5 		ldr	r5, .L261+196
 339 038c FEFFFFEB 		bl	uart_transmit
 340 0390 2330A0E3 		mov	r3, #35
 341 0394 0030C6E5 		strb	r3, [r6, #0]
 342 0398 4430A0E3 		mov	r3, #68
 343 039c 0030C5E5 		strb	r3, [r5, #0]
 344 03a0 DC0B9FE5 		ldr	r0, .L261+4
 345 03a4 0210A0E3 		mov	r1, #2
 346 03a8 FEFFFFEB 		bl	uart_transmit
 347 03ac 0030D6E5 		ldrb	r3, [r6, #0]	@ zero_extendqisi2
 348 03b0 0020D5E5 		ldrb	r2, [r5, #0]	@ zero_extendqisi2
 349 03b4 083083E2 		add	r3, r3, #8
 350 03b8 FF3003E2 		and	r3, r3, #255
 351 03bc 0030C6E5 		strb	r3, [r6, #0]
 352 03c0 023083E0 		add	r3, r3, r2
 353 03c4 0030C5E5 		strb	r3, [r5, #0]
 354 03c8 B40B9FE5 		ldr	r0, .L261+4
 355 03cc 0810A0E3 		mov	r1, #8
 356 03d0 FEFFFFEB 		bl	uart_transmit
 357 03d4 5B10D4E5 		ldrb	r1, [r4, #91]	@ zero_extendqisi2
 358 03d8 0030D6E5 		ldrb	r3, [r6, #0]	@ zero_extendqisi2
 359 03dc 0020D5E5 		ldrb	r2, [r5, #0]	@ zero_extendqisi2
 360 03e0 033081E0 		add	r3, r1, r3
 361 03e4 FF3003E2 		and	r3, r3, #255
 362 03e8 0030C6E5 		strb	r3, [r6, #0]
 363 03ec 023083E0 		add	r3, r3, r2
 364 03f0 0030C5E5 		strb	r3, [r5, #0]
 365 03f4 880B9FE5 		ldr	r0, .L261+4
 366 03f8 FEFFFFEB 		bl	uart_transmit
 367 03fc 1C10D4E5 		ldrb	r1, [r4, #28]	@ zero_extendqisi2
 368 0400 0030D6E5 		ldrb	r3, [r6, #0]	@ zero_extendqisi2
 369 0404 0020D5E5 		ldrb	r2, [r5, #0]	@ zero_extendqisi2
 370 0408 033081E0 		add	r3, r1, r3
 371 040c FF3003E2 		and	r3, r3, #255
 372 0410 0030C6E5 		strb	r3, [r6, #0]
 373 0414 023083E0 		add	r3, r3, r2
 374 0418 0030C5E5 		strb	r3, [r5, #0]
 375 041c 600B9FE5 		ldr	r0, .L261+4
 376 0420 FEFFFFEB 		bl	uart_transmit
 377 0424 1D10D4E5 		ldrb	r1, [r4, #29]	@ zero_extendqisi2
 378 0428 0030D6E5 		ldrb	r3, [r6, #0]	@ zero_extendqisi2
 379 042c 0020D5E5 		ldrb	r2, [r5, #0]	@ zero_extendqisi2
 380 0430 033081E0 		add	r3, r1, r3
 381 0434 FF3003E2 		and	r3, r3, #255
 382 0438 0030C6E5 		strb	r3, [r6, #0]
 383 043c 023083E0 		add	r3, r3, r2
 384 0440 0030C5E5 		strb	r3, [r5, #0]
 385 0444 380B9FE5 		ldr	r0, .L261+4
 386 0448 FEFFFFEB 		bl	uart_transmit
 387 044c 1E10D4E5 		ldrb	r1, [r4, #30]	@ zero_extendqisi2
 388 0450 0030D6E5 		ldrb	r3, [r6, #0]	@ zero_extendqisi2
 389 0454 0020D5E5 		ldrb	r2, [r5, #0]	@ zero_extendqisi2
 390 0458 033081E0 		add	r3, r1, r3
 391 045c FF3003E2 		and	r3, r3, #255
 392 0460 0030C6E5 		strb	r3, [r6, #0]
 393 0464 023083E0 		add	r3, r3, r2
 394 0468 0030C5E5 		strb	r3, [r5, #0]
 395 046c 100B9FE5 		ldr	r0, .L261+4
 396 0470 FEFFFFEB 		bl	uart_transmit
 397 0474 1F10D4E5 		ldrb	r1, [r4, #31]	@ zero_extendqisi2
 398 0478 0030D6E5 		ldrb	r3, [r6, #0]	@ zero_extendqisi2
 399 047c 0020D5E5 		ldrb	r2, [r5, #0]	@ zero_extendqisi2
 400 0480 033081E0 		add	r3, r1, r3
 401 0484 FF3003E2 		and	r3, r3, #255
 402 0488 0030C6E5 		strb	r3, [r6, #0]
 403 048c 023083E0 		add	r3, r3, r2
 404 0490 0030C5E5 		strb	r3, [r5, #0]
 405 0494 E80A9FE5 		ldr	r0, .L261+4
 406 0498 FEFFFFEB 		bl	uart_transmit
 407 049c 1810D4E5 		ldrb	r1, [r4, #24]	@ zero_extendqisi2
 408 04a0 0030D6E5 		ldrb	r3, [r6, #0]	@ zero_extendqisi2
 409 04a4 0020D5E5 		ldrb	r2, [r5, #0]	@ zero_extendqisi2
 410 04a8 033081E0 		add	r3, r1, r3
 411 04ac FF3003E2 		and	r3, r3, #255
 412 04b0 0030C6E5 		strb	r3, [r6, #0]
 413 04b4 023083E0 		add	r3, r3, r2
 414 04b8 0030C5E5 		strb	r3, [r5, #0]
 415 04bc C00A9FE5 		ldr	r0, .L261+4
 416 04c0 FEFFFFEB 		bl	uart_transmit
 417 04c4 1910D4E5 		ldrb	r1, [r4, #25]	@ zero_extendqisi2
 418 04c8 0030D6E5 		ldrb	r3, [r6, #0]	@ zero_extendqisi2
 419 04cc 0020D5E5 		ldrb	r2, [r5, #0]	@ zero_extendqisi2
 420 04d0 033081E0 		add	r3, r1, r3
 421 04d4 FF3003E2 		and	r3, r3, #255
 422 04d8 0030C6E5 		strb	r3, [r6, #0]
 423 04dc 023083E0 		add	r3, r3, r2
 424 04e0 0030C5E5 		strb	r3, [r5, #0]
 425 04e4 980A9FE5 		ldr	r0, .L261+4
 426 04e8 FEFFFFEB 		bl	uart_transmit
 427 04ec 1A10D4E5 		ldrb	r1, [r4, #26]	@ zero_extendqisi2
 428 04f0 0030D6E5 		ldrb	r3, [r6, #0]	@ zero_extendqisi2
 429 04f4 0020D5E5 		ldrb	r2, [r5, #0]	@ zero_extendqisi2
 430 04f8 033081E0 		add	r3, r1, r3
 431 04fc FF3003E2 		and	r3, r3, #255
 432 0500 0030C6E5 		strb	r3, [r6, #0]
 433 0504 023083E0 		add	r3, r3, r2
 434 0508 0030C5E5 		strb	r3, [r5, #0]
 435 050c 700A9FE5 		ldr	r0, .L261+4
 436 0510 FEFFFFEB 		bl	uart_transmit
 437 0514 1B10D4E5 		ldrb	r1, [r4, #27]	@ zero_extendqisi2
 438 0518 0030D6E5 		ldrb	r3, [r6, #0]	@ zero_extendqisi2
 439 051c 0020D5E5 		ldrb	r2, [r5, #0]	@ zero_extendqisi2
 440 0520 033081E0 		add	r3, r1, r3
 441 0524 FF3003E2 		and	r3, r3, #255
 442 0528 0030C6E5 		strb	r3, [r6, #0]
 443 052c 023083E0 		add	r3, r3, r2
 444 0530 0030C5E5 		strb	r3, [r5, #0]
 445 0534 480A9FE5 		ldr	r0, .L261+4
 446 0538 FEFFFFEB 		bl	uart_transmit
 447 053c 0E10DDE5 		ldrb	r1, [sp, #14]	@ zero_extendqisi2
 448 0540 0030D6E5 		ldrb	r3, [r6, #0]	@ zero_extendqisi2
 449 0544 0020D5E5 		ldrb	r2, [r5, #0]	@ zero_extendqisi2
 450 0548 033081E0 		add	r3, r1, r3
 451 054c FF3003E2 		and	r3, r3, #255
 452 0550 0030C6E5 		strb	r3, [r6, #0]
 453 0554 023083E0 		add	r3, r3, r2
 454 0558 0030C5E5 		strb	r3, [r5, #0]
 455 055c 200A9FE5 		ldr	r0, .L261+4
 456 0560 FEFFFFEB 		bl	uart_transmit
 457 0564 0F10DDE5 		ldrb	r1, [sp, #15]	@ zero_extendqisi2
 458 0568 0030D6E5 		ldrb	r3, [r6, #0]	@ zero_extendqisi2
 459 056c 0020D5E5 		ldrb	r2, [r5, #0]	@ zero_extendqisi2
 460 0570 033081E0 		add	r3, r1, r3
 461 0574 FF3003E2 		and	r3, r3, #255
 462 0578 0030C6E5 		strb	r3, [r6, #0]
 463 057c 023083E0 		add	r3, r3, r2
 464 0580 0030C5E5 		strb	r3, [r5, #0]
 465 0584 F8099FE5 		ldr	r0, .L261+4
 466 0588 FEFFFFEB 		bl	uart_transmit
 467 058c 2810D4E5 		ldrb	r1, [r4, #40]	@ zero_extendqisi2
 468 0590 0030D6E5 		ldrb	r3, [r6, #0]	@ zero_extendqisi2
 469 0594 0020D5E5 		ldrb	r2, [r5, #0]	@ zero_extendqisi2
 470 0598 033081E0 		add	r3, r1, r3
 471 059c FF3003E2 		and	r3, r3, #255
 472 05a0 0030C6E5 		strb	r3, [r6, #0]
 473 05a4 023083E0 		add	r3, r3, r2
 474 05a8 0030C5E5 		strb	r3, [r5, #0]
 475 05ac D0099FE5 		ldr	r0, .L261+4
 476 05b0 FEFFFFEB 		bl	uart_transmit
 477 05b4 2910D4E5 		ldrb	r1, [r4, #41]	@ zero_extendqisi2
 478 05b8 0030D6E5 		ldrb	r3, [r6, #0]	@ zero_extendqisi2
 479 05bc 0020D5E5 		ldrb	r2, [r5, #0]	@ zero_extendqisi2
 480 05c0 033081E0 		add	r3, r1, r3
 481 05c4 FF3003E2 		and	r3, r3, #255
 482 05c8 0030C6E5 		strb	r3, [r6, #0]
 483 05cc 023083E0 		add	r3, r3, r2
 484 05d0 0030C5E5 		strb	r3, [r5, #0]
 485 05d4 A8099FE5 		ldr	r0, .L261+4
 486 05d8 FEFFFFEB 		bl	uart_transmit
 487 05dc 2A10D4E5 		ldrb	r1, [r4, #42]	@ zero_extendqisi2
 488 05e0 0030D6E5 		ldrb	r3, [r6, #0]	@ zero_extendqisi2
 489 05e4 0020D5E5 		ldrb	r2, [r5, #0]	@ zero_extendqisi2
 490 05e8 033081E0 		add	r3, r1, r3
 491 05ec FF3003E2 		and	r3, r3, #255
 492 05f0 0030C6E5 		strb	r3, [r6, #0]
 493 05f4 023083E0 		add	r3, r3, r2
 494 05f8 0030C5E5 		strb	r3, [r5, #0]
 495 05fc 80099FE5 		ldr	r0, .L261+4
 496 0600 FEFFFFEB 		bl	uart_transmit
 497 0604 2B10D4E5 		ldrb	r1, [r4, #43]	@ zero_extendqisi2
 498 0608 0030D6E5 		ldrb	r3, [r6, #0]	@ zero_extendqisi2
 499 060c 0020D5E5 		ldrb	r2, [r5, #0]	@ zero_extendqisi2
 500 0610 033081E0 		add	r3, r1, r3
 501 0614 FF3003E2 		and	r3, r3, #255
 502 0618 0030C6E5 		strb	r3, [r6, #0]
 503 061c 023083E0 		add	r3, r3, r2
 504 0620 0030C5E5 		strb	r3, [r5, #0]
 505 0624 58099FE5 		ldr	r0, .L261+4
 506 0628 FEFFFFEB 		bl	uart_transmit
 507 062c 4410D4E5 		ldrb	r1, [r4, #68]	@ zero_extendqisi2
 508 0630 0030D6E5 		ldrb	r3, [r6, #0]	@ zero_extendqisi2
 509 0634 0020D5E5 		ldrb	r2, [r5, #0]	@ zero_extendqisi2
 510 0638 033081E0 		add	r3, r1, r3
 511 063c FF3003E2 		and	r3, r3, #255
 512 0640 0030C6E5 		strb	r3, [r6, #0]
 513 0644 023083E0 		add	r3, r3, r2
 514 0648 0030C5E5 		strb	r3, [r5, #0]
 515 064c 30099FE5 		ldr	r0, .L261+4
 516 0650 FEFFFFEB 		bl	uart_transmit
 517 0654 4510D4E5 		ldrb	r1, [r4, #69]	@ zero_extendqisi2
 518 0658 0030D6E5 		ldrb	r3, [r6, #0]	@ zero_extendqisi2
 519 065c 0020D5E5 		ldrb	r2, [r5, #0]	@ zero_extendqisi2
 520 0660 033081E0 		add	r3, r1, r3
 521 0664 FF3003E2 		and	r3, r3, #255
 522 0668 0030C6E5 		strb	r3, [r6, #0]
 523 066c 023083E0 		add	r3, r3, r2
 524 0670 0030C5E5 		strb	r3, [r5, #0]
 525 0674 08099FE5 		ldr	r0, .L261+4
 526 0678 FEFFFFEB 		bl	uart_transmit
 527 067c 0C10DDE5 		ldrb	r1, [sp, #12]	@ zero_extendqisi2
 528 0680 0030D6E5 		ldrb	r3, [r6, #0]	@ zero_extendqisi2
 529 0684 0020D5E5 		ldrb	r2, [r5, #0]	@ zero_extendqisi2
 530 0688 033081E0 		add	r3, r1, r3
 531 068c FF3003E2 		and	r3, r3, #255
 532 0690 0030C6E5 		strb	r3, [r6, #0]
 533 0694 023083E0 		add	r3, r3, r2
 534 0698 0030C5E5 		strb	r3, [r5, #0]
 535 069c E0089FE5 		ldr	r0, .L261+4
 536 06a0 FEFFFFEB 		bl	uart_transmit
 537 06a4 0D10DDE5 		ldrb	r1, [sp, #13]	@ zero_extendqisi2
 538 06a8 0030D6E5 		ldrb	r3, [r6, #0]	@ zero_extendqisi2
 539 06ac 0020D5E5 		ldrb	r2, [r5, #0]	@ zero_extendqisi2
 540 06b0 033081E0 		add	r3, r1, r3
 541 06b4 FF3003E2 		and	r3, r3, #255
 542 06b8 0030C6E5 		strb	r3, [r6, #0]
 543 06bc 023083E0 		add	r3, r3, r2
 544 06c0 0030C5E5 		strb	r3, [r5, #0]
 545 06c4 B8089FE5 		ldr	r0, .L261+4
 546 06c8 FEFFFFEB 		bl	uart_transmit
 547 06cc 5C10D4E5 		ldrb	r1, [r4, #92]	@ zero_extendqisi2
 548 06d0 0030D6E5 		ldrb	r3, [r6, #0]	@ zero_extendqisi2
 549 06d4 0020D5E5 		ldrb	r2, [r5, #0]	@ zero_extendqisi2
 550 06d8 033081E0 		add	r3, r1, r3
 551 06dc FF3003E2 		and	r3, r3, #255
 552 06e0 0030C6E5 		strb	r3, [r6, #0]
 553 06e4 023083E0 		add	r3, r3, r2
 554 06e8 0030C5E5 		strb	r3, [r5, #0]
 555 06ec 90089FE5 		ldr	r0, .L261+4
 556 06f0 FEFFFFEB 		bl	uart_transmit
 557 06f4 5D10D4E5 		ldrb	r1, [r4, #93]	@ zero_extendqisi2
 558 06f8 0030D6E5 		ldrb	r3, [r6, #0]	@ zero_extendqisi2
 559 06fc 0020D5E5 		ldrb	r2, [r5, #0]	@ zero_extendqisi2
 560 0700 033081E0 		add	r3, r1, r3
 561 0704 FF3003E2 		and	r3, r3, #255
 562 0708 0030C6E5 		strb	r3, [r6, #0]
 563 070c 023083E0 		add	r3, r3, r2
 564 0710 0030C5E5 		strb	r3, [r5, #0]
 565 0714 68089FE5 		ldr	r0, .L261+4
 566 0718 FEFFFFEB 		bl	uart_transmit
 567 071c 6010D4E5 		ldrb	r1, [r4, #96]	@ zero_extendqisi2
 568 0720 0030D6E5 		ldrb	r3, [r6, #0]	@ zero_extendqisi2
 569 0724 0020D5E5 		ldrb	r2, [r5, #0]	@ zero_extendqisi2
 570 0728 033081E0 		add	r3, r1, r3
 571 072c FF3003E2 		and	r3, r3, #255
 572 0730 0030C6E5 		strb	r3, [r6, #0]
 573 0734 023083E0 		add	r3, r3, r2
 574 0738 0030C5E5 		strb	r3, [r5, #0]
 575 073c 40089FE5 		ldr	r0, .L261+4
 576 0740 FEFFFFEB 		bl	uart_transmit
 577 0744 6110D4E5 		ldrb	r1, [r4, #97]	@ zero_extendqisi2
 578 0748 0030D6E5 		ldrb	r3, [r6, #0]	@ zero_extendqisi2
 579 074c 0020D5E5 		ldrb	r2, [r5, #0]	@ zero_extendqisi2
 580 0750 033081E0 		add	r3, r1, r3
 581 0754 FF3003E2 		and	r3, r3, #255
 582 0758 0030C6E5 		strb	r3, [r6, #0]
 583 075c 023083E0 		add	r3, r3, r2
 584 0760 0030C5E5 		strb	r3, [r5, #0]
 585 0764 18089FE5 		ldr	r0, .L261+4
 586 0768 FEFFFFEB 		bl	uart_transmit
 587 076c 6210D4E5 		ldrb	r1, [r4, #98]	@ zero_extendqisi2
 588 0770 0030D6E5 		ldrb	r3, [r6, #0]	@ zero_extendqisi2
 589 0774 0020D5E5 		ldrb	r2, [r5, #0]	@ zero_extendqisi2
 590 0778 033081E0 		add	r3, r1, r3
 591 077c FF3003E2 		and	r3, r3, #255
 592 0780 0030C6E5 		strb	r3, [r6, #0]
 593 0784 023083E0 		add	r3, r3, r2
 594 0788 0030C5E5 		strb	r3, [r5, #0]
 595 078c F0079FE5 		ldr	r0, .L261+4
 596 0790 FEFFFFEB 		bl	uart_transmit
 597 0794 6310D4E5 		ldrb	r1, [r4, #99]	@ zero_extendqisi2
 598 0798 0030D6E5 		ldrb	r3, [r6, #0]	@ zero_extendqisi2
 599 079c 0020D5E5 		ldrb	r2, [r5, #0]	@ zero_extendqisi2
 600 07a0 033081E0 		add	r3, r1, r3
 601 07a4 FF3003E2 		and	r3, r3, #255
 602 07a8 0030C6E5 		strb	r3, [r6, #0]
 603 07ac 023083E0 		add	r3, r3, r2
 604 07b0 0030C5E5 		strb	r3, [r5, #0]
 605 07b4 C8079FE5 		ldr	r0, .L261+4
 606 07b8 FEFFFFEB 		bl	uart_transmit
 607 07bc 2410D4E5 		ldrb	r1, [r4, #36]	@ zero_extendqisi2
 608 07c0 0030D6E5 		ldrb	r3, [r6, #0]	@ zero_extendqisi2
 609 07c4 0020D5E5 		ldrb	r2, [r5, #0]	@ zero_extendqisi2
 610 07c8 033081E0 		add	r3, r1, r3
 611 07cc FF3003E2 		and	r3, r3, #255
 612 07d0 0030C6E5 		strb	r3, [r6, #0]
 613 07d4 023083E0 		add	r3, r3, r2
 614 07d8 0030C5E5 		strb	r3, [r5, #0]
 615 07dc A0079FE5 		ldr	r0, .L261+4
 616 07e0 FEFFFFEB 		bl	uart_transmit
 617 07e4 E4379FE5 		ldr	r3, .L261+80
 618 07e8 0010D3E5 		ldrb	r1, [r3, #0]	@ zero_extendqisi2
 619 07ec 0030D6E5 		ldrb	r3, [r6, #0]	@ zero_extendqisi2
 620 07f0 0020D5E5 		ldrb	r2, [r5, #0]	@ zero_extendqisi2
 621 07f4 033081E0 		add	r3, r1, r3
 622 07f8 FF3003E2 		and	r3, r3, #255
 623 07fc 0030C6E5 		strb	r3, [r6, #0]
 624 0800 023083E0 		add	r3, r3, r2
 625 0804 0030C5E5 		strb	r3, [r5, #0]
 626 0808 74079FE5 		ldr	r0, .L261+4
 627 080c FEFFFFEB 		bl	uart_transmit
 628 0810 0010D6E5 		ldrb	r1, [r6, #0]	@ zero_extendqisi2
 629 0814 68079FE5 		ldr	r0, .L261+4
 630 0818 FEFFFFEB 		bl	uart_transmit
 631 081c 60079FE5 		ldr	r0, .L261+4
 632 0820 0010D5E5 		ldrb	r1, [r5, #0]	@ zero_extendqisi2
 633 0824 FEFFFFEB 		bl	uart_transmit
 634 0828 030000EA 		b	.L25
 635              	.L24:
 636 082c 04389FE5 		ldr	r3, .L261+184
 637 0830 0020D3E5 		ldrb	r2, [r3, #0]	@ zero_extendqisi2
 638 0834 012082E2 		add	r2, r2, #1
 639 0838 0020C3E5 		strb	r2, [r3, #0]
 640              	.L25:
 641 083c 7C279FE5 		ldr	r2, .L261+64
 642 0840 5B30D2E5 		ldrb	r3, [r2, #91]	@ zero_extendqisi2
 643 0844 030053E3 		cmp	r3, #3
 644 0848 80379FE5 		ldr	r3, .L261+80
 645 084c 0400000A 		beq	.L26
 646 0850 6410D2E5 		ldrb	r1, [r2, #100]	@ zero_extendqisi2
 647 0854 0000D3E5 		ldrb	r0, [r3, #0]	@ zero_extendqisi2
 648 0858 010050E1 		cmp	r0, r1
 649 085c 0010A023 		movcs	r1, #0
 650 0860 0010C325 		strcsb	r1, [r3, #0]
 651              	.L26:
 652 0864 0030D3E5 		ldrb	r3, [r3, #0]	@ zero_extendqisi2
 653 0868 6420D2E5 		ldrb	r2, [r2, #100]	@ zero_extendqisi2
 654 086c 820053E1 		cmp	r3, r2, asl #1
 655 0870 58379FA5 		ldrge	r3, .L261+80
 656 0874 0010A0A3 		movge	r1, #0
 657 0878 0010C3A5 		strgeb	r1, [r3, #0]
 658 087c 4C679FE5 		ldr	r6, .L261+80
 659 0880 0030D6E5 		ldrb	r3, [r6, #0]	@ zero_extendqisi2
 660 0884 020053E1 		cmp	r3, r2
 661 0888 9400002A 		bcs	.L28
 662 088c 2C779FE5 		ldr	r7, .L261+64
 663 0890 833187E0 		add	r3, r7, r3, asl #3
 664 0894 6930D3E5 		ldrb	r3, [r3, #105]	@ zero_extendqisi2
 665 0898 000053E3 		cmp	r3, #0
 666 089c 8F00000A 		beq	.L28
 667 08a0 DC069FE5 		ldr	r0, .L261+4
 668 08a4 0E10A0E3 		mov	r1, #14
 669 08a8 FEFFFFEB 		bl	uart_check_free_space
 670 08ac 000050E3 		cmp	r0, #0
 671 08b0 8600000A 		beq	.L29
 672 08b4 40379FE5 		ldr	r3, .L261+124
 673 08b8 B020D3E1 		ldrh	r2, [r3, #0]
 674 08bc 0E2082E2 		add	r2, r2, #14
 675 08c0 B020C3E1 		strh	r2, [r3, #0]	@ movhi
 676 08c4 48379FE5 		ldr	r3, .L261+148
 677 08c8 B020D3E1 		ldrh	r2, [r3, #0]
 678 08cc 012082E2 		add	r2, r2, #1
 679 08d0 B020C3E1 		strh	r2, [r3, #0]	@ movhi
 680 08d4 A8069FE5 		ldr	r0, .L261+4
 681 08d8 9910A0E3 		mov	r1, #153
 682 08dc 34579FE5 		ldr	r5, .L261+152
 683 08e0 FEFFFFEB 		bl	uart_transmit
 684 08e4 98069FE5 		ldr	r0, .L261+4
 685 08e8 0E10A0E3 		mov	r1, #14
 686 08ec 50479FE5 		ldr	r4, .L261+196
 687 08f0 FEFFFFEB 		bl	uart_transmit
 688 08f4 1030A0E3 		mov	r3, #16
 689 08f8 0030C5E5 		strb	r3, [r5, #0]
 690 08fc 1E30A0E3 		mov	r3, #30
 691 0900 0030C4E5 		strb	r3, [r4, #0]
 692 0904 78069FE5 		ldr	r0, .L261+4
 693 0908 0210A0E3 		mov	r1, #2
 694 090c FEFFFFEB 		bl	uart_transmit
 695 0910 0030D5E5 		ldrb	r3, [r5, #0]	@ zero_extendqisi2
 696 0914 0020D4E5 		ldrb	r2, [r4, #0]	@ zero_extendqisi2
 697 0918 193083E2 		add	r3, r3, #25
 698 091c FF3003E2 		and	r3, r3, #255
 699 0920 0030C5E5 		strb	r3, [r5, #0]
 700 0924 023083E0 		add	r3, r3, r2
 701 0928 0030C4E5 		strb	r3, [r4, #0]
 702 092c 50069FE5 		ldr	r0, .L261+4
 703 0930 1910A0E3 		mov	r1, #25
 704 0934 FEFFFFEB 		bl	uart_transmit
 705 0938 0010D6E5 		ldrb	r1, [r6, #0]	@ zero_extendqisi2
 706 093c 0030D5E5 		ldrb	r3, [r5, #0]	@ zero_extendqisi2
 707 0940 0020D4E5 		ldrb	r2, [r4, #0]	@ zero_extendqisi2
 708 0944 033081E0 		add	r3, r1, r3
 709 0948 FF3003E2 		and	r3, r3, #255
 710 094c 0030C5E5 		strb	r3, [r5, #0]
 711 0950 023083E0 		add	r3, r3, r2
 712 0954 0030C4E5 		strb	r3, [r4, #0]
 713 0958 24069FE5 		ldr	r0, .L261+4
 714 095c FEFFFFEB 		bl	uart_transmit
 715 0960 0030D6E5 		ldrb	r3, [r6, #0]	@ zero_extendqisi2
 716 0964 833187E0 		add	r3, r7, r3, asl #3
 717 0968 6610D3E5 		ldrb	r1, [r3, #102]	@ zero_extendqisi2
 718 096c 0030D5E5 		ldrb	r3, [r5, #0]	@ zero_extendqisi2
 719 0970 0020D4E5 		ldrb	r2, [r4, #0]	@ zero_extendqisi2
 720 0974 033081E0 		add	r3, r1, r3
 721 0978 FF3003E2 		and	r3, r3, #255
 722 097c 0030C5E5 		strb	r3, [r5, #0]
 723 0980 023083E0 		add	r3, r3, r2
 724 0984 0030C4E5 		strb	r3, [r4, #0]
 725 0988 F4059FE5 		ldr	r0, .L261+4
 726 098c FEFFFFEB 		bl	uart_transmit
 727 0990 0030D6E5 		ldrb	r3, [r6, #0]	@ zero_extendqisi2
 728 0994 833187E0 		add	r3, r7, r3, asl #3
 729 0998 6710D3E5 		ldrb	r1, [r3, #103]	@ zero_extendqisi2
 730 099c 0030D5E5 		ldrb	r3, [r5, #0]	@ zero_extendqisi2
 731 09a0 0020D4E5 		ldrb	r2, [r4, #0]	@ zero_extendqisi2
 732 09a4 033081E0 		add	r3, r1, r3
 733 09a8 FF3003E2 		and	r3, r3, #255
 734 09ac 0030C5E5 		strb	r3, [r5, #0]
 735 09b0 023083E0 		add	r3, r3, r2
 736 09b4 0030C4E5 		strb	r3, [r4, #0]
 737 09b8 C4059FE5 		ldr	r0, .L261+4
 738 09bc FEFFFFEB 		bl	uart_transmit
 739 09c0 0030D6E5 		ldrb	r3, [r6, #0]	@ zero_extendqisi2
 740 09c4 833187E0 		add	r3, r7, r3, asl #3
 741 09c8 6810D3E5 		ldrb	r1, [r3, #104]	@ zero_extendqisi2
 742 09cc 0030D5E5 		ldrb	r3, [r5, #0]	@ zero_extendqisi2
 743 09d0 0020D4E5 		ldrb	r2, [r4, #0]	@ zero_extendqisi2
 744 09d4 033081E0 		add	r3, r1, r3
 745 09d8 FF3003E2 		and	r3, r3, #255
 746 09dc 0030C5E5 		strb	r3, [r5, #0]
 747 09e0 023083E0 		add	r3, r3, r2
 748 09e4 0030C4E5 		strb	r3, [r4, #0]
 749 09e8 94059FE5 		ldr	r0, .L261+4
 750 09ec FEFFFFEB 		bl	uart_transmit
 751 09f0 0030D6E5 		ldrb	r3, [r6, #0]	@ zero_extendqisi2
 752 09f4 833187E0 		add	r3, r7, r3, asl #3
 753 09f8 6910D3E5 		ldrb	r1, [r3, #105]	@ zero_extendqisi2
 754 09fc 0030D5E5 		ldrb	r3, [r5, #0]	@ zero_extendqisi2
 755 0a00 0020D4E5 		ldrb	r2, [r4, #0]	@ zero_extendqisi2
 756 0a04 033081E0 		add	r3, r1, r3
 757 0a08 FF3003E2 		and	r3, r3, #255
 758 0a0c 0030C5E5 		strb	r3, [r5, #0]
 759 0a10 023083E0 		add	r3, r3, r2
 760 0a14 0030C4E5 		strb	r3, [r4, #0]
 761 0a18 64059FE5 		ldr	r0, .L261+4
 762 0a1c FEFFFFEB 		bl	uart_transmit
 763 0a20 0030D6E5 		ldrb	r3, [r6, #0]	@ zero_extendqisi2
 764 0a24 833187E0 		add	r3, r7, r3, asl #3
 765 0a28 6A10D3E5 		ldrb	r1, [r3, #106]	@ zero_extendqisi2
 766 0a2c 0030D5E5 		ldrb	r3, [r5, #0]	@ zero_extendqisi2
 767 0a30 0020D4E5 		ldrb	r2, [r4, #0]	@ zero_extendqisi2
 768 0a34 033081E0 		add	r3, r1, r3
 769 0a38 FF3003E2 		and	r3, r3, #255
 770 0a3c 0030C5E5 		strb	r3, [r5, #0]
 771 0a40 023083E0 		add	r3, r3, r2
 772 0a44 0030C4E5 		strb	r3, [r4, #0]
 773 0a48 34059FE5 		ldr	r0, .L261+4
 774 0a4c FEFFFFEB 		bl	uart_transmit
 775 0a50 0030D6E5 		ldrb	r3, [r6, #0]	@ zero_extendqisi2
 776 0a54 0C7087E2 		add	r7, r7, #12
 777 0a58 0C3083E2 		add	r3, r3, #12
 778 0a5c 8311D7E7 		ldrb	r1, [r7, r3, asl #3]	@ zero_extendqisi2
 779 0a60 0030D5E5 		ldrb	r3, [r5, #0]	@ zero_extendqisi2
 780 0a64 0020D4E5 		ldrb	r2, [r4, #0]	@ zero_extendqisi2
 781 0a68 033081E0 		add	r3, r1, r3
 782 0a6c FF3003E2 		and	r3, r3, #255
 783 0a70 0030C5E5 		strb	r3, [r5, #0]
 784 0a74 023083E0 		add	r3, r3, r2
 785 0a78 0030C4E5 		strb	r3, [r4, #0]
 786 0a7c 00059FE5 		ldr	r0, .L261+4
 787 0a80 FEFFFFEB 		bl	uart_transmit
 788 0a84 0030D6E5 		ldrb	r3, [r6, #0]	@ zero_extendqisi2
 789 0a88 837187E0 		add	r7, r7, r3, asl #3
 790 0a8c 6110D7E5 		ldrb	r1, [r7, #97]	@ zero_extendqisi2
 791 0a90 0030D5E5 		ldrb	r3, [r5, #0]	@ zero_extendqisi2
 792 0a94 0020D4E5 		ldrb	r2, [r4, #0]	@ zero_extendqisi2
 793 0a98 033081E0 		add	r3, r1, r3
 794 0a9c FF3003E2 		and	r3, r3, #255
 795 0aa0 0030C5E5 		strb	r3, [r5, #0]
 796 0aa4 023083E0 		add	r3, r3, r2
 797 0aa8 0030C4E5 		strb	r3, [r4, #0]
 798 0aac D0049FE5 		ldr	r0, .L261+4
 799 0ab0 FEFFFFEB 		bl	uart_transmit
 800 0ab4 0010D5E5 		ldrb	r1, [r5, #0]	@ zero_extendqisi2
 801 0ab8 C4049FE5 		ldr	r0, .L261+4
 802 0abc FEFFFFEB 		bl	uart_transmit
 803 0ac0 BC049FE5 		ldr	r0, .L261+4
 804 0ac4 0010D4E5 		ldrb	r1, [r4, #0]	@ zero_extendqisi2
 805 0ac8 FEFFFFEB 		bl	uart_transmit
 806 0acc 030000EA 		b	.L28
 807              	.L29:
 808 0ad0 60359FE5 		ldr	r3, .L261+184
 809 0ad4 0020D3E5 		ldrb	r2, [r3, #0]	@ zero_extendqisi2
 810 0ad8 012082E2 		add	r2, r2, #1
 811 0adc 0020C3E5 		strb	r2, [r3, #0]
 812              	.L28:
 813 0ae0 E8349FE5 		ldr	r3, .L261+80
 814 0ae4 0020D3E5 		ldrb	r2, [r3, #0]	@ zero_extendqisi2
 815 0ae8 012082E2 		add	r2, r2, #1
 816 0aec 0020C3E5 		strb	r2, [r3, #0]
 817              	.L23:
 818 0af0 98349FE5 		ldr	r3, .L261+16
 819 0af4 0030D3E5 		ldrb	r3, [r3, #0]	@ zero_extendqisi2
 820 0af8 000053E3 		cmp	r3, #0
 821 0afc 8200001A 		bne	.L30
 822 0b00 7C049FE5 		ldr	r0, .L261+4
 823 0b04 0E10A0E3 		mov	r1, #14
 824 0b08 FEFFFFEB 		bl	uart_check_free_space
 825 0b0c 000050E3 		cmp	r0, #0
 826 0b10 7900000A 		beq	.L31
 827 0b14 E0349FE5 		ldr	r3, .L261+124
 828 0b18 B020D3E1 		ldrh	r2, [r3, #0]
 829 0b1c 0E2082E2 		add	r2, r2, #14
 830 0b20 B020C3E1 		strh	r2, [r3, #0]	@ movhi
 831 0b24 E8349FE5 		ldr	r3, .L261+148
 832 0b28 B020D3E1 		ldrh	r2, [r3, #0]
 833 0b2c 012082E2 		add	r2, r2, #1
 834 0b30 B020C3E1 		strh	r2, [r3, #0]	@ movhi
 835 0b34 48049FE5 		ldr	r0, .L261+4
 836 0b38 9910A0E3 		mov	r1, #153
 837 0b3c D4549FE5 		ldr	r5, .L261+152
 838 0b40 FEFFFFEB 		bl	uart_transmit
 839 0b44 38049FE5 		ldr	r0, .L261+4
 840 0b48 0E10A0E3 		mov	r1, #14
 841 0b4c F0449FE5 		ldr	r4, .L261+196
 842 0b50 FEFFFFEB 		bl	uart_transmit
 843 0b54 1030A0E3 		mov	r3, #16
 844 0b58 0030C5E5 		strb	r3, [r5, #0]
 845 0b5c 1E30A0E3 		mov	r3, #30
 846 0b60 0030C4E5 		strb	r3, [r4, #0]
 847 0b64 18049FE5 		ldr	r0, .L261+4
 848 0b68 0210A0E3 		mov	r1, #2
 849 0b6c FEFFFFEB 		bl	uart_transmit
 850 0b70 0030D5E5 		ldrb	r3, [r5, #0]	@ zero_extendqisi2
 851 0b74 0020D4E5 		ldrb	r2, [r4, #0]	@ zero_extendqisi2
 852 0b78 2A3083E2 		add	r3, r3, #42
 853 0b7c FF3003E2 		and	r3, r3, #255
 854 0b80 4C649FE5 		ldr	r6, .L261+84
 855 0b84 0030C5E5 		strb	r3, [r5, #0]
 856 0b88 023083E0 		add	r3, r3, r2
 857 0b8c 0030C4E5 		strb	r3, [r4, #0]
 858 0b90 EC039FE5 		ldr	r0, .L261+4
 859 0b94 2A10A0E3 		mov	r1, #42
 860 0b98 FEFFFFEB 		bl	uart_transmit
 861 0b9c 0010D6E5 		ldrb	r1, [r6, #0]	@ zero_extendqisi2
 862 0ba0 0030D5E5 		ldrb	r3, [r5, #0]	@ zero_extendqisi2
 863 0ba4 0020D4E5 		ldrb	r2, [r4, #0]	@ zero_extendqisi2
 864 0ba8 033081E0 		add	r3, r1, r3
 865 0bac FF3003E2 		and	r3, r3, #255
 866 0bb0 0030C5E5 		strb	r3, [r5, #0]
 867 0bb4 023083E0 		add	r3, r3, r2
 868 0bb8 0030C4E5 		strb	r3, [r4, #0]
 869 0bbc C0039FE5 		ldr	r0, .L261+4
 870 0bc0 FEFFFFEB 		bl	uart_transmit
 871 0bc4 0110D6E5 		ldrb	r1, [r6, #1]	@ zero_extendqisi2
 872 0bc8 0030D5E5 		ldrb	r3, [r5, #0]	@ zero_extendqisi2
 873 0bcc 0020D4E5 		ldrb	r2, [r4, #0]	@ zero_extendqisi2
 874 0bd0 033081E0 		add	r3, r1, r3
 875 0bd4 FF3003E2 		and	r3, r3, #255
 876 0bd8 0030C5E5 		strb	r3, [r5, #0]
 877 0bdc 023083E0 		add	r3, r3, r2
 878 0be0 0030C4E5 		strb	r3, [r4, #0]
 879 0be4 98039FE5 		ldr	r0, .L261+4
 880 0be8 FEFFFFEB 		bl	uart_transmit
 881 0bec 0210D6E5 		ldrb	r1, [r6, #2]	@ zero_extendqisi2
 882 0bf0 0030D5E5 		ldrb	r3, [r5, #0]	@ zero_extendqisi2
 883 0bf4 0020D4E5 		ldrb	r2, [r4, #0]	@ zero_extendqisi2
 884 0bf8 033081E0 		add	r3, r1, r3
 885 0bfc FF3003E2 		and	r3, r3, #255
 886 0c00 0030C5E5 		strb	r3, [r5, #0]
 887 0c04 023083E0 		add	r3, r3, r2
 888 0c08 0030C4E5 		strb	r3, [r4, #0]
 889 0c0c 70039FE5 		ldr	r0, .L261+4
 890 0c10 FEFFFFEB 		bl	uart_transmit
 891 0c14 0310D6E5 		ldrb	r1, [r6, #3]	@ zero_extendqisi2
 892 0c18 0030D5E5 		ldrb	r3, [r5, #0]	@ zero_extendqisi2
 893 0c1c 0020D4E5 		ldrb	r2, [r4, #0]	@ zero_extendqisi2
 894 0c20 033081E0 		add	r3, r1, r3
 895 0c24 FF3003E2 		and	r3, r3, #255
 896 0c28 A8639FE5 		ldr	r6, .L261+88
 897 0c2c 0030C5E5 		strb	r3, [r5, #0]
 898 0c30 023083E0 		add	r3, r3, r2
 899 0c34 0030C4E5 		strb	r3, [r4, #0]
 900 0c38 44039FE5 		ldr	r0, .L261+4
 901 0c3c FEFFFFEB 		bl	uart_transmit
 902 0c40 0010D6E5 		ldrb	r1, [r6, #0]	@ zero_extendqisi2
 903 0c44 0030D5E5 		ldrb	r3, [r5, #0]	@ zero_extendqisi2
 904 0c48 0020D4E5 		ldrb	r2, [r4, #0]	@ zero_extendqisi2
 905 0c4c 033081E0 		add	r3, r1, r3
 906 0c50 FF3003E2 		and	r3, r3, #255
 907 0c54 0030C5E5 		strb	r3, [r5, #0]
 908 0c58 023083E0 		add	r3, r3, r2
 909 0c5c 0030C4E5 		strb	r3, [r4, #0]
 910 0c60 1C039FE5 		ldr	r0, .L261+4
 911 0c64 FEFFFFEB 		bl	uart_transmit
 912 0c68 0110D6E5 		ldrb	r1, [r6, #1]	@ zero_extendqisi2
 913 0c6c 0030D5E5 		ldrb	r3, [r5, #0]	@ zero_extendqisi2
 914 0c70 0020D4E5 		ldrb	r2, [r4, #0]	@ zero_extendqisi2
 915 0c74 033081E0 		add	r3, r1, r3
 916 0c78 FF3003E2 		and	r3, r3, #255
 917 0c7c 0030C5E5 		strb	r3, [r5, #0]
 918 0c80 023083E0 		add	r3, r3, r2
 919 0c84 0030C4E5 		strb	r3, [r4, #0]
 920 0c88 F4029FE5 		ldr	r0, .L261+4
 921 0c8c FEFFFFEB 		bl	uart_transmit
 922 0c90 0210D6E5 		ldrb	r1, [r6, #2]	@ zero_extendqisi2
 923 0c94 0030D5E5 		ldrb	r3, [r5, #0]	@ zero_extendqisi2
 924 0c98 0020D4E5 		ldrb	r2, [r4, #0]	@ zero_extendqisi2
 925 0c9c 033081E0 		add	r3, r1, r3
 926 0ca0 FF3003E2 		and	r3, r3, #255
 927 0ca4 0030C5E5 		strb	r3, [r5, #0]
 928 0ca8 023083E0 		add	r3, r3, r2
 929 0cac 0030C4E5 		strb	r3, [r4, #0]
 930 0cb0 CC029FE5 		ldr	r0, .L261+4
 931 0cb4 FEFFFFEB 		bl	uart_transmit
 932 0cb8 0310D6E5 		ldrb	r1, [r6, #3]	@ zero_extendqisi2
 933 0cbc 0030D5E5 		ldrb	r3, [r5, #0]	@ zero_extendqisi2
 934 0cc0 0020D4E5 		ldrb	r2, [r4, #0]	@ zero_extendqisi2
 935 0cc4 033081E0 		add	r3, r1, r3
 936 0cc8 FF3003E2 		and	r3, r3, #255
 937 0ccc 0030C5E5 		strb	r3, [r5, #0]
 938 0cd0 023083E0 		add	r3, r3, r2
 939 0cd4 0030C4E5 		strb	r3, [r4, #0]
 940 0cd8 A4029FE5 		ldr	r0, .L261+4
 941 0cdc FEFFFFEB 		bl	uart_transmit
 942 0ce0 0010D5E5 		ldrb	r1, [r5, #0]	@ zero_extendqisi2
 943 0ce4 98029FE5 		ldr	r0, .L261+4
 944 0ce8 FEFFFFEB 		bl	uart_transmit
 945 0cec 90029FE5 		ldr	r0, .L261+4
 946 0cf0 0010D4E5 		ldrb	r1, [r4, #0]	@ zero_extendqisi2
 947 0cf4 FEFFFFEB 		bl	uart_transmit
 948 0cf8 030000EA 		b	.L30
 949              	.L31:
 950 0cfc 34339FE5 		ldr	r3, .L261+184
 951 0d00 0020D3E5 		ldrb	r2, [r3, #0]	@ zero_extendqisi2
 952 0d04 012082E2 		add	r2, r2, #1
 953 0d08 0020C3E5 		strb	r2, [r3, #0]
 954              	.L30:
 955 0d0c 80329FE5 		ldr	r3, .L261+20
 956 0d10 0060D3E5 		ldrb	r6, [r3, #0]	@ zero_extendqisi2
 957 0d14 060056E3 		cmp	r6, #6
 958 0d18 DA00001A 		bne	.L32
 959 0d1c 60029FE5 		ldr	r0, .L261+4
 960 0d20 1210A0E3 		mov	r1, #18
 961 0d24 FEFFFFEB 		bl	uart_check_free_space
 962 0d28 000050E3 		cmp	r0, #0
 963 0d2c B501000A 		beq	.L36
 964 0d30 C4329FE5 		ldr	r3, .L261+124
 965 0d34 B020D3E1 		ldrh	r2, [r3, #0]
 966 0d38 122082E2 		add	r2, r2, #18
 967 0d3c B020C3E1 		strh	r2, [r3, #0]	@ movhi
 968 0d40 CC329FE5 		ldr	r3, .L261+148
 969 0d44 B020D3E1 		ldrh	r2, [r3, #0]
 970 0d48 012082E2 		add	r2, r2, #1
 971 0d4c B020C3E1 		strh	r2, [r3, #0]	@ movhi
 972 0d50 2C029FE5 		ldr	r0, .L261+4
 973 0d54 9910A0E3 		mov	r1, #153
 974 0d58 B8529FE5 		ldr	r5, .L261+152
 975 0d5c FEFFFFEB 		bl	uart_transmit
 976 0d60 1C029FE5 		ldr	r0, .L261+4
 977 0d64 1210A0E3 		mov	r1, #18
 978 0d68 D4429FE5 		ldr	r4, .L261+196
 979 0d6c FEFFFFEB 		bl	uart_transmit
 980 0d70 1430A0E3 		mov	r3, #20
 981 0d74 0030C5E5 		strb	r3, [r5, #0]
 982 0d78 2630A0E3 		mov	r3, #38
 983 0d7c 0030C4E5 		strb	r3, [r4, #0]
 984 0d80 FC019FE5 		ldr	r0, .L261+4
 985 0d84 0210A0E3 		mov	r1, #2
 986 0d88 FEFFFFEB 		bl	uart_transmit
 987 0d8c 0030D5E5 		ldrb	r3, [r5, #0]	@ zero_extendqisi2
 988 0d90 0020D4E5 		ldrb	r2, [r4, #0]	@ zero_extendqisi2
 989 0d94 063083E2 		add	r3, r3, #6
 990 0d98 FF3003E2 		and	r3, r3, #255
 991 0d9c 0610A0E1 		mov	r1, r6
 992 0da0 0030C5E5 		strb	r3, [r5, #0]
 993 0da4 30629FE5 		ldr	r6, .L261+92
 994 0da8 023083E0 		add	r3, r3, r2
 995 0dac 0030C4E5 		strb	r3, [r4, #0]
 996 0db0 CC019FE5 		ldr	r0, .L261+4
 997 0db4 FEFFFFEB 		bl	uart_transmit
 998 0db8 0010D6E5 		ldrb	r1, [r6, #0]	@ zero_extendqisi2
 999 0dbc 0030D5E5 		ldrb	r3, [r5, #0]	@ zero_extendqisi2
 1000 0dc0 0020D4E5 		ldrb	r2, [r4, #0]	@ zero_extendqisi2
 1001 0dc4 033081E0 		add	r3, r1, r3
 1002 0dc8 FF3003E2 		and	r3, r3, #255
 1003 0dcc 0030C5E5 		strb	r3, [r5, #0]
 1004 0dd0 023083E0 		add	r3, r3, r2
 1005 0dd4 0030C4E5 		strb	r3, [r4, #0]
 1006 0dd8 A4019FE5 		ldr	r0, .L261+4
 1007 0ddc FEFFFFEB 		bl	uart_transmit
 1008 0de0 0110D6E5 		ldrb	r1, [r6, #1]	@ zero_extendqisi2
 1009 0de4 0030D5E5 		ldrb	r3, [r5, #0]	@ zero_extendqisi2
 1010 0de8 0020D4E5 		ldrb	r2, [r4, #0]	@ zero_extendqisi2
 1011 0dec 033081E0 		add	r3, r1, r3
 1012 0df0 FF3003E2 		and	r3, r3, #255
 1013 0df4 0030C5E5 		strb	r3, [r5, #0]
 1014 0df8 023083E0 		add	r3, r3, r2
 1015 0dfc 0030C4E5 		strb	r3, [r4, #0]
 1016 0e00 7C019FE5 		ldr	r0, .L261+4
 1017 0e04 FEFFFFEB 		bl	uart_transmit
 1018 0e08 0210D6E5 		ldrb	r1, [r6, #2]	@ zero_extendqisi2
 1019 0e0c 0030D5E5 		ldrb	r3, [r5, #0]	@ zero_extendqisi2
 1020 0e10 0020D4E5 		ldrb	r2, [r4, #0]	@ zero_extendqisi2
 1021 0e14 033081E0 		add	r3, r1, r3
 1022 0e18 FF3003E2 		and	r3, r3, #255
 1023 0e1c 0030C5E5 		strb	r3, [r5, #0]
 1024 0e20 023083E0 		add	r3, r3, r2
 1025 0e24 0030C4E5 		strb	r3, [r4, #0]
 1026 0e28 54019FE5 		ldr	r0, .L261+4
 1027 0e2c FEFFFFEB 		bl	uart_transmit
 1028 0e30 0310D6E5 		ldrb	r1, [r6, #3]	@ zero_extendqisi2
 1029 0e34 0030D5E5 		ldrb	r3, [r5, #0]	@ zero_extendqisi2
 1030 0e38 0020D4E5 		ldrb	r2, [r4, #0]	@ zero_extendqisi2
 1031 0e3c 033081E0 		add	r3, r1, r3
 1032 0e40 FF3003E2 		and	r3, r3, #255
 1033 0e44 94619FE5 		ldr	r6, .L261+96
 1034 0e48 0030C5E5 		strb	r3, [r5, #0]
 1035 0e4c 023083E0 		add	r3, r3, r2
 1036 0e50 0030C4E5 		strb	r3, [r4, #0]
 1037 0e54 28019FE5 		ldr	r0, .L261+4
 1038 0e58 FEFFFFEB 		bl	uart_transmit
 1039 0e5c 0010D6E5 		ldrb	r1, [r6, #0]	@ zero_extendqisi2
 1040 0e60 0030D5E5 		ldrb	r3, [r5, #0]	@ zero_extendqisi2
 1041 0e64 0020D4E5 		ldrb	r2, [r4, #0]	@ zero_extendqisi2
 1042 0e68 033081E0 		add	r3, r1, r3
 1043 0e6c FF3003E2 		and	r3, r3, #255
 1044 0e70 0030C5E5 		strb	r3, [r5, #0]
 1045 0e74 023083E0 		add	r3, r3, r2
 1046 0e78 0030C4E5 		strb	r3, [r4, #0]
 1047 0e7c 00019FE5 		ldr	r0, .L261+4
 1048 0e80 FEFFFFEB 		bl	uart_transmit
 1049 0e84 0110D6E5 		ldrb	r1, [r6, #1]	@ zero_extendqisi2
 1050 0e88 0030D5E5 		ldrb	r3, [r5, #0]	@ zero_extendqisi2
 1051 0e8c 0020D4E5 		ldrb	r2, [r4, #0]	@ zero_extendqisi2
 1052 0e90 033081E0 		add	r3, r1, r3
 1053 0e94 FF3003E2 		and	r3, r3, #255
 1054 0e98 0030C5E5 		strb	r3, [r5, #0]
 1055 0e9c 023083E0 		add	r3, r3, r2
 1056 0ea0 0030C4E5 		strb	r3, [r4, #0]
 1057 0ea4 D8009FE5 		ldr	r0, .L261+4
 1058 0ea8 FEFFFFEB 		bl	uart_transmit
 1059 0eac 0210D6E5 		ldrb	r1, [r6, #2]	@ zero_extendqisi2
 1060 0eb0 0030D5E5 		ldrb	r3, [r5, #0]	@ zero_extendqisi2
 1061 0eb4 0020D4E5 		ldrb	r2, [r4, #0]	@ zero_extendqisi2
 1062 0eb8 033081E0 		add	r3, r1, r3
 1063 0ebc FF3003E2 		and	r3, r3, #255
 1064 0ec0 0030C5E5 		strb	r3, [r5, #0]
 1065 0ec4 023083E0 		add	r3, r3, r2
 1066 0ec8 0030C4E5 		strb	r3, [r4, #0]
 1067 0ecc B0009FE5 		ldr	r0, .L261+4
 1068 0ed0 FEFFFFEB 		bl	uart_transmit
 1069 0ed4 0310D6E5 		ldrb	r1, [r6, #3]	@ zero_extendqisi2
 1070 0ed8 0030D5E5 		ldrb	r3, [r5, #0]	@ zero_extendqisi2
 1071 0edc 0020D4E5 		ldrb	r2, [r4, #0]	@ zero_extendqisi2
 1072 0ee0 033081E0 		add	r3, r1, r3
 1073 0ee4 FF3003E2 		and	r3, r3, #255
 1074 0ee8 F4609FE5 		ldr	r6, .L261+100
 1075 0eec 0030C5E5 		strb	r3, [r5, #0]
 1076 0ef0 023083E0 		add	r3, r3, r2
 1077 0ef4 0030C4E5 		strb	r3, [r4, #0]
 1078 0ef8 84009FE5 		ldr	r0, .L261+4
 1079 0efc FEFFFFEB 		bl	uart_transmit
 1080 0f00 0010D6E5 		ldrb	r1, [r6, #0]	@ zero_extendqisi2
 1081 0f04 0030D5E5 		ldrb	r3, [r5, #0]	@ zero_extendqisi2
 1082 0f08 0020D4E5 		ldrb	r2, [r4, #0]	@ zero_extendqisi2
 1083 0f0c 033081E0 		add	r3, r1, r3
 1084 0f10 FF3003E2 		and	r3, r3, #255
 1085 0f14 0030C5E5 		strb	r3, [r5, #0]
 1086 0f18 023083E0 		add	r3, r3, r2
 1087 0f1c 0030C4E5 		strb	r3, [r4, #0]
 1088 0f20 5C009FE5 		ldr	r0, .L261+4
 1089 0f24 FEFFFFEB 		bl	uart_transmit
 1090 0f28 0110D6E5 		ldrb	r1, [r6, #1]	@ zero_extendqisi2
 1091 0f2c 0030D5E5 		ldrb	r3, [r5, #0]	@ zero_extendqisi2
 1092 0f30 0020D4E5 		ldrb	r2, [r4, #0]	@ zero_extendqisi2
 1093 0f34 033081E0 		add	r3, r1, r3
 1094 0f38 FF3003E2 		and	r3, r3, #255
 1095 0f3c 0030C5E5 		strb	r3, [r5, #0]
 1096 0f40 023083E0 		add	r3, r3, r2
 1097 0f44 0030C4E5 		strb	r3, [r4, #0]
 1098 0f48 34009FE5 		ldr	r0, .L261+4
 1099 0f4c FEFFFFEB 		bl	uart_transmit
 1100 0f50 0210D6E5 		ldrb	r1, [r6, #2]	@ zero_extendqisi2
 1101 0f54 0030D5E5 		ldrb	r3, [r5, #0]	@ zero_extendqisi2
 1102 0f58 0020D4E5 		ldrb	r2, [r4, #0]	@ zero_extendqisi2
 1103 0f5c 033081E0 		add	r3, r1, r3
 1104 0f60 FF3003E2 		and	r3, r3, #255
 1105 0f64 0030C5E5 		strb	r3, [r5, #0]
 1106 0f68 023083E0 		add	r3, r3, r2
 1107 0f6c 0030C4E5 		strb	r3, [r4, #0]
 1108 0f70 0C009FE5 		ldr	r0, .L261+4
 1109 0f74 FEFFFFEB 		bl	uart_transmit
 1110 0f78 0310D6E5 		ldrb	r1, [r6, #3]	@ zero_extendqisi2
 1111 0f7c 110100EA 		b	.L243
 1112              	.L262:
 1113              		.align	2
 1114              	.L261:
 1115 0f80 00000000 		.word	.LANCHOR0
 1116 0f84 00000000 		.word	uart1
 1117 0f88 00000000 		.word	.LANCHOR1
 1118 0f8c 00000000 		.word	telemetry_mode_Ap
 1119 0f90 00000000 		.word	.LANCHOR2
 1120 0f94 00000000 		.word	.LANCHOR3
 1121 0f98 00000000 		.word	.LANCHOR6
 1122 0f9c 00000000 		.word	.LANCHOR7
 1123 0fa0 00000000 		.word	.LANCHOR8
 1124 0fa4 00000000 		.word	.LANCHOR9
 1125 0fa8 00000000 		.word	.LANCHOR10
 1126 0fac 00000000 		.word	.LANCHOR11
 1127 0fb0 00000000 		.word	.LANCHOR12
 1128 0fb4 00000000 		.word	.LANCHOR13
 1129 0fb8 31010000 		.word	305
 1130 0fbc 00000000 		.word	.LANCHOR14
 1131 0fc0 00000000 		.word	gps
 1132 0fc4 F8C1631A 		.word	442745336
 1133 0fc8 DCA54C40 		.word	1078765020
 1134 0fcc 80842E41 		.word	1093567616
 1135 0fd0 00000000 		.word	.LANCHOR15
 1136 0fd4 00000000 		.word	estimator_z
 1137 0fd8 00000000 		.word	estimator_z_dot
 1138 0fdc 00000000 		.word	estimator_phi
 1139 0fe0 00000000 		.word	estimator_psi
 1140 0fe4 00000000 		.word	estimator_theta
 1141 0fe8 00000000 		.word	nb_waypoint
 1142 0fec 00000000 		.word	nav_utm_east0
 1143 0ff0 00000000 		.word	waypoints
 1144 0ff4 00000000 		.word	nav_utm_north0
 1145 0ff8 00000000 		.word	.LANCHOR16
 1146 0ffc 00000000 		.word	downlink_nb_bytes
 1147 1000 00000000 		.word	nav_utm_zone0
 1148 1004 00000000 		.word	.LANCHOR4
 1149 1008 00000000 		.word	nav_circle_radians
 1150 100c 182D4454 		.word	1413754136
 1151 1010 FB211940 		.word	1075388923
 1152 1014 00000000 		.word	downlink_nb_msgs
 1153 1018 00000000 		.word	ck_a
 1154 101c 00000000 		.word	nav_block
 1155 1020 00000000 		.word	nav_stage
 1156 1024 00000000 		.word	estimator_x
 1157 1028 00000000 		.word	estimator_y
 1158 102c 00000000 		.word	dist2_to_wp
 1159 1030 00000000 		.word	dist2_to_home
 1160 1034 00000000 		.word	nav_oval_count
 1161 1038 00000000 		.word	downlink_nb_ovrn
 1162 103c 00000000 		.word	.LANCHOR5
 1163 1040 00000000 		.word	nav_in_circle
 1164 1044 00000000 		.word	ck_b
 1165 1048 00000000 		.word	nav_circle_x
 1166 104c 00000000 		.word	nav_circle_y
 1167 1050 00000000 		.word	nav_circle_radius
 1168 1054 00009041 		.word	1099956224
 1169 1058 00000000 		.word	downlink_nb_bytes
 1170 105c 00000000 		.word	downlink_nb_msgs
 1171 1060 00000000 		.word	ck_a
 1172 1064 00000000 		.word	ck_b
 1173 1068 00000000 		.word	h_ctl_roll_setpoint
 1174 106c 00000000 		.word	h_ctl_pitch_loop_setpoint
 1175 1070 00000000 		.word	h_ctl_course_setpoint
 1176 1074 00000000 		.word	desired_x
 1177 1078 00000000 		.word	desired_y
 1178 107c 00000000 		.word	v_ctl_altitude_setpoint
 1179 1080 00000000 		.word	v_ctl_climb_setpoint
 1180 1084 00000000 		.word	uart1
 1181              	.L32:
 1182 1088 0C0056E3 		cmp	r6, #12
 1183 108c E100001A 		bne	.L34
 1184 1090 A0301FE5 		ldr	r3, .L261+120
 1185 1094 B4101FE5 		ldr	r1, .L261+104
 1186 1098 0020D3E5 		ldrb	r2, [r3, #0]	@ zero_extendqisi2
 1187 109c 0010D1E5 		ldrb	r1, [r1, #0]	@ zero_extendqisi2
 1188 10a0 012082E2 		add	r2, r2, #1
 1189 10a4 FF2002E2 		and	r2, r2, #255
 1190 10a8 020051E1 		cmp	r1, r2
 1191 10ac 0020C3E5 		strb	r2, [r3, #0]
 1192 10b0 0020A093 		movls	r2, #0
 1193 10b4 0020C395 		strlsb	r2, [r3, #0]
 1194 10b8 0040D3E5 		ldrb	r4, [r3, #0]	@ zero_extendqisi2
 1195 10bc D8301FE5 		ldr	r3, .L261+108
 1196 10c0 0C70A0E3 		mov	r7, #12
 1197 10c4 000093E5 		ldr	r0, [r3, #0]
 1198 10c8 FEFFFFEB 		bl	__aeabi_i2f
 1199 10cc 970403E0 		mul	r3, r7, r4
 1200 10d0 E8601FE5 		ldr	r6, .L261+112
 1201 10d4 031096E7 		ldr	r1, [r6, r3]	@ float
 1202 10d8 034086E0 		add	r4, r6, r3
 1203 10dc FEFFFFEB 		bl	__aeabi_fadd
 1204 10e0 F4301FE5 		ldr	r3, .L261+116
 1205 10e4 00008DE5 		str	r0, [sp, #0]	@ float
 1206 10e8 000093E5 		ldr	r0, [r3, #0]
 1207 10ec FEFFFFEB 		bl	__aeabi_i2f
 1208 10f0 041094E5 		ldr	r1, [r4, #4]	@ float
 1209 10f4 FEFFFFEB 		bl	__aeabi_fadd
 1210 10f8 1410A0E3 		mov	r1, #20
 1211 10fc 04008DE5 		str	r0, [sp, #4]	@ float
 1212 1100 84001FE5 		ldr	r0, .L261+260
 1213 1104 FEFFFFEB 		bl	uart_check_free_space
 1214 1108 000050E3 		cmp	r0, #0
 1215 110c 1C811FE5 		ldr	r8, .L261+120
 1216 1110 BC00000A 		beq	.L36
 1217 1114 20311FE5 		ldr	r3, .L261+124
 1218 1118 B020D3E1 		ldrh	r2, [r3, #0]
 1219 111c 142082E2 		add	r2, r2, #20
 1220 1120 B020C3E1 		strh	r2, [r3, #0]	@ movhi
 1221 1124 18311FE5 		ldr	r3, .L261+148
 1222 1128 B020D3E1 		ldrh	r2, [r3, #0]
 1223 112c 012082E2 		add	r2, r2, #1
 1224 1130 B020C3E1 		strh	r2, [r3, #0]	@ movhi
 1225 1134 B8001FE5 		ldr	r0, .L261+260
 1226 1138 9910A0E3 		mov	r1, #153
 1227 113c 2C511FE5 		ldr	r5, .L261+152
 1228 1140 FEFFFFEB 		bl	uart_transmit
 1229 1144 C8001FE5 		ldr	r0, .L261+260
 1230 1148 1410A0E3 		mov	r1, #20
 1231 114c 10411FE5 		ldr	r4, .L261+196
 1232 1150 FEFFFFEB 		bl	uart_transmit
 1233 1154 1630A0E3 		mov	r3, #22
 1234 1158 0030C5E5 		strb	r3, [r5, #0]
 1235 115c 2A30A0E3 		mov	r3, #42
 1236 1160 0030C4E5 		strb	r3, [r4, #0]
 1237 1164 E8001FE5 		ldr	r0, .L261+260
 1238 1168 0210A0E3 		mov	r1, #2
 1239 116c FEFFFFEB 		bl	uart_transmit
 1240 1170 0030D5E5 		ldrb	r3, [r5, #0]	@ zero_extendqisi2
 1241 1174 0020D4E5 		ldrb	r2, [r4, #0]	@ zero_extendqisi2
 1242 1178 233083E2 		add	r3, r3, #35
 1243 117c FF3003E2 		and	r3, r3, #255
 1244 1180 0030C5E5 		strb	r3, [r5, #0]
 1245 1184 023083E0 		add	r3, r3, r2
 1246 1188 0030C4E5 		strb	r3, [r4, #0]
 1247 118c 10011FE5 		ldr	r0, .L261+260
 1248 1190 2310A0E3 		mov	r1, #35
 1249 1194 FEFFFFEB 		bl	uart_transmit
 1250 1198 0010D8E5 		ldrb	r1, [r8, #0]	@ zero_extendqisi2
 1251 119c 0030D5E5 		ldrb	r3, [r5, #0]	@ zero_extendqisi2
 1252 11a0 0020D4E5 		ldrb	r2, [r4, #0]	@ zero_extendqisi2
 1253 11a4 033081E0 		add	r3, r1, r3
 1254 11a8 FF3003E2 		and	r3, r3, #255
 1255 11ac 0030C5E5 		strb	r3, [r5, #0]
 1256 11b0 023083E0 		add	r3, r3, r2
 1257 11b4 0030C4E5 		strb	r3, [r4, #0]
 1258 11b8 3C011FE5 		ldr	r0, .L261+260
 1259 11bc FEFFFFEB 		bl	uart_transmit
 1260 11c0 0010DDE5 		ldrb	r1, [sp, #0]	@ zero_extendqisi2
 1261 11c4 0030D5E5 		ldrb	r3, [r5, #0]	@ zero_extendqisi2
 1262 11c8 0020D4E5 		ldrb	r2, [r4, #0]	@ zero_extendqisi2
 1263 11cc 033081E0 		add	r3, r1, r3
 1264 11d0 FF3003E2 		and	r3, r3, #255
 1265 11d4 0030C5E5 		strb	r3, [r5, #0]
 1266 11d8 023083E0 		add	r3, r3, r2
 1267 11dc 0030C4E5 		strb	r3, [r4, #0]
 1268 11e0 64011FE5 		ldr	r0, .L261+260
 1269 11e4 FEFFFFEB 		bl	uart_transmit
 1270 11e8 0110DDE5 		ldrb	r1, [sp, #1]	@ zero_extendqisi2
 1271 11ec 0030D5E5 		ldrb	r3, [r5, #0]	@ zero_extendqisi2
 1272 11f0 0020D4E5 		ldrb	r2, [r4, #0]	@ zero_extendqisi2
 1273 11f4 033081E0 		add	r3, r1, r3
 1274 11f8 FF3003E2 		and	r3, r3, #255
 1275 11fc 0030C5E5 		strb	r3, [r5, #0]
 1276 1200 023083E0 		add	r3, r3, r2
 1277 1204 0030C4E5 		strb	r3, [r4, #0]
 1278 1208 8C011FE5 		ldr	r0, .L261+260
 1279 120c FEFFFFEB 		bl	uart_transmit
 1280 1210 0210DDE5 		ldrb	r1, [sp, #2]	@ zero_extendqisi2
 1281 1214 0030D5E5 		ldrb	r3, [r5, #0]	@ zero_extendqisi2
 1282 1218 0020D4E5 		ldrb	r2, [r4, #0]	@ zero_extendqisi2
 1283 121c 033081E0 		add	r3, r1, r3
 1284 1220 FF3003E2 		and	r3, r3, #255
 1285 1224 0030C5E5 		strb	r3, [r5, #0]
 1286 1228 023083E0 		add	r3, r3, r2
 1287 122c 0030C4E5 		strb	r3, [r4, #0]
 1288 1230 B4011FE5 		ldr	r0, .L261+260
 1289 1234 FEFFFFEB 		bl	uart_transmit
 1290 1238 0310DDE5 		ldrb	r1, [sp, #3]	@ zero_extendqisi2
 1291 123c 0030D5E5 		ldrb	r3, [r5, #0]	@ zero_extendqisi2
 1292 1240 0020D4E5 		ldrb	r2, [r4, #0]	@ zero_extendqisi2
 1293 1244 033081E0 		add	r3, r1, r3
 1294 1248 FF3003E2 		and	r3, r3, #255
 1295 124c 0030C5E5 		strb	r3, [r5, #0]
 1296 1250 023083E0 		add	r3, r3, r2
 1297 1254 0030C4E5 		strb	r3, [r4, #0]
 1298 1258 DC011FE5 		ldr	r0, .L261+260
 1299 125c FEFFFFEB 		bl	uart_transmit
 1300 1260 0410DDE5 		ldrb	r1, [sp, #4]	@ zero_extendqisi2
 1301 1264 0030D5E5 		ldrb	r3, [r5, #0]	@ zero_extendqisi2
 1302 1268 0020D4E5 		ldrb	r2, [r4, #0]	@ zero_extendqisi2
 1303 126c 033081E0 		add	r3, r1, r3
 1304 1270 FF3003E2 		and	r3, r3, #255
 1305 1274 0030C5E5 		strb	r3, [r5, #0]
 1306 1278 023083E0 		add	r3, r3, r2
 1307 127c 0030C4E5 		strb	r3, [r4, #0]
 1308 1280 04021FE5 		ldr	r0, .L261+260
 1309 1284 FEFFFFEB 		bl	uart_transmit
 1310 1288 0510DDE5 		ldrb	r1, [sp, #5]	@ zero_extendqisi2
 1311 128c 0030D5E5 		ldrb	r3, [r5, #0]	@ zero_extendqisi2
 1312 1290 0020D4E5 		ldrb	r2, [r4, #0]	@ zero_extendqisi2
 1313 1294 033081E0 		add	r3, r1, r3
 1314 1298 FF3003E2 		and	r3, r3, #255
 1315 129c 0030C5E5 		strb	r3, [r5, #0]
 1316 12a0 023083E0 		add	r3, r3, r2
 1317 12a4 0030C4E5 		strb	r3, [r4, #0]
 1318 12a8 2C021FE5 		ldr	r0, .L261+260
 1319 12ac FEFFFFEB 		bl	uart_transmit
 1320 12b0 0610DDE5 		ldrb	r1, [sp, #6]	@ zero_extendqisi2
 1321 12b4 0030D5E5 		ldrb	r3, [r5, #0]	@ zero_extendqisi2
 1322 12b8 0020D4E5 		ldrb	r2, [r4, #0]	@ zero_extendqisi2
 1323 12bc 033081E0 		add	r3, r1, r3
 1324 12c0 FF3003E2 		and	r3, r3, #255
 1325 12c4 0030C5E5 		strb	r3, [r5, #0]
 1326 12c8 023083E0 		add	r3, r3, r2
 1327 12cc 0030C4E5 		strb	r3, [r4, #0]
 1328 12d0 54021FE5 		ldr	r0, .L261+260
 1329 12d4 FEFFFFEB 		bl	uart_transmit
 1330 12d8 0710DDE5 		ldrb	r1, [sp, #7]	@ zero_extendqisi2
 1331 12dc 0030D5E5 		ldrb	r3, [r5, #0]	@ zero_extendqisi2
 1332 12e0 0020D4E5 		ldrb	r2, [r4, #0]	@ zero_extendqisi2
 1333 12e4 033081E0 		add	r3, r1, r3
 1334 12e8 FF3003E2 		and	r3, r3, #255
 1335 12ec 0030C5E5 		strb	r3, [r5, #0]
 1336 12f0 023083E0 		add	r3, r3, r2
 1337 12f4 0030C4E5 		strb	r3, [r4, #0]
 1338 12f8 7C021FE5 		ldr	r0, .L261+260
 1339 12fc FEFFFFEB 		bl	uart_transmit
 1340 1300 0030D8E5 		ldrb	r3, [r8, #0]	@ zero_extendqisi2
 1341 1304 976323E0 		mla	r3, r7, r3, r6
 1342 1308 0810D3E5 		ldrb	r1, [r3, #8]	@ zero_extendqisi2
 1343 130c 0030D5E5 		ldrb	r3, [r5, #0]	@ zero_extendqisi2
 1344 1310 0020D4E5 		ldrb	r2, [r4, #0]	@ zero_extendqisi2
 1345 1314 033081E0 		add	r3, r1, r3
 1346 1318 FF3003E2 		and	r3, r3, #255
 1347 131c 0030C5E5 		strb	r3, [r5, #0]
 1348 1320 023083E0 		add	r3, r3, r2
 1349 1324 0030C4E5 		strb	r3, [r4, #0]
 1350 1328 AC021FE5 		ldr	r0, .L261+260
 1351 132c FEFFFFEB 		bl	uart_transmit
 1352 1330 0030D8E5 		ldrb	r3, [r8, #0]	@ zero_extendqisi2
 1353 1334 976323E0 		mla	r3, r7, r3, r6
 1354 1338 0910D3E5 		ldrb	r1, [r3, #9]	@ zero_extendqisi2
 1355 133c 0030D5E5 		ldrb	r3, [r5, #0]	@ zero_extendqisi2
 1356 1340 0020D4E5 		ldrb	r2, [r4, #0]	@ zero_extendqisi2
 1357 1344 033081E0 		add	r3, r1, r3
 1358 1348 FF3003E2 		and	r3, r3, #255
 1359 134c 0030C5E5 		strb	r3, [r5, #0]
 1360 1350 023083E0 		add	r3, r3, r2
 1361 1354 0030C4E5 		strb	r3, [r4, #0]
 1362 1358 DC021FE5 		ldr	r0, .L261+260
 1363 135c FEFFFFEB 		bl	uart_transmit
 1364 1360 0030D8E5 		ldrb	r3, [r8, #0]	@ zero_extendqisi2
 1365 1364 976323E0 		mla	r3, r7, r3, r6
 1366 1368 0A10D3E5 		ldrb	r1, [r3, #10]	@ zero_extendqisi2
 1367 136c 0030D5E5 		ldrb	r3, [r5, #0]	@ zero_extendqisi2
 1368 1370 0020D4E5 		ldrb	r2, [r4, #0]	@ zero_extendqisi2
 1369 1374 033081E0 		add	r3, r1, r3
 1370 1378 FF3003E2 		and	r3, r3, #255
 1371 137c 0030C5E5 		strb	r3, [r5, #0]
 1372 1380 023083E0 		add	r3, r3, r2
 1373 1384 0030C4E5 		strb	r3, [r4, #0]
 1374 1388 0C031FE5 		ldr	r0, .L261+260
 1375 138c FEFFFFEB 		bl	uart_transmit
 1376 1390 0030D8E5 		ldrb	r3, [r8, #0]	@ zero_extendqisi2
 1377 1394 976326E0 		mla	r6, r7, r3, r6
 1378 1398 0030D5E5 		ldrb	r3, [r5, #0]	@ zero_extendqisi2
 1379 139c 0B10D6E5 		ldrb	r1, [r6, #11]	@ zero_extendqisi2
 1380 13a0 0020D4E5 		ldrb	r2, [r4, #0]	@ zero_extendqisi2
 1381 13a4 033081E0 		add	r3, r1, r3
 1382 13a8 FF3003E2 		and	r3, r3, #255
 1383 13ac 0030C5E5 		strb	r3, [r5, #0]
 1384 13b0 023083E0 		add	r3, r3, r2
 1385 13b4 0030C4E5 		strb	r3, [r4, #0]
 1386 13b8 3C031FE5 		ldr	r0, .L261+260
 1387 13bc FEFFFFEB 		bl	uart_transmit
 1388 13c0 C8331FE5 		ldr	r3, .L261+128
 1389 13c4 0010D3E5 		ldrb	r1, [r3, #0]	@ zero_extendqisi2
 1390              	.L243:
 1391 13c8 0030D5E5 		ldrb	r3, [r5, #0]	@ zero_extendqisi2
 1392 13cc 0020D4E5 		ldrb	r2, [r4, #0]	@ zero_extendqisi2
 1393 13d0 033081E0 		add	r3, r1, r3
 1394 13d4 FF3003E2 		and	r3, r3, #255
 1395 13d8 0030C5E5 		strb	r3, [r5, #0]
 1396 13dc 023083E0 		add	r3, r3, r2
 1397 13e0 0030C4E5 		strb	r3, [r4, #0]
 1398 13e4 68031FE5 		ldr	r0, .L261+260
 1399 13e8 FEFFFFEB 		bl	uart_transmit
 1400 13ec 0010D5E5 		ldrb	r1, [r5, #0]	@ zero_extendqisi2
 1401 13f0 74031FE5 		ldr	r0, .L261+260
 1402 13f4 FEFFFFEB 		bl	uart_transmit
 1403 13f8 7C031FE5 		ldr	r0, .L261+260
 1404 13fc 0010D4E5 		ldrb	r1, [r4, #0]	@ zero_extendqisi2
 1405 1400 FEFFFFEB 		bl	uart_transmit
 1406 1404 030000EA 		b	.L34
 1407              	.L36:
 1408 1408 D8331FE5 		ldr	r3, .L261+184
 1409 140c 0020D3E5 		ldrb	r2, [r3, #0]	@ zero_extendqisi2
 1410 1410 012082E2 		add	r2, r2, #1
 1411 1414 0020C3E5 		strb	r2, [r3, #0]
 1412              	.L34:
 1413 1418 1C341FE5 		ldr	r3, .L261+132
 1414 141c 0030D3E5 		ldrb	r3, [r3, #0]	@ zero_extendqisi2
 1415 1420 120053E3 		cmp	r3, #18
 1416 1424 0801001A 		bne	.L37
 1417 1428 28341FE5 		ldr	r3, .L261+136
 1418 142c B0031FE5 		ldr	r0, .L261+260
 1419 1430 1A10A0E3 		mov	r1, #26
 1420 1434 004093E5 		ldr	r4, [r3, #0]	@ float
 1421 1438 FEFFFFEB 		bl	uart_check_free_space
 1422 143c 000050E3 		cmp	r0, #0
 1423 1440 FD00000A 		beq	.L38
 1424 1444 0201C4E3 		bic	r0, r4, #-2147483648
 1425 1448 FEFFFFEB 		bl	__aeabi_f2d
 1426 144c 48241FE5 		ldr	r2, .L261+140
 1427 1450 48341FE5 		ldr	r3, .L261+144
 1428 1454 FEFFFFEB 		bl	__aeabi_ddiv
 1429 1458 FEFFFFEB 		bl	__aeabi_d2uiz
 1430 145c 0C341FE5 		ldr	r3, .L261+216
 1431 1460 B020D3E1 		ldrh	r2, [r3, #0]
 1432 1464 1A2082E2 		add	r2, r2, #26
 1433 1468 B020C3E1 		strh	r2, [r3, #0]	@ movhi
 1434 146c 60341FE5 		ldr	r3, .L261+148
 1435 1470 B020D3E1 		ldrh	r2, [r3, #0]
 1436 1474 012082E2 		add	r2, r2, #1
 1437 1478 B020C3E1 		strh	r2, [r3, #0]	@ movhi
 1438 147c FF7000E2 		and	r7, r0, #255
 1439 1480 9910A0E3 		mov	r1, #153
 1440 1484 08041FE5 		ldr	r0, .L261+260
 1441 1488 78541FE5 		ldr	r5, .L261+152
 1442 148c FEFFFFEB 		bl	uart_transmit
 1443 1490 14041FE5 		ldr	r0, .L261+260
 1444 1494 1A10A0E3 		mov	r1, #26
 1445 1498 5C441FE5 		ldr	r4, .L261+196
 1446 149c FEFFFFEB 		bl	uart_transmit
 1447 14a0 1C30A0E3 		mov	r3, #28
 1448 14a4 0030C5E5 		strb	r3, [r5, #0]
 1449 14a8 3630A0E3 		mov	r3, #54
 1450 14ac 0030C4E5 		strb	r3, [r4, #0]
 1451 14b0 34041FE5 		ldr	r0, .L261+260
 1452 14b4 0210A0E3 		mov	r1, #2
 1453 14b8 FEFFFFEB 		bl	uart_transmit
 1454 14bc 0030D5E5 		ldrb	r3, [r5, #0]	@ zero_extendqisi2
 1455 14c0 0020D4E5 		ldrb	r2, [r4, #0]	@ zero_extendqisi2
 1456 14c4 0A3083E2 		add	r3, r3, #10
 1457 14c8 FF3003E2 		and	r3, r3, #255
 1458 14cc 0030C5E5 		strb	r3, [r5, #0]
 1459 14d0 023083E0 		add	r3, r3, r2
 1460 14d4 0030C4E5 		strb	r3, [r4, #0]
 1461 14d8 5C041FE5 		ldr	r0, .L261+260
 1462 14dc 0A10A0E3 		mov	r1, #10
 1463 14e0 FEFFFFEB 		bl	uart_transmit
 1464 14e4 D0341FE5 		ldr	r3, .L261+156
 1465 14e8 0010D3E5 		ldrb	r1, [r3, #0]	@ zero_extendqisi2
 1466 14ec 0030D5E5 		ldrb	r3, [r5, #0]	@ zero_extendqisi2
 1467 14f0 0020D4E5 		ldrb	r2, [r4, #0]	@ zero_extendqisi2
 1468 14f4 033081E0 		add	r3, r1, r3
 1469 14f8 FF3003E2 		and	r3, r3, #255
 1470 14fc 0030C5E5 		strb	r3, [r5, #0]
 1471 1500 023083E0 		add	r3, r3, r2
 1472 1504 0030C4E5 		strb	r3, [r4, #0]
 1473 1508 8C041FE5 		ldr	r0, .L261+260
 1474 150c FEFFFFEB 		bl	uart_transmit
 1475 1510 F8341FE5 		ldr	r3, .L261+160
 1476 1514 0010D3E5 		ldrb	r1, [r3, #0]	@ zero_extendqisi2
 1477 1518 0030D5E5 		ldrb	r3, [r5, #0]	@ zero_extendqisi2
 1478 151c 0020D4E5 		ldrb	r2, [r4, #0]	@ zero_extendqisi2
 1479 1520 033081E0 		add	r3, r1, r3
 1480 1524 FF3003E2 		and	r3, r3, #255
 1481 1528 0C651FE5 		ldr	r6, .L261+164
 1482 152c 0030C5E5 		strb	r3, [r5, #0]
 1483 1530 023083E0 		add	r3, r3, r2
 1484 1534 0030C4E5 		strb	r3, [r4, #0]
 1485 1538 BC041FE5 		ldr	r0, .L261+260
 1486 153c FEFFFFEB 		bl	uart_transmit
 1487 1540 0010D6E5 		ldrb	r1, [r6, #0]	@ zero_extendqisi2
 1488 1544 0030D5E5 		ldrb	r3, [r5, #0]	@ zero_extendqisi2
 1489 1548 0020D4E5 		ldrb	r2, [r4, #0]	@ zero_extendqisi2
 1490 154c 033081E0 		add	r3, r1, r3
 1491 1550 FF3003E2 		and	r3, r3, #255
 1492 1554 0030C5E5 		strb	r3, [r5, #0]
 1493 1558 023083E0 		add	r3, r3, r2
 1494 155c 0030C4E5 		strb	r3, [r4, #0]
 1495 1560 E4041FE5 		ldr	r0, .L261+260
 1496 1564 FEFFFFEB 		bl	uart_transmit
 1497 1568 0110D6E5 		ldrb	r1, [r6, #1]	@ zero_extendqisi2
 1498 156c 0030D5E5 		ldrb	r3, [r5, #0]	@ zero_extendqisi2
 1499 1570 0020D4E5 		ldrb	r2, [r4, #0]	@ zero_extendqisi2
 1500 1574 033081E0 		add	r3, r1, r3
 1501 1578 FF3003E2 		and	r3, r3, #255
 1502 157c 0030C5E5 		strb	r3, [r5, #0]
 1503 1580 023083E0 		add	r3, r3, r2
 1504 1584 0030C4E5 		strb	r3, [r4, #0]
 1505 1588 0C051FE5 		ldr	r0, .L261+260
 1506 158c FEFFFFEB 		bl	uart_transmit
 1507 1590 0210D6E5 		ldrb	r1, [r6, #2]	@ zero_extendqisi2
 1508 1594 0030D5E5 		ldrb	r3, [r5, #0]	@ zero_extendqisi2
 1509 1598 0020D4E5 		ldrb	r2, [r4, #0]	@ zero_extendqisi2
 1510 159c 033081E0 		add	r3, r1, r3
 1511 15a0 FF3003E2 		and	r3, r3, #255
 1512 15a4 0030C5E5 		strb	r3, [r5, #0]
 1513 15a8 023083E0 		add	r3, r3, r2
 1514 15ac 0030C4E5 		strb	r3, [r4, #0]
 1515 15b0 34051FE5 		ldr	r0, .L261+260
 1516 15b4 FEFFFFEB 		bl	uart_transmit
 1517 15b8 0310D6E5 		ldrb	r1, [r6, #3]	@ zero_extendqisi2
 1518 15bc 0030D5E5 		ldrb	r3, [r5, #0]	@ zero_extendqisi2
 1519 15c0 0020D4E5 		ldrb	r2, [r4, #0]	@ zero_extendqisi2
 1520 15c4 033081E0 		add	r3, r1, r3
 1521 15c8 FF3003E2 		and	r3, r3, #255
 1522 15cc AC651FE5 		ldr	r6, .L261+168
 1523 15d0 0030C5E5 		strb	r3, [r5, #0]
 1524 15d4 023083E0 		add	r3, r3, r2
 1525 15d8 0030C4E5 		strb	r3, [r4, #0]
 1526 15dc 60051FE5 		ldr	r0, .L261+260
 1527 15e0 FEFFFFEB 		bl	uart_transmit
 1528 15e4 0010D6E5 		ldrb	r1, [r6, #0]	@ zero_extendqisi2
 1529 15e8 0030D5E5 		ldrb	r3, [r5, #0]	@ zero_extendqisi2
 1530 15ec 0020D4E5 		ldrb	r2, [r4, #0]	@ zero_extendqisi2
 1531 15f0 033081E0 		add	r3, r1, r3
 1532 15f4 FF3003E2 		and	r3, r3, #255
 1533 15f8 0030C5E5 		strb	r3, [r5, #0]
 1534 15fc 023083E0 		add	r3, r3, r2
 1535 1600 0030C4E5 		strb	r3, [r4, #0]
 1536 1604 88051FE5 		ldr	r0, .L261+260
 1537 1608 FEFFFFEB 		bl	uart_transmit
 1538 160c 0110D6E5 		ldrb	r1, [r6, #1]	@ zero_extendqisi2
 1539 1610 0030D5E5 		ldrb	r3, [r5, #0]	@ zero_extendqisi2
 1540 1614 0020D4E5 		ldrb	r2, [r4, #0]	@ zero_extendqisi2
 1541 1618 033081E0 		add	r3, r1, r3
 1542 161c FF3003E2 		and	r3, r3, #255
 1543 1620 0030C5E5 		strb	r3, [r5, #0]
 1544 1624 023083E0 		add	r3, r3, r2
 1545 1628 0030C4E5 		strb	r3, [r4, #0]
 1546 162c B0051FE5 		ldr	r0, .L261+260
 1547 1630 FEFFFFEB 		bl	uart_transmit
 1548 1634 0210D6E5 		ldrb	r1, [r6, #2]	@ zero_extendqisi2
 1549 1638 0030D5E5 		ldrb	r3, [r5, #0]	@ zero_extendqisi2
 1550 163c 0020D4E5 		ldrb	r2, [r4, #0]	@ zero_extendqisi2
 1551 1640 033081E0 		add	r3, r1, r3
 1552 1644 FF3003E2 		and	r3, r3, #255
 1553 1648 0030C5E5 		strb	r3, [r5, #0]
 1554 164c 023083E0 		add	r3, r3, r2
 1555 1650 0030C4E5 		strb	r3, [r4, #0]
 1556 1654 D8051FE5 		ldr	r0, .L261+260
 1557 1658 FEFFFFEB 		bl	uart_transmit
 1558 165c 0310D6E5 		ldrb	r1, [r6, #3]	@ zero_extendqisi2
 1559 1660 0030D5E5 		ldrb	r3, [r5, #0]	@ zero_extendqisi2
 1560 1664 0020D4E5 		ldrb	r2, [r4, #0]	@ zero_extendqisi2
 1561 1668 033081E0 		add	r3, r1, r3
 1562 166c FF3003E2 		and	r3, r3, #255
 1563 1670 4C661FE5 		ldr	r6, .L261+172
 1564 1674 0030C5E5 		strb	r3, [r5, #0]
 1565 1678 023083E0 		add	r3, r3, r2
 1566 167c 0030C4E5 		strb	r3, [r4, #0]
 1567 1680 04061FE5 		ldr	r0, .L261+260
 1568 1684 FEFFFFEB 		bl	uart_transmit
 1569 1688 0010D6E5 		ldrb	r1, [r6, #0]	@ zero_extendqisi2
 1570 168c 0030D5E5 		ldrb	r3, [r5, #0]	@ zero_extendqisi2
 1571 1690 0020D4E5 		ldrb	r2, [r4, #0]	@ zero_extendqisi2
 1572 1694 033081E0 		add	r3, r1, r3
 1573 1698 FF3003E2 		and	r3, r3, #255
 1574 169c 0030C5E5 		strb	r3, [r5, #0]
 1575 16a0 023083E0 		add	r3, r3, r2
 1576 16a4 0030C4E5 		strb	r3, [r4, #0]
 1577 16a8 2C061FE5 		ldr	r0, .L261+260
 1578 16ac FEFFFFEB 		bl	uart_transmit
 1579 16b0 0110D6E5 		ldrb	r1, [r6, #1]	@ zero_extendqisi2
 1580 16b4 0030D5E5 		ldrb	r3, [r5, #0]	@ zero_extendqisi2
 1581 16b8 0020D4E5 		ldrb	r2, [r4, #0]	@ zero_extendqisi2
 1582 16bc 033081E0 		add	r3, r1, r3
 1583 16c0 FF3003E2 		and	r3, r3, #255
 1584 16c4 0030C5E5 		strb	r3, [r5, #0]
 1585 16c8 023083E0 		add	r3, r3, r2
 1586 16cc 0030C4E5 		strb	r3, [r4, #0]
 1587 16d0 54061FE5 		ldr	r0, .L261+260
 1588 16d4 FEFFFFEB 		bl	uart_transmit
 1589 16d8 0210D6E5 		ldrb	r1, [r6, #2]	@ zero_extendqisi2
 1590 16dc 0030D5E5 		ldrb	r3, [r5, #0]	@ zero_extendqisi2
 1591 16e0 0020D4E5 		ldrb	r2, [r4, #0]	@ zero_extendqisi2
 1592 16e4 033081E0 		add	r3, r1, r3
 1593 16e8 FF3003E2 		and	r3, r3, #255
 1594 16ec 0030C5E5 		strb	r3, [r5, #0]
 1595 16f0 023083E0 		add	r3, r3, r2
 1596 16f4 0030C4E5 		strb	r3, [r4, #0]
 1597 16f8 7C061FE5 		ldr	r0, .L261+260
 1598 16fc FEFFFFEB 		bl	uart_transmit
 1599 1700 0310D6E5 		ldrb	r1, [r6, #3]	@ zero_extendqisi2
 1600 1704 0030D5E5 		ldrb	r3, [r5, #0]	@ zero_extendqisi2
 1601 1708 0020D4E5 		ldrb	r2, [r4, #0]	@ zero_extendqisi2
 1602 170c 033081E0 		add	r3, r1, r3
 1603 1710 FF3003E2 		and	r3, r3, #255
 1604 1714 EC661FE5 		ldr	r6, .L261+176
 1605 1718 0030C5E5 		strb	r3, [r5, #0]
 1606 171c 023083E0 		add	r3, r3, r2
 1607 1720 0030C4E5 		strb	r3, [r4, #0]
 1608 1724 A8061FE5 		ldr	r0, .L261+260
 1609 1728 FEFFFFEB 		bl	uart_transmit
 1610 172c 0010D6E5 		ldrb	r1, [r6, #0]	@ zero_extendqisi2
 1611 1730 0030D5E5 		ldrb	r3, [r5, #0]	@ zero_extendqisi2
 1612 1734 0020D4E5 		ldrb	r2, [r4, #0]	@ zero_extendqisi2
 1613 1738 033081E0 		add	r3, r1, r3
 1614 173c FF3003E2 		and	r3, r3, #255
 1615 1740 0030C5E5 		strb	r3, [r5, #0]
 1616 1744 023083E0 		add	r3, r3, r2
 1617 1748 0030C4E5 		strb	r3, [r4, #0]
 1618 174c D0061FE5 		ldr	r0, .L261+260
 1619 1750 FEFFFFEB 		bl	uart_transmit
 1620 1754 0110D6E5 		ldrb	r1, [r6, #1]	@ zero_extendqisi2
 1621 1758 0030D5E5 		ldrb	r3, [r5, #0]	@ zero_extendqisi2
 1622 175c 0020D4E5 		ldrb	r2, [r4, #0]	@ zero_extendqisi2
 1623 1760 033081E0 		add	r3, r1, r3
 1624 1764 FF3003E2 		and	r3, r3, #255
 1625 1768 0030C5E5 		strb	r3, [r5, #0]
 1626 176c 023083E0 		add	r3, r3, r2
 1627 1770 0030C4E5 		strb	r3, [r4, #0]
 1628 1774 F8061FE5 		ldr	r0, .L261+260
 1629 1778 FEFFFFEB 		bl	uart_transmit
 1630 177c 0210D6E5 		ldrb	r1, [r6, #2]	@ zero_extendqisi2
 1631 1780 0030D5E5 		ldrb	r3, [r5, #0]	@ zero_extendqisi2
 1632 1784 0020D4E5 		ldrb	r2, [r4, #0]	@ zero_extendqisi2
 1633 1788 033081E0 		add	r3, r1, r3
 1634 178c FF3003E2 		and	r3, r3, #255
 1635 1790 0030C5E5 		strb	r3, [r5, #0]
 1636 1794 023083E0 		add	r3, r3, r2
 1637 1798 0030C4E5 		strb	r3, [r4, #0]
 1638 179c 20071FE5 		ldr	r0, .L261+260
 1639 17a0 FEFFFFEB 		bl	uart_transmit
 1640 17a4 0310D6E5 		ldrb	r1, [r6, #3]	@ zero_extendqisi2
 1641 17a8 0030D5E5 		ldrb	r3, [r5, #0]	@ zero_extendqisi2
 1642 17ac 0020D4E5 		ldrb	r2, [r4, #0]	@ zero_extendqisi2
 1643 17b0 033081E0 		add	r3, r1, r3
 1644 17b4 FF3003E2 		and	r3, r3, #255
 1645 17b8 0030C5E5 		strb	r3, [r5, #0]
 1646 17bc 023083E0 		add	r3, r3, r2
 1647 17c0 0030C4E5 		strb	r3, [r4, #0]
 1648 17c4 48071FE5 		ldr	r0, .L261+260
 1649 17c8 FEFFFFEB 		bl	uart_transmit
 1650 17cc 0030D5E5 		ldrb	r3, [r5, #0]	@ zero_extendqisi2
 1651 17d0 0020D4E5 		ldrb	r2, [r4, #0]	@ zero_extendqisi2
 1652 17d4 033087E0 		add	r3, r7, r3
 1653 17d8 FF3003E2 		and	r3, r3, #255
 1654 17dc 0030C5E5 		strb	r3, [r5, #0]
 1655 17e0 023083E0 		add	r3, r3, r2
 1656 17e4 0030C4E5 		strb	r3, [r4, #0]
 1657 17e8 0710A0E1 		mov	r1, r7
 1658 17ec 70071FE5 		ldr	r0, .L261+260
 1659 17f0 FEFFFFEB 		bl	uart_transmit
 1660 17f4 C8371FE5 		ldr	r3, .L261+180
 1661 17f8 0010D3E5 		ldrb	r1, [r3, #0]	@ zero_extendqisi2
 1662 17fc 0030D5E5 		ldrb	r3, [r5, #0]	@ zero_extendqisi2
 1663 1800 0020D4E5 		ldrb	r2, [r4, #0]	@ zero_extendqisi2
 1664 1804 033081E0 		add	r3, r1, r3
 1665 1808 FF3003E2 		and	r3, r3, #255
 1666 180c 0030C5E5 		strb	r3, [r5, #0]
 1667 1810 023083E0 		add	r3, r3, r2
 1668 1814 0030C4E5 		strb	r3, [r4, #0]
 1669 1818 9C071FE5 		ldr	r0, .L261+260
 1670 181c FEFFFFEB 		bl	uart_transmit
 1671 1820 0010D5E5 		ldrb	r1, [r5, #0]	@ zero_extendqisi2
 1672 1824 A8071FE5 		ldr	r0, .L261+260
 1673 1828 FEFFFFEB 		bl	uart_transmit
 1674 182c B0071FE5 		ldr	r0, .L261+260
 1675 1830 0010D4E5 		ldrb	r1, [r4, #0]	@ zero_extendqisi2
 1676 1834 FEFFFFEB 		bl	uart_transmit
 1677 1838 030000EA 		b	.L37
 1678              	.L38:
 1679 183c 0C381FE5 		ldr	r3, .L261+184
 1680 1840 0020D3E5 		ldrb	r2, [r3, #0]	@ zero_extendqisi2
 1681 1844 012082E2 		add	r2, r2, #1
 1682 1848 0020C3E5 		strb	r2, [r3, #0]
 1683              	.L37:
 1684 184c 18381FE5 		ldr	r3, .L261+188
 1685 1850 0030D3E5 		ldrb	r3, [r3, #0]	@ zero_extendqisi2
 1686 1854 240053E3 		cmp	r3, #36
 1687 1858 9C00001A 		bne	.L39
 1688 185c 24381FE5 		ldr	r3, .L261+192
 1689 1860 0030D3E5 		ldrb	r3, [r3, #0]	@ zero_extendqisi2
 1690 1864 000053E3 		cmp	r3, #0
 1691 1868 1402000A 		beq	.L40
 1692 186c F0071FE5 		ldr	r0, .L261+260
 1693 1870 1210A0E3 		mov	r1, #18
 1694 1874 FEFFFFEB 		bl	uart_check_free_space
 1695 1878 000050E3 		cmp	r0, #0
 1696 187c 0B02000A 		beq	.L42
 1697 1880 30381FE5 		ldr	r3, .L261+216
 1698 1884 B020D3E1 		ldrh	r2, [r3, #0]
 1699 1888 122082E2 		add	r2, r2, #18
 1700 188c B020C3E1 		strh	r2, [r3, #0]	@ movhi
 1701 1890 3C381FE5 		ldr	r3, .L261+220
 1702 1894 B020D3E1 		ldrh	r2, [r3, #0]
 1703 1898 012082E2 		add	r2, r2, #1
 1704 189c B020C3E1 		strh	r2, [r3, #0]	@ movhi
 1705 18a0 24081FE5 		ldr	r0, .L261+260
 1706 18a4 9910A0E3 		mov	r1, #153
 1707 18a8 50581FE5 		ldr	r5, .L261+224
 1708 18ac FEFFFFEB 		bl	uart_transmit
 1709 18b0 34081FE5 		ldr	r0, .L261+260
 1710 18b4 1210A0E3 		mov	r1, #18
 1711 18b8 7C481FE5 		ldr	r4, .L261+196
 1712 18bc FEFFFFEB 		bl	uart_transmit
 1713 18c0 1430A0E3 		mov	r3, #20
 1714 18c4 0030C5E5 		strb	r3, [r5, #0]
 1715 18c8 2630A0E3 		mov	r3, #38
 1716 18cc 0030C4E5 		strb	r3, [r4, #0]
 1717 18d0 54081FE5 		ldr	r0, .L261+260
 1718 18d4 0210A0E3 		mov	r1, #2
 1719 18d8 FEFFFFEB 		bl	uart_transmit
 1720 18dc 0030D5E5 		ldrb	r3, [r5, #0]	@ zero_extendqisi2
 1721 18e0 0020D4E5 		ldrb	r2, [r4, #0]	@ zero_extendqisi2
 1722 18e4 153083E2 		add	r3, r3, #21
 1723 18e8 FF3003E2 		and	r3, r3, #255
 1724 18ec AC681FE5 		ldr	r6, .L261+200
 1725 18f0 0030C5E5 		strb	r3, [r5, #0]
 1726 18f4 023083E0 		add	r3, r3, r2
 1727 18f8 0030C4E5 		strb	r3, [r4, #0]
 1728 18fc 80081FE5 		ldr	r0, .L261+260
 1729 1900 1510A0E3 		mov	r1, #21
 1730 1904 FEFFFFEB 		bl	uart_transmit
 1731 1908 0010D6E5 		ldrb	r1, [r6, #0]	@ zero_extendqisi2
 1732 190c 0030D5E5 		ldrb	r3, [r5, #0]	@ zero_extendqisi2
 1733 1910 0020D4E5 		ldrb	r2, [r4, #0]	@ zero_extendqisi2
 1734 1914 033081E0 		add	r3, r1, r3
 1735 1918 FF3003E2 		and	r3, r3, #255
 1736 191c 0030C5E5 		strb	r3, [r5, #0]
 1737 1920 023083E0 		add	r3, r3, r2
 1738 1924 0030C4E5 		strb	r3, [r4, #0]
 1739 1928 AC081FE5 		ldr	r0, .L261+260
 1740 192c FEFFFFEB 		bl	uart_transmit
 1741 1930 0110D6E5 		ldrb	r1, [r6, #1]	@ zero_extendqisi2
 1742 1934 0030D5E5 		ldrb	r3, [r5, #0]	@ zero_extendqisi2
 1743 1938 0020D4E5 		ldrb	r2, [r4, #0]	@ zero_extendqisi2
 1744 193c 033081E0 		add	r3, r1, r3
 1745 1940 FF3003E2 		and	r3, r3, #255
 1746 1944 0030C5E5 		strb	r3, [r5, #0]
 1747 1948 023083E0 		add	r3, r3, r2
 1748 194c 0030C4E5 		strb	r3, [r4, #0]
 1749 1950 D4081FE5 		ldr	r0, .L261+260
 1750 1954 FEFFFFEB 		bl	uart_transmit
 1751 1958 0210D6E5 		ldrb	r1, [r6, #2]	@ zero_extendqisi2
 1752 195c 0030D5E5 		ldrb	r3, [r5, #0]	@ zero_extendqisi2
 1753 1960 0020D4E5 		ldrb	r2, [r4, #0]	@ zero_extendqisi2
 1754 1964 033081E0 		add	r3, r1, r3
 1755 1968 FF3003E2 		and	r3, r3, #255
 1756 196c 0030C5E5 		strb	r3, [r5, #0]
 1757 1970 023083E0 		add	r3, r3, r2
 1758 1974 0030C4E5 		strb	r3, [r4, #0]
 1759 1978 FC081FE5 		ldr	r0, .L261+260
 1760 197c FEFFFFEB 		bl	uart_transmit
 1761 1980 0310D6E5 		ldrb	r1, [r6, #3]	@ zero_extendqisi2
 1762 1984 0030D5E5 		ldrb	r3, [r5, #0]	@ zero_extendqisi2
 1763 1988 0020D4E5 		ldrb	r2, [r4, #0]	@ zero_extendqisi2
 1764 198c 033081E0 		add	r3, r1, r3
 1765 1990 FF3003E2 		and	r3, r3, #255
 1766 1994 50691FE5 		ldr	r6, .L261+204
 1767 1998 0030C5E5 		strb	r3, [r5, #0]
 1768 199c 023083E0 		add	r3, r3, r2
 1769 19a0 0030C4E5 		strb	r3, [r4, #0]
 1770 19a4 28091FE5 		ldr	r0, .L261+260
 1771 19a8 FEFFFFEB 		bl	uart_transmit
 1772 19ac 0010D6E5 		ldrb	r1, [r6, #0]	@ zero_extendqisi2
 1773 19b0 0030D5E5 		ldrb	r3, [r5, #0]	@ zero_extendqisi2
 1774 19b4 0020D4E5 		ldrb	r2, [r4, #0]	@ zero_extendqisi2
 1775 19b8 033081E0 		add	r3, r1, r3
 1776 19bc FF3003E2 		and	r3, r3, #255
 1777 19c0 0030C5E5 		strb	r3, [r5, #0]
 1778 19c4 023083E0 		add	r3, r3, r2
 1779 19c8 0030C4E5 		strb	r3, [r4, #0]
 1780 19cc 50091FE5 		ldr	r0, .L261+260
 1781 19d0 FEFFFFEB 		bl	uart_transmit
 1782 19d4 0110D6E5 		ldrb	r1, [r6, #1]	@ zero_extendqisi2
 1783 19d8 0030D5E5 		ldrb	r3, [r5, #0]	@ zero_extendqisi2
 1784 19dc 0020D4E5 		ldrb	r2, [r4, #0]	@ zero_extendqisi2
 1785 19e0 033081E0 		add	r3, r1, r3
 1786 19e4 FF3003E2 		and	r3, r3, #255
 1787 19e8 0030C5E5 		strb	r3, [r5, #0]
 1788 19ec 023083E0 		add	r3, r3, r2
 1789 19f0 0030C4E5 		strb	r3, [r4, #0]
 1790 19f4 78091FE5 		ldr	r0, .L261+260
 1791 19f8 FEFFFFEB 		bl	uart_transmit
 1792 19fc 0210D6E5 		ldrb	r1, [r6, #2]	@ zero_extendqisi2
 1793 1a00 0030D5E5 		ldrb	r3, [r5, #0]	@ zero_extendqisi2
 1794 1a04 0020D4E5 		ldrb	r2, [r4, #0]	@ zero_extendqisi2
 1795 1a08 033081E0 		add	r3, r1, r3
 1796 1a0c FF3003E2 		and	r3, r3, #255
 1797 1a10 0030C5E5 		strb	r3, [r5, #0]
 1798 1a14 023083E0 		add	r3, r3, r2
 1799 1a18 0030C4E5 		strb	r3, [r4, #0]
 1800 1a1c A0091FE5 		ldr	r0, .L261+260
 1801 1a20 FEFFFFEB 		bl	uart_transmit
 1802 1a24 0310D6E5 		ldrb	r1, [r6, #3]	@ zero_extendqisi2
 1803 1a28 0030D5E5 		ldrb	r3, [r5, #0]	@ zero_extendqisi2
 1804 1a2c 0020D4E5 		ldrb	r2, [r4, #0]	@ zero_extendqisi2
 1805 1a30 033081E0 		add	r3, r1, r3
 1806 1a34 FF3003E2 		and	r3, r3, #255
 1807 1a38 F0691FE5 		ldr	r6, .L261+208
 1808 1a3c 0030C5E5 		strb	r3, [r5, #0]
 1809 1a40 023083E0 		add	r3, r3, r2
 1810 1a44 0030C4E5 		strb	r3, [r4, #0]
 1811 1a48 CC091FE5 		ldr	r0, .L261+260
 1812 1a4c FEFFFFEB 		bl	uart_transmit
 1813 1a50 0010D6E5 		ldrb	r1, [r6, #0]	@ zero_extendqisi2
 1814 1a54 0030D5E5 		ldrb	r3, [r5, #0]	@ zero_extendqisi2
 1815 1a58 0020D4E5 		ldrb	r2, [r4, #0]	@ zero_extendqisi2
 1816 1a5c 033081E0 		add	r3, r1, r3
 1817 1a60 FF3003E2 		and	r3, r3, #255
 1818 1a64 0030C5E5 		strb	r3, [r5, #0]
 1819 1a68 023083E0 		add	r3, r3, r2
 1820 1a6c 0030C4E5 		strb	r3, [r4, #0]
 1821 1a70 F4091FE5 		ldr	r0, .L261+260
 1822 1a74 FEFFFFEB 		bl	uart_transmit
 1823 1a78 0110D6E5 		ldrb	r1, [r6, #1]	@ zero_extendqisi2
 1824 1a7c 0030D5E5 		ldrb	r3, [r5, #0]	@ zero_extendqisi2
 1825 1a80 0020D4E5 		ldrb	r2, [r4, #0]	@ zero_extendqisi2
 1826 1a84 033081E0 		add	r3, r1, r3
 1827 1a88 FF3003E2 		and	r3, r3, #255
 1828 1a8c 0030C5E5 		strb	r3, [r5, #0]
 1829 1a90 023083E0 		add	r3, r3, r2
 1830 1a94 0030C4E5 		strb	r3, [r4, #0]
 1831 1a98 1C0A1FE5 		ldr	r0, .L261+260
 1832 1a9c FEFFFFEB 		bl	uart_transmit
 1833 1aa0 0210D6E5 		ldrb	r1, [r6, #2]	@ zero_extendqisi2
 1834 1aa4 0030D5E5 		ldrb	r3, [r5, #0]	@ zero_extendqisi2
 1835 1aa8 0020D4E5 		ldrb	r2, [r4, #0]	@ zero_extendqisi2
 1836 1aac 033081E0 		add	r3, r1, r3
 1837 1ab0 FF3003E2 		and	r3, r3, #255
 1838 1ab4 0030C5E5 		strb	r3, [r5, #0]
 1839 1ab8 023083E0 		add	r3, r3, r2
 1840 1abc 0030C4E5 		strb	r3, [r4, #0]
 1841 1ac0 440A1FE5 		ldr	r0, .L261+260
 1842 1ac4 FEFFFFEB 		bl	uart_transmit
 1843 1ac8 0310D6E5 		ldrb	r1, [r6, #3]	@ zero_extendqisi2
 1844 1acc 670100EA 		b	.L244
 1845              	.L39:
 1846 1ad0 2A0053E3 		cmp	r3, #42
 1847 1ad4 7901001A 		bne	.L40
 1848 1ad8 8C3A1FE5 		ldr	r3, .L261+212
 1849 1adc 600A1FE5 		ldr	r0, .L261+260
 1850 1ae0 2610A0E3 		mov	r1, #38
 1851 1ae4 04308DE5 		str	r3, [sp, #4]	@ float
 1852 1ae8 FEFFFFEB 		bl	uart_check_free_space
 1853 1aec 000050E3 		cmp	r0, #0
 1854 1af0 6E01000A 		beq	.L42
 1855 1af4 A43A1FE5 		ldr	r3, .L261+216
 1856 1af8 B020D3E1 		ldrh	r2, [r3, #0]
 1857 1afc 262082E2 		add	r2, r2, #38
 1858 1b00 B020C3E1 		strh	r2, [r3, #0]	@ movhi
 1859 1b04 B03A1FE5 		ldr	r3, .L261+220
 1860 1b08 B020D3E1 		ldrh	r2, [r3, #0]
 1861 1b0c 012082E2 		add	r2, r2, #1
 1862 1b10 B020C3E1 		strh	r2, [r3, #0]	@ movhi
 1863 1b14 980A1FE5 		ldr	r0, .L261+260
 1864 1b18 9910A0E3 		mov	r1, #153
 1865 1b1c C45A1FE5 		ldr	r5, .L261+224
 1866 1b20 FEFFFFEB 		bl	uart_transmit
 1867 1b24 A80A1FE5 		ldr	r0, .L261+260
 1868 1b28 2610A0E3 		mov	r1, #38
 1869 1b2c D04A1FE5 		ldr	r4, .L261+228
 1870 1b30 FEFFFFEB 		bl	uart_transmit
 1871 1b34 2830A0E3 		mov	r3, #40
 1872 1b38 0030C5E5 		strb	r3, [r5, #0]
 1873 1b3c 4E30A0E3 		mov	r3, #78
 1874 1b40 0030C4E5 		strb	r3, [r4, #0]
 1875 1b44 C80A1FE5 		ldr	r0, .L261+260
 1876 1b48 0210A0E3 		mov	r1, #2
 1877 1b4c FEFFFFEB 		bl	uart_transmit
 1878 1b50 0030D5E5 		ldrb	r3, [r5, #0]	@ zero_extendqisi2
 1879 1b54 0020D4E5 		ldrb	r2, [r4, #0]	@ zero_extendqisi2
 1880 1b58 103083E2 		add	r3, r3, #16
 1881 1b5c FF3003E2 		and	r3, r3, #255
 1882 1b60 006B1FE5 		ldr	r6, .L261+232
 1883 1b64 0030C5E5 		strb	r3, [r5, #0]
 1884 1b68 023083E0 		add	r3, r3, r2
 1885 1b6c 0030C4E5 		strb	r3, [r4, #0]
 1886 1b70 F40A1FE5 		ldr	r0, .L261+260
 1887 1b74 1010A0E3 		mov	r1, #16
 1888 1b78 FEFFFFEB 		bl	uart_transmit
 1889 1b7c 0010D6E5 		ldrb	r1, [r6, #0]	@ zero_extendqisi2
 1890 1b80 0030D5E5 		ldrb	r3, [r5, #0]	@ zero_extendqisi2
 1891 1b84 0020D4E5 		ldrb	r2, [r4, #0]	@ zero_extendqisi2
 1892 1b88 033081E0 		add	r3, r1, r3
 1893 1b8c FF3003E2 		and	r3, r3, #255
 1894 1b90 0030C5E5 		strb	r3, [r5, #0]
 1895 1b94 023083E0 		add	r3, r3, r2
 1896 1b98 0030C4E5 		strb	r3, [r4, #0]
 1897 1b9c 200B1FE5 		ldr	r0, .L261+260
 1898 1ba0 FEFFFFEB 		bl	uart_transmit
 1899 1ba4 0110D6E5 		ldrb	r1, [r6, #1]	@ zero_extendqisi2
 1900 1ba8 0030D5E5 		ldrb	r3, [r5, #0]	@ zero_extendqisi2
 1901 1bac 0020D4E5 		ldrb	r2, [r4, #0]	@ zero_extendqisi2
 1902 1bb0 033081E0 		add	r3, r1, r3
 1903 1bb4 FF3003E2 		and	r3, r3, #255
 1904 1bb8 0030C5E5 		strb	r3, [r5, #0]
 1905 1bbc 023083E0 		add	r3, r3, r2
 1906 1bc0 0030C4E5 		strb	r3, [r4, #0]
 1907 1bc4 480B1FE5 		ldr	r0, .L261+260
 1908 1bc8 FEFFFFEB 		bl	uart_transmit
 1909 1bcc 0210D6E5 		ldrb	r1, [r6, #2]	@ zero_extendqisi2
 1910 1bd0 0030D5E5 		ldrb	r3, [r5, #0]	@ zero_extendqisi2
 1911 1bd4 0020D4E5 		ldrb	r2, [r4, #0]	@ zero_extendqisi2
 1912 1bd8 033081E0 		add	r3, r1, r3
 1913 1bdc FF3003E2 		and	r3, r3, #255
 1914 1be0 0030C5E5 		strb	r3, [r5, #0]
 1915 1be4 023083E0 		add	r3, r3, r2
 1916 1be8 0030C4E5 		strb	r3, [r4, #0]
 1917 1bec 700B1FE5 		ldr	r0, .L261+260
 1918 1bf0 FEFFFFEB 		bl	uart_transmit
 1919 1bf4 0310D6E5 		ldrb	r1, [r6, #3]	@ zero_extendqisi2
 1920 1bf8 0030D5E5 		ldrb	r3, [r5, #0]	@ zero_extendqisi2
 1921 1bfc 0020D4E5 		ldrb	r2, [r4, #0]	@ zero_extendqisi2
 1922 1c00 033081E0 		add	r3, r1, r3
 1923 1c04 FF3003E2 		and	r3, r3, #255
 1924 1c08 A46B1FE5 		ldr	r6, .L261+236
 1925 1c0c 0030C5E5 		strb	r3, [r5, #0]
 1926 1c10 023083E0 		add	r3, r3, r2
 1927 1c14 0030C4E5 		strb	r3, [r4, #0]
 1928 1c18 9C0B1FE5 		ldr	r0, .L261+260
 1929 1c1c FEFFFFEB 		bl	uart_transmit
 1930 1c20 0010D6E5 		ldrb	r1, [r6, #0]	@ zero_extendqisi2
 1931 1c24 0030D5E5 		ldrb	r3, [r5, #0]	@ zero_extendqisi2
 1932 1c28 0020D4E5 		ldrb	r2, [r4, #0]	@ zero_extendqisi2
 1933 1c2c 033081E0 		add	r3, r1, r3
 1934 1c30 FF3003E2 		and	r3, r3, #255
 1935 1c34 0030C5E5 		strb	r3, [r5, #0]
 1936 1c38 023083E0 		add	r3, r3, r2
 1937 1c3c 0030C4E5 		strb	r3, [r4, #0]
 1938 1c40 C40B1FE5 		ldr	r0, .L261+260
 1939 1c44 FEFFFFEB 		bl	uart_transmit
 1940 1c48 0110D6E5 		ldrb	r1, [r6, #1]	@ zero_extendqisi2
 1941 1c4c 0030D5E5 		ldrb	r3, [r5, #0]	@ zero_extendqisi2
 1942 1c50 0020D4E5 		ldrb	r2, [r4, #0]	@ zero_extendqisi2
 1943 1c54 033081E0 		add	r3, r1, r3
 1944 1c58 FF3003E2 		and	r3, r3, #255
 1945 1c5c 0030C5E5 		strb	r3, [r5, #0]
 1946 1c60 023083E0 		add	r3, r3, r2
 1947 1c64 0030C4E5 		strb	r3, [r4, #0]
 1948 1c68 EC0B1FE5 		ldr	r0, .L261+260
 1949 1c6c FEFFFFEB 		bl	uart_transmit
 1950 1c70 0210D6E5 		ldrb	r1, [r6, #2]	@ zero_extendqisi2
 1951 1c74 0030D5E5 		ldrb	r3, [r5, #0]	@ zero_extendqisi2
 1952 1c78 0020D4E5 		ldrb	r2, [r4, #0]	@ zero_extendqisi2
 1953 1c7c 033081E0 		add	r3, r1, r3
 1954 1c80 FF3003E2 		and	r3, r3, #255
 1955 1c84 0030C5E5 		strb	r3, [r5, #0]
 1956 1c88 023083E0 		add	r3, r3, r2
 1957 1c8c 0030C4E5 		strb	r3, [r4, #0]
 1958 1c90 140C1FE5 		ldr	r0, .L261+260
 1959 1c94 FEFFFFEB 		bl	uart_transmit
 1960 1c98 0310D6E5 		ldrb	r1, [r6, #3]	@ zero_extendqisi2
 1961 1c9c 0030D5E5 		ldrb	r3, [r5, #0]	@ zero_extendqisi2
 1962 1ca0 0020D4E5 		ldrb	r2, [r4, #0]	@ zero_extendqisi2
 1963 1ca4 033081E0 		add	r3, r1, r3
 1964 1ca8 FF3003E2 		and	r3, r3, #255
 1965 1cac 446C1FE5 		ldr	r6, .L261+240
 1966 1cb0 0030C5E5 		strb	r3, [r5, #0]
 1967 1cb4 023083E0 		add	r3, r3, r2
 1968 1cb8 0030C4E5 		strb	r3, [r4, #0]
 1969 1cbc 400C1FE5 		ldr	r0, .L261+260
 1970 1cc0 FEFFFFEB 		bl	uart_transmit
 1971 1cc4 0010D6E5 		ldrb	r1, [r6, #0]	@ zero_extendqisi2
 1972 1cc8 0030D5E5 		ldrb	r3, [r5, #0]	@ zero_extendqisi2
 1973 1ccc 0020D4E5 		ldrb	r2, [r4, #0]	@ zero_extendqisi2
 1974 1cd0 033081E0 		add	r3, r1, r3
 1975 1cd4 FF3003E2 		and	r3, r3, #255
 1976 1cd8 0030C5E5 		strb	r3, [r5, #0]
 1977 1cdc 023083E0 		add	r3, r3, r2
 1978 1ce0 0030C4E5 		strb	r3, [r4, #0]
 1979 1ce4 680C1FE5 		ldr	r0, .L261+260
 1980 1ce8 FEFFFFEB 		bl	uart_transmit
 1981 1cec 0110D6E5 		ldrb	r1, [r6, #1]	@ zero_extendqisi2
 1982 1cf0 0030D5E5 		ldrb	r3, [r5, #0]	@ zero_extendqisi2
 1983 1cf4 0020D4E5 		ldrb	r2, [r4, #0]	@ zero_extendqisi2
 1984 1cf8 033081E0 		add	r3, r1, r3
 1985 1cfc FF3003E2 		and	r3, r3, #255
 1986 1d00 0030C5E5 		strb	r3, [r5, #0]
 1987 1d04 023083E0 		add	r3, r3, r2
 1988 1d08 0030C4E5 		strb	r3, [r4, #0]
 1989 1d0c 900C1FE5 		ldr	r0, .L261+260
 1990 1d10 FEFFFFEB 		bl	uart_transmit
 1991 1d14 0210D6E5 		ldrb	r1, [r6, #2]	@ zero_extendqisi2
 1992 1d18 0030D5E5 		ldrb	r3, [r5, #0]	@ zero_extendqisi2
 1993 1d1c 0020D4E5 		ldrb	r2, [r4, #0]	@ zero_extendqisi2
 1994 1d20 033081E0 		add	r3, r1, r3
 1995 1d24 FF3003E2 		and	r3, r3, #255
 1996 1d28 0030C5E5 		strb	r3, [r5, #0]
 1997 1d2c 023083E0 		add	r3, r3, r2
 1998 1d30 0030C4E5 		strb	r3, [r4, #0]
 1999 1d34 B80C1FE5 		ldr	r0, .L261+260
 2000 1d38 FEFFFFEB 		bl	uart_transmit
 2001 1d3c 0310D6E5 		ldrb	r1, [r6, #3]	@ zero_extendqisi2
 2002 1d40 0030D5E5 		ldrb	r3, [r5, #0]	@ zero_extendqisi2
 2003 1d44 0020D4E5 		ldrb	r2, [r4, #0]	@ zero_extendqisi2
 2004 1d48 033081E0 		add	r3, r1, r3
 2005 1d4c FF3003E2 		and	r3, r3, #255
 2006 1d50 E46C1FE5 		ldr	r6, .L261+244
 2007 1d54 0030C5E5 		strb	r3, [r5, #0]
 2008 1d58 023083E0 		add	r3, r3, r2
 2009 1d5c 0030C4E5 		strb	r3, [r4, #0]
 2010 1d60 E40C1FE5 		ldr	r0, .L261+260
 2011 1d64 FEFFFFEB 		bl	uart_transmit
 2012 1d68 0010D6E5 		ldrb	r1, [r6, #0]	@ zero_extendqisi2
 2013 1d6c 0030D5E5 		ldrb	r3, [r5, #0]	@ zero_extendqisi2
 2014 1d70 0020D4E5 		ldrb	r2, [r4, #0]	@ zero_extendqisi2
 2015 1d74 033081E0 		add	r3, r1, r3
 2016 1d78 FF3003E2 		and	r3, r3, #255
 2017 1d7c 0030C5E5 		strb	r3, [r5, #0]
 2018 1d80 023083E0 		add	r3, r3, r2
 2019 1d84 0030C4E5 		strb	r3, [r4, #0]
 2020 1d88 0C0D1FE5 		ldr	r0, .L261+260
 2021 1d8c FEFFFFEB 		bl	uart_transmit
 2022 1d90 0110D6E5 		ldrb	r1, [r6, #1]	@ zero_extendqisi2
 2023 1d94 0030D5E5 		ldrb	r3, [r5, #0]	@ zero_extendqisi2
 2024 1d98 0020D4E5 		ldrb	r2, [r4, #0]	@ zero_extendqisi2
 2025 1d9c 033081E0 		add	r3, r1, r3
 2026 1da0 FF3003E2 		and	r3, r3, #255
 2027 1da4 0030C5E5 		strb	r3, [r5, #0]
 2028 1da8 023083E0 		add	r3, r3, r2
 2029 1dac 0030C4E5 		strb	r3, [r4, #0]
 2030 1db0 340D1FE5 		ldr	r0, .L261+260
 2031 1db4 FEFFFFEB 		bl	uart_transmit
 2032 1db8 0210D6E5 		ldrb	r1, [r6, #2]	@ zero_extendqisi2
 2033 1dbc 0030D5E5 		ldrb	r3, [r5, #0]	@ zero_extendqisi2
 2034 1dc0 0020D4E5 		ldrb	r2, [r4, #0]	@ zero_extendqisi2
 2035 1dc4 033081E0 		add	r3, r1, r3
 2036 1dc8 FF3003E2 		and	r3, r3, #255
 2037 1dcc 0030C5E5 		strb	r3, [r5, #0]
 2038 1dd0 023083E0 		add	r3, r3, r2
 2039 1dd4 0030C4E5 		strb	r3, [r4, #0]
 2040 1dd8 5C0D1FE5 		ldr	r0, .L261+260
 2041 1ddc FEFFFFEB 		bl	uart_transmit
 2042 1de0 0310D6E5 		ldrb	r1, [r6, #3]	@ zero_extendqisi2
 2043 1de4 0030D5E5 		ldrb	r3, [r5, #0]	@ zero_extendqisi2
 2044 1de8 0020D4E5 		ldrb	r2, [r4, #0]	@ zero_extendqisi2
 2045 1dec 033081E0 		add	r3, r1, r3
 2046 1df0 FF3003E2 		and	r3, r3, #255
 2047 1df4 846D1FE5 		ldr	r6, .L261+248
 2048 1df8 0030C5E5 		strb	r3, [r5, #0]
 2049 1dfc 023083E0 		add	r3, r3, r2
 2050 1e00 0030C4E5 		strb	r3, [r4, #0]
 2051 1e04 880D1FE5 		ldr	r0, .L261+260
 2052 1e08 FEFFFFEB 		bl	uart_transmit
 2053 1e0c 0010D6E5 		ldrb	r1, [r6, #0]	@ zero_extendqisi2
 2054 1e10 0030D5E5 		ldrb	r3, [r5, #0]	@ zero_extendqisi2
 2055 1e14 0020D4E5 		ldrb	r2, [r4, #0]	@ zero_extendqisi2
 2056 1e18 033081E0 		add	r3, r1, r3
 2057 1e1c FF3003E2 		and	r3, r3, #255
 2058 1e20 0030C5E5 		strb	r3, [r5, #0]
 2059 1e24 023083E0 		add	r3, r3, r2
 2060 1e28 0030C4E5 		strb	r3, [r4, #0]
 2061 1e2c B00D1FE5 		ldr	r0, .L261+260
 2062 1e30 FEFFFFEB 		bl	uart_transmit
 2063 1e34 0110D6E5 		ldrb	r1, [r6, #1]	@ zero_extendqisi2
 2064 1e38 0030D5E5 		ldrb	r3, [r5, #0]	@ zero_extendqisi2
 2065 1e3c 0020D4E5 		ldrb	r2, [r4, #0]	@ zero_extendqisi2
 2066 1e40 033081E0 		add	r3, r1, r3
 2067 1e44 FF3003E2 		and	r3, r3, #255
 2068 1e48 0030C5E5 		strb	r3, [r5, #0]
 2069 1e4c 023083E0 		add	r3, r3, r2
 2070 1e50 0030C4E5 		strb	r3, [r4, #0]
 2071 1e54 D80D1FE5 		ldr	r0, .L261+260
 2072 1e58 FEFFFFEB 		bl	uart_transmit
 2073 1e5c 0210D6E5 		ldrb	r1, [r6, #2]	@ zero_extendqisi2
 2074 1e60 0030D5E5 		ldrb	r3, [r5, #0]	@ zero_extendqisi2
 2075 1e64 0020D4E5 		ldrb	r2, [r4, #0]	@ zero_extendqisi2
 2076 1e68 033081E0 		add	r3, r1, r3
 2077 1e6c FF3003E2 		and	r3, r3, #255
 2078 1e70 0030C5E5 		strb	r3, [r5, #0]
 2079 1e74 023083E0 		add	r3, r3, r2
 2080 1e78 0030C4E5 		strb	r3, [r4, #0]
 2081 1e7c 000E1FE5 		ldr	r0, .L261+260
 2082 1e80 FEFFFFEB 		bl	uart_transmit
 2083 1e84 0310D6E5 		ldrb	r1, [r6, #3]	@ zero_extendqisi2
 2084 1e88 0030D5E5 		ldrb	r3, [r5, #0]	@ zero_extendqisi2
 2085 1e8c 0020D4E5 		ldrb	r2, [r4, #0]	@ zero_extendqisi2
 2086 1e90 033081E0 		add	r3, r1, r3
 2087 1e94 FF3003E2 		and	r3, r3, #255
 2088 1e98 246E1FE5 		ldr	r6, .L261+252
 2089 1e9c 0030C5E5 		strb	r3, [r5, #0]
 2090 1ea0 023083E0 		add	r3, r3, r2
 2091 1ea4 0030C4E5 		strb	r3, [r4, #0]
 2092 1ea8 2C0E1FE5 		ldr	r0, .L261+260
 2093 1eac FEFFFFEB 		bl	uart_transmit
 2094 1eb0 0010D6E5 		ldrb	r1, [r6, #0]	@ zero_extendqisi2
 2095 1eb4 0030D5E5 		ldrb	r3, [r5, #0]	@ zero_extendqisi2
 2096 1eb8 0020D4E5 		ldrb	r2, [r4, #0]	@ zero_extendqisi2
 2097 1ebc 033081E0 		add	r3, r1, r3
 2098 1ec0 FF3003E2 		and	r3, r3, #255
 2099 1ec4 0030C5E5 		strb	r3, [r5, #0]
 2100 1ec8 023083E0 		add	r3, r3, r2
 2101 1ecc 0030C4E5 		strb	r3, [r4, #0]
 2102 1ed0 540E1FE5 		ldr	r0, .L261+260
 2103 1ed4 FEFFFFEB 		bl	uart_transmit
 2104 1ed8 0110D6E5 		ldrb	r1, [r6, #1]	@ zero_extendqisi2
 2105 1edc 0030D5E5 		ldrb	r3, [r5, #0]	@ zero_extendqisi2
 2106 1ee0 0020D4E5 		ldrb	r2, [r4, #0]	@ zero_extendqisi2
 2107 1ee4 033081E0 		add	r3, r1, r3
 2108 1ee8 FF3003E2 		and	r3, r3, #255
 2109 1eec 0030C5E5 		strb	r3, [r5, #0]
 2110 1ef0 023083E0 		add	r3, r3, r2
 2111 1ef4 0030C4E5 		strb	r3, [r4, #0]
 2112 1ef8 7C0E1FE5 		ldr	r0, .L261+260
 2113 1efc FEFFFFEB 		bl	uart_transmit
 2114 1f00 0210D6E5 		ldrb	r1, [r6, #2]	@ zero_extendqisi2
 2115 1f04 0030D5E5 		ldrb	r3, [r5, #0]	@ zero_extendqisi2
 2116 1f08 0020D4E5 		ldrb	r2, [r4, #0]	@ zero_extendqisi2
 2117 1f0c 033081E0 		add	r3, r1, r3
 2118 1f10 FF3003E2 		and	r3, r3, #255
 2119 1f14 0030C5E5 		strb	r3, [r5, #0]
 2120 1f18 023083E0 		add	r3, r3, r2
 2121 1f1c 0030C4E5 		strb	r3, [r4, #0]
 2122 1f20 A40E1FE5 		ldr	r0, .L261+260
 2123 1f24 FEFFFFEB 		bl	uart_transmit
 2124 1f28 0310D6E5 		ldrb	r1, [r6, #3]	@ zero_extendqisi2
 2125 1f2c 0030D5E5 		ldrb	r3, [r5, #0]	@ zero_extendqisi2
 2126 1f30 0020D4E5 		ldrb	r2, [r4, #0]	@ zero_extendqisi2
 2127 1f34 033081E0 		add	r3, r1, r3
 2128 1f38 FF3003E2 		and	r3, r3, #255
 2129 1f3c C46E1FE5 		ldr	r6, .L261+256
 2130 1f40 0030C5E5 		strb	r3, [r5, #0]
 2131 1f44 023083E0 		add	r3, r3, r2
 2132 1f48 0030C4E5 		strb	r3, [r4, #0]
 2133 1f4c D00E1FE5 		ldr	r0, .L261+260
 2134 1f50 FEFFFFEB 		bl	uart_transmit
 2135 1f54 0010D6E5 		ldrb	r1, [r6, #0]	@ zero_extendqisi2
 2136 1f58 0030D5E5 		ldrb	r3, [r5, #0]	@ zero_extendqisi2
 2137 1f5c 0020D4E5 		ldrb	r2, [r4, #0]	@ zero_extendqisi2
 2138 1f60 033081E0 		add	r3, r1, r3
 2139 1f64 FF3003E2 		and	r3, r3, #255
 2140 1f68 0030C5E5 		strb	r3, [r5, #0]
 2141 1f6c 023083E0 		add	r3, r3, r2
 2142 1f70 0030C4E5 		strb	r3, [r4, #0]
 2143 1f74 F80E1FE5 		ldr	r0, .L261+260
 2144 1f78 FEFFFFEB 		bl	uart_transmit
 2145 1f7c 0110D6E5 		ldrb	r1, [r6, #1]	@ zero_extendqisi2
 2146 1f80 0030D5E5 		ldrb	r3, [r5, #0]	@ zero_extendqisi2
 2147 1f84 0020D4E5 		ldrb	r2, [r4, #0]	@ zero_extendqisi2
 2148 1f88 033081E0 		add	r3, r1, r3
 2149 1f8c FF3003E2 		and	r3, r3, #255
 2150 1f90 0030C5E5 		strb	r3, [r5, #0]
 2151 1f94 023083E0 		add	r3, r3, r2
 2152 1f98 0030C4E5 		strb	r3, [r4, #0]
 2153 1f9c 200F1FE5 		ldr	r0, .L261+260
 2154 1fa0 FEFFFFEB 		bl	uart_transmit
 2155 1fa4 0210D6E5 		ldrb	r1, [r6, #2]	@ zero_extendqisi2
 2156 1fa8 0030D5E5 		ldrb	r3, [r5, #0]	@ zero_extendqisi2
 2157 1fac 0020D4E5 		ldrb	r2, [r4, #0]	@ zero_extendqisi2
 2158 1fb0 033081E0 		add	r3, r1, r3
 2159 1fb4 FF3003E2 		and	r3, r3, #255
 2160 1fb8 0030C5E5 		strb	r3, [r5, #0]
 2161 1fbc 023083E0 		add	r3, r3, r2
 2162 1fc0 0030C4E5 		strb	r3, [r4, #0]
 2163 1fc4 480F1FE5 		ldr	r0, .L261+260
 2164 1fc8 FEFFFFEB 		bl	uart_transmit
 2165 1fcc 0310D6E5 		ldrb	r1, [r6, #3]	@ zero_extendqisi2
 2166 1fd0 0030D5E5 		ldrb	r3, [r5, #0]	@ zero_extendqisi2
 2167 1fd4 0020D4E5 		ldrb	r2, [r4, #0]	@ zero_extendqisi2
 2168 1fd8 033081E0 		add	r3, r1, r3
 2169 1fdc FF3003E2 		and	r3, r3, #255
 2170 1fe0 0030C5E5 		strb	r3, [r5, #0]
 2171 1fe4 023083E0 		add	r3, r3, r2
 2172 1fe8 0030C4E5 		strb	r3, [r4, #0]
 2173 1fec 700F1FE5 		ldr	r0, .L261+260
 2174 1ff0 FEFFFFEB 		bl	uart_transmit
 2175 1ff4 0410DDE5 		ldrb	r1, [sp, #4]	@ zero_extendqisi2
 2176 1ff8 0030D5E5 		ldrb	r3, [r5, #0]	@ zero_extendqisi2
 2177 1ffc 0020D4E5 		ldrb	r2, [r4, #0]	@ zero_extendqisi2
 2178 2000 033081E0 		add	r3, r1, r3
 2179 2004 FF3003E2 		and	r3, r3, #255
 2180 2008 0030C5E5 		strb	r3, [r5, #0]
 2181 200c 023083E0 		add	r3, r3, r2
 2182 2010 0030C4E5 		strb	r3, [r4, #0]
 2183 2014 980F1FE5 		ldr	r0, .L261+260
 2184 2018 FEFFFFEB 		bl	uart_transmit
 2185 201c 0510DDE5 		ldrb	r1, [sp, #5]	@ zero_extendqisi2
 2186 2020 0030D5E5 		ldrb	r3, [r5, #0]	@ zero_extendqisi2
 2187 2024 0020D4E5 		ldrb	r2, [r4, #0]	@ zero_extendqisi2
 2188 2028 033081E0 		add	r3, r1, r3
 2189 202c FF3003E2 		and	r3, r3, #255
 2190 2030 0030C5E5 		strb	r3, [r5, #0]
 2191 2034 023083E0 		add	r3, r3, r2
 2192 2038 0030C4E5 		strb	r3, [r4, #0]
 2193 203c C00F1FE5 		ldr	r0, .L261+260
 2194 2040 FEFFFFEB 		bl	uart_transmit
 2195 2044 0610DDE5 		ldrb	r1, [sp, #6]	@ zero_extendqisi2
 2196 2048 0030D5E5 		ldrb	r3, [r5, #0]	@ zero_extendqisi2
 2197 204c 0020D4E5 		ldrb	r2, [r4, #0]	@ zero_extendqisi2
 2198 2050 033081E0 		add	r3, r1, r3
 2199 2054 FF3003E2 		and	r3, r3, #255
 2200 2058 0030C5E5 		strb	r3, [r5, #0]
 2201 205c 023083E0 		add	r3, r3, r2
 2202 2060 0030C4E5 		strb	r3, [r4, #0]
 2203 2064 E80F1FE5 		ldr	r0, .L261+260
 2204 2068 FEFFFFEB 		bl	uart_transmit
 2205 206c 0710DDE5 		ldrb	r1, [sp, #7]	@ zero_extendqisi2
 2206              	.L244:
 2207 2070 0030D5E5 		ldrb	r3, [r5, #0]	@ zero_extendqisi2
 2208 2074 0020D4E5 		ldrb	r2, [r4, #0]	@ zero_extendqisi2
 2209 2078 033081E0 		add	r3, r1, r3
 2210 207c FF3003E2 		and	r3, r3, #255
 2211 2080 0030C5E5 		strb	r3, [r5, #0]
 2212 2084 023083E0 		add	r3, r3, r2
 2213 2088 0030C4E5 		strb	r3, [r4, #0]
 2214 208c 540F9FE5 		ldr	r0, .L263
 2215 2090 FEFFFFEB 		bl	uart_transmit
 2216 2094 0010D5E5 		ldrb	r1, [r5, #0]	@ zero_extendqisi2
 2217 2098 480F9FE5 		ldr	r0, .L263
 2218 209c FEFFFFEB 		bl	uart_transmit
 2219 20a0 400F9FE5 		ldr	r0, .L263
 2220 20a4 0010D4E5 		ldrb	r1, [r4, #0]	@ zero_extendqisi2
 2221 20a8 FEFFFFEB 		bl	uart_transmit
 2222 20ac 030000EA 		b	.L40
 2223              	.L42:
 2224 20b0 343F9FE5 		ldr	r3, .L263+4
 2225 20b4 0020D3E5 		ldrb	r2, [r3, #0]	@ zero_extendqisi2
 2226 20b8 012082E2 		add	r2, r2, #1
 2227 20bc 0020C3E5 		strb	r2, [r3, #0]
 2228              	.L40:
 2229 20c0 283F9FE5 		ldr	r3, .L263+8
 2230 20c4 0060D3E5 		ldrb	r6, [r3, #0]	@ zero_extendqisi2
 2231 20c8 300056E3 		cmp	r6, #48
 2232 20cc E900001A 		bne	.L43
 2233 20d0 1C3F9FE5 		ldr	r3, .L263+12
 2234 20d4 0A10A0E3 		mov	r1, #10
 2235 20d8 000093E5 		ldr	r0, [r3, #0]
 2236 20dc FEFFFFEB 		bl	__aeabi_idiv
 2237 20e0 103F9FE5 		ldr	r3, .L263+16
 2238 20e4 BE00CDE1 		strh	r0, [sp, #14]	@ movhi
 2239 20e8 000093E5 		ldr	r0, [r3, #0]	@ float
 2240 20ec FEFFFFEB 		bl	__aeabi_f2iz
 2241 20f0 1710A0E3 		mov	r1, #23
 2242 20f4 BC00CDE1 		strh	r0, [sp, #12]	@ movhi
 2243 20f8 E80E9FE5 		ldr	r0, .L263
 2244 20fc FEFFFFEB 		bl	uart_check_free_space
 2245 2100 000050E3 		cmp	r0, #0
 2246 2104 D700000A 		beq	.L44
 2247 2108 D43F9FE5 		ldr	r3, .L263+252
 2248 210c B020D3E1 		ldrh	r2, [r3, #0]
 2249 2110 172082E2 		add	r2, r2, #23
 2250 2114 B020C3E1 		strh	r2, [r3, #0]	@ movhi
 2251 2118 CC3F9FE5 		ldr	r3, .L263+260
 2252 211c B020D3E1 		ldrh	r2, [r3, #0]
 2253 2120 012082E2 		add	r2, r2, #1
 2254 2124 B020C3E1 		strh	r2, [r3, #0]	@ movhi
 2255 2128 B80E9FE5 		ldr	r0, .L263
 2256 212c 9910A0E3 		mov	r1, #153
 2257 2130 D05F9FE5 		ldr	r5, .L263+288
 2258 2134 D04F9FE5 		ldr	r4, .L263+292
 2259 2138 FEFFFFEB 		bl	uart_transmit
 2260 213c A40E9FE5 		ldr	r0, .L263
 2261 2140 1710A0E3 		mov	r1, #23
 2262 2144 FEFFFFEB 		bl	uart_transmit
 2263 2148 1930A0E3 		mov	r3, #25
 2264 214c 0030C5E5 		strb	r3, [r5, #0]
 2265 2150 0060C4E5 		strb	r6, [r4, #0]
 2266 2154 8C0E9FE5 		ldr	r0, .L263
 2267 2158 0210A0E3 		mov	r1, #2
 2268 215c FEFFFFEB 		bl	uart_transmit
 2269 2160 0030D5E5 		ldrb	r3, [r5, #0]	@ zero_extendqisi2
 2270 2164 0020D4E5 		ldrb	r2, [r4, #0]	@ zero_extendqisi2
 2271 2168 0C3083E2 		add	r3, r3, #12
 2272 216c FF3003E2 		and	r3, r3, #255
 2273 2170 0030C5E5 		strb	r3, [r5, #0]
 2274 2174 806E9FE5 		ldr	r6, .L263+20
 2275 2178 023083E0 		add	r3, r3, r2
 2276 217c 0030C4E5 		strb	r3, [r4, #0]
 2277 2180 600E9FE5 		ldr	r0, .L263
 2278 2184 0C10A0E3 		mov	r1, #12
 2279 2188 FEFFFFEB 		bl	uart_transmit
 2280 218c 0010D6E5 		ldrb	r1, [r6, #0]	@ zero_extendqisi2
 2281 2190 0030D5E5 		ldrb	r3, [r5, #0]	@ zero_extendqisi2
 2282 2194 0020D4E5 		ldrb	r2, [r4, #0]	@ zero_extendqisi2
 2283 2198 033081E0 		add	r3, r1, r3
 2284 219c FF3003E2 		and	r3, r3, #255
 2285 21a0 0030C5E5 		strb	r3, [r5, #0]
 2286 21a4 023083E0 		add	r3, r3, r2
 2287 21a8 0030C4E5 		strb	r3, [r4, #0]
 2288 21ac 340E9FE5 		ldr	r0, .L263
 2289 21b0 FEFFFFEB 		bl	uart_transmit
 2290 21b4 0110D6E5 		ldrb	r1, [r6, #1]	@ zero_extendqisi2
 2291 21b8 0030D5E5 		ldrb	r3, [r5, #0]	@ zero_extendqisi2
 2292 21bc 0020D4E5 		ldrb	r2, [r4, #0]	@ zero_extendqisi2
 2293 21c0 033081E0 		add	r3, r1, r3
 2294 21c4 FF3003E2 		and	r3, r3, #255
 2295 21c8 0030C5E5 		strb	r3, [r5, #0]
 2296 21cc FC6E9FE5 		ldr	r6, .L263+232
 2297 21d0 023083E0 		add	r3, r3, r2
 2298 21d4 0030C4E5 		strb	r3, [r4, #0]
 2299 21d8 080E9FE5 		ldr	r0, .L263
 2300 21dc FEFFFFEB 		bl	uart_transmit
 2301 21e0 0010D6E5 		ldrb	r1, [r6, #0]	@ zero_extendqisi2
 2302 21e4 0030D5E5 		ldrb	r3, [r5, #0]	@ zero_extendqisi2
 2303 21e8 0020D4E5 		ldrb	r2, [r4, #0]	@ zero_extendqisi2
 2304 21ec 033081E0 		add	r3, r1, r3
 2305 21f0 FF3003E2 		and	r3, r3, #255
 2306 21f4 0030C5E5 		strb	r3, [r5, #0]
 2307 21f8 023083E0 		add	r3, r3, r2
 2308 21fc 0030C4E5 		strb	r3, [r4, #0]
 2309 2200 E00D9FE5 		ldr	r0, .L263
 2310 2204 FEFFFFEB 		bl	uart_transmit
 2311 2208 0110D6E5 		ldrb	r1, [r6, #1]	@ zero_extendqisi2
 2312 220c 0030D5E5 		ldrb	r3, [r5, #0]	@ zero_extendqisi2
 2313 2210 0020D4E5 		ldrb	r2, [r4, #0]	@ zero_extendqisi2
 2314 2214 033081E0 		add	r3, r1, r3
 2315 2218 FF3003E2 		and	r3, r3, #255
 2316 221c 0030C5E5 		strb	r3, [r5, #0]
 2317 2220 D86D9FE5 		ldr	r6, .L263+24
 2318 2224 023083E0 		add	r3, r3, r2
 2319 2228 0030C4E5 		strb	r3, [r4, #0]
 2320 222c B40D9FE5 		ldr	r0, .L263
 2321 2230 FEFFFFEB 		bl	uart_transmit
 2322 2234 0210D6E5 		ldrb	r1, [r6, #2]	@ zero_extendqisi2
 2323 2238 0030D5E5 		ldrb	r3, [r5, #0]	@ zero_extendqisi2
 2324 223c 0020D4E5 		ldrb	r2, [r4, #0]	@ zero_extendqisi2
 2325 2240 033081E0 		add	r3, r1, r3
 2326 2244 FF3003E2 		and	r3, r3, #255
 2327 2248 0030C5E5 		strb	r3, [r5, #0]
 2328 224c 023083E0 		add	r3, r3, r2
 2329 2250 0030C4E5 		strb	r3, [r4, #0]
 2330 2254 8C0D9FE5 		ldr	r0, .L263
 2331 2258 FEFFFFEB 		bl	uart_transmit
 2332 225c 0310D6E5 		ldrb	r1, [r6, #3]	@ zero_extendqisi2
 2333 2260 0030D5E5 		ldrb	r3, [r5, #0]	@ zero_extendqisi2
 2334 2264 0020D4E5 		ldrb	r2, [r4, #0]	@ zero_extendqisi2
 2335 2268 033081E0 		add	r3, r1, r3
 2336 226c FF3003E2 		and	r3, r3, #255
 2337 2270 0030C5E5 		strb	r3, [r5, #0]
 2338 2274 023083E0 		add	r3, r3, r2
 2339 2278 0030C4E5 		strb	r3, [r4, #0]
 2340 227c 640D9FE5 		ldr	r0, .L263
 2341 2280 FEFFFFEB 		bl	uart_transmit
 2342 2284 0E10DDE5 		ldrb	r1, [sp, #14]	@ zero_extendqisi2
 2343 2288 0030D5E5 		ldrb	r3, [r5, #0]	@ zero_extendqisi2
 2344 228c 0020D4E5 		ldrb	r2, [r4, #0]	@ zero_extendqisi2
 2345 2290 033081E0 		add	r3, r1, r3
 2346 2294 FF3003E2 		and	r3, r3, #255
 2347 2298 0030C5E5 		strb	r3, [r5, #0]
 2348 229c 023083E0 		add	r3, r3, r2
 2349 22a0 0030C4E5 		strb	r3, [r4, #0]
 2350 22a4 3C0D9FE5 		ldr	r0, .L263
 2351 22a8 FEFFFFEB 		bl	uart_transmit
 2352 22ac 0F10DDE5 		ldrb	r1, [sp, #15]	@ zero_extendqisi2
 2353 22b0 0030D5E5 		ldrb	r3, [r5, #0]	@ zero_extendqisi2
 2354 22b4 0020D4E5 		ldrb	r2, [r4, #0]	@ zero_extendqisi2
 2355 22b8 033081E0 		add	r3, r1, r3
 2356 22bc FF3003E2 		and	r3, r3, #255
 2357 22c0 0030C5E5 		strb	r3, [r5, #0]
 2358 22c4 386D9FE5 		ldr	r6, .L263+28
 2359 22c8 023083E0 		add	r3, r3, r2
 2360 22cc 0030C4E5 		strb	r3, [r4, #0]
 2361 22d0 100D9FE5 		ldr	r0, .L263
 2362 22d4 FEFFFFEB 		bl	uart_transmit
 2363 22d8 0010D6E5 		ldrb	r1, [r6, #0]	@ zero_extendqisi2
 2364 22dc 0030D5E5 		ldrb	r3, [r5, #0]	@ zero_extendqisi2
 2365 22e0 0020D4E5 		ldrb	r2, [r4, #0]	@ zero_extendqisi2
 2366 22e4 033081E0 		add	r3, r1, r3
 2367 22e8 FF3003E2 		and	r3, r3, #255
 2368 22ec 0030C5E5 		strb	r3, [r5, #0]
 2369 22f0 023083E0 		add	r3, r3, r2
 2370 22f4 0030C4E5 		strb	r3, [r4, #0]
 2371 22f8 E80C9FE5 		ldr	r0, .L263
 2372 22fc FEFFFFEB 		bl	uart_transmit
 2373 2300 0110D6E5 		ldrb	r1, [r6, #1]	@ zero_extendqisi2
 2374 2304 0030D5E5 		ldrb	r3, [r5, #0]	@ zero_extendqisi2
 2375 2308 0020D4E5 		ldrb	r2, [r4, #0]	@ zero_extendqisi2
 2376 230c 033081E0 		add	r3, r1, r3
 2377 2310 FF3003E2 		and	r3, r3, #255
 2378 2314 0030C5E5 		strb	r3, [r5, #0]
 2379 2318 023083E0 		add	r3, r3, r2
 2380 231c 0030C4E5 		strb	r3, [r4, #0]
 2381 2320 C00C9FE5 		ldr	r0, .L263
 2382 2324 FEFFFFEB 		bl	uart_transmit
 2383 2328 D83C9FE5 		ldr	r3, .L263+32
 2384 232c 0010D3E5 		ldrb	r1, [r3, #0]	@ zero_extendqisi2
 2385 2330 0030D5E5 		ldrb	r3, [r5, #0]	@ zero_extendqisi2
 2386 2334 0020D4E5 		ldrb	r2, [r4, #0]	@ zero_extendqisi2
 2387 2338 033081E0 		add	r3, r1, r3
 2388 233c FF3003E2 		and	r3, r3, #255
 2389 2340 0030C5E5 		strb	r3, [r5, #0]
 2390 2344 C06C9FE5 		ldr	r6, .L263+36
 2391 2348 023083E0 		add	r3, r3, r2
 2392 234c 0030C4E5 		strb	r3, [r4, #0]
 2393 2350 900C9FE5 		ldr	r0, .L263
 2394 2354 FEFFFFEB 		bl	uart_transmit
 2395 2358 0010D6E5 		ldrb	r1, [r6, #0]	@ zero_extendqisi2
 2396 235c 0030D5E5 		ldrb	r3, [r5, #0]	@ zero_extendqisi2
 2397 2360 0020D4E5 		ldrb	r2, [r4, #0]	@ zero_extendqisi2
 2398 2364 033081E0 		add	r3, r1, r3
 2399 2368 FF3003E2 		and	r3, r3, #255
 2400 236c 0030C5E5 		strb	r3, [r5, #0]
 2401 2370 023083E0 		add	r3, r3, r2
 2402 2374 0030C4E5 		strb	r3, [r4, #0]
 2403 2378 680C9FE5 		ldr	r0, .L263
 2404 237c FEFFFFEB 		bl	uart_transmit
 2405 2380 0110D6E5 		ldrb	r1, [r6, #1]	@ zero_extendqisi2
 2406 2384 0030D5E5 		ldrb	r3, [r5, #0]	@ zero_extendqisi2
 2407 2388 0020D4E5 		ldrb	r2, [r4, #0]	@ zero_extendqisi2
 2408 238c 033081E0 		add	r3, r1, r3
 2409 2390 FF3003E2 		and	r3, r3, #255
 2410 2394 0030C5E5 		strb	r3, [r5, #0]
 2411 2398 706C9FE5 		ldr	r6, .L263+40
 2412 239c 023083E0 		add	r3, r3, r2
 2413 23a0 0030C4E5 		strb	r3, [r4, #0]
 2414 23a4 3C0C9FE5 		ldr	r0, .L263
 2415 23a8 FEFFFFEB 		bl	uart_transmit
 2416 23ac 0010D6E5 		ldrb	r1, [r6, #0]	@ zero_extendqisi2
 2417 23b0 0030D5E5 		ldrb	r3, [r5, #0]	@ zero_extendqisi2
 2418 23b4 0020D4E5 		ldrb	r2, [r4, #0]	@ zero_extendqisi2
 2419 23b8 033081E0 		add	r3, r1, r3
 2420 23bc FF3003E2 		and	r3, r3, #255
 2421 23c0 0030C5E5 		strb	r3, [r5, #0]
 2422 23c4 023083E0 		add	r3, r3, r2
 2423 23c8 0030C4E5 		strb	r3, [r4, #0]
 2424 23cc 140C9FE5 		ldr	r0, .L263
 2425 23d0 FEFFFFEB 		bl	uart_transmit
 2426 23d4 0110D6E5 		ldrb	r1, [r6, #1]	@ zero_extendqisi2
 2427 23d8 0030D5E5 		ldrb	r3, [r5, #0]	@ zero_extendqisi2
 2428 23dc 0020D4E5 		ldrb	r2, [r4, #0]	@ zero_extendqisi2
 2429 23e0 033081E0 		add	r3, r1, r3
 2430 23e4 FF3003E2 		and	r3, r3, #255
 2431 23e8 0030C5E5 		strb	r3, [r5, #0]
 2432 23ec 023083E0 		add	r3, r3, r2
 2433 23f0 0030C4E5 		strb	r3, [r4, #0]
 2434 23f4 EC0B9FE5 		ldr	r0, .L263
 2435 23f8 FEFFFFEB 		bl	uart_transmit
 2436 23fc 0C10DDE5 		ldrb	r1, [sp, #12]	@ zero_extendqisi2
 2437 2400 0030D5E5 		ldrb	r3, [r5, #0]	@ zero_extendqisi2
 2438 2404 0020D4E5 		ldrb	r2, [r4, #0]	@ zero_extendqisi2
 2439 2408 033081E0 		add	r3, r1, r3
 2440 240c FF3003E2 		and	r3, r3, #255
 2441 2410 0030C5E5 		strb	r3, [r5, #0]
 2442 2414 023083E0 		add	r3, r3, r2
 2443 2418 0030C4E5 		strb	r3, [r4, #0]
 2444 241c C40B9FE5 		ldr	r0, .L263
 2445 2420 FEFFFFEB 		bl	uart_transmit
 2446 2424 0D10DDE5 		ldrb	r1, [sp, #13]	@ zero_extendqisi2
 2447 2428 0030D5E5 		ldrb	r3, [r5, #0]	@ zero_extendqisi2
 2448 242c 0020D4E5 		ldrb	r2, [r4, #0]	@ zero_extendqisi2
 2449 2430 033081E0 		add	r3, r1, r3
 2450 2434 FF3003E2 		and	r3, r3, #255
 2451 2438 0030C5E5 		strb	r3, [r5, #0]
 2452 243c 023083E0 		add	r3, r3, r2
 2453 2440 0030C4E5 		strb	r3, [r4, #0]
 2454 2444 9C0B9FE5 		ldr	r0, .L263
 2455 2448 FEFFFFEB 		bl	uart_transmit
 2456 244c 0010D5E5 		ldrb	r1, [r5, #0]	@ zero_extendqisi2
 2457 2450 900B9FE5 		ldr	r0, .L263
 2458 2454 FEFFFFEB 		bl	uart_transmit
 2459 2458 880B9FE5 		ldr	r0, .L263
 2460 245c 0010D4E5 		ldrb	r1, [r4, #0]	@ zero_extendqisi2
 2461 2460 FEFFFFEB 		bl	uart_transmit
 2462 2464 030000EA 		b	.L43
 2463              	.L44:
 2464 2468 7C3B9FE5 		ldr	r3, .L263+4
 2465 246c 0020D3E5 		ldrb	r2, [r3, #0]	@ zero_extendqisi2
 2466 2470 012082E2 		add	r2, r2, #1
 2467 2474 0020C3E5 		strb	r2, [r3, #0]
 2468              	.L43:
 2469 2478 943B9FE5 		ldr	r3, .L263+44
 2470 247c 0030D3E5 		ldrb	r3, [r3, #0]	@ zero_extendqisi2
 2471 2480 3C0053E3 		cmp	r3, #60
 2472 2484 C500001A 		bne	.L45
 2473 2488 883B9FE5 		ldr	r3, .L263+48
 2474 248c 0030D3E5 		ldrb	r3, [r3, #0]	@ zero_extendqisi2
 2475 2490 000053E3 		cmp	r3, #0
 2476 2494 5901000A 		beq	.L46
 2477 2498 480B9FE5 		ldr	r0, .L263
 2478 249c 1610A0E3 		mov	r1, #22
 2479 24a0 FEFFFFEB 		bl	uart_check_free_space
 2480 24a4 000050E3 		cmp	r0, #0
 2481 24a8 5001000A 		beq	.L48
 2482 24ac 303C9FE5 		ldr	r3, .L263+252
 2483 24b0 B020D3E1 		ldrh	r2, [r3, #0]
 2484 24b4 162082E2 		add	r2, r2, #22
 2485 24b8 B020C3E1 		strh	r2, [r3, #0]	@ movhi
 2486 24bc 283C9FE5 		ldr	r3, .L263+260
 2487 24c0 B020D3E1 		ldrh	r2, [r3, #0]
 2488 24c4 012082E2 		add	r2, r2, #1
 2489 24c8 B020C3E1 		strh	r2, [r3, #0]	@ movhi
 2490 24cc 140B9FE5 		ldr	r0, .L263
 2491 24d0 9910A0E3 		mov	r1, #153
 2492 24d4 2C5C9FE5 		ldr	r5, .L263+288
 2493 24d8 FEFFFFEB 		bl	uart_transmit
 2494 24dc 040B9FE5 		ldr	r0, .L263
 2495 24e0 1610A0E3 		mov	r1, #22
 2496 24e4 204C9FE5 		ldr	r4, .L263+292
 2497 24e8 FEFFFFEB 		bl	uart_transmit
 2498 24ec 1830A0E3 		mov	r3, #24
 2499 24f0 0030C5E5 		strb	r3, [r5, #0]
 2500 24f4 2E30A0E3 		mov	r3, #46
 2501 24f8 0030C4E5 		strb	r3, [r4, #0]
 2502 24fc E40A9FE5 		ldr	r0, .L263
 2503 2500 0210A0E3 		mov	r1, #2
 2504 2504 FEFFFFEB 		bl	uart_transmit
 2505 2508 0030D5E5 		ldrb	r3, [r5, #0]	@ zero_extendqisi2
 2506 250c 0020D4E5 		ldrb	r2, [r4, #0]	@ zero_extendqisi2
 2507 2510 163083E2 		add	r3, r3, #22
 2508 2514 FF3003E2 		and	r3, r3, #255
 2509 2518 FC6A9FE5 		ldr	r6, .L263+52
 2510 251c 0030C5E5 		strb	r3, [r5, #0]
 2511 2520 023083E0 		add	r3, r3, r2
 2512 2524 0030C4E5 		strb	r3, [r4, #0]
 2513 2528 B80A9FE5 		ldr	r0, .L263
 2514 252c 1610A0E3 		mov	r1, #22
 2515 2530 FEFFFFEB 		bl	uart_transmit
 2516 2534 0010D6E5 		ldrb	r1, [r6, #0]	@ zero_extendqisi2
 2517 2538 0030D5E5 		ldrb	r3, [r5, #0]	@ zero_extendqisi2
 2518 253c 0020D4E5 		ldrb	r2, [r4, #0]	@ zero_extendqisi2
 2519 2540 033081E0 		add	r3, r1, r3
 2520 2544 FF3003E2 		and	r3, r3, #255
 2521 2548 0030C5E5 		strb	r3, [r5, #0]
 2522 254c 023083E0 		add	r3, r3, r2
 2523 2550 0030C4E5 		strb	r3, [r4, #0]
 2524 2554 8C0A9FE5 		ldr	r0, .L263
 2525 2558 FEFFFFEB 		bl	uart_transmit
 2526 255c 0110D6E5 		ldrb	r1, [r6, #1]	@ zero_extendqisi2
 2527 2560 0030D5E5 		ldrb	r3, [r5, #0]	@ zero_extendqisi2
 2528 2564 0020D4E5 		ldrb	r2, [r4, #0]	@ zero_extendqisi2
 2529 2568 033081E0 		add	r3, r1, r3
 2530 256c FF3003E2 		and	r3, r3, #255
 2531 2570 0030C5E5 		strb	r3, [r5, #0]
 2532 2574 023083E0 		add	r3, r3, r2
 2533 2578 0030C4E5 		strb	r3, [r4, #0]
 2534 257c 640A9FE5 		ldr	r0, .L263
 2535 2580 FEFFFFEB 		bl	uart_transmit
 2536 2584 0210D6E5 		ldrb	r1, [r6, #2]	@ zero_extendqisi2
 2537 2588 0030D5E5 		ldrb	r3, [r5, #0]	@ zero_extendqisi2
 2538 258c 0020D4E5 		ldrb	r2, [r4, #0]	@ zero_extendqisi2
 2539 2590 033081E0 		add	r3, r1, r3
 2540 2594 FF3003E2 		and	r3, r3, #255
 2541 2598 0030C5E5 		strb	r3, [r5, #0]
 2542 259c 023083E0 		add	r3, r3, r2
 2543 25a0 0030C4E5 		strb	r3, [r4, #0]
 2544 25a4 3C0A9FE5 		ldr	r0, .L263
 2545 25a8 FEFFFFEB 		bl	uart_transmit
 2546 25ac 0310D6E5 		ldrb	r1, [r6, #3]	@ zero_extendqisi2
 2547 25b0 0030D5E5 		ldrb	r3, [r5, #0]	@ zero_extendqisi2
 2548 25b4 0020D4E5 		ldrb	r2, [r4, #0]	@ zero_extendqisi2
 2549 25b8 033081E0 		add	r3, r1, r3
 2550 25bc FF3003E2 		and	r3, r3, #255
 2551 25c0 586A9FE5 		ldr	r6, .L263+56
 2552 25c4 0030C5E5 		strb	r3, [r5, #0]
 2553 25c8 023083E0 		add	r3, r3, r2
 2554 25cc 0030C4E5 		strb	r3, [r4, #0]
 2555 25d0 100A9FE5 		ldr	r0, .L263
 2556 25d4 FEFFFFEB 		bl	uart_transmit
 2557 25d8 0010D6E5 		ldrb	r1, [r6, #0]	@ zero_extendqisi2
 2558 25dc 0030D5E5 		ldrb	r3, [r5, #0]	@ zero_extendqisi2
 2559 25e0 0020D4E5 		ldrb	r2, [r4, #0]	@ zero_extendqisi2
 2560 25e4 033081E0 		add	r3, r1, r3
 2561 25e8 FF3003E2 		and	r3, r3, #255
 2562 25ec 0030C5E5 		strb	r3, [r5, #0]
 2563 25f0 023083E0 		add	r3, r3, r2
 2564 25f4 0030C4E5 		strb	r3, [r4, #0]
 2565 25f8 E8099FE5 		ldr	r0, .L263
 2566 25fc FEFFFFEB 		bl	uart_transmit
 2567 2600 0110D6E5 		ldrb	r1, [r6, #1]	@ zero_extendqisi2
 2568 2604 0030D5E5 		ldrb	r3, [r5, #0]	@ zero_extendqisi2
 2569 2608 0020D4E5 		ldrb	r2, [r4, #0]	@ zero_extendqisi2
 2570 260c 033081E0 		add	r3, r1, r3
 2571 2610 FF3003E2 		and	r3, r3, #255
 2572 2614 0030C5E5 		strb	r3, [r5, #0]
 2573 2618 023083E0 		add	r3, r3, r2
 2574 261c 0030C4E5 		strb	r3, [r4, #0]
 2575 2620 C0099FE5 		ldr	r0, .L263
 2576 2624 FEFFFFEB 		bl	uart_transmit
 2577 2628 0210D6E5 		ldrb	r1, [r6, #2]	@ zero_extendqisi2
 2578 262c 0030D5E5 		ldrb	r3, [r5, #0]	@ zero_extendqisi2
 2579 2630 0020D4E5 		ldrb	r2, [r4, #0]	@ zero_extendqisi2
 2580 2634 033081E0 		add	r3, r1, r3
 2581 2638 FF3003E2 		and	r3, r3, #255
 2582 263c 0030C5E5 		strb	r3, [r5, #0]
 2583 2640 023083E0 		add	r3, r3, r2
 2584 2644 0030C4E5 		strb	r3, [r4, #0]
 2585 2648 98099FE5 		ldr	r0, .L263
 2586 264c FEFFFFEB 		bl	uart_transmit
 2587 2650 0310D6E5 		ldrb	r1, [r6, #3]	@ zero_extendqisi2
 2588 2654 0030D5E5 		ldrb	r3, [r5, #0]	@ zero_extendqisi2
 2589 2658 0020D4E5 		ldrb	r2, [r4, #0]	@ zero_extendqisi2
 2590 265c 033081E0 		add	r3, r1, r3
 2591 2660 FF3003E2 		and	r3, r3, #255
 2592 2664 B8699FE5 		ldr	r6, .L263+60
 2593 2668 0030C5E5 		strb	r3, [r5, #0]
 2594 266c 023083E0 		add	r3, r3, r2
 2595 2670 0030C4E5 		strb	r3, [r4, #0]
 2596 2674 6C099FE5 		ldr	r0, .L263
 2597 2678 FEFFFFEB 		bl	uart_transmit
 2598 267c 0010D6E5 		ldrb	r1, [r6, #0]	@ zero_extendqisi2
 2599 2680 0030D5E5 		ldrb	r3, [r5, #0]	@ zero_extendqisi2
 2600 2684 0020D4E5 		ldrb	r2, [r4, #0]	@ zero_extendqisi2
 2601 2688 033081E0 		add	r3, r1, r3
 2602 268c FF3003E2 		and	r3, r3, #255
 2603 2690 0030C5E5 		strb	r3, [r5, #0]
 2604 2694 023083E0 		add	r3, r3, r2
 2605 2698 0030C4E5 		strb	r3, [r4, #0]
 2606 269c 44099FE5 		ldr	r0, .L263
 2607 26a0 FEFFFFEB 		bl	uart_transmit
 2608 26a4 0110D6E5 		ldrb	r1, [r6, #1]	@ zero_extendqisi2
 2609 26a8 0030D5E5 		ldrb	r3, [r5, #0]	@ zero_extendqisi2
 2610 26ac 0020D4E5 		ldrb	r2, [r4, #0]	@ zero_extendqisi2
 2611 26b0 033081E0 		add	r3, r1, r3
 2612 26b4 FF3003E2 		and	r3, r3, #255
 2613 26b8 0030C5E5 		strb	r3, [r5, #0]
 2614 26bc 023083E0 		add	r3, r3, r2
 2615 26c0 0030C4E5 		strb	r3, [r4, #0]
 2616 26c4 1C099FE5 		ldr	r0, .L263
 2617 26c8 FEFFFFEB 		bl	uart_transmit
 2618 26cc 0210D6E5 		ldrb	r1, [r6, #2]	@ zero_extendqisi2
 2619 26d0 0030D5E5 		ldrb	r3, [r5, #0]	@ zero_extendqisi2
 2620 26d4 0020D4E5 		ldrb	r2, [r4, #0]	@ zero_extendqisi2
 2621 26d8 033081E0 		add	r3, r1, r3
 2622 26dc FF3003E2 		and	r3, r3, #255
 2623 26e0 0030C5E5 		strb	r3, [r5, #0]
 2624 26e4 023083E0 		add	r3, r3, r2
 2625 26e8 0030C4E5 		strb	r3, [r4, #0]
 2626 26ec F4089FE5 		ldr	r0, .L263
 2627 26f0 FEFFFFEB 		bl	uart_transmit
 2628 26f4 0310D6E5 		ldrb	r1, [r6, #3]	@ zero_extendqisi2
 2629 26f8 0030D5E5 		ldrb	r3, [r5, #0]	@ zero_extendqisi2
 2630 26fc 0020D4E5 		ldrb	r2, [r4, #0]	@ zero_extendqisi2
 2631 2700 033081E0 		add	r3, r1, r3
 2632 2704 FF3003E2 		and	r3, r3, #255
 2633 2708 18699FE5 		ldr	r6, .L263+64
 2634 270c 0030C5E5 		strb	r3, [r5, #0]
 2635 2710 023083E0 		add	r3, r3, r2
 2636 2714 0030C4E5 		strb	r3, [r4, #0]
 2637 2718 C8089FE5 		ldr	r0, .L263
 2638 271c FEFFFFEB 		bl	uart_transmit
 2639 2720 0010D6E5 		ldrb	r1, [r6, #0]	@ zero_extendqisi2
 2640 2724 0030D5E5 		ldrb	r3, [r5, #0]	@ zero_extendqisi2
 2641 2728 0020D4E5 		ldrb	r2, [r4, #0]	@ zero_extendqisi2
 2642 272c 033081E0 		add	r3, r1, r3
 2643 2730 FF3003E2 		and	r3, r3, #255
 2644 2734 0030C5E5 		strb	r3, [r5, #0]
 2645 2738 023083E0 		add	r3, r3, r2
 2646 273c 0030C4E5 		strb	r3, [r4, #0]
 2647 2740 A0089FE5 		ldr	r0, .L263
 2648 2744 FEFFFFEB 		bl	uart_transmit
 2649 2748 0110D6E5 		ldrb	r1, [r6, #1]	@ zero_extendqisi2
 2650 274c 0030D5E5 		ldrb	r3, [r5, #0]	@ zero_extendqisi2
 2651 2750 0020D4E5 		ldrb	r2, [r4, #0]	@ zero_extendqisi2
 2652 2754 033081E0 		add	r3, r1, r3
 2653 2758 FF3003E2 		and	r3, r3, #255
 2654 275c 0030C5E5 		strb	r3, [r5, #0]
 2655 2760 023083E0 		add	r3, r3, r2
 2656 2764 0030C4E5 		strb	r3, [r4, #0]
 2657 2768 78089FE5 		ldr	r0, .L263
 2658 276c FEFFFFEB 		bl	uart_transmit
 2659 2770 0210D6E5 		ldrb	r1, [r6, #2]	@ zero_extendqisi2
 2660 2774 0030D5E5 		ldrb	r3, [r5, #0]	@ zero_extendqisi2
 2661 2778 0020D4E5 		ldrb	r2, [r4, #0]	@ zero_extendqisi2
 2662 277c 033081E0 		add	r3, r1, r3
 2663 2780 FF3003E2 		and	r3, r3, #255
 2664 2784 0030C5E5 		strb	r3, [r5, #0]
 2665 2788 023083E0 		add	r3, r3, r2
 2666 278c 0030C4E5 		strb	r3, [r4, #0]
 2667 2790 50089FE5 		ldr	r0, .L263
 2668 2794 FEFFFFEB 		bl	uart_transmit
 2669 2798 0310D6E5 		ldrb	r1, [r6, #3]	@ zero_extendqisi2
 2670 279c 830000EA 		b	.L245
 2671              	.L45:
 2672 27a0 420053E3 		cmp	r3, #66
 2673 27a4 9500001A 		bne	.L46
 2674 27a8 38089FE5 		ldr	r0, .L263
 2675 27ac 1010A0E3 		mov	r1, #16
 2676 27b0 FEFFFFEB 		bl	uart_check_free_space
 2677 27b4 000050E3 		cmp	r0, #0
 2678 27b8 8C00000A 		beq	.L48
 2679 27bc 20399FE5 		ldr	r3, .L263+252
 2680 27c0 B020D3E1 		ldrh	r2, [r3, #0]
 2681 27c4 102082E2 		add	r2, r2, #16
 2682 27c8 B020C3E1 		strh	r2, [r3, #0]	@ movhi
 2683 27cc 18399FE5 		ldr	r3, .L263+260
 2684 27d0 B020D3E1 		ldrh	r2, [r3, #0]
 2685 27d4 012082E2 		add	r2, r2, #1
 2686 27d8 B020C3E1 		strh	r2, [r3, #0]	@ movhi
 2687 27dc 04089FE5 		ldr	r0, .L263
 2688 27e0 9910A0E3 		mov	r1, #153
 2689 27e4 1C599FE5 		ldr	r5, .L263+288
 2690 27e8 FEFFFFEB 		bl	uart_transmit
 2691 27ec F4079FE5 		ldr	r0, .L263
 2692 27f0 1010A0E3 		mov	r1, #16
 2693 27f4 10499FE5 		ldr	r4, .L263+292
 2694 27f8 FEFFFFEB 		bl	uart_transmit
 2695 27fc 1230A0E3 		mov	r3, #18
 2696 2800 0030C5E5 		strb	r3, [r5, #0]
 2697 2804 2230A0E3 		mov	r3, #34
 2698 2808 0030C4E5 		strb	r3, [r4, #0]
 2699 280c D4079FE5 		ldr	r0, .L263
 2700 2810 0210A0E3 		mov	r1, #2
 2701 2814 FEFFFFEB 		bl	uart_transmit
 2702 2818 0030D5E5 		ldrb	r3, [r5, #0]	@ zero_extendqisi2
 2703 281c 0020D4E5 		ldrb	r2, [r4, #0]	@ zero_extendqisi2
 2704 2820 073083E2 		add	r3, r3, #7
 2705 2824 FF3003E2 		and	r3, r3, #255
 2706 2828 D4689FE5 		ldr	r6, .L263+284
 2707 282c 0030C5E5 		strb	r3, [r5, #0]
 2708 2830 023083E0 		add	r3, r3, r2
 2709 2834 0030C4E5 		strb	r3, [r4, #0]
 2710 2838 A8079FE5 		ldr	r0, .L263
 2711 283c 0710A0E3 		mov	r1, #7
 2712 2840 FEFFFFEB 		bl	uart_transmit
 2713 2844 0010D6E5 		ldrb	r1, [r6, #0]	@ zero_extendqisi2
 2714 2848 0030D5E5 		ldrb	r3, [r5, #0]	@ zero_extendqisi2
 2715 284c 0020D4E5 		ldrb	r2, [r4, #0]	@ zero_extendqisi2
 2716 2850 033081E0 		add	r3, r1, r3
 2717 2854 FF3003E2 		and	r3, r3, #255
 2718 2858 0030C5E5 		strb	r3, [r5, #0]
 2719 285c 023083E0 		add	r3, r3, r2
 2720 2860 0030C4E5 		strb	r3, [r4, #0]
 2721 2864 7C079FE5 		ldr	r0, .L263
 2722 2868 FEFFFFEB 		bl	uart_transmit
 2723 286c 0110D6E5 		ldrb	r1, [r6, #1]	@ zero_extendqisi2
 2724 2870 0030D5E5 		ldrb	r3, [r5, #0]	@ zero_extendqisi2
 2725 2874 0020D4E5 		ldrb	r2, [r4, #0]	@ zero_extendqisi2
 2726 2878 033081E0 		add	r3, r1, r3
 2727 287c FF3003E2 		and	r3, r3, #255
 2728 2880 0030C5E5 		strb	r3, [r5, #0]
 2729 2884 023083E0 		add	r3, r3, r2
 2730 2888 0030C4E5 		strb	r3, [r4, #0]
 2731 288c 54079FE5 		ldr	r0, .L263
 2732 2890 FEFFFFEB 		bl	uart_transmit
 2733 2894 0210D6E5 		ldrb	r1, [r6, #2]	@ zero_extendqisi2
 2734 2898 0030D5E5 		ldrb	r3, [r5, #0]	@ zero_extendqisi2
 2735 289c 0020D4E5 		ldrb	r2, [r4, #0]	@ zero_extendqisi2
 2736 28a0 033081E0 		add	r3, r1, r3
 2737 28a4 FF3003E2 		and	r3, r3, #255
 2738 28a8 0030C5E5 		strb	r3, [r5, #0]
 2739 28ac 023083E0 		add	r3, r3, r2
 2740 28b0 0030C4E5 		strb	r3, [r4, #0]
 2741 28b4 2C079FE5 		ldr	r0, .L263
 2742 28b8 FEFFFFEB 		bl	uart_transmit
 2743 28bc 0310D6E5 		ldrb	r1, [r6, #3]	@ zero_extendqisi2
 2744 28c0 0030D5E5 		ldrb	r3, [r5, #0]	@ zero_extendqisi2
 2745 28c4 0020D4E5 		ldrb	r2, [r4, #0]	@ zero_extendqisi2
 2746 28c8 033081E0 		add	r3, r1, r3
 2747 28cc FF3003E2 		and	r3, r3, #255
 2748 28d0 0030C5E5 		strb	r3, [r5, #0]
 2749 28d4 023083E0 		add	r3, r3, r2
 2750 28d8 0030C4E5 		strb	r3, [r4, #0]
 2751 28dc 04079FE5 		ldr	r0, .L263
 2752 28e0 FEFFFFEB 		bl	uart_transmit
 2753 28e4 1610D6E5 		ldrb	r1, [r6, #22]	@ zero_extendqisi2
 2754 28e8 0030D5E5 		ldrb	r3, [r5, #0]	@ zero_extendqisi2
 2755 28ec 0020D4E5 		ldrb	r2, [r4, #0]	@ zero_extendqisi2
 2756 28f0 033081E0 		add	r3, r1, r3
 2757 28f4 FF3003E2 		and	r3, r3, #255
 2758 28f8 0030C5E5 		strb	r3, [r5, #0]
 2759 28fc 023083E0 		add	r3, r3, r2
 2760 2900 0030C4E5 		strb	r3, [r4, #0]
 2761 2904 DC069FE5 		ldr	r0, .L263
 2762 2908 FEFFFFEB 		bl	uart_transmit
 2763 290c 1710D6E5 		ldrb	r1, [r6, #23]	@ zero_extendqisi2
 2764 2910 0030D5E5 		ldrb	r3, [r5, #0]	@ zero_extendqisi2
 2765 2914 0020D4E5 		ldrb	r2, [r4, #0]	@ zero_extendqisi2
 2766 2918 033081E0 		add	r3, r1, r3
 2767 291c FF3003E2 		and	r3, r3, #255
 2768 2920 0030C5E5 		strb	r3, [r5, #0]
 2769 2924 023083E0 		add	r3, r3, r2
 2770 2928 0030C4E5 		strb	r3, [r4, #0]
 2771 292c B4069FE5 		ldr	r0, .L263
 2772 2930 FEFFFFEB 		bl	uart_transmit
 2773 2934 1410D6E5 		ldrb	r1, [r6, #20]	@ zero_extendqisi2
 2774 2938 0030D5E5 		ldrb	r3, [r5, #0]	@ zero_extendqisi2
 2775 293c 0020D4E5 		ldrb	r2, [r4, #0]	@ zero_extendqisi2
 2776 2940 033081E0 		add	r3, r1, r3
 2777 2944 FF3003E2 		and	r3, r3, #255
 2778 2948 0030C5E5 		strb	r3, [r5, #0]
 2779 294c 023083E0 		add	r3, r3, r2
 2780 2950 0030C4E5 		strb	r3, [r4, #0]
 2781 2954 8C069FE5 		ldr	r0, .L263
 2782 2958 FEFFFFEB 		bl	uart_transmit
 2783 295c 1510D6E5 		ldrb	r1, [r6, #21]	@ zero_extendqisi2
 2784 2960 0030D5E5 		ldrb	r3, [r5, #0]	@ zero_extendqisi2
 2785 2964 0020D4E5 		ldrb	r2, [r4, #0]	@ zero_extendqisi2
 2786 2968 033081E0 		add	r3, r1, r3
 2787 296c FF3003E2 		and	r3, r3, #255
 2788 2970 0030C5E5 		strb	r3, [r5, #0]
 2789 2974 023083E0 		add	r3, r3, r2
 2790 2978 0030C4E5 		strb	r3, [r4, #0]
 2791 297c 64069FE5 		ldr	r0, .L263
 2792 2980 FEFFFFEB 		bl	uart_transmit
 2793 2984 1810D6E5 		ldrb	r1, [r6, #24]	@ zero_extendqisi2
 2794 2988 0030D5E5 		ldrb	r3, [r5, #0]	@ zero_extendqisi2
 2795 298c 0020D4E5 		ldrb	r2, [r4, #0]	@ zero_extendqisi2
 2796 2990 033081E0 		add	r3, r1, r3
 2797 2994 FF3003E2 		and	r3, r3, #255
 2798 2998 0030C5E5 		strb	r3, [r5, #0]
 2799 299c 023083E0 		add	r3, r3, r2
 2800 29a0 0030C4E5 		strb	r3, [r4, #0]
 2801 29a4 3C069FE5 		ldr	r0, .L263
 2802 29a8 FEFFFFEB 		bl	uart_transmit
 2803 29ac 1910D6E5 		ldrb	r1, [r6, #25]	@ zero_extendqisi2
 2804              	.L245:
 2805 29b0 0030D5E5 		ldrb	r3, [r5, #0]	@ zero_extendqisi2
 2806 29b4 0020D4E5 		ldrb	r2, [r4, #0]	@ zero_extendqisi2
 2807 29b8 033081E0 		add	r3, r1, r3
 2808 29bc FF3003E2 		and	r3, r3, #255
 2809 29c0 0030C5E5 		strb	r3, [r5, #0]
 2810 29c4 023083E0 		add	r3, r3, r2
 2811 29c8 0030C4E5 		strb	r3, [r4, #0]
 2812 29cc 14069FE5 		ldr	r0, .L263
 2813 29d0 FEFFFFEB 		bl	uart_transmit
 2814 29d4 0010D5E5 		ldrb	r1, [r5, #0]	@ zero_extendqisi2
 2815 29d8 08069FE5 		ldr	r0, .L263
 2816 29dc FEFFFFEB 		bl	uart_transmit
 2817 29e0 00069FE5 		ldr	r0, .L263
 2818 29e4 0010D4E5 		ldrb	r1, [r4, #0]	@ zero_extendqisi2
 2819 29e8 FEFFFFEB 		bl	uart_transmit
 2820 29ec 030000EA 		b	.L46
 2821              	.L48:
 2822 29f0 F4359FE5 		ldr	r3, .L263+4
 2823 29f4 0020D3E5 		ldrb	r2, [r3, #0]	@ zero_extendqisi2
 2824 29f8 012082E2 		add	r2, r2, #1
 2825 29fc 0020C3E5 		strb	r2, [r3, #0]
 2826              	.L46:
 2827 2a00 24369FE5 		ldr	r3, .L263+68
 2828 2a04 0030D3E5 		ldrb	r3, [r3, #0]	@ zero_extendqisi2
 2829 2a08 480053E3 		cmp	r3, #72
 2830 2a0c D500001A 		bne	.L49
 2831 2a10 18369FE5 		ldr	r3, .L263+72
 2832 2a14 0020D3E5 		ldrb	r2, [r3, #0]	@ zero_extendqisi2
 2833 2a18 1E0052E3 		cmp	r2, #30
 2834 2a1c 0020A083 		movhi	r2, #0
 2835 2a20 0020C385 		strhib	r2, [r3, #0]
 2836 2a24 0030D3E5 		ldrb	r3, [r3, #0]	@ zero_extendqisi2
 2837 2a28 1E0053E3 		cmp	r3, #30
 2838 2a2c 03F19F97 		ldrls	pc, [pc, r3, asl #2]
 2839 2a30 620000EA 		b	.L51
 2840              	.L83:
 2841 2a34 B02A0000 		.word	.L52
 2842 2a38 B82A0000 		.word	.L53
 2843 2a3c CC2A0000 		.word	.L54
 2844 2a40 D42A0000 		.word	.L55
 2845 2a44 DC2A0000 		.word	.L56
 2846 2a48 E42A0000 		.word	.L57
 2847 2a4c F02A0000 		.word	.L58
 2848 2a50 F82A0000 		.word	.L59
 2849 2a54 002B0000 		.word	.L60
 2850 2a58 082B0000 		.word	.L61
 2851 2a5c 102B0000 		.word	.L62
 2852 2a60 182B0000 		.word	.L63
 2853 2a64 242B0000 		.word	.L64
 2854 2a68 2C2B0000 		.word	.L65
 2855 2a6c 342B0000 		.word	.L66
 2856 2a70 3C2B0000 		.word	.L67
 2857 2a74 442B0000 		.word	.L68
 2858 2a78 4C2B0000 		.word	.L69
 2859 2a7c 542B0000 		.word	.L70
 2860 2a80 5C2B0000 		.word	.L71
 2861 2a84 642B0000 		.word	.L72
 2862 2a88 6C2B0000 		.word	.L73
 2863 2a8c 742B0000 		.word	.L74
 2864 2a90 7C2B0000 		.word	.L75
 2865 2a94 842B0000 		.word	.L76
 2866 2a98 8C2B0000 		.word	.L77
 2867 2a9c 942B0000 		.word	.L78
 2868 2aa0 9C2B0000 		.word	.L79
 2869 2aa4 A42B0000 		.word	.L80
 2870 2aa8 AC2B0000 		.word	.L81
 2871 2aac B42B0000 		.word	.L82
 2872              	.L52:
 2873 2ab0 7C359FE5 		ldr	r3, .L263+76
 2874 2ab4 000000EA 		b	.L246
 2875              	.L53:
 2876 2ab8 78359FE5 		ldr	r3, .L263+80
 2877              	.L246:
 2878 2abc 0000D3E5 		ldrb	r0, [r3, #0]	@ zero_extendqisi2
 2879              	.L248:
 2880 2ac0 FEFFFFEB 		bl	__aeabi_ui2f
 2881 2ac4 04008DE5 		str	r0, [sp, #4]	@ float
 2882 2ac8 3E0000EA 		b	.L84
 2883              	.L54:
 2884 2acc 68359FE5 		ldr	r3, .L263+84
 2885 2ad0 380000EA 		b	.L257
 2886              	.L55:
 2887 2ad4 64359FE5 		ldr	r3, .L263+88
 2888 2ad8 360000EA 		b	.L257
 2889              	.L56:
 2890 2adc 60359FE5 		ldr	r3, .L263+92
 2891 2ae0 340000EA 		b	.L257
 2892              	.L57:
 2893 2ae4 18359FE5 		ldr	r3, .L263+28
 2894 2ae8 B000D3E1 		ldrh	r0, [r3, #0]
 2895 2aec F3FFFFEA 		b	.L248
 2896              	.L58:
 2897 2af0 50359FE5 		ldr	r3, .L263+96
 2898 2af4 2F0000EA 		b	.L257
 2899              	.L59:
 2900 2af8 4C359FE5 		ldr	r3, .L263+100
 2901 2afc EEFFFFEA 		b	.L246
 2902              	.L60:
 2903 2b00 E8359FE5 		ldr	r3, .L263+264
 2904 2b04 ECFFFFEA 		b	.L246
 2905              	.L61:
 2906 2b08 40359FE5 		ldr	r3, .L263+104
 2907 2b0c EAFFFFEA 		b	.L246
 2908              	.L62:
 2909 2b10 F0349FE5 		ldr	r3, .L263+32
 2910 2b14 E8FFFFEA 		b	.L246
 2911              	.L63:
 2912 2b18 34359FE5 		ldr	r3, .L263+108
 2913 2b1c B00FD3E1 		ldrh	r0, [r3, #240]
 2914 2b20 E6FFFFEA 		b	.L248
 2915              	.L64:
 2916 2b24 2C359FE5 		ldr	r3, .L263+112
 2917 2b28 220000EA 		b	.L257
 2918              	.L65:
 2919 2b2c 28359FE5 		ldr	r3, .L263+116
 2920 2b30 200000EA 		b	.L257
 2921              	.L66:
 2922 2b34 24359FE5 		ldr	r3, .L263+120
 2923 2b38 1E0000EA 		b	.L257
 2924              	.L67:
 2925 2b3c 20359FE5 		ldr	r3, .L263+124
 2926 2b40 1C0000EA 		b	.L257
 2927              	.L68:
 2928 2b44 1C359FE5 		ldr	r3, .L263+128
 2929 2b48 1A0000EA 		b	.L257
 2930              	.L69:
 2931 2b4c 18359FE5 		ldr	r3, .L263+132
 2932 2b50 180000EA 		b	.L257
 2933              	.L70:
 2934 2b54 14359FE5 		ldr	r3, .L263+136
 2935 2b58 160000EA 		b	.L257
 2936              	.L71:
 2937 2b5c 10359FE5 		ldr	r3, .L263+140
 2938 2b60 140000EA 		b	.L257
 2939              	.L72:
 2940 2b64 0C359FE5 		ldr	r3, .L263+144
 2941 2b68 120000EA 		b	.L257
 2942              	.L73:
 2943 2b6c 08359FE5 		ldr	r3, .L263+148
 2944 2b70 100000EA 		b	.L257
 2945              	.L74:
 2946 2b74 04359FE5 		ldr	r3, .L263+152
 2947 2b78 0E0000EA 		b	.L257
 2948              	.L75:
 2949 2b7c 00359FE5 		ldr	r3, .L263+156
 2950 2b80 0C0000EA 		b	.L257
 2951              	.L76:
 2952 2b84 FC349FE5 		ldr	r3, .L263+160
 2953 2b88 0A0000EA 		b	.L257
 2954              	.L77:
 2955 2b8c F8349FE5 		ldr	r3, .L263+164
 2956 2b90 080000EA 		b	.L257
 2957              	.L78:
 2958 2b94 F4349FE5 		ldr	r3, .L263+168
 2959 2b98 060000EA 		b	.L257
 2960              	.L79:
 2961 2b9c F0349FE5 		ldr	r3, .L263+172
 2962 2ba0 040000EA 		b	.L257
 2963              	.L80:
 2964 2ba4 EC349FE5 		ldr	r3, .L263+176
 2965 2ba8 020000EA 		b	.L257
 2966              	.L81:
 2967 2bac E8349FE5 		ldr	r3, .L263+180
 2968 2bb0 000000EA 		b	.L257
 2969              	.L82:
 2970 2bb4 E4349FE5 		ldr	r3, .L263+184
 2971              	.L257:
 2972 2bb8 003093E5 		ldr	r3, [r3, #0]	@ float
 2973 2bbc 000000EA 		b	.L247
 2974              	.L51:
 2975 2bc0 0030A0E3 		mov	r3, #0
 2976              	.L247:
 2977 2bc4 04308DE5 		str	r3, [sp, #4]	@ float
 2978              	.L84:
 2979 2bc8 18049FE5 		ldr	r0, .L263
 2980 2bcc 0B10A0E3 		mov	r1, #11
 2981 2bd0 FEFFFFEB 		bl	uart_check_free_space
 2982 2bd4 000050E3 		cmp	r0, #0
 2983 2bd8 5A00000A 		beq	.L85
 2984 2bdc 00359FE5 		ldr	r3, .L263+252
 2985 2be0 B020D3E1 		ldrh	r2, [r3, #0]
 2986 2be4 0B2082E2 		add	r2, r2, #11
 2987 2be8 B020C3E1 		strh	r2, [r3, #0]	@ movhi
 2988 2bec F8349FE5 		ldr	r3, .L263+260
 2989 2bf0 B020D3E1 		ldrh	r2, [r3, #0]
 2990 2bf4 012082E2 		add	r2, r2, #1
 2991 2bf8 B020C3E1 		strh	r2, [r3, #0]	@ movhi
 2992 2bfc E4039FE5 		ldr	r0, .L263
 2993 2c00 9910A0E3 		mov	r1, #153
 2994 2c04 FC549FE5 		ldr	r5, .L263+288
 2995 2c08 FEFFFFEB 		bl	uart_transmit
 2996 2c0c D4039FE5 		ldr	r0, .L263
 2997 2c10 0B10A0E3 		mov	r1, #11
 2998 2c14 F0449FE5 		ldr	r4, .L263+292
 2999 2c18 FEFFFFEB 		bl	uart_transmit
 3000 2c1c 0D30A0E3 		mov	r3, #13
 3001 2c20 0030C5E5 		strb	r3, [r5, #0]
 3002 2c24 1830A0E3 		mov	r3, #24
 3003 2c28 0030C4E5 		strb	r3, [r4, #0]
 3004 2c2c B4039FE5 		ldr	r0, .L263
 3005 2c30 0210A0E3 		mov	r1, #2
 3006 2c34 FEFFFFEB 		bl	uart_transmit
 3007 2c38 0030D5E5 		ldrb	r3, [r5, #0]	@ zero_extendqisi2
 3008 2c3c 0020D4E5 		ldrb	r2, [r4, #0]	@ zero_extendqisi2
 3009 2c40 1F3083E2 		add	r3, r3, #31
 3010 2c44 FF3003E2 		and	r3, r3, #255
 3011 2c48 0030C5E5 		strb	r3, [r5, #0]
 3012 2c4c 023083E0 		add	r3, r3, r2
 3013 2c50 0030C4E5 		strb	r3, [r4, #0]
 3014 2c54 8C039FE5 		ldr	r0, .L263
 3015 2c58 1F10A0E3 		mov	r1, #31
 3016 2c5c FEFFFFEB 		bl	uart_transmit
 3017 2c60 C8339FE5 		ldr	r3, .L263+72
 3018 2c64 0010D3E5 		ldrb	r1, [r3, #0]	@ zero_extendqisi2
 3019 2c68 0030D5E5 		ldrb	r3, [r5, #0]	@ zero_extendqisi2
 3020 2c6c 0020D4E5 		ldrb	r2, [r4, #0]	@ zero_extendqisi2
 3021 2c70 033081E0 		add	r3, r1, r3
 3022 2c74 FF3003E2 		and	r3, r3, #255
 3023 2c78 0030C5E5 		strb	r3, [r5, #0]
 3024 2c7c 023083E0 		add	r3, r3, r2
 3025 2c80 0030C4E5 		strb	r3, [r4, #0]
 3026 2c84 5C039FE5 		ldr	r0, .L263
 3027 2c88 FEFFFFEB 		bl	uart_transmit
 3028 2c8c 0410DDE5 		ldrb	r1, [sp, #4]	@ zero_extendqisi2
 3029 2c90 0030D5E5 		ldrb	r3, [r5, #0]	@ zero_extendqisi2
 3030 2c94 0020D4E5 		ldrb	r2, [r4, #0]	@ zero_extendqisi2
 3031 2c98 033081E0 		add	r3, r1, r3
 3032 2c9c FF3003E2 		and	r3, r3, #255
 3033 2ca0 0030C5E5 		strb	r3, [r5, #0]
 3034 2ca4 023083E0 		add	r3, r3, r2
 3035 2ca8 0030C4E5 		strb	r3, [r4, #0]
 3036 2cac 34039FE5 		ldr	r0, .L263
 3037 2cb0 FEFFFFEB 		bl	uart_transmit
 3038 2cb4 0510DDE5 		ldrb	r1, [sp, #5]	@ zero_extendqisi2
 3039 2cb8 0030D5E5 		ldrb	r3, [r5, #0]	@ zero_extendqisi2
 3040 2cbc 0020D4E5 		ldrb	r2, [r4, #0]	@ zero_extendqisi2
 3041 2cc0 033081E0 		add	r3, r1, r3
 3042 2cc4 FF3003E2 		and	r3, r3, #255
 3043 2cc8 0030C5E5 		strb	r3, [r5, #0]
 3044 2ccc 023083E0 		add	r3, r3, r2
 3045 2cd0 0030C4E5 		strb	r3, [r4, #0]
 3046 2cd4 0C039FE5 		ldr	r0, .L263
 3047 2cd8 FEFFFFEB 		bl	uart_transmit
 3048 2cdc 0610DDE5 		ldrb	r1, [sp, #6]	@ zero_extendqisi2
 3049 2ce0 0030D5E5 		ldrb	r3, [r5, #0]	@ zero_extendqisi2
 3050 2ce4 0020D4E5 		ldrb	r2, [r4, #0]	@ zero_extendqisi2
 3051 2ce8 033081E0 		add	r3, r1, r3
 3052 2cec FF3003E2 		and	r3, r3, #255
 3053 2cf0 0030C5E5 		strb	r3, [r5, #0]
 3054 2cf4 023083E0 		add	r3, r3, r2
 3055 2cf8 0030C4E5 		strb	r3, [r4, #0]
 3056 2cfc E4029FE5 		ldr	r0, .L263
 3057 2d00 FEFFFFEB 		bl	uart_transmit
 3058 2d04 0710DDE5 		ldrb	r1, [sp, #7]	@ zero_extendqisi2
 3059 2d08 0030D5E5 		ldrb	r3, [r5, #0]	@ zero_extendqisi2
 3060 2d0c 0020D4E5 		ldrb	r2, [r4, #0]	@ zero_extendqisi2
 3061 2d10 033081E0 		add	r3, r1, r3
 3062 2d14 FF3003E2 		and	r3, r3, #255
 3063 2d18 0030C5E5 		strb	r3, [r5, #0]
 3064 2d1c 023083E0 		add	r3, r3, r2
 3065 2d20 0030C4E5 		strb	r3, [r4, #0]
 3066 2d24 BC029FE5 		ldr	r0, .L263
 3067 2d28 FEFFFFEB 		bl	uart_transmit
 3068 2d2c 0010D5E5 		ldrb	r1, [r5, #0]	@ zero_extendqisi2
 3069 2d30 B0029FE5 		ldr	r0, .L263
 3070 2d34 FEFFFFEB 		bl	uart_transmit
 3071 2d38 A8029FE5 		ldr	r0, .L263
 3072 2d3c 0010D4E5 		ldrb	r1, [r4, #0]	@ zero_extendqisi2
 3073 2d40 FEFFFFEB 		bl	uart_transmit
 3074 2d44 030000EA 		b	.L86
 3075              	.L85:
 3076 2d48 9C329FE5 		ldr	r3, .L263+4
 3077 2d4c 0020D3E5 		ldrb	r2, [r3, #0]	@ zero_extendqisi2
 3078 2d50 012082E2 		add	r2, r2, #1
 3079 2d54 0020C3E5 		strb	r2, [r3, #0]
 3080              	.L86:
 3081 2d58 D0329FE5 		ldr	r3, .L263+72
 3082 2d5c 0020D3E5 		ldrb	r2, [r3, #0]	@ zero_extendqisi2
 3083 2d60 012082E2 		add	r2, r2, #1
 3084 2d64 0020C3E5 		strb	r2, [r3, #0]
 3085              	.L49:
 3086 2d68 34339FE5 		ldr	r3, .L263+188
 3087 2d6c 0030D3E5 		ldrb	r3, [r3, #0]	@ zero_extendqisi2
 3088 2d70 4E0053E3 		cmp	r3, #78
 3089 2d74 F600001A 		bne	.L87
 3090 2d78 68029FE5 		ldr	r0, .L263
 3091 2d7c 1110A0E3 		mov	r1, #17
 3092 2d80 FEFFFFEB 		bl	uart_check_free_space
 3093 2d84 000050E3 		cmp	r0, #0
 3094 2d88 ED00000A 		beq	.L88
 3095 2d8c 50339FE5 		ldr	r3, .L263+252
 3096 2d90 B020D3E1 		ldrh	r2, [r3, #0]
 3097 2d94 112082E2 		add	r2, r2, #17
 3098 2d98 B020C3E1 		strh	r2, [r3, #0]	@ movhi
 3099 2d9c 48339FE5 		ldr	r3, .L263+260
 3100 2da0 B020D3E1 		ldrh	r2, [r3, #0]
 3101 2da4 012082E2 		add	r2, r2, #1
 3102 2da8 B020C3E1 		strh	r2, [r3, #0]	@ movhi
 3103 2dac 34029FE5 		ldr	r0, .L263
 3104 2db0 9910A0E3 		mov	r1, #153
 3105 2db4 4C539FE5 		ldr	r5, .L263+288
 3106 2db8 FEFFFFEB 		bl	uart_transmit
 3107 2dbc 24029FE5 		ldr	r0, .L263
 3108 2dc0 1110A0E3 		mov	r1, #17
 3109 2dc4 40439FE5 		ldr	r4, .L263+292
 3110 2dc8 FEFFFFEB 		bl	uart_transmit
 3111 2dcc 1330A0E3 		mov	r3, #19
 3112 2dd0 0030C5E5 		strb	r3, [r5, #0]
 3113 2dd4 2430A0E3 		mov	r3, #36
 3114 2dd8 0030C4E5 		strb	r3, [r4, #0]
 3115 2ddc 04029FE5 		ldr	r0, .L263
 3116 2de0 0210A0E3 		mov	r1, #2
 3117 2de4 FEFFFFEB 		bl	uart_transmit
 3118 2de8 0030D5E5 		ldrb	r3, [r5, #0]	@ zero_extendqisi2
 3119 2dec 0020D4E5 		ldrb	r2, [r4, #0]	@ zero_extendqisi2
 3120 2df0 113083E2 		add	r3, r3, #17
 3121 2df4 FF3003E2 		and	r3, r3, #255
 3122 2df8 54629FE5 		ldr	r6, .L263+108
 3123 2dfc 0030C5E5 		strb	r3, [r5, #0]
 3124 2e00 023083E0 		add	r3, r3, r2
 3125 2e04 0030C4E5 		strb	r3, [r4, #0]
 3126 2e08 D8019FE5 		ldr	r0, .L263
 3127 2e0c 1110A0E3 		mov	r1, #17
 3128 2e10 FEFFFFEB 		bl	uart_transmit
 3129 2e14 4C10D6E5 		ldrb	r1, [r6, #76]	@ zero_extendqisi2
 3130 2e18 0030D5E5 		ldrb	r3, [r5, #0]	@ zero_extendqisi2
 3131 2e1c 0020D4E5 		ldrb	r2, [r4, #0]	@ zero_extendqisi2
 3132 2e20 033081E0 		add	r3, r1, r3
 3133 2e24 FF3003E2 		and	r3, r3, #255
 3134 2e28 0030C5E5 		strb	r3, [r5, #0]
 3135 2e2c 023083E0 		add	r3, r3, r2
 3136 2e30 0030C4E5 		strb	r3, [r4, #0]
 3137 2e34 AC019FE5 		ldr	r0, .L263
 3138 2e38 FEFFFFEB 		bl	uart_transmit
 3139 2e3c 4D10D6E5 		ldrb	r1, [r6, #77]	@ zero_extendqisi2
 3140 2e40 0030D5E5 		ldrb	r3, [r5, #0]	@ zero_extendqisi2
 3141 2e44 0020D4E5 		ldrb	r2, [r4, #0]	@ zero_extendqisi2
 3142 2e48 033081E0 		add	r3, r1, r3
 3143 2e4c FF3003E2 		and	r3, r3, #255
 3144 2e50 0030C5E5 		strb	r3, [r5, #0]
 3145 2e54 023083E0 		add	r3, r3, r2
 3146 2e58 0030C4E5 		strb	r3, [r4, #0]
 3147 2e5c 84019FE5 		ldr	r0, .L263
 3148 2e60 FEFFFFEB 		bl	uart_transmit
 3149 2e64 4E10D6E5 		ldrb	r1, [r6, #78]	@ zero_extendqisi2
 3150 2e68 0030D5E5 		ldrb	r3, [r5, #0]	@ zero_extendqisi2
 3151 2e6c 0020D4E5 		ldrb	r2, [r4, #0]	@ zero_extendqisi2
 3152 2e70 033081E0 		add	r3, r1, r3
 3153 2e74 FF3003E2 		and	r3, r3, #255
 3154 2e78 0030C5E5 		strb	r3, [r5, #0]
 3155 2e7c 023083E0 		add	r3, r3, r2
 3156 2e80 0030C4E5 		strb	r3, [r4, #0]
 3157 2e84 5C019FE5 		ldr	r0, .L263
 3158 2e88 FEFFFFEB 		bl	uart_transmit
 3159 2e8c 4F10D6E5 		ldrb	r1, [r6, #79]	@ zero_extendqisi2
 3160 2e90 0030D5E5 		ldrb	r3, [r5, #0]	@ zero_extendqisi2
 3161 2e94 0020D4E5 		ldrb	r2, [r4, #0]	@ zero_extendqisi2
 3162 2e98 033081E0 		add	r3, r1, r3
 3163 2e9c FF3003E2 		and	r3, r3, #255
 3164 2ea0 0030C5E5 		strb	r3, [r5, #0]
 3165 2ea4 023083E0 		add	r3, r3, r2
 3166 2ea8 0030C4E5 		strb	r3, [r4, #0]
 3167 2eac 34019FE5 		ldr	r0, .L263
 3168 2eb0 FEFFFFEB 		bl	uart_transmit
 3169 2eb4 5010D6E5 		ldrb	r1, [r6, #80]	@ zero_extendqisi2
 3170 2eb8 0030D5E5 		ldrb	r3, [r5, #0]	@ zero_extendqisi2
 3171 2ebc 0020D4E5 		ldrb	r2, [r4, #0]	@ zero_extendqisi2
 3172 2ec0 033081E0 		add	r3, r1, r3
 3173 2ec4 FF3003E2 		and	r3, r3, #255
 3174 2ec8 0030C5E5 		strb	r3, [r5, #0]
 3175 2ecc 023083E0 		add	r3, r3, r2
 3176 2ed0 0030C4E5 		strb	r3, [r4, #0]
 3177 2ed4 0C019FE5 		ldr	r0, .L263
 3178 2ed8 FEFFFFEB 		bl	uart_transmit
 3179 2edc 5110D6E5 		ldrb	r1, [r6, #81]	@ zero_extendqisi2
 3180 2ee0 0030D5E5 		ldrb	r3, [r5, #0]	@ zero_extendqisi2
 3181 2ee4 0020D4E5 		ldrb	r2, [r4, #0]	@ zero_extendqisi2
 3182 2ee8 033081E0 		add	r3, r1, r3
 3183 2eec FF3003E2 		and	r3, r3, #255
 3184 2ef0 0030C5E5 		strb	r3, [r5, #0]
 3185 2ef4 023083E0 		add	r3, r3, r2
 3186 2ef8 0030C4E5 		strb	r3, [r4, #0]
 3187 2efc E4009FE5 		ldr	r0, .L263
 3188 2f00 FEFFFFEB 		bl	uart_transmit
 3189 2f04 5210D6E5 		ldrb	r1, [r6, #82]	@ zero_extendqisi2
 3190 2f08 0030D5E5 		ldrb	r3, [r5, #0]	@ zero_extendqisi2
 3191 2f0c 0020D4E5 		ldrb	r2, [r4, #0]	@ zero_extendqisi2
 3192 2f10 033081E0 		add	r3, r1, r3
 3193 2f14 FF3003E2 		and	r3, r3, #255
 3194 2f18 0030C5E5 		strb	r3, [r5, #0]
 3195 2f1c 023083E0 		add	r3, r3, r2
 3196 2f20 0030C4E5 		strb	r3, [r4, #0]
 3197 2f24 BC009FE5 		ldr	r0, .L263
 3198 2f28 FEFFFFEB 		bl	uart_transmit
 3199 2f2c 5310D6E5 		ldrb	r1, [r6, #83]	@ zero_extendqisi2
 3200 2f30 0030D5E5 		ldrb	r3, [r5, #0]	@ zero_extendqisi2
 3201 2f34 0020D4E5 		ldrb	r2, [r4, #0]	@ zero_extendqisi2
 3202 2f38 033081E0 		add	r3, r1, r3
 3203 2f3c FF3003E2 		and	r3, r3, #255
 3204 2f40 0030C5E5 		strb	r3, [r5, #0]
 3205 2f44 023083E0 		add	r3, r3, r2
 3206 2f48 0030C4E5 		strb	r3, [r4, #0]
 3207 2f4c 94009FE5 		ldr	r0, .L263
 3208 2f50 FEFFFFEB 		bl	uart_transmit
 3209 2f54 5810D6E5 		ldrb	r1, [r6, #88]	@ zero_extendqisi2
 3210 2f58 0030D5E5 		ldrb	r3, [r5, #0]	@ zero_extendqisi2
 3211 2f5c 0020D4E5 		ldrb	r2, [r4, #0]	@ zero_extendqisi2
 3212 2f60 033081E0 		add	r3, r1, r3
 3213 2f64 FF3003E2 		and	r3, r3, #255
 3214 2f68 0030C5E5 		strb	r3, [r5, #0]
 3215 2f6c 023083E0 		add	r3, r3, r2
 3216 2f70 0030C4E5 		strb	r3, [r4, #0]
 3217 2f74 6C009FE5 		ldr	r0, .L263
 3218 2f78 FEFFFFEB 		bl	uart_transmit
 3219 2f7c 5910D6E5 		ldrb	r1, [r6, #89]	@ zero_extendqisi2
 3220 2f80 0030D5E5 		ldrb	r3, [r5, #0]	@ zero_extendqisi2
 3221 2f84 0020D4E5 		ldrb	r2, [r4, #0]	@ zero_extendqisi2
 3222 2f88 033081E0 		add	r3, r1, r3
 3223 2f8c FF3003E2 		and	r3, r3, #255
 3224 2f90 0030C5E5 		strb	r3, [r5, #0]
 3225 2f94 023083E0 		add	r3, r3, r2
 3226 2f98 0030C4E5 		strb	r3, [r4, #0]
 3227 2f9c 44009FE5 		ldr	r0, .L263
 3228 2fa0 FEFFFFEB 		bl	uart_transmit
 3229 2fa4 5A10D6E5 		ldrb	r1, [r6, #90]	@ zero_extendqisi2
 3230 2fa8 0030D5E5 		ldrb	r3, [r5, #0]	@ zero_extendqisi2
 3231 2fac 0020D4E5 		ldrb	r2, [r4, #0]	@ zero_extendqisi2
 3232 2fb0 033081E0 		add	r3, r1, r3
 3233 2fb4 FF3003E2 		and	r3, r3, #255
 3234 2fb8 0030C5E5 		strb	r3, [r5, #0]
 3235 2fbc 023083E0 		add	r3, r3, r2
 3236 2fc0 0030C4E5 		strb	r3, [r4, #0]
 3237 2fc4 1C009FE5 		ldr	r0, .L263
 3238 2fc8 FEFFFFEB 		bl	uart_transmit
 3239 2fcc 0010D5E5 		ldrb	r1, [r5, #0]	@ zero_extendqisi2
 3240 2fd0 10009FE5 		ldr	r0, .L263
 3241 2fd4 FEFFFFEB 		bl	uart_transmit
 3242 2fd8 08009FE5 		ldr	r0, .L263
 3243 2fdc 0010D4E5 		ldrb	r1, [r4, #0]	@ zero_extendqisi2
 3244 2fe0 FEFFFFEB 		bl	uart_transmit
 3245 2fe4 5A0000EA 		b	.L87
 3246              	.L264:
 3247              		.align	2
 3248              	.L263:
 3249 2fe8 00000000 		.word	uart1
 3250 2fec 00000000 		.word	downlink_nb_ovrn
 3251 2ff0 00000000 		.word	.LANCHOR6
 3252 2ff4 00000000 		.word	.LANCHOR17
 3253 2ff8 00000000 		.word	energy
 3254 2ffc 00000000 		.word	v_ctl_throttle_slewed
 3255 3000 00000000 		.word	electrical
 3256 3004 00000000 		.word	estimator_flight_time
 3257 3008 00000000 		.word	.LANCHOR18
 3258 300c 00000000 		.word	block_time
 3259 3010 00000000 		.word	stage_time
 3260 3014 00000000 		.word	.LANCHOR7
 3261 3018 00000000 		.word	nav_in_segment
 3262 301c 00000000 		.word	nav_segment_x_1
 3263 3020 00000000 		.word	nav_segment_y_1
 3264 3024 00000000 		.word	nav_segment_x_2
 3265 3028 00000000 		.word	nav_segment_y_2
 3266 302c 00000000 		.word	.LANCHOR8
 3267 3030 00000000 		.word	.LANCHOR19
 3268 3034 00000000 		.word	telemetry_mode_Ap
 3269 3038 00000000 		.word	telemetry_mode_Fbw
 3270 303c 00000000 		.word	flight_altitude
 3271 3040 00000000 		.word	nav_course
 3272 3044 00000000 		.word	nav_shift
 3273 3048 00000000 		.word	nav_radius
 3274 304c 00000000 		.word	route_ap_time
 3275 3050 00000000 		.word	.LANCHOR21
 3276 3054 00000000 		.word	gps
 3277 3058 00000000 		.word	h_ctl_pitch_pgain
 3278 305c 00000000 		.word	h_ctl_pitch_dgain
 3279 3060 00000000 		.word	h_ctl_elevator_of_roll
 3280 3064 00000000 		.word	h_ctl_roll_attitude_gain
 3281 3068 00000000 		.word	h_ctl_roll_rate_gain
 3282 306c 00000000 		.word	h_ctl_aileron_of_throttle
 3283 3070 00000000 		.word	h_ctl_roll_slew
 3284 3074 00000000 		.word	h_ctl_course_pgain
 3285 3078 00000000 		.word	h_ctl_course_dgain
 3286 307c 00000000 		.word	h_ctl_course_pre_bank_correction
 3287 3080 00000000 		.word	h_ctl_roll_max_setpoint
 3288 3084 00000000 		.word	v_ctl_altitude_pgain
 3289 3088 00000000 		.word	v_ctl_auto_throttle_cruise_throttle
 3290 308c 00000000 		.word	v_ctl_auto_throttle_pgain
 3291 3090 00000000 		.word	v_ctl_auto_throttle_igain
 3292 3094 00000000 		.word	v_ctl_auto_throttle_dgain
 3293 3098 00000000 		.word	v_ctl_auto_throttle_climb_throttle_increment
 3294 309c 00000000 		.word	v_ctl_auto_throttle_pitch_of_vz_pgain
 3295 30a0 00000000 		.word	v_ctl_auto_throttle_pitch_of_vz_dgain
 3296 30a4 00000000 		.word	.LANCHOR9
 3297 30a8 00000000 		.word	.LANCHOR10
 3298 30ac 00000000 		.word	v_ctl_auto_throttle_sum_err
 3299 30b0 00000000 		.word	v_ctl_auto_throttle_submode
 3300 30b4 00000000 		.word	nav_survey_active
 3301 30b8 00000000 		.word	nav_survey_east
 3302 30bc 00000000 		.word	nav_survey_north
 3303 30c0 00000000 		.word	nav_survey_west
 3304 30c4 00000000 		.word	nav_survey_south
 3305 30c8 00000000 		.word	.LANCHOR11
 3306 30cc 00000000 		.word	energy
 3307 30d0 00000000 		.word	vsupply
 3308 30d4 00002041 		.word	1092616192
 3309 30d8 00000000 		.word	.LANCHOR17
 3310 30dc 00007A44 		.word	1148846080
 3311 30e0 00000000 		.word	.LANCHOR12
 3312 30e4 00000000 		.word	downlink_nb_bytes
 3313 30e8 00000000 		.word	.LC0
 3314 30ec 00000000 		.word	downlink_nb_msgs
 3315 30f0 00000000 		.word	.LANCHOR20
 3316 30f4 00000000 		.word	v_ctl_mode
 3317 30f8 00000000 		.word	.LANCHOR22
 3318 30fc 00000000 		.word	horizontal_mode
 3319 3100 00000000 		.word	.LANCHOR23
 3320 3104 00000000 		.word	infrared
 3321 3108 00000000 		.word	ck_a
 3322 310c 00000000 		.word	ck_b
 3323 3110 00000000 		.word	.LANCHOR13
 3324 3114 00000000 		.word	.LANCHOR24
 3325 3118 66666666 		.word	1717986918
 3326 311c 66661440 		.word	1075078758
 3327 3120 00000000 		.word	downlink_nb_ovrn
 3328 3124 00000000 		.word	.LANCHOR14
 3329 3128 00000000 		.word	downlink_nb_bytes
 3330 312c 00000000 		.word	downlink_nb_msgs
 3331 3130 00000000 		.word	ck_a
 3332 3134 00000000 		.word	ck_b
 3333 3138 00000000 		.word	nav_utm_east0
 3334 313c 00000000 		.word	nav_utm_north0
 3335 3140 00000000 		.word	uart1
 3336              	.L88:
 3337 3144 2C301FE5 		ldr	r3, .L263+312
 3338 3148 0020D3E5 		ldrb	r2, [r3, #0]	@ zero_extendqisi2
 3339 314c 012082E2 		add	r2, r2, #1
 3340 3150 0020C3E5 		strb	r2, [r3, #0]
 3341              	.L87:
 3342 3154 B4301FE5 		ldr	r3, .L263+192
 3343 3158 0030D3E5 		ldrb	r3, [r3, #0]	@ zero_extendqisi2
 3344 315c 540053E3 		cmp	r3, #84
 3345 3160 5100001A 		bne	.L89
 3346 3164 2C001FE5 		ldr	r0, .L263+344
 3347 3168 0B10A0E3 		mov	r1, #11
 3348 316c FEFFFFEB 		bl	uart_check_free_space
 3349 3170 000050E3 		cmp	r0, #0
 3350 3174 2301000A 		beq	.L92
 3351 3178 9C301FE5 		ldr	r3, .L263+252
 3352 317c B020D3E1 		ldrh	r2, [r3, #0]
 3353 3180 0B2082E2 		add	r2, r2, #11
 3354 3184 B020C3E1 		strh	r2, [r3, #0]	@ movhi
 3355 3188 A4301FE5 		ldr	r3, .L263+260
 3356 318c B020D3E1 		ldrh	r2, [r3, #0]
 3357 3190 012082E2 		add	r2, r2, #1
 3358 3194 B020C3E1 		strh	r2, [r3, #0]	@ movhi
 3359 3198 60001FE5 		ldr	r0, .L263+344
 3360 319c 9910A0E3 		mov	r1, #153
 3361 31a0 A0501FE5 		ldr	r5, .L263+288
 3362 31a4 FEFFFFEB 		bl	uart_transmit
 3363 31a8 70001FE5 		ldr	r0, .L263+344
 3364 31ac 0B10A0E3 		mov	r1, #11
 3365 31b0 AC401FE5 		ldr	r4, .L263+292
 3366 31b4 FEFFFFEB 		bl	uart_transmit
 3367 31b8 0D30A0E3 		mov	r3, #13
 3368 31bc 0030C5E5 		strb	r3, [r5, #0]
 3369 31c0 1830A0E3 		mov	r3, #24
 3370 31c4 0030C4E5 		strb	r3, [r4, #0]
 3371 31c8 90001FE5 		ldr	r0, .L263+344
 3372 31cc 0210A0E3 		mov	r1, #2
 3373 31d0 FEFFFFEB 		bl	uart_transmit
 3374 31d4 0030D5E5 		ldrb	r3, [r5, #0]	@ zero_extendqisi2
 3375 31d8 0020D4E5 		ldrb	r2, [r4, #0]	@ zero_extendqisi2
 3376 31dc 0E3083E2 		add	r3, r3, #14
 3377 31e0 FF3003E2 		and	r3, r3, #255
 3378 31e4 40611FE5 		ldr	r6, .L263+196
 3379 31e8 0030C5E5 		strb	r3, [r5, #0]
 3380 31ec 023083E0 		add	r3, r3, r2
 3381 31f0 0030C4E5 		strb	r3, [r4, #0]
 3382 31f4 BC001FE5 		ldr	r0, .L263+344
 3383 31f8 0E10A0E3 		mov	r1, #14
 3384 31fc FEFFFFEB 		bl	uart_transmit
 3385 3200 0010D6E5 		ldrb	r1, [r6, #0]	@ zero_extendqisi2
 3386 3204 0030D5E5 		ldrb	r3, [r5, #0]	@ zero_extendqisi2
 3387 3208 0020D4E5 		ldrb	r2, [r4, #0]	@ zero_extendqisi2
 3388 320c 033081E0 		add	r3, r1, r3
 3389 3210 FF3003E2 		and	r3, r3, #255
 3390 3214 0030C5E5 		strb	r3, [r5, #0]
 3391 3218 023083E0 		add	r3, r3, r2
 3392 321c 0030C4E5 		strb	r3, [r4, #0]
 3393 3220 E8001FE5 		ldr	r0, .L263+344
 3394 3224 FEFFFFEB 		bl	uart_transmit
 3395 3228 0110D6E5 		ldrb	r1, [r6, #1]	@ zero_extendqisi2
 3396 322c 0030D5E5 		ldrb	r3, [r5, #0]	@ zero_extendqisi2
 3397 3230 0020D4E5 		ldrb	r2, [r4, #0]	@ zero_extendqisi2
 3398 3234 033081E0 		add	r3, r1, r3
 3399 3238 FF3003E2 		and	r3, r3, #255
 3400 323c 0030C5E5 		strb	r3, [r5, #0]
 3401 3240 023083E0 		add	r3, r3, r2
 3402 3244 0030C4E5 		strb	r3, [r4, #0]
 3403 3248 10011FE5 		ldr	r0, .L263+344
 3404 324c FEFFFFEB 		bl	uart_transmit
 3405 3250 0210D6E5 		ldrb	r1, [r6, #2]	@ zero_extendqisi2
 3406 3254 0030D5E5 		ldrb	r3, [r5, #0]	@ zero_extendqisi2
 3407 3258 0020D4E5 		ldrb	r2, [r4, #0]	@ zero_extendqisi2
 3408 325c 033081E0 		add	r3, r1, r3
 3409 3260 FF3003E2 		and	r3, r3, #255
 3410 3264 0030C5E5 		strb	r3, [r5, #0]
 3411 3268 023083E0 		add	r3, r3, r2
 3412 326c 0030C4E5 		strb	r3, [r4, #0]
 3413 3270 38011FE5 		ldr	r0, .L263+344
 3414 3274 FEFFFFEB 		bl	uart_transmit
 3415 3278 0310D6E5 		ldrb	r1, [r6, #3]	@ zero_extendqisi2
 3416 327c 0030D5E5 		ldrb	r3, [r5, #0]	@ zero_extendqisi2
 3417 3280 0020D4E5 		ldrb	r2, [r4, #0]	@ zero_extendqisi2
 3418 3284 033081E0 		add	r3, r1, r3
 3419 3288 FF3003E2 		and	r3, r3, #255
 3420 328c 0030C5E5 		strb	r3, [r5, #0]
 3421 3290 023083E0 		add	r3, r3, r2
 3422 3294 0030C4E5 		strb	r3, [r4, #0]
 3423 3298 60011FE5 		ldr	r0, .L263+344
 3424 329c FEFFFFEB 		bl	uart_transmit
 3425 32a0 F8311FE5 		ldr	r3, .L263+200
 3426 32a4 0010D3E5 		ldrb	r1, [r3, #0]	@ zero_extendqisi2
 3427 32a8 C60000EA 		b	.L249
 3428              	.L89:
 3429 32ac 5A0053E3 		cmp	r3, #90
 3430 32b0 D800001A 		bne	.L91
 3431 32b4 08321FE5 		ldr	r3, .L263+204
 3432 32b8 0030D3E5 		ldrb	r3, [r3, #0]	@ zero_extendqisi2
 3433 32bc 000053E3 		cmp	r3, #0
 3434 32c0 D400000A 		beq	.L91
 3435 32c4 8C011FE5 		ldr	r0, .L263+344
 3436 32c8 1610A0E3 		mov	r1, #22
 3437 32cc FEFFFFEB 		bl	uart_check_free_space
 3438 32d0 000050E3 		cmp	r0, #0
 3439 32d4 CB00000A 		beq	.L92
 3440 32d8 FC311FE5 		ldr	r3, .L263+252
 3441 32dc B020D3E1 		ldrh	r2, [r3, #0]
 3442 32e0 162082E2 		add	r2, r2, #22
 3443 32e4 B020C3E1 		strh	r2, [r3, #0]	@ movhi
 3444 32e8 04321FE5 		ldr	r3, .L263+260
 3445 32ec B020D3E1 		ldrh	r2, [r3, #0]
 3446 32f0 012082E2 		add	r2, r2, #1
 3447 32f4 B020C3E1 		strh	r2, [r3, #0]	@ movhi
 3448 32f8 C0011FE5 		ldr	r0, .L263+344
 3449 32fc 9910A0E3 		mov	r1, #153
 3450 3300 00521FE5 		ldr	r5, .L263+288
 3451 3304 FEFFFFEB 		bl	uart_transmit
 3452 3308 D0011FE5 		ldr	r0, .L263+344
 3453 330c 1610A0E3 		mov	r1, #22
 3454 3310 0C421FE5 		ldr	r4, .L263+292
 3455 3314 FEFFFFEB 		bl	uart_transmit
 3456 3318 1830A0E3 		mov	r3, #24
 3457 331c 0030C5E5 		strb	r3, [r5, #0]
 3458 3320 2E30A0E3 		mov	r3, #46
 3459 3324 0030C4E5 		strb	r3, [r4, #0]
 3460 3328 F0011FE5 		ldr	r0, .L263+344
 3461 332c 0210A0E3 		mov	r1, #2
 3462 3330 FEFFFFEB 		bl	uart_transmit
 3463 3334 0030D5E5 		ldrb	r3, [r5, #0]	@ zero_extendqisi2
 3464 3338 0020D4E5 		ldrb	r2, [r4, #0]	@ zero_extendqisi2
 3465 333c 1B3083E2 		add	r3, r3, #27
 3466 3340 FF3003E2 		and	r3, r3, #255
 3467 3344 94621FE5 		ldr	r6, .L263+208
 3468 3348 0030C5E5 		strb	r3, [r5, #0]
 3469 334c 023083E0 		add	r3, r3, r2
 3470 3350 0030C4E5 		strb	r3, [r4, #0]
 3471 3354 1C021FE5 		ldr	r0, .L263+344
 3472 3358 1B10A0E3 		mov	r1, #27
 3473 335c FEFFFFEB 		bl	uart_transmit
 3474 3360 0010D6E5 		ldrb	r1, [r6, #0]	@ zero_extendqisi2
 3475 3364 0030D5E5 		ldrb	r3, [r5, #0]	@ zero_extendqisi2
 3476 3368 0020D4E5 		ldrb	r2, [r4, #0]	@ zero_extendqisi2
 3477 336c 033081E0 		add	r3, r1, r3
 3478 3370 FF3003E2 		and	r3, r3, #255
 3479 3374 0030C5E5 		strb	r3, [r5, #0]
 3480 3378 023083E0 		add	r3, r3, r2
 3481 337c 0030C4E5 		strb	r3, [r4, #0]
 3482 3380 48021FE5 		ldr	r0, .L263+344
 3483 3384 FEFFFFEB 		bl	uart_transmit
 3484 3388 0110D6E5 		ldrb	r1, [r6, #1]	@ zero_extendqisi2
 3485 338c 0030D5E5 		ldrb	r3, [r5, #0]	@ zero_extendqisi2
 3486 3390 0020D4E5 		ldrb	r2, [r4, #0]	@ zero_extendqisi2
 3487 3394 033081E0 		add	r3, r1, r3
 3488 3398 FF3003E2 		and	r3, r3, #255
 3489 339c 0030C5E5 		strb	r3, [r5, #0]
 3490 33a0 023083E0 		add	r3, r3, r2
 3491 33a4 0030C4E5 		strb	r3, [r4, #0]
 3492 33a8 70021FE5 		ldr	r0, .L263+344
 3493 33ac FEFFFFEB 		bl	uart_transmit
 3494 33b0 0210D6E5 		ldrb	r1, [r6, #2]	@ zero_extendqisi2
 3495 33b4 0030D5E5 		ldrb	r3, [r5, #0]	@ zero_extendqisi2
 3496 33b8 0020D4E5 		ldrb	r2, [r4, #0]	@ zero_extendqisi2
 3497 33bc 033081E0 		add	r3, r1, r3
 3498 33c0 FF3003E2 		and	r3, r3, #255
 3499 33c4 0030C5E5 		strb	r3, [r5, #0]
 3500 33c8 023083E0 		add	r3, r3, r2
 3501 33cc 0030C4E5 		strb	r3, [r4, #0]
 3502 33d0 98021FE5 		ldr	r0, .L263+344
 3503 33d4 FEFFFFEB 		bl	uart_transmit
 3504 33d8 0310D6E5 		ldrb	r1, [r6, #3]	@ zero_extendqisi2
 3505 33dc 0030D5E5 		ldrb	r3, [r5, #0]	@ zero_extendqisi2
 3506 33e0 0020D4E5 		ldrb	r2, [r4, #0]	@ zero_extendqisi2
 3507 33e4 033081E0 		add	r3, r1, r3
 3508 33e8 FF3003E2 		and	r3, r3, #255
 3509 33ec 38631FE5 		ldr	r6, .L263+212
 3510 33f0 0030C5E5 		strb	r3, [r5, #0]
 3511 33f4 023083E0 		add	r3, r3, r2
 3512 33f8 0030C4E5 		strb	r3, [r4, #0]
 3513 33fc C4021FE5 		ldr	r0, .L263+344
 3514 3400 FEFFFFEB 		bl	uart_transmit
 3515 3404 0010D6E5 		ldrb	r1, [r6, #0]	@ zero_extendqisi2
 3516 3408 0030D5E5 		ldrb	r3, [r5, #0]	@ zero_extendqisi2
 3517 340c 0020D4E5 		ldrb	r2, [r4, #0]	@ zero_extendqisi2
 3518 3410 033081E0 		add	r3, r1, r3
 3519 3414 FF3003E2 		and	r3, r3, #255
 3520 3418 0030C5E5 		strb	r3, [r5, #0]
 3521 341c 023083E0 		add	r3, r3, r2
 3522 3420 0030C4E5 		strb	r3, [r4, #0]
 3523 3424 EC021FE5 		ldr	r0, .L263+344
 3524 3428 FEFFFFEB 		bl	uart_transmit
 3525 342c 0110D6E5 		ldrb	r1, [r6, #1]	@ zero_extendqisi2
 3526 3430 0030D5E5 		ldrb	r3, [r5, #0]	@ zero_extendqisi2
 3527 3434 0020D4E5 		ldrb	r2, [r4, #0]	@ zero_extendqisi2
 3528 3438 033081E0 		add	r3, r1, r3
 3529 343c FF3003E2 		and	r3, r3, #255
 3530 3440 0030C5E5 		strb	r3, [r5, #0]
 3531 3444 023083E0 		add	r3, r3, r2
 3532 3448 0030C4E5 		strb	r3, [r4, #0]
 3533 344c 14031FE5 		ldr	r0, .L263+344
 3534 3450 FEFFFFEB 		bl	uart_transmit
 3535 3454 0210D6E5 		ldrb	r1, [r6, #2]	@ zero_extendqisi2
 3536 3458 0030D5E5 		ldrb	r3, [r5, #0]	@ zero_extendqisi2
 3537 345c 0020D4E5 		ldrb	r2, [r4, #0]	@ zero_extendqisi2
 3538 3460 033081E0 		add	r3, r1, r3
 3539 3464 FF3003E2 		and	r3, r3, #255
 3540 3468 0030C5E5 		strb	r3, [r5, #0]
 3541 346c 023083E0 		add	r3, r3, r2
 3542 3470 0030C4E5 		strb	r3, [r4, #0]
 3543 3474 3C031FE5 		ldr	r0, .L263+344
 3544 3478 FEFFFFEB 		bl	uart_transmit
 3545 347c 0310D6E5 		ldrb	r1, [r6, #3]	@ zero_extendqisi2
 3546 3480 0030D5E5 		ldrb	r3, [r5, #0]	@ zero_extendqisi2
 3547 3484 0020D4E5 		ldrb	r2, [r4, #0]	@ zero_extendqisi2
 3548 3488 033081E0 		add	r3, r1, r3
 3549 348c FF3003E2 		and	r3, r3, #255
 3550 3490 D8631FE5 		ldr	r6, .L263+216
 3551 3494 0030C5E5 		strb	r3, [r5, #0]
 3552 3498 023083E0 		add	r3, r3, r2
 3553 349c 0030C4E5 		strb	r3, [r4, #0]
 3554 34a0 68031FE5 		ldr	r0, .L263+344
 3555 34a4 FEFFFFEB 		bl	uart_transmit
 3556 34a8 0010D6E5 		ldrb	r1, [r6, #0]	@ zero_extendqisi2
 3557 34ac 0030D5E5 		ldrb	r3, [r5, #0]	@ zero_extendqisi2
 3558 34b0 0020D4E5 		ldrb	r2, [r4, #0]	@ zero_extendqisi2
 3559 34b4 033081E0 		add	r3, r1, r3
 3560 34b8 FF3003E2 		and	r3, r3, #255
 3561 34bc 0030C5E5 		strb	r3, [r5, #0]
 3562 34c0 023083E0 		add	r3, r3, r2
 3563 34c4 0030C4E5 		strb	r3, [r4, #0]
 3564 34c8 90031FE5 		ldr	r0, .L263+344
 3565 34cc FEFFFFEB 		bl	uart_transmit
 3566 34d0 0110D6E5 		ldrb	r1, [r6, #1]	@ zero_extendqisi2
 3567 34d4 0030D5E5 		ldrb	r3, [r5, #0]	@ zero_extendqisi2
 3568 34d8 0020D4E5 		ldrb	r2, [r4, #0]	@ zero_extendqisi2
 3569 34dc 033081E0 		add	r3, r1, r3
 3570 34e0 FF3003E2 		and	r3, r3, #255
 3571 34e4 0030C5E5 		strb	r3, [r5, #0]
 3572 34e8 023083E0 		add	r3, r3, r2
 3573 34ec 0030C4E5 		strb	r3, [r4, #0]
 3574 34f0 B8031FE5 		ldr	r0, .L263+344
 3575 34f4 FEFFFFEB 		bl	uart_transmit
 3576 34f8 0210D6E5 		ldrb	r1, [r6, #2]	@ zero_extendqisi2
 3577 34fc 0030D5E5 		ldrb	r3, [r5, #0]	@ zero_extendqisi2
 3578 3500 0020D4E5 		ldrb	r2, [r4, #0]	@ zero_extendqisi2
 3579 3504 033081E0 		add	r3, r1, r3
 3580 3508 FF3003E2 		and	r3, r3, #255
 3581 350c 0030C5E5 		strb	r3, [r5, #0]
 3582 3510 023083E0 		add	r3, r3, r2
 3583 3514 0030C4E5 		strb	r3, [r4, #0]
 3584 3518 E0031FE5 		ldr	r0, .L263+344
 3585 351c FEFFFFEB 		bl	uart_transmit
 3586 3520 0310D6E5 		ldrb	r1, [r6, #3]	@ zero_extendqisi2
 3587 3524 0030D5E5 		ldrb	r3, [r5, #0]	@ zero_extendqisi2
 3588 3528 0020D4E5 		ldrb	r2, [r4, #0]	@ zero_extendqisi2
 3589 352c 033081E0 		add	r3, r1, r3
 3590 3530 FF3003E2 		and	r3, r3, #255
 3591 3534 78641FE5 		ldr	r6, .L263+220
 3592 3538 0030C5E5 		strb	r3, [r5, #0]
 3593 353c 023083E0 		add	r3, r3, r2
 3594 3540 0030C4E5 		strb	r3, [r4, #0]
 3595 3544 0C041FE5 		ldr	r0, .L263+344
 3596 3548 FEFFFFEB 		bl	uart_transmit
 3597 354c 0010D6E5 		ldrb	r1, [r6, #0]	@ zero_extendqisi2
 3598 3550 0030D5E5 		ldrb	r3, [r5, #0]	@ zero_extendqisi2
 3599 3554 0020D4E5 		ldrb	r2, [r4, #0]	@ zero_extendqisi2
 3600 3558 033081E0 		add	r3, r1, r3
 3601 355c FF3003E2 		and	r3, r3, #255
 3602 3560 0030C5E5 		strb	r3, [r5, #0]
 3603 3564 023083E0 		add	r3, r3, r2
 3604 3568 0030C4E5 		strb	r3, [r4, #0]
 3605 356c 34041FE5 		ldr	r0, .L263+344
 3606 3570 FEFFFFEB 		bl	uart_transmit
 3607 3574 0110D6E5 		ldrb	r1, [r6, #1]	@ zero_extendqisi2
 3608 3578 0030D5E5 		ldrb	r3, [r5, #0]	@ zero_extendqisi2
 3609 357c 0020D4E5 		ldrb	r2, [r4, #0]	@ zero_extendqisi2
 3610 3580 033081E0 		add	r3, r1, r3
 3611 3584 FF3003E2 		and	r3, r3, #255
 3612 3588 0030C5E5 		strb	r3, [r5, #0]
 3613 358c 023083E0 		add	r3, r3, r2
 3614 3590 0030C4E5 		strb	r3, [r4, #0]
 3615 3594 5C041FE5 		ldr	r0, .L263+344
 3616 3598 FEFFFFEB 		bl	uart_transmit
 3617 359c 0210D6E5 		ldrb	r1, [r6, #2]	@ zero_extendqisi2
 3618 35a0 0030D5E5 		ldrb	r3, [r5, #0]	@ zero_extendqisi2
 3619 35a4 0020D4E5 		ldrb	r2, [r4, #0]	@ zero_extendqisi2
 3620 35a8 033081E0 		add	r3, r1, r3
 3621 35ac FF3003E2 		and	r3, r3, #255
 3622 35b0 0030C5E5 		strb	r3, [r5, #0]
 3623 35b4 023083E0 		add	r3, r3, r2
 3624 35b8 0030C4E5 		strb	r3, [r4, #0]
 3625 35bc 84041FE5 		ldr	r0, .L263+344
 3626 35c0 FEFFFFEB 		bl	uart_transmit
 3627 35c4 0310D6E5 		ldrb	r1, [r6, #3]	@ zero_extendqisi2
 3628              	.L249:
 3629 35c8 0030D5E5 		ldrb	r3, [r5, #0]	@ zero_extendqisi2
 3630 35cc 0020D4E5 		ldrb	r2, [r4, #0]	@ zero_extendqisi2
 3631 35d0 033081E0 		add	r3, r1, r3
 3632 35d4 FF3003E2 		and	r3, r3, #255
 3633 35d8 0030C5E5 		strb	r3, [r5, #0]
 3634 35dc 023083E0 		add	r3, r3, r2
 3635 35e0 0030C4E5 		strb	r3, [r4, #0]
 3636 35e4 AC041FE5 		ldr	r0, .L263+344
 3637 35e8 FEFFFFEB 		bl	uart_transmit
 3638 35ec 0010D5E5 		ldrb	r1, [r5, #0]	@ zero_extendqisi2
 3639 35f0 B8041FE5 		ldr	r0, .L263+344
 3640 35f4 FEFFFFEB 		bl	uart_transmit
 3641 35f8 C0041FE5 		ldr	r0, .L263+344
 3642 35fc 0010D4E5 		ldrb	r1, [r4, #0]	@ zero_extendqisi2
 3643 3600 FEFFFFEB 		bl	uart_transmit
 3644 3604 030000EA 		b	.L91
 3645              	.L92:
 3646 3608 F0341FE5 		ldr	r3, .L263+312
 3647 360c 0020D3E5 		ldrb	r2, [r3, #0]	@ zero_extendqisi2
 3648 3610 012082E2 		add	r2, r2, #1
 3649 3614 0020C3E5 		strb	r2, [r3, #0]
 3650              	.L91:
 3651 3618 58351FE5 		ldr	r3, .L263+224
 3652 361c 0030D3E5 		ldrb	r3, [r3, #0]	@ zero_extendqisi2
 3653 3620 600053E3 		cmp	r3, #96
 3654 3624 D100001A 		bne	.L93
 3655 3628 64351FE5 		ldr	r3, .L263+228
 3656 362c 000093E5 		ldr	r0, [r3, #0]	@ float
 3657 3630 FEFFFFEB 		bl	__aeabi_f2iz
 3658 3634 6C351FE5 		ldr	r3, .L263+232
 3659 3638 BC00CDE1 		strh	r0, [sp, #12]	@ movhi
 3660 363c B000D3E1 		ldrh	r0, [r3, #0]
 3661 3640 FEFFFFEB 		bl	__aeabi_ui2f
 3662 3644 78151FE5 		ldr	r1, .L263+236
 3663 3648 FEFFFFEB 		bl	__aeabi_fdiv
 3664 364c 7C351FE5 		ldr	r3, .L263+240
 3665 3650 0040A0E1 		mov	r4, r0
 3666 3654 04008DE5 		str	r0, [sp, #4]	@ float
 3667 3658 000093E5 		ldr	r0, [r3, #0]
 3668 365c FEFFFFEB 		bl	__aeabi_i2f
 3669 3660 8C151FE5 		ldr	r1, .L263+244
 3670 3664 FEFFFFEB 		bl	__aeabi_fdiv
 3671 3668 0010A0E1 		mov	r1, r0
 3672 366c 00008DE5 		str	r0, [sp, #0]	@ float
 3673 3670 0400A0E1 		mov	r0, r4
 3674 3674 FEFFFFEB 		bl	__aeabi_fmul
 3675 3678 1410A0E3 		mov	r1, #20
 3676 367c 08008DE5 		str	r0, [sp, #8]	@ float
 3677 3680 48051FE5 		ldr	r0, .L263+344
 3678 3684 FEFFFFEB 		bl	uart_check_free_space
 3679 3688 000050E3 		cmp	r0, #0
 3680 368c B300000A 		beq	.L94
 3681 3690 B4351FE5 		ldr	r3, .L263+252
 3682 3694 B020D3E1 		ldrh	r2, [r3, #0]
 3683 3698 142082E2 		add	r2, r2, #20
 3684 369c B020C3E1 		strh	r2, [r3, #0]	@ movhi
 3685 36a0 BC351FE5 		ldr	r3, .L263+260
 3686 36a4 B020D3E1 		ldrh	r2, [r3, #0]
 3687 36a8 012082E2 		add	r2, r2, #1
 3688 36ac B020C3E1 		strh	r2, [r3, #0]	@ movhi
 3689 36b0 78051FE5 		ldr	r0, .L263+344
 3690 36b4 9910A0E3 		mov	r1, #153
 3691 36b8 B8551FE5 		ldr	r5, .L263+288
 3692 36bc FEFFFFEB 		bl	uart_transmit
 3693 36c0 88051FE5 		ldr	r0, .L263+344
 3694 36c4 1410A0E3 		mov	r1, #20
 3695 36c8 C4451FE5 		ldr	r4, .L263+292
 3696 36cc FEFFFFEB 		bl	uart_transmit
 3697 36d0 1630A0E3 		mov	r3, #22
 3698 36d4 0030C5E5 		strb	r3, [r5, #0]
 3699 36d8 2A30A0E3 		mov	r3, #42
 3700 36dc 0030C4E5 		strb	r3, [r4, #0]
 3701 36e0 A8051FE5 		ldr	r0, .L263+344
 3702 36e4 0210A0E3 		mov	r1, #2
 3703 36e8 FEFFFFEB 		bl	uart_transmit
 3704 36ec 0030D5E5 		ldrb	r3, [r5, #0]	@ zero_extendqisi2
 3705 36f0 0020D4E5 		ldrb	r2, [r4, #0]	@ zero_extendqisi2
 3706 36f4 253083E2 		add	r3, r3, #37
 3707 36f8 FF3003E2 		and	r3, r3, #255
 3708 36fc 0030C5E5 		strb	r3, [r5, #0]
 3709 3700 023083E0 		add	r3, r3, r2
 3710 3704 0030C4E5 		strb	r3, [r4, #0]
 3711 3708 D0051FE5 		ldr	r0, .L263+344
 3712 370c 2510A0E3 		mov	r1, #37
 3713 3710 FEFFFFEB 		bl	uart_transmit
 3714 3714 0410DDE5 		ldrb	r1, [sp, #4]	@ zero_extendqisi2
 3715 3718 0030D5E5 		ldrb	r3, [r5, #0]	@ zero_extendqisi2
 3716 371c 0020D4E5 		ldrb	r2, [r4, #0]	@ zero_extendqisi2
 3717 3720 033081E0 		add	r3, r1, r3
 3718 3724 FF3003E2 		and	r3, r3, #255
 3719 3728 0030C5E5 		strb	r3, [r5, #0]
 3720 372c 023083E0 		add	r3, r3, r2
 3721 3730 0030C4E5 		strb	r3, [r4, #0]
 3722 3734 FC051FE5 		ldr	r0, .L263+344
 3723 3738 FEFFFFEB 		bl	uart_transmit
 3724 373c 0510DDE5 		ldrb	r1, [sp, #5]	@ zero_extendqisi2
 3725 3740 0030D5E5 		ldrb	r3, [r5, #0]	@ zero_extendqisi2
 3726 3744 0020D4E5 		ldrb	r2, [r4, #0]	@ zero_extendqisi2
 3727 3748 033081E0 		add	r3, r1, r3
 3728 374c FF3003E2 		and	r3, r3, #255
 3729 3750 0030C5E5 		strb	r3, [r5, #0]
 3730 3754 023083E0 		add	r3, r3, r2
 3731 3758 0030C4E5 		strb	r3, [r4, #0]
 3732 375c 24061FE5 		ldr	r0, .L263+344
 3733 3760 FEFFFFEB 		bl	uart_transmit
 3734 3764 0610DDE5 		ldrb	r1, [sp, #6]	@ zero_extendqisi2
 3735 3768 0030D5E5 		ldrb	r3, [r5, #0]	@ zero_extendqisi2
 3736 376c 0020D4E5 		ldrb	r2, [r4, #0]	@ zero_extendqisi2
 3737 3770 033081E0 		add	r3, r1, r3
 3738 3774 FF3003E2 		and	r3, r3, #255
 3739 3778 0030C5E5 		strb	r3, [r5, #0]
 3740 377c 023083E0 		add	r3, r3, r2
 3741 3780 0030C4E5 		strb	r3, [r4, #0]
 3742 3784 4C061FE5 		ldr	r0, .L263+344
 3743 3788 FEFFFFEB 		bl	uart_transmit
 3744 378c 0710DDE5 		ldrb	r1, [sp, #7]	@ zero_extendqisi2
 3745 3790 0030D5E5 		ldrb	r3, [r5, #0]	@ zero_extendqisi2
 3746 3794 0020D4E5 		ldrb	r2, [r4, #0]	@ zero_extendqisi2
 3747 3798 033081E0 		add	r3, r1, r3
 3748 379c FF3003E2 		and	r3, r3, #255
 3749 37a0 0030C5E5 		strb	r3, [r5, #0]
 3750 37a4 023083E0 		add	r3, r3, r2
 3751 37a8 0030C4E5 		strb	r3, [r4, #0]
 3752 37ac 74061FE5 		ldr	r0, .L263+344
 3753 37b0 FEFFFFEB 		bl	uart_transmit
 3754 37b4 0010DDE5 		ldrb	r1, [sp, #0]	@ zero_extendqisi2
 3755 37b8 0030D5E5 		ldrb	r3, [r5, #0]	@ zero_extendqisi2
 3756 37bc 0020D4E5 		ldrb	r2, [r4, #0]	@ zero_extendqisi2
 3757 37c0 033081E0 		add	r3, r1, r3
 3758 37c4 FF3003E2 		and	r3, r3, #255
 3759 37c8 0030C5E5 		strb	r3, [r5, #0]
 3760 37cc 023083E0 		add	r3, r3, r2
 3761 37d0 0030C4E5 		strb	r3, [r4, #0]
 3762 37d4 9C061FE5 		ldr	r0, .L263+344
 3763 37d8 FEFFFFEB 		bl	uart_transmit
 3764 37dc 0110DDE5 		ldrb	r1, [sp, #1]	@ zero_extendqisi2
 3765 37e0 0030D5E5 		ldrb	r3, [r5, #0]	@ zero_extendqisi2
 3766 37e4 0020D4E5 		ldrb	r2, [r4, #0]	@ zero_extendqisi2
 3767 37e8 033081E0 		add	r3, r1, r3
 3768 37ec FF3003E2 		and	r3, r3, #255
 3769 37f0 0030C5E5 		strb	r3, [r5, #0]
 3770 37f4 023083E0 		add	r3, r3, r2
 3771 37f8 0030C4E5 		strb	r3, [r4, #0]
 3772 37fc C4061FE5 		ldr	r0, .L263+344
 3773 3800 FEFFFFEB 		bl	uart_transmit
 3774 3804 0210DDE5 		ldrb	r1, [sp, #2]	@ zero_extendqisi2
 3775 3808 0030D5E5 		ldrb	r3, [r5, #0]	@ zero_extendqisi2
 3776 380c 0020D4E5 		ldrb	r2, [r4, #0]	@ zero_extendqisi2
 3777 3810 033081E0 		add	r3, r1, r3
 3778 3814 FF3003E2 		and	r3, r3, #255
 3779 3818 0030C5E5 		strb	r3, [r5, #0]
 3780 381c 023083E0 		add	r3, r3, r2
 3781 3820 0030C4E5 		strb	r3, [r4, #0]
 3782 3824 EC061FE5 		ldr	r0, .L263+344
 3783 3828 FEFFFFEB 		bl	uart_transmit
 3784 382c 0310DDE5 		ldrb	r1, [sp, #3]	@ zero_extendqisi2
 3785 3830 0030D5E5 		ldrb	r3, [r5, #0]	@ zero_extendqisi2
 3786 3834 0020D4E5 		ldrb	r2, [r4, #0]	@ zero_extendqisi2
 3787 3838 033081E0 		add	r3, r1, r3
 3788 383c FF3003E2 		and	r3, r3, #255
 3789 3840 0030C5E5 		strb	r3, [r5, #0]
 3790 3844 023083E0 		add	r3, r3, r2
 3791 3848 0030C4E5 		strb	r3, [r4, #0]
 3792 384c 14071FE5 		ldr	r0, .L263+344
 3793 3850 FEFFFFEB 		bl	uart_transmit
 3794 3854 0C10DDE5 		ldrb	r1, [sp, #12]	@ zero_extendqisi2
 3795 3858 0030D5E5 		ldrb	r3, [r5, #0]	@ zero_extendqisi2
 3796 385c 0020D4E5 		ldrb	r2, [r4, #0]	@ zero_extendqisi2
 3797 3860 033081E0 		add	r3, r1, r3
 3798 3864 FF3003E2 		and	r3, r3, #255
 3799 3868 0030C5E5 		strb	r3, [r5, #0]
 3800 386c 023083E0 		add	r3, r3, r2
 3801 3870 0030C4E5 		strb	r3, [r4, #0]
 3802 3874 3C071FE5 		ldr	r0, .L263+344
 3803 3878 FEFFFFEB 		bl	uart_transmit
 3804 387c 0D10DDE5 		ldrb	r1, [sp, #13]	@ zero_extendqisi2
 3805 3880 0030D5E5 		ldrb	r3, [r5, #0]	@ zero_extendqisi2
 3806 3884 0020D4E5 		ldrb	r2, [r4, #0]	@ zero_extendqisi2
 3807 3888 033081E0 		add	r3, r1, r3
 3808 388c FF3003E2 		and	r3, r3, #255
 3809 3890 0030C5E5 		strb	r3, [r5, #0]
 3810 3894 023083E0 		add	r3, r3, r2
 3811 3898 0030C4E5 		strb	r3, [r4, #0]
 3812 389c 64071FE5 		ldr	r0, .L263+344
 3813 38a0 FEFFFFEB 		bl	uart_transmit
 3814 38a4 0810DDE5 		ldrb	r1, [sp, #8]	@ zero_extendqisi2
 3815 38a8 0030D5E5 		ldrb	r3, [r5, #0]	@ zero_extendqisi2
 3816 38ac 0020D4E5 		ldrb	r2, [r4, #0]	@ zero_extendqisi2
 3817 38b0 033081E0 		add	r3, r1, r3
 3818 38b4 FF3003E2 		and	r3, r3, #255
 3819 38b8 0030C5E5 		strb	r3, [r5, #0]
 3820 38bc 023083E0 		add	r3, r3, r2
 3821 38c0 0030C4E5 		strb	r3, [r4, #0]
 3822 38c4 8C071FE5 		ldr	r0, .L263+344
 3823 38c8 FEFFFFEB 		bl	uart_transmit
 3824 38cc 0910DDE5 		ldrb	r1, [sp, #9]	@ zero_extendqisi2
 3825 38d0 0030D5E5 		ldrb	r3, [r5, #0]	@ zero_extendqisi2
 3826 38d4 0020D4E5 		ldrb	r2, [r4, #0]	@ zero_extendqisi2
 3827 38d8 033081E0 		add	r3, r1, r3
 3828 38dc FF3003E2 		and	r3, r3, #255
 3829 38e0 0030C5E5 		strb	r3, [r5, #0]
 3830 38e4 023083E0 		add	r3, r3, r2
 3831 38e8 0030C4E5 		strb	r3, [r4, #0]
 3832 38ec B4071FE5 		ldr	r0, .L263+344
 3833 38f0 FEFFFFEB 		bl	uart_transmit
 3834 38f4 0A10DDE5 		ldrb	r1, [sp, #10]	@ zero_extendqisi2
 3835 38f8 0030D5E5 		ldrb	r3, [r5, #0]	@ zero_extendqisi2
 3836 38fc 0020D4E5 		ldrb	r2, [r4, #0]	@ zero_extendqisi2
 3837 3900 033081E0 		add	r3, r1, r3
 3838 3904 FF3003E2 		and	r3, r3, #255
 3839 3908 0030C5E5 		strb	r3, [r5, #0]
 3840 390c 023083E0 		add	r3, r3, r2
 3841 3910 0030C4E5 		strb	r3, [r4, #0]
 3842 3914 DC071FE5 		ldr	r0, .L263+344
 3843 3918 FEFFFFEB 		bl	uart_transmit
 3844 391c 0B10DDE5 		ldrb	r1, [sp, #11]	@ zero_extendqisi2
 3845 3920 0030D5E5 		ldrb	r3, [r5, #0]	@ zero_extendqisi2
 3846 3924 0020D4E5 		ldrb	r2, [r4, #0]	@ zero_extendqisi2
 3847 3928 033081E0 		add	r3, r1, r3
 3848 392c FF3003E2 		and	r3, r3, #255
 3849 3930 0030C5E5 		strb	r3, [r5, #0]
 3850 3934 023083E0 		add	r3, r3, r2
 3851 3938 0030C4E5 		strb	r3, [r4, #0]
 3852 393c 04081FE5 		ldr	r0, .L263+344
 3853 3940 FEFFFFEB 		bl	uart_transmit
 3854 3944 0010D5E5 		ldrb	r1, [r5, #0]	@ zero_extendqisi2
 3855 3948 10081FE5 		ldr	r0, .L263+344
 3856 394c FEFFFFEB 		bl	uart_transmit
 3857 3950 18081FE5 		ldr	r0, .L263+344
 3858 3954 0010D4E5 		ldrb	r1, [r4, #0]	@ zero_extendqisi2
 3859 3958 FEFFFFEB 		bl	uart_transmit
 3860 395c 030000EA 		b	.L93
 3861              	.L94:
 3862 3960 48381FE5 		ldr	r3, .L263+312
 3863 3964 0020D3E5 		ldrb	r2, [r3, #0]	@ zero_extendqisi2
 3864 3968 012082E2 		add	r2, r2, #1
 3865 396c 0020C3E5 		strb	r2, [r3, #0]
 3866              	.L93:
 3867 3970 98381FE5 		ldr	r3, .L263+248
 3868 3974 B030D3E1 		ldrh	r3, [r3, #0]
 3869 3978 660053E3 		cmp	r3, #102
 3870 397c 4600001A 		bne	.L95
 3871 3980 48081FE5 		ldr	r0, .L263+344
 3872 3984 1710A0E3 		mov	r1, #23
 3873 3988 FEFFFFEB 		bl	uart_check_free_space
 3874 398c 000050E3 		cmp	r0, #0
 3875 3990 0001000A 		beq	.L102
 3876 3994 B8381FE5 		ldr	r3, .L263+252
 3877 3998 B020D3E1 		ldrh	r2, [r3, #0]
 3878 399c 172082E2 		add	r2, r2, #23
 3879 39a0 B020C3E1 		strh	r2, [r3, #0]	@ movhi
 3880 39a4 C0381FE5 		ldr	r3, .L263+260
 3881 39a8 B020D3E1 		ldrh	r2, [r3, #0]
 3882 39ac 012082E2 		add	r2, r2, #1
 3883 39b0 B020C3E1 		strh	r2, [r3, #0]	@ movhi
 3884 39b4 7C081FE5 		ldr	r0, .L263+344
 3885 39b8 9910A0E3 		mov	r1, #153
 3886 39bc FEFFFFEB 		bl	uart_transmit
 3887 39c0 C0581FE5 		ldr	r5, .L263+288
 3888 39c4 8C081FE5 		ldr	r0, .L263+344
 3889 39c8 1710A0E3 		mov	r1, #23
 3890 39cc FEFFFFEB 		bl	uart_transmit
 3891 39d0 CC481FE5 		ldr	r4, .L263+292
 3892 39d4 1930A0E3 		mov	r3, #25
 3893 39d8 0030C5E5 		strb	r3, [r5, #0]
 3894 39dc 3030A0E3 		mov	r3, #48
 3895 39e0 0030C4E5 		strb	r3, [r4, #0]
 3896 39e4 AC081FE5 		ldr	r0, .L263+344
 3897 39e8 0210A0E3 		mov	r1, #2
 3898 39ec FEFFFFEB 		bl	uart_transmit
 3899 39f0 0030D5E5 		ldrb	r3, [r5, #0]	@ zero_extendqisi2
 3900 39f4 0020D4E5 		ldrb	r2, [r4, #0]	@ zero_extendqisi2
 3901 39f8 023083E2 		add	r3, r3, #2
 3902 39fc FF3003E2 		and	r3, r3, #255
 3903 3a00 0030C5E5 		strb	r3, [r5, #0]
 3904 3a04 023083E0 		add	r3, r3, r2
 3905 3a08 0030C4E5 		strb	r3, [r4, #0]
 3906 3a0c D4081FE5 		ldr	r0, .L263+344
 3907 3a10 0210A0E3 		mov	r1, #2
 3908 3a14 FEFFFFEB 		bl	uart_transmit
 3909 3a18 0030D5E5 		ldrb	r3, [r5, #0]	@ zero_extendqisi2
 3910 3a1c 0020D4E5 		ldrb	r2, [r4, #0]	@ zero_extendqisi2
 3911 3a20 103083E2 		add	r3, r3, #16
 3912 3a24 FF3003E2 		and	r3, r3, #255
 3913 3a28 0030C5E5 		strb	r3, [r5, #0]
 3914 3a2c 023083E0 		add	r3, r3, r2
 3915 3a30 0030C4E5 		strb	r3, [r4, #0]
 3916 3a34 FC081FE5 		ldr	r0, .L263+344
 3917 3a38 1010A0E3 		mov	r1, #16
 3918 3a3c FEFFFFEB 		bl	uart_transmit
 3919 3a40 60791FE5 		ldr	r7, .L263+256
 3920 3a44 0060A0E3 		mov	r6, #0
 3921              	.L97:
 3922 3a48 0610D7E7 		ldrb	r1, [r7, r6]	@ zero_extendqisi2
 3923 3a4c 0030D5E5 		ldrb	r3, [r5, #0]	@ zero_extendqisi2
 3924 3a50 0020D4E5 		ldrb	r2, [r4, #0]	@ zero_extendqisi2
 3925 3a54 033081E0 		add	r3, r1, r3
 3926 3a58 FF3003E2 		and	r3, r3, #255
 3927 3a5c 0030C5E5 		strb	r3, [r5, #0]
 3928 3a60 023083E0 		add	r3, r3, r2
 3929 3a64 0030C4E5 		strb	r3, [r4, #0]
 3930 3a68 30091FE5 		ldr	r0, .L263+344
 3931 3a6c 016086E2 		add	r6, r6, #1
 3932 3a70 FEFFFFEB 		bl	uart_transmit
 3933 3a74 100056E3 		cmp	r6, #16
 3934 3a78 F2FFFF1A 		bne	.L97
 3935 3a7c 7C391FE5 		ldr	r3, .L263+288
 3936 3a80 48091FE5 		ldr	r0, .L263+344
 3937 3a84 0010D3E5 		ldrb	r1, [r3, #0]	@ zero_extendqisi2
 3938 3a88 FEFFFFEB 		bl	uart_transmit
 3939 3a8c 88391FE5 		ldr	r3, .L263+292
 3940 3a90 58091FE5 		ldr	r0, .L263+344
 3941 3a94 0010D3E5 		ldrb	r1, [r3, #0]	@ zero_extendqisi2
 3942 3a98 6A0000EA 		b	.L250
 3943              	.L95:
 3944 3a9c 6C0053E3 		cmp	r3, #108
 3945 3aa0 6A00001A 		bne	.L99
 3946 3aa4 6C091FE5 		ldr	r0, .L263+344
 3947 3aa8 0C10A0E3 		mov	r1, #12
 3948 3aac FEFFFFEB 		bl	uart_check_free_space
 3949 3ab0 000050E3 		cmp	r0, #0
 3950 3ab4 B700000A 		beq	.L102
 3951 3ab8 98391FE5 		ldr	r3, .L263+320
 3952 3abc B020D3E1 		ldrh	r2, [r3, #0]
 3953 3ac0 0C2082E2 		add	r2, r2, #12
 3954 3ac4 B020C3E1 		strh	r2, [r3, #0]	@ movhi
 3955 3ac8 E4391FE5 		ldr	r3, .L263+260
 3956 3acc B020D3E1 		ldrh	r2, [r3, #0]
 3957 3ad0 012082E2 		add	r2, r2, #1
 3958 3ad4 B020C3E1 		strh	r2, [r3, #0]	@ movhi
 3959 3ad8 A0091FE5 		ldr	r0, .L263+344
 3960 3adc 9910A0E3 		mov	r1, #153
 3961 3ae0 E0591FE5 		ldr	r5, .L263+288
 3962 3ae4 FEFFFFEB 		bl	uart_transmit
 3963 3ae8 B0091FE5 		ldr	r0, .L263+344
 3964 3aec 0C10A0E3 		mov	r1, #12
 3965 3af0 EC491FE5 		ldr	r4, .L263+292
 3966 3af4 FEFFFFEB 		bl	uart_transmit
 3967 3af8 0E30A0E3 		mov	r3, #14
 3968 3afc 0030C5E5 		strb	r3, [r5, #0]
 3969 3b00 1A30A0E3 		mov	r3, #26
 3970 3b04 0030C4E5 		strb	r3, [r4, #0]
 3971 3b08 D0091FE5 		ldr	r0, .L263+344
 3972 3b0c 0210A0E3 		mov	r1, #2
 3973 3b10 FEFFFFEB 		bl	uart_transmit
 3974 3b14 0030D5E5 		ldrb	r3, [r5, #0]	@ zero_extendqisi2
 3975 3b18 0020D4E5 		ldrb	r2, [r4, #0]	@ zero_extendqisi2
 3976 3b1c 0B3083E2 		add	r3, r3, #11
 3977 3b20 FF3003E2 		and	r3, r3, #255
 3978 3b24 0030C5E5 		strb	r3, [r5, #0]
 3979 3b28 023083E0 		add	r3, r3, r2
 3980 3b2c 0030C4E5 		strb	r3, [r4, #0]
 3981 3b30 F8091FE5 		ldr	r0, .L263+344
 3982 3b34 0B10A0E3 		mov	r1, #11
 3983 3b38 FEFFFFEB 		bl	uart_transmit
 3984 3b3c 543A1FE5 		ldr	r3, .L263+264
 3985 3b40 0010D3E5 		ldrb	r1, [r3, #0]	@ zero_extendqisi2
 3986 3b44 0030D5E5 		ldrb	r3, [r5, #0]	@ zero_extendqisi2
 3987 3b48 0020D4E5 		ldrb	r2, [r4, #0]	@ zero_extendqisi2
 3988 3b4c 033081E0 		add	r3, r1, r3
 3989 3b50 FF3003E2 		and	r3, r3, #255
 3990 3b54 0030C5E5 		strb	r3, [r5, #0]
 3991 3b58 023083E0 		add	r3, r3, r2
 3992 3b5c 0030C4E5 		strb	r3, [r4, #0]
 3993 3b60 280A1FE5 		ldr	r0, .L263+344
 3994 3b64 FEFFFFEB 		bl	uart_transmit
 3995 3b68 7C3A1FE5 		ldr	r3, .L263+268
 3996 3b6c 0010D3E5 		ldrb	r1, [r3, #0]	@ zero_extendqisi2
 3997 3b70 0030D5E5 		ldrb	r3, [r5, #0]	@ zero_extendqisi2
 3998 3b74 0020D4E5 		ldrb	r2, [r4, #0]	@ zero_extendqisi2
 3999 3b78 033081E0 		add	r3, r1, r3
 4000 3b7c FF3003E2 		and	r3, r3, #255
 4001 3b80 0030C5E5 		strb	r3, [r5, #0]
 4002 3b84 023083E0 		add	r3, r3, r2
 4003 3b88 0030C4E5 		strb	r3, [r4, #0]
 4004 3b8c 540A1FE5 		ldr	r0, .L263+344
 4005 3b90 FEFFFFEB 		bl	uart_transmit
 4006 3b94 A43A1FE5 		ldr	r3, .L263+272
 4007 3b98 0010D3E5 		ldrb	r1, [r3, #0]	@ zero_extendqisi2
 4008 3b9c 0030D5E5 		ldrb	r3, [r5, #0]	@ zero_extendqisi2
 4009 3ba0 0020D4E5 		ldrb	r2, [r4, #0]	@ zero_extendqisi2
 4010 3ba4 033081E0 		add	r3, r1, r3
 4011 3ba8 FF3003E2 		and	r3, r3, #255
 4012 3bac 0030C5E5 		strb	r3, [r5, #0]
 4013 3bb0 023083E0 		add	r3, r3, r2
 4014 3bb4 0030C4E5 		strb	r3, [r4, #0]
 4015 3bb8 800A1FE5 		ldr	r0, .L263+344
 4016 3bbc FEFFFFEB 		bl	uart_transmit
 4017 3bc0 CC3A1FE5 		ldr	r3, .L263+276
 4018 3bc4 0010D3E5 		ldrb	r1, [r3, #0]	@ zero_extendqisi2
 4019 3bc8 0030D5E5 		ldrb	r3, [r5, #0]	@ zero_extendqisi2
 4020 3bcc 0020D4E5 		ldrb	r2, [r4, #0]	@ zero_extendqisi2
 4021 3bd0 033081E0 		add	r3, r1, r3
 4022 3bd4 FF3003E2 		and	r3, r3, #255
 4023 3bd8 0030C5E5 		strb	r3, [r5, #0]
 4024 3bdc 023083E0 		add	r3, r3, r2
 4025 3be0 0030C4E5 		strb	r3, [r4, #0]
 4026 3be4 AC0A1FE5 		ldr	r0, .L263+344
 4027 3be8 FEFFFFEB 		bl	uart_transmit
 4028 3bec 0020D4E5 		ldrb	r2, [r4, #0]	@ zero_extendqisi2
 4029 3bf0 0030D5E5 		ldrb	r3, [r5, #0]	@ zero_extendqisi2
 4030 3bf4 033082E0 		add	r3, r2, r3
 4031 3bf8 0030C4E5 		strb	r3, [r4, #0]
 4032 3bfc 0010A0E3 		mov	r1, #0
 4033 3c00 C80A1FE5 		ldr	r0, .L263+344
 4034 3c04 FEFFFFEB 		bl	uart_transmit
 4035 3c08 103B1FE5 		ldr	r3, .L263+280
 4036 3c0c 0010D3E5 		ldrb	r1, [r3, #0]	@ zero_extendqisi2
 4037              	.L258:
 4038 3c10 0030D5E5 		ldrb	r3, [r5, #0]	@ zero_extendqisi2
 4039 3c14 0020D4E5 		ldrb	r2, [r4, #0]	@ zero_extendqisi2
 4040 3c18 033081E0 		add	r3, r1, r3
 4041 3c1c FF3003E2 		and	r3, r3, #255
 4042 3c20 0030C5E5 		strb	r3, [r5, #0]
 4043 3c24 023083E0 		add	r3, r3, r2
 4044 3c28 0030C4E5 		strb	r3, [r4, #0]
 4045 3c2c F40A1FE5 		ldr	r0, .L263+344
 4046 3c30 FEFFFFEB 		bl	uart_transmit
 4047 3c34 FC0A1FE5 		ldr	r0, .L263+344
 4048 3c38 0010D5E5 		ldrb	r1, [r5, #0]	@ zero_extendqisi2
 4049 3c3c FEFFFFEB 		bl	uart_transmit
 4050 3c40 080B1FE5 		ldr	r0, .L263+344
 4051 3c44 0010D4E5 		ldrb	r1, [r4, #0]	@ zero_extendqisi2
 4052              	.L250:
 4053 3c48 FEFFFFEB 		bl	uart_transmit
 4054 3c4c 550000EA 		b	.L98
 4055              	.L99:
 4056 3c50 720053E3 		cmp	r3, #114
 4057 3c54 5300000A 		beq	.L98
 4058 3c58 780053E3 		cmp	r3, #120
 4059 3c5c 5100001A 		bne	.L98
 4060 3c60 643B1FE5 		ldr	r3, .L263+284
 4061 3c64 F661D3E1 		ldrsh	r6, [r3, #22]
 4062 3c68 F421D3E1 		ldrsh	r2, [r3, #20]
 4063 3c6c F831D3E1 		ldrsh	r3, [r3, #24]
 4064 3c70 000052E3 		cmp	r2, #0
 4065 3c74 002062B2 		rsblt	r2, r2, #0
 4066 3c78 000056E3 		cmp	r6, #0
 4067 3c7c 006066B2 		rsblt	r6, r6, #0
 4068 3c80 000053E3 		cmp	r3, #0
 4069 3c84 003063B2 		rsblt	r3, r3, #0
 4070 3c88 026086E0 		add	r6, r6, r2
 4071 3c8c 036086E0 		add	r6, r6, r3
 4072 3c90 0668A0E1 		mov	r6, r6, asl #16
 4073 3c94 2668A0E1 		mov	r6, r6, lsr #16
 4074 3c98 310056E3 		cmp	r6, #49
 4075 3c9c 640B1FE5 		ldr	r0, .L263+344
 4076 3ca0 0910A0E3 		mov	r1, #9
 4077 3ca4 BC60CDE1 		strh	r6, [sp, #12]	@ movhi
 4078 3ca8 0760A093 		movls	r6, #7
 4079 3cac 0360A083 		movhi	r6, #3
 4080 3cb0 FEFFFFEB 		bl	uart_check_free_space
 4081 3cb4 000050E3 		cmp	r0, #0
 4082 3cb8 3600000A 		beq	.L102
 4083 3cbc 9C3B1FE5 		ldr	r3, .L263+320
 4084 3cc0 B020D3E1 		ldrh	r2, [r3, #0]
 4085 3cc4 092082E2 		add	r2, r2, #9
 4086 3cc8 B020C3E1 		strh	r2, [r3, #0]	@ movhi
 4087 3ccc A83B1FE5 		ldr	r3, .L263+324
 4088 3cd0 B020D3E1 		ldrh	r2, [r3, #0]
 4089 3cd4 012082E2 		add	r2, r2, #1
 4090 3cd8 B020C3E1 		strh	r2, [r3, #0]	@ movhi
 4091 3cdc A40B1FE5 		ldr	r0, .L263+344
 4092 3ce0 9910A0E3 		mov	r1, #153
 4093 3ce4 E45B1FE5 		ldr	r5, .L263+288
 4094 3ce8 FEFFFFEB 		bl	uart_transmit
 4095 3cec B40B1FE5 		ldr	r0, .L263+344
 4096 3cf0 0910A0E3 		mov	r1, #9
 4097 3cf4 FEFFFFEB 		bl	uart_transmit
 4098 3cf8 F44B1FE5 		ldr	r4, .L263+292
 4099 3cfc 0B30A0E3 		mov	r3, #11
 4100 3d00 0030C5E5 		strb	r3, [r5, #0]
 4101 3d04 1430A0E3 		mov	r3, #20
 4102 3d08 0030C4E5 		strb	r3, [r4, #0]
 4103 3d0c D40B1FE5 		ldr	r0, .L263+344
 4104 3d10 0210A0E3 		mov	r1, #2
 4105 3d14 FEFFFFEB 		bl	uart_transmit
 4106 3d18 0030D5E5 		ldrb	r3, [r5, #0]	@ zero_extendqisi2
 4107 3d1c 0020D4E5 		ldrb	r2, [r4, #0]	@ zero_extendqisi2
 4108 3d20 183043E2 		sub	r3, r3, #24
 4109 3d24 FF3003E2 		and	r3, r3, #255
 4110 3d28 0030C5E5 		strb	r3, [r5, #0]
 4111 3d2c 023083E0 		add	r3, r3, r2
 4112 3d30 0030C4E5 		strb	r3, [r4, #0]
 4113 3d34 FC0B1FE5 		ldr	r0, .L263+344
 4114 3d38 E810A0E3 		mov	r1, #232
 4115 3d3c FEFFFFEB 		bl	uart_transmit
 4116 3d40 0030D5E5 		ldrb	r3, [r5, #0]	@ zero_extendqisi2
 4117 3d44 0020D4E5 		ldrb	r2, [r4, #0]	@ zero_extendqisi2
 4118 3d48 033086E0 		add	r3, r6, r3
 4119 3d4c FF3003E2 		and	r3, r3, #255
 4120 3d50 0030C5E5 		strb	r3, [r5, #0]
 4121 3d54 023083E0 		add	r3, r3, r2
 4122 3d58 0030C4E5 		strb	r3, [r4, #0]
 4123 3d5c 240C1FE5 		ldr	r0, .L263+344
 4124 3d60 0610A0E1 		mov	r1, r6
 4125 3d64 FEFFFFEB 		bl	uart_transmit
 4126 3d68 0C10DDE5 		ldrb	r1, [sp, #12]	@ zero_extendqisi2
 4127 3d6c 0030D5E5 		ldrb	r3, [r5, #0]	@ zero_extendqisi2
 4128 3d70 0020D4E5 		ldrb	r2, [r4, #0]	@ zero_extendqisi2
 4129 3d74 033081E0 		add	r3, r1, r3
 4130 3d78 FF3003E2 		and	r3, r3, #255
 4131 3d7c 0030C5E5 		strb	r3, [r5, #0]
 4132 3d80 023083E0 		add	r3, r3, r2
 4133 3d84 0030C4E5 		strb	r3, [r4, #0]
 4134 3d88 500C1FE5 		ldr	r0, .L263+344
 4135 3d8c FEFFFFEB 		bl	uart_transmit
 4136 3d90 0D10DDE5 		ldrb	r1, [sp, #13]	@ zero_extendqisi2
 4137 3d94 9DFFFFEA 		b	.L258
 4138              	.L102:
 4139 3d98 803C1FE5 		ldr	r3, .L263+312
 4140 3d9c 0020D3E5 		ldrb	r2, [r3, #0]	@ zero_extendqisi2
 4141 3da0 012082E2 		add	r2, r2, #1
 4142 3da4 0020C3E5 		strb	r2, [r3, #0]
 4143              	.L98:
 4144 3da8 A03C1FE5 		ldr	r3, .L263+296
 4145 3dac B030D3E1 		ldrh	r3, [r3, #0]
 4146 3db0 7E0053E3 		cmp	r3, #126
 4147 3db4 6E00001A 		bne	.L103
 4148 3db8 AC5C1FE5 		ldr	r5, .L263+300
 4149 3dbc 9C4C1FE5 		ldr	r4, .L263+320
 4150 3dc0 B000D5E1 		ldrh	r0, [r5, #0]
 4151 3dc4 B060D4E1 		ldrh	r6, [r4, #0]
 4152 3dc8 060060E0 		rsb	r0, r0, r6
 4153 3dcc FEFFFFEB 		bl	__aeabi_i2d
 4154 3dd0 C02C1FE5 		ldr	r2, .L263+304
 4155 3dd4 C03C1FE5 		ldr	r3, .L263+308
 4156 3dd8 FEFFFFEB 		bl	__aeabi_ddiv
 4157 3ddc FEFFFFEB 		bl	__aeabi_d2uiz
 4158 3de0 B060C5E1 		strh	r6, [r5, #0]	@ movhi
 4159 3de4 BC00CDE1 		strh	r0, [sp, #12]	@ movhi
 4160 3de8 0B10A0E3 		mov	r1, #11
 4161 3dec B40C1FE5 		ldr	r0, .L263+344
 4162 3df0 FEFFFFEB 		bl	uart_check_free_space
 4163 3df4 000050E3 		cmp	r0, #0
 4164 3df8 5900000A 		beq	.L104
 4165 3dfc B030D4E1 		ldrh	r3, [r4, #0]
 4166 3e00 DC6C1FE5 		ldr	r6, .L263+324
 4167 3e04 0B3083E2 		add	r3, r3, #11
 4168 3e08 B030C4E1 		strh	r3, [r4, #0]	@ movhi
 4169 3e0c B030D6E1 		ldrh	r3, [r6, #0]
 4170 3e10 013083E2 		add	r3, r3, #1
 4171 3e14 B030C6E1 		strh	r3, [r6, #0]	@ movhi
 4172 3e18 E00C1FE5 		ldr	r0, .L263+344
 4173 3e1c 9910A0E3 		mov	r1, #153
 4174 3e20 F85C1FE5 		ldr	r5, .L263+328
 4175 3e24 FEFFFFEB 		bl	uart_transmit
 4176 3e28 F00C1FE5 		ldr	r0, .L263+344
 4177 3e2c 0B10A0E3 		mov	r1, #11
 4178 3e30 044D1FE5 		ldr	r4, .L263+332
 4179 3e34 FEFFFFEB 		bl	uart_transmit
 4180 3e38 0D30A0E3 		mov	r3, #13
 4181 3e3c 0030C5E5 		strb	r3, [r5, #0]
 4182 3e40 1830A0E3 		mov	r3, #24
 4183 3e44 0030C4E5 		strb	r3, [r4, #0]
 4184 3e48 100D1FE5 		ldr	r0, .L263+344
 4185 3e4c 0210A0E3 		mov	r1, #2
 4186 3e50 FEFFFFEB 		bl	uart_transmit
 4187 3e54 0030D5E5 		ldrb	r3, [r5, #0]	@ zero_extendqisi2
 4188 3e58 0020D4E5 		ldrb	r2, [r4, #0]	@ zero_extendqisi2
 4189 3e5c 1E3083E2 		add	r3, r3, #30
 4190 3e60 FF3003E2 		and	r3, r3, #255
 4191 3e64 0030C5E5 		strb	r3, [r5, #0]
 4192 3e68 023083E0 		add	r3, r3, r2
 4193 3e6c 0030C4E5 		strb	r3, [r4, #0]
 4194 3e70 380D1FE5 		ldr	r0, .L263+344
 4195 3e74 1E10A0E3 		mov	r1, #30
 4196 3e78 FEFFFFEB 		bl	uart_transmit
 4197 3e7c 643D1FE5 		ldr	r3, .L263+312
 4198 3e80 0010D3E5 		ldrb	r1, [r3, #0]	@ zero_extendqisi2
 4199 3e84 0030D5E5 		ldrb	r3, [r5, #0]	@ zero_extendqisi2
 4200 3e88 0020D4E5 		ldrb	r2, [r4, #0]	@ zero_extendqisi2
 4201 3e8c 033081E0 		add	r3, r1, r3
 4202 3e90 FF3003E2 		and	r3, r3, #255
 4203 3e94 0030C5E5 		strb	r3, [r5, #0]
 4204 3e98 023083E0 		add	r3, r3, r2
 4205 3e9c 0030C4E5 		strb	r3, [r4, #0]
 4206 3ea0 680D1FE5 		ldr	r0, .L263+344
 4207 3ea4 FEFFFFEB 		bl	uart_transmit
 4208 3ea8 0C10DDE5 		ldrb	r1, [sp, #12]	@ zero_extendqisi2
 4209 3eac 0030D5E5 		ldrb	r3, [r5, #0]	@ zero_extendqisi2
 4210 3eb0 0020D4E5 		ldrb	r2, [r4, #0]	@ zero_extendqisi2
 4211 3eb4 033081E0 		add	r3, r1, r3
 4212 3eb8 FF3003E2 		and	r3, r3, #255
 4213 3ebc 0030C5E5 		strb	r3, [r5, #0]
 4214 3ec0 023083E0 		add	r3, r3, r2
 4215 3ec4 0030C4E5 		strb	r3, [r4, #0]
 4216 3ec8 900D1FE5 		ldr	r0, .L263+344
 4217 3ecc FEFFFFEB 		bl	uart_transmit
 4218 3ed0 0D10DDE5 		ldrb	r1, [sp, #13]	@ zero_extendqisi2
 4219 3ed4 0030D5E5 		ldrb	r3, [r5, #0]	@ zero_extendqisi2
 4220 3ed8 0020D4E5 		ldrb	r2, [r4, #0]	@ zero_extendqisi2
 4221 3edc 033081E0 		add	r3, r1, r3
 4222 3ee0 FF3003E2 		and	r3, r3, #255
 4223 3ee4 0030C5E5 		strb	r3, [r5, #0]
 4224 3ee8 023083E0 		add	r3, r3, r2
 4225 3eec 0030C4E5 		strb	r3, [r4, #0]
 4226 3ef0 B80D1FE5 		ldr	r0, .L263+344
 4227 3ef4 FEFFFFEB 		bl	uart_transmit
 4228 3ef8 0010D6E5 		ldrb	r1, [r6, #0]	@ zero_extendqisi2
 4229 3efc 0030D5E5 		ldrb	r3, [r5, #0]	@ zero_extendqisi2
 4230 3f00 0020D4E5 		ldrb	r2, [r4, #0]	@ zero_extendqisi2
 4231 3f04 033081E0 		add	r3, r1, r3
 4232 3f08 FF3003E2 		and	r3, r3, #255
 4233 3f0c 0030C5E5 		strb	r3, [r5, #0]
 4234 3f10 023083E0 		add	r3, r3, r2
 4235 3f14 0030C4E5 		strb	r3, [r4, #0]
 4236 3f18 E00D1FE5 		ldr	r0, .L263+344
 4237 3f1c FEFFFFEB 		bl	uart_transmit
 4238 3f20 0110D6E5 		ldrb	r1, [r6, #1]	@ zero_extendqisi2
 4239 3f24 0030D5E5 		ldrb	r3, [r5, #0]	@ zero_extendqisi2
 4240 3f28 0020D4E5 		ldrb	r2, [r4, #0]	@ zero_extendqisi2
 4241 3f2c 033081E0 		add	r3, r1, r3
 4242 3f30 FF3003E2 		and	r3, r3, #255
 4243 3f34 0030C5E5 		strb	r3, [r5, #0]
 4244 3f38 023083E0 		add	r3, r3, r2
 4245 3f3c 0030C4E5 		strb	r3, [r4, #0]
 4246 3f40 080E1FE5 		ldr	r0, .L263+344
 4247 3f44 FEFFFFEB 		bl	uart_transmit
 4248 3f48 0010D5E5 		ldrb	r1, [r5, #0]	@ zero_extendqisi2
 4249 3f4c 140E1FE5 		ldr	r0, .L263+344
 4250 3f50 FEFFFFEB 		bl	uart_transmit
 4251 3f54 1C0E1FE5 		ldr	r0, .L263+344
 4252 3f58 0010D4E5 		ldrb	r1, [r4, #0]	@ zero_extendqisi2
 4253 3f5c FEFFFFEB 		bl	uart_transmit
 4254 3f60 030000EA 		b	.L103
 4255              	.L104:
 4256 3f64 4C3E1FE5 		ldr	r3, .L263+312
 4257 3f68 0020D3E5 		ldrb	r2, [r3, #0]	@ zero_extendqisi2
 4258 3f6c 012082E2 		add	r2, r2, #1
 4259 3f70 0020C3E5 		strb	r2, [r3, #0]
 4260              	.L103:
 4261 3f74 583E1FE5 		ldr	r3, .L263+316
 4262 3f78 B030D3E1 		ldrh	r3, [r3, #0]
 4263 3f7c 840053E3 		cmp	r3, #132
 4264 3f80 8D00001A 		bne	.L9
 4265 3f84 4C0E1FE5 		ldr	r0, .L263+344
 4266 3f88 0F10A0E3 		mov	r1, #15
 4267 3f8c FEFFFFEB 		bl	uart_check_free_space
 4268 3f90 000050E3 		cmp	r0, #0
 4269 3f94 8400000A 		beq	.L105
 4270 3f98 783E1FE5 		ldr	r3, .L263+320
 4271 3f9c B020D3E1 		ldrh	r2, [r3, #0]
 4272 3fa0 0F2082E2 		add	r2, r2, #15
 4273 3fa4 B020C3E1 		strh	r2, [r3, #0]	@ movhi
 4274 3fa8 843E1FE5 		ldr	r3, .L263+324
 4275 3fac B020D3E1 		ldrh	r2, [r3, #0]
 4276 3fb0 012082E2 		add	r2, r2, #1
 4277 3fb4 B020C3E1 		strh	r2, [r3, #0]	@ movhi
 4278 3fb8 800E1FE5 		ldr	r0, .L263+344
 4279 3fbc 9910A0E3 		mov	r1, #153
 4280 3fc0 985E1FE5 		ldr	r5, .L263+328
 4281 3fc4 FEFFFFEB 		bl	uart_transmit
 4282 3fc8 900E1FE5 		ldr	r0, .L263+344
 4283 3fcc 0F10A0E3 		mov	r1, #15
 4284 3fd0 A44E1FE5 		ldr	r4, .L263+332
 4285 3fd4 FEFFFFEB 		bl	uart_transmit
 4286 3fd8 1130A0E3 		mov	r3, #17
 4287 3fdc 0030C5E5 		strb	r3, [r5, #0]
 4288 3fe0 2030A0E3 		mov	r3, #32
 4289 3fe4 0030C4E5 		strb	r3, [r4, #0]
 4290 3fe8 B00E1FE5 		ldr	r0, .L263+344
 4291 3fec 0210A0E3 		mov	r1, #2
 4292 3ff0 FEFFFFEB 		bl	uart_transmit
 4293 3ff4 0030D5E5 		ldrb	r3, [r5, #0]	@ zero_extendqisi2
 4294 3ff8 0020D4E5 		ldrb	r2, [r4, #0]	@ zero_extendqisi2
 4295 3ffc 093083E2 		add	r3, r3, #9
 4296 4000 FF3003E2 		and	r3, r3, #255
 4297 4004 D46E1FE5 		ldr	r6, .L263+336
 4298 4008 0030C5E5 		strb	r3, [r5, #0]
 4299 400c 023083E0 		add	r3, r3, r2
 4300 4010 0030C4E5 		strb	r3, [r4, #0]
 4301 4014 DC0E1FE5 		ldr	r0, .L263+344
 4302 4018 0910A0E3 		mov	r1, #9
 4303 401c FEFFFFEB 		bl	uart_transmit
 4304 4020 0010D6E5 		ldrb	r1, [r6, #0]	@ zero_extendqisi2
 4305 4024 0030D5E5 		ldrb	r3, [r5, #0]	@ zero_extendqisi2
 4306 4028 0020D4E5 		ldrb	r2, [r4, #0]	@ zero_extendqisi2
 4307 402c 033081E0 		add	r3, r1, r3
 4308 4030 FF3003E2 		and	r3, r3, #255
 4309 4034 0030C5E5 		strb	r3, [r5, #0]
 4310 4038 023083E0 		add	r3, r3, r2
 4311 403c 0030C4E5 		strb	r3, [r4, #0]
 4312 4040 080F1FE5 		ldr	r0, .L263+344
 4313 4044 FEFFFFEB 		bl	uart_transmit
 4314 4048 0110D6E5 		ldrb	r1, [r6, #1]	@ zero_extendqisi2
 4315 404c 0030D5E5 		ldrb	r3, [r5, #0]	@ zero_extendqisi2
 4316 4050 0020D4E5 		ldrb	r2, [r4, #0]	@ zero_extendqisi2
 4317 4054 033081E0 		add	r3, r1, r3
 4318 4058 FF3003E2 		and	r3, r3, #255
 4319 405c 0030C5E5 		strb	r3, [r5, #0]
 4320 4060 023083E0 		add	r3, r3, r2
 4321 4064 0030C4E5 		strb	r3, [r4, #0]
 4322 4068 300F1FE5 		ldr	r0, .L263+344
 4323 406c FEFFFFEB 		bl	uart_transmit
 4324 4070 0210D6E5 		ldrb	r1, [r6, #2]	@ zero_extendqisi2
 4325 4074 0030D5E5 		ldrb	r3, [r5, #0]	@ zero_extendqisi2
 4326 4078 0020D4E5 		ldrb	r2, [r4, #0]	@ zero_extendqisi2
 4327 407c 033081E0 		add	r3, r1, r3
 4328 4080 FF3003E2 		and	r3, r3, #255
 4329 4084 0030C5E5 		strb	r3, [r5, #0]
 4330 4088 023083E0 		add	r3, r3, r2
 4331 408c 0030C4E5 		strb	r3, [r4, #0]
 4332 4090 580F1FE5 		ldr	r0, .L263+344
 4333 4094 FEFFFFEB 		bl	uart_transmit
 4334 4098 0310D6E5 		ldrb	r1, [r6, #3]	@ zero_extendqisi2
 4335 409c 0030D5E5 		ldrb	r3, [r5, #0]	@ zero_extendqisi2
 4336 40a0 0020D4E5 		ldrb	r2, [r4, #0]	@ zero_extendqisi2
 4337 40a4 033081E0 		add	r3, r1, r3
 4338 40a8 FF3003E2 		and	r3, r3, #255
 4339 40ac 786F1FE5 		ldr	r6, .L263+340
 4340 40b0 0030C5E5 		strb	r3, [r5, #0]
 4341 40b4 023083E0 		add	r3, r3, r2
 4342 40b8 0030C4E5 		strb	r3, [r4, #0]
 4343 40bc 840F1FE5 		ldr	r0, .L263+344
 4344 40c0 FEFFFFEB 		bl	uart_transmit
 4345 40c4 0010D6E5 		ldrb	r1, [r6, #0]	@ zero_extendqisi2
 4346 40c8 0030D5E5 		ldrb	r3, [r5, #0]	@ zero_extendqisi2
 4347 40cc 0020D4E5 		ldrb	r2, [r4, #0]	@ zero_extendqisi2
 4348 40d0 033081E0 		add	r3, r1, r3
 4349 40d4 FF3003E2 		and	r3, r3, #255
 4350 40d8 0030C5E5 		strb	r3, [r5, #0]
 4351 40dc 023083E0 		add	r3, r3, r2
 4352 40e0 0030C4E5 		strb	r3, [r4, #0]
 4353 40e4 AC0F1FE5 		ldr	r0, .L263+344
 4354 40e8 FEFFFFEB 		bl	uart_transmit
 4355 40ec 0110D6E5 		ldrb	r1, [r6, #1]	@ zero_extendqisi2
 4356 40f0 0030D5E5 		ldrb	r3, [r5, #0]	@ zero_extendqisi2
 4357 40f4 0020D4E5 		ldrb	r2, [r4, #0]	@ zero_extendqisi2
 4358 40f8 033081E0 		add	r3, r1, r3
 4359 40fc FF3003E2 		and	r3, r3, #255
 4360 4100 0030C5E5 		strb	r3, [r5, #0]
 4361 4104 023083E0 		add	r3, r3, r2
 4362 4108 0030C4E5 		strb	r3, [r4, #0]
 4363 410c D40F1FE5 		ldr	r0, .L263+344
 4364 4110 FEFFFFEB 		bl	uart_transmit
 4365 4114 0210D6E5 		ldrb	r1, [r6, #2]	@ zero_extendqisi2
 4366 4118 0030D5E5 		ldrb	r3, [r5, #0]	@ zero_extendqisi2
 4367 411c 0020D4E5 		ldrb	r2, [r4, #0]	@ zero_extendqisi2
 4368 4120 033081E0 		add	r3, r1, r3
 4369 4124 FF3003E2 		and	r3, r3, #255
 4370 4128 0030C5E5 		strb	r3, [r5, #0]
 4371 412c 023083E0 		add	r3, r3, r2
 4372 4130 0030C4E5 		strb	r3, [r4, #0]
 4373 4134 FC0F1FE5 		ldr	r0, .L263+344
 4374 4138 FEFFFFEB 		bl	uart_transmit
 4375 413c 0310D6E5 		ldrb	r1, [r6, #3]	@ zero_extendqisi2
 4376 4140 0030D5E5 		ldrb	r3, [r5, #0]	@ zero_extendqisi2
 4377 4144 0020D4E5 		ldrb	r2, [r4, #0]	@ zero_extendqisi2
 4378 4148 033081E0 		add	r3, r1, r3
 4379 414c FF3003E2 		and	r3, r3, #255
 4380 4150 0030C5E5 		strb	r3, [r5, #0]
 4381 4154 023083E0 		add	r3, r3, r2
 4382 4158 0030C4E5 		strb	r3, [r4, #0]
 4383 415c 8C0F9FE5 		ldr	r0, .L265+352
 4384 4160 FEFFFFEB 		bl	uart_transmit
 4385 4164 A83E9FE5 		ldr	r3, .L265+132
 4386 4168 0010D3E5 		ldrb	r1, [r3, #0]	@ zero_extendqisi2
 4387 416c 0030D5E5 		ldrb	r3, [r5, #0]	@ zero_extendqisi2
 4388 4170 0020D4E5 		ldrb	r2, [r4, #0]	@ zero_extendqisi2
 4389 4174 033081E0 		add	r3, r1, r3
 4390 4178 FF3003E2 		and	r3, r3, #255
 4391 417c 0030C5E5 		strb	r3, [r5, #0]
 4392 4180 023083E0 		add	r3, r3, r2
 4393 4184 0030C4E5 		strb	r3, [r4, #0]
 4394 4188 600F9FE5 		ldr	r0, .L265+352
 4395 418c FEFFFFEB 		bl	uart_transmit
 4396 4190 0010D5E5 		ldrb	r1, [r5, #0]	@ zero_extendqisi2
 4397 4194 540F9FE5 		ldr	r0, .L265+352
 4398 4198 FEFFFFEB 		bl	uart_transmit
 4399 419c 4C0F9FE5 		ldr	r0, .L265+352
 4400 41a0 0010D4E5 		ldrb	r1, [r4, #0]	@ zero_extendqisi2
 4401 41a4 FEFFFFEB 		bl	uart_transmit
 4402 41a8 030000EA 		b	.L9
 4403              	.L105:
 4404 41ac 003F9FE5 		ldr	r3, .L265+292
 4405 41b0 0020D3E5 		ldrb	r2, [r3, #0]	@ zero_extendqisi2
 4406 41b4 012082E2 		add	r2, r2, #1
 4407 41b8 0020C3E5 		strb	r2, [r3, #0]
 4408              	.L9:
 4409 41bc 583E9FE5 		ldr	r3, .L265+140
 4410 41c0 0030D3E5 		ldrb	r3, [r3, #0]	@ zero_extendqisi2
 4411 41c4 010053E3 		cmp	r3, #1
 4412 41c8 8E0F001A 		bne	.L106
 4413 41cc BC3D9FE5 		ldr	r3, .L265
 4414 41d0 0020D3E5 		ldrb	r2, [r3, #0]	@ zero_extendqisi2
 4415 41d4 012082E2 		add	r2, r2, #1
 4416 41d8 FF2002E2 		and	r2, r2, #255
 4417 41dc 3E0052E3 		cmp	r2, #62
 4418 41e0 0020C3E5 		strb	r2, [r3, #0]
 4419 41e4 0020A083 		movhi	r2, #0
 4420 41e8 0020C385 		strhib	r2, [r3, #0]
 4421 41ec A03D9FE5 		ldr	r3, .L265+4
 4422 41f0 0020D3E5 		ldrb	r2, [r3, #0]	@ zero_extendqisi2
 4423 41f4 012082E2 		add	r2, r2, #1
 4424 41f8 FF2002E2 		and	r2, r2, #255
 4425 41fc 410052E3 		cmp	r2, #65
 4426 4200 0020C3E5 		strb	r2, [r3, #0]
 4427 4204 0020A083 		movhi	r2, #0
 4428 4208 0020C385 		strhib	r2, [r3, #0]
 4429 420c DC3D9FE5 		ldr	r3, .L265+96
 4430 4210 0020D3E5 		ldrb	r2, [r3, #0]	@ zero_extendqisi2
 4431 4214 012082E2 		add	r2, r2, #1
 4432 4218 FF2002E2 		and	r2, r2, #255
 4433 421c 4D0052E3 		cmp	r2, #77
 4434 4220 0020C3E5 		strb	r2, [r3, #0]
 4435 4224 0020A083 		movhi	r2, #0
 4436 4228 0020C385 		strhib	r2, [r3, #0]
 4437 422c C83D9FE5 		ldr	r3, .L265+108
 4438 4230 0020D3E5 		ldrb	r2, [r3, #0]	@ zero_extendqisi2
 4439 4234 012082E2 		add	r2, r2, #1
 4440 4238 FF2002E2 		and	r2, r2, #255
 4441 423c 530052E3 		cmp	r2, #83
 4442 4240 0020C3E5 		strb	r2, [r3, #0]
 4443 4244 0020A083 		movhi	r2, #0
 4444 4248 0020C385 		strhib	r2, [r3, #0]
 4445 424c C43D9FE5 		ldr	r3, .L265+136
 4446 4250 0020D3E5 		ldrb	r2, [r3, #0]	@ zero_extendqisi2
 4447 4254 012082E2 		add	r2, r2, #1
 4448 4258 FF2002E2 		and	r2, r2, #255
 4449 425c 590052E3 		cmp	r2, #89
 4450 4260 0020C3E5 		strb	r2, [r3, #0]
 4451 4264 0020A083 		movhi	r2, #0
 4452 4268 0020C385 		strhib	r2, [r3, #0]
 4453 426c 283E9FE5 		ldr	r3, .L265+268
 4454 4270 0020D3E5 		ldrb	r2, [r3, #0]	@ zero_extendqisi2
 4455 4274 012082E2 		add	r2, r2, #1
 4456 4278 FF2002E2 		and	r2, r2, #255
 4457 427c 7D0052E3 		cmp	r2, #125
 4458 4280 0020C3E5 		strb	r2, [r3, #0]
 4459 4284 0020A083 		movhi	r2, #0
 4460 4288 0020C385 		strhib	r2, [r3, #0]
 4461 428c 243E9FE5 		ldr	r3, .L265+296
 4462 4290 0020D3E5 		ldrb	r2, [r3, #0]	@ zero_extendqisi2
 4463 4294 012082E2 		add	r2, r2, #1
 4464 4298 FF2002E2 		and	r2, r2, #255
 4465 429c B30052E3 		cmp	r2, #179
 4466 42a0 0020C3E5 		strb	r2, [r3, #0]
 4467 42a4 0020A083 		movhi	r2, #0
 4468 42a8 0020C385 		strhib	r2, [r3, #0]
 4469 42ac E43C9FE5 		ldr	r3, .L265+8
 4470 42b0 0020D3E5 		ldrb	r2, [r3, #0]	@ zero_extendqisi2
 4471 42b4 012082E2 		add	r2, r2, #1
 4472 42b8 FF2002E2 		and	r2, r2, #255
 4473 42bc B60052E3 		cmp	r2, #182
 4474 42c0 0020C3E5 		strb	r2, [r3, #0]
 4475 42c4 0020A083 		movhi	r2, #0
 4476 42c8 0020C385 		strhib	r2, [r3, #0]
 4477 42cc C83C9FE5 		ldr	r3, .L265+12
 4478 42d0 0020D3E5 		ldrb	r2, [r3, #0]	@ zero_extendqisi2
 4479 42d4 012082E2 		add	r2, r2, #1
 4480 42d8 FF2002E2 		and	r2, r2, #255
 4481 42dc BF0052E3 		cmp	r2, #191
 4482 42e0 0020C3E5 		strb	r2, [r3, #0]
 4483 42e4 0020A083 		movhi	r2, #0
 4484 42e8 0020C385 		strhib	r2, [r3, #0]
 4485 42ec AC3C9FE5 		ldr	r3, .L265+16
 4486 42f0 0020D3E5 		ldrb	r2, [r3, #0]	@ zero_extendqisi2
 4487 42f4 012082E2 		add	r2, r2, #1
 4488 42f8 FF2002E2 		and	r2, r2, #255
 4489 42fc EF0052E3 		cmp	r2, #239
 4490 4300 0020C3E5 		strb	r2, [r3, #0]
 4491 4304 0020A083 		movhi	r2, #0
 4492 4308 0020C385 		strhib	r2, [r3, #0]
 4493 430c 903C9FE5 		ldr	r3, .L265+20
 4494 4310 0020D3E5 		ldrb	r2, [r3, #0]	@ zero_extendqisi2
 4495 4314 012082E2 		add	r2, r2, #1
 4496 4318 FF2002E2 		and	r2, r2, #255
 4497 431c F20052E3 		cmp	r2, #242
 4498 4320 0020C3E5 		strb	r2, [r3, #0]
 4499 4324 0020A083 		movhi	r2, #0
 4500 4328 0020C385 		strhib	r2, [r3, #0]
 4501 432c 743C9FE5 		ldr	r3, .L265+24
 4502 4330 B020D3E1 		ldrh	r2, [r3, #0]
 4503 4334 012082E2 		add	r2, r2, #1
 4504 4338 0228A0E1 		mov	r2, r2, asl #16
 4505 433c 2228A0E1 		mov	r2, r2, lsr #16
 4506 4340 4B0F52E3 		cmp	r2, #300
 4507 4344 B020C3E1 		strh	r2, [r3, #0]	@ movhi
 4508 4348 0020A023 		movcs	r2, #0
 4509 434c B020C321 		strcsh	r2, [r3, #0]	@ movhi
 4510 4350 543C9FE5 		ldr	r3, .L265+28
 4511 4354 B020D3E1 		ldrh	r2, [r3, #0]
 4512 4358 012082E2 		add	r2, r2, #1
 4513 435c 4C1C9FE5 		ldr	r1, .L265+32
 4514 4360 0228A0E1 		mov	r2, r2, asl #16
 4515 4364 2228A0E1 		mov	r2, r2, lsr #16
 4516 4368 010052E1 		cmp	r2, r1
 4517 436c B020C3E1 		strh	r2, [r3, #0]	@ movhi
 4518 4370 0020A083 		movhi	r2, #0
 4519 4374 B020C381 		strhih	r2, [r3, #0]	@ movhi
 4520 4378 343C9FE5 		ldr	r3, .L265+36
 4521 437c B020D3E1 		ldrh	r2, [r3, #0]
 4522 4380 012082E2 		add	r2, r2, #1
 4523 4384 0228A0E1 		mov	r2, r2, asl #16
 4524 4388 2228A0E1 		mov	r2, r2, lsr #16
 4525 438c 4E0F52E3 		cmp	r2, #312
 4526 4390 B020C3E1 		strh	r2, [r3, #0]	@ movhi
 4527 4394 0020A023 		movcs	r2, #0
 4528 4398 B020C321 		strcsh	r2, [r3, #0]	@ movhi
 4529 439c 143C9FE5 		ldr	r3, .L265+40
 4530 43a0 B020D3E1 		ldrh	r2, [r3, #0]
 4531 43a4 012082E2 		add	r2, r2, #1
 4532 43a8 0228A0E1 		mov	r2, r2, asl #16
 4533 43ac 2228A0E1 		mov	r2, r2, lsr #16
 4534 43b0 870F52E3 		cmp	r2, #540
 4535 43b4 B020C3E1 		strh	r2, [r3, #0]	@ movhi
 4536 43b8 0020A023 		movcs	r2, #0
 4537 43bc B020C321 		strcsh	r2, [r3, #0]	@ movhi
 4538 43c0 F43B9FE5 		ldr	r3, .L265+44
 4539 43c4 B020D3E1 		ldrh	r2, [r3, #0]
 4540 43c8 012082E2 		add	r2, r2, #1
 4541 43cc 0228A0E1 		mov	r2, r2, asl #16
 4542 43d0 E81B9FE5 		ldr	r1, .L265+48
 4543 43d4 2228A0E1 		mov	r2, r2, lsr #16
 4544 43d8 010052E1 		cmp	r2, r1
 4545 43dc B020C3E1 		strh	r2, [r3, #0]	@ movhi
 4546 43e0 0020A083 		movhi	r2, #0
 4547 43e4 B020C381 		strhih	r2, [r3, #0]	@ movhi
 4548 43e8 A03B9FE5 		ldr	r3, .L265
 4549 43ec 0030D3E5 		ldrb	r3, [r3, #0]	@ zero_extendqisi2
 4550 43f0 000053E3 		cmp	r3, #0
 4551 43f4 FA01001A 		bne	.L123
 4552 43f8 484C9FE5 		ldr	r4, .L265+184
 4553 43fc 403094E5 		ldr	r3, [r4, #64]
 4554 4400 480094E5 		ldr	r0, [r4, #72]
 4555 4404 003063E2 		rsb	r3, r3, #0
 4556 4408 BC30CDE1 		strh	r3, [sp, #12]	@ movhi
 4557 440c FEFFFFEB 		bl	__aeabi_i2d
 4558 4410 AC2B9FE5 		ldr	r2, .L265+52
 4559 4414 AC3B9FE5 		ldr	r3, .L265+56
 4560 4418 FEFFFFEB 		bl	__aeabi_dmul
 4561 441c 0020A0E3 		mov	r2, #0
 4562 4420 A43B9FE5 		ldr	r3, .L265+60
 4563 4424 FEFFFFEB 		bl	__aeabi_ddiv
 4564 4428 FEFFFFEB 		bl	__aeabi_d2iz
 4565 442c 2110A0E3 		mov	r1, #33
 4566 4430 BE00CDE1 		strh	r0, [sp, #14]	@ movhi
 4567 4434 B40C9FE5 		ldr	r0, .L265+352
 4568 4438 FEFFFFEB 		bl	uart_check_free_space
 4569 443c 000050E3 		cmp	r0, #0
 4570 4440 3601000A 		beq	.L124
 4571 4444 7C3C9FE5 		ldr	r3, .L265+312
 4572 4448 B020D3E1 		ldrh	r2, [r3, #0]
 4573 444c 212082E2 		add	r2, r2, #33
 4574 4450 B020C3E1 		strh	r2, [r3, #0]	@ movhi
 4575 4454 703C9FE5 		ldr	r3, .L265+316
 4576 4458 B020D3E1 		ldrh	r2, [r3, #0]
 4577 445c 012082E2 		add	r2, r2, #1
 4578 4460 B020C3E1 		strh	r2, [r3, #0]	@ movhi
 4579 4464 840C9FE5 		ldr	r0, .L265+352
 4580 4468 9910A0E3 		mov	r1, #153
 4581 446c 5C6C9FE5 		ldr	r6, .L265+320
 4582 4470 FEFFFFEB 		bl	uart_transmit
 4583 4474 740C9FE5 		ldr	r0, .L265+352
 4584 4478 2110A0E3 		mov	r1, #33
 4585 447c 505C9FE5 		ldr	r5, .L265+324
 4586 4480 FEFFFFEB 		bl	uart_transmit
 4587 4484 2330A0E3 		mov	r3, #35
 4588 4488 0030C6E5 		strb	r3, [r6, #0]
 4589 448c 4430A0E3 		mov	r3, #68
 4590 4490 0030C5E5 		strb	r3, [r5, #0]
 4591 4494 540C9FE5 		ldr	r0, .L265+352
 4592 4498 0210A0E3 		mov	r1, #2
 4593 449c FEFFFFEB 		bl	uart_transmit
 4594 44a0 0030D6E5 		ldrb	r3, [r6, #0]	@ zero_extendqisi2
 4595 44a4 0020D5E5 		ldrb	r2, [r5, #0]	@ zero_extendqisi2
 4596 44a8 083083E2 		add	r3, r3, #8
 4597 44ac FF3003E2 		and	r3, r3, #255
 4598 44b0 0030C6E5 		strb	r3, [r6, #0]
 4599 44b4 023083E0 		add	r3, r3, r2
 4600 44b8 0030C5E5 		strb	r3, [r5, #0]
 4601 44bc 2C0C9FE5 		ldr	r0, .L265+352
 4602 44c0 0810A0E3 		mov	r1, #8
 4603 44c4 FEFFFFEB 		bl	uart_transmit
 4604 44c8 5B10D4E5 		ldrb	r1, [r4, #91]	@ zero_extendqisi2
 4605 44cc 0030D6E5 		ldrb	r3, [r6, #0]	@ zero_extendqisi2
 4606 44d0 0020D5E5 		ldrb	r2, [r5, #0]	@ zero_extendqisi2
 4607 44d4 033081E0 		add	r3, r1, r3
 4608 44d8 FF3003E2 		and	r3, r3, #255
 4609 44dc 0030C6E5 		strb	r3, [r6, #0]
 4610 44e0 023083E0 		add	r3, r3, r2
 4611 44e4 0030C5E5 		strb	r3, [r5, #0]
 4612 44e8 000C9FE5 		ldr	r0, .L265+352
 4613 44ec FEFFFFEB 		bl	uart_transmit
 4614 44f0 1C10D4E5 		ldrb	r1, [r4, #28]	@ zero_extendqisi2
 4615 44f4 0030D6E5 		ldrb	r3, [r6, #0]	@ zero_extendqisi2
 4616 44f8 0020D5E5 		ldrb	r2, [r5, #0]	@ zero_extendqisi2
 4617 44fc 033081E0 		add	r3, r1, r3
 4618 4500 FF3003E2 		and	r3, r3, #255
 4619 4504 0030C6E5 		strb	r3, [r6, #0]
 4620 4508 023083E0 		add	r3, r3, r2
 4621 450c 0030C5E5 		strb	r3, [r5, #0]
 4622 4510 D80B9FE5 		ldr	r0, .L265+352
 4623 4514 FEFFFFEB 		bl	uart_transmit
 4624 4518 1D10D4E5 		ldrb	r1, [r4, #29]	@ zero_extendqisi2
 4625 451c 0030D6E5 		ldrb	r3, [r6, #0]	@ zero_extendqisi2
 4626 4520 0020D5E5 		ldrb	r2, [r5, #0]	@ zero_extendqisi2
 4627 4524 033081E0 		add	r3, r1, r3
 4628 4528 FF3003E2 		and	r3, r3, #255
 4629 452c 0030C6E5 		strb	r3, [r6, #0]
 4630 4530 023083E0 		add	r3, r3, r2
 4631 4534 0030C5E5 		strb	r3, [r5, #0]
 4632 4538 B00B9FE5 		ldr	r0, .L265+352
 4633 453c FEFFFFEB 		bl	uart_transmit
 4634 4540 1E10D4E5 		ldrb	r1, [r4, #30]	@ zero_extendqisi2
 4635 4544 0030D6E5 		ldrb	r3, [r6, #0]	@ zero_extendqisi2
 4636 4548 0020D5E5 		ldrb	r2, [r5, #0]	@ zero_extendqisi2
 4637 454c 033081E0 		add	r3, r1, r3
 4638 4550 FF3003E2 		and	r3, r3, #255
 4639 4554 0030C6E5 		strb	r3, [r6, #0]
 4640 4558 023083E0 		add	r3, r3, r2
 4641 455c 0030C5E5 		strb	r3, [r5, #0]
 4642 4560 880B9FE5 		ldr	r0, .L265+352
 4643 4564 FEFFFFEB 		bl	uart_transmit
 4644 4568 1F10D4E5 		ldrb	r1, [r4, #31]	@ zero_extendqisi2
 4645 456c 0030D6E5 		ldrb	r3, [r6, #0]	@ zero_extendqisi2
 4646 4570 0020D5E5 		ldrb	r2, [r5, #0]	@ zero_extendqisi2
 4647 4574 033081E0 		add	r3, r1, r3
 4648 4578 FF3003E2 		and	r3, r3, #255
 4649 457c 0030C6E5 		strb	r3, [r6, #0]
 4650 4580 023083E0 		add	r3, r3, r2
 4651 4584 0030C5E5 		strb	r3, [r5, #0]
 4652 4588 600B9FE5 		ldr	r0, .L265+352
 4653 458c FEFFFFEB 		bl	uart_transmit
 4654 4590 1810D4E5 		ldrb	r1, [r4, #24]	@ zero_extendqisi2
 4655 4594 0030D6E5 		ldrb	r3, [r6, #0]	@ zero_extendqisi2
 4656 4598 0020D5E5 		ldrb	r2, [r5, #0]	@ zero_extendqisi2
 4657 459c 033081E0 		add	r3, r1, r3
 4658 45a0 FF3003E2 		and	r3, r3, #255
 4659 45a4 0030C6E5 		strb	r3, [r6, #0]
 4660 45a8 023083E0 		add	r3, r3, r2
 4661 45ac 0030C5E5 		strb	r3, [r5, #0]
 4662 45b0 380B9FE5 		ldr	r0, .L265+352
 4663 45b4 FEFFFFEB 		bl	uart_transmit
 4664 45b8 1910D4E5 		ldrb	r1, [r4, #25]	@ zero_extendqisi2
 4665 45bc 0030D6E5 		ldrb	r3, [r6, #0]	@ zero_extendqisi2
 4666 45c0 0020D5E5 		ldrb	r2, [r5, #0]	@ zero_extendqisi2
 4667 45c4 033081E0 		add	r3, r1, r3
 4668 45c8 FF3003E2 		and	r3, r3, #255
 4669 45cc 0030C6E5 		strb	r3, [r6, #0]
 4670 45d0 023083E0 		add	r3, r3, r2
 4671 45d4 0030C5E5 		strb	r3, [r5, #0]
 4672 45d8 100B9FE5 		ldr	r0, .L265+352
 4673 45dc FEFFFFEB 		bl	uart_transmit
 4674 45e0 1A10D4E5 		ldrb	r1, [r4, #26]	@ zero_extendqisi2
 4675 45e4 0030D6E5 		ldrb	r3, [r6, #0]	@ zero_extendqisi2
 4676 45e8 0020D5E5 		ldrb	r2, [r5, #0]	@ zero_extendqisi2
 4677 45ec 033081E0 		add	r3, r1, r3
 4678 45f0 FF3003E2 		and	r3, r3, #255
 4679 45f4 0030C6E5 		strb	r3, [r6, #0]
 4680 45f8 023083E0 		add	r3, r3, r2
 4681 45fc 0030C5E5 		strb	r3, [r5, #0]
 4682 4600 E80A9FE5 		ldr	r0, .L265+352
 4683 4604 FEFFFFEB 		bl	uart_transmit
 4684 4608 1B10D4E5 		ldrb	r1, [r4, #27]	@ zero_extendqisi2
 4685 460c 0030D6E5 		ldrb	r3, [r6, #0]	@ zero_extendqisi2
 4686 4610 0020D5E5 		ldrb	r2, [r5, #0]	@ zero_extendqisi2
 4687 4614 033081E0 		add	r3, r1, r3
 4688 4618 FF3003E2 		and	r3, r3, #255
 4689 461c 0030C6E5 		strb	r3, [r6, #0]
 4690 4620 023083E0 		add	r3, r3, r2
 4691 4624 0030C5E5 		strb	r3, [r5, #0]
 4692 4628 C00A9FE5 		ldr	r0, .L265+352
 4693 462c FEFFFFEB 		bl	uart_transmit
 4694 4630 0E10DDE5 		ldrb	r1, [sp, #14]	@ zero_extendqisi2
 4695 4634 0030D6E5 		ldrb	r3, [r6, #0]	@ zero_extendqisi2
 4696 4638 0020D5E5 		ldrb	r2, [r5, #0]	@ zero_extendqisi2
 4697 463c 033081E0 		add	r3, r1, r3
 4698 4640 FF3003E2 		and	r3, r3, #255
 4699 4644 0030C6E5 		strb	r3, [r6, #0]
 4700 4648 023083E0 		add	r3, r3, r2
 4701 464c 0030C5E5 		strb	r3, [r5, #0]
 4702 4650 980A9FE5 		ldr	r0, .L265+352
 4703 4654 FEFFFFEB 		bl	uart_transmit
 4704 4658 0F10DDE5 		ldrb	r1, [sp, #15]	@ zero_extendqisi2
 4705 465c 0030D6E5 		ldrb	r3, [r6, #0]	@ zero_extendqisi2
 4706 4660 0020D5E5 		ldrb	r2, [r5, #0]	@ zero_extendqisi2
 4707 4664 033081E0 		add	r3, r1, r3
 4708 4668 FF3003E2 		and	r3, r3, #255
 4709 466c 0030C6E5 		strb	r3, [r6, #0]
 4710 4670 023083E0 		add	r3, r3, r2
 4711 4674 0030C5E5 		strb	r3, [r5, #0]
 4712 4678 700A9FE5 		ldr	r0, .L265+352
 4713 467c FEFFFFEB 		bl	uart_transmit
 4714 4680 2810D4E5 		ldrb	r1, [r4, #40]	@ zero_extendqisi2
 4715 4684 0030D6E5 		ldrb	r3, [r6, #0]	@ zero_extendqisi2
 4716 4688 0020D5E5 		ldrb	r2, [r5, #0]	@ zero_extendqisi2
 4717 468c 033081E0 		add	r3, r1, r3
 4718 4690 FF3003E2 		and	r3, r3, #255
 4719 4694 0030C6E5 		strb	r3, [r6, #0]
 4720 4698 023083E0 		add	r3, r3, r2
 4721 469c 0030C5E5 		strb	r3, [r5, #0]
 4722 46a0 480A9FE5 		ldr	r0, .L265+352
 4723 46a4 FEFFFFEB 		bl	uart_transmit
 4724 46a8 2910D4E5 		ldrb	r1, [r4, #41]	@ zero_extendqisi2
 4725 46ac 0030D6E5 		ldrb	r3, [r6, #0]	@ zero_extendqisi2
 4726 46b0 0020D5E5 		ldrb	r2, [r5, #0]	@ zero_extendqisi2
 4727 46b4 033081E0 		add	r3, r1, r3
 4728 46b8 FF3003E2 		and	r3, r3, #255
 4729 46bc 0030C6E5 		strb	r3, [r6, #0]
 4730 46c0 023083E0 		add	r3, r3, r2
 4731 46c4 0030C5E5 		strb	r3, [r5, #0]
 4732 46c8 200A9FE5 		ldr	r0, .L265+352
 4733 46cc FEFFFFEB 		bl	uart_transmit
 4734 46d0 2A10D4E5 		ldrb	r1, [r4, #42]	@ zero_extendqisi2
 4735 46d4 0030D6E5 		ldrb	r3, [r6, #0]	@ zero_extendqisi2
 4736 46d8 0020D5E5 		ldrb	r2, [r5, #0]	@ zero_extendqisi2
 4737 46dc 033081E0 		add	r3, r1, r3
 4738 46e0 FF3003E2 		and	r3, r3, #255
 4739 46e4 0030C6E5 		strb	r3, [r6, #0]
 4740 46e8 023083E0 		add	r3, r3, r2
 4741 46ec 0030C5E5 		strb	r3, [r5, #0]
 4742 46f0 F8099FE5 		ldr	r0, .L265+352
 4743 46f4 FEFFFFEB 		bl	uart_transmit
 4744 46f8 2B10D4E5 		ldrb	r1, [r4, #43]	@ zero_extendqisi2
 4745 46fc 0030D6E5 		ldrb	r3, [r6, #0]	@ zero_extendqisi2
 4746 4700 0020D5E5 		ldrb	r2, [r5, #0]	@ zero_extendqisi2
 4747 4704 033081E0 		add	r3, r1, r3
 4748 4708 FF3003E2 		and	r3, r3, #255
 4749 470c 0030C6E5 		strb	r3, [r6, #0]
 4750 4710 023083E0 		add	r3, r3, r2
 4751 4714 0030C5E5 		strb	r3, [r5, #0]
 4752 4718 D0099FE5 		ldr	r0, .L265+352
 4753 471c FEFFFFEB 		bl	uart_transmit
 4754 4720 4410D4E5 		ldrb	r1, [r4, #68]	@ zero_extendqisi2
 4755 4724 0030D6E5 		ldrb	r3, [r6, #0]	@ zero_extendqisi2
 4756 4728 0020D5E5 		ldrb	r2, [r5, #0]	@ zero_extendqisi2
 4757 472c 033081E0 		add	r3, r1, r3
 4758 4730 FF3003E2 		and	r3, r3, #255
 4759 4734 0030C6E5 		strb	r3, [r6, #0]
 4760 4738 023083E0 		add	r3, r3, r2
 4761 473c 0030C5E5 		strb	r3, [r5, #0]
 4762 4740 A8099FE5 		ldr	r0, .L265+352
 4763 4744 FEFFFFEB 		bl	uart_transmit
 4764 4748 4510D4E5 		ldrb	r1, [r4, #69]	@ zero_extendqisi2
 4765 474c 0030D6E5 		ldrb	r3, [r6, #0]	@ zero_extendqisi2
 4766 4750 0020D5E5 		ldrb	r2, [r5, #0]	@ zero_extendqisi2
 4767 4754 033081E0 		add	r3, r1, r3
 4768 4758 FF3003E2 		and	r3, r3, #255
 4769 475c 0030C6E5 		strb	r3, [r6, #0]
 4770 4760 023083E0 		add	r3, r3, r2
 4771 4764 0030C5E5 		strb	r3, [r5, #0]
 4772 4768 80099FE5 		ldr	r0, .L265+352
 4773 476c FEFFFFEB 		bl	uart_transmit
 4774 4770 0C10DDE5 		ldrb	r1, [sp, #12]	@ zero_extendqisi2
 4775 4774 0030D6E5 		ldrb	r3, [r6, #0]	@ zero_extendqisi2
 4776 4778 0020D5E5 		ldrb	r2, [r5, #0]	@ zero_extendqisi2
 4777 477c 033081E0 		add	r3, r1, r3
 4778 4780 FF3003E2 		and	r3, r3, #255
 4779 4784 0030C6E5 		strb	r3, [r6, #0]
 4780 4788 023083E0 		add	r3, r3, r2
 4781 478c 0030C5E5 		strb	r3, [r5, #0]
 4782 4790 58099FE5 		ldr	r0, .L265+352
 4783 4794 FEFFFFEB 		bl	uart_transmit
 4784 4798 0D10DDE5 		ldrb	r1, [sp, #13]	@ zero_extendqisi2
 4785 479c 0030D6E5 		ldrb	r3, [r6, #0]	@ zero_extendqisi2
 4786 47a0 0020D5E5 		ldrb	r2, [r5, #0]	@ zero_extendqisi2
 4787 47a4 033081E0 		add	r3, r1, r3
 4788 47a8 FF3003E2 		and	r3, r3, #255
 4789 47ac 0030C6E5 		strb	r3, [r6, #0]
 4790 47b0 023083E0 		add	r3, r3, r2
 4791 47b4 0030C5E5 		strb	r3, [r5, #0]
 4792 47b8 30099FE5 		ldr	r0, .L265+352
 4793 47bc FEFFFFEB 		bl	uart_transmit
 4794 47c0 5C10D4E5 		ldrb	r1, [r4, #92]	@ zero_extendqisi2
 4795 47c4 0030D6E5 		ldrb	r3, [r6, #0]	@ zero_extendqisi2
 4796 47c8 0020D5E5 		ldrb	r2, [r5, #0]	@ zero_extendqisi2
 4797 47cc 033081E0 		add	r3, r1, r3
 4798 47d0 FF3003E2 		and	r3, r3, #255
 4799 47d4 0030C6E5 		strb	r3, [r6, #0]
 4800 47d8 023083E0 		add	r3, r3, r2
 4801 47dc 0030C5E5 		strb	r3, [r5, #0]
 4802 47e0 08099FE5 		ldr	r0, .L265+352
 4803 47e4 FEFFFFEB 		bl	uart_transmit
 4804 47e8 5D10D4E5 		ldrb	r1, [r4, #93]	@ zero_extendqisi2
 4805 47ec 0030D6E5 		ldrb	r3, [r6, #0]	@ zero_extendqisi2
 4806 47f0 0020D5E5 		ldrb	r2, [r5, #0]	@ zero_extendqisi2
 4807 47f4 033081E0 		add	r3, r1, r3
 4808 47f8 FF3003E2 		and	r3, r3, #255
 4809 47fc 0030C6E5 		strb	r3, [r6, #0]
 4810 4800 023083E0 		add	r3, r3, r2
 4811 4804 0030C5E5 		strb	r3, [r5, #0]
 4812 4808 E0089FE5 		ldr	r0, .L265+352
 4813 480c FEFFFFEB 		bl	uart_transmit
 4814 4810 6010D4E5 		ldrb	r1, [r4, #96]	@ zero_extendqisi2
 4815 4814 0030D6E5 		ldrb	r3, [r6, #0]	@ zero_extendqisi2
 4816 4818 0020D5E5 		ldrb	r2, [r5, #0]	@ zero_extendqisi2
 4817 481c 033081E0 		add	r3, r1, r3
 4818 4820 FF3003E2 		and	r3, r3, #255
 4819 4824 0030C6E5 		strb	r3, [r6, #0]
 4820 4828 023083E0 		add	r3, r3, r2
 4821 482c 0030C5E5 		strb	r3, [r5, #0]
 4822 4830 B8089FE5 		ldr	r0, .L265+352
 4823 4834 FEFFFFEB 		bl	uart_transmit
 4824 4838 6110D4E5 		ldrb	r1, [r4, #97]	@ zero_extendqisi2
 4825 483c 0030D6E5 		ldrb	r3, [r6, #0]	@ zero_extendqisi2
 4826 4840 0020D5E5 		ldrb	r2, [r5, #0]	@ zero_extendqisi2
 4827 4844 033081E0 		add	r3, r1, r3
 4828 4848 FF3003E2 		and	r3, r3, #255
 4829 484c 0030C6E5 		strb	r3, [r6, #0]
 4830 4850 023083E0 		add	r3, r3, r2
 4831 4854 0030C5E5 		strb	r3, [r5, #0]
 4832 4858 90089FE5 		ldr	r0, .L265+352
 4833 485c FEFFFFEB 		bl	uart_transmit
 4834 4860 6210D4E5 		ldrb	r1, [r4, #98]	@ zero_extendqisi2
 4835 4864 0030D6E5 		ldrb	r3, [r6, #0]	@ zero_extendqisi2
 4836 4868 0020D5E5 		ldrb	r2, [r5, #0]	@ zero_extendqisi2
 4837 486c 033081E0 		add	r3, r1, r3
 4838 4870 FF3003E2 		and	r3, r3, #255
 4839 4874 0030C6E5 		strb	r3, [r6, #0]
 4840 4878 023083E0 		add	r3, r3, r2
 4841 487c 0030C5E5 		strb	r3, [r5, #0]
 4842 4880 68089FE5 		ldr	r0, .L265+352
 4843 4884 FEFFFFEB 		bl	uart_transmit
 4844 4888 6310D4E5 		ldrb	r1, [r4, #99]	@ zero_extendqisi2
 4845 488c 0030D6E5 		ldrb	r3, [r6, #0]	@ zero_extendqisi2
 4846 4890 0020D5E5 		ldrb	r2, [r5, #0]	@ zero_extendqisi2
 4847 4894 033081E0 		add	r3, r1, r3
 4848 4898 FF3003E2 		and	r3, r3, #255
 4849 489c 0030C6E5 		strb	r3, [r6, #0]
 4850 48a0 023083E0 		add	r3, r3, r2
 4851 48a4 0030C5E5 		strb	r3, [r5, #0]
 4852 48a8 40089FE5 		ldr	r0, .L265+352
 4853 48ac FEFFFFEB 		bl	uart_transmit
 4854 48b0 2410D4E5 		ldrb	r1, [r4, #36]	@ zero_extendqisi2
 4855 48b4 0030D6E5 		ldrb	r3, [r6, #0]	@ zero_extendqisi2
 4856 48b8 0020D5E5 		ldrb	r2, [r5, #0]	@ zero_extendqisi2
 4857 48bc 033081E0 		add	r3, r1, r3
 4858 48c0 FF3003E2 		and	r3, r3, #255
 4859 48c4 0030C6E5 		strb	r3, [r6, #0]
 4860 48c8 023083E0 		add	r3, r3, r2
 4861 48cc 0030C5E5 		strb	r3, [r5, #0]
 4862 48d0 18089FE5 		ldr	r0, .L265+352
 4863 48d4 FEFFFFEB 		bl	uart_transmit
 4864 48d8 F0369FE5 		ldr	r3, .L265+64
 4865 48dc 0010D3E5 		ldrb	r1, [r3, #0]	@ zero_extendqisi2
 4866 48e0 0030D6E5 		ldrb	r3, [r6, #0]	@ zero_extendqisi2
 4867 48e4 0020D5E5 		ldrb	r2, [r5, #0]	@ zero_extendqisi2
 4868 48e8 033081E0 		add	r3, r1, r3
 4869 48ec FF3003E2 		and	r3, r3, #255
 4870 48f0 0030C6E5 		strb	r3, [r6, #0]
 4871 48f4 023083E0 		add	r3, r3, r2
 4872 48f8 0030C5E5 		strb	r3, [r5, #0]
 4873 48fc EC079FE5 		ldr	r0, .L265+352
 4874 4900 FEFFFFEB 		bl	uart_transmit
 4875 4904 0010D6E5 		ldrb	r1, [r6, #0]	@ zero_extendqisi2
 4876 4908 E0079FE5 		ldr	r0, .L265+352
 4877 490c FEFFFFEB 		bl	uart_transmit
 4878 4910 D8079FE5 		ldr	r0, .L265+352
 4879 4914 0010D5E5 		ldrb	r1, [r5, #0]	@ zero_extendqisi2
 4880 4918 FEFFFFEB 		bl	uart_transmit
 4881 491c 030000EA 		b	.L125
 4882              	.L124:
 4883 4920 8C379FE5 		ldr	r3, .L265+292
 4884 4924 0020D3E5 		ldrb	r2, [r3, #0]	@ zero_extendqisi2
 4885 4928 012082E2 		add	r2, r2, #1
 4886 492c 0020C3E5 		strb	r2, [r3, #0]
 4887              	.L125:
 4888 4930 10279FE5 		ldr	r2, .L265+184
 4889 4934 5B30D2E5 		ldrb	r3, [r2, #91]	@ zero_extendqisi2
 4890 4938 030053E3 		cmp	r3, #3
 4891 493c 8C369FE5 		ldr	r3, .L265+64
 4892 4940 0400000A 		beq	.L126
 4893 4944 6410D2E5 		ldrb	r1, [r2, #100]	@ zero_extendqisi2
 4894 4948 0000D3E5 		ldrb	r0, [r3, #0]	@ zero_extendqisi2
 4895 494c 010050E1 		cmp	r0, r1
 4896 4950 0010A023 		movcs	r1, #0
 4897 4954 0010C325 		strcsb	r1, [r3, #0]
 4898              	.L126:
 4899 4958 0030D3E5 		ldrb	r3, [r3, #0]	@ zero_extendqisi2
 4900 495c 6420D2E5 		ldrb	r2, [r2, #100]	@ zero_extendqisi2
 4901 4960 820053E1 		cmp	r3, r2, asl #1
 4902 4964 64369FA5 		ldrge	r3, .L265+64
 4903 4968 0010A0A3 		movge	r1, #0
 4904 496c 0010C3A5 		strgeb	r1, [r3, #0]
 4905 4970 58669FE5 		ldr	r6, .L265+64
 4906 4974 0030D6E5 		ldrb	r3, [r6, #0]	@ zero_extendqisi2
 4907 4978 020053E1 		cmp	r3, r2
 4908 497c 9400002A 		bcs	.L128
 4909 4980 C0769FE5 		ldr	r7, .L265+184
 4910 4984 833187E0 		add	r3, r7, r3, asl #3
 4911 4988 6930D3E5 		ldrb	r3, [r3, #105]	@ zero_extendqisi2
 4912 498c 000053E3 		cmp	r3, #0
 4913 4990 8F00000A 		beq	.L128
 4914 4994 54079FE5 		ldr	r0, .L265+352
 4915 4998 0E10A0E3 		mov	r1, #14
 4916 499c FEFFFFEB 		bl	uart_check_free_space
 4917 49a0 000050E3 		cmp	r0, #0
 4918 49a4 8600000A 		beq	.L129
 4919 49a8 18379FE5 		ldr	r3, .L265+312
 4920 49ac B020D3E1 		ldrh	r2, [r3, #0]
 4921 49b0 0E2082E2 		add	r2, r2, #14
 4922 49b4 B020C3E1 		strh	r2, [r3, #0]	@ movhi
 4923 49b8 0C379FE5 		ldr	r3, .L265+316
 4924 49bc B020D3E1 		ldrh	r2, [r3, #0]
 4925 49c0 012082E2 		add	r2, r2, #1
 4926 49c4 B020C3E1 		strh	r2, [r3, #0]	@ movhi
 4927 49c8 20079FE5 		ldr	r0, .L265+352
 4928 49cc 9910A0E3 		mov	r1, #153
 4929 49d0 F8569FE5 		ldr	r5, .L265+320
 4930 49d4 FEFFFFEB 		bl	uart_transmit
 4931 49d8 10079FE5 		ldr	r0, .L265+352
 4932 49dc 0E10A0E3 		mov	r1, #14
 4933 49e0 EC469FE5 		ldr	r4, .L265+324
 4934 49e4 FEFFFFEB 		bl	uart_transmit
 4935 49e8 1030A0E3 		mov	r3, #16
 4936 49ec 0030C5E5 		strb	r3, [r5, #0]
 4937 49f0 1E30A0E3 		mov	r3, #30
 4938 49f4 0030C4E5 		strb	r3, [r4, #0]
 4939 49f8 F0069FE5 		ldr	r0, .L265+352
 4940 49fc 0210A0E3 		mov	r1, #2
 4941 4a00 FEFFFFEB 		bl	uart_transmit
 4942 4a04 0030D5E5 		ldrb	r3, [r5, #0]	@ zero_extendqisi2
 4943 4a08 0020D4E5 		ldrb	r2, [r4, #0]	@ zero_extendqisi2
 4944 4a0c 193083E2 		add	r3, r3, #25
 4945 4a10 FF3003E2 		and	r3, r3, #255
 4946 4a14 0030C5E5 		strb	r3, [r5, #0]
 4947 4a18 023083E0 		add	r3, r3, r2
 4948 4a1c 0030C4E5 		strb	r3, [r4, #0]
 4949 4a20 C8069FE5 		ldr	r0, .L265+352
 4950 4a24 1910A0E3 		mov	r1, #25
 4951 4a28 FEFFFFEB 		bl	uart_transmit
 4952 4a2c 0010D6E5 		ldrb	r1, [r6, #0]	@ zero_extendqisi2
 4953 4a30 0030D5E5 		ldrb	r3, [r5, #0]	@ zero_extendqisi2
 4954 4a34 0020D4E5 		ldrb	r2, [r4, #0]	@ zero_extendqisi2
 4955 4a38 033081E0 		add	r3, r1, r3
 4956 4a3c FF3003E2 		and	r3, r3, #255
 4957 4a40 0030C5E5 		strb	r3, [r5, #0]
 4958 4a44 023083E0 		add	r3, r3, r2
 4959 4a48 0030C4E5 		strb	r3, [r4, #0]
 4960 4a4c 9C069FE5 		ldr	r0, .L265+352
 4961 4a50 FEFFFFEB 		bl	uart_transmit
 4962 4a54 0030D6E5 		ldrb	r3, [r6, #0]	@ zero_extendqisi2
 4963 4a58 833187E0 		add	r3, r7, r3, asl #3
 4964 4a5c 6610D3E5 		ldrb	r1, [r3, #102]	@ zero_extendqisi2
 4965 4a60 0030D5E5 		ldrb	r3, [r5, #0]	@ zero_extendqisi2
 4966 4a64 0020D4E5 		ldrb	r2, [r4, #0]	@ zero_extendqisi2
 4967 4a68 033081E0 		add	r3, r1, r3
 4968 4a6c FF3003E2 		and	r3, r3, #255
 4969 4a70 0030C5E5 		strb	r3, [r5, #0]
 4970 4a74 023083E0 		add	r3, r3, r2
 4971 4a78 0030C4E5 		strb	r3, [r4, #0]
 4972 4a7c 6C069FE5 		ldr	r0, .L265+352
 4973 4a80 FEFFFFEB 		bl	uart_transmit
 4974 4a84 0030D6E5 		ldrb	r3, [r6, #0]	@ zero_extendqisi2
 4975 4a88 833187E0 		add	r3, r7, r3, asl #3
 4976 4a8c 6710D3E5 		ldrb	r1, [r3, #103]	@ zero_extendqisi2
 4977 4a90 0030D5E5 		ldrb	r3, [r5, #0]	@ zero_extendqisi2
 4978 4a94 0020D4E5 		ldrb	r2, [r4, #0]	@ zero_extendqisi2
 4979 4a98 033081E0 		add	r3, r1, r3
 4980 4a9c FF3003E2 		and	r3, r3, #255
 4981 4aa0 0030C5E5 		strb	r3, [r5, #0]
 4982 4aa4 023083E0 		add	r3, r3, r2
 4983 4aa8 0030C4E5 		strb	r3, [r4, #0]
 4984 4aac 3C069FE5 		ldr	r0, .L265+352
 4985 4ab0 FEFFFFEB 		bl	uart_transmit
 4986 4ab4 0030D6E5 		ldrb	r3, [r6, #0]	@ zero_extendqisi2
 4987 4ab8 833187E0 		add	r3, r7, r3, asl #3
 4988 4abc 6810D3E5 		ldrb	r1, [r3, #104]	@ zero_extendqisi2
 4989 4ac0 0030D5E5 		ldrb	r3, [r5, #0]	@ zero_extendqisi2
 4990 4ac4 0020D4E5 		ldrb	r2, [r4, #0]	@ zero_extendqisi2
 4991 4ac8 033081E0 		add	r3, r1, r3
 4992 4acc FF3003E2 		and	r3, r3, #255
 4993 4ad0 0030C5E5 		strb	r3, [r5, #0]
 4994 4ad4 023083E0 		add	r3, r3, r2
 4995 4ad8 0030C4E5 		strb	r3, [r4, #0]
 4996 4adc 0C069FE5 		ldr	r0, .L265+352
 4997 4ae0 FEFFFFEB 		bl	uart_transmit
 4998 4ae4 0030D6E5 		ldrb	r3, [r6, #0]	@ zero_extendqisi2
 4999 4ae8 833187E0 		add	r3, r7, r3, asl #3
 5000 4aec 6910D3E5 		ldrb	r1, [r3, #105]	@ zero_extendqisi2
 5001 4af0 0030D5E5 		ldrb	r3, [r5, #0]	@ zero_extendqisi2
 5002 4af4 0020D4E5 		ldrb	r2, [r4, #0]	@ zero_extendqisi2
 5003 4af8 033081E0 		add	r3, r1, r3
 5004 4afc FF3003E2 		and	r3, r3, #255
 5005 4b00 0030C5E5 		strb	r3, [r5, #0]
 5006 4b04 023083E0 		add	r3, r3, r2
 5007 4b08 0030C4E5 		strb	r3, [r4, #0]
 5008 4b0c DC059FE5 		ldr	r0, .L265+352
 5009 4b10 FEFFFFEB 		bl	uart_transmit
 5010 4b14 0030D6E5 		ldrb	r3, [r6, #0]	@ zero_extendqisi2
 5011 4b18 833187E0 		add	r3, r7, r3, asl #3
 5012 4b1c 6A10D3E5 		ldrb	r1, [r3, #106]	@ zero_extendqisi2
 5013 4b20 0030D5E5 		ldrb	r3, [r5, #0]	@ zero_extendqisi2
 5014 4b24 0020D4E5 		ldrb	r2, [r4, #0]	@ zero_extendqisi2
 5015 4b28 033081E0 		add	r3, r1, r3
 5016 4b2c FF3003E2 		and	r3, r3, #255
 5017 4b30 0030C5E5 		strb	r3, [r5, #0]
 5018 4b34 023083E0 		add	r3, r3, r2
 5019 4b38 0030C4E5 		strb	r3, [r4, #0]
 5020 4b3c AC059FE5 		ldr	r0, .L265+352
 5021 4b40 FEFFFFEB 		bl	uart_transmit
 5022 4b44 0030D6E5 		ldrb	r3, [r6, #0]	@ zero_extendqisi2
 5023 4b48 0C7087E2 		add	r7, r7, #12
 5024 4b4c 0C3083E2 		add	r3, r3, #12
 5025 4b50 8311D7E7 		ldrb	r1, [r7, r3, asl #3]	@ zero_extendqisi2
 5026 4b54 0030D5E5 		ldrb	r3, [r5, #0]	@ zero_extendqisi2
 5027 4b58 0020D4E5 		ldrb	r2, [r4, #0]	@ zero_extendqisi2
 5028 4b5c 033081E0 		add	r3, r1, r3
 5029 4b60 FF3003E2 		and	r3, r3, #255
 5030 4b64 0030C5E5 		strb	r3, [r5, #0]
 5031 4b68 023083E0 		add	r3, r3, r2
 5032 4b6c 0030C4E5 		strb	r3, [r4, #0]
 5033 4b70 78059FE5 		ldr	r0, .L265+352
 5034 4b74 FEFFFFEB 		bl	uart_transmit
 5035 4b78 0030D6E5 		ldrb	r3, [r6, #0]	@ zero_extendqisi2
 5036 4b7c 837187E0 		add	r7, r7, r3, asl #3
 5037 4b80 6110D7E5 		ldrb	r1, [r7, #97]	@ zero_extendqisi2
 5038 4b84 0030D5E5 		ldrb	r3, [r5, #0]	@ zero_extendqisi2
 5039 4b88 0020D4E5 		ldrb	r2, [r4, #0]	@ zero_extendqisi2
 5040 4b8c 033081E0 		add	r3, r1, r3
 5041 4b90 FF3003E2 		and	r3, r3, #255
 5042 4b94 0030C5E5 		strb	r3, [r5, #0]
 5043 4b98 023083E0 		add	r3, r3, r2
 5044 4b9c 0030C4E5 		strb	r3, [r4, #0]
 5045 4ba0 48059FE5 		ldr	r0, .L265+352
 5046 4ba4 FEFFFFEB 		bl	uart_transmit
 5047 4ba8 0010D5E5 		ldrb	r1, [r5, #0]	@ zero_extendqisi2
 5048 4bac 3C059FE5 		ldr	r0, .L265+352
 5049 4bb0 FEFFFFEB 		bl	uart_transmit
 5050 4bb4 34059FE5 		ldr	r0, .L265+352
 5051 4bb8 0010D4E5 		ldrb	r1, [r4, #0]	@ zero_extendqisi2
 5052 4bbc FEFFFFEB 		bl	uart_transmit
 5053 4bc0 030000EA 		b	.L128
 5054              	.L129:
 5055 4bc4 E8349FE5 		ldr	r3, .L265+292
 5056 4bc8 0020D3E5 		ldrb	r2, [r3, #0]	@ zero_extendqisi2
 5057 4bcc 012082E2 		add	r2, r2, #1
 5058 4bd0 0020C3E5 		strb	r2, [r3, #0]
 5059              	.L128:
 5060 4bd4 F4339FE5 		ldr	r3, .L265+64
 5061 4bd8 0020D3E5 		ldrb	r2, [r3, #0]	@ zero_extendqisi2
 5062 4bdc 012082E2 		add	r2, r2, #1
 5063 4be0 0020C3E5 		strb	r2, [r3, #0]
 5064              	.L123:
 5065 4be4 A8339FE5 		ldr	r3, .L265+4
 5066 4be8 0030D3E5 		ldrb	r3, [r3, #0]	@ zero_extendqisi2
 5067 4bec 060053E3 		cmp	r3, #6
 5068 4bf0 4301001A 		bne	.L130
 5069 4bf4 D8339FE5 		ldr	r3, .L265+68
 5070 4bf8 0A10A0E3 		mov	r1, #10
 5071 4bfc 000093E5 		ldr	r0, [r3, #0]
 5072 4c00 FEFFFFEB 		bl	__aeabi_idiv
 5073 4c04 CC339FE5 		ldr	r3, .L265+72
 5074 4c08 BE00CDE1 		strh	r0, [sp, #14]	@ movhi
 5075 4c0c 000093E5 		ldr	r0, [r3, #0]	@ float
 5076 4c10 FEFFFFEB 		bl	__aeabi_f2iz
 5077 4c14 1710A0E3 		mov	r1, #23
 5078 4c18 BC00CDE1 		strh	r0, [sp, #12]	@ movhi
 5079 4c1c CC049FE5 		ldr	r0, .L265+352
 5080 4c20 FEFFFFEB 		bl	uart_check_free_space
 5081 4c24 000050E3 		cmp	r0, #0
 5082 4c28 3101000A 		beq	.L131
 5083 4c2c 94349FE5 		ldr	r3, .L265+312
 5084 4c30 B020D3E1 		ldrh	r2, [r3, #0]
 5085 4c34 172082E2 		add	r2, r2, #23
 5086 4c38 B020C3E1 		strh	r2, [r3, #0]	@ movhi
 5087 4c3c 88349FE5 		ldr	r3, .L265+316
 5088 4c40 B020D3E1 		ldrh	r2, [r3, #0]
 5089 4c44 012082E2 		add	r2, r2, #1
 5090 4c48 B020C3E1 		strh	r2, [r3, #0]	@ movhi
 5091 4c4c 9C049FE5 		ldr	r0, .L265+352
 5092 4c50 9910A0E3 		mov	r1, #153
 5093 4c54 74549FE5 		ldr	r5, .L265+320
 5094 4c58 FEFFFFEB 		bl	uart_transmit
 5095 4c5c 8C049FE5 		ldr	r0, .L265+352
 5096 4c60 1710A0E3 		mov	r1, #23
 5097 4c64 68449FE5 		ldr	r4, .L265+324
 5098 4c68 FEFFFFEB 		bl	uart_transmit
 5099 4c6c 1930A0E3 		mov	r3, #25
 5100 4c70 0030C5E5 		strb	r3, [r5, #0]
 5101 4c74 3030A0E3 		mov	r3, #48
 5102 4c78 0030C4E5 		strb	r3, [r4, #0]
 5103 4c7c 6C049FE5 		ldr	r0, .L265+352
 5104 4c80 0210A0E3 		mov	r1, #2
 5105 4c84 FEFFFFEB 		bl	uart_transmit
 5106 4c88 0030D5E5 		ldrb	r3, [r5, #0]	@ zero_extendqisi2
 5107 4c8c 0020D4E5 		ldrb	r2, [r4, #0]	@ zero_extendqisi2
 5108 4c90 0C3083E2 		add	r3, r3, #12
 5109 4c94 FF3003E2 		and	r3, r3, #255
 5110 4c98 0030C5E5 		strb	r3, [r5, #0]
 5111 4c9c 38639FE5 		ldr	r6, .L265+76
 5112 4ca0 023083E0 		add	r3, r3, r2
 5113 4ca4 0030C4E5 		strb	r3, [r4, #0]
 5114 4ca8 40049FE5 		ldr	r0, .L265+352
 5115 4cac 0C10A0E3 		mov	r1, #12
 5116 4cb0 FEFFFFEB 		bl	uart_transmit
 5117 4cb4 0010D6E5 		ldrb	r1, [r6, #0]	@ zero_extendqisi2
 5118 4cb8 0030D5E5 		ldrb	r3, [r5, #0]	@ zero_extendqisi2
 5119 4cbc 0020D4E5 		ldrb	r2, [r4, #0]	@ zero_extendqisi2
 5120 4cc0 033081E0 		add	r3, r1, r3
 5121 4cc4 FF3003E2 		and	r3, r3, #255
 5122 4cc8 0030C5E5 		strb	r3, [r5, #0]
 5123 4ccc 023083E0 		add	r3, r3, r2
 5124 4cd0 0030C4E5 		strb	r3, [r4, #0]
 5125 4cd4 14049FE5 		ldr	r0, .L265+352
 5126 4cd8 FEFFFFEB 		bl	uart_transmit
 5127 4cdc 0110D6E5 		ldrb	r1, [r6, #1]	@ zero_extendqisi2
 5128 4ce0 0030D5E5 		ldrb	r3, [r5, #0]	@ zero_extendqisi2
 5129 4ce4 0020D4E5 		ldrb	r2, [r4, #0]	@ zero_extendqisi2
 5130 4ce8 033081E0 		add	r3, r1, r3
 5131 4cec FF3003E2 		and	r3, r3, #255
 5132 4cf0 0030C5E5 		strb	r3, [r5, #0]
 5133 4cf4 E4629FE5 		ldr	r6, .L265+80
 5134 4cf8 023083E0 		add	r3, r3, r2
 5135 4cfc 0030C4E5 		strb	r3, [r4, #0]
 5136 4d00 E8039FE5 		ldr	r0, .L265+352
 5137 4d04 FEFFFFEB 		bl	uart_transmit
 5138 4d08 0010D6E5 		ldrb	r1, [r6, #0]	@ zero_extendqisi2
 5139 4d0c 0030D5E5 		ldrb	r3, [r5, #0]	@ zero_extendqisi2
 5140 4d10 0020D4E5 		ldrb	r2, [r4, #0]	@ zero_extendqisi2
 5141 4d14 033081E0 		add	r3, r1, r3
 5142 4d18 FF3003E2 		and	r3, r3, #255
 5143 4d1c 0030C5E5 		strb	r3, [r5, #0]
 5144 4d20 023083E0 		add	r3, r3, r2
 5145 4d24 0030C4E5 		strb	r3, [r4, #0]
 5146 4d28 C0039FE5 		ldr	r0, .L265+352
 5147 4d2c FEFFFFEB 		bl	uart_transmit
 5148 4d30 0110D6E5 		ldrb	r1, [r6, #1]	@ zero_extendqisi2
 5149 4d34 0030D5E5 		ldrb	r3, [r5, #0]	@ zero_extendqisi2
 5150 4d38 0020D4E5 		ldrb	r2, [r4, #0]	@ zero_extendqisi2
 5151 4d3c 033081E0 		add	r3, r1, r3
 5152 4d40 FF3003E2 		and	r3, r3, #255
 5153 4d44 0030C5E5 		strb	r3, [r5, #0]
 5154 4d48 94629FE5 		ldr	r6, .L265+84
 5155 4d4c 023083E0 		add	r3, r3, r2
 5156 4d50 0030C4E5 		strb	r3, [r4, #0]
 5157 4d54 94039FE5 		ldr	r0, .L265+352
 5158 4d58 FEFFFFEB 		bl	uart_transmit
 5159 4d5c 0210D6E5 		ldrb	r1, [r6, #2]	@ zero_extendqisi2
 5160 4d60 0030D5E5 		ldrb	r3, [r5, #0]	@ zero_extendqisi2
 5161 4d64 0020D4E5 		ldrb	r2, [r4, #0]	@ zero_extendqisi2
 5162 4d68 033081E0 		add	r3, r1, r3
 5163 4d6c FF3003E2 		and	r3, r3, #255
 5164 4d70 0030C5E5 		strb	r3, [r5, #0]
 5165 4d74 023083E0 		add	r3, r3, r2
 5166 4d78 0030C4E5 		strb	r3, [r4, #0]
 5167 4d7c 6C039FE5 		ldr	r0, .L265+352
 5168 4d80 FEFFFFEB 		bl	uart_transmit
 5169 4d84 0310D6E5 		ldrb	r1, [r6, #3]	@ zero_extendqisi2
 5170 4d88 0030D5E5 		ldrb	r3, [r5, #0]	@ zero_extendqisi2
 5171 4d8c 0020D4E5 		ldrb	r2, [r4, #0]	@ zero_extendqisi2
 5172 4d90 033081E0 		add	r3, r1, r3
 5173 4d94 FF3003E2 		and	r3, r3, #255
 5174 4d98 0030C5E5 		strb	r3, [r5, #0]
 5175 4d9c 023083E0 		add	r3, r3, r2
 5176 4da0 0030C4E5 		strb	r3, [r4, #0]
 5177 4da4 44039FE5 		ldr	r0, .L265+352
 5178 4da8 FEFFFFEB 		bl	uart_transmit
 5179 4dac 0E10DDE5 		ldrb	r1, [sp, #14]	@ zero_extendqisi2
 5180 4db0 0030D5E5 		ldrb	r3, [r5, #0]	@ zero_extendqisi2
 5181 4db4 0020D4E5 		ldrb	r2, [r4, #0]	@ zero_extendqisi2
 5182 4db8 033081E0 		add	r3, r1, r3
 5183 4dbc FF3003E2 		and	r3, r3, #255
 5184 4dc0 0030C5E5 		strb	r3, [r5, #0]
 5185 4dc4 023083E0 		add	r3, r3, r2
 5186 4dc8 0030C4E5 		strb	r3, [r4, #0]
 5187 4dcc 1C039FE5 		ldr	r0, .L265+352
 5188 4dd0 FEFFFFEB 		bl	uart_transmit
 5189 4dd4 0F10DDE5 		ldrb	r1, [sp, #15]	@ zero_extendqisi2
 5190 4dd8 0030D5E5 		ldrb	r3, [r5, #0]	@ zero_extendqisi2
 5191 4ddc 0020D4E5 		ldrb	r2, [r4, #0]	@ zero_extendqisi2
 5192 4de0 033081E0 		add	r3, r1, r3
 5193 4de4 FF3003E2 		and	r3, r3, #255
 5194 4de8 0030C5E5 		strb	r3, [r5, #0]
 5195 4dec 3C629FE5 		ldr	r6, .L265+160
 5196 4df0 023083E0 		add	r3, r3, r2
 5197 4df4 0030C4E5 		strb	r3, [r4, #0]
 5198 4df8 F0029FE5 		ldr	r0, .L265+352
 5199 4dfc FEFFFFEB 		bl	uart_transmit
 5200 4e00 0010D6E5 		ldrb	r1, [r6, #0]	@ zero_extendqisi2
 5201 4e04 0030D5E5 		ldrb	r3, [r5, #0]	@ zero_extendqisi2
 5202 4e08 0020D4E5 		ldrb	r2, [r4, #0]	@ zero_extendqisi2
 5203 4e0c 033081E0 		add	r3, r1, r3
 5204 4e10 FF3003E2 		and	r3, r3, #255
 5205 4e14 0030C5E5 		strb	r3, [r5, #0]
 5206 4e18 023083E0 		add	r3, r3, r2
 5207 4e1c 0030C4E5 		strb	r3, [r4, #0]
 5208 4e20 C8029FE5 		ldr	r0, .L265+352
 5209 4e24 FEFFFFEB 		bl	uart_transmit
 5210 4e28 0110D6E5 		ldrb	r1, [r6, #1]	@ zero_extendqisi2
 5211 4e2c 0030D5E5 		ldrb	r3, [r5, #0]	@ zero_extendqisi2
 5212 4e30 0020D4E5 		ldrb	r2, [r4, #0]	@ zero_extendqisi2
 5213 4e34 033081E0 		add	r3, r1, r3
 5214 4e38 FF3003E2 		and	r3, r3, #255
 5215 4e3c 0030C5E5 		strb	r3, [r5, #0]
 5216 4e40 023083E0 		add	r3, r3, r2
 5217 4e44 0030C4E5 		strb	r3, [r4, #0]
 5218 4e48 A0029FE5 		ldr	r0, .L265+352
 5219 4e4c FEFFFFEB 		bl	uart_transmit
 5220 4e50 EC319FE5 		ldr	r3, .L265+180
 5221 4e54 0010D3E5 		ldrb	r1, [r3, #0]	@ zero_extendqisi2
 5222 4e58 0030D5E5 		ldrb	r3, [r5, #0]	@ zero_extendqisi2
 5223 4e5c 0020D4E5 		ldrb	r2, [r4, #0]	@ zero_extendqisi2
 5224 4e60 033081E0 		add	r3, r1, r3
 5225 4e64 FF3003E2 		and	r3, r3, #255
 5226 4e68 0030C5E5 		strb	r3, [r5, #0]
 5227 4e6c 74619FE5 		ldr	r6, .L265+88
 5228 4e70 023083E0 		add	r3, r3, r2
 5229 4e74 0030C4E5 		strb	r3, [r4, #0]
 5230 4e78 70029FE5 		ldr	r0, .L265+352
 5231 4e7c FEFFFFEB 		bl	uart_transmit
 5232 4e80 0010D6E5 		ldrb	r1, [r6, #0]	@ zero_extendqisi2
 5233 4e84 0030D5E5 		ldrb	r3, [r5, #0]	@ zero_extendqisi2
 5234 4e88 0020D4E5 		ldrb	r2, [r4, #0]	@ zero_extendqisi2
 5235 4e8c 033081E0 		add	r3, r1, r3
 5236 4e90 FF3003E2 		and	r3, r3, #255
 5237 4e94 0030C5E5 		strb	r3, [r5, #0]
 5238 4e98 023083E0 		add	r3, r3, r2
 5239 4e9c 0030C4E5 		strb	r3, [r4, #0]
 5240 4ea0 48029FE5 		ldr	r0, .L265+352
 5241 4ea4 FEFFFFEB 		bl	uart_transmit
 5242 4ea8 0110D6E5 		ldrb	r1, [r6, #1]	@ zero_extendqisi2
 5243 4eac 0030D5E5 		ldrb	r3, [r5, #0]	@ zero_extendqisi2
 5244 4eb0 0020D4E5 		ldrb	r2, [r4, #0]	@ zero_extendqisi2
 5245 4eb4 033081E0 		add	r3, r1, r3
 5246 4eb8 FF3003E2 		and	r3, r3, #255
 5247 4ebc 0030C5E5 		strb	r3, [r5, #0]
 5248 4ec0 24619FE5 		ldr	r6, .L265+92
 5249 4ec4 023083E0 		add	r3, r3, r2
 5250 4ec8 0030C4E5 		strb	r3, [r4, #0]
 5251 4ecc 1C029FE5 		ldr	r0, .L265+352
 5252 4ed0 FEFFFFEB 		bl	uart_transmit
 5253 4ed4 0010D6E5 		ldrb	r1, [r6, #0]	@ zero_extendqisi2
 5254 4ed8 0030D5E5 		ldrb	r3, [r5, #0]	@ zero_extendqisi2
 5255 4edc 0020D4E5 		ldrb	r2, [r4, #0]	@ zero_extendqisi2
 5256 4ee0 033081E0 		add	r3, r1, r3
 5257 4ee4 FF3003E2 		and	r3, r3, #255
 5258 4ee8 0030C5E5 		strb	r3, [r5, #0]
 5259 4eec 023083E0 		add	r3, r3, r2
 5260 4ef0 0030C4E5 		strb	r3, [r4, #0]
 5261 4ef4 F4019FE5 		ldr	r0, .L265+352
 5262 4ef8 FEFFFFEB 		bl	uart_transmit
 5263 4efc 0110D6E5 		ldrb	r1, [r6, #1]	@ zero_extendqisi2
 5264 4f00 0030D5E5 		ldrb	r3, [r5, #0]	@ zero_extendqisi2
 5265 4f04 0020D4E5 		ldrb	r2, [r4, #0]	@ zero_extendqisi2
 5266 4f08 033081E0 		add	r3, r1, r3
 5267 4f0c FF3003E2 		and	r3, r3, #255
 5268 4f10 0030C5E5 		strb	r3, [r5, #0]
 5269 4f14 023083E0 		add	r3, r3, r2
 5270 4f18 0030C4E5 		strb	r3, [r4, #0]
 5271 4f1c CC019FE5 		ldr	r0, .L265+352
 5272 4f20 FEFFFFEB 		bl	uart_transmit
 5273 4f24 0C10DDE5 		ldrb	r1, [sp, #12]	@ zero_extendqisi2
 5274 4f28 0030D5E5 		ldrb	r3, [r5, #0]	@ zero_extendqisi2
 5275 4f2c 0020D4E5 		ldrb	r2, [r4, #0]	@ zero_extendqisi2
 5276 4f30 033081E0 		add	r3, r1, r3
 5277 4f34 FF3003E2 		and	r3, r3, #255
 5278 4f38 0030C5E5 		strb	r3, [r5, #0]
 5279 4f3c 023083E0 		add	r3, r3, r2
 5280 4f40 0030C4E5 		strb	r3, [r4, #0]
 5281 4f44 A4019FE5 		ldr	r0, .L265+352
 5282 4f48 FEFFFFEB 		bl	uart_transmit
 5283 4f4c 0D10DDE5 		ldrb	r1, [sp, #13]	@ zero_extendqisi2
 5284 4f50 0030D5E5 		ldrb	r3, [r5, #0]	@ zero_extendqisi2
 5285 4f54 0020D4E5 		ldrb	r2, [r4, #0]	@ zero_extendqisi2
 5286 4f58 033081E0 		add	r3, r1, r3
 5287 4f5c FF3003E2 		and	r3, r3, #255
 5288 4f60 0030C5E5 		strb	r3, [r5, #0]
 5289 4f64 023083E0 		add	r3, r3, r2
 5290 4f68 0030C4E5 		strb	r3, [r4, #0]
 5291 4f6c 7C019FE5 		ldr	r0, .L265+352
 5292 4f70 FEFFFFEB 		bl	uart_transmit
 5293 4f74 0010D5E5 		ldrb	r1, [r5, #0]	@ zero_extendqisi2
 5294 4f78 70019FE5 		ldr	r0, .L265+352
 5295 4f7c FEFFFFEB 		bl	uart_transmit
 5296 4f80 68019FE5 		ldr	r0, .L265+352
 5297 4f84 0010D4E5 		ldrb	r1, [r4, #0]	@ zero_extendqisi2
 5298 4f88 FEFFFFEB 		bl	uart_transmit
 5299 4f8c 5C0000EA 		b	.L130
 5300              	.L266:
 5301              		.align	2
 5302              	.L265:
 5303 4f90 00000000 		.word	.LANCHOR25
 5304 4f94 00000000 		.word	.LANCHOR26
 5305 4f98 00000000 		.word	.LANCHOR32
 5306 4f9c 00000000 		.word	.LANCHOR33
 5307 4fa0 00000000 		.word	.LANCHOR34
 5308 4fa4 00000000 		.word	.LANCHOR35
 5309 4fa8 00000000 		.word	.LANCHOR36
 5310 4fac 00000000 		.word	.LANCHOR37
 5311 4fb0 31010000 		.word	305
 5312 4fb4 00000000 		.word	.LANCHOR38
 5313 4fb8 00000000 		.word	.LANCHOR39
 5314 4fbc 00000000 		.word	.LANCHOR40
 5315 4fc0 5D020000 		.word	605
 5316 4fc4 F8C1631A 		.word	442745336
 5317 4fc8 DCA54C40 		.word	1078765020
 5318 4fcc 80842E41 		.word	1093567616
 5319 4fd0 00000000 		.word	.LANCHOR41
 5320 4fd4 00000000 		.word	.LANCHOR17
 5321 4fd8 00000000 		.word	energy
 5322 4fdc 00000000 		.word	v_ctl_throttle_slewed
 5323 4fe0 00000000 		.word	vsupply
 5324 4fe4 00000000 		.word	electrical
 5325 4fe8 00000000 		.word	block_time
 5326 4fec 00000000 		.word	stage_time
 5327 4ff0 00000000 		.word	.LANCHOR27
 5328 4ff4 00000000 		.word	estimator_z
 5329 4ff8 00000000 		.word	estimator_z_dot
 5330 4ffc 00000000 		.word	.LANCHOR28
 5331 5000 00000000 		.word	nb_waypoint
 5332 5004 00000000 		.word	nav_utm_east0
 5333 5008 00000000 		.word	waypoints
 5334 500c 00000000 		.word	nav_utm_north0
 5335 5010 00000000 		.word	.LANCHOR42
 5336 5014 00000000 		.word	nav_utm_zone0
 5337 5018 00000000 		.word	.LANCHOR29
 5338 501c 00000000 		.word	telemetry_mode_Ap
 5339 5020 00000000 		.word	telemetry_mode_Fbw
 5340 5024 00000000 		.word	flight_altitude
 5341 5028 00000000 		.word	nav_course
 5342 502c 00000000 		.word	nav_shift
 5343 5030 00000000 		.word	estimator_flight_time
 5344 5034 00000000 		.word	nav_radius
 5345 5038 00000000 		.word	route_ap_time
 5346 503c 00000000 		.word	.LANCHOR20
 5347 5040 00000000 		.word	.LANCHOR21
 5348 5044 00000000 		.word	.LANCHOR18
 5349 5048 00000000 		.word	gps
 5350 504c 00000000 		.word	h_ctl_pitch_pgain
 5351 5050 00000000 		.word	h_ctl_pitch_dgain
 5352 5054 00000000 		.word	h_ctl_elevator_of_roll
 5353 5058 00000000 		.word	h_ctl_roll_attitude_gain
 5354 505c 00000000 		.word	h_ctl_roll_rate_gain
 5355 5060 00000000 		.word	h_ctl_aileron_of_throttle
 5356 5064 00000000 		.word	h_ctl_roll_slew
 5357 5068 00000000 		.word	h_ctl_course_pgain
 5358 506c 00000000 		.word	h_ctl_course_dgain
 5359 5070 00000000 		.word	h_ctl_course_pre_bank_correction
 5360 5074 00000000 		.word	h_ctl_roll_max_setpoint
 5361 5078 00000000 		.word	v_ctl_altitude_pgain
 5362 507c 00000000 		.word	v_ctl_auto_throttle_cruise_throttle
 5363 5080 00000000 		.word	v_ctl_auto_throttle_pgain
 5364 5084 00000000 		.word	v_ctl_auto_throttle_igain
 5365 5088 00000000 		.word	v_ctl_auto_throttle_dgain
 5366 508c 00000000 		.word	v_ctl_auto_throttle_climb_throttle_increment
 5367 5090 00000000 		.word	v_ctl_auto_throttle_pitch_of_vz_pgain
 5368 5094 00000000 		.word	v_ctl_auto_throttle_pitch_of_vz_dgain
 5369 5098 00000000 		.word	.LANCHOR43
 5370 509c 00000000 		.word	.LANCHOR30
 5371 50a0 00000000 		.word	nav_survey_active
 5372 50a4 00000000 		.word	nav_survey_east
 5373 50a8 00000000 		.word	nav_survey_north
 5374 50ac 00000000 		.word	nav_survey_west
 5375 50b0 00000000 		.word	nav_survey_south
 5376 50b4 00000000 		.word	downlink_nb_ovrn
 5377 50b8 00000000 		.word	.LANCHOR31
 5378 50bc 00000000 		.word	nav_circle_radians
 5379 50c0 182D4454 		.word	1413754136
 5380 50c4 FB211940 		.word	1075388923
 5381 50c8 00000000 		.word	downlink_nb_bytes
 5382 50cc 00000000 		.word	downlink_nb_msgs
 5383 50d0 00000000 		.word	ck_a
 5384 50d4 00000000 		.word	ck_b
 5385 50d8 00000000 		.word	nav_block
 5386 50dc 00000000 		.word	nav_stage
 5387 50e0 00000000 		.word	estimator_x
 5388 50e4 00000000 		.word	estimator_y
 5389 50e8 00000000 		.word	dist2_to_wp
 5390 50ec 00000000 		.word	dist2_to_home
 5391 50f0 00000000 		.word	uart1
 5392              	.L131:
 5393 50f4 48301FE5 		ldr	r3, .L265+292
 5394 50f8 0020D3E5 		ldrb	r2, [r3, #0]	@ zero_extendqisi2
 5395 50fc 012082E2 		add	r2, r2, #1
 5396 5100 0020C3E5 		strb	r2, [r3, #0]
 5397              	.L130:
 5398 5104 1C311FE5 		ldr	r3, .L265+96
 5399 5108 0030D3E5 		ldrb	r3, [r3, #0]	@ zero_extendqisi2
 5400 510c 0C0053E3 		cmp	r3, #12
 5401 5110 8200001A 		bne	.L132
 5402 5114 2C001FE5 		ldr	r0, .L265+352
 5403 5118 0E10A0E3 		mov	r1, #14
 5404 511c FEFFFFEB 		bl	uart_check_free_space
 5405 5120 000050E3 		cmp	r0, #0
 5406 5124 7900000A 		beq	.L133
 5407 5128 68301FE5 		ldr	r3, .L265+312
 5408 512c B020D3E1 		ldrh	r2, [r3, #0]
 5409 5130 0E2082E2 		add	r2, r2, #14
 5410 5134 B020C3E1 		strh	r2, [r3, #0]	@ movhi
 5411 5138 74301FE5 		ldr	r3, .L265+316
 5412 513c B020D3E1 		ldrh	r2, [r3, #0]
 5413 5140 012082E2 		add	r2, r2, #1
 5414 5144 B020C3E1 		strh	r2, [r3, #0]	@ movhi
 5415 5148 60001FE5 		ldr	r0, .L265+352
 5416 514c 9910A0E3 		mov	r1, #153
 5417 5150 88501FE5 		ldr	r5, .L265+320
 5418 5154 FEFFFFEB 		bl	uart_transmit
 5419 5158 70001FE5 		ldr	r0, .L265+352
 5420 515c 0E10A0E3 		mov	r1, #14
 5421 5160 94401FE5 		ldr	r4, .L265+324
 5422 5164 FEFFFFEB 		bl	uart_transmit
 5423 5168 1030A0E3 		mov	r3, #16
 5424 516c 0030C5E5 		strb	r3, [r5, #0]
 5425 5170 1E30A0E3 		mov	r3, #30
 5426 5174 0030C4E5 		strb	r3, [r4, #0]
 5427 5178 90001FE5 		ldr	r0, .L265+352
 5428 517c 0210A0E3 		mov	r1, #2
 5429 5180 FEFFFFEB 		bl	uart_transmit
 5430 5184 0030D5E5 		ldrb	r3, [r5, #0]	@ zero_extendqisi2
 5431 5188 0020D4E5 		ldrb	r2, [r4, #0]	@ zero_extendqisi2
 5432 518c 2A3083E2 		add	r3, r3, #42
 5433 5190 FF3003E2 		and	r3, r3, #255
 5434 5194 A8611FE5 		ldr	r6, .L265+100
 5435 5198 0030C5E5 		strb	r3, [r5, #0]
 5436 519c 023083E0 		add	r3, r3, r2
 5437 51a0 0030C4E5 		strb	r3, [r4, #0]
 5438 51a4 BC001FE5 		ldr	r0, .L265+352
 5439 51a8 2A10A0E3 		mov	r1, #42
 5440 51ac FEFFFFEB 		bl	uart_transmit
 5441 51b0 0010D6E5 		ldrb	r1, [r6, #0]	@ zero_extendqisi2
 5442 51b4 0030D5E5 		ldrb	r3, [r5, #0]	@ zero_extendqisi2
 5443 51b8 0020D4E5 		ldrb	r2, [r4, #0]	@ zero_extendqisi2
 5444 51bc 033081E0 		add	r3, r1, r3
 5445 51c0 FF3003E2 		and	r3, r3, #255
 5446 51c4 0030C5E5 		strb	r3, [r5, #0]
 5447 51c8 023083E0 		add	r3, r3, r2
 5448 51cc 0030C4E5 		strb	r3, [r4, #0]
 5449 51d0 E8001FE5 		ldr	r0, .L265+352
 5450 51d4 FEFFFFEB 		bl	uart_transmit
 5451 51d8 0110D6E5 		ldrb	r1, [r6, #1]	@ zero_extendqisi2
 5452 51dc 0030D5E5 		ldrb	r3, [r5, #0]	@ zero_extendqisi2
 5453 51e0 0020D4E5 		ldrb	r2, [r4, #0]	@ zero_extendqisi2
 5454 51e4 033081E0 		add	r3, r1, r3
 5455 51e8 FF3003E2 		and	r3, r3, #255
 5456 51ec 0030C5E5 		strb	r3, [r5, #0]
 5457 51f0 023083E0 		add	r3, r3, r2
 5458 51f4 0030C4E5 		strb	r3, [r4, #0]
 5459 51f8 10011FE5 		ldr	r0, .L265+352
 5460 51fc FEFFFFEB 		bl	uart_transmit
 5461 5200 0210D6E5 		ldrb	r1, [r6, #2]	@ zero_extendqisi2
 5462 5204 0030D5E5 		ldrb	r3, [r5, #0]	@ zero_extendqisi2
 5463 5208 0020D4E5 		ldrb	r2, [r4, #0]	@ zero_extendqisi2
 5464 520c 033081E0 		add	r3, r1, r3
 5465 5210 FF3003E2 		and	r3, r3, #255
 5466 5214 0030C5E5 		strb	r3, [r5, #0]
 5467 5218 023083E0 		add	r3, r3, r2
 5468 521c 0030C4E5 		strb	r3, [r4, #0]
 5469 5220 38011FE5 		ldr	r0, .L265+352
 5470 5224 FEFFFFEB 		bl	uart_transmit
 5471 5228 0310D6E5 		ldrb	r1, [r6, #3]	@ zero_extendqisi2
 5472 522c 0030D5E5 		ldrb	r3, [r5, #0]	@ zero_extendqisi2
 5473 5230 0020D4E5 		ldrb	r2, [r4, #0]	@ zero_extendqisi2
 5474 5234 033081E0 		add	r3, r1, r3
 5475 5238 FF3003E2 		and	r3, r3, #255
 5476 523c 4C621FE5 		ldr	r6, .L265+104
 5477 5240 0030C5E5 		strb	r3, [r5, #0]
 5478 5244 023083E0 		add	r3, r3, r2
 5479 5248 0030C4E5 		strb	r3, [r4, #0]
 5480 524c 64011FE5 		ldr	r0, .L265+352
 5481 5250 FEFFFFEB 		bl	uart_transmit
 5482 5254 0010D6E5 		ldrb	r1, [r6, #0]	@ zero_extendqisi2
 5483 5258 0030D5E5 		ldrb	r3, [r5, #0]	@ zero_extendqisi2
 5484 525c 0020D4E5 		ldrb	r2, [r4, #0]	@ zero_extendqisi2
 5485 5260 033081E0 		add	r3, r1, r3
 5486 5264 FF3003E2 		and	r3, r3, #255
 5487 5268 0030C5E5 		strb	r3, [r5, #0]
 5488 526c 023083E0 		add	r3, r3, r2
 5489 5270 0030C4E5 		strb	r3, [r4, #0]
 5490 5274 8C011FE5 		ldr	r0, .L265+352
 5491 5278 FEFFFFEB 		bl	uart_transmit
 5492 527c 0110D6E5 		ldrb	r1, [r6, #1]	@ zero_extendqisi2
 5493 5280 0030D5E5 		ldrb	r3, [r5, #0]	@ zero_extendqisi2
 5494 5284 0020D4E5 		ldrb	r2, [r4, #0]	@ zero_extendqisi2
 5495 5288 033081E0 		add	r3, r1, r3
 5496 528c FF3003E2 		and	r3, r3, #255
 5497 5290 0030C5E5 		strb	r3, [r5, #0]
 5498 5294 023083E0 		add	r3, r3, r2
 5499 5298 0030C4E5 		strb	r3, [r4, #0]
 5500 529c B4011FE5 		ldr	r0, .L265+352
 5501 52a0 FEFFFFEB 		bl	uart_transmit
 5502 52a4 0210D6E5 		ldrb	r1, [r6, #2]	@ zero_extendqisi2
 5503 52a8 0030D5E5 		ldrb	r3, [r5, #0]	@ zero_extendqisi2
 5504 52ac 0020D4E5 		ldrb	r2, [r4, #0]	@ zero_extendqisi2
 5505 52b0 033081E0 		add	r3, r1, r3
 5506 52b4 FF3003E2 		and	r3, r3, #255
 5507 52b8 0030C5E5 		strb	r3, [r5, #0]
 5508 52bc 023083E0 		add	r3, r3, r2
 5509 52c0 0030C4E5 		strb	r3, [r4, #0]
 5510 52c4 DC011FE5 		ldr	r0, .L265+352
 5511 52c8 FEFFFFEB 		bl	uart_transmit
 5512 52cc 0310D6E5 		ldrb	r1, [r6, #3]	@ zero_extendqisi2
 5513 52d0 0030D5E5 		ldrb	r3, [r5, #0]	@ zero_extendqisi2
 5514 52d4 0020D4E5 		ldrb	r2, [r4, #0]	@ zero_extendqisi2
 5515 52d8 033081E0 		add	r3, r1, r3
 5516 52dc FF3003E2 		and	r3, r3, #255
 5517 52e0 0030C5E5 		strb	r3, [r5, #0]
 5518 52e4 023083E0 		add	r3, r3, r2
 5519 52e8 0030C4E5 		strb	r3, [r4, #0]
 5520 52ec 04021FE5 		ldr	r0, .L265+352
 5521 52f0 FEFFFFEB 		bl	uart_transmit
 5522 52f4 0010D5E5 		ldrb	r1, [r5, #0]	@ zero_extendqisi2
 5523 52f8 10021FE5 		ldr	r0, .L265+352
 5524 52fc FEFFFFEB 		bl	uart_transmit
 5525 5300 18021FE5 		ldr	r0, .L265+352
 5526 5304 0010D4E5 		ldrb	r1, [r4, #0]	@ zero_extendqisi2
 5527 5308 FEFFFFEB 		bl	uart_transmit
 5528 530c 030000EA 		b	.L132
 5529              	.L133:
 5530 5310 64321FE5 		ldr	r3, .L265+292
 5531 5314 0020D3E5 		ldrb	r2, [r3, #0]	@ zero_extendqisi2
 5532 5318 012082E2 		add	r2, r2, #1
 5533 531c 0020C3E5 		strb	r2, [r3, #0]
 5534              	.L132:
 5535 5320 2C331FE5 		ldr	r3, .L265+108
 5536 5324 0030D3E5 		ldrb	r3, [r3, #0]	@ zero_extendqisi2
 5537 5328 120053E3 		cmp	r3, #18
 5538 532c E100001A 		bne	.L134
 5539 5330 28331FE5 		ldr	r3, .L265+128
 5540 5334 3C131FE5 		ldr	r1, .L265+112
 5541 5338 0020D3E5 		ldrb	r2, [r3, #0]	@ zero_extendqisi2
 5542 533c 0010D1E5 		ldrb	r1, [r1, #0]	@ zero_extendqisi2
 5543 5340 012082E2 		add	r2, r2, #1
 5544 5344 FF2002E2 		and	r2, r2, #255
 5545 5348 020051E1 		cmp	r1, r2
 5546 534c 0020C3E5 		strb	r2, [r3, #0]
 5547 5350 0020A093 		movls	r2, #0
 5548 5354 0020C395 		strlsb	r2, [r3, #0]
 5549 5358 0040D3E5 		ldrb	r4, [r3, #0]	@ zero_extendqisi2
 5550 535c 60331FE5 		ldr	r3, .L265+116
 5551 5360 0C70A0E3 		mov	r7, #12
 5552 5364 000093E5 		ldr	r0, [r3, #0]
 5553 5368 FEFFFFEB 		bl	__aeabi_i2f
 5554 536c 970403E0 		mul	r3, r7, r4
 5555 5370 70631FE5 		ldr	r6, .L265+120
 5556 5374 031096E7 		ldr	r1, [r6, r3]	@ float
 5557 5378 034086E0 		add	r4, r6, r3
 5558 537c FEFFFFEB 		bl	__aeabi_fadd
 5559 5380 7C331FE5 		ldr	r3, .L265+124
 5560 5384 08008DE5 		str	r0, [sp, #8]	@ float
 5561 5388 000093E5 		ldr	r0, [r3, #0]
 5562 538c FEFFFFEB 		bl	__aeabi_i2f
 5563 5390 041094E5 		ldr	r1, [r4, #4]	@ float
 5564 5394 FEFFFFEB 		bl	__aeabi_fadd
 5565 5398 1410A0E3 		mov	r1, #20
 5566 539c 00008DE5 		str	r0, [sp, #0]	@ float
 5567 53a0 B8021FE5 		ldr	r0, .L265+352
 5568 53a4 FEFFFFEB 		bl	uart_check_free_space
 5569 53a8 000050E3 		cmp	r0, #0
 5570 53ac A4831FE5 		ldr	r8, .L265+128
 5571 53b0 BC00000A 		beq	.L136
 5572 53b4 F4321FE5 		ldr	r3, .L265+312
 5573 53b8 B020D3E1 		ldrh	r2, [r3, #0]
 5574 53bc 142082E2 		add	r2, r2, #20
 5575 53c0 B020C3E1 		strh	r2, [r3, #0]	@ movhi
 5576 53c4 00331FE5 		ldr	r3, .L265+316
 5577 53c8 B020D3E1 		ldrh	r2, [r3, #0]
 5578 53cc 012082E2 		add	r2, r2, #1
 5579 53d0 B020C3E1 		strh	r2, [r3, #0]	@ movhi
 5580 53d4 EC021FE5 		ldr	r0, .L265+352
 5581 53d8 9910A0E3 		mov	r1, #153
 5582 53dc 14531FE5 		ldr	r5, .L265+320
 5583 53e0 FEFFFFEB 		bl	uart_transmit
 5584 53e4 FC021FE5 		ldr	r0, .L265+352
 5585 53e8 1410A0E3 		mov	r1, #20
 5586 53ec 20431FE5 		ldr	r4, .L265+324
 5587 53f0 FEFFFFEB 		bl	uart_transmit
 5588 53f4 1630A0E3 		mov	r3, #22
 5589 53f8 0030C5E5 		strb	r3, [r5, #0]
 5590 53fc 2A30A0E3 		mov	r3, #42
 5591 5400 0030C4E5 		strb	r3, [r4, #0]
 5592 5404 1C031FE5 		ldr	r0, .L265+352
 5593 5408 0210A0E3 		mov	r1, #2
 5594 540c FEFFFFEB 		bl	uart_transmit
 5595 5410 0030D5E5 		ldrb	r3, [r5, #0]	@ zero_extendqisi2
 5596 5414 0020D4E5 		ldrb	r2, [r4, #0]	@ zero_extendqisi2
 5597 5418 233083E2 		add	r3, r3, #35
 5598 541c FF3003E2 		and	r3, r3, #255
 5599 5420 0030C5E5 		strb	r3, [r5, #0]
 5600 5424 023083E0 		add	r3, r3, r2
 5601 5428 0030C4E5 		strb	r3, [r4, #0]
 5602 542c 44031FE5 		ldr	r0, .L265+352
 5603 5430 2310A0E3 		mov	r1, #35
 5604 5434 FEFFFFEB 		bl	uart_transmit
 5605 5438 0010D8E5 		ldrb	r1, [r8, #0]	@ zero_extendqisi2
 5606 543c 0030D5E5 		ldrb	r3, [r5, #0]	@ zero_extendqisi2
 5607 5440 0020D4E5 		ldrb	r2, [r4, #0]	@ zero_extendqisi2
 5608 5444 033081E0 		add	r3, r1, r3
 5609 5448 FF3003E2 		and	r3, r3, #255
 5610 544c 0030C5E5 		strb	r3, [r5, #0]
 5611 5450 023083E0 		add	r3, r3, r2
 5612 5454 0030C4E5 		strb	r3, [r4, #0]
 5613 5458 70031FE5 		ldr	r0, .L265+352
 5614 545c FEFFFFEB 		bl	uart_transmit
 5615 5460 0810DDE5 		ldrb	r1, [sp, #8]	@ zero_extendqisi2
 5616 5464 0030D5E5 		ldrb	r3, [r5, #0]	@ zero_extendqisi2
 5617 5468 0020D4E5 		ldrb	r2, [r4, #0]	@ zero_extendqisi2
 5618 546c 033081E0 		add	r3, r1, r3
 5619 5470 FF3003E2 		and	r3, r3, #255
 5620 5474 0030C5E5 		strb	r3, [r5, #0]
 5621 5478 023083E0 		add	r3, r3, r2
 5622 547c 0030C4E5 		strb	r3, [r4, #0]
 5623 5480 98031FE5 		ldr	r0, .L265+352
 5624 5484 FEFFFFEB 		bl	uart_transmit
 5625 5488 0910DDE5 		ldrb	r1, [sp, #9]	@ zero_extendqisi2
 5626 548c 0030D5E5 		ldrb	r3, [r5, #0]	@ zero_extendqisi2
 5627 5490 0020D4E5 		ldrb	r2, [r4, #0]	@ zero_extendqisi2
 5628 5494 033081E0 		add	r3, r1, r3
 5629 5498 FF3003E2 		and	r3, r3, #255
 5630 549c 0030C5E5 		strb	r3, [r5, #0]
 5631 54a0 023083E0 		add	r3, r3, r2
 5632 54a4 0030C4E5 		strb	r3, [r4, #0]
 5633 54a8 C0031FE5 		ldr	r0, .L265+352
 5634 54ac FEFFFFEB 		bl	uart_transmit
 5635 54b0 0A10DDE5 		ldrb	r1, [sp, #10]	@ zero_extendqisi2
 5636 54b4 0030D5E5 		ldrb	r3, [r5, #0]	@ zero_extendqisi2
 5637 54b8 0020D4E5 		ldrb	r2, [r4, #0]	@ zero_extendqisi2
 5638 54bc 033081E0 		add	r3, r1, r3
 5639 54c0 FF3003E2 		and	r3, r3, #255
 5640 54c4 0030C5E5 		strb	r3, [r5, #0]
 5641 54c8 023083E0 		add	r3, r3, r2
 5642 54cc 0030C4E5 		strb	r3, [r4, #0]
 5643 54d0 E8031FE5 		ldr	r0, .L265+352
 5644 54d4 FEFFFFEB 		bl	uart_transmit
 5645 54d8 0B10DDE5 		ldrb	r1, [sp, #11]	@ zero_extendqisi2
 5646 54dc 0030D5E5 		ldrb	r3, [r5, #0]	@ zero_extendqisi2
 5647 54e0 0020D4E5 		ldrb	r2, [r4, #0]	@ zero_extendqisi2
 5648 54e4 033081E0 		add	r3, r1, r3
 5649 54e8 FF3003E2 		and	r3, r3, #255
 5650 54ec 0030C5E5 		strb	r3, [r5, #0]
 5651 54f0 023083E0 		add	r3, r3, r2
 5652 54f4 0030C4E5 		strb	r3, [r4, #0]
 5653 54f8 10041FE5 		ldr	r0, .L265+352
 5654 54fc FEFFFFEB 		bl	uart_transmit
 5655 5500 0010DDE5 		ldrb	r1, [sp, #0]	@ zero_extendqisi2
 5656 5504 0030D5E5 		ldrb	r3, [r5, #0]	@ zero_extendqisi2
 5657 5508 0020D4E5 		ldrb	r2, [r4, #0]	@ zero_extendqisi2
 5658 550c 033081E0 		add	r3, r1, r3
 5659 5510 FF3003E2 		and	r3, r3, #255
 5660 5514 0030C5E5 		strb	r3, [r5, #0]
 5661 5518 023083E0 		add	r3, r3, r2
 5662 551c 0030C4E5 		strb	r3, [r4, #0]
 5663 5520 38041FE5 		ldr	r0, .L265+352
 5664 5524 FEFFFFEB 		bl	uart_transmit
 5665 5528 0110DDE5 		ldrb	r1, [sp, #1]	@ zero_extendqisi2
 5666 552c 0030D5E5 		ldrb	r3, [r5, #0]	@ zero_extendqisi2
 5667 5530 0020D4E5 		ldrb	r2, [r4, #0]	@ zero_extendqisi2
 5668 5534 033081E0 		add	r3, r1, r3
 5669 5538 FF3003E2 		and	r3, r3, #255
 5670 553c 0030C5E5 		strb	r3, [r5, #0]
 5671 5540 023083E0 		add	r3, r3, r2
 5672 5544 0030C4E5 		strb	r3, [r4, #0]
 5673 5548 60041FE5 		ldr	r0, .L265+352
 5674 554c FEFFFFEB 		bl	uart_transmit
 5675 5550 0210DDE5 		ldrb	r1, [sp, #2]	@ zero_extendqisi2
 5676 5554 0030D5E5 		ldrb	r3, [r5, #0]	@ zero_extendqisi2
 5677 5558 0020D4E5 		ldrb	r2, [r4, #0]	@ zero_extendqisi2
 5678 555c 033081E0 		add	r3, r1, r3
 5679 5560 FF3003E2 		and	r3, r3, #255
 5680 5564 0030C5E5 		strb	r3, [r5, #0]
 5681 5568 023083E0 		add	r3, r3, r2
 5682 556c 0030C4E5 		strb	r3, [r4, #0]
 5683 5570 88041FE5 		ldr	r0, .L265+352
 5684 5574 FEFFFFEB 		bl	uart_transmit
 5685 5578 0310DDE5 		ldrb	r1, [sp, #3]	@ zero_extendqisi2
 5686 557c 0030D5E5 		ldrb	r3, [r5, #0]	@ zero_extendqisi2
 5687 5580 0020D4E5 		ldrb	r2, [r4, #0]	@ zero_extendqisi2
 5688 5584 033081E0 		add	r3, r1, r3
 5689 5588 FF3003E2 		and	r3, r3, #255
 5690 558c 0030C5E5 		strb	r3, [r5, #0]
 5691 5590 023083E0 		add	r3, r3, r2
 5692 5594 0030C4E5 		strb	r3, [r4, #0]
 5693 5598 B0041FE5 		ldr	r0, .L265+352
 5694 559c FEFFFFEB 		bl	uart_transmit
 5695 55a0 0030D8E5 		ldrb	r3, [r8, #0]	@ zero_extendqisi2
 5696 55a4 976323E0 		mla	r3, r7, r3, r6
 5697 55a8 0810D3E5 		ldrb	r1, [r3, #8]	@ zero_extendqisi2
 5698 55ac 0030D5E5 		ldrb	r3, [r5, #0]	@ zero_extendqisi2
 5699 55b0 0020D4E5 		ldrb	r2, [r4, #0]	@ zero_extendqisi2
 5700 55b4 033081E0 		add	r3, r1, r3
 5701 55b8 FF3003E2 		and	r3, r3, #255
 5702 55bc 0030C5E5 		strb	r3, [r5, #0]
 5703 55c0 023083E0 		add	r3, r3, r2
 5704 55c4 0030C4E5 		strb	r3, [r4, #0]
 5705 55c8 E0041FE5 		ldr	r0, .L265+352
 5706 55cc FEFFFFEB 		bl	uart_transmit
 5707 55d0 0030D8E5 		ldrb	r3, [r8, #0]	@ zero_extendqisi2
 5708 55d4 976323E0 		mla	r3, r7, r3, r6
 5709 55d8 0910D3E5 		ldrb	r1, [r3, #9]	@ zero_extendqisi2
 5710 55dc 0030D5E5 		ldrb	r3, [r5, #0]	@ zero_extendqisi2
 5711 55e0 0020D4E5 		ldrb	r2, [r4, #0]	@ zero_extendqisi2
 5712 55e4 033081E0 		add	r3, r1, r3
 5713 55e8 FF3003E2 		and	r3, r3, #255
 5714 55ec 0030C5E5 		strb	r3, [r5, #0]
 5715 55f0 023083E0 		add	r3, r3, r2
 5716 55f4 0030C4E5 		strb	r3, [r4, #0]
 5717 55f8 10051FE5 		ldr	r0, .L265+352
 5718 55fc FEFFFFEB 		bl	uart_transmit
 5719 5600 0030D8E5 		ldrb	r3, [r8, #0]	@ zero_extendqisi2
 5720 5604 976323E0 		mla	r3, r7, r3, r6
 5721 5608 0A10D3E5 		ldrb	r1, [r3, #10]	@ zero_extendqisi2
 5722 560c 0030D5E5 		ldrb	r3, [r5, #0]	@ zero_extendqisi2
 5723 5610 0020D4E5 		ldrb	r2, [r4, #0]	@ zero_extendqisi2
 5724 5614 033081E0 		add	r3, r1, r3
 5725 5618 FF3003E2 		and	r3, r3, #255
 5726 561c 0030C5E5 		strb	r3, [r5, #0]
 5727 5620 023083E0 		add	r3, r3, r2
 5728 5624 0030C4E5 		strb	r3, [r4, #0]
 5729 5628 40051FE5 		ldr	r0, .L265+352
 5730 562c FEFFFFEB 		bl	uart_transmit
 5731 5630 0030D8E5 		ldrb	r3, [r8, #0]	@ zero_extendqisi2
 5732 5634 976326E0 		mla	r6, r7, r3, r6
 5733 5638 0030D5E5 		ldrb	r3, [r5, #0]	@ zero_extendqisi2
 5734 563c 0B10D6E5 		ldrb	r1, [r6, #11]	@ zero_extendqisi2
 5735 5640 0020D4E5 		ldrb	r2, [r4, #0]	@ zero_extendqisi2
 5736 5644 033081E0 		add	r3, r1, r3
 5737 5648 FF3003E2 		and	r3, r3, #255
 5738 564c 0030C5E5 		strb	r3, [r5, #0]
 5739 5650 023083E0 		add	r3, r3, r2
 5740 5654 0030C4E5 		strb	r3, [r4, #0]
 5741 5658 70051FE5 		ldr	r0, .L265+352
 5742 565c FEFFFFEB 		bl	uart_transmit
 5743 5660 54361FE5 		ldr	r3, .L265+132
 5744 5664 0010D3E5 		ldrb	r1, [r3, #0]	@ zero_extendqisi2
 5745 5668 0030D5E5 		ldrb	r3, [r5, #0]	@ zero_extendqisi2
 5746 566c 0020D4E5 		ldrb	r2, [r4, #0]	@ zero_extendqisi2
 5747 5670 033081E0 		add	r3, r1, r3
 5748 5674 FF3003E2 		and	r3, r3, #255
 5749 5678 0030C5E5 		strb	r3, [r5, #0]
 5750 567c 023083E0 		add	r3, r3, r2
 5751 5680 0030C4E5 		strb	r3, [r4, #0]
 5752 5684 9C051FE5 		ldr	r0, .L265+352
 5753 5688 FEFFFFEB 		bl	uart_transmit
 5754 568c 0010D5E5 		ldrb	r1, [r5, #0]	@ zero_extendqisi2
 5755 5690 A8051FE5 		ldr	r0, .L265+352
 5756 5694 FEFFFFEB 		bl	uart_transmit
 5757 5698 B0051FE5 		ldr	r0, .L265+352
 5758 569c 0010D4E5 		ldrb	r1, [r4, #0]	@ zero_extendqisi2
 5759 56a0 FEFFFFEB 		bl	uart_transmit
 5760 56a4 030000EA 		b	.L134
 5761              	.L136:
 5762 56a8 FC351FE5 		ldr	r3, .L265+292
 5763 56ac 0020D3E5 		ldrb	r2, [r3, #0]	@ zero_extendqisi2
 5764 56b0 012082E2 		add	r2, r2, #1
 5765 56b4 0020C3E5 		strb	r2, [r3, #0]
 5766              	.L134:
 5767 56b8 A8361FE5 		ldr	r3, .L265+136
 5768 56bc 0030D3E5 		ldrb	r3, [r3, #0]	@ zero_extendqisi2
 5769 56c0 180053E3 		cmp	r3, #24
 5770 56c4 D500001A 		bne	.L137
 5771 56c8 38361FE5 		ldr	r3, .L265+264
 5772 56cc 0020D3E5 		ldrb	r2, [r3, #0]	@ zero_extendqisi2
 5773 56d0 1E0052E3 		cmp	r2, #30
 5774 56d4 0020A083 		movhi	r2, #0
 5775 56d8 0020C385 		strhib	r2, [r3, #0]
 5776 56dc 0030D3E5 		ldrb	r3, [r3, #0]	@ zero_extendqisi2
 5777 56e0 1E0053E3 		cmp	r3, #30
 5778 56e4 03F19F97 		ldrls	pc, [pc, r3, asl #2]
 5779 56e8 620000EA 		b	.L139
 5780              	.L171:
 5781 56ec 68570000 		.word	.L140
 5782 56f0 70570000 		.word	.L141
 5783 56f4 84570000 		.word	.L142
 5784 56f8 8C570000 		.word	.L143
 5785 56fc 94570000 		.word	.L144
 5786 5700 9C570000 		.word	.L145
 5787 5704 A8570000 		.word	.L146
 5788 5708 B0570000 		.word	.L147
 5789 570c B8570000 		.word	.L148
 5790 5710 C0570000 		.word	.L149
 5791 5714 C8570000 		.word	.L150
 5792 5718 D0570000 		.word	.L151
 5793 571c DC570000 		.word	.L152
 5794 5720 E4570000 		.word	.L153
 5795 5724 EC570000 		.word	.L154
 5796 5728 F4570000 		.word	.L155
 5797 572c FC570000 		.word	.L156
 5798 5730 04580000 		.word	.L157
 5799 5734 0C580000 		.word	.L158
 5800 5738 14580000 		.word	.L159
 5801 573c 1C580000 		.word	.L160
 5802 5740 24580000 		.word	.L161
 5803 5744 2C580000 		.word	.L162
 5804 5748 34580000 		.word	.L163
 5805 574c 3C580000 		.word	.L164
 5806 5750 44580000 		.word	.L165
 5807 5754 4C580000 		.word	.L166
 5808 5758 54580000 		.word	.L167
 5809 575c 5C580000 		.word	.L168
 5810 5760 64580000 		.word	.L169
 5811 5764 6C580000 		.word	.L170
 5812              	.L140:
 5813 5768 54371FE5 		ldr	r3, .L265+140
 5814 576c 000000EA 		b	.L251
 5815              	.L141:
 5816 5770 58371FE5 		ldr	r3, .L265+144
 5817              	.L251:
 5818 5774 0000D3E5 		ldrb	r0, [r3, #0]	@ zero_extendqisi2
 5819              	.L253:
 5820 5778 FEFFFFEB 		bl	__aeabi_ui2f
 5821 577c 00008DE5 		str	r0, [sp, #0]	@ float
 5822 5780 3E0000EA 		b	.L172
 5823              	.L142:
 5824 5784 68371FE5 		ldr	r3, .L265+148
 5825 5788 380000EA 		b	.L259
 5826              	.L143:
 5827 578c 6C371FE5 		ldr	r3, .L265+152
 5828 5790 360000EA 		b	.L259
 5829              	.L144:
 5830 5794 70371FE5 		ldr	r3, .L265+156
 5831 5798 340000EA 		b	.L259
 5832              	.L145:
 5833 579c 74371FE5 		ldr	r3, .L265+160
 5834 57a0 B000D3E1 		ldrh	r0, [r3, #0]
 5835 57a4 F3FFFFEA 		b	.L253
 5836              	.L146:
 5837 57a8 7C371FE5 		ldr	r3, .L265+164
 5838 57ac 2F0000EA 		b	.L259
 5839              	.L147:
 5840 57b0 80371FE5 		ldr	r3, .L265+168
 5841 57b4 EEFFFFEA 		b	.L251
 5842              	.L148:
 5843 57b8 84371FE5 		ldr	r3, .L265+172
 5844 57bc ECFFFFEA 		b	.L251
 5845              	.L149:
 5846 57c0 88371FE5 		ldr	r3, .L265+176
 5847 57c4 EAFFFFEA 		b	.L251
 5848              	.L150:
 5849 57c8 8C371FE5 		ldr	r3, .L265+180
 5850 57cc E8FFFFEA 		b	.L251
 5851              	.L151:
 5852 57d0 90371FE5 		ldr	r3, .L265+184
 5853 57d4 B00FD3E1 		ldrh	r0, [r3, #240]
 5854 57d8 E6FFFFEA 		b	.L253
 5855              	.L152:
 5856 57dc 98371FE5 		ldr	r3, .L265+188
 5857 57e0 220000EA 		b	.L259
 5858              	.L153:
 5859 57e4 9C371FE5 		ldr	r3, .L265+192
 5860 57e8 200000EA 		b	.L259
 5861              	.L154:
 5862 57ec A0371FE5 		ldr	r3, .L265+196
 5863 57f0 1E0000EA 		b	.L259
 5864              	.L155:
 5865 57f4 A4371FE5 		ldr	r3, .L265+200
 5866 57f8 1C0000EA 		b	.L259
 5867              	.L156:
 5868 57fc A8371FE5 		ldr	r3, .L265+204
 5869 5800 1A0000EA 		b	.L259
 5870              	.L157:
 5871 5804 AC371FE5 		ldr	r3, .L265+208
 5872 5808 180000EA 		b	.L259
 5873              	.L158:
 5874 580c B0371FE5 		ldr	r3, .L265+212
 5875 5810 160000EA 		b	.L259
 5876              	.L159:
 5877 5814 B4371FE5 		ldr	r3, .L265+216
 5878 5818 140000EA 		b	.L259
 5879              	.L160:
 5880 581c B8371FE5 		ldr	r3, .L265+220
 5881 5820 120000EA 		b	.L259
 5882              	.L161:
 5883 5824 BC371FE5 		ldr	r3, .L265+224
 5884 5828 100000EA 		b	.L259
 5885              	.L162:
 5886 582c C0371FE5 		ldr	r3, .L265+228
 5887 5830 0E0000EA 		b	.L259
 5888              	.L163:
 5889 5834 C4371FE5 		ldr	r3, .L265+232
 5890 5838 0C0000EA 		b	.L259
 5891              	.L164:
 5892 583c C8371FE5 		ldr	r3, .L265+236
 5893 5840 0A0000EA 		b	.L259
 5894              	.L165:
 5895 5844 CC371FE5 		ldr	r3, .L265+240
 5896 5848 080000EA 		b	.L259
 5897              	.L166:
 5898 584c D0371FE5 		ldr	r3, .L265+244
 5899 5850 060000EA 		b	.L259
 5900              	.L167:
 5901 5854 D4371FE5 		ldr	r3, .L265+248
 5902 5858 040000EA 		b	.L259
 5903              	.L168:
 5904 585c D8371FE5 		ldr	r3, .L265+252
 5905 5860 020000EA 		b	.L259
 5906              	.L169:
 5907 5864 DC371FE5 		ldr	r3, .L265+256
 5908 5868 000000EA 		b	.L259
 5909              	.L170:
 5910 586c E0371FE5 		ldr	r3, .L265+260
 5911              	.L259:
 5912 5870 003093E5 		ldr	r3, [r3, #0]	@ float
 5913 5874 000000EA 		b	.L252
 5914              	.L139:
 5915 5878 0030A0E3 		mov	r3, #0
 5916              	.L252:
 5917 587c 00308DE5 		str	r3, [sp, #0]	@ float
 5918              	.L172:
 5919 5880 98071FE5 		ldr	r0, .L265+352
 5920 5884 0B10A0E3 		mov	r1, #11
 5921 5888 FEFFFFEB 		bl	uart_check_free_space
 5922 588c 000050E3 		cmp	r0, #0
 5923 5890 5A00000A 		beq	.L173
 5924 5894 D4371FE5 		ldr	r3, .L265+312
 5925 5898 B020D3E1 		ldrh	r2, [r3, #0]
 5926 589c 0B2082E2 		add	r2, r2, #11
 5927 58a0 B020C3E1 		strh	r2, [r3, #0]	@ movhi
 5928 58a4 E0371FE5 		ldr	r3, .L265+316
 5929 58a8 B020D3E1 		ldrh	r2, [r3, #0]
 5930 58ac 012082E2 		add	r2, r2, #1
 5931 58b0 B020C3E1 		strh	r2, [r3, #0]	@ movhi
 5932 58b4 CC071FE5 		ldr	r0, .L265+352
 5933 58b8 9910A0E3 		mov	r1, #153
 5934 58bc F4571FE5 		ldr	r5, .L265+320
 5935 58c0 FEFFFFEB 		bl	uart_transmit
 5936 58c4 DC071FE5 		ldr	r0, .L265+352
 5937 58c8 0B10A0E3 		mov	r1, #11
 5938 58cc 00481FE5 		ldr	r4, .L265+324
 5939 58d0 FEFFFFEB 		bl	uart_transmit
 5940 58d4 0D30A0E3 		mov	r3, #13
 5941 58d8 0030C5E5 		strb	r3, [r5, #0]
 5942 58dc 1830A0E3 		mov	r3, #24
 5943 58e0 0030C4E5 		strb	r3, [r4, #0]
 5944 58e4 FC071FE5 		ldr	r0, .L265+352
 5945 58e8 0210A0E3 		mov	r1, #2
 5946 58ec FEFFFFEB 		bl	uart_transmit
 5947 58f0 0030D5E5 		ldrb	r3, [r5, #0]	@ zero_extendqisi2
 5948 58f4 0020D4E5 		ldrb	r2, [r4, #0]	@ zero_extendqisi2
 5949 58f8 1F3083E2 		add	r3, r3, #31
 5950 58fc FF3003E2 		and	r3, r3, #255
 5951 5900 0030C5E5 		strb	r3, [r5, #0]
 5952 5904 023083E0 		add	r3, r3, r2
 5953 5908 0030C4E5 		strb	r3, [r4, #0]
 5954 590c 24081FE5 		ldr	r0, .L265+352
 5955 5910 1F10A0E3 		mov	r1, #31
 5956 5914 FEFFFFEB 		bl	uart_transmit
 5957 5918 88381FE5 		ldr	r3, .L265+264
 5958 591c 0010D3E5 		ldrb	r1, [r3, #0]	@ zero_extendqisi2
 5959 5920 0030D5E5 		ldrb	r3, [r5, #0]	@ zero_extendqisi2
 5960 5924 0020D4E5 		ldrb	r2, [r4, #0]	@ zero_extendqisi2
 5961 5928 033081E0 		add	r3, r1, r3
 5962 592c FF3003E2 		and	r3, r3, #255
 5963 5930 0030C5E5 		strb	r3, [r5, #0]
 5964 5934 023083E0 		add	r3, r3, r2
 5965 5938 0030C4E5 		strb	r3, [r4, #0]
 5966 593c 54081FE5 		ldr	r0, .L265+352
 5967 5940 FEFFFFEB 		bl	uart_transmit
 5968 5944 0010DDE5 		ldrb	r1, [sp, #0]	@ zero_extendqisi2
 5969 5948 0030D5E5 		ldrb	r3, [r5, #0]	@ zero_extendqisi2
 5970 594c 0020D4E5 		ldrb	r2, [r4, #0]	@ zero_extendqisi2
 5971 5950 033081E0 		add	r3, r1, r3
 5972 5954 FF3003E2 		and	r3, r3, #255
 5973 5958 0030C5E5 		strb	r3, [r5, #0]
 5974 595c 023083E0 		add	r3, r3, r2
 5975 5960 0030C4E5 		strb	r3, [r4, #0]
 5976 5964 7C081FE5 		ldr	r0, .L265+352
 5977 5968 FEFFFFEB 		bl	uart_transmit
 5978 596c 0110DDE5 		ldrb	r1, [sp, #1]	@ zero_extendqisi2
 5979 5970 0030D5E5 		ldrb	r3, [r5, #0]	@ zero_extendqisi2
 5980 5974 0020D4E5 		ldrb	r2, [r4, #0]	@ zero_extendqisi2
 5981 5978 033081E0 		add	r3, r1, r3
 5982 597c FF3003E2 		and	r3, r3, #255
 5983 5980 0030C5E5 		strb	r3, [r5, #0]
 5984 5984 023083E0 		add	r3, r3, r2
 5985 5988 0030C4E5 		strb	r3, [r4, #0]
 5986 598c A4081FE5 		ldr	r0, .L265+352
 5987 5990 FEFFFFEB 		bl	uart_transmit
 5988 5994 0210DDE5 		ldrb	r1, [sp, #2]	@ zero_extendqisi2
 5989 5998 0030D5E5 		ldrb	r3, [r5, #0]	@ zero_extendqisi2
 5990 599c 0020D4E5 		ldrb	r2, [r4, #0]	@ zero_extendqisi2
 5991 59a0 033081E0 		add	r3, r1, r3
 5992 59a4 FF3003E2 		and	r3, r3, #255
 5993 59a8 0030C5E5 		strb	r3, [r5, #0]
 5994 59ac 023083E0 		add	r3, r3, r2
 5995 59b0 0030C4E5 		strb	r3, [r4, #0]
 5996 59b4 CC081FE5 		ldr	r0, .L265+352
 5997 59b8 FEFFFFEB 		bl	uart_transmit
 5998 59bc 0310DDE5 		ldrb	r1, [sp, #3]	@ zero_extendqisi2
 5999 59c0 0030D5E5 		ldrb	r3, [r5, #0]	@ zero_extendqisi2
 6000 59c4 0020D4E5 		ldrb	r2, [r4, #0]	@ zero_extendqisi2
 6001 59c8 033081E0 		add	r3, r1, r3
 6002 59cc FF3003E2 		and	r3, r3, #255
 6003 59d0 0030C5E5 		strb	r3, [r5, #0]
 6004 59d4 023083E0 		add	r3, r3, r2
 6005 59d8 0030C4E5 		strb	r3, [r4, #0]
 6006 59dc F4081FE5 		ldr	r0, .L265+352
 6007 59e0 FEFFFFEB 		bl	uart_transmit
 6008 59e4 0010D5E5 		ldrb	r1, [r5, #0]	@ zero_extendqisi2
 6009 59e8 00091FE5 		ldr	r0, .L265+352
 6010 59ec FEFFFFEB 		bl	uart_transmit
 6011 59f0 08091FE5 		ldr	r0, .L265+352
 6012 59f4 0010D4E5 		ldrb	r1, [r4, #0]	@ zero_extendqisi2
 6013 59f8 FEFFFFEB 		bl	uart_transmit
 6014 59fc 030000EA 		b	.L174
 6015              	.L173:
 6016 5a00 54391FE5 		ldr	r3, .L265+292
 6017 5a04 0020D3E5 		ldrb	r2, [r3, #0]	@ zero_extendqisi2
 6018 5a08 012082E2 		add	r2, r2, #1
 6019 5a0c 0020C3E5 		strb	r2, [r3, #0]
 6020              	.L174:
 6021 5a10 80391FE5 		ldr	r3, .L265+264
 6022 5a14 0020D3E5 		ldrb	r2, [r3, #0]	@ zero_extendqisi2
 6023 5a18 012082E2 		add	r2, r2, #1
 6024 5a1c 0020C3E5 		strb	r2, [r3, #0]
 6025              	.L137:
 6026 5a20 8C391FE5 		ldr	r3, .L265+268
 6027 5a24 0030D3E5 		ldrb	r3, [r3, #0]	@ zero_extendqisi2
 6028 5a28 1E0053E3 		cmp	r3, #30
 6029 5a2c D800001A 		bne	.L175
 6030 5a30 98391FE5 		ldr	r3, .L265+272
 6031 5a34 0030D3E5 		ldrb	r3, [r3, #0]	@ zero_extendqisi2
 6032 5a38 000053E3 		cmp	r3, #0
 6033 5a3c D400000A 		beq	.L175
 6034 5a40 58091FE5 		ldr	r0, .L265+352
 6035 5a44 1610A0E3 		mov	r1, #22
 6036 5a48 FEFFFFEB 		bl	uart_check_free_space
 6037 5a4c 000050E3 		cmp	r0, #0
 6038 5a50 CB00000A 		beq	.L176
 6039 5a54 94391FE5 		ldr	r3, .L265+312
 6040 5a58 B020D3E1 		ldrh	r2, [r3, #0]
 6041 5a5c 162082E2 		add	r2, r2, #22
 6042 5a60 B020C3E1 		strh	r2, [r3, #0]	@ movhi
 6043 5a64 A0391FE5 		ldr	r3, .L265+316
 6044 5a68 B020D3E1 		ldrh	r2, [r3, #0]
 6045 5a6c 012082E2 		add	r2, r2, #1
 6046 5a70 B020C3E1 		strh	r2, [r3, #0]	@ movhi
 6047 5a74 8C091FE5 		ldr	r0, .L265+352
 6048 5a78 9910A0E3 		mov	r1, #153
 6049 5a7c B4591FE5 		ldr	r5, .L265+320
 6050 5a80 FEFFFFEB 		bl	uart_transmit
 6051 5a84 9C091FE5 		ldr	r0, .L265+352
 6052 5a88 1610A0E3 		mov	r1, #22
 6053 5a8c C0491FE5 		ldr	r4, .L265+324
 6054 5a90 FEFFFFEB 		bl	uart_transmit
 6055 5a94 1830A0E3 		mov	r3, #24
 6056 5a98 0030C5E5 		strb	r3, [r5, #0]
 6057 5a9c 2E30A0E3 		mov	r3, #46
 6058 5aa0 0030C4E5 		strb	r3, [r4, #0]
 6059 5aa4 BC091FE5 		ldr	r0, .L265+352
 6060 5aa8 0210A0E3 		mov	r1, #2
 6061 5aac FEFFFFEB 		bl	uart_transmit
 6062 5ab0 0030D5E5 		ldrb	r3, [r5, #0]	@ zero_extendqisi2
 6063 5ab4 0020D4E5 		ldrb	r2, [r4, #0]	@ zero_extendqisi2
 6064 5ab8 1B3083E2 		add	r3, r3, #27
 6065 5abc FF3003E2 		and	r3, r3, #255
 6066 5ac0 246A1FE5 		ldr	r6, .L265+276
 6067 5ac4 0030C5E5 		strb	r3, [r5, #0]
 6068 5ac8 023083E0 		add	r3, r3, r2
 6069 5acc 0030C4E5 		strb	r3, [r4, #0]
 6070 5ad0 E8091FE5 		ldr	r0, .L265+352
 6071 5ad4 1B10A0E3 		mov	r1, #27
 6072 5ad8 FEFFFFEB 		bl	uart_transmit
 6073 5adc 0010D6E5 		ldrb	r1, [r6, #0]	@ zero_extendqisi2
 6074 5ae0 0030D5E5 		ldrb	r3, [r5, #0]	@ zero_extendqisi2
 6075 5ae4 0020D4E5 		ldrb	r2, [r4, #0]	@ zero_extendqisi2
 6076 5ae8 033081E0 		add	r3, r1, r3
 6077 5aec FF3003E2 		and	r3, r3, #255
 6078 5af0 0030C5E5 		strb	r3, [r5, #0]
 6079 5af4 023083E0 		add	r3, r3, r2
 6080 5af8 0030C4E5 		strb	r3, [r4, #0]
 6081 5afc 140A1FE5 		ldr	r0, .L265+352
 6082 5b00 FEFFFFEB 		bl	uart_transmit
 6083 5b04 0110D6E5 		ldrb	r1, [r6, #1]	@ zero_extendqisi2
 6084 5b08 0030D5E5 		ldrb	r3, [r5, #0]	@ zero_extendqisi2
 6085 5b0c 0020D4E5 		ldrb	r2, [r4, #0]	@ zero_extendqisi2
 6086 5b10 033081E0 		add	r3, r1, r3
 6087 5b14 FF3003E2 		and	r3, r3, #255
 6088 5b18 0030C5E5 		strb	r3, [r5, #0]
 6089 5b1c 023083E0 		add	r3, r3, r2
 6090 5b20 0030C4E5 		strb	r3, [r4, #0]
 6091 5b24 3C0A1FE5 		ldr	r0, .L265+352
 6092 5b28 FEFFFFEB 		bl	uart_transmit
 6093 5b2c 0210D6E5 		ldrb	r1, [r6, #2]	@ zero_extendqisi2
 6094 5b30 0030D5E5 		ldrb	r3, [r5, #0]	@ zero_extendqisi2
 6095 5b34 0020D4E5 		ldrb	r2, [r4, #0]	@ zero_extendqisi2
 6096 5b38 033081E0 		add	r3, r1, r3
 6097 5b3c FF3003E2 		and	r3, r3, #255
 6098 5b40 0030C5E5 		strb	r3, [r5, #0]
 6099 5b44 023083E0 		add	r3, r3, r2
 6100 5b48 0030C4E5 		strb	r3, [r4, #0]
 6101 5b4c 640A1FE5 		ldr	r0, .L265+352
 6102 5b50 FEFFFFEB 		bl	uart_transmit
 6103 5b54 0310D6E5 		ldrb	r1, [r6, #3]	@ zero_extendqisi2
 6104 5b58 0030D5E5 		ldrb	r3, [r5, #0]	@ zero_extendqisi2
 6105 5b5c 0020D4E5 		ldrb	r2, [r4, #0]	@ zero_extendqisi2
 6106 5b60 033081E0 		add	r3, r1, r3
 6107 5b64 FF3003E2 		and	r3, r3, #255
 6108 5b68 C86A1FE5 		ldr	r6, .L265+280
 6109 5b6c 0030C5E5 		strb	r3, [r5, #0]
 6110 5b70 023083E0 		add	r3, r3, r2
 6111 5b74 0030C4E5 		strb	r3, [r4, #0]
 6112 5b78 900A1FE5 		ldr	r0, .L265+352
 6113 5b7c FEFFFFEB 		bl	uart_transmit
 6114 5b80 0010D6E5 		ldrb	r1, [r6, #0]	@ zero_extendqisi2
 6115 5b84 0030D5E5 		ldrb	r3, [r5, #0]	@ zero_extendqisi2
 6116 5b88 0020D4E5 		ldrb	r2, [r4, #0]	@ zero_extendqisi2
 6117 5b8c 033081E0 		add	r3, r1, r3
 6118 5b90 FF3003E2 		and	r3, r3, #255
 6119 5b94 0030C5E5 		strb	r3, [r5, #0]
 6120 5b98 023083E0 		add	r3, r3, r2
 6121 5b9c 0030C4E5 		strb	r3, [r4, #0]
 6122 5ba0 B80A1FE5 		ldr	r0, .L265+352
 6123 5ba4 FEFFFFEB 		bl	uart_transmit
 6124 5ba8 0110D6E5 		ldrb	r1, [r6, #1]	@ zero_extendqisi2
 6125 5bac 0030D5E5 		ldrb	r3, [r5, #0]	@ zero_extendqisi2
 6126 5bb0 0020D4E5 		ldrb	r2, [r4, #0]	@ zero_extendqisi2
 6127 5bb4 033081E0 		add	r3, r1, r3
 6128 5bb8 FF3003E2 		and	r3, r3, #255
 6129 5bbc 0030C5E5 		strb	r3, [r5, #0]
 6130 5bc0 023083E0 		add	r3, r3, r2
 6131 5bc4 0030C4E5 		strb	r3, [r4, #0]
 6132 5bc8 E00A1FE5 		ldr	r0, .L265+352
 6133 5bcc FEFFFFEB 		bl	uart_transmit
 6134 5bd0 0210D6E5 		ldrb	r1, [r6, #2]	@ zero_extendqisi2
 6135 5bd4 0030D5E5 		ldrb	r3, [r5, #0]	@ zero_extendqisi2
 6136 5bd8 0020D4E5 		ldrb	r2, [r4, #0]	@ zero_extendqisi2
 6137 5bdc 033081E0 		add	r3, r1, r3
 6138 5be0 FF3003E2 		and	r3, r3, #255
 6139 5be4 0030C5E5 		strb	r3, [r5, #0]
 6140 5be8 023083E0 		add	r3, r3, r2
 6141 5bec 0030C4E5 		strb	r3, [r4, #0]
 6142 5bf0 080B1FE5 		ldr	r0, .L265+352
 6143 5bf4 FEFFFFEB 		bl	uart_transmit
 6144 5bf8 0310D6E5 		ldrb	r1, [r6, #3]	@ zero_extendqisi2
 6145 5bfc 0030D5E5 		ldrb	r3, [r5, #0]	@ zero_extendqisi2
 6146 5c00 0020D4E5 		ldrb	r2, [r4, #0]	@ zero_extendqisi2
 6147 5c04 033081E0 		add	r3, r1, r3
 6148 5c08 FF3003E2 		and	r3, r3, #255
 6149 5c0c 686B1FE5 		ldr	r6, .L265+284
 6150 5c10 0030C5E5 		strb	r3, [r5, #0]
 6151 5c14 023083E0 		add	r3, r3, r2
 6152 5c18 0030C4E5 		strb	r3, [r4, #0]
 6153 5c1c 340B1FE5 		ldr	r0, .L265+352
 6154 5c20 FEFFFFEB 		bl	uart_transmit
 6155 5c24 0010D6E5 		ldrb	r1, [r6, #0]	@ zero_extendqisi2
 6156 5c28 0030D5E5 		ldrb	r3, [r5, #0]	@ zero_extendqisi2
 6157 5c2c 0020D4E5 		ldrb	r2, [r4, #0]	@ zero_extendqisi2
 6158 5c30 033081E0 		add	r3, r1, r3
 6159 5c34 FF3003E2 		and	r3, r3, #255
 6160 5c38 0030C5E5 		strb	r3, [r5, #0]
 6161 5c3c 023083E0 		add	r3, r3, r2
 6162 5c40 0030C4E5 		strb	r3, [r4, #0]
 6163 5c44 5C0B1FE5 		ldr	r0, .L265+352
 6164 5c48 FEFFFFEB 		bl	uart_transmit
 6165 5c4c 0110D6E5 		ldrb	r1, [r6, #1]	@ zero_extendqisi2
 6166 5c50 0030D5E5 		ldrb	r3, [r5, #0]	@ zero_extendqisi2
 6167 5c54 0020D4E5 		ldrb	r2, [r4, #0]	@ zero_extendqisi2
 6168 5c58 033081E0 		add	r3, r1, r3
 6169 5c5c FF3003E2 		and	r3, r3, #255
 6170 5c60 0030C5E5 		strb	r3, [r5, #0]
 6171 5c64 023083E0 		add	r3, r3, r2
 6172 5c68 0030C4E5 		strb	r3, [r4, #0]
 6173 5c6c 840B1FE5 		ldr	r0, .L265+352
 6174 5c70 FEFFFFEB 		bl	uart_transmit
 6175 5c74 0210D6E5 		ldrb	r1, [r6, #2]	@ zero_extendqisi2
 6176 5c78 0030D5E5 		ldrb	r3, [r5, #0]	@ zero_extendqisi2
 6177 5c7c 0020D4E5 		ldrb	r2, [r4, #0]	@ zero_extendqisi2
 6178 5c80 033081E0 		add	r3, r1, r3
 6179 5c84 FF3003E2 		and	r3, r3, #255
 6180 5c88 0030C5E5 		strb	r3, [r5, #0]
 6181 5c8c 023083E0 		add	r3, r3, r2
 6182 5c90 0030C4E5 		strb	r3, [r4, #0]
 6183 5c94 AC0B1FE5 		ldr	r0, .L265+352
 6184 5c98 FEFFFFEB 		bl	uart_transmit
 6185 5c9c 0310D6E5 		ldrb	r1, [r6, #3]	@ zero_extendqisi2
 6186 5ca0 0030D5E5 		ldrb	r3, [r5, #0]	@ zero_extendqisi2
 6187 5ca4 0020D4E5 		ldrb	r2, [r4, #0]	@ zero_extendqisi2
 6188 5ca8 033081E0 		add	r3, r1, r3
 6189 5cac FF3003E2 		and	r3, r3, #255
 6190 5cb0 086C1FE5 		ldr	r6, .L265+288
 6191 5cb4 0030C5E5 		strb	r3, [r5, #0]
 6192 5cb8 023083E0 		add	r3, r3, r2
 6193 5cbc 0030C4E5 		strb	r3, [r4, #0]
 6194 5cc0 D80B1FE5 		ldr	r0, .L265+352
 6195 5cc4 FEFFFFEB 		bl	uart_transmit
 6196 5cc8 0010D6E5 		ldrb	r1, [r6, #0]	@ zero_extendqisi2
 6197 5ccc 0030D5E5 		ldrb	r3, [r5, #0]	@ zero_extendqisi2
 6198 5cd0 0020D4E5 		ldrb	r2, [r4, #0]	@ zero_extendqisi2
 6199 5cd4 033081E0 		add	r3, r1, r3
 6200 5cd8 FF3003E2 		and	r3, r3, #255
 6201 5cdc 0030C5E5 		strb	r3, [r5, #0]
 6202 5ce0 023083E0 		add	r3, r3, r2
 6203 5ce4 0030C4E5 		strb	r3, [r4, #0]
 6204 5ce8 000C1FE5 		ldr	r0, .L265+352
 6205 5cec FEFFFFEB 		bl	uart_transmit
 6206 5cf0 0110D6E5 		ldrb	r1, [r6, #1]	@ zero_extendqisi2
 6207 5cf4 0030D5E5 		ldrb	r3, [r5, #0]	@ zero_extendqisi2
 6208 5cf8 0020D4E5 		ldrb	r2, [r4, #0]	@ zero_extendqisi2
 6209 5cfc 033081E0 		add	r3, r1, r3
 6210 5d00 FF3003E2 		and	r3, r3, #255
 6211 5d04 0030C5E5 		strb	r3, [r5, #0]
 6212 5d08 023083E0 		add	r3, r3, r2
 6213 5d0c 0030C4E5 		strb	r3, [r4, #0]
 6214 5d10 280C1FE5 		ldr	r0, .L265+352
 6215 5d14 FEFFFFEB 		bl	uart_transmit
 6216 5d18 0210D6E5 		ldrb	r1, [r6, #2]	@ zero_extendqisi2
 6217 5d1c 0030D5E5 		ldrb	r3, [r5, #0]	@ zero_extendqisi2
 6218 5d20 0020D4E5 		ldrb	r2, [r4, #0]	@ zero_extendqisi2
 6219 5d24 033081E0 		add	r3, r1, r3
 6220 5d28 FF3003E2 		and	r3, r3, #255
 6221 5d2c 0030C5E5 		strb	r3, [r5, #0]
 6222 5d30 023083E0 		add	r3, r3, r2
 6223 5d34 0030C4E5 		strb	r3, [r4, #0]
 6224 5d38 500C1FE5 		ldr	r0, .L265+352
 6225 5d3c FEFFFFEB 		bl	uart_transmit
 6226 5d40 0310D6E5 		ldrb	r1, [r6, #3]	@ zero_extendqisi2
 6227 5d44 0030D5E5 		ldrb	r3, [r5, #0]	@ zero_extendqisi2
 6228 5d48 0020D4E5 		ldrb	r2, [r4, #0]	@ zero_extendqisi2
 6229 5d4c 033081E0 		add	r3, r1, r3
 6230 5d50 FF3003E2 		and	r3, r3, #255
 6231 5d54 0030C5E5 		strb	r3, [r5, #0]
 6232 5d58 023083E0 		add	r3, r3, r2
 6233 5d5c 0030C4E5 		strb	r3, [r4, #0]
 6234 5d60 780C1FE5 		ldr	r0, .L265+352
 6235 5d64 FEFFFFEB 		bl	uart_transmit
 6236 5d68 0010D5E5 		ldrb	r1, [r5, #0]	@ zero_extendqisi2
 6237 5d6c 840C1FE5 		ldr	r0, .L265+352
 6238 5d70 FEFFFFEB 		bl	uart_transmit
 6239 5d74 8C0C1FE5 		ldr	r0, .L265+352
 6240 5d78 0010D4E5 		ldrb	r1, [r4, #0]	@ zero_extendqisi2
 6241 5d7c FEFFFFEB 		bl	uart_transmit
 6242 5d80 030000EA 		b	.L175
 6243              	.L176:
 6244 5d84 D83C1FE5 		ldr	r3, .L265+292
 6245 5d88 0020D3E5 		ldrb	r2, [r3, #0]	@ zero_extendqisi2
 6246 5d8c 012082E2 		add	r2, r2, #1
 6247 5d90 0020C3E5 		strb	r2, [r3, #0]
 6248              	.L175:
 6249 5d94 E43C1FE5 		ldr	r3, .L265+296
 6250 5d98 0030D3E5 		ldrb	r3, [r3, #0]	@ zero_extendqisi2
 6251 5d9c 240053E3 		cmp	r3, #36
 6252 5da0 0801001A 		bne	.L177
 6253 5da4 F03C1FE5 		ldr	r3, .L265+300
 6254 5da8 C00C1FE5 		ldr	r0, .L265+352
 6255 5dac 1A10A0E3 		mov	r1, #26
 6256 5db0 004093E5 		ldr	r4, [r3, #0]	@ float
 6257 5db4 FEFFFFEB 		bl	uart_check_free_space
 6258 5db8 000050E3 		cmp	r0, #0
 6259 5dbc FD00000A 		beq	.L178
 6260 5dc0 0201C4E3 		bic	r0, r4, #-2147483648
 6261 5dc4 FEFFFFEB 		bl	__aeabi_f2d
 6262 5dc8 102D1FE5 		ldr	r2, .L265+304
 6263 5dcc 103D1FE5 		ldr	r3, .L265+308
 6264 5dd0 FEFFFFEB 		bl	__aeabi_ddiv
 6265 5dd4 FEFFFFEB 		bl	__aeabi_d2uiz
 6266 5dd8 183D1FE5 		ldr	r3, .L265+312
 6267 5ddc B020D3E1 		ldrh	r2, [r3, #0]
 6268 5de0 1A2082E2 		add	r2, r2, #26
 6269 5de4 B020C3E1 		strh	r2, [r3, #0]	@ movhi
 6270 5de8 243D1FE5 		ldr	r3, .L265+316
 6271 5dec B020D3E1 		ldrh	r2, [r3, #0]
 6272 5df0 012082E2 		add	r2, r2, #1
 6273 5df4 B020C3E1 		strh	r2, [r3, #0]	@ movhi
 6274 5df8 FF7000E2 		and	r7, r0, #255
 6275 5dfc 9910A0E3 		mov	r1, #153
 6276 5e00 180D1FE5 		ldr	r0, .L265+352
 6277 5e04 3C5D1FE5 		ldr	r5, .L265+320
 6278 5e08 FEFFFFEB 		bl	uart_transmit
 6279 5e0c 240D1FE5 		ldr	r0, .L265+352
 6280 5e10 1A10A0E3 		mov	r1, #26
 6281 5e14 484D1FE5 		ldr	r4, .L265+324
 6282 5e18 FEFFFFEB 		bl	uart_transmit
 6283 5e1c 1C30A0E3 		mov	r3, #28
 6284 5e20 0030C5E5 		strb	r3, [r5, #0]
 6285 5e24 3630A0E3 		mov	r3, #54
 6286 5e28 0030C4E5 		strb	r3, [r4, #0]
 6287 5e2c 440D1FE5 		ldr	r0, .L265+352
 6288 5e30 0210A0E3 		mov	r1, #2
 6289 5e34 FEFFFFEB 		bl	uart_transmit
 6290 5e38 0030D5E5 		ldrb	r3, [r5, #0]	@ zero_extendqisi2
 6291 5e3c 0020D4E5 		ldrb	r2, [r4, #0]	@ zero_extendqisi2
 6292 5e40 0A3083E2 		add	r3, r3, #10
 6293 5e44 FF3003E2 		and	r3, r3, #255
 6294 5e48 0030C5E5 		strb	r3, [r5, #0]
 6295 5e4c 023083E0 		add	r3, r3, r2
 6296 5e50 0030C4E5 		strb	r3, [r4, #0]
 6297 5e54 6C0D1FE5 		ldr	r0, .L265+352
 6298 5e58 0A10A0E3 		mov	r1, #10
 6299 5e5c FEFFFFEB 		bl	uart_transmit
 6300 5e60 903D1FE5 		ldr	r3, .L265+328
 6301 5e64 0010D3E5 		ldrb	r1, [r3, #0]	@ zero_extendqisi2
 6302 5e68 0030D5E5 		ldrb	r3, [r5, #0]	@ zero_extendqisi2
 6303 5e6c 0020D4E5 		ldrb	r2, [r4, #0]	@ zero_extendqisi2
 6304 5e70 033081E0 		add	r3, r1, r3
 6305 5e74 FF3003E2 		and	r3, r3, #255
 6306 5e78 0030C5E5 		strb	r3, [r5, #0]
 6307 5e7c 023083E0 		add	r3, r3, r2
 6308 5e80 0030C4E5 		strb	r3, [r4, #0]
 6309 5e84 9C0D1FE5 		ldr	r0, .L265+352
 6310 5e88 FEFFFFEB 		bl	uart_transmit
 6311 5e8c B83D1FE5 		ldr	r3, .L265+332
 6312 5e90 0010D3E5 		ldrb	r1, [r3, #0]	@ zero_extendqisi2
 6313 5e94 0030D5E5 		ldrb	r3, [r5, #0]	@ zero_extendqisi2
 6314 5e98 0020D4E5 		ldrb	r2, [r4, #0]	@ zero_extendqisi2
 6315 5e9c 033081E0 		add	r3, r1, r3
 6316 5ea0 FF3003E2 		and	r3, r3, #255
 6317 5ea4 CC6D1FE5 		ldr	r6, .L265+336
 6318 5ea8 0030C5E5 		strb	r3, [r5, #0]
 6319 5eac 023083E0 		add	r3, r3, r2
 6320 5eb0 0030C4E5 		strb	r3, [r4, #0]
 6321 5eb4 CC0D1FE5 		ldr	r0, .L265+352
 6322 5eb8 FEFFFFEB 		bl	uart_transmit
 6323 5ebc 0010D6E5 		ldrb	r1, [r6, #0]	@ zero_extendqisi2
 6324 5ec0 0030D5E5 		ldrb	r3, [r5, #0]	@ zero_extendqisi2
 6325 5ec4 0020D4E5 		ldrb	r2, [r4, #0]	@ zero_extendqisi2
 6326 5ec8 033081E0 		add	r3, r1, r3
 6327 5ecc FF3003E2 		and	r3, r3, #255
 6328 5ed0 0030C5E5 		strb	r3, [r5, #0]
 6329 5ed4 023083E0 		add	r3, r3, r2
 6330 5ed8 0030C4E5 		strb	r3, [r4, #0]
 6331 5edc F40D1FE5 		ldr	r0, .L265+352
 6332 5ee0 FEFFFFEB 		bl	uart_transmit
 6333 5ee4 0110D6E5 		ldrb	r1, [r6, #1]	@ zero_extendqisi2
 6334 5ee8 0030D5E5 		ldrb	r3, [r5, #0]	@ zero_extendqisi2
 6335 5eec 0020D4E5 		ldrb	r2, [r4, #0]	@ zero_extendqisi2
 6336 5ef0 033081E0 		add	r3, r1, r3
 6337 5ef4 FF3003E2 		and	r3, r3, #255
 6338 5ef8 0030C5E5 		strb	r3, [r5, #0]
 6339 5efc 023083E0 		add	r3, r3, r2
 6340 5f00 0030C4E5 		strb	r3, [r4, #0]
 6341 5f04 1C0E1FE5 		ldr	r0, .L265+352
 6342 5f08 FEFFFFEB 		bl	uart_transmit
 6343 5f0c 0210D6E5 		ldrb	r1, [r6, #2]	@ zero_extendqisi2
 6344 5f10 0030D5E5 		ldrb	r3, [r5, #0]	@ zero_extendqisi2
 6345 5f14 0020D4E5 		ldrb	r2, [r4, #0]	@ zero_extendqisi2
 6346 5f18 033081E0 		add	r3, r1, r3
 6347 5f1c FF3003E2 		and	r3, r3, #255
 6348 5f20 0030C5E5 		strb	r3, [r5, #0]
 6349 5f24 023083E0 		add	r3, r3, r2
 6350 5f28 0030C4E5 		strb	r3, [r4, #0]
 6351 5f2c 440E1FE5 		ldr	r0, .L265+352
 6352 5f30 FEFFFFEB 		bl	uart_transmit
 6353 5f34 0310D6E5 		ldrb	r1, [r6, #3]	@ zero_extendqisi2
 6354 5f38 0030D5E5 		ldrb	r3, [r5, #0]	@ zero_extendqisi2
 6355 5f3c 0020D4E5 		ldrb	r2, [r4, #0]	@ zero_extendqisi2
 6356 5f40 033081E0 		add	r3, r1, r3
 6357 5f44 FF3003E2 		and	r3, r3, #255
 6358 5f48 6C6E1FE5 		ldr	r6, .L265+340
 6359 5f4c 0030C5E5 		strb	r3, [r5, #0]
 6360 5f50 023083E0 		add	r3, r3, r2
 6361 5f54 0030C4E5 		strb	r3, [r4, #0]
 6362 5f58 700E1FE5 		ldr	r0, .L265+352
 6363 5f5c FEFFFFEB 		bl	uart_transmit
 6364 5f60 0010D6E5 		ldrb	r1, [r6, #0]	@ zero_extendqisi2
 6365 5f64 0030D5E5 		ldrb	r3, [r5, #0]	@ zero_extendqisi2
 6366 5f68 0020D4E5 		ldrb	r2, [r4, #0]	@ zero_extendqisi2
 6367 5f6c 033081E0 		add	r3, r1, r3
 6368 5f70 FF3003E2 		and	r3, r3, #255
 6369 5f74 0030C5E5 		strb	r3, [r5, #0]
 6370 5f78 023083E0 		add	r3, r3, r2
 6371 5f7c 0030C4E5 		strb	r3, [r4, #0]
 6372 5f80 980E1FE5 		ldr	r0, .L265+352
 6373 5f84 FEFFFFEB 		bl	uart_transmit
 6374 5f88 0110D6E5 		ldrb	r1, [r6, #1]	@ zero_extendqisi2
 6375 5f8c 0030D5E5 		ldrb	r3, [r5, #0]	@ zero_extendqisi2
 6376 5f90 0020D4E5 		ldrb	r2, [r4, #0]	@ zero_extendqisi2
 6377 5f94 033081E0 		add	r3, r1, r3
 6378 5f98 FF3003E2 		and	r3, r3, #255
 6379 5f9c 0030C5E5 		strb	r3, [r5, #0]
 6380 5fa0 023083E0 		add	r3, r3, r2
 6381 5fa4 0030C4E5 		strb	r3, [r4, #0]
 6382 5fa8 C00E1FE5 		ldr	r0, .L265+352
 6383 5fac FEFFFFEB 		bl	uart_transmit
 6384 5fb0 0210D6E5 		ldrb	r1, [r6, #2]	@ zero_extendqisi2
 6385 5fb4 0030D5E5 		ldrb	r3, [r5, #0]	@ zero_extendqisi2
 6386 5fb8 0020D4E5 		ldrb	r2, [r4, #0]	@ zero_extendqisi2
 6387 5fbc 033081E0 		add	r3, r1, r3
 6388 5fc0 FF3003E2 		and	r3, r3, #255
 6389 5fc4 0030C5E5 		strb	r3, [r5, #0]
 6390 5fc8 023083E0 		add	r3, r3, r2
 6391 5fcc 0030C4E5 		strb	r3, [r4, #0]
 6392 5fd0 E80E1FE5 		ldr	r0, .L265+352
 6393 5fd4 FEFFFFEB 		bl	uart_transmit
 6394 5fd8 0310D6E5 		ldrb	r1, [r6, #3]	@ zero_extendqisi2
 6395 5fdc 0030D5E5 		ldrb	r3, [r5, #0]	@ zero_extendqisi2
 6396 5fe0 0020D4E5 		ldrb	r2, [r4, #0]	@ zero_extendqisi2
 6397 5fe4 033081E0 		add	r3, r1, r3
 6398 5fe8 FF3003E2 		and	r3, r3, #255
 6399 5fec 0C6F1FE5 		ldr	r6, .L265+344
 6400 5ff0 0030C5E5 		strb	r3, [r5, #0]
 6401 5ff4 023083E0 		add	r3, r3, r2
 6402 5ff8 0030C4E5 		strb	r3, [r4, #0]
 6403 5ffc 140F1FE5 		ldr	r0, .L265+352
 6404 6000 FEFFFFEB 		bl	uart_transmit
 6405 6004 0010D6E5 		ldrb	r1, [r6, #0]	@ zero_extendqisi2
 6406 6008 0030D5E5 		ldrb	r3, [r5, #0]	@ zero_extendqisi2
 6407 600c 0020D4E5 		ldrb	r2, [r4, #0]	@ zero_extendqisi2
 6408 6010 033081E0 		add	r3, r1, r3
 6409 6014 FF3003E2 		and	r3, r3, #255
 6410 6018 0030C5E5 		strb	r3, [r5, #0]
 6411 601c 023083E0 		add	r3, r3, r2
 6412 6020 0030C4E5 		strb	r3, [r4, #0]
 6413 6024 3C0F1FE5 		ldr	r0, .L265+352
 6414 6028 FEFFFFEB 		bl	uart_transmit
 6415 602c 0110D6E5 		ldrb	r1, [r6, #1]	@ zero_extendqisi2
 6416 6030 0030D5E5 		ldrb	r3, [r5, #0]	@ zero_extendqisi2
 6417 6034 0020D4E5 		ldrb	r2, [r4, #0]	@ zero_extendqisi2
 6418 6038 033081E0 		add	r3, r1, r3
 6419 603c FF3003E2 		and	r3, r3, #255
 6420 6040 0030C5E5 		strb	r3, [r5, #0]
 6421 6044 023083E0 		add	r3, r3, r2
 6422 6048 0030C4E5 		strb	r3, [r4, #0]
 6423 604c 640F1FE5 		ldr	r0, .L265+352
 6424 6050 FEFFFFEB 		bl	uart_transmit
 6425 6054 0210D6E5 		ldrb	r1, [r6, #2]	@ zero_extendqisi2
 6426 6058 0030D5E5 		ldrb	r3, [r5, #0]	@ zero_extendqisi2
 6427 605c 0020D4E5 		ldrb	r2, [r4, #0]	@ zero_extendqisi2
 6428 6060 033081E0 		add	r3, r1, r3
 6429 6064 FF3003E2 		and	r3, r3, #255
 6430 6068 0030C5E5 		strb	r3, [r5, #0]
 6431 606c 023083E0 		add	r3, r3, r2
 6432 6070 0030C4E5 		strb	r3, [r4, #0]
 6433 6074 8C0F1FE5 		ldr	r0, .L265+352
 6434 6078 FEFFFFEB 		bl	uart_transmit
 6435 607c 0310D6E5 		ldrb	r1, [r6, #3]	@ zero_extendqisi2
 6436 6080 0030D5E5 		ldrb	r3, [r5, #0]	@ zero_extendqisi2
 6437 6084 0020D4E5 		ldrb	r2, [r4, #0]	@ zero_extendqisi2
 6438 6088 033081E0 		add	r3, r1, r3
 6439 608c FF3003E2 		and	r3, r3, #255
 6440 6090 AC6F1FE5 		ldr	r6, .L265+348
 6441 6094 0030C5E5 		strb	r3, [r5, #0]
 6442 6098 023083E0 		add	r3, r3, r2
 6443 609c 0030C4E5 		strb	r3, [r4, #0]
 6444 60a0 B80F1FE5 		ldr	r0, .L265+352
 6445 60a4 FEFFFFEB 		bl	uart_transmit
 6446 60a8 0010D6E5 		ldrb	r1, [r6, #0]	@ zero_extendqisi2
 6447 60ac 0030D5E5 		ldrb	r3, [r5, #0]	@ zero_extendqisi2
 6448 60b0 0020D4E5 		ldrb	r2, [r4, #0]	@ zero_extendqisi2
 6449 60b4 033081E0 		add	r3, r1, r3
 6450 60b8 FF3003E2 		and	r3, r3, #255
 6451 60bc 0030C5E5 		strb	r3, [r5, #0]
 6452 60c0 023083E0 		add	r3, r3, r2
 6453 60c4 0030C4E5 		strb	r3, [r4, #0]
 6454 60c8 E00F1FE5 		ldr	r0, .L265+352
 6455 60cc FEFFFFEB 		bl	uart_transmit
 6456 60d0 0110D6E5 		ldrb	r1, [r6, #1]	@ zero_extendqisi2
 6457 60d4 0030D5E5 		ldrb	r3, [r5, #0]	@ zero_extendqisi2
 6458 60d8 0020D4E5 		ldrb	r2, [r4, #0]	@ zero_extendqisi2
 6459 60dc 033081E0 		add	r3, r1, r3
 6460 60e0 FF3003E2 		and	r3, r3, #255
 6461 60e4 0030C5E5 		strb	r3, [r5, #0]
 6462 60e8 023083E0 		add	r3, r3, r2
 6463 60ec 0030C4E5 		strb	r3, [r4, #0]
 6464 60f0 BC0F9FE5 		ldr	r0, .L267
 6465 60f4 FEFFFFEB 		bl	uart_transmit
 6466 60f8 0210D6E5 		ldrb	r1, [r6, #2]	@ zero_extendqisi2
 6467 60fc 0030D5E5 		ldrb	r3, [r5, #0]	@ zero_extendqisi2
 6468 6100 0020D4E5 		ldrb	r2, [r4, #0]	@ zero_extendqisi2
 6469 6104 033081E0 		add	r3, r1, r3
 6470 6108 FF3003E2 		and	r3, r3, #255
 6471 610c 0030C5E5 		strb	r3, [r5, #0]
 6472 6110 023083E0 		add	r3, r3, r2
 6473 6114 0030C4E5 		strb	r3, [r4, #0]
 6474 6118 940F9FE5 		ldr	r0, .L267
 6475 611c FEFFFFEB 		bl	uart_transmit
 6476 6120 0310D6E5 		ldrb	r1, [r6, #3]	@ zero_extendqisi2
 6477 6124 0030D5E5 		ldrb	r3, [r5, #0]	@ zero_extendqisi2
 6478 6128 0020D4E5 		ldrb	r2, [r4, #0]	@ zero_extendqisi2
 6479 612c 033081E0 		add	r3, r1, r3
 6480 6130 FF3003E2 		and	r3, r3, #255
 6481 6134 0030C5E5 		strb	r3, [r5, #0]
 6482 6138 023083E0 		add	r3, r3, r2
 6483 613c 0030C4E5 		strb	r3, [r4, #0]
 6484 6140 6C0F9FE5 		ldr	r0, .L267
 6485 6144 FEFFFFEB 		bl	uart_transmit
 6486 6148 0030D5E5 		ldrb	r3, [r5, #0]	@ zero_extendqisi2
 6487 614c 0020D4E5 		ldrb	r2, [r4, #0]	@ zero_extendqisi2
 6488 6150 033087E0 		add	r3, r7, r3
 6489 6154 FF3003E2 		and	r3, r3, #255
 6490 6158 0030C5E5 		strb	r3, [r5, #0]
 6491 615c 023083E0 		add	r3, r3, r2
 6492 6160 0030C4E5 		strb	r3, [r4, #0]
 6493 6164 0710A0E1 		mov	r1, r7
 6494 6168 440F9FE5 		ldr	r0, .L267
 6495 616c FEFFFFEB 		bl	uart_transmit
 6496 6170 403F9FE5 		ldr	r3, .L267+4
 6497 6174 0010D3E5 		ldrb	r1, [r3, #0]	@ zero_extendqisi2
 6498 6178 0030D5E5 		ldrb	r3, [r5, #0]	@ zero_extendqisi2
 6499 617c 0020D4E5 		ldrb	r2, [r4, #0]	@ zero_extendqisi2
 6500 6180 033081E0 		add	r3, r1, r3
 6501 6184 FF3003E2 		and	r3, r3, #255
 6502 6188 0030C5E5 		strb	r3, [r5, #0]
 6503 618c 023083E0 		add	r3, r3, r2
 6504 6190 0030C4E5 		strb	r3, [r4, #0]
 6505 6194 180F9FE5 		ldr	r0, .L267
 6506 6198 FEFFFFEB 		bl	uart_transmit
 6507 619c 0010D5E5 		ldrb	r1, [r5, #0]	@ zero_extendqisi2
 6508 61a0 0C0F9FE5 		ldr	r0, .L267
 6509 61a4 FEFFFFEB 		bl	uart_transmit
 6510 61a8 040F9FE5 		ldr	r0, .L267
 6511 61ac 0010D4E5 		ldrb	r1, [r4, #0]	@ zero_extendqisi2
 6512 61b0 FEFFFFEB 		bl	uart_transmit
 6513 61b4 030000EA 		b	.L177
 6514              	.L178:
 6515 61b8 B43F9FE5 		ldr	r3, .L267+192
 6516 61bc 0020D3E5 		ldrb	r2, [r3, #0]	@ zero_extendqisi2
 6517 61c0 012082E2 		add	r2, r2, #1
 6518 61c4 0020C3E5 		strb	r2, [r3, #0]
 6519              	.L177:
 6520 61c8 EC3E9FE5 		ldr	r3, .L267+8
 6521 61cc 0030D3E5 		ldrb	r3, [r3, #0]	@ zero_extendqisi2
 6522 61d0 2A0053E3 		cmp	r3, #42
 6523 61d4 AF00001A 		bne	.L179
 6524 61d8 E03E9FE5 		ldr	r3, .L267+12
 6525 61dc 0030D3E5 		ldrb	r3, [r3, #0]	@ zero_extendqisi2
 6526 61e0 000053E3 		cmp	r3, #0
 6527 61e4 AB00000A 		beq	.L179
 6528 61e8 C40E9FE5 		ldr	r0, .L267
 6529 61ec 1210A0E3 		mov	r1, #18
 6530 61f0 FEFFFFEB 		bl	uart_check_free_space
 6531 61f4 000050E3 		cmp	r0, #0
 6532 61f8 A200000A 		beq	.L180
 6533 61fc B43F9FE5 		ldr	r3, .L267+260
 6534 6200 B020D3E1 		ldrh	r2, [r3, #0]
 6535 6204 122082E2 		add	r2, r2, #18
 6536 6208 B020C3E1 		strh	r2, [r3, #0]	@ movhi
 6537 620c A83F9FE5 		ldr	r3, .L267+264
 6538 6210 B020D3E1 		ldrh	r2, [r3, #0]
 6539 6214 012082E2 		add	r2, r2, #1
 6540 6218 B020C3E1 		strh	r2, [r3, #0]	@ movhi
 6541 621c 900E9FE5 		ldr	r0, .L267
 6542 6220 9910A0E3 		mov	r1, #153
 6543 6224 345F9FE5 		ldr	r5, .L267+172
 6544 6228 FEFFFFEB 		bl	uart_transmit
 6545 622c 800E9FE5 		ldr	r0, .L267
 6546 6230 1210A0E3 		mov	r1, #18
 6547 6234 284F9FE5 		ldr	r4, .L267+176
 6548 6238 FEFFFFEB 		bl	uart_transmit
 6549 623c 1430A0E3 		mov	r3, #20
 6550 6240 0030C5E5 		strb	r3, [r5, #0]
 6551 6244 2630A0E3 		mov	r3, #38
 6552 6248 0030C4E5 		strb	r3, [r4, #0]
 6553 624c 600E9FE5 		ldr	r0, .L267
 6554 6250 0210A0E3 		mov	r1, #2
 6555 6254 FEFFFFEB 		bl	uart_transmit
 6556 6258 0030D5E5 		ldrb	r3, [r5, #0]	@ zero_extendqisi2
 6557 625c 0020D4E5 		ldrb	r2, [r4, #0]	@ zero_extendqisi2
 6558 6260 153083E2 		add	r3, r3, #21
 6559 6264 FF3003E2 		and	r3, r3, #255
 6560 6268 546E9FE5 		ldr	r6, .L267+16
 6561 626c 0030C5E5 		strb	r3, [r5, #0]
 6562 6270 023083E0 		add	r3, r3, r2
 6563 6274 0030C4E5 		strb	r3, [r4, #0]
 6564 6278 340E9FE5 		ldr	r0, .L267
 6565 627c 1510A0E3 		mov	r1, #21
 6566 6280 FEFFFFEB 		bl	uart_transmit
 6567 6284 0010D6E5 		ldrb	r1, [r6, #0]	@ zero_extendqisi2
 6568 6288 0030D5E5 		ldrb	r3, [r5, #0]	@ zero_extendqisi2
 6569 628c 0020D4E5 		ldrb	r2, [r4, #0]	@ zero_extendqisi2
 6570 6290 033081E0 		add	r3, r1, r3
 6571 6294 FF3003E2 		and	r3, r3, #255
 6572 6298 0030C5E5 		strb	r3, [r5, #0]
 6573 629c 023083E0 		add	r3, r3, r2
 6574 62a0 0030C4E5 		strb	r3, [r4, #0]
 6575 62a4 080E9FE5 		ldr	r0, .L267
 6576 62a8 FEFFFFEB 		bl	uart_transmit
 6577 62ac 0110D6E5 		ldrb	r1, [r6, #1]	@ zero_extendqisi2
 6578 62b0 0030D5E5 		ldrb	r3, [r5, #0]	@ zero_extendqisi2
 6579 62b4 0020D4E5 		ldrb	r2, [r4, #0]	@ zero_extendqisi2
 6580 62b8 033081E0 		add	r3, r1, r3
 6581 62bc FF3003E2 		and	r3, r3, #255
 6582 62c0 0030C5E5 		strb	r3, [r5, #0]
 6583 62c4 023083E0 		add	r3, r3, r2
 6584 62c8 0030C4E5 		strb	r3, [r4, #0]
 6585 62cc E00D9FE5 		ldr	r0, .L267
 6586 62d0 FEFFFFEB 		bl	uart_transmit
 6587 62d4 0210D6E5 		ldrb	r1, [r6, #2]	@ zero_extendqisi2
 6588 62d8 0030D5E5 		ldrb	r3, [r5, #0]	@ zero_extendqisi2
 6589 62dc 0020D4E5 		ldrb	r2, [r4, #0]	@ zero_extendqisi2
 6590 62e0 033081E0 		add	r3, r1, r3
 6591 62e4 FF3003E2 		and	r3, r3, #255
 6592 62e8 0030C5E5 		strb	r3, [r5, #0]
 6593 62ec 023083E0 		add	r3, r3, r2
 6594 62f0 0030C4E5 		strb	r3, [r4, #0]
 6595 62f4 B80D9FE5 		ldr	r0, .L267
 6596 62f8 FEFFFFEB 		bl	uart_transmit
 6597 62fc 0310D6E5 		ldrb	r1, [r6, #3]	@ zero_extendqisi2
 6598 6300 0030D5E5 		ldrb	r3, [r5, #0]	@ zero_extendqisi2
 6599 6304 0020D4E5 		ldrb	r2, [r4, #0]	@ zero_extendqisi2
 6600 6308 033081E0 		add	r3, r1, r3
 6601 630c FF3003E2 		and	r3, r3, #255
 6602 6310 B06D9FE5 		ldr	r6, .L267+20
 6603 6314 0030C5E5 		strb	r3, [r5, #0]
 6604 6318 023083E0 		add	r3, r3, r2
 6605 631c 0030C4E5 		strb	r3, [r4, #0]
 6606 6320 8C0D9FE5 		ldr	r0, .L267
 6607 6324 FEFFFFEB 		bl	uart_transmit
 6608 6328 0010D6E5 		ldrb	r1, [r6, #0]	@ zero_extendqisi2
 6609 632c 0030D5E5 		ldrb	r3, [r5, #0]	@ zero_extendqisi2
 6610 6330 0020D4E5 		ldrb	r2, [r4, #0]	@ zero_extendqisi2
 6611 6334 033081E0 		add	r3, r1, r3
 6612 6338 FF3003E2 		and	r3, r3, #255
 6613 633c 0030C5E5 		strb	r3, [r5, #0]
 6614 6340 023083E0 		add	r3, r3, r2
 6615 6344 0030C4E5 		strb	r3, [r4, #0]
 6616 6348 640D9FE5 		ldr	r0, .L267
 6617 634c FEFFFFEB 		bl	uart_transmit
 6618 6350 0110D6E5 		ldrb	r1, [r6, #1]	@ zero_extendqisi2
 6619 6354 0030D5E5 		ldrb	r3, [r5, #0]	@ zero_extendqisi2
 6620 6358 0020D4E5 		ldrb	r2, [r4, #0]	@ zero_extendqisi2
 6621 635c 033081E0 		add	r3, r1, r3
 6622 6360 FF3003E2 		and	r3, r3, #255
 6623 6364 0030C5E5 		strb	r3, [r5, #0]
 6624 6368 023083E0 		add	r3, r3, r2
 6625 636c 0030C4E5 		strb	r3, [r4, #0]
 6626 6370 3C0D9FE5 		ldr	r0, .L267
 6627 6374 FEFFFFEB 		bl	uart_transmit
 6628 6378 0210D6E5 		ldrb	r1, [r6, #2]	@ zero_extendqisi2
 6629 637c 0030D5E5 		ldrb	r3, [r5, #0]	@ zero_extendqisi2
 6630 6380 0020D4E5 		ldrb	r2, [r4, #0]	@ zero_extendqisi2
 6631 6384 033081E0 		add	r3, r1, r3
 6632 6388 FF3003E2 		and	r3, r3, #255
 6633 638c 0030C5E5 		strb	r3, [r5, #0]
 6634 6390 023083E0 		add	r3, r3, r2
 6635 6394 0030C4E5 		strb	r3, [r4, #0]
 6636 6398 140D9FE5 		ldr	r0, .L267
 6637 639c FEFFFFEB 		bl	uart_transmit
 6638 63a0 0310D6E5 		ldrb	r1, [r6, #3]	@ zero_extendqisi2
 6639 63a4 0030D5E5 		ldrb	r3, [r5, #0]	@ zero_extendqisi2
 6640 63a8 0020D4E5 		ldrb	r2, [r4, #0]	@ zero_extendqisi2
 6641 63ac 033081E0 		add	r3, r1, r3
 6642 63b0 FF3003E2 		and	r3, r3, #255
 6643 63b4 106D9FE5 		ldr	r6, .L267+24
 6644 63b8 0030C5E5 		strb	r3, [r5, #0]
 6645 63bc 023083E0 		add	r3, r3, r2
 6646 63c0 0030C4E5 		strb	r3, [r4, #0]
 6647 63c4 E80C9FE5 		ldr	r0, .L267
 6648 63c8 FEFFFFEB 		bl	uart_transmit
 6649 63cc 0010D6E5 		ldrb	r1, [r6, #0]	@ zero_extendqisi2
 6650 63d0 0030D5E5 		ldrb	r3, [r5, #0]	@ zero_extendqisi2
 6651 63d4 0020D4E5 		ldrb	r2, [r4, #0]	@ zero_extendqisi2
 6652 63d8 033081E0 		add	r3, r1, r3
 6653 63dc FF3003E2 		and	r3, r3, #255
 6654 63e0 0030C5E5 		strb	r3, [r5, #0]
 6655 63e4 023083E0 		add	r3, r3, r2
 6656 63e8 0030C4E5 		strb	r3, [r4, #0]
 6657 63ec C00C9FE5 		ldr	r0, .L267
 6658 63f0 FEFFFFEB 		bl	uart_transmit
 6659 63f4 0110D6E5 		ldrb	r1, [r6, #1]	@ zero_extendqisi2
 6660 63f8 0030D5E5 		ldrb	r3, [r5, #0]	@ zero_extendqisi2
 6661 63fc 0020D4E5 		ldrb	r2, [r4, #0]	@ zero_extendqisi2
 6662 6400 033081E0 		add	r3, r1, r3
 6663 6404 FF3003E2 		and	r3, r3, #255
 6664 6408 0030C5E5 		strb	r3, [r5, #0]
 6665 640c 023083E0 		add	r3, r3, r2
 6666 6410 0030C4E5 		strb	r3, [r4, #0]
 6667 6414 980C9FE5 		ldr	r0, .L267
 6668 6418 FEFFFFEB 		bl	uart_transmit
 6669 641c 0210D6E5 		ldrb	r1, [r6, #2]	@ zero_extendqisi2
 6670 6420 0030D5E5 		ldrb	r3, [r5, #0]	@ zero_extendqisi2
 6671 6424 0020D4E5 		ldrb	r2, [r4, #0]	@ zero_extendqisi2
 6672 6428 033081E0 		add	r3, r1, r3
 6673 642c FF3003E2 		and	r3, r3, #255
 6674 6430 0030C5E5 		strb	r3, [r5, #0]
 6675 6434 023083E0 		add	r3, r3, r2
 6676 6438 0030C4E5 		strb	r3, [r4, #0]
 6677 643c 700C9FE5 		ldr	r0, .L267
 6678 6440 FEFFFFEB 		bl	uart_transmit
 6679 6444 0310D6E5 		ldrb	r1, [r6, #3]	@ zero_extendqisi2
 6680 6448 0030D5E5 		ldrb	r3, [r5, #0]	@ zero_extendqisi2
 6681 644c 0020D4E5 		ldrb	r2, [r4, #0]	@ zero_extendqisi2
 6682 6450 033081E0 		add	r3, r1, r3
 6683 6454 FF3003E2 		and	r3, r3, #255
 6684 6458 0030C5E5 		strb	r3, [r5, #0]
 6685 645c 023083E0 		add	r3, r3, r2
 6686 6460 0030C4E5 		strb	r3, [r4, #0]
 6687 6464 480C9FE5 		ldr	r0, .L267
 6688 6468 FEFFFFEB 		bl	uart_transmit
 6689 646c 0010D5E5 		ldrb	r1, [r5, #0]	@ zero_extendqisi2
 6690 6470 3C0C9FE5 		ldr	r0, .L267
 6691 6474 FEFFFFEB 		bl	uart_transmit
 6692 6478 340C9FE5 		ldr	r0, .L267
 6693 647c 0010D4E5 		ldrb	r1, [r4, #0]	@ zero_extendqisi2
 6694 6480 FEFFFFEB 		bl	uart_transmit
 6695 6484 030000EA 		b	.L179
 6696              	.L180:
 6697 6488 E43C9FE5 		ldr	r3, .L267+192
 6698 648c 0020D3E5 		ldrb	r2, [r3, #0]	@ zero_extendqisi2
 6699 6490 012082E2 		add	r2, r2, #1
 6700 6494 0020C3E5 		strb	r2, [r3, #0]
 6701              	.L179:
 6702 6498 303C9FE5 		ldr	r3, .L267+28
 6703 649c 0030D3E5 		ldrb	r3, [r3, #0]	@ zero_extendqisi2
 6704 64a0 300053E3 		cmp	r3, #48
 6705 64a4 D800001A 		bne	.L181
 6706 64a8 243C9FE5 		ldr	r3, .L267+32
 6707 64ac 0030D3E5 		ldrb	r3, [r3, #0]	@ zero_extendqisi2
 6708 64b0 000053E3 		cmp	r3, #0
 6709 64b4 D400000A 		beq	.L181
 6710 64b8 F40B9FE5 		ldr	r0, .L267
 6711 64bc 1610A0E3 		mov	r1, #22
 6712 64c0 FEFFFFEB 		bl	uart_check_free_space
 6713 64c4 000050E3 		cmp	r0, #0
 6714 64c8 CB00000A 		beq	.L182
 6715 64cc E43C9FE5 		ldr	r3, .L267+260
 6716 64d0 B020D3E1 		ldrh	r2, [r3, #0]
 6717 64d4 162082E2 		add	r2, r2, #22
 6718 64d8 B020C3E1 		strh	r2, [r3, #0]	@ movhi
 6719 64dc D83C9FE5 		ldr	r3, .L267+264
 6720 64e0 B020D3E1 		ldrh	r2, [r3, #0]
 6721 64e4 012082E2 		add	r2, r2, #1
 6722 64e8 B020C3E1 		strh	r2, [r3, #0]	@ movhi
 6723 64ec C00B9FE5 		ldr	r0, .L267
 6724 64f0 9910A0E3 		mov	r1, #153
 6725 64f4 645C9FE5 		ldr	r5, .L267+172
 6726 64f8 FEFFFFEB 		bl	uart_transmit
 6727 64fc B00B9FE5 		ldr	r0, .L267
 6728 6500 1610A0E3 		mov	r1, #22
 6729 6504 584C9FE5 		ldr	r4, .L267+176
 6730 6508 FEFFFFEB 		bl	uart_transmit
 6731 650c 1830A0E3 		mov	r3, #24
 6732 6510 0030C5E5 		strb	r3, [r5, #0]
 6733 6514 2E30A0E3 		mov	r3, #46
 6734 6518 0030C4E5 		strb	r3, [r4, #0]
 6735 651c 900B9FE5 		ldr	r0, .L267
 6736 6520 0210A0E3 		mov	r1, #2
 6737 6524 FEFFFFEB 		bl	uart_transmit
 6738 6528 0030D5E5 		ldrb	r3, [r5, #0]	@ zero_extendqisi2
 6739 652c 0020D4E5 		ldrb	r2, [r4, #0]	@ zero_extendqisi2
 6740 6530 163083E2 		add	r3, r3, #22
 6741 6534 FF3003E2 		and	r3, r3, #255
 6742 6538 986B9FE5 		ldr	r6, .L267+36
 6743 653c 0030C5E5 		strb	r3, [r5, #0]
 6744 6540 023083E0 		add	r3, r3, r2
 6745 6544 0030C4E5 		strb	r3, [r4, #0]
 6746 6548 640B9FE5 		ldr	r0, .L267
 6747 654c 1610A0E3 		mov	r1, #22
 6748 6550 FEFFFFEB 		bl	uart_transmit
 6749 6554 0010D6E5 		ldrb	r1, [r6, #0]	@ zero_extendqisi2
 6750 6558 0030D5E5 		ldrb	r3, [r5, #0]	@ zero_extendqisi2
 6751 655c 0020D4E5 		ldrb	r2, [r4, #0]	@ zero_extendqisi2
 6752 6560 033081E0 		add	r3, r1, r3
 6753 6564 FF3003E2 		and	r3, r3, #255
 6754 6568 0030C5E5 		strb	r3, [r5, #0]
 6755 656c 023083E0 		add	r3, r3, r2
 6756 6570 0030C4E5 		strb	r3, [r4, #0]
 6757 6574 380B9FE5 		ldr	r0, .L267
 6758 6578 FEFFFFEB 		bl	uart_transmit
 6759 657c 0110D6E5 		ldrb	r1, [r6, #1]	@ zero_extendqisi2
 6760 6580 0030D5E5 		ldrb	r3, [r5, #0]	@ zero_extendqisi2
 6761 6584 0020D4E5 		ldrb	r2, [r4, #0]	@ zero_extendqisi2
 6762 6588 033081E0 		add	r3, r1, r3
 6763 658c FF3003E2 		and	r3, r3, #255
 6764 6590 0030C5E5 		strb	r3, [r5, #0]
 6765 6594 023083E0 		add	r3, r3, r2
 6766 6598 0030C4E5 		strb	r3, [r4, #0]
 6767 659c 100B9FE5 		ldr	r0, .L267
 6768 65a0 FEFFFFEB 		bl	uart_transmit
 6769 65a4 0210D6E5 		ldrb	r1, [r6, #2]	@ zero_extendqisi2
 6770 65a8 0030D5E5 		ldrb	r3, [r5, #0]	@ zero_extendqisi2
 6771 65ac 0020D4E5 		ldrb	r2, [r4, #0]	@ zero_extendqisi2
 6772 65b0 033081E0 		add	r3, r1, r3
 6773 65b4 FF3003E2 		and	r3, r3, #255
 6774 65b8 0030C5E5 		strb	r3, [r5, #0]
 6775 65bc 023083E0 		add	r3, r3, r2
 6776 65c0 0030C4E5 		strb	r3, [r4, #0]
 6777 65c4 E80A9FE5 		ldr	r0, .L267
 6778 65c8 FEFFFFEB 		bl	uart_transmit
 6779 65cc 0310D6E5 		ldrb	r1, [r6, #3]	@ zero_extendqisi2
 6780 65d0 0030D5E5 		ldrb	r3, [r5, #0]	@ zero_extendqisi2
 6781 65d4 0020D4E5 		ldrb	r2, [r4, #0]	@ zero_extendqisi2
 6782 65d8 033081E0 		add	r3, r1, r3
 6783 65dc FF3003E2 		and	r3, r3, #255
 6784 65e0 F46A9FE5 		ldr	r6, .L267+40
 6785 65e4 0030C5E5 		strb	r3, [r5, #0]
 6786 65e8 023083E0 		add	r3, r3, r2
 6787 65ec 0030C4E5 		strb	r3, [r4, #0]
 6788 65f0 BC0A9FE5 		ldr	r0, .L267
 6789 65f4 FEFFFFEB 		bl	uart_transmit
 6790 65f8 0010D6E5 		ldrb	r1, [r6, #0]	@ zero_extendqisi2
 6791 65fc 0030D5E5 		ldrb	r3, [r5, #0]	@ zero_extendqisi2
 6792 6600 0020D4E5 		ldrb	r2, [r4, #0]	@ zero_extendqisi2
 6793 6604 033081E0 		add	r3, r1, r3
 6794 6608 FF3003E2 		and	r3, r3, #255
 6795 660c 0030C5E5 		strb	r3, [r5, #0]
 6796 6610 023083E0 		add	r3, r3, r2
 6797 6614 0030C4E5 		strb	r3, [r4, #0]
 6798 6618 940A9FE5 		ldr	r0, .L267
 6799 661c FEFFFFEB 		bl	uart_transmit
 6800 6620 0110D6E5 		ldrb	r1, [r6, #1]	@ zero_extendqisi2
 6801 6624 0030D5E5 		ldrb	r3, [r5, #0]	@ zero_extendqisi2
 6802 6628 0020D4E5 		ldrb	r2, [r4, #0]	@ zero_extendqisi2
 6803 662c 033081E0 		add	r3, r1, r3
 6804 6630 FF3003E2 		and	r3, r3, #255
 6805 6634 0030C5E5 		strb	r3, [r5, #0]
 6806 6638 023083E0 		add	r3, r3, r2
 6807 663c 0030C4E5 		strb	r3, [r4, #0]
 6808 6640 6C0A9FE5 		ldr	r0, .L267
 6809 6644 FEFFFFEB 		bl	uart_transmit
 6810 6648 0210D6E5 		ldrb	r1, [r6, #2]	@ zero_extendqisi2
 6811 664c 0030D5E5 		ldrb	r3, [r5, #0]	@ zero_extendqisi2
 6812 6650 0020D4E5 		ldrb	r2, [r4, #0]	@ zero_extendqisi2
 6813 6654 033081E0 		add	r3, r1, r3
 6814 6658 FF3003E2 		and	r3, r3, #255
 6815 665c 0030C5E5 		strb	r3, [r5, #0]
 6816 6660 023083E0 		add	r3, r3, r2
 6817 6664 0030C4E5 		strb	r3, [r4, #0]
 6818 6668 440A9FE5 		ldr	r0, .L267
 6819 666c FEFFFFEB 		bl	uart_transmit
 6820 6670 0310D6E5 		ldrb	r1, [r6, #3]	@ zero_extendqisi2
 6821 6674 0030D5E5 		ldrb	r3, [r5, #0]	@ zero_extendqisi2
 6822 6678 0020D4E5 		ldrb	r2, [r4, #0]	@ zero_extendqisi2
 6823 667c 033081E0 		add	r3, r1, r3
 6824 6680 FF3003E2 		and	r3, r3, #255
 6825 6684 546A9FE5 		ldr	r6, .L267+44
 6826 6688 0030C5E5 		strb	r3, [r5, #0]
 6827 668c 023083E0 		add	r3, r3, r2
 6828 6690 0030C4E5 		strb	r3, [r4, #0]
 6829 6694 180A9FE5 		ldr	r0, .L267
 6830 6698 FEFFFFEB 		bl	uart_transmit
 6831 669c 0010D6E5 		ldrb	r1, [r6, #0]	@ zero_extendqisi2
 6832 66a0 0030D5E5 		ldrb	r3, [r5, #0]	@ zero_extendqisi2
 6833 66a4 0020D4E5 		ldrb	r2, [r4, #0]	@ zero_extendqisi2
 6834 66a8 033081E0 		add	r3, r1, r3
 6835 66ac FF3003E2 		and	r3, r3, #255
 6836 66b0 0030C5E5 		strb	r3, [r5, #0]
 6837 66b4 023083E0 		add	r3, r3, r2
 6838 66b8 0030C4E5 		strb	r3, [r4, #0]
 6839 66bc F0099FE5 		ldr	r0, .L267
 6840 66c0 FEFFFFEB 		bl	uart_transmit
 6841 66c4 0110D6E5 		ldrb	r1, [r6, #1]	@ zero_extendqisi2
 6842 66c8 0030D5E5 		ldrb	r3, [r5, #0]	@ zero_extendqisi2
 6843 66cc 0020D4E5 		ldrb	r2, [r4, #0]	@ zero_extendqisi2
 6844 66d0 033081E0 		add	r3, r1, r3
 6845 66d4 FF3003E2 		and	r3, r3, #255
 6846 66d8 0030C5E5 		strb	r3, [r5, #0]
 6847 66dc 023083E0 		add	r3, r3, r2
 6848 66e0 0030C4E5 		strb	r3, [r4, #0]
 6849 66e4 C8099FE5 		ldr	r0, .L267
 6850 66e8 FEFFFFEB 		bl	uart_transmit
 6851 66ec 0210D6E5 		ldrb	r1, [r6, #2]	@ zero_extendqisi2
 6852 66f0 0030D5E5 		ldrb	r3, [r5, #0]	@ zero_extendqisi2
 6853 66f4 0020D4E5 		ldrb	r2, [r4, #0]	@ zero_extendqisi2
 6854 66f8 033081E0 		add	r3, r1, r3
 6855 66fc FF3003E2 		and	r3, r3, #255
 6856 6700 0030C5E5 		strb	r3, [r5, #0]
 6857 6704 023083E0 		add	r3, r3, r2
 6858 6708 0030C4E5 		strb	r3, [r4, #0]
 6859 670c A0099FE5 		ldr	r0, .L267
 6860 6710 FEFFFFEB 		bl	uart_transmit
 6861 6714 0310D6E5 		ldrb	r1, [r6, #3]	@ zero_extendqisi2
 6862 6718 0030D5E5 		ldrb	r3, [r5, #0]	@ zero_extendqisi2
 6863 671c 0020D4E5 		ldrb	r2, [r4, #0]	@ zero_extendqisi2
 6864 6720 033081E0 		add	r3, r1, r3
 6865 6724 FF3003E2 		and	r3, r3, #255
 6866 6728 B4699FE5 		ldr	r6, .L267+48
 6867 672c 0030C5E5 		strb	r3, [r5, #0]
 6868 6730 023083E0 		add	r3, r3, r2
 6869 6734 0030C4E5 		strb	r3, [r4, #0]
 6870 6738 74099FE5 		ldr	r0, .L267
 6871 673c FEFFFFEB 		bl	uart_transmit
 6872 6740 0010D6E5 		ldrb	r1, [r6, #0]	@ zero_extendqisi2
 6873 6744 0030D5E5 		ldrb	r3, [r5, #0]	@ zero_extendqisi2
 6874 6748 0020D4E5 		ldrb	r2, [r4, #0]	@ zero_extendqisi2
 6875 674c 033081E0 		add	r3, r1, r3
 6876 6750 FF3003E2 		and	r3, r3, #255
 6877 6754 0030C5E5 		strb	r3, [r5, #0]
 6878 6758 023083E0 		add	r3, r3, r2
 6879 675c 0030C4E5 		strb	r3, [r4, #0]
 6880 6760 4C099FE5 		ldr	r0, .L267
 6881 6764 FEFFFFEB 		bl	uart_transmit
 6882 6768 0110D6E5 		ldrb	r1, [r6, #1]	@ zero_extendqisi2
 6883 676c 0030D5E5 		ldrb	r3, [r5, #0]	@ zero_extendqisi2
 6884 6770 0020D4E5 		ldrb	r2, [r4, #0]	@ zero_extendqisi2
 6885 6774 033081E0 		add	r3, r1, r3
 6886 6778 FF3003E2 		and	r3, r3, #255
 6887 677c 0030C5E5 		strb	r3, [r5, #0]
 6888 6780 023083E0 		add	r3, r3, r2
 6889 6784 0030C4E5 		strb	r3, [r4, #0]
 6890 6788 24099FE5 		ldr	r0, .L267
 6891 678c FEFFFFEB 		bl	uart_transmit
 6892 6790 0210D6E5 		ldrb	r1, [r6, #2]	@ zero_extendqisi2
 6893 6794 0030D5E5 		ldrb	r3, [r5, #0]	@ zero_extendqisi2
 6894 6798 0020D4E5 		ldrb	r2, [r4, #0]	@ zero_extendqisi2
 6895 679c 033081E0 		add	r3, r1, r3
 6896 67a0 FF3003E2 		and	r3, r3, #255
 6897 67a4 0030C5E5 		strb	r3, [r5, #0]
 6898 67a8 023083E0 		add	r3, r3, r2
 6899 67ac 0030C4E5 		strb	r3, [r4, #0]
 6900 67b0 FC089FE5 		ldr	r0, .L267
 6901 67b4 FEFFFFEB 		bl	uart_transmit
 6902 67b8 0310D6E5 		ldrb	r1, [r6, #3]	@ zero_extendqisi2
 6903 67bc 0030D5E5 		ldrb	r3, [r5, #0]	@ zero_extendqisi2
 6904 67c0 0020D4E5 		ldrb	r2, [r4, #0]	@ zero_extendqisi2
 6905 67c4 033081E0 		add	r3, r1, r3
 6906 67c8 FF3003E2 		and	r3, r3, #255
 6907 67cc 0030C5E5 		strb	r3, [r5, #0]
 6908 67d0 023083E0 		add	r3, r3, r2
 6909 67d4 0030C4E5 		strb	r3, [r4, #0]
 6910 67d8 D4089FE5 		ldr	r0, .L267
 6911 67dc FEFFFFEB 		bl	uart_transmit
 6912 67e0 0010D5E5 		ldrb	r1, [r5, #0]	@ zero_extendqisi2
 6913 67e4 C8089FE5 		ldr	r0, .L267
 6914 67e8 FEFFFFEB 		bl	uart_transmit
 6915 67ec C0089FE5 		ldr	r0, .L267
 6916 67f0 0010D4E5 		ldrb	r1, [r4, #0]	@ zero_extendqisi2
 6917 67f4 FEFFFFEB 		bl	uart_transmit
 6918 67f8 030000EA 		b	.L181
 6919              	.L182:
 6920 67fc 70399FE5 		ldr	r3, .L267+192
 6921 6800 0020D3E5 		ldrb	r2, [r3, #0]	@ zero_extendqisi2
 6922 6804 012082E2 		add	r2, r2, #1
 6923 6808 0020C3E5 		strb	r2, [r3, #0]
 6924              	.L181:
 6925 680c D4389FE5 		ldr	r3, .L267+52
 6926 6810 0030D3E5 		ldrb	r3, [r3, #0]	@ zero_extendqisi2
 6927 6814 360053E3 		cmp	r3, #54
 6928 6818 AB00001A 		bne	.L183
 6929 681c 90089FE5 		ldr	r0, .L267
 6930 6820 1210A0E3 		mov	r1, #18
 6931 6824 FEFFFFEB 		bl	uart_check_free_space
 6932 6828 000050E3 		cmp	r0, #0
 6933 682c A200000A 		beq	.L184
 6934 6830 80399FE5 		ldr	r3, .L267+260
 6935 6834 B020D3E1 		ldrh	r2, [r3, #0]
 6936 6838 122082E2 		add	r2, r2, #18
 6937 683c B020C3E1 		strh	r2, [r3, #0]	@ movhi
 6938 6840 74399FE5 		ldr	r3, .L267+264
 6939 6844 B020D3E1 		ldrh	r2, [r3, #0]
 6940 6848 012082E2 		add	r2, r2, #1
 6941 684c B020C3E1 		strh	r2, [r3, #0]	@ movhi
 6942 6850 5C089FE5 		ldr	r0, .L267
 6943 6854 9910A0E3 		mov	r1, #153
 6944 6858 00599FE5 		ldr	r5, .L267+172
 6945 685c FEFFFFEB 		bl	uart_transmit
 6946 6860 4C089FE5 		ldr	r0, .L267
 6947 6864 1210A0E3 		mov	r1, #18
 6948 6868 F4489FE5 		ldr	r4, .L267+176
 6949 686c FEFFFFEB 		bl	uart_transmit
 6950 6870 1430A0E3 		mov	r3, #20
 6951 6874 0030C5E5 		strb	r3, [r5, #0]
 6952 6878 2630A0E3 		mov	r3, #38
 6953 687c 0030C4E5 		strb	r3, [r4, #0]
 6954 6880 2C089FE5 		ldr	r0, .L267
 6955 6884 0210A0E3 		mov	r1, #2
 6956 6888 FEFFFFEB 		bl	uart_transmit
 6957 688c 0030D5E5 		ldrb	r3, [r5, #0]	@ zero_extendqisi2
 6958 6890 0020D4E5 		ldrb	r2, [r4, #0]	@ zero_extendqisi2
 6959 6894 063083E2 		add	r3, r3, #6
 6960 6898 FF3003E2 		and	r3, r3, #255
 6961 689c 48689FE5 		ldr	r6, .L267+56
 6962 68a0 0030C5E5 		strb	r3, [r5, #0]
 6963 68a4 023083E0 		add	r3, r3, r2
 6964 68a8 0030C4E5 		strb	r3, [r4, #0]
 6965 68ac 00089FE5 		ldr	r0, .L267
 6966 68b0 0610A0E3 		mov	r1, #6
 6967 68b4 FEFFFFEB 		bl	uart_transmit
 6968 68b8 0010D6E5 		ldrb	r1, [r6, #0]	@ zero_extendqisi2
 6969 68bc 0030D5E5 		ldrb	r3, [r5, #0]	@ zero_extendqisi2
 6970 68c0 0020D4E5 		ldrb	r2, [r4, #0]	@ zero_extendqisi2
 6971 68c4 033081E0 		add	r3, r1, r3
 6972 68c8 FF3003E2 		and	r3, r3, #255
 6973 68cc 0030C5E5 		strb	r3, [r5, #0]
 6974 68d0 023083E0 		add	r3, r3, r2
 6975 68d4 0030C4E5 		strb	r3, [r4, #0]
 6976 68d8 D4079FE5 		ldr	r0, .L267
 6977 68dc FEFFFFEB 		bl	uart_transmit
 6978 68e0 0110D6E5 		ldrb	r1, [r6, #1]	@ zero_extendqisi2
 6979 68e4 0030D5E5 		ldrb	r3, [r5, #0]	@ zero_extendqisi2
 6980 68e8 0020D4E5 		ldrb	r2, [r4, #0]	@ zero_extendqisi2
 6981 68ec 033081E0 		add	r3, r1, r3
 6982 68f0 FF3003E2 		and	r3, r3, #255
 6983 68f4 0030C5E5 		strb	r3, [r5, #0]
 6984 68f8 023083E0 		add	r3, r3, r2
 6985 68fc 0030C4E5 		strb	r3, [r4, #0]
 6986 6900 AC079FE5 		ldr	r0, .L267
 6987 6904 FEFFFFEB 		bl	uart_transmit
 6988 6908 0210D6E5 		ldrb	r1, [r6, #2]	@ zero_extendqisi2
 6989 690c 0030D5E5 		ldrb	r3, [r5, #0]	@ zero_extendqisi2
 6990 6910 0020D4E5 		ldrb	r2, [r4, #0]	@ zero_extendqisi2
 6991 6914 033081E0 		add	r3, r1, r3
 6992 6918 FF3003E2 		and	r3, r3, #255
 6993 691c 0030C5E5 		strb	r3, [r5, #0]
 6994 6920 023083E0 		add	r3, r3, r2
 6995 6924 0030C4E5 		strb	r3, [r4, #0]
 6996 6928 84079FE5 		ldr	r0, .L267
 6997 692c FEFFFFEB 		bl	uart_transmit
 6998 6930 0310D6E5 		ldrb	r1, [r6, #3]	@ zero_extendqisi2
 6999 6934 0030D5E5 		ldrb	r3, [r5, #0]	@ zero_extendqisi2
 7000 6938 0020D4E5 		ldrb	r2, [r4, #0]	@ zero_extendqisi2
 7001 693c 033081E0 		add	r3, r1, r3
 7002 6940 FF3003E2 		and	r3, r3, #255
 7003 6944 A4679FE5 		ldr	r6, .L267+60
 7004 6948 0030C5E5 		strb	r3, [r5, #0]
 7005 694c 023083E0 		add	r3, r3, r2
 7006 6950 0030C4E5 		strb	r3, [r4, #0]
 7007 6954 58079FE5 		ldr	r0, .L267
 7008 6958 FEFFFFEB 		bl	uart_transmit
 7009 695c 0010D6E5 		ldrb	r1, [r6, #0]	@ zero_extendqisi2
 7010 6960 0030D5E5 		ldrb	r3, [r5, #0]	@ zero_extendqisi2
 7011 6964 0020D4E5 		ldrb	r2, [r4, #0]	@ zero_extendqisi2
 7012 6968 033081E0 		add	r3, r1, r3
 7013 696c FF3003E2 		and	r3, r3, #255
 7014 6970 0030C5E5 		strb	r3, [r5, #0]
 7015 6974 023083E0 		add	r3, r3, r2
 7016 6978 0030C4E5 		strb	r3, [r4, #0]
 7017 697c 30079FE5 		ldr	r0, .L267
 7018 6980 FEFFFFEB 		bl	uart_transmit
 7019 6984 0110D6E5 		ldrb	r1, [r6, #1]	@ zero_extendqisi2
 7020 6988 0030D5E5 		ldrb	r3, [r5, #0]	@ zero_extendqisi2
 7021 698c 0020D4E5 		ldrb	r2, [r4, #0]	@ zero_extendqisi2
 7022 6990 033081E0 		add	r3, r1, r3
 7023 6994 FF3003E2 		and	r3, r3, #255
 7024 6998 0030C5E5 		strb	r3, [r5, #0]
 7025 699c 023083E0 		add	r3, r3, r2
 7026 69a0 0030C4E5 		strb	r3, [r4, #0]
 7027 69a4 08079FE5 		ldr	r0, .L267
 7028 69a8 FEFFFFEB 		bl	uart_transmit
 7029 69ac 0210D6E5 		ldrb	r1, [r6, #2]	@ zero_extendqisi2
 7030 69b0 0030D5E5 		ldrb	r3, [r5, #0]	@ zero_extendqisi2
 7031 69b4 0020D4E5 		ldrb	r2, [r4, #0]	@ zero_extendqisi2
 7032 69b8 033081E0 		add	r3, r1, r3
 7033 69bc FF3003E2 		and	r3, r3, #255
 7034 69c0 0030C5E5 		strb	r3, [r5, #0]
 7035 69c4 023083E0 		add	r3, r3, r2
 7036 69c8 0030C4E5 		strb	r3, [r4, #0]
 7037 69cc E0069FE5 		ldr	r0, .L267
 7038 69d0 FEFFFFEB 		bl	uart_transmit
 7039 69d4 0310D6E5 		ldrb	r1, [r6, #3]	@ zero_extendqisi2
 7040 69d8 0030D5E5 		ldrb	r3, [r5, #0]	@ zero_extendqisi2
 7041 69dc 0020D4E5 		ldrb	r2, [r4, #0]	@ zero_extendqisi2
 7042 69e0 033081E0 		add	r3, r1, r3
 7043 69e4 FF3003E2 		and	r3, r3, #255
 7044 69e8 04679FE5 		ldr	r6, .L267+64
 7045 69ec 0030C5E5 		strb	r3, [r5, #0]
 7046 69f0 023083E0 		add	r3, r3, r2
 7047 69f4 0030C4E5 		strb	r3, [r4, #0]
 7048 69f8 B4069FE5 		ldr	r0, .L267
 7049 69fc FEFFFFEB 		bl	uart_transmit
 7050 6a00 0010D6E5 		ldrb	r1, [r6, #0]	@ zero_extendqisi2
 7051 6a04 0030D5E5 		ldrb	r3, [r5, #0]	@ zero_extendqisi2
 7052 6a08 0020D4E5 		ldrb	r2, [r4, #0]	@ zero_extendqisi2
 7053 6a0c 033081E0 		add	r3, r1, r3
 7054 6a10 FF3003E2 		and	r3, r3, #255
 7055 6a14 0030C5E5 		strb	r3, [r5, #0]
 7056 6a18 023083E0 		add	r3, r3, r2
 7057 6a1c 0030C4E5 		strb	r3, [r4, #0]
 7058 6a20 8C069FE5 		ldr	r0, .L267
 7059 6a24 FEFFFFEB 		bl	uart_transmit
 7060 6a28 0110D6E5 		ldrb	r1, [r6, #1]	@ zero_extendqisi2
 7061 6a2c 0030D5E5 		ldrb	r3, [r5, #0]	@ zero_extendqisi2
 7062 6a30 0020D4E5 		ldrb	r2, [r4, #0]	@ zero_extendqisi2
 7063 6a34 033081E0 		add	r3, r1, r3
 7064 6a38 FF3003E2 		and	r3, r3, #255
 7065 6a3c 0030C5E5 		strb	r3, [r5, #0]
 7066 6a40 023083E0 		add	r3, r3, r2
 7067 6a44 0030C4E5 		strb	r3, [r4, #0]
 7068 6a48 64069FE5 		ldr	r0, .L267
 7069 6a4c FEFFFFEB 		bl	uart_transmit
 7070 6a50 0210D6E5 		ldrb	r1, [r6, #2]	@ zero_extendqisi2
 7071 6a54 0030D5E5 		ldrb	r3, [r5, #0]	@ zero_extendqisi2
 7072 6a58 0020D4E5 		ldrb	r2, [r4, #0]	@ zero_extendqisi2
 7073 6a5c 033081E0 		add	r3, r1, r3
 7074 6a60 FF3003E2 		and	r3, r3, #255
 7075 6a64 0030C5E5 		strb	r3, [r5, #0]
 7076 6a68 023083E0 		add	r3, r3, r2
 7077 6a6c 0030C4E5 		strb	r3, [r4, #0]
 7078 6a70 3C069FE5 		ldr	r0, .L267
 7079 6a74 FEFFFFEB 		bl	uart_transmit
 7080 6a78 0310D6E5 		ldrb	r1, [r6, #3]	@ zero_extendqisi2
 7081 6a7c 0030D5E5 		ldrb	r3, [r5, #0]	@ zero_extendqisi2
 7082 6a80 0020D4E5 		ldrb	r2, [r4, #0]	@ zero_extendqisi2
 7083 6a84 033081E0 		add	r3, r1, r3
 7084 6a88 FF3003E2 		and	r3, r3, #255
 7085 6a8c 0030C5E5 		strb	r3, [r5, #0]
 7086 6a90 023083E0 		add	r3, r3, r2
 7087 6a94 0030C4E5 		strb	r3, [r4, #0]
 7088 6a98 14069FE5 		ldr	r0, .L267
 7089 6a9c FEFFFFEB 		bl	uart_transmit
 7090 6aa0 0010D5E5 		ldrb	r1, [r5, #0]	@ zero_extendqisi2
 7091 6aa4 08069FE5 		ldr	r0, .L267
 7092 6aa8 FEFFFFEB 		bl	uart_transmit
 7093 6aac 00069FE5 		ldr	r0, .L267
 7094 6ab0 0010D4E5 		ldrb	r1, [r4, #0]	@ zero_extendqisi2
 7095 6ab4 FEFFFFEB 		bl	uart_transmit
 7096 6ab8 030000EA 		b	.L183
 7097              	.L184:
 7098 6abc B0369FE5 		ldr	r3, .L267+192
 7099 6ac0 0020D3E5 		ldrb	r2, [r3, #0]	@ zero_extendqisi2
 7100 6ac4 012082E2 		add	r2, r2, #1
 7101 6ac8 0020C3E5 		strb	r2, [r3, #0]
 7102              	.L183:
 7103 6acc 24369FE5 		ldr	r3, .L267+68
 7104 6ad0 0030D3E5 		ldrb	r3, [r3, #0]	@ zero_extendqisi2
 7105 6ad4 3C0053E3 		cmp	r3, #60
 7106 6ad8 BC01001A 		bne	.L185
 7107 6adc 18369FE5 		ldr	r3, .L267+72
 7108 6ae0 CC059FE5 		ldr	r0, .L267
 7109 6ae4 2610A0E3 		mov	r1, #38
 7110 6ae8 00308DE5 		str	r3, [sp, #0]	@ float
 7111 6aec FEFFFFEB 		bl	uart_check_free_space
 7112 6af0 000050E3 		cmp	r0, #0
 7113 6af4 B101000A 		beq	.L186
 7114 6af8 B8369FE5 		ldr	r3, .L267+260
 7115 6afc B020D3E1 		ldrh	r2, [r3, #0]
 7116 6b00 262082E2 		add	r2, r2, #38
 7117 6b04 B020C3E1 		strh	r2, [r3, #0]	@ movhi
 7118 6b08 AC369FE5 		ldr	r3, .L267+264
 7119 6b0c B020D3E1 		ldrh	r2, [r3, #0]
 7120 6b10 012082E2 		add	r2, r2, #1
 7121 6b14 B020C3E1 		strh	r2, [r3, #0]	@ movhi
 7122 6b18 94059FE5 		ldr	r0, .L267
 7123 6b1c 9910A0E3 		mov	r1, #153
 7124 6b20 38569FE5 		ldr	r5, .L267+172
 7125 6b24 FEFFFFEB 		bl	uart_transmit
 7126 6b28 84059FE5 		ldr	r0, .L267
 7127 6b2c 2610A0E3 		mov	r1, #38
 7128 6b30 2C469FE5 		ldr	r4, .L267+176
 7129 6b34 FEFFFFEB 		bl	uart_transmit
 7130 6b38 2830A0E3 		mov	r3, #40
 7131 6b3c 0030C5E5 		strb	r3, [r5, #0]
 7132 6b40 4E30A0E3 		mov	r3, #78
 7133 6b44 0030C4E5 		strb	r3, [r4, #0]
 7134 6b48 64059FE5 		ldr	r0, .L267
 7135 6b4c 0210A0E3 		mov	r1, #2
 7136 6b50 FEFFFFEB 		bl	uart_transmit
 7137 6b54 0030D5E5 		ldrb	r3, [r5, #0]	@ zero_extendqisi2
 7138 6b58 0020D4E5 		ldrb	r2, [r4, #0]	@ zero_extendqisi2
 7139 6b5c 103083E2 		add	r3, r3, #16
 7140 6b60 FF3003E2 		and	r3, r3, #255
 7141 6b64 94659FE5 		ldr	r6, .L267+76
 7142 6b68 0030C5E5 		strb	r3, [r5, #0]
 7143 6b6c 023083E0 		add	r3, r3, r2
 7144 6b70 0030C4E5 		strb	r3, [r4, #0]
 7145 6b74 38059FE5 		ldr	r0, .L267
 7146 6b78 1010A0E3 		mov	r1, #16
 7147 6b7c FEFFFFEB 		bl	uart_transmit
 7148 6b80 0010D6E5 		ldrb	r1, [r6, #0]	@ zero_extendqisi2
 7149 6b84 0030D5E5 		ldrb	r3, [r5, #0]	@ zero_extendqisi2
 7150 6b88 0020D4E5 		ldrb	r2, [r4, #0]	@ zero_extendqisi2
 7151 6b8c 033081E0 		add	r3, r1, r3
 7152 6b90 FF3003E2 		and	r3, r3, #255
 7153 6b94 0030C5E5 		strb	r3, [r5, #0]
 7154 6b98 023083E0 		add	r3, r3, r2
 7155 6b9c 0030C4E5 		strb	r3, [r4, #0]
 7156 6ba0 0C059FE5 		ldr	r0, .L267
 7157 6ba4 FEFFFFEB 		bl	uart_transmit
 7158 6ba8 0110D6E5 		ldrb	r1, [r6, #1]	@ zero_extendqisi2
 7159 6bac 0030D5E5 		ldrb	r3, [r5, #0]	@ zero_extendqisi2
 7160 6bb0 0020D4E5 		ldrb	r2, [r4, #0]	@ zero_extendqisi2
 7161 6bb4 033081E0 		add	r3, r1, r3
 7162 6bb8 FF3003E2 		and	r3, r3, #255
 7163 6bbc 0030C5E5 		strb	r3, [r5, #0]
 7164 6bc0 023083E0 		add	r3, r3, r2
 7165 6bc4 0030C4E5 		strb	r3, [r4, #0]
 7166 6bc8 E4049FE5 		ldr	r0, .L267
 7167 6bcc FEFFFFEB 		bl	uart_transmit
 7168 6bd0 0210D6E5 		ldrb	r1, [r6, #2]	@ zero_extendqisi2
 7169 6bd4 0030D5E5 		ldrb	r3, [r5, #0]	@ zero_extendqisi2
 7170 6bd8 0020D4E5 		ldrb	r2, [r4, #0]	@ zero_extendqisi2
 7171 6bdc 033081E0 		add	r3, r1, r3
 7172 6be0 FF3003E2 		and	r3, r3, #255
 7173 6be4 0030C5E5 		strb	r3, [r5, #0]
 7174 6be8 023083E0 		add	r3, r3, r2
 7175 6bec 0030C4E5 		strb	r3, [r4, #0]
 7176 6bf0 BC049FE5 		ldr	r0, .L267
 7177 6bf4 FEFFFFEB 		bl	uart_transmit
 7178 6bf8 0310D6E5 		ldrb	r1, [r6, #3]	@ zero_extendqisi2
 7179 6bfc 0030D5E5 		ldrb	r3, [r5, #0]	@ zero_extendqisi2
 7180 6c00 0020D4E5 		ldrb	r2, [r4, #0]	@ zero_extendqisi2
 7181 6c04 033081E0 		add	r3, r1, r3
 7182 6c08 FF3003E2 		and	r3, r3, #255
 7183 6c0c F0649FE5 		ldr	r6, .L267+80
 7184 6c10 0030C5E5 		strb	r3, [r5, #0]
 7185 6c14 023083E0 		add	r3, r3, r2
 7186 6c18 0030C4E5 		strb	r3, [r4, #0]
 7187 6c1c 90049FE5 		ldr	r0, .L267
 7188 6c20 FEFFFFEB 		bl	uart_transmit
 7189 6c24 0010D6E5 		ldrb	r1, [r6, #0]	@ zero_extendqisi2
 7190 6c28 0030D5E5 		ldrb	r3, [r5, #0]	@ zero_extendqisi2
 7191 6c2c 0020D4E5 		ldrb	r2, [r4, #0]	@ zero_extendqisi2
 7192 6c30 033081E0 		add	r3, r1, r3
 7193 6c34 FF3003E2 		and	r3, r3, #255
 7194 6c38 0030C5E5 		strb	r3, [r5, #0]
 7195 6c3c 023083E0 		add	r3, r3, r2
 7196 6c40 0030C4E5 		strb	r3, [r4, #0]
 7197 6c44 68049FE5 		ldr	r0, .L267
 7198 6c48 FEFFFFEB 		bl	uart_transmit
 7199 6c4c 0110D6E5 		ldrb	r1, [r6, #1]	@ zero_extendqisi2
 7200 6c50 0030D5E5 		ldrb	r3, [r5, #0]	@ zero_extendqisi2
 7201 6c54 0020D4E5 		ldrb	r2, [r4, #0]	@ zero_extendqisi2
 7202 6c58 033081E0 		add	r3, r1, r3
 7203 6c5c FF3003E2 		and	r3, r3, #255
 7204 6c60 0030C5E5 		strb	r3, [r5, #0]
 7205 6c64 023083E0 		add	r3, r3, r2
 7206 6c68 0030C4E5 		strb	r3, [r4, #0]
 7207 6c6c 40049FE5 		ldr	r0, .L267
 7208 6c70 FEFFFFEB 		bl	uart_transmit
 7209 6c74 0210D6E5 		ldrb	r1, [r6, #2]	@ zero_extendqisi2
 7210 6c78 0030D5E5 		ldrb	r3, [r5, #0]	@ zero_extendqisi2
 7211 6c7c 0020D4E5 		ldrb	r2, [r4, #0]	@ zero_extendqisi2
 7212 6c80 033081E0 		add	r3, r1, r3
 7213 6c84 FF3003E2 		and	r3, r3, #255
 7214 6c88 0030C5E5 		strb	r3, [r5, #0]
 7215 6c8c 023083E0 		add	r3, r3, r2
 7216 6c90 0030C4E5 		strb	r3, [r4, #0]
 7217 6c94 18049FE5 		ldr	r0, .L267
 7218 6c98 FEFFFFEB 		bl	uart_transmit
 7219 6c9c 0310D6E5 		ldrb	r1, [r6, #3]	@ zero_extendqisi2
 7220 6ca0 0030D5E5 		ldrb	r3, [r5, #0]	@ zero_extendqisi2
 7221 6ca4 0020D4E5 		ldrb	r2, [r4, #0]	@ zero_extendqisi2
 7222 6ca8 033081E0 		add	r3, r1, r3
 7223 6cac FF3003E2 		and	r3, r3, #255
 7224 6cb0 50649FE5 		ldr	r6, .L267+84
 7225 6cb4 0030C5E5 		strb	r3, [r5, #0]
 7226 6cb8 023083E0 		add	r3, r3, r2
 7227 6cbc 0030C4E5 		strb	r3, [r4, #0]
 7228 6cc0 EC039FE5 		ldr	r0, .L267
 7229 6cc4 FEFFFFEB 		bl	uart_transmit
 7230 6cc8 0010D6E5 		ldrb	r1, [r6, #0]	@ zero_extendqisi2
 7231 6ccc 0030D5E5 		ldrb	r3, [r5, #0]	@ zero_extendqisi2
 7232 6cd0 0020D4E5 		ldrb	r2, [r4, #0]	@ zero_extendqisi2
 7233 6cd4 033081E0 		add	r3, r1, r3
 7234 6cd8 FF3003E2 		and	r3, r3, #255
 7235 6cdc 0030C5E5 		strb	r3, [r5, #0]
 7236 6ce0 023083E0 		add	r3, r3, r2
 7237 6ce4 0030C4E5 		strb	r3, [r4, #0]
 7238 6ce8 C4039FE5 		ldr	r0, .L267
 7239 6cec FEFFFFEB 		bl	uart_transmit
 7240 6cf0 0110D6E5 		ldrb	r1, [r6, #1]	@ zero_extendqisi2
 7241 6cf4 0030D5E5 		ldrb	r3, [r5, #0]	@ zero_extendqisi2
 7242 6cf8 0020D4E5 		ldrb	r2, [r4, #0]	@ zero_extendqisi2
 7243 6cfc 033081E0 		add	r3, r1, r3
 7244 6d00 FF3003E2 		and	r3, r3, #255
 7245 6d04 0030C5E5 		strb	r3, [r5, #0]
 7246 6d08 023083E0 		add	r3, r3, r2
 7247 6d0c 0030C4E5 		strb	r3, [r4, #0]
 7248 6d10 9C039FE5 		ldr	r0, .L267
 7249 6d14 FEFFFFEB 		bl	uart_transmit
 7250 6d18 0210D6E5 		ldrb	r1, [r6, #2]	@ zero_extendqisi2
 7251 6d1c 0030D5E5 		ldrb	r3, [r5, #0]	@ zero_extendqisi2
 7252 6d20 0020D4E5 		ldrb	r2, [r4, #0]	@ zero_extendqisi2
 7253 6d24 033081E0 		add	r3, r1, r3
 7254 6d28 FF3003E2 		and	r3, r3, #255
 7255 6d2c 0030C5E5 		strb	r3, [r5, #0]
 7256 6d30 023083E0 		add	r3, r3, r2
 7257 6d34 0030C4E5 		strb	r3, [r4, #0]
 7258 6d38 74039FE5 		ldr	r0, .L267
 7259 6d3c FEFFFFEB 		bl	uart_transmit
 7260 6d40 0310D6E5 		ldrb	r1, [r6, #3]	@ zero_extendqisi2
 7261 6d44 0030D5E5 		ldrb	r3, [r5, #0]	@ zero_extendqisi2
 7262 6d48 0020D4E5 		ldrb	r2, [r4, #0]	@ zero_extendqisi2
 7263 6d4c 033081E0 		add	r3, r1, r3
 7264 6d50 FF3003E2 		and	r3, r3, #255
 7265 6d54 B0639FE5 		ldr	r6, .L267+88
 7266 6d58 0030C5E5 		strb	r3, [r5, #0]
 7267 6d5c 023083E0 		add	r3, r3, r2
 7268 6d60 0030C4E5 		strb	r3, [r4, #0]
 7269 6d64 48039FE5 		ldr	r0, .L267
 7270 6d68 FEFFFFEB 		bl	uart_transmit
 7271 6d6c 0010D6E5 		ldrb	r1, [r6, #0]	@ zero_extendqisi2
 7272 6d70 0030D5E5 		ldrb	r3, [r5, #0]	@ zero_extendqisi2
 7273 6d74 0020D4E5 		ldrb	r2, [r4, #0]	@ zero_extendqisi2
 7274 6d78 033081E0 		add	r3, r1, r3
 7275 6d7c FF3003E2 		and	r3, r3, #255
 7276 6d80 0030C5E5 		strb	r3, [r5, #0]
 7277 6d84 023083E0 		add	r3, r3, r2
 7278 6d88 0030C4E5 		strb	r3, [r4, #0]
 7279 6d8c 20039FE5 		ldr	r0, .L267
 7280 6d90 FEFFFFEB 		bl	uart_transmit
 7281 6d94 0110D6E5 		ldrb	r1, [r6, #1]	@ zero_extendqisi2
 7282 6d98 0030D5E5 		ldrb	r3, [r5, #0]	@ zero_extendqisi2
 7283 6d9c 0020D4E5 		ldrb	r2, [r4, #0]	@ zero_extendqisi2
 7284 6da0 033081E0 		add	r3, r1, r3
 7285 6da4 FF3003E2 		and	r3, r3, #255
 7286 6da8 0030C5E5 		strb	r3, [r5, #0]
 7287 6dac 023083E0 		add	r3, r3, r2
 7288 6db0 0030C4E5 		strb	r3, [r4, #0]
 7289 6db4 F8029FE5 		ldr	r0, .L267
 7290 6db8 FEFFFFEB 		bl	uart_transmit
 7291 6dbc 0210D6E5 		ldrb	r1, [r6, #2]	@ zero_extendqisi2
 7292 6dc0 0030D5E5 		ldrb	r3, [r5, #0]	@ zero_extendqisi2
 7293 6dc4 0020D4E5 		ldrb	r2, [r4, #0]	@ zero_extendqisi2
 7294 6dc8 033081E0 		add	r3, r1, r3
 7295 6dcc FF3003E2 		and	r3, r3, #255
 7296 6dd0 0030C5E5 		strb	r3, [r5, #0]
 7297 6dd4 023083E0 		add	r3, r3, r2
 7298 6dd8 0030C4E5 		strb	r3, [r4, #0]
 7299 6ddc D0029FE5 		ldr	r0, .L267
 7300 6de0 FEFFFFEB 		bl	uart_transmit
 7301 6de4 0310D6E5 		ldrb	r1, [r6, #3]	@ zero_extendqisi2
 7302 6de8 0030D5E5 		ldrb	r3, [r5, #0]	@ zero_extendqisi2
 7303 6dec 0020D4E5 		ldrb	r2, [r4, #0]	@ zero_extendqisi2
 7304 6df0 033081E0 		add	r3, r1, r3
 7305 6df4 FF3003E2 		and	r3, r3, #255
 7306 6df8 10639FE5 		ldr	r6, .L267+92
 7307 6dfc 0030C5E5 		strb	r3, [r5, #0]
 7308 6e00 023083E0 		add	r3, r3, r2
 7309 6e04 0030C4E5 		strb	r3, [r4, #0]
 7310 6e08 A4029FE5 		ldr	r0, .L267
 7311 6e0c FEFFFFEB 		bl	uart_transmit
 7312 6e10 0010D6E5 		ldrb	r1, [r6, #0]	@ zero_extendqisi2
 7313 6e14 0030D5E5 		ldrb	r3, [r5, #0]	@ zero_extendqisi2
 7314 6e18 0020D4E5 		ldrb	r2, [r4, #0]	@ zero_extendqisi2
 7315 6e1c 033081E0 		add	r3, r1, r3
 7316 6e20 FF3003E2 		and	r3, r3, #255
 7317 6e24 0030C5E5 		strb	r3, [r5, #0]
 7318 6e28 023083E0 		add	r3, r3, r2
 7319 6e2c 0030C4E5 		strb	r3, [r4, #0]
 7320 6e30 7C029FE5 		ldr	r0, .L267
 7321 6e34 FEFFFFEB 		bl	uart_transmit
 7322 6e38 0110D6E5 		ldrb	r1, [r6, #1]	@ zero_extendqisi2
 7323 6e3c 0030D5E5 		ldrb	r3, [r5, #0]	@ zero_extendqisi2
 7324 6e40 0020D4E5 		ldrb	r2, [r4, #0]	@ zero_extendqisi2
 7325 6e44 033081E0 		add	r3, r1, r3
 7326 6e48 FF3003E2 		and	r3, r3, #255
 7327 6e4c 0030C5E5 		strb	r3, [r5, #0]
 7328 6e50 023083E0 		add	r3, r3, r2
 7329 6e54 0030C4E5 		strb	r3, [r4, #0]
 7330 6e58 54029FE5 		ldr	r0, .L267
 7331 6e5c FEFFFFEB 		bl	uart_transmit
 7332 6e60 0210D6E5 		ldrb	r1, [r6, #2]	@ zero_extendqisi2
 7333 6e64 0030D5E5 		ldrb	r3, [r5, #0]	@ zero_extendqisi2
 7334 6e68 0020D4E5 		ldrb	r2, [r4, #0]	@ zero_extendqisi2
 7335 6e6c 033081E0 		add	r3, r1, r3
 7336 6e70 FF3003E2 		and	r3, r3, #255
 7337 6e74 0030C5E5 		strb	r3, [r5, #0]
 7338 6e78 023083E0 		add	r3, r3, r2
 7339 6e7c 0030C4E5 		strb	r3, [r4, #0]
 7340 6e80 2C029FE5 		ldr	r0, .L267
 7341 6e84 FEFFFFEB 		bl	uart_transmit
 7342 6e88 0310D6E5 		ldrb	r1, [r6, #3]	@ zero_extendqisi2
 7343 6e8c 0030D5E5 		ldrb	r3, [r5, #0]	@ zero_extendqisi2
 7344 6e90 0020D4E5 		ldrb	r2, [r4, #0]	@ zero_extendqisi2
 7345 6e94 033081E0 		add	r3, r1, r3
 7346 6e98 FF3003E2 		and	r3, r3, #255
 7347 6e9c 70629FE5 		ldr	r6, .L267+96
 7348 6ea0 0030C5E5 		strb	r3, [r5, #0]
 7349 6ea4 023083E0 		add	r3, r3, r2
 7350 6ea8 0030C4E5 		strb	r3, [r4, #0]
 7351 6eac 00029FE5 		ldr	r0, .L267
 7352 6eb0 FEFFFFEB 		bl	uart_transmit
 7353 6eb4 0010D6E5 		ldrb	r1, [r6, #0]	@ zero_extendqisi2
 7354 6eb8 0030D5E5 		ldrb	r3, [r5, #0]	@ zero_extendqisi2
 7355 6ebc 0020D4E5 		ldrb	r2, [r4, #0]	@ zero_extendqisi2
 7356 6ec0 033081E0 		add	r3, r1, r3
 7357 6ec4 FF3003E2 		and	r3, r3, #255
 7358 6ec8 0030C5E5 		strb	r3, [r5, #0]
 7359 6ecc 023083E0 		add	r3, r3, r2
 7360 6ed0 0030C4E5 		strb	r3, [r4, #0]
 7361 6ed4 D8019FE5 		ldr	r0, .L267
 7362 6ed8 FEFFFFEB 		bl	uart_transmit
 7363 6edc 0110D6E5 		ldrb	r1, [r6, #1]	@ zero_extendqisi2
 7364 6ee0 0030D5E5 		ldrb	r3, [r5, #0]	@ zero_extendqisi2
 7365 6ee4 0020D4E5 		ldrb	r2, [r4, #0]	@ zero_extendqisi2
 7366 6ee8 033081E0 		add	r3, r1, r3
 7367 6eec FF3003E2 		and	r3, r3, #255
 7368 6ef0 0030C5E5 		strb	r3, [r5, #0]
 7369 6ef4 023083E0 		add	r3, r3, r2
 7370 6ef8 0030C4E5 		strb	r3, [r4, #0]
 7371 6efc B0019FE5 		ldr	r0, .L267
 7372 6f00 FEFFFFEB 		bl	uart_transmit
 7373 6f04 0210D6E5 		ldrb	r1, [r6, #2]	@ zero_extendqisi2
 7374 6f08 0030D5E5 		ldrb	r3, [r5, #0]	@ zero_extendqisi2
 7375 6f0c 0020D4E5 		ldrb	r2, [r4, #0]	@ zero_extendqisi2
 7376 6f10 033081E0 		add	r3, r1, r3
 7377 6f14 FF3003E2 		and	r3, r3, #255
 7378 6f18 0030C5E5 		strb	r3, [r5, #0]
 7379 6f1c 023083E0 		add	r3, r3, r2
 7380 6f20 0030C4E5 		strb	r3, [r4, #0]
 7381 6f24 88019FE5 		ldr	r0, .L267
 7382 6f28 FEFFFFEB 		bl	uart_transmit
 7383 6f2c 0310D6E5 		ldrb	r1, [r6, #3]	@ zero_extendqisi2
 7384 6f30 0030D5E5 		ldrb	r3, [r5, #0]	@ zero_extendqisi2
 7385 6f34 0020D4E5 		ldrb	r2, [r4, #0]	@ zero_extendqisi2
 7386 6f38 033081E0 		add	r3, r1, r3
 7387 6f3c FF3003E2 		and	r3, r3, #255
 7388 6f40 D0619FE5 		ldr	r6, .L267+100
 7389 6f44 0030C5E5 		strb	r3, [r5, #0]
 7390 6f48 023083E0 		add	r3, r3, r2
 7391 6f4c 0030C4E5 		strb	r3, [r4, #0]
 7392 6f50 5C019FE5 		ldr	r0, .L267
 7393 6f54 FEFFFFEB 		bl	uart_transmit
 7394 6f58 0010D6E5 		ldrb	r1, [r6, #0]	@ zero_extendqisi2
 7395 6f5c 0030D5E5 		ldrb	r3, [r5, #0]	@ zero_extendqisi2
 7396 6f60 0020D4E5 		ldrb	r2, [r4, #0]	@ zero_extendqisi2
 7397 6f64 033081E0 		add	r3, r1, r3
 7398 6f68 FF3003E2 		and	r3, r3, #255
 7399 6f6c 0030C5E5 		strb	r3, [r5, #0]
 7400 6f70 023083E0 		add	r3, r3, r2
 7401 6f74 0030C4E5 		strb	r3, [r4, #0]
 7402 6f78 34019FE5 		ldr	r0, .L267
 7403 6f7c FEFFFFEB 		bl	uart_transmit
 7404 6f80 0110D6E5 		ldrb	r1, [r6, #1]	@ zero_extendqisi2
 7405 6f84 0030D5E5 		ldrb	r3, [r5, #0]	@ zero_extendqisi2
 7406 6f88 0020D4E5 		ldrb	r2, [r4, #0]	@ zero_extendqisi2
 7407 6f8c 033081E0 		add	r3, r1, r3
 7408 6f90 FF3003E2 		and	r3, r3, #255
 7409 6f94 0030C5E5 		strb	r3, [r5, #0]
 7410 6f98 023083E0 		add	r3, r3, r2
 7411 6f9c 0030C4E5 		strb	r3, [r4, #0]
 7412 6fa0 0C019FE5 		ldr	r0, .L267
 7413 6fa4 FEFFFFEB 		bl	uart_transmit
 7414 6fa8 0210D6E5 		ldrb	r1, [r6, #2]	@ zero_extendqisi2
 7415 6fac 0030D5E5 		ldrb	r3, [r5, #0]	@ zero_extendqisi2
 7416 6fb0 0020D4E5 		ldrb	r2, [r4, #0]	@ zero_extendqisi2
 7417 6fb4 033081E0 		add	r3, r1, r3
 7418 6fb8 FF3003E2 		and	r3, r3, #255
 7419 6fbc 0030C5E5 		strb	r3, [r5, #0]
 7420 6fc0 023083E0 		add	r3, r3, r2
 7421 6fc4 0030C4E5 		strb	r3, [r4, #0]
 7422 6fc8 E4009FE5 		ldr	r0, .L267
 7423 6fcc FEFFFFEB 		bl	uart_transmit
 7424 6fd0 0310D6E5 		ldrb	r1, [r6, #3]	@ zero_extendqisi2
 7425 6fd4 0030D5E5 		ldrb	r3, [r5, #0]	@ zero_extendqisi2
 7426 6fd8 0020D4E5 		ldrb	r2, [r4, #0]	@ zero_extendqisi2
 7427 6fdc 033081E0 		add	r3, r1, r3
 7428 6fe0 FF3003E2 		and	r3, r3, #255
 7429 6fe4 0030C5E5 		strb	r3, [r5, #0]
 7430 6fe8 023083E0 		add	r3, r3, r2
 7431 6fec 0030C4E5 		strb	r3, [r4, #0]
 7432 6ff0 BC009FE5 		ldr	r0, .L267
 7433 6ff4 FEFFFFEB 		bl	uart_transmit
 7434 6ff8 0010DDE5 		ldrb	r1, [sp, #0]	@ zero_extendqisi2
 7435 6ffc 0030D5E5 		ldrb	r3, [r5, #0]	@ zero_extendqisi2
 7436 7000 0020D4E5 		ldrb	r2, [r4, #0]	@ zero_extendqisi2
 7437 7004 033081E0 		add	r3, r1, r3
 7438 7008 FF3003E2 		and	r3, r3, #255
 7439 700c 0030C5E5 		strb	r3, [r5, #0]
 7440 7010 023083E0 		add	r3, r3, r2
 7441 7014 0030C4E5 		strb	r3, [r4, #0]
 7442 7018 94009FE5 		ldr	r0, .L267
 7443 701c FEFFFFEB 		bl	uart_transmit
 7444 7020 0110DDE5 		ldrb	r1, [sp, #1]	@ zero_extendqisi2
 7445 7024 0030D5E5 		ldrb	r3, [r5, #0]	@ zero_extendqisi2
 7446 7028 0020D4E5 		ldrb	r2, [r4, #0]	@ zero_extendqisi2
 7447 702c 033081E0 		add	r3, r1, r3
 7448 7030 FF3003E2 		and	r3, r3, #255
 7449 7034 0030C5E5 		strb	r3, [r5, #0]
 7450 7038 023083E0 		add	r3, r3, r2
 7451 703c 0030C4E5 		strb	r3, [r4, #0]
 7452 7040 6C009FE5 		ldr	r0, .L267
 7453 7044 FEFFFFEB 		bl	uart_transmit
 7454 7048 0210DDE5 		ldrb	r1, [sp, #2]	@ zero_extendqisi2
 7455 704c 0030D5E5 		ldrb	r3, [r5, #0]	@ zero_extendqisi2
 7456 7050 0020D4E5 		ldrb	r2, [r4, #0]	@ zero_extendqisi2
 7457 7054 033081E0 		add	r3, r1, r3
 7458 7058 FF3003E2 		and	r3, r3, #255
 7459 705c 0030C5E5 		strb	r3, [r5, #0]
 7460 7060 023083E0 		add	r3, r3, r2
 7461 7064 0030C4E5 		strb	r3, [r4, #0]
 7462 7068 44009FE5 		ldr	r0, .L267
 7463 706c FEFFFFEB 		bl	uart_transmit
 7464 7070 0310DDE5 		ldrb	r1, [sp, #3]	@ zero_extendqisi2
 7465 7074 0030D5E5 		ldrb	r3, [r5, #0]	@ zero_extendqisi2
 7466 7078 0020D4E5 		ldrb	r2, [r4, #0]	@ zero_extendqisi2
 7467 707c 033081E0 		add	r3, r1, r3
 7468 7080 FF3003E2 		and	r3, r3, #255
 7469 7084 0030C5E5 		strb	r3, [r5, #0]
 7470 7088 023083E0 		add	r3, r3, r2
 7471 708c 0030C4E5 		strb	r3, [r4, #0]
 7472 7090 1C009FE5 		ldr	r0, .L267
 7473 7094 FEFFFFEB 		bl	uart_transmit
 7474 7098 0010D5E5 		ldrb	r1, [r5, #0]	@ zero_extendqisi2
 7475 709c 10009FE5 		ldr	r0, .L267
 7476 70a0 FEFFFFEB 		bl	uart_transmit
 7477 70a4 08009FE5 		ldr	r0, .L267
 7478 70a8 0010D4E5 		ldrb	r1, [r4, #0]	@ zero_extendqisi2
 7479 70ac FEFFFFEB 		bl	uart_transmit
 7480 70b0 460000EA 		b	.L185
 7481              	.L268:
 7482              		.align	2
 7483              	.L267:
 7484 70b4 00000000 		.word	uart1
 7485 70b8 00000000 		.word	nav_oval_count
 7486 70bc 00000000 		.word	.LANCHOR32
 7487 70c0 00000000 		.word	nav_in_circle
 7488 70c4 00000000 		.word	nav_circle_x
 7489 70c8 00000000 		.word	nav_circle_y
 7490 70cc 00000000 		.word	nav_circle_radius
 7491 70d0 00000000 		.word	.LANCHOR33
 7492 70d4 00000000 		.word	nav_in_segment
 7493 70d8 00000000 		.word	nav_segment_x_1
 7494 70dc 00000000 		.word	nav_segment_y_1
 7495 70e0 00000000 		.word	nav_segment_x_2
 7496 70e4 00000000 		.word	nav_segment_y_2
 7497 70e8 00000000 		.word	.LANCHOR34
 7498 70ec 00000000 		.word	estimator_phi
 7499 70f0 00000000 		.word	estimator_psi
 7500 70f4 00000000 		.word	estimator_theta
 7501 70f8 00000000 		.word	.LANCHOR35
 7502 70fc 00009041 		.word	1099956224
 7503 7100 00000000 		.word	h_ctl_roll_setpoint
 7504 7104 00000000 		.word	h_ctl_pitch_loop_setpoint
 7505 7108 00000000 		.word	h_ctl_course_setpoint
 7506 710c 00000000 		.word	desired_x
 7507 7110 00000000 		.word	desired_y
 7508 7114 00000000 		.word	v_ctl_altitude_setpoint
 7509 7118 00000000 		.word	v_ctl_climb_setpoint
 7510 711c 00000000 		.word	.LANCHOR36
 7511 7120 00000000 		.word	.LC0
 7512 7124 00000000 		.word	.LANCHOR20
 7513 7128 00000000 		.word	v_ctl_mode
 7514 712c 00000000 		.word	.LANCHOR22
 7515 7130 00000000 		.word	horizontal_mode
 7516 7134 00000000 		.word	.LANCHOR23
 7517 7138 00000000 		.word	gps
 7518 713c 00000000 		.word	.LANCHOR37
 7519 7140 00000000 		.word	v_ctl_auto_throttle_sum_err
 7520 7144 00000000 		.word	v_ctl_auto_throttle_submode
 7521 7148 00000000 		.word	.LANCHOR44
 7522 714c 66666666 		.word	1717986918
 7523 7150 66661440 		.word	1075078758
 7524 7154 00000000 		.word	.LANCHOR38
 7525 7158 00000000 		.word	infrared
 7526 715c 00000000 		.word	.LANCHOR39
 7527 7160 00000000 		.word	ck_a
 7528 7164 00000000 		.word	ck_b
 7529 7168 00000000 		.word	nav_utm_east0
 7530 716c 00000000 		.word	nav_utm_north0
 7531 7170 00000000 		.word	nav_utm_zone0
 7532 7174 00000000 		.word	downlink_nb_ovrn
 7533 7178 00000000 		.word	telemetry_mode_Ap
 7534 717c 00000000 		.word	.LANCHOR46
 7535 7180 31010000 		.word	305
 7536 7184 00000000 		.word	.LANCHOR47
 7537 7188 3D010000 		.word	317
 7538 718c 00000000 		.word	.LANCHOR48
 7539 7190 00000000 		.word	.LANCHOR49
 7540 7194 49010000 		.word	329
 7541 7198 00000000 		.word	.LANCHOR50
 7542 719c 55010000 		.word	341
 7543 71a0 00000000 		.word	.LANCHOR51
 7544 71a4 00000000 		.word	.LANCHOR52
 7545 71a8 5D020000 		.word	605
 7546 71ac 00000000 		.word	.LANCHOR53
 7547 71b0 00000000 		.word	.LANCHOR45
 7548 71b4 00000000 		.word	uart1
 7549 71b8 00000000 		.word	downlink_nb_bytes
 7550 71bc 00000000 		.word	downlink_nb_msgs
 7551              	.L186:
 7552 71c0 54301FE5 		ldr	r3, .L267+192
 7553 71c4 0020D3E5 		ldrb	r2, [r3, #0]	@ zero_extendqisi2
 7554 71c8 012082E2 		add	r2, r2, #1
 7555 71cc 0020C3E5 		strb	r2, [r3, #0]
 7556              	.L185:
 7557 71d0 BC301FE5 		ldr	r3, .L267+104
 7558 71d4 B030D3E1 		ldrh	r3, [r3, #0]
 7559 71d8 420053E3 		cmp	r3, #66
 7560 71dc 4600001A 		bne	.L187
 7561 71e0 34001FE5 		ldr	r0, .L267+256
 7562 71e4 1710A0E3 		mov	r1, #23
 7563 71e8 FEFFFFEB 		bl	uart_check_free_space
 7564 71ec 000050E3 		cmp	r0, #0
 7565 71f0 8D01000A 		beq	.L196
 7566 71f4 44301FE5 		ldr	r3, .L267+260
 7567 71f8 B020D3E1 		ldrh	r2, [r3, #0]
 7568 71fc 172082E2 		add	r2, r2, #23
 7569 7200 B020C3E1 		strh	r2, [r3, #0]	@ movhi
 7570 7204 50301FE5 		ldr	r3, .L267+264
 7571 7208 B020D3E1 		ldrh	r2, [r3, #0]
 7572 720c 012082E2 		add	r2, r2, #1
 7573 7210 B020C3E1 		strh	r2, [r3, #0]	@ movhi
 7574 7214 68001FE5 		ldr	r0, .L267+256
 7575 7218 9910A0E3 		mov	r1, #153
 7576 721c FEFFFFEB 		bl	uart_transmit
 7577 7220 C8501FE5 		ldr	r5, .L267+172
 7578 7224 78001FE5 		ldr	r0, .L267+256
 7579 7228 1710A0E3 		mov	r1, #23
 7580 722c FEFFFFEB 		bl	uart_transmit
 7581 7230 D4401FE5 		ldr	r4, .L267+176
 7582 7234 1930A0E3 		mov	r3, #25
 7583 7238 0030C5E5 		strb	r3, [r5, #0]
 7584 723c 3030A0E3 		mov	r3, #48
 7585 7240 0030C4E5 		strb	r3, [r4, #0]
 7586 7244 98001FE5 		ldr	r0, .L267+256
 7587 7248 0210A0E3 		mov	r1, #2
 7588 724c FEFFFFEB 		bl	uart_transmit
 7589 7250 0030D5E5 		ldrb	r3, [r5, #0]	@ zero_extendqisi2
 7590 7254 0020D4E5 		ldrb	r2, [r4, #0]	@ zero_extendqisi2
 7591 7258 023083E2 		add	r3, r3, #2
 7592 725c FF3003E2 		and	r3, r3, #255
 7593 7260 0030C5E5 		strb	r3, [r5, #0]
 7594 7264 023083E0 		add	r3, r3, r2
 7595 7268 0030C4E5 		strb	r3, [r4, #0]
 7596 726c C0001FE5 		ldr	r0, .L267+256
 7597 7270 0210A0E3 		mov	r1, #2
 7598 7274 FEFFFFEB 		bl	uart_transmit
 7599 7278 0030D5E5 		ldrb	r3, [r5, #0]	@ zero_extendqisi2
 7600 727c 0020D4E5 		ldrb	r2, [r4, #0]	@ zero_extendqisi2
 7601 7280 103083E2 		add	r3, r3, #16
 7602 7284 FF3003E2 		and	r3, r3, #255
 7603 7288 0030C5E5 		strb	r3, [r5, #0]
 7604 728c 023083E0 		add	r3, r3, r2
 7605 7290 0030C4E5 		strb	r3, [r4, #0]
 7606 7294 E8001FE5 		ldr	r0, .L267+256
 7607 7298 1010A0E3 		mov	r1, #16
 7608 729c FEFFFFEB 		bl	uart_transmit
 7609 72a0 88711FE5 		ldr	r7, .L267+108
 7610 72a4 0060A0E3 		mov	r6, #0
 7611              	.L189:
 7612 72a8 0610D7E7 		ldrb	r1, [r7, r6]	@ zero_extendqisi2
 7613 72ac 0030D5E5 		ldrb	r3, [r5, #0]	@ zero_extendqisi2
 7614 72b0 0020D4E5 		ldrb	r2, [r4, #0]	@ zero_extendqisi2
 7615 72b4 033081E0 		add	r3, r1, r3
 7616 72b8 FF3003E2 		and	r3, r3, #255
 7617 72bc 0030C5E5 		strb	r3, [r5, #0]
 7618 72c0 023083E0 		add	r3, r3, r2
 7619 72c4 0030C4E5 		strb	r3, [r4, #0]
 7620 72c8 1C011FE5 		ldr	r0, .L267+256
 7621 72cc 016086E2 		add	r6, r6, #1
 7622 72d0 FEFFFFEB 		bl	uart_transmit
 7623 72d4 100056E3 		cmp	r6, #16
 7624 72d8 F2FFFF1A 		bne	.L189
 7625 72dc 84311FE5 		ldr	r3, .L267+172
 7626 72e0 34011FE5 		ldr	r0, .L267+256
 7627 72e4 0010D3E5 		ldrb	r1, [r3, #0]	@ zero_extendqisi2
 7628 72e8 FEFFFFEB 		bl	uart_transmit
 7629 72ec 90311FE5 		ldr	r3, .L267+176
 7630 72f0 44011FE5 		ldr	r0, .L267+256
 7631 72f4 0010D3E5 		ldrb	r1, [r3, #0]	@ zero_extendqisi2
 7632 72f8 6A0000EA 		b	.L254
 7633              	.L187:
 7634 72fc 480053E3 		cmp	r3, #72
 7635 7300 6A00001A 		bne	.L191
 7636 7304 58011FE5 		ldr	r0, .L267+256
 7637 7308 0C10A0E3 		mov	r1, #12
 7638 730c FEFFFFEB 		bl	uart_check_free_space
 7639 7310 000050E3 		cmp	r0, #0
 7640 7314 4401000A 		beq	.L196
 7641 7318 68311FE5 		ldr	r3, .L267+260
 7642 731c B020D3E1 		ldrh	r2, [r3, #0]
 7643 7320 0C2082E2 		add	r2, r2, #12
 7644 7324 B020C3E1 		strh	r2, [r3, #0]	@ movhi
 7645 7328 74311FE5 		ldr	r3, .L267+264
 7646 732c B020D3E1 		ldrh	r2, [r3, #0]
 7647 7330 012082E2 		add	r2, r2, #1
 7648 7334 B020C3E1 		strh	r2, [r3, #0]	@ movhi
 7649 7338 8C011FE5 		ldr	r0, .L267+256
 7650 733c 9910A0E3 		mov	r1, #153
 7651 7340 E8511FE5 		ldr	r5, .L267+172
 7652 7344 FEFFFFEB 		bl	uart_transmit
 7653 7348 9C011FE5 		ldr	r0, .L267+256
 7654 734c 0C10A0E3 		mov	r1, #12
 7655 7350 F4411FE5 		ldr	r4, .L267+176
 7656 7354 FEFFFFEB 		bl	uart_transmit
 7657 7358 0E30A0E3 		mov	r3, #14
 7658 735c 0030C5E5 		strb	r3, [r5, #0]
 7659 7360 1A30A0E3 		mov	r3, #26
 7660 7364 0030C4E5 		strb	r3, [r4, #0]
 7661 7368 BC011FE5 		ldr	r0, .L267+256
 7662 736c 0210A0E3 		mov	r1, #2
 7663 7370 FEFFFFEB 		bl	uart_transmit
 7664 7374 0030D5E5 		ldrb	r3, [r5, #0]	@ zero_extendqisi2
 7665 7378 0020D4E5 		ldrb	r2, [r4, #0]	@ zero_extendqisi2
 7666 737c 0B3083E2 		add	r3, r3, #11
 7667 7380 FF3003E2 		and	r3, r3, #255
 7668 7384 0030C5E5 		strb	r3, [r5, #0]
 7669 7388 023083E0 		add	r3, r3, r2
 7670 738c 0030C4E5 		strb	r3, [r4, #0]
 7671 7390 E4011FE5 		ldr	r0, .L267+256
 7672 7394 0B10A0E3 		mov	r1, #11
 7673 7398 FEFFFFEB 		bl	uart_transmit
 7674 739c 80321FE5 		ldr	r3, .L267+112
 7675 73a0 0010D3E5 		ldrb	r1, [r3, #0]	@ zero_extendqisi2
 7676 73a4 0030D5E5 		ldrb	r3, [r5, #0]	@ zero_extendqisi2
 7677 73a8 0020D4E5 		ldrb	r2, [r4, #0]	@ zero_extendqisi2
 7678 73ac 033081E0 		add	r3, r1, r3
 7679 73b0 FF3003E2 		and	r3, r3, #255
 7680 73b4 0030C5E5 		strb	r3, [r5, #0]
 7681 73b8 023083E0 		add	r3, r3, r2
 7682 73bc 0030C4E5 		strb	r3, [r4, #0]
 7683 73c0 14021FE5 		ldr	r0, .L267+256
 7684 73c4 FEFFFFEB 		bl	uart_transmit
 7685 73c8 A8321FE5 		ldr	r3, .L267+116
 7686 73cc 0010D3E5 		ldrb	r1, [r3, #0]	@ zero_extendqisi2
 7687 73d0 0030D5E5 		ldrb	r3, [r5, #0]	@ zero_extendqisi2
 7688 73d4 0020D4E5 		ldrb	r2, [r4, #0]	@ zero_extendqisi2
 7689 73d8 033081E0 		add	r3, r1, r3
 7690 73dc FF3003E2 		and	r3, r3, #255
 7691 73e0 0030C5E5 		strb	r3, [r5, #0]
 7692 73e4 023083E0 		add	r3, r3, r2
 7693 73e8 0030C4E5 		strb	r3, [r4, #0]
 7694 73ec 40021FE5 		ldr	r0, .L267+256
 7695 73f0 FEFFFFEB 		bl	uart_transmit
 7696 73f4 D0321FE5 		ldr	r3, .L267+120
 7697 73f8 0010D3E5 		ldrb	r1, [r3, #0]	@ zero_extendqisi2
 7698 73fc 0030D5E5 		ldrb	r3, [r5, #0]	@ zero_extendqisi2
 7699 7400 0020D4E5 		ldrb	r2, [r4, #0]	@ zero_extendqisi2
 7700 7404 033081E0 		add	r3, r1, r3
 7701 7408 FF3003E2 		and	r3, r3, #255
 7702 740c 0030C5E5 		strb	r3, [r5, #0]
 7703 7410 023083E0 		add	r3, r3, r2
 7704 7414 0030C4E5 		strb	r3, [r4, #0]
 7705 7418 6C021FE5 		ldr	r0, .L267+256
 7706 741c FEFFFFEB 		bl	uart_transmit
 7707 7420 F8321FE5 		ldr	r3, .L267+124
 7708 7424 0010D3E5 		ldrb	r1, [r3, #0]	@ zero_extendqisi2
 7709 7428 0030D5E5 		ldrb	r3, [r5, #0]	@ zero_extendqisi2
 7710 742c 0020D4E5 		ldrb	r2, [r4, #0]	@ zero_extendqisi2
 7711 7430 033081E0 		add	r3, r1, r3
 7712 7434 FF3003E2 		and	r3, r3, #255
 7713 7438 0030C5E5 		strb	r3, [r5, #0]
 7714 743c 023083E0 		add	r3, r3, r2
 7715 7440 0030C4E5 		strb	r3, [r4, #0]
 7716 7444 98021FE5 		ldr	r0, .L267+256
 7717 7448 FEFFFFEB 		bl	uart_transmit
 7718 744c 0020D4E5 		ldrb	r2, [r4, #0]	@ zero_extendqisi2
 7719 7450 0030D5E5 		ldrb	r3, [r5, #0]	@ zero_extendqisi2
 7720 7454 033082E0 		add	r3, r2, r3
 7721 7458 0030C4E5 		strb	r3, [r4, #0]
 7722 745c 0010A0E3 		mov	r1, #0
 7723 7460 B4021FE5 		ldr	r0, .L267+256
 7724 7464 FEFFFFEB 		bl	uart_transmit
 7725 7468 3C331FE5 		ldr	r3, .L267+128
 7726 746c 0010D3E5 		ldrb	r1, [r3, #0]	@ zero_extendqisi2
 7727              	.L260:
 7728 7470 0030D5E5 		ldrb	r3, [r5, #0]	@ zero_extendqisi2
 7729 7474 0020D4E5 		ldrb	r2, [r4, #0]	@ zero_extendqisi2
 7730 7478 033081E0 		add	r3, r1, r3
 7731 747c FF3003E2 		and	r3, r3, #255
 7732 7480 0030C5E5 		strb	r3, [r5, #0]
 7733 7484 023083E0 		add	r3, r3, r2
 7734 7488 0030C4E5 		strb	r3, [r4, #0]
 7735 748c E0021FE5 		ldr	r0, .L267+256
 7736 7490 FEFFFFEB 		bl	uart_transmit
 7737 7494 E8021FE5 		ldr	r0, .L267+256
 7738 7498 0010D5E5 		ldrb	r1, [r5, #0]	@ zero_extendqisi2
 7739 749c FEFFFFEB 		bl	uart_transmit
 7740 74a0 F4021FE5 		ldr	r0, .L267+256
 7741 74a4 0010D4E5 		ldrb	r1, [r4, #0]	@ zero_extendqisi2
 7742              	.L254:
 7743 74a8 FEFFFFEB 		bl	uart_transmit
 7744 74ac E20000EA 		b	.L190
 7745              	.L191:
 7746 74b0 4E0053E3 		cmp	r3, #78
 7747 74b4 4D00001A 		bne	.L193
 7748 74b8 68331FE5 		ldr	r3, .L267+164
 7749 74bc F661D3E1 		ldrsh	r6, [r3, #22]
 7750 74c0 F421D3E1 		ldrsh	r2, [r3, #20]
 7751 74c4 F831D3E1 		ldrsh	r3, [r3, #24]
 7752 74c8 000052E3 		cmp	r2, #0
 7753 74cc 002062B2 		rsblt	r2, r2, #0
 7754 74d0 000056E3 		cmp	r6, #0
 7755 74d4 006066B2 		rsblt	r6, r6, #0
 7756 74d8 000053E3 		cmp	r3, #0
 7757 74dc 003063B2 		rsblt	r3, r3, #0
 7758 74e0 026086E0 		add	r6, r6, r2
 7759 74e4 036086E0 		add	r6, r6, r3
 7760 74e8 0668A0E1 		mov	r6, r6, asl #16
 7761 74ec 2668A0E1 		mov	r6, r6, lsr #16
 7762 74f0 310056E3 		cmp	r6, #49
 7763 74f4 48031FE5 		ldr	r0, .L267+256
 7764 74f8 0910A0E3 		mov	r1, #9
 7765 74fc BC60CDE1 		strh	r6, [sp, #12]	@ movhi
 7766 7500 0760A093 		movls	r6, #7
 7767 7504 0360A083 		movhi	r6, #3
 7768 7508 FEFFFFEB 		bl	uart_check_free_space
 7769 750c 000050E3 		cmp	r0, #0
 7770 7510 C500000A 		beq	.L196
 7771 7514 64331FE5 		ldr	r3, .L267+260
 7772 7518 B020D3E1 		ldrh	r2, [r3, #0]
 7773 751c 092082E2 		add	r2, r2, #9
 7774 7520 B020C3E1 		strh	r2, [r3, #0]	@ movhi
 7775 7524 70331FE5 		ldr	r3, .L267+264
 7776 7528 B020D3E1 		ldrh	r2, [r3, #0]
 7777 752c 012082E2 		add	r2, r2, #1
 7778 7530 B020C3E1 		strh	r2, [r3, #0]	@ movhi
 7779 7534 88031FE5 		ldr	r0, .L267+256
 7780 7538 9910A0E3 		mov	r1, #153
 7781 753c E4531FE5 		ldr	r5, .L267+172
 7782 7540 FEFFFFEB 		bl	uart_transmit
 7783 7544 98031FE5 		ldr	r0, .L267+256
 7784 7548 0910A0E3 		mov	r1, #9
 7785 754c FEFFFFEB 		bl	uart_transmit
 7786 7550 F4431FE5 		ldr	r4, .L267+176
 7787 7554 0B30A0E3 		mov	r3, #11
 7788 7558 0030C5E5 		strb	r3, [r5, #0]
 7789 755c 1430A0E3 		mov	r3, #20
 7790 7560 0030C4E5 		strb	r3, [r4, #0]
 7791 7564 B8031FE5 		ldr	r0, .L267+256
 7792 7568 0210A0E3 		mov	r1, #2
 7793 756c FEFFFFEB 		bl	uart_transmit
 7794 7570 0030D5E5 		ldrb	r3, [r5, #0]	@ zero_extendqisi2
 7795 7574 0020D4E5 		ldrb	r2, [r4, #0]	@ zero_extendqisi2
 7796 7578 183043E2 		sub	r3, r3, #24
 7797 757c FF3003E2 		and	r3, r3, #255
 7798 7580 0030C5E5 		strb	r3, [r5, #0]
 7799 7584 023083E0 		add	r3, r3, r2
 7800 7588 0030C4E5 		strb	r3, [r4, #0]
 7801 758c E0031FE5 		ldr	r0, .L267+256
 7802 7590 E810A0E3 		mov	r1, #232
 7803 7594 FEFFFFEB 		bl	uart_transmit
 7804 7598 0030D5E5 		ldrb	r3, [r5, #0]	@ zero_extendqisi2
 7805 759c 0020D4E5 		ldrb	r2, [r4, #0]	@ zero_extendqisi2
 7806 75a0 033086E0 		add	r3, r6, r3
 7807 75a4 FF3003E2 		and	r3, r3, #255
 7808 75a8 0030C5E5 		strb	r3, [r5, #0]
 7809 75ac 023083E0 		add	r3, r3, r2
 7810 75b0 0030C4E5 		strb	r3, [r4, #0]
 7811 75b4 08041FE5 		ldr	r0, .L267+256
 7812 75b8 0610A0E1 		mov	r1, r6
 7813 75bc FEFFFFEB 		bl	uart_transmit
 7814 75c0 0C10DDE5 		ldrb	r1, [sp, #12]	@ zero_extendqisi2
 7815 75c4 0030D5E5 		ldrb	r3, [r5, #0]	@ zero_extendqisi2
 7816 75c8 0020D4E5 		ldrb	r2, [r4, #0]	@ zero_extendqisi2
 7817 75cc 033081E0 		add	r3, r1, r3
 7818 75d0 FF3003E2 		and	r3, r3, #255
 7819 75d4 0030C5E5 		strb	r3, [r5, #0]
 7820 75d8 023083E0 		add	r3, r3, r2
 7821 75dc 0030C4E5 		strb	r3, [r4, #0]
 7822 75e0 34041FE5 		ldr	r0, .L267+256
 7823 75e4 FEFFFFEB 		bl	uart_transmit
 7824 75e8 0D10DDE5 		ldrb	r1, [sp, #13]	@ zero_extendqisi2
 7825 75ec 9FFFFFEA 		b	.L260
 7826              	.L193:
 7827 75f0 540053E3 		cmp	r3, #84
 7828 75f4 9000001A 		bne	.L190
 7829 75f8 4C041FE5 		ldr	r0, .L267+256
 7830 75fc 1110A0E3 		mov	r1, #17
 7831 7600 FEFFFFEB 		bl	uart_check_free_space
 7832 7604 000050E3 		cmp	r0, #0
 7833 7608 8700000A 		beq	.L196
 7834 760c 5C341FE5 		ldr	r3, .L267+260
 7835 7610 B020D3E1 		ldrh	r2, [r3, #0]
 7836 7614 112082E2 		add	r2, r2, #17
 7837 7618 B020C3E1 		strh	r2, [r3, #0]	@ movhi
 7838 761c 68341FE5 		ldr	r3, .L267+264
 7839 7620 B020D3E1 		ldrh	r2, [r3, #0]
 7840 7624 012082E2 		add	r2, r2, #1
 7841 7628 B020C3E1 		strh	r2, [r3, #0]	@ movhi
 7842 762c 80041FE5 		ldr	r0, .L267+256
 7843 7630 9910A0E3 		mov	r1, #153
 7844 7634 DC541FE5 		ldr	r5, .L267+172
 7845 7638 FEFFFFEB 		bl	uart_transmit
 7846 763c 90041FE5 		ldr	r0, .L267+256
 7847 7640 1110A0E3 		mov	r1, #17
 7848 7644 E8441FE5 		ldr	r4, .L267+176
 7849 7648 FEFFFFEB 		bl	uart_transmit
 7850 764c 1330A0E3 		mov	r3, #19
 7851 7650 0030C5E5 		strb	r3, [r5, #0]
 7852 7654 2430A0E3 		mov	r3, #36
 7853 7658 0030C4E5 		strb	r3, [r4, #0]
 7854 765c B0041FE5 		ldr	r0, .L267+256
 7855 7660 0210A0E3 		mov	r1, #2
 7856 7664 FEFFFFEB 		bl	uart_transmit
 7857 7668 0030D5E5 		ldrb	r3, [r5, #0]	@ zero_extendqisi2
 7858 766c 0020D4E5 		ldrb	r2, [r4, #0]	@ zero_extendqisi2
 7859 7670 113083E2 		add	r3, r3, #17
 7860 7674 FF3003E2 		and	r3, r3, #255
 7861 7678 48651FE5 		ldr	r6, .L267+132
 7862 767c 0030C5E5 		strb	r3, [r5, #0]
 7863 7680 023083E0 		add	r3, r3, r2
 7864 7684 0030C4E5 		strb	r3, [r4, #0]
 7865 7688 DC041FE5 		ldr	r0, .L267+256
 7866 768c 1110A0E3 		mov	r1, #17
 7867 7690 FEFFFFEB 		bl	uart_transmit
 7868 7694 4C10D6E5 		ldrb	r1, [r6, #76]	@ zero_extendqisi2
 7869 7698 0030D5E5 		ldrb	r3, [r5, #0]	@ zero_extendqisi2
 7870 769c 0020D4E5 		ldrb	r2, [r4, #0]	@ zero_extendqisi2
 7871 76a0 033081E0 		add	r3, r1, r3
 7872 76a4 FF3003E2 		and	r3, r3, #255
 7873 76a8 0030C5E5 		strb	r3, [r5, #0]
 7874 76ac 023083E0 		add	r3, r3, r2
 7875 76b0 0030C4E5 		strb	r3, [r4, #0]
 7876 76b4 08051FE5 		ldr	r0, .L267+256
 7877 76b8 FEFFFFEB 		bl	uart_transmit
 7878 76bc 4D10D6E5 		ldrb	r1, [r6, #77]	@ zero_extendqisi2
 7879 76c0 0030D5E5 		ldrb	r3, [r5, #0]	@ zero_extendqisi2
 7880 76c4 0020D4E5 		ldrb	r2, [r4, #0]	@ zero_extendqisi2
 7881 76c8 033081E0 		add	r3, r1, r3
 7882 76cc FF3003E2 		and	r3, r3, #255
 7883 76d0 0030C5E5 		strb	r3, [r5, #0]
 7884 76d4 023083E0 		add	r3, r3, r2
 7885 76d8 0030C4E5 		strb	r3, [r4, #0]
 7886 76dc 30051FE5 		ldr	r0, .L267+256
 7887 76e0 FEFFFFEB 		bl	uart_transmit
 7888 76e4 4E10D6E5 		ldrb	r1, [r6, #78]	@ zero_extendqisi2
 7889 76e8 0030D5E5 		ldrb	r3, [r5, #0]	@ zero_extendqisi2
 7890 76ec 0020D4E5 		ldrb	r2, [r4, #0]	@ zero_extendqisi2
 7891 76f0 033081E0 		add	r3, r1, r3
 7892 76f4 FF3003E2 		and	r3, r3, #255
 7893 76f8 0030C5E5 		strb	r3, [r5, #0]
 7894 76fc 023083E0 		add	r3, r3, r2
 7895 7700 0030C4E5 		strb	r3, [r4, #0]
 7896 7704 58051FE5 		ldr	r0, .L267+256
 7897 7708 FEFFFFEB 		bl	uart_transmit
 7898 770c 4F10D6E5 		ldrb	r1, [r6, #79]	@ zero_extendqisi2
 7899 7710 0030D5E5 		ldrb	r3, [r5, #0]	@ zero_extendqisi2
 7900 7714 0020D4E5 		ldrb	r2, [r4, #0]	@ zero_extendqisi2
 7901 7718 033081E0 		add	r3, r1, r3
 7902 771c FF3003E2 		and	r3, r3, #255
 7903 7720 0030C5E5 		strb	r3, [r5, #0]
 7904 7724 023083E0 		add	r3, r3, r2
 7905 7728 0030C4E5 		strb	r3, [r4, #0]
 7906 772c 80051FE5 		ldr	r0, .L267+256
 7907 7730 FEFFFFEB 		bl	uart_transmit
 7908 7734 5010D6E5 		ldrb	r1, [r6, #80]	@ zero_extendqisi2
 7909 7738 0030D5E5 		ldrb	r3, [r5, #0]	@ zero_extendqisi2
 7910 773c 0020D4E5 		ldrb	r2, [r4, #0]	@ zero_extendqisi2
 7911 7740 033081E0 		add	r3, r1, r3
 7912 7744 FF3003E2 		and	r3, r3, #255
 7913 7748 0030C5E5 		strb	r3, [r5, #0]
 7914 774c 023083E0 		add	r3, r3, r2
 7915 7750 0030C4E5 		strb	r3, [r4, #0]
 7916 7754 A8051FE5 		ldr	r0, .L267+256
 7917 7758 FEFFFFEB 		bl	uart_transmit
 7918 775c 5110D6E5 		ldrb	r1, [r6, #81]	@ zero_extendqisi2
 7919 7760 0030D5E5 		ldrb	r3, [r5, #0]	@ zero_extendqisi2
 7920 7764 0020D4E5 		ldrb	r2, [r4, #0]	@ zero_extendqisi2
 7921 7768 033081E0 		add	r3, r1, r3
 7922 776c FF3003E2 		and	r3, r3, #255
 7923 7770 0030C5E5 		strb	r3, [r5, #0]
 7924 7774 023083E0 		add	r3, r3, r2
 7925 7778 0030C4E5 		strb	r3, [r4, #0]
 7926 777c D0051FE5 		ldr	r0, .L267+256
 7927 7780 FEFFFFEB 		bl	uart_transmit
 7928 7784 5210D6E5 		ldrb	r1, [r6, #82]	@ zero_extendqisi2
 7929 7788 0030D5E5 		ldrb	r3, [r5, #0]	@ zero_extendqisi2
 7930 778c 0020D4E5 		ldrb	r2, [r4, #0]	@ zero_extendqisi2
 7931 7790 033081E0 		add	r3, r1, r3
 7932 7794 FF3003E2 		and	r3, r3, #255
 7933 7798 0030C5E5 		strb	r3, [r5, #0]
 7934 779c 023083E0 		add	r3, r3, r2
 7935 77a0 0030C4E5 		strb	r3, [r4, #0]
 7936 77a4 F8051FE5 		ldr	r0, .L267+256
 7937 77a8 FEFFFFEB 		bl	uart_transmit
 7938 77ac 5310D6E5 		ldrb	r1, [r6, #83]	@ zero_extendqisi2
 7939 77b0 0030D5E5 		ldrb	r3, [r5, #0]	@ zero_extendqisi2
 7940 77b4 0020D4E5 		ldrb	r2, [r4, #0]	@ zero_extendqisi2
 7941 77b8 033081E0 		add	r3, r1, r3
 7942 77bc FF3003E2 		and	r3, r3, #255
 7943 77c0 0030C5E5 		strb	r3, [r5, #0]
 7944 77c4 023083E0 		add	r3, r3, r2
 7945 77c8 0030C4E5 		strb	r3, [r4, #0]
 7946 77cc 20061FE5 		ldr	r0, .L267+256
 7947 77d0 FEFFFFEB 		bl	uart_transmit
 7948 77d4 5810D6E5 		ldrb	r1, [r6, #88]	@ zero_extendqisi2
 7949 77d8 0030D5E5 		ldrb	r3, [r5, #0]	@ zero_extendqisi2
 7950 77dc 0020D4E5 		ldrb	r2, [r4, #0]	@ zero_extendqisi2
 7951 77e0 033081E0 		add	r3, r1, r3
 7952 77e4 FF3003E2 		and	r3, r3, #255
 7953 77e8 0030C5E5 		strb	r3, [r5, #0]
 7954 77ec 023083E0 		add	r3, r3, r2
 7955 77f0 0030C4E5 		strb	r3, [r4, #0]
 7956 77f4 48061FE5 		ldr	r0, .L267+256
 7957 77f8 FEFFFFEB 		bl	uart_transmit
 7958 77fc 5910D6E5 		ldrb	r1, [r6, #89]	@ zero_extendqisi2
 7959 7800 0030D5E5 		ldrb	r3, [r5, #0]	@ zero_extendqisi2
 7960 7804 0020D4E5 		ldrb	r2, [r4, #0]	@ zero_extendqisi2
 7961 7808 033081E0 		add	r3, r1, r3
 7962 780c FF3003E2 		and	r3, r3, #255
 7963 7810 0030C5E5 		strb	r3, [r5, #0]
 7964 7814 023083E0 		add	r3, r3, r2
 7965 7818 0030C4E5 		strb	r3, [r4, #0]
 7966 781c 70061FE5 		ldr	r0, .L267+256
 7967 7820 FEFFFFEB 		bl	uart_transmit
 7968 7824 5A10D6E5 		ldrb	r1, [r6, #90]	@ zero_extendqisi2
 7969 7828 10FFFFEA 		b	.L260
 7970              	.L196:
 7971 782c C0361FE5 		ldr	r3, .L267+192
 7972 7830 0020D3E5 		ldrb	r2, [r3, #0]	@ zero_extendqisi2
 7973 7834 012082E2 		add	r2, r2, #1
 7974 7838 0020C3E5 		strb	r2, [r3, #0]
 7975              	.L190:
 7976 783c 08371FE5 		ldr	r3, .L267+136
 7977 7840 B030D3E1 		ldrh	r3, [r3, #0]
 7978 7844 5A0053E3 		cmp	r3, #90
 7979 7848 5100001A 		bne	.L197
 7980 784c A0061FE5 		ldr	r0, .L267+256
 7981 7850 0B10A0E3 		mov	r1, #11
 7982 7854 FEFFFFEB 		bl	uart_check_free_space
 7983 7858 000050E3 		cmp	r0, #0
 7984 785c B900000A 		beq	.L200
 7985 7860 B0361FE5 		ldr	r3, .L267+260
 7986 7864 B020D3E1 		ldrh	r2, [r3, #0]
 7987 7868 0B2082E2 		add	r2, r2, #11
 7988 786c B020C3E1 		strh	r2, [r3, #0]	@ movhi
 7989 7870 BC361FE5 		ldr	r3, .L267+264
 7990 7874 B020D3E1 		ldrh	r2, [r3, #0]
 7991 7878 012082E2 		add	r2, r2, #1
 7992 787c B020C3E1 		strh	r2, [r3, #0]	@ movhi
 7993 7880 D4061FE5 		ldr	r0, .L267+256
 7994 7884 9910A0E3 		mov	r1, #153
 7995 7888 30571FE5 		ldr	r5, .L267+172
 7996 788c FEFFFFEB 		bl	uart_transmit
 7997 7890 E4061FE5 		ldr	r0, .L267+256
 7998 7894 0B10A0E3 		mov	r1, #11
 7999 7898 3C471FE5 		ldr	r4, .L267+176
 8000 789c FEFFFFEB 		bl	uart_transmit
 8001 78a0 0D30A0E3 		mov	r3, #13
 8002 78a4 0030C5E5 		strb	r3, [r5, #0]
 8003 78a8 1830A0E3 		mov	r3, #24
 8004 78ac 0030C4E5 		strb	r3, [r4, #0]
 8005 78b0 04071FE5 		ldr	r0, .L267+256
 8006 78b4 0210A0E3 		mov	r1, #2
 8007 78b8 FEFFFFEB 		bl	uart_transmit
 8008 78bc 0030D5E5 		ldrb	r3, [r5, #0]	@ zero_extendqisi2
 8009 78c0 0020D4E5 		ldrb	r2, [r4, #0]	@ zero_extendqisi2
 8010 78c4 0E3083E2 		add	r3, r3, #14
 8011 78c8 FF3003E2 		and	r3, r3, #255
 8012 78cc 94671FE5 		ldr	r6, .L267+140
 8013 78d0 0030C5E5 		strb	r3, [r5, #0]
 8014 78d4 023083E0 		add	r3, r3, r2
 8015 78d8 0030C4E5 		strb	r3, [r4, #0]
 8016 78dc 30071FE5 		ldr	r0, .L267+256
 8017 78e0 0E10A0E3 		mov	r1, #14
 8018 78e4 FEFFFFEB 		bl	uart_transmit
 8019 78e8 0010D6E5 		ldrb	r1, [r6, #0]	@ zero_extendqisi2
 8020 78ec 0030D5E5 		ldrb	r3, [r5, #0]	@ zero_extendqisi2
 8021 78f0 0020D4E5 		ldrb	r2, [r4, #0]	@ zero_extendqisi2
 8022 78f4 033081E0 		add	r3, r1, r3
 8023 78f8 FF3003E2 		and	r3, r3, #255
 8024 78fc 0030C5E5 		strb	r3, [r5, #0]
 8025 7900 023083E0 		add	r3, r3, r2
 8026 7904 0030C4E5 		strb	r3, [r4, #0]
 8027 7908 5C071FE5 		ldr	r0, .L267+256
 8028 790c FEFFFFEB 		bl	uart_transmit
 8029 7910 0110D6E5 		ldrb	r1, [r6, #1]	@ zero_extendqisi2
 8030 7914 0030D5E5 		ldrb	r3, [r5, #0]	@ zero_extendqisi2
 8031 7918 0020D4E5 		ldrb	r2, [r4, #0]	@ zero_extendqisi2
 8032 791c 033081E0 		add	r3, r1, r3
 8033 7920 FF3003E2 		and	r3, r3, #255
 8034 7924 0030C5E5 		strb	r3, [r5, #0]
 8035 7928 023083E0 		add	r3, r3, r2
 8036 792c 0030C4E5 		strb	r3, [r4, #0]
 8037 7930 84071FE5 		ldr	r0, .L267+256
 8038 7934 FEFFFFEB 		bl	uart_transmit
 8039 7938 0210D6E5 		ldrb	r1, [r6, #2]	@ zero_extendqisi2
 8040 793c 0030D5E5 		ldrb	r3, [r5, #0]	@ zero_extendqisi2
 8041 7940 0020D4E5 		ldrb	r2, [r4, #0]	@ zero_extendqisi2
 8042 7944 033081E0 		add	r3, r1, r3
 8043 7948 FF3003E2 		and	r3, r3, #255
 8044 794c 0030C5E5 		strb	r3, [r5, #0]
 8045 7950 023083E0 		add	r3, r3, r2
 8046 7954 0030C4E5 		strb	r3, [r4, #0]
 8047 7958 AC071FE5 		ldr	r0, .L267+256
 8048 795c FEFFFFEB 		bl	uart_transmit
 8049 7960 0310D6E5 		ldrb	r1, [r6, #3]	@ zero_extendqisi2
 8050 7964 0030D5E5 		ldrb	r3, [r5, #0]	@ zero_extendqisi2
 8051 7968 0020D4E5 		ldrb	r2, [r4, #0]	@ zero_extendqisi2
 8052 796c 033081E0 		add	r3, r1, r3
 8053 7970 FF3003E2 		and	r3, r3, #255
 8054 7974 0030C5E5 		strb	r3, [r5, #0]
 8055 7978 023083E0 		add	r3, r3, r2
 8056 797c 0030C4E5 		strb	r3, [r4, #0]
 8057 7980 D4071FE5 		ldr	r0, .L267+256
 8058 7984 FEFFFFEB 		bl	uart_transmit
 8059 7988 4C381FE5 		ldr	r3, .L267+144
 8060 798c 0010D3E5 		ldrb	r1, [r3, #0]	@ zero_extendqisi2
 8061 7990 5C0000EA 		b	.L255
 8062              	.L197:
 8063 7994 600053E3 		cmp	r3, #96
 8064 7998 6E00001A 		bne	.L199
 8065 799c 5C581FE5 		ldr	r5, .L267+148
 8066 79a0 F0471FE5 		ldr	r4, .L267+260
 8067 79a4 B000D5E1 		ldrh	r0, [r5, #0]
 8068 79a8 B060D4E1 		ldrh	r6, [r4, #0]
 8069 79ac 060060E0 		rsb	r0, r0, r6
 8070 79b0 FEFFFFEB 		bl	__aeabi_i2d
 8071 79b4 70281FE5 		ldr	r2, .L267+152
 8072 79b8 70381FE5 		ldr	r3, .L267+156
 8073 79bc FEFFFFEB 		bl	__aeabi_ddiv
 8074 79c0 FEFFFFEB 		bl	__aeabi_d2uiz
 8075 79c4 B060C5E1 		strh	r6, [r5, #0]	@ movhi
 8076 79c8 BC00CDE1 		strh	r0, [sp, #12]	@ movhi
 8077 79cc 0B10A0E3 		mov	r1, #11
 8078 79d0 24081FE5 		ldr	r0, .L267+256
 8079 79d4 FEFFFFEB 		bl	uart_check_free_space
 8080 79d8 000050E3 		cmp	r0, #0
 8081 79dc 5900000A 		beq	.L200
 8082 79e0 B030D4E1 		ldrh	r3, [r4, #0]
 8083 79e4 30681FE5 		ldr	r6, .L267+264
 8084 79e8 0B3083E2 		add	r3, r3, #11
 8085 79ec B030C4E1 		strh	r3, [r4, #0]	@ movhi
 8086 79f0 B030D6E1 		ldrh	r3, [r6, #0]
 8087 79f4 013083E2 		add	r3, r3, #1
 8088 79f8 B030C6E1 		strh	r3, [r6, #0]	@ movhi
 8089 79fc 50081FE5 		ldr	r0, .L267+256
 8090 7a00 9910A0E3 		mov	r1, #153
 8091 7a04 AC581FE5 		ldr	r5, .L267+172
 8092 7a08 FEFFFFEB 		bl	uart_transmit
 8093 7a0c 60081FE5 		ldr	r0, .L267+256
 8094 7a10 0B10A0E3 		mov	r1, #11
 8095 7a14 B8481FE5 		ldr	r4, .L267+176
 8096 7a18 FEFFFFEB 		bl	uart_transmit
 8097 7a1c 0D30A0E3 		mov	r3, #13
 8098 7a20 0030C5E5 		strb	r3, [r5, #0]
 8099 7a24 1830A0E3 		mov	r3, #24
 8100 7a28 0030C4E5 		strb	r3, [r4, #0]
 8101 7a2c 80081FE5 		ldr	r0, .L267+256
 8102 7a30 0210A0E3 		mov	r1, #2
 8103 7a34 FEFFFFEB 		bl	uart_transmit
 8104 7a38 0030D5E5 		ldrb	r3, [r5, #0]	@ zero_extendqisi2
 8105 7a3c 0020D4E5 		ldrb	r2, [r4, #0]	@ zero_extendqisi2
 8106 7a40 1E3083E2 		add	r3, r3, #30
 8107 7a44 FF3003E2 		and	r3, r3, #255
 8108 7a48 0030C5E5 		strb	r3, [r5, #0]
 8109 7a4c 023083E0 		add	r3, r3, r2
 8110 7a50 0030C4E5 		strb	r3, [r4, #0]
 8111 7a54 A8081FE5 		ldr	r0, .L267+256
 8112 7a58 1E10A0E3 		mov	r1, #30
 8113 7a5c FEFFFFEB 		bl	uart_transmit
 8114 7a60 F4381FE5 		ldr	r3, .L267+192
 8115 7a64 0010D3E5 		ldrb	r1, [r3, #0]	@ zero_extendqisi2
 8116 7a68 0030D5E5 		ldrb	r3, [r5, #0]	@ zero_extendqisi2
 8117 7a6c 0020D4E5 		ldrb	r2, [r4, #0]	@ zero_extendqisi2
 8118 7a70 033081E0 		add	r3, r1, r3
 8119 7a74 FF3003E2 		and	r3, r3, #255
 8120 7a78 0030C5E5 		strb	r3, [r5, #0]
 8121 7a7c 023083E0 		add	r3, r3, r2
 8122 7a80 0030C4E5 		strb	r3, [r4, #0]
 8123 7a84 D8081FE5 		ldr	r0, .L267+256
 8124 7a88 FEFFFFEB 		bl	uart_transmit
 8125 7a8c 0C10DDE5 		ldrb	r1, [sp, #12]	@ zero_extendqisi2
 8126 7a90 0030D5E5 		ldrb	r3, [r5, #0]	@ zero_extendqisi2
 8127 7a94 0020D4E5 		ldrb	r2, [r4, #0]	@ zero_extendqisi2
 8128 7a98 033081E0 		add	r3, r1, r3
 8129 7a9c FF3003E2 		and	r3, r3, #255
 8130 7aa0 0030C5E5 		strb	r3, [r5, #0]
 8131 7aa4 023083E0 		add	r3, r3, r2
 8132 7aa8 0030C4E5 		strb	r3, [r4, #0]
 8133 7aac 00091FE5 		ldr	r0, .L267+256
 8134 7ab0 FEFFFFEB 		bl	uart_transmit
 8135 7ab4 0D10DDE5 		ldrb	r1, [sp, #13]	@ zero_extendqisi2
 8136 7ab8 0030D5E5 		ldrb	r3, [r5, #0]	@ zero_extendqisi2
 8137 7abc 0020D4E5 		ldrb	r2, [r4, #0]	@ zero_extendqisi2
 8138 7ac0 033081E0 		add	r3, r1, r3
 8139 7ac4 FF3003E2 		and	r3, r3, #255
 8140 7ac8 0030C5E5 		strb	r3, [r5, #0]
 8141 7acc 023083E0 		add	r3, r3, r2
 8142 7ad0 0030C4E5 		strb	r3, [r4, #0]
 8143 7ad4 28091FE5 		ldr	r0, .L267+256
 8144 7ad8 FEFFFFEB 		bl	uart_transmit
 8145 7adc 0010D6E5 		ldrb	r1, [r6, #0]	@ zero_extendqisi2
 8146 7ae0 0030D5E5 		ldrb	r3, [r5, #0]	@ zero_extendqisi2
 8147 7ae4 0020D4E5 		ldrb	r2, [r4, #0]	@ zero_extendqisi2
 8148 7ae8 033081E0 		add	r3, r1, r3
 8149 7aec FF3003E2 		and	r3, r3, #255
 8150 7af0 0030C5E5 		strb	r3, [r5, #0]
 8151 7af4 023083E0 		add	r3, r3, r2
 8152 7af8 0030C4E5 		strb	r3, [r4, #0]
 8153 7afc 50091FE5 		ldr	r0, .L267+256
 8154 7b00 FEFFFFEB 		bl	uart_transmit
 8155 7b04 0110D6E5 		ldrb	r1, [r6, #1]	@ zero_extendqisi2
 8156              	.L255:
 8157 7b08 0030D5E5 		ldrb	r3, [r5, #0]	@ zero_extendqisi2
 8158 7b0c 0020D4E5 		ldrb	r2, [r4, #0]	@ zero_extendqisi2
 8159 7b10 033081E0 		add	r3, r1, r3
 8160 7b14 FF3003E2 		and	r3, r3, #255
 8161 7b18 0030C5E5 		strb	r3, [r5, #0]
 8162 7b1c 023083E0 		add	r3, r3, r2
 8163 7b20 0030C4E5 		strb	r3, [r4, #0]
 8164 7b24 78091FE5 		ldr	r0, .L267+256
 8165 7b28 FEFFFFEB 		bl	uart_transmit
 8166 7b2c 0010D5E5 		ldrb	r1, [r5, #0]	@ zero_extendqisi2
 8167 7b30 84091FE5 		ldr	r0, .L267+256
 8168 7b34 FEFFFFEB 		bl	uart_transmit
 8169 7b38 8C091FE5 		ldr	r0, .L267+256
 8170 7b3c 0010D4E5 		ldrb	r1, [r4, #0]	@ zero_extendqisi2
 8171 7b40 FEFFFFEB 		bl	uart_transmit
 8172 7b44 030000EA 		b	.L199
 8173              	.L200:
 8174 7b48 DC391FE5 		ldr	r3, .L267+192
 8175 7b4c 0020D3E5 		ldrb	r2, [r3, #0]	@ zero_extendqisi2
 8176 7b50 012082E2 		add	r2, r2, #1
 8177 7b54 0020C3E5 		strb	r2, [r3, #0]
 8178              	.L199:
 8179 7b58 0C3A1FE5 		ldr	r3, .L267+160
 8180 7b5c B030D3E1 		ldrh	r3, [r3, #0]
 8181 7b60 660053E3 		cmp	r3, #102
 8182 7b64 9500001A 		bne	.L201
 8183 7b68 BC091FE5 		ldr	r0, .L267+256
 8184 7b6c 1010A0E3 		mov	r1, #16
 8185 7b70 FEFFFFEB 		bl	uart_check_free_space
 8186 7b74 000050E3 		cmp	r0, #0
 8187 7b78 8C00000A 		beq	.L202
 8188 7b7c CC391FE5 		ldr	r3, .L267+260
 8189 7b80 B020D3E1 		ldrh	r2, [r3, #0]
 8190 7b84 102082E2 		add	r2, r2, #16
 8191 7b88 B020C3E1 		strh	r2, [r3, #0]	@ movhi
 8192 7b8c D8391FE5 		ldr	r3, .L267+264
 8193 7b90 B020D3E1 		ldrh	r2, [r3, #0]
 8194 7b94 012082E2 		add	r2, r2, #1
 8195 7b98 B020C3E1 		strh	r2, [r3, #0]	@ movhi
 8196 7b9c F0091FE5 		ldr	r0, .L267+256
 8197 7ba0 9910A0E3 		mov	r1, #153
 8198 7ba4 4C5A1FE5 		ldr	r5, .L267+172
 8199 7ba8 FEFFFFEB 		bl	uart_transmit
 8200 7bac 000A1FE5 		ldr	r0, .L267+256
 8201 7bb0 1010A0E3 		mov	r1, #16
 8202 7bb4 584A1FE5 		ldr	r4, .L267+176
 8203 7bb8 FEFFFFEB 		bl	uart_transmit
 8204 7bbc 1230A0E3 		mov	r3, #18
 8205 7bc0 0030C5E5 		strb	r3, [r5, #0]
 8206 7bc4 2230A0E3 		mov	r3, #34
 8207 7bc8 0030C4E5 		strb	r3, [r4, #0]
 8208 7bcc 200A1FE5 		ldr	r0, .L267+256
 8209 7bd0 0210A0E3 		mov	r1, #2
 8210 7bd4 FEFFFFEB 		bl	uart_transmit
 8211 7bd8 0030D5E5 		ldrb	r3, [r5, #0]	@ zero_extendqisi2
 8212 7bdc 0020D4E5 		ldrb	r2, [r4, #0]	@ zero_extendqisi2
 8213 7be0 073083E2 		add	r3, r3, #7
 8214 7be4 FF3003E2 		and	r3, r3, #255
 8215 7be8 986A1FE5 		ldr	r6, .L267+164
 8216 7bec 0030C5E5 		strb	r3, [r5, #0]
 8217 7bf0 023083E0 		add	r3, r3, r2
 8218 7bf4 0030C4E5 		strb	r3, [r4, #0]
 8219 7bf8 4C0A1FE5 		ldr	r0, .L267+256
 8220 7bfc 0710A0E3 		mov	r1, #7
 8221 7c00 FEFFFFEB 		bl	uart_transmit
 8222 7c04 0010D6E5 		ldrb	r1, [r6, #0]	@ zero_extendqisi2
 8223 7c08 0030D5E5 		ldrb	r3, [r5, #0]	@ zero_extendqisi2
 8224 7c0c 0020D4E5 		ldrb	r2, [r4, #0]	@ zero_extendqisi2
 8225 7c10 033081E0 		add	r3, r1, r3
 8226 7c14 FF3003E2 		and	r3, r3, #255
 8227 7c18 0030C5E5 		strb	r3, [r5, #0]
 8228 7c1c 023083E0 		add	r3, r3, r2
 8229 7c20 0030C4E5 		strb	r3, [r4, #0]
 8230 7c24 780A1FE5 		ldr	r0, .L267+256
 8231 7c28 FEFFFFEB 		bl	uart_transmit
 8232 7c2c 0110D6E5 		ldrb	r1, [r6, #1]	@ zero_extendqisi2
 8233 7c30 0030D5E5 		ldrb	r3, [r5, #0]	@ zero_extendqisi2
 8234 7c34 0020D4E5 		ldrb	r2, [r4, #0]	@ zero_extendqisi2
 8235 7c38 033081E0 		add	r3, r1, r3
 8236 7c3c FF3003E2 		and	r3, r3, #255
 8237 7c40 0030C5E5 		strb	r3, [r5, #0]
 8238 7c44 023083E0 		add	r3, r3, r2
 8239 7c48 0030C4E5 		strb	r3, [r4, #0]
 8240 7c4c A00A1FE5 		ldr	r0, .L267+256
 8241 7c50 FEFFFFEB 		bl	uart_transmit
 8242 7c54 0210D6E5 		ldrb	r1, [r6, #2]	@ zero_extendqisi2
 8243 7c58 0030D5E5 		ldrb	r3, [r5, #0]	@ zero_extendqisi2
 8244 7c5c 0020D4E5 		ldrb	r2, [r4, #0]	@ zero_extendqisi2
 8245 7c60 033081E0 		add	r3, r1, r3
 8246 7c64 FF3003E2 		and	r3, r3, #255
 8247 7c68 0030C5E5 		strb	r3, [r5, #0]
 8248 7c6c 023083E0 		add	r3, r3, r2
 8249 7c70 0030C4E5 		strb	r3, [r4, #0]
 8250 7c74 C80A1FE5 		ldr	r0, .L267+256
 8251 7c78 FEFFFFEB 		bl	uart_transmit
 8252 7c7c 0310D6E5 		ldrb	r1, [r6, #3]	@ zero_extendqisi2
 8253 7c80 0030D5E5 		ldrb	r3, [r5, #0]	@ zero_extendqisi2
 8254 7c84 0020D4E5 		ldrb	r2, [r4, #0]	@ zero_extendqisi2
 8255 7c88 033081E0 		add	r3, r1, r3
 8256 7c8c FF3003E2 		and	r3, r3, #255
 8257 7c90 0030C5E5 		strb	r3, [r5, #0]
 8258 7c94 023083E0 		add	r3, r3, r2
 8259 7c98 0030C4E5 		strb	r3, [r4, #0]
 8260 7c9c F00A1FE5 		ldr	r0, .L267+256
 8261 7ca0 FEFFFFEB 		bl	uart_transmit
 8262 7ca4 1610D6E5 		ldrb	r1, [r6, #22]	@ zero_extendqisi2
 8263 7ca8 0030D5E5 		ldrb	r3, [r5, #0]	@ zero_extendqisi2
 8264 7cac 0020D4E5 		ldrb	r2, [r4, #0]	@ zero_extendqisi2
 8265 7cb0 033081E0 		add	r3, r1, r3
 8266 7cb4 FF3003E2 		and	r3, r3, #255
 8267 7cb8 0030C5E5 		strb	r3, [r5, #0]
 8268 7cbc 023083E0 		add	r3, r3, r2
 8269 7cc0 0030C4E5 		strb	r3, [r4, #0]
 8270 7cc4 180B1FE5 		ldr	r0, .L267+256
 8271 7cc8 FEFFFFEB 		bl	uart_transmit
 8272 7ccc 1710D6E5 		ldrb	r1, [r6, #23]	@ zero_extendqisi2
 8273 7cd0 0030D5E5 		ldrb	r3, [r5, #0]	@ zero_extendqisi2
 8274 7cd4 0020D4E5 		ldrb	r2, [r4, #0]	@ zero_extendqisi2
 8275 7cd8 033081E0 		add	r3, r1, r3
 8276 7cdc FF3003E2 		and	r3, r3, #255
 8277 7ce0 0030C5E5 		strb	r3, [r5, #0]
 8278 7ce4 023083E0 		add	r3, r3, r2
 8279 7ce8 0030C4E5 		strb	r3, [r4, #0]
 8280 7cec 400B1FE5 		ldr	r0, .L267+256
 8281 7cf0 FEFFFFEB 		bl	uart_transmit
 8282 7cf4 1410D6E5 		ldrb	r1, [r6, #20]	@ zero_extendqisi2
 8283 7cf8 0030D5E5 		ldrb	r3, [r5, #0]	@ zero_extendqisi2
 8284 7cfc 0020D4E5 		ldrb	r2, [r4, #0]	@ zero_extendqisi2
 8285 7d00 033081E0 		add	r3, r1, r3
 8286 7d04 FF3003E2 		and	r3, r3, #255
 8287 7d08 0030C5E5 		strb	r3, [r5, #0]
 8288 7d0c 023083E0 		add	r3, r3, r2
 8289 7d10 0030C4E5 		strb	r3, [r4, #0]
 8290 7d14 680B1FE5 		ldr	r0, .L267+256
 8291 7d18 FEFFFFEB 		bl	uart_transmit
 8292 7d1c 1510D6E5 		ldrb	r1, [r6, #21]	@ zero_extendqisi2
 8293 7d20 0030D5E5 		ldrb	r3, [r5, #0]	@ zero_extendqisi2
 8294 7d24 0020D4E5 		ldrb	r2, [r4, #0]	@ zero_extendqisi2
 8295 7d28 033081E0 		add	r3, r1, r3
 8296 7d2c FF3003E2 		and	r3, r3, #255
 8297 7d30 0030C5E5 		strb	r3, [r5, #0]
 8298 7d34 023083E0 		add	r3, r3, r2
 8299 7d38 0030C4E5 		strb	r3, [r4, #0]
 8300 7d3c 900B1FE5 		ldr	r0, .L267+256
 8301 7d40 FEFFFFEB 		bl	uart_transmit
 8302 7d44 1810D6E5 		ldrb	r1, [r6, #24]	@ zero_extendqisi2
 8303 7d48 0030D5E5 		ldrb	r3, [r5, #0]	@ zero_extendqisi2
 8304 7d4c 0020D4E5 		ldrb	r2, [r4, #0]	@ zero_extendqisi2
 8305 7d50 033081E0 		add	r3, r1, r3
 8306 7d54 FF3003E2 		and	r3, r3, #255
 8307 7d58 0030C5E5 		strb	r3, [r5, #0]
 8308 7d5c 023083E0 		add	r3, r3, r2
 8309 7d60 0030C4E5 		strb	r3, [r4, #0]
 8310 7d64 B80B1FE5 		ldr	r0, .L267+256
 8311 7d68 FEFFFFEB 		bl	uart_transmit
 8312 7d6c 1910D6E5 		ldrb	r1, [r6, #25]	@ zero_extendqisi2
 8313 7d70 0030D5E5 		ldrb	r3, [r5, #0]	@ zero_extendqisi2
 8314 7d74 0020D4E5 		ldrb	r2, [r4, #0]	@ zero_extendqisi2
 8315 7d78 033081E0 		add	r3, r1, r3
 8316 7d7c FF3003E2 		and	r3, r3, #255
 8317 7d80 0030C5E5 		strb	r3, [r5, #0]
 8318 7d84 023083E0 		add	r3, r3, r2
 8319 7d88 0030C4E5 		strb	r3, [r4, #0]
 8320 7d8c E00B1FE5 		ldr	r0, .L267+256
 8321 7d90 FEFFFFEB 		bl	uart_transmit
 8322 7d94 0010D5E5 		ldrb	r1, [r5, #0]	@ zero_extendqisi2
 8323 7d98 EC0B1FE5 		ldr	r0, .L267+256
 8324 7d9c FEFFFFEB 		bl	uart_transmit
 8325 7da0 F40B1FE5 		ldr	r0, .L267+256
 8326 7da4 0010D4E5 		ldrb	r1, [r4, #0]	@ zero_extendqisi2
 8327 7da8 FEFFFFEB 		bl	uart_transmit
 8328 7dac 030000EA 		b	.L201
 8329              	.L202:
 8330 7db0 443C1FE5 		ldr	r3, .L267+192
 8331 7db4 0020D3E5 		ldrb	r2, [r3, #0]	@ zero_extendqisi2
 8332 7db8 012082E2 		add	r2, r2, #1
 8333 7dbc 0020C3E5 		strb	r2, [r3, #0]
 8334              	.L201:
 8335 7dc0 6C3C1FE5 		ldr	r3, .L267+168
 8336 7dc4 B030D3E1 		ldrh	r3, [r3, #0]
 8337 7dc8 6C0053E3 		cmp	r3, #108
 8338 7dcc 8D00001A 		bne	.L106
 8339 7dd0 240C1FE5 		ldr	r0, .L267+256
 8340 7dd4 0F10A0E3 		mov	r1, #15
 8341 7dd8 FEFFFFEB 		bl	uart_check_free_space
 8342 7ddc 000050E3 		cmp	r0, #0
 8343 7de0 8400000A 		beq	.L203
 8344 7de4 343C1FE5 		ldr	r3, .L267+260
 8345 7de8 B020D3E1 		ldrh	r2, [r3, #0]
 8346 7dec 0F2082E2 		add	r2, r2, #15
 8347 7df0 B020C3E1 		strh	r2, [r3, #0]	@ movhi
 8348 7df4 403C1FE5 		ldr	r3, .L267+264
 8349 7df8 B020D3E1 		ldrh	r2, [r3, #0]
 8350 7dfc 012082E2 		add	r2, r2, #1
 8351 7e00 B020C3E1 		strh	r2, [r3, #0]	@ movhi
 8352 7e04 580C1FE5 		ldr	r0, .L267+256
 8353 7e08 9910A0E3 		mov	r1, #153
 8354 7e0c B45C1FE5 		ldr	r5, .L267+172
 8355 7e10 FEFFFFEB 		bl	uart_transmit
 8356 7e14 680C1FE5 		ldr	r0, .L267+256
 8357 7e18 0F10A0E3 		mov	r1, #15
 8358 7e1c C04C1FE5 		ldr	r4, .L267+176
 8359 7e20 FEFFFFEB 		bl	uart_transmit
 8360 7e24 1130A0E3 		mov	r3, #17
 8361 7e28 0030C5E5 		strb	r3, [r5, #0]
 8362 7e2c 2030A0E3 		mov	r3, #32
 8363 7e30 0030C4E5 		strb	r3, [r4, #0]
 8364 7e34 880C1FE5 		ldr	r0, .L267+256
 8365 7e38 0210A0E3 		mov	r1, #2
 8366 7e3c FEFFFFEB 		bl	uart_transmit
 8367 7e40 0030D5E5 		ldrb	r3, [r5, #0]	@ zero_extendqisi2
 8368 7e44 0020D4E5 		ldrb	r2, [r4, #0]	@ zero_extendqisi2
 8369 7e48 093083E2 		add	r3, r3, #9
 8370 7e4c FF3003E2 		and	r3, r3, #255
 8371 7e50 F06C1FE5 		ldr	r6, .L267+180
 8372 7e54 0030C5E5 		strb	r3, [r5, #0]
 8373 7e58 023083E0 		add	r3, r3, r2
 8374 7e5c 0030C4E5 		strb	r3, [r4, #0]
 8375 7e60 B40C1FE5 		ldr	r0, .L267+256
 8376 7e64 0910A0E3 		mov	r1, #9
 8377 7e68 FEFFFFEB 		bl	uart_transmit
 8378 7e6c 0010D6E5 		ldrb	r1, [r6, #0]	@ zero_extendqisi2
 8379 7e70 0030D5E5 		ldrb	r3, [r5, #0]	@ zero_extendqisi2
 8380 7e74 0020D4E5 		ldrb	r2, [r4, #0]	@ zero_extendqisi2
 8381 7e78 033081E0 		add	r3, r1, r3
 8382 7e7c FF3003E2 		and	r3, r3, #255
 8383 7e80 0030C5E5 		strb	r3, [r5, #0]
 8384 7e84 023083E0 		add	r3, r3, r2
 8385 7e88 0030C4E5 		strb	r3, [r4, #0]
 8386 7e8c E00C1FE5 		ldr	r0, .L267+256
 8387 7e90 FEFFFFEB 		bl	uart_transmit
 8388 7e94 0110D6E5 		ldrb	r1, [r6, #1]	@ zero_extendqisi2
 8389 7e98 0030D5E5 		ldrb	r3, [r5, #0]	@ zero_extendqisi2
 8390 7e9c 0020D4E5 		ldrb	r2, [r4, #0]	@ zero_extendqisi2
 8391 7ea0 033081E0 		add	r3, r1, r3
 8392 7ea4 FF3003E2 		and	r3, r3, #255
 8393 7ea8 0030C5E5 		strb	r3, [r5, #0]
 8394 7eac 023083E0 		add	r3, r3, r2
 8395 7eb0 0030C4E5 		strb	r3, [r4, #0]
 8396 7eb4 080D1FE5 		ldr	r0, .L267+256
 8397 7eb8 FEFFFFEB 		bl	uart_transmit
 8398 7ebc 0210D6E5 		ldrb	r1, [r6, #2]	@ zero_extendqisi2
 8399 7ec0 0030D5E5 		ldrb	r3, [r5, #0]	@ zero_extendqisi2
 8400 7ec4 0020D4E5 		ldrb	r2, [r4, #0]	@ zero_extendqisi2
 8401 7ec8 033081E0 		add	r3, r1, r3
 8402 7ecc FF3003E2 		and	r3, r3, #255
 8403 7ed0 0030C5E5 		strb	r3, [r5, #0]
 8404 7ed4 023083E0 		add	r3, r3, r2
 8405 7ed8 0030C4E5 		strb	r3, [r4, #0]
 8406 7edc 300D1FE5 		ldr	r0, .L267+256
 8407 7ee0 FEFFFFEB 		bl	uart_transmit
 8408 7ee4 0310D6E5 		ldrb	r1, [r6, #3]	@ zero_extendqisi2
 8409 7ee8 0030D5E5 		ldrb	r3, [r5, #0]	@ zero_extendqisi2
 8410 7eec 0020D4E5 		ldrb	r2, [r4, #0]	@ zero_extendqisi2
 8411 7ef0 033081E0 		add	r3, r1, r3
 8412 7ef4 FF3003E2 		and	r3, r3, #255
 8413 7ef8 946D1FE5 		ldr	r6, .L267+184
 8414 7efc 0030C5E5 		strb	r3, [r5, #0]
 8415 7f00 023083E0 		add	r3, r3, r2
 8416 7f04 0030C4E5 		strb	r3, [r4, #0]
 8417 7f08 5C0D1FE5 		ldr	r0, .L267+256
 8418 7f0c FEFFFFEB 		bl	uart_transmit
 8419 7f10 0010D6E5 		ldrb	r1, [r6, #0]	@ zero_extendqisi2
 8420 7f14 0030D5E5 		ldrb	r3, [r5, #0]	@ zero_extendqisi2
 8421 7f18 0020D4E5 		ldrb	r2, [r4, #0]	@ zero_extendqisi2
 8422 7f1c 033081E0 		add	r3, r1, r3
 8423 7f20 FF3003E2 		and	r3, r3, #255
 8424 7f24 0030C5E5 		strb	r3, [r5, #0]
 8425 7f28 023083E0 		add	r3, r3, r2
 8426 7f2c 0030C4E5 		strb	r3, [r4, #0]
 8427 7f30 840D1FE5 		ldr	r0, .L267+256
 8428 7f34 FEFFFFEB 		bl	uart_transmit
 8429 7f38 0110D6E5 		ldrb	r1, [r6, #1]	@ zero_extendqisi2
 8430 7f3c 0030D5E5 		ldrb	r3, [r5, #0]	@ zero_extendqisi2
 8431 7f40 0020D4E5 		ldrb	r2, [r4, #0]	@ zero_extendqisi2
 8432 7f44 033081E0 		add	r3, r1, r3
 8433 7f48 FF3003E2 		and	r3, r3, #255
 8434 7f4c 0030C5E5 		strb	r3, [r5, #0]
 8435 7f50 023083E0 		add	r3, r3, r2
 8436 7f54 0030C4E5 		strb	r3, [r4, #0]
 8437 7f58 AC0D1FE5 		ldr	r0, .L267+256
 8438 7f5c FEFFFFEB 		bl	uart_transmit
 8439 7f60 0210D6E5 		ldrb	r1, [r6, #2]	@ zero_extendqisi2
 8440 7f64 0030D5E5 		ldrb	r3, [r5, #0]	@ zero_extendqisi2
 8441 7f68 0020D4E5 		ldrb	r2, [r4, #0]	@ zero_extendqisi2
 8442 7f6c 033081E0 		add	r3, r1, r3
 8443 7f70 FF3003E2 		and	r3, r3, #255
 8444 7f74 0030C5E5 		strb	r3, [r5, #0]
 8445 7f78 023083E0 		add	r3, r3, r2
 8446 7f7c 0030C4E5 		strb	r3, [r4, #0]
 8447 7f80 D40D1FE5 		ldr	r0, .L267+256
 8448 7f84 FEFFFFEB 		bl	uart_transmit
 8449 7f88 0310D6E5 		ldrb	r1, [r6, #3]	@ zero_extendqisi2
 8450 7f8c 0030D5E5 		ldrb	r3, [r5, #0]	@ zero_extendqisi2
 8451 7f90 0020D4E5 		ldrb	r2, [r4, #0]	@ zero_extendqisi2
 8452 7f94 033081E0 		add	r3, r1, r3
 8453 7f98 FF3003E2 		and	r3, r3, #255
 8454 7f9c 0030C5E5 		strb	r3, [r5, #0]
 8455 7fa0 023083E0 		add	r3, r3, r2
 8456 7fa4 0030C4E5 		strb	r3, [r4, #0]
 8457 7fa8 FC0D1FE5 		ldr	r0, .L267+256
 8458 7fac FEFFFFEB 		bl	uart_transmit
 8459 7fb0 483E1FE5 		ldr	r3, .L267+188
 8460 7fb4 0010D3E5 		ldrb	r1, [r3, #0]	@ zero_extendqisi2
 8461 7fb8 0030D5E5 		ldrb	r3, [r5, #0]	@ zero_extendqisi2
 8462 7fbc 0020D4E5 		ldrb	r2, [r4, #0]	@ zero_extendqisi2
 8463 7fc0 033081E0 		add	r3, r1, r3
 8464 7fc4 FF3003E2 		and	r3, r3, #255
 8465 7fc8 0030C5E5 		strb	r3, [r5, #0]
 8466 7fcc 023083E0 		add	r3, r3, r2
 8467 7fd0 0030C4E5 		strb	r3, [r4, #0]
 8468 7fd4 280E1FE5 		ldr	r0, .L267+256
 8469 7fd8 FEFFFFEB 		bl	uart_transmit
 8470 7fdc 0010D5E5 		ldrb	r1, [r5, #0]	@ zero_extendqisi2
 8471 7fe0 340E1FE5 		ldr	r0, .L267+256
 8472 7fe4 FEFFFFEB 		bl	uart_transmit
 8473 7fe8 3C0E1FE5 		ldr	r0, .L267+256
 8474 7fec 0010D4E5 		ldrb	r1, [r4, #0]	@ zero_extendqisi2
 8475 7ff0 FEFFFFEB 		bl	uart_transmit
 8476 7ff4 030000EA 		b	.L106
 8477              	.L203:
 8478 7ff8 8C3E1FE5 		ldr	r3, .L267+192
 8479 7ffc 0020D3E5 		ldrb	r2, [r3, #0]	@ zero_extendqisi2
 8480 8000 012082E2 		add	r2, r2, #1
 8481 8004 0020C3E5 		strb	r2, [r3, #0]
 8482              	.L106:
 8483 8008 983E1FE5 		ldr	r3, .L267+196
 8484 800c 0030D3E5 		ldrb	r3, [r3, #0]	@ zero_extendqisi2
 8485 8010 020053E3 		cmp	r3, #2
 8486 8014 2A08001A 		bne	.L4
 8487 8018 703E1FE5 		ldr	r3, .L267+252
 8488 801c B020D3E1 		ldrh	r2, [r3, #0]
 8489 8020 012082E2 		add	r2, r2, #1
 8490 8024 0228A0E1 		mov	r2, r2, asl #16
 8491 8028 2228A0E1 		mov	r2, r2, lsr #16
 8492 802c 4B0F52E3 		cmp	r2, #300
 8493 8030 B020C3E1 		strh	r2, [r3, #0]	@ movhi
 8494 8034 0020A023 		movcs	r2, #0
 8495 8038 B020C321 		strcsh	r2, [r3, #0]	@ movhi
 8496 803c C83E1FE5 		ldr	r3, .L267+200
 8497 8040 B020D3E1 		ldrh	r2, [r3, #0]
 8498 8044 012082E2 		add	r2, r2, #1
 8499 8048 D01E1FE5 		ldr	r1, .L267+204
 8500 804c 0228A0E1 		mov	r2, r2, asl #16
 8501 8050 2228A0E1 		mov	r2, r2, lsr #16
 8502 8054 010052E1 		cmp	r2, r1
 8503 8058 B020C3E1 		strh	r2, [r3, #0]	@ movhi
 8504 805c 0020A083 		movhi	r2, #0
 8505 8060 B020C381 		strhih	r2, [r3, #0]	@ movhi
 8506 8064 E83E1FE5 		ldr	r3, .L267+208
 8507 8068 B020D3E1 		ldrh	r2, [r3, #0]
 8508 806c 012082E2 		add	r2, r2, #1
 8509 8070 F01E1FE5 		ldr	r1, .L267+212
 8510 8074 0228A0E1 		mov	r2, r2, asl #16
 8511 8078 2228A0E1 		mov	r2, r2, lsr #16
 8512 807c 010052E1 		cmp	r2, r1
 8513 8080 B020C3E1 		strh	r2, [r3, #0]	@ movhi
 8514 8084 0020A083 		movhi	r2, #0
 8515 8088 B020C381 		strhih	r2, [r3, #0]	@ movhi
 8516 808c 083F1FE5 		ldr	r3, .L267+216
 8517 8090 B020D3E1 		ldrh	r2, [r3, #0]
 8518 8094 012082E2 		add	r2, r2, #1
 8519 8098 0228A0E1 		mov	r2, r2, asl #16
 8520 809c 2228A0E1 		mov	r2, r2, lsr #16
 8521 80a0 510F52E3 		cmp	r2, #324
 8522 80a4 B020C3E1 		strh	r2, [r3, #0]	@ movhi
 8523 80a8 0020A023 		movcs	r2, #0
 8524 80ac B020C321 		strcsh	r2, [r3, #0]	@ movhi
 8525 80b0 283F1FE5 		ldr	r3, .L267+220
 8526 80b4 B020D3E1 		ldrh	r2, [r3, #0]
 8527 80b8 012082E2 		add	r2, r2, #1
 8528 80bc 301F1FE5 		ldr	r1, .L267+224
 8529 80c0 0228A0E1 		mov	r2, r2, asl #16
 8530 80c4 2228A0E1 		mov	r2, r2, lsr #16
 8531 80c8 010052E1 		cmp	r2, r1
 8532 80cc B020C3E1 		strh	r2, [r3, #0]	@ movhi
 8533 80d0 0020A083 		movhi	r2, #0
 8534 80d4 B020C381 		strhih	r2, [r3, #0]	@ movhi
 8535 80d8 483F1FE5 		ldr	r3, .L267+228
 8536 80dc B020D3E1 		ldrh	r2, [r3, #0]
 8537 80e0 012082E2 		add	r2, r2, #1
 8538 80e4 501F1FE5 		ldr	r1, .L267+232
 8539 80e8 0228A0E1 		mov	r2, r2, asl #16
 8540 80ec 2228A0E1 		mov	r2, r2, lsr #16
 8541 80f0 010052E1 		cmp	r2, r1
 8542 80f4 B020C3E1 		strh	r2, [r3, #0]	@ movhi
 8543 80f8 0020A083 		movhi	r2, #0
 8544 80fc B020C381 		strhih	r2, [r3, #0]	@ movhi
 8545 8100 683F1FE5 		ldr	r3, .L267+236
 8546 8104 B020D3E1 		ldrh	r2, [r3, #0]
 8547 8108 012082E2 		add	r2, r2, #1
 8548 810c 0228A0E1 		mov	r2, r2, asl #16
 8549 8110 2228A0E1 		mov	r2, r2, lsr #16
 8550 8114 690F52E3 		cmp	r2, #420
 8551 8118 B020C3E1 		strh	r2, [r3, #0]	@ movhi
 8552 811c 0020A023 		movcs	r2, #0
 8553 8120 B020C321 		strcsh	r2, [r3, #0]	@ movhi
 8554 8124 883F1FE5 		ldr	r3, .L267+240
 8555 8128 B020D3E1 		ldrh	r2, [r3, #0]
 8556 812c 012082E2 		add	r2, r2, #1
 8557 8130 0228A0E1 		mov	r2, r2, asl #16
 8558 8134 941F1FE5 		ldr	r1, .L267+244
 8559 8138 2228A0E1 		mov	r2, r2, lsr #16
 8560 813c 010052E1 		cmp	r2, r1
 8561 8140 B020C3E1 		strh	r2, [r3, #0]	@ movhi
 8562 8144 0020A083 		movhi	r2, #0
 8563 8148 B020C381 		strhih	r2, [r3, #0]	@ movhi
 8564 814c A83F1FE5 		ldr	r3, .L267+248
 8565 8150 B020D3E1 		ldrh	r2, [r3, #0]
 8566 8154 012082E2 		add	r2, r2, #1
 8567 8158 0228A0E1 		mov	r2, r2, asl #16
 8568 815c 2228A0E1 		mov	r2, r2, lsr #16
 8569 8160 990F52E3 		cmp	r2, #612
 8570 8164 B020C3E1 		strh	r2, [r3, #0]	@ movhi
 8571 8168 0020A023 		movcs	r2, #0
 8572 816c B020C321 		strcsh	r2, [r3, #0]	@ movhi
 8573 8170 C83F1FE5 		ldr	r3, .L267+252
 8574 8174 B060D3E1 		ldrh	r6, [r3, #0]
 8575 8178 000056E3 		cmp	r6, #0
 8576 817c 4A00001A 		bne	.L213
 8577 8180 D40F1FE5 		ldr	r0, .L267+256
 8578 8184 1710A0E3 		mov	r1, #23
 8579 8188 FEFFFFEB 		bl	uart_check_free_space
 8580 818c 000050E3 		cmp	r0, #0
 8581 8190 4100000A 		beq	.L214
 8582 8194 E43F1FE5 		ldr	r3, .L267+260
 8583 8198 B020D3E1 		ldrh	r2, [r3, #0]
 8584 819c 172082E2 		add	r2, r2, #23
 8585 81a0 B020C3E1 		strh	r2, [r3, #0]	@ movhi
 8586 81a4 F03F1FE5 		ldr	r3, .L267+264
 8587 81a8 B020D3E1 		ldrh	r2, [r3, #0]
 8588 81ac 012082E2 		add	r2, r2, #1
 8589 81b0 B020C3E1 		strh	r2, [r3, #0]	@ movhi
 8590 81b4 D80F9FE5 		ldr	r0, .L269+172
 8591 81b8 9910A0E3 		mov	r1, #153
 8592 81bc FEFFFFEB 		bl	uart_transmit
 8593 81c0 E05F9FE5 		ldr	r5, .L269+192
 8594 81c4 C80F9FE5 		ldr	r0, .L269+172
 8595 81c8 1710A0E3 		mov	r1, #23
 8596 81cc FEFFFFEB 		bl	uart_transmit
 8597 81d0 D44F9FE5 		ldr	r4, .L269+196
 8598 81d4 1930A0E3 		mov	r3, #25
 8599 81d8 0030C5E5 		strb	r3, [r5, #0]
 8600 81dc 3030A0E3 		mov	r3, #48
 8601 81e0 0030C4E5 		strb	r3, [r4, #0]
 8602 81e4 A80F9FE5 		ldr	r0, .L269+172
 8603 81e8 0210A0E3 		mov	r1, #2
 8604 81ec FEFFFFEB 		bl	uart_transmit
 8605 81f0 0030D5E5 		ldrb	r3, [r5, #0]	@ zero_extendqisi2
 8606 81f4 0020D4E5 		ldrb	r2, [r4, #0]	@ zero_extendqisi2
 8607 81f8 023083E2 		add	r3, r3, #2
 8608 81fc FF3003E2 		and	r3, r3, #255
 8609 8200 0030C5E5 		strb	r3, [r5, #0]
 8610 8204 023083E0 		add	r3, r3, r2
 8611 8208 0030C4E5 		strb	r3, [r4, #0]
 8612 820c 800F9FE5 		ldr	r0, .L269+172
 8613 8210 0210A0E3 		mov	r1, #2
 8614 8214 FEFFFFEB 		bl	uart_transmit
 8615 8218 0030D5E5 		ldrb	r3, [r5, #0]	@ zero_extendqisi2
 8616 821c 0020D4E5 		ldrb	r2, [r4, #0]	@ zero_extendqisi2
 8617 8220 103083E2 		add	r3, r3, #16
 8618 8224 FF3003E2 		and	r3, r3, #255
 8619 8228 0030C5E5 		strb	r3, [r5, #0]
 8620 822c 023083E0 		add	r3, r3, r2
 8621 8230 0030C4E5 		strb	r3, [r4, #0]
 8622 8234 580F9FE5 		ldr	r0, .L269+172
 8623 8238 1010A0E3 		mov	r1, #16
 8624 823c FEFFFFEB 		bl	uart_transmit
 8625 8240 A07E9FE5 		ldr	r7, .L269
 8626              	.L215:
 8627 8244 0610D7E7 		ldrb	r1, [r7, r6]	@ zero_extendqisi2
 8628 8248 0030D5E5 		ldrb	r3, [r5, #0]	@ zero_extendqisi2
 8629 824c 0020D4E5 		ldrb	r2, [r4, #0]	@ zero_extendqisi2
 8630 8250 033081E0 		add	r3, r1, r3
 8631 8254 FF3003E2 		and	r3, r3, #255
 8632 8258 0030C5E5 		strb	r3, [r5, #0]
 8633 825c 023083E0 		add	r3, r3, r2
 8634 8260 0030C4E5 		strb	r3, [r4, #0]
 8635 8264 280F9FE5 		ldr	r0, .L269+172
 8636 8268 016086E2 		add	r6, r6, #1
 8637 826c FEFFFFEB 		bl	uart_transmit
 8638 8270 100056E3 		cmp	r6, #16
 8639 8274 F2FFFF1A 		bne	.L215
 8640 8278 283F9FE5 		ldr	r3, .L269+192
 8641 827c 100F9FE5 		ldr	r0, .L269+172
 8642 8280 0010D3E5 		ldrb	r1, [r3, #0]	@ zero_extendqisi2
 8643 8284 FEFFFFEB 		bl	uart_transmit
 8644 8288 1C3F9FE5 		ldr	r3, .L269+196
 8645 828c 000F9FE5 		ldr	r0, .L269+172
 8646 8290 0010D3E5 		ldrb	r1, [r3, #0]	@ zero_extendqisi2
 8647 8294 FEFFFFEB 		bl	uart_transmit
 8648 8298 030000EA 		b	.L213
 8649              	.L214:
 8650 829c 2C3F9FE5 		ldr	r3, .L269+232
 8651 82a0 0020D3E5 		ldrb	r2, [r3, #0]	@ zero_extendqisi2
 8652 82a4 012082E2 		add	r2, r2, #1
 8653 82a8 0020C3E5 		strb	r2, [r3, #0]
 8654              	.L213:
 8655 82ac 383E9FE5 		ldr	r3, .L269+4
 8656 82b0 B030D3E1 		ldrh	r3, [r3, #0]
 8657 82b4 060053E3 		cmp	r3, #6
 8658 82b8 FA01001A 		bne	.L216
 8659 82bc 2C4E9FE5 		ldr	r4, .L269+8
 8660 82c0 403094E5 		ldr	r3, [r4, #64]
 8661 82c4 480094E5 		ldr	r0, [r4, #72]
 8662 82c8 003063E2 		rsb	r3, r3, #0
 8663 82cc BC30CDE1 		strh	r3, [sp, #12]	@ movhi
 8664 82d0 FEFFFFEB 		bl	__aeabi_i2d
 8665 82d4 182E9FE5 		ldr	r2, .L269+12
 8666 82d8 183E9FE5 		ldr	r3, .L269+16
 8667 82dc FEFFFFEB 		bl	__aeabi_dmul
 8668 82e0 0020A0E3 		mov	r2, #0
 8669 82e4 103E9FE5 		ldr	r3, .L269+20
 8670 82e8 FEFFFFEB 		bl	__aeabi_ddiv
 8671 82ec FEFFFFEB 		bl	__aeabi_d2iz
 8672 82f0 2110A0E3 		mov	r1, #33
 8673 82f4 BE00CDE1 		strh	r0, [sp, #14]	@ movhi
 8674 82f8 940E9FE5 		ldr	r0, .L269+172
 8675 82fc FEFFFFEB 		bl	uart_check_free_space
 8676 8300 000050E3 		cmp	r0, #0
 8677 8304 3601000A 		beq	.L217
 8678 8308 903E9FE5 		ldr	r3, .L269+184
 8679 830c B020D3E1 		ldrh	r2, [r3, #0]
 8680 8310 212082E2 		add	r2, r2, #33
 8681 8314 B020C3E1 		strh	r2, [r3, #0]	@ movhi
 8682 8318 843E9FE5 		ldr	r3, .L269+188
 8683 831c B020D3E1 		ldrh	r2, [r3, #0]
 8684 8320 012082E2 		add	r2, r2, #1
 8685 8324 B020C3E1 		strh	r2, [r3, #0]	@ movhi
 8686 8328 640E9FE5 		ldr	r0, .L269+172
 8687 832c 9910A0E3 		mov	r1, #153
 8688 8330 706E9FE5 		ldr	r6, .L269+192
 8689 8334 FEFFFFEB 		bl	uart_transmit
 8690 8338 540E9FE5 		ldr	r0, .L269+172
 8691 833c 2110A0E3 		mov	r1, #33
 8692 8340 645E9FE5 		ldr	r5, .L269+196
 8693 8344 FEFFFFEB 		bl	uart_transmit
 8694 8348 2330A0E3 		mov	r3, #35
 8695 834c 0030C6E5 		strb	r3, [r6, #0]
 8696 8350 4430A0E3 		mov	r3, #68
 8697 8354 0030C5E5 		strb	r3, [r5, #0]
 8698 8358 340E9FE5 		ldr	r0, .L269+172
 8699 835c 0210A0E3 		mov	r1, #2
 8700 8360 FEFFFFEB 		bl	uart_transmit
 8701 8364 0030D6E5 		ldrb	r3, [r6, #0]	@ zero_extendqisi2
 8702 8368 0020D5E5 		ldrb	r2, [r5, #0]	@ zero_extendqisi2
 8703 836c 083083E2 		add	r3, r3, #8
 8704 8370 FF3003E2 		and	r3, r3, #255
 8705 8374 0030C6E5 		strb	r3, [r6, #0]
 8706 8378 023083E0 		add	r3, r3, r2
 8707 837c 0030C5E5 		strb	r3, [r5, #0]
 8708 8380 0C0E9FE5 		ldr	r0, .L269+172
 8709 8384 0810A0E3 		mov	r1, #8
 8710 8388 FEFFFFEB 		bl	uart_transmit
 8711 838c 5B10D4E5 		ldrb	r1, [r4, #91]	@ zero_extendqisi2
 8712 8390 0030D6E5 		ldrb	r3, [r6, #0]	@ zero_extendqisi2
 8713 8394 0020D5E5 		ldrb	r2, [r5, #0]	@ zero_extendqisi2
 8714 8398 033081E0 		add	r3, r1, r3
 8715 839c FF3003E2 		and	r3, r3, #255
 8716 83a0 0030C6E5 		strb	r3, [r6, #0]
 8717 83a4 023083E0 		add	r3, r3, r2
 8718 83a8 0030C5E5 		strb	r3, [r5, #0]
 8719 83ac E00D9FE5 		ldr	r0, .L269+172
 8720 83b0 FEFFFFEB 		bl	uart_transmit
 8721 83b4 1C10D4E5 		ldrb	r1, [r4, #28]	@ zero_extendqisi2
 8722 83b8 0030D6E5 		ldrb	r3, [r6, #0]	@ zero_extendqisi2
 8723 83bc 0020D5E5 		ldrb	r2, [r5, #0]	@ zero_extendqisi2
 8724 83c0 033081E0 		add	r3, r1, r3
 8725 83c4 FF3003E2 		and	r3, r3, #255
 8726 83c8 0030C6E5 		strb	r3, [r6, #0]
 8727 83cc 023083E0 		add	r3, r3, r2
 8728 83d0 0030C5E5 		strb	r3, [r5, #0]
 8729 83d4 B80D9FE5 		ldr	r0, .L269+172
 8730 83d8 FEFFFFEB 		bl	uart_transmit
 8731 83dc 1D10D4E5 		ldrb	r1, [r4, #29]	@ zero_extendqisi2
 8732 83e0 0030D6E5 		ldrb	r3, [r6, #0]	@ zero_extendqisi2
 8733 83e4 0020D5E5 		ldrb	r2, [r5, #0]	@ zero_extendqisi2
 8734 83e8 033081E0 		add	r3, r1, r3
 8735 83ec FF3003E2 		and	r3, r3, #255
 8736 83f0 0030C6E5 		strb	r3, [r6, #0]
 8737 83f4 023083E0 		add	r3, r3, r2
 8738 83f8 0030C5E5 		strb	r3, [r5, #0]
 8739 83fc 900D9FE5 		ldr	r0, .L269+172
 8740 8400 FEFFFFEB 		bl	uart_transmit
 8741 8404 1E10D4E5 		ldrb	r1, [r4, #30]	@ zero_extendqisi2
 8742 8408 0030D6E5 		ldrb	r3, [r6, #0]	@ zero_extendqisi2
 8743 840c 0020D5E5 		ldrb	r2, [r5, #0]	@ zero_extendqisi2
 8744 8410 033081E0 		add	r3, r1, r3
 8745 8414 FF3003E2 		and	r3, r3, #255
 8746 8418 0030C6E5 		strb	r3, [r6, #0]
 8747 841c 023083E0 		add	r3, r3, r2
 8748 8420 0030C5E5 		strb	r3, [r5, #0]
 8749 8424 680D9FE5 		ldr	r0, .L269+172
 8750 8428 FEFFFFEB 		bl	uart_transmit
 8751 842c 1F10D4E5 		ldrb	r1, [r4, #31]	@ zero_extendqisi2
 8752 8430 0030D6E5 		ldrb	r3, [r6, #0]	@ zero_extendqisi2
 8753 8434 0020D5E5 		ldrb	r2, [r5, #0]	@ zero_extendqisi2
 8754 8438 033081E0 		add	r3, r1, r3
 8755 843c FF3003E2 		and	r3, r3, #255
 8756 8440 0030C6E5 		strb	r3, [r6, #0]
 8757 8444 023083E0 		add	r3, r3, r2
 8758 8448 0030C5E5 		strb	r3, [r5, #0]
 8759 844c 400D9FE5 		ldr	r0, .L269+172
 8760 8450 FEFFFFEB 		bl	uart_transmit
 8761 8454 1810D4E5 		ldrb	r1, [r4, #24]	@ zero_extendqisi2
 8762 8458 0030D6E5 		ldrb	r3, [r6, #0]	@ zero_extendqisi2
 8763 845c 0020D5E5 		ldrb	r2, [r5, #0]	@ zero_extendqisi2
 8764 8460 033081E0 		add	r3, r1, r3
 8765 8464 FF3003E2 		and	r3, r3, #255
 8766 8468 0030C6E5 		strb	r3, [r6, #0]
 8767 846c 023083E0 		add	r3, r3, r2
 8768 8470 0030C5E5 		strb	r3, [r5, #0]
 8769 8474 180D9FE5 		ldr	r0, .L269+172
 8770 8478 FEFFFFEB 		bl	uart_transmit
 8771 847c 1910D4E5 		ldrb	r1, [r4, #25]	@ zero_extendqisi2
 8772 8480 0030D6E5 		ldrb	r3, [r6, #0]	@ zero_extendqisi2
 8773 8484 0020D5E5 		ldrb	r2, [r5, #0]	@ zero_extendqisi2
 8774 8488 033081E0 		add	r3, r1, r3
 8775 848c FF3003E2 		and	r3, r3, #255
 8776 8490 0030C6E5 		strb	r3, [r6, #0]
 8777 8494 023083E0 		add	r3, r3, r2
 8778 8498 0030C5E5 		strb	r3, [r5, #0]
 8779 849c F00C9FE5 		ldr	r0, .L269+172
 8780 84a0 FEFFFFEB 		bl	uart_transmit
 8781 84a4 1A10D4E5 		ldrb	r1, [r4, #26]	@ zero_extendqisi2
 8782 84a8 0030D6E5 		ldrb	r3, [r6, #0]	@ zero_extendqisi2
 8783 84ac 0020D5E5 		ldrb	r2, [r5, #0]	@ zero_extendqisi2
 8784 84b0 033081E0 		add	r3, r1, r3
 8785 84b4 FF3003E2 		and	r3, r3, #255
 8786 84b8 0030C6E5 		strb	r3, [r6, #0]
 8787 84bc 023083E0 		add	r3, r3, r2
 8788 84c0 0030C5E5 		strb	r3, [r5, #0]
 8789 84c4 C80C9FE5 		ldr	r0, .L269+172
 8790 84c8 FEFFFFEB 		bl	uart_transmit
 8791 84cc 1B10D4E5 		ldrb	r1, [r4, #27]	@ zero_extendqisi2
 8792 84d0 0030D6E5 		ldrb	r3, [r6, #0]	@ zero_extendqisi2
 8793 84d4 0020D5E5 		ldrb	r2, [r5, #0]	@ zero_extendqisi2
 8794 84d8 033081E0 		add	r3, r1, r3
 8795 84dc FF3003E2 		and	r3, r3, #255
 8796 84e0 0030C6E5 		strb	r3, [r6, #0]
 8797 84e4 023083E0 		add	r3, r3, r2
 8798 84e8 0030C5E5 		strb	r3, [r5, #0]
 8799 84ec A00C9FE5 		ldr	r0, .L269+172
 8800 84f0 FEFFFFEB 		bl	uart_transmit
 8801 84f4 0E10DDE5 		ldrb	r1, [sp, #14]	@ zero_extendqisi2
 8802 84f8 0030D6E5 		ldrb	r3, [r6, #0]	@ zero_extendqisi2
 8803 84fc 0020D5E5 		ldrb	r2, [r5, #0]	@ zero_extendqisi2
 8804 8500 033081E0 		add	r3, r1, r3
 8805 8504 FF3003E2 		and	r3, r3, #255
 8806 8508 0030C6E5 		strb	r3, [r6, #0]
 8807 850c 023083E0 		add	r3, r3, r2
 8808 8510 0030C5E5 		strb	r3, [r5, #0]
 8809 8514 780C9FE5 		ldr	r0, .L269+172
 8810 8518 FEFFFFEB 		bl	uart_transmit
 8811 851c 0F10DDE5 		ldrb	r1, [sp, #15]	@ zero_extendqisi2
 8812 8520 0030D6E5 		ldrb	r3, [r6, #0]	@ zero_extendqisi2
 8813 8524 0020D5E5 		ldrb	r2, [r5, #0]	@ zero_extendqisi2
 8814 8528 033081E0 		add	r3, r1, r3
 8815 852c FF3003E2 		and	r3, r3, #255
 8816 8530 0030C6E5 		strb	r3, [r6, #0]
 8817 8534 023083E0 		add	r3, r3, r2
 8818 8538 0030C5E5 		strb	r3, [r5, #0]
 8819 853c 500C9FE5 		ldr	r0, .L269+172
 8820 8540 FEFFFFEB 		bl	uart_transmit
 8821 8544 2810D4E5 		ldrb	r1, [r4, #40]	@ zero_extendqisi2
 8822 8548 0030D6E5 		ldrb	r3, [r6, #0]	@ zero_extendqisi2
 8823 854c 0020D5E5 		ldrb	r2, [r5, #0]	@ zero_extendqisi2
 8824 8550 033081E0 		add	r3, r1, r3
 8825 8554 FF3003E2 		and	r3, r3, #255
 8826 8558 0030C6E5 		strb	r3, [r6, #0]
 8827 855c 023083E0 		add	r3, r3, r2
 8828 8560 0030C5E5 		strb	r3, [r5, #0]
 8829 8564 280C9FE5 		ldr	r0, .L269+172
 8830 8568 FEFFFFEB 		bl	uart_transmit
 8831 856c 2910D4E5 		ldrb	r1, [r4, #41]	@ zero_extendqisi2
 8832 8570 0030D6E5 		ldrb	r3, [r6, #0]	@ zero_extendqisi2
 8833 8574 0020D5E5 		ldrb	r2, [r5, #0]	@ zero_extendqisi2
 8834 8578 033081E0 		add	r3, r1, r3
 8835 857c FF3003E2 		and	r3, r3, #255
 8836 8580 0030C6E5 		strb	r3, [r6, #0]
 8837 8584 023083E0 		add	r3, r3, r2
 8838 8588 0030C5E5 		strb	r3, [r5, #0]
 8839 858c 000C9FE5 		ldr	r0, .L269+172
 8840 8590 FEFFFFEB 		bl	uart_transmit
 8841 8594 2A10D4E5 		ldrb	r1, [r4, #42]	@ zero_extendqisi2
 8842 8598 0030D6E5 		ldrb	r3, [r6, #0]	@ zero_extendqisi2
 8843 859c 0020D5E5 		ldrb	r2, [r5, #0]	@ zero_extendqisi2
 8844 85a0 033081E0 		add	r3, r1, r3
 8845 85a4 FF3003E2 		and	r3, r3, #255
 8846 85a8 0030C6E5 		strb	r3, [r6, #0]
 8847 85ac 023083E0 		add	r3, r3, r2
 8848 85b0 0030C5E5 		strb	r3, [r5, #0]
 8849 85b4 D80B9FE5 		ldr	r0, .L269+172
 8850 85b8 FEFFFFEB 		bl	uart_transmit
 8851 85bc 2B10D4E5 		ldrb	r1, [r4, #43]	@ zero_extendqisi2
 8852 85c0 0030D6E5 		ldrb	r3, [r6, #0]	@ zero_extendqisi2
 8853 85c4 0020D5E5 		ldrb	r2, [r5, #0]	@ zero_extendqisi2
 8854 85c8 033081E0 		add	r3, r1, r3
 8855 85cc FF3003E2 		and	r3, r3, #255
 8856 85d0 0030C6E5 		strb	r3, [r6, #0]
 8857 85d4 023083E0 		add	r3, r3, r2
 8858 85d8 0030C5E5 		strb	r3, [r5, #0]
 8859 85dc B00B9FE5 		ldr	r0, .L269+172
 8860 85e0 FEFFFFEB 		bl	uart_transmit
 8861 85e4 4410D4E5 		ldrb	r1, [r4, #68]	@ zero_extendqisi2
 8862 85e8 0030D6E5 		ldrb	r3, [r6, #0]	@ zero_extendqisi2
 8863 85ec 0020D5E5 		ldrb	r2, [r5, #0]	@ zero_extendqisi2
 8864 85f0 033081E0 		add	r3, r1, r3
 8865 85f4 FF3003E2 		and	r3, r3, #255
 8866 85f8 0030C6E5 		strb	r3, [r6, #0]
 8867 85fc 023083E0 		add	r3, r3, r2
 8868 8600 0030C5E5 		strb	r3, [r5, #0]
 8869 8604 880B9FE5 		ldr	r0, .L269+172
 8870 8608 FEFFFFEB 		bl	uart_transmit
 8871 860c 4510D4E5 		ldrb	r1, [r4, #69]	@ zero_extendqisi2
 8872 8610 0030D6E5 		ldrb	r3, [r6, #0]	@ zero_extendqisi2
 8873 8614 0020D5E5 		ldrb	r2, [r5, #0]	@ zero_extendqisi2
 8874 8618 033081E0 		add	r3, r1, r3
 8875 861c FF3003E2 		and	r3, r3, #255
 8876 8620 0030C6E5 		strb	r3, [r6, #0]
 8877 8624 023083E0 		add	r3, r3, r2
 8878 8628 0030C5E5 		strb	r3, [r5, #0]
 8879 862c 600B9FE5 		ldr	r0, .L269+172
 8880 8630 FEFFFFEB 		bl	uart_transmit
 8881 8634 0C10DDE5 		ldrb	r1, [sp, #12]	@ zero_extendqisi2
 8882 8638 0030D6E5 		ldrb	r3, [r6, #0]	@ zero_extendqisi2
 8883 863c 0020D5E5 		ldrb	r2, [r5, #0]	@ zero_extendqisi2
 8884 8640 033081E0 		add	r3, r1, r3
 8885 8644 FF3003E2 		and	r3, r3, #255
 8886 8648 0030C6E5 		strb	r3, [r6, #0]
 8887 864c 023083E0 		add	r3, r3, r2
 8888 8650 0030C5E5 		strb	r3, [r5, #0]
 8889 8654 380B9FE5 		ldr	r0, .L269+172
 8890 8658 FEFFFFEB 		bl	uart_transmit
 8891 865c 0D10DDE5 		ldrb	r1, [sp, #13]	@ zero_extendqisi2
 8892 8660 0030D6E5 		ldrb	r3, [r6, #0]	@ zero_extendqisi2
 8893 8664 0020D5E5 		ldrb	r2, [r5, #0]	@ zero_extendqisi2
 8894 8668 033081E0 		add	r3, r1, r3
 8895 866c FF3003E2 		and	r3, r3, #255
 8896 8670 0030C6E5 		strb	r3, [r6, #0]
 8897 8674 023083E0 		add	r3, r3, r2
 8898 8678 0030C5E5 		strb	r3, [r5, #0]
 8899 867c 100B9FE5 		ldr	r0, .L269+172
 8900 8680 FEFFFFEB 		bl	uart_transmit
 8901 8684 5C10D4E5 		ldrb	r1, [r4, #92]	@ zero_extendqisi2
 8902 8688 0030D6E5 		ldrb	r3, [r6, #0]	@ zero_extendqisi2
 8903 868c 0020D5E5 		ldrb	r2, [r5, #0]	@ zero_extendqisi2
 8904 8690 033081E0 		add	r3, r1, r3
 8905 8694 FF3003E2 		and	r3, r3, #255
 8906 8698 0030C6E5 		strb	r3, [r6, #0]
 8907 869c 023083E0 		add	r3, r3, r2
 8908 86a0 0030C5E5 		strb	r3, [r5, #0]
 8909 86a4 E80A9FE5 		ldr	r0, .L269+172
 8910 86a8 FEFFFFEB 		bl	uart_transmit
 8911 86ac 5D10D4E5 		ldrb	r1, [r4, #93]	@ zero_extendqisi2
 8912 86b0 0030D6E5 		ldrb	r3, [r6, #0]	@ zero_extendqisi2
 8913 86b4 0020D5E5 		ldrb	r2, [r5, #0]	@ zero_extendqisi2
 8914 86b8 033081E0 		add	r3, r1, r3
 8915 86bc FF3003E2 		and	r3, r3, #255
 8916 86c0 0030C6E5 		strb	r3, [r6, #0]
 8917 86c4 023083E0 		add	r3, r3, r2
 8918 86c8 0030C5E5 		strb	r3, [r5, #0]
 8919 86cc C00A9FE5 		ldr	r0, .L269+172
 8920 86d0 FEFFFFEB 		bl	uart_transmit
 8921 86d4 6010D4E5 		ldrb	r1, [r4, #96]	@ zero_extendqisi2
 8922 86d8 0030D6E5 		ldrb	r3, [r6, #0]	@ zero_extendqisi2
 8923 86dc 0020D5E5 		ldrb	r2, [r5, #0]	@ zero_extendqisi2
 8924 86e0 033081E0 		add	r3, r1, r3
 8925 86e4 FF3003E2 		and	r3, r3, #255
 8926 86e8 0030C6E5 		strb	r3, [r6, #0]
 8927 86ec 023083E0 		add	r3, r3, r2
 8928 86f0 0030C5E5 		strb	r3, [r5, #0]
 8929 86f4 980A9FE5 		ldr	r0, .L269+172
 8930 86f8 FEFFFFEB 		bl	uart_transmit
 8931 86fc 6110D4E5 		ldrb	r1, [r4, #97]	@ zero_extendqisi2
 8932 8700 0030D6E5 		ldrb	r3, [r6, #0]	@ zero_extendqisi2
 8933 8704 0020D5E5 		ldrb	r2, [r5, #0]	@ zero_extendqisi2
 8934 8708 033081E0 		add	r3, r1, r3
 8935 870c FF3003E2 		and	r3, r3, #255
 8936 8710 0030C6E5 		strb	r3, [r6, #0]
 8937 8714 023083E0 		add	r3, r3, r2
 8938 8718 0030C5E5 		strb	r3, [r5, #0]
 8939 871c 700A9FE5 		ldr	r0, .L269+172
 8940 8720 FEFFFFEB 		bl	uart_transmit
 8941 8724 6210D4E5 		ldrb	r1, [r4, #98]	@ zero_extendqisi2
 8942 8728 0030D6E5 		ldrb	r3, [r6, #0]	@ zero_extendqisi2
 8943 872c 0020D5E5 		ldrb	r2, [r5, #0]	@ zero_extendqisi2
 8944 8730 033081E0 		add	r3, r1, r3
 8945 8734 FF3003E2 		and	r3, r3, #255
 8946 8738 0030C6E5 		strb	r3, [r6, #0]
 8947 873c 023083E0 		add	r3, r3, r2
 8948 8740 0030C5E5 		strb	r3, [r5, #0]
 8949 8744 480A9FE5 		ldr	r0, .L269+172
 8950 8748 FEFFFFEB 		bl	uart_transmit
 8951 874c 6310D4E5 		ldrb	r1, [r4, #99]	@ zero_extendqisi2
 8952 8750 0030D6E5 		ldrb	r3, [r6, #0]	@ zero_extendqisi2
 8953 8754 0020D5E5 		ldrb	r2, [r5, #0]	@ zero_extendqisi2
 8954 8758 033081E0 		add	r3, r1, r3
 8955 875c FF3003E2 		and	r3, r3, #255
 8956 8760 0030C6E5 		strb	r3, [r6, #0]
 8957 8764 023083E0 		add	r3, r3, r2
 8958 8768 0030C5E5 		strb	r3, [r5, #0]
 8959 876c 200A9FE5 		ldr	r0, .L269+172
 8960 8770 FEFFFFEB 		bl	uart_transmit
 8961 8774 2410D4E5 		ldrb	r1, [r4, #36]	@ zero_extendqisi2
 8962 8778 0030D6E5 		ldrb	r3, [r6, #0]	@ zero_extendqisi2
 8963 877c 0020D5E5 		ldrb	r2, [r5, #0]	@ zero_extendqisi2
 8964 8780 033081E0 		add	r3, r1, r3
 8965 8784 FF3003E2 		and	r3, r3, #255
 8966 8788 0030C6E5 		strb	r3, [r6, #0]
 8967 878c 023083E0 		add	r3, r3, r2
 8968 8790 0030C5E5 		strb	r3, [r5, #0]
 8969 8794 F8099FE5 		ldr	r0, .L269+172
 8970 8798 FEFFFFEB 		bl	uart_transmit
 8971 879c 5C399FE5 		ldr	r3, .L269+24
 8972 87a0 0010D3E5 		ldrb	r1, [r3, #0]	@ zero_extendqisi2
 8973 87a4 0030D6E5 		ldrb	r3, [r6, #0]	@ zero_extendqisi2
 8974 87a8 0020D5E5 		ldrb	r2, [r5, #0]	@ zero_extendqisi2
 8975 87ac 033081E0 		add	r3, r1, r3
 8976 87b0 FF3003E2 		and	r3, r3, #255
 8977 87b4 0030C6E5 		strb	r3, [r6, #0]
 8978 87b8 023083E0 		add	r3, r3, r2
 8979 87bc 0030C5E5 		strb	r3, [r5, #0]
 8980 87c0 CC099FE5 		ldr	r0, .L269+172
 8981 87c4 FEFFFFEB 		bl	uart_transmit
 8982 87c8 0010D6E5 		ldrb	r1, [r6, #0]	@ zero_extendqisi2
 8983 87cc C0099FE5 		ldr	r0, .L269+172
 8984 87d0 FEFFFFEB 		bl	uart_transmit
 8985 87d4 B8099FE5 		ldr	r0, .L269+172
 8986 87d8 0010D5E5 		ldrb	r1, [r5, #0]	@ zero_extendqisi2
 8987 87dc FEFFFFEB 		bl	uart_transmit
 8988 87e0 030000EA 		b	.L218
 8989              	.L217:
 8990 87e4 E4399FE5 		ldr	r3, .L269+232
 8991 87e8 0020D3E5 		ldrb	r2, [r3, #0]	@ zero_extendqisi2
 8992 87ec 012082E2 		add	r2, r2, #1
 8993 87f0 0020C3E5 		strb	r2, [r3, #0]
 8994              	.L218:
 8995 87f4 F4289FE5 		ldr	r2, .L269+8
 8996 87f8 5B30D2E5 		ldrb	r3, [r2, #91]	@ zero_extendqisi2
 8997 87fc 030053E3 		cmp	r3, #3
 8998 8800 F8389FE5 		ldr	r3, .L269+24
 8999 8804 0400000A 		beq	.L219
 9000 8808 6410D2E5 		ldrb	r1, [r2, #100]	@ zero_extendqisi2
 9001 880c 0000D3E5 		ldrb	r0, [r3, #0]	@ zero_extendqisi2
 9002 8810 010050E1 		cmp	r0, r1
 9003 8814 0010A023 		movcs	r1, #0
 9004 8818 0010C325 		strcsb	r1, [r3, #0]
 9005              	.L219:
 9006 881c 0030D3E5 		ldrb	r3, [r3, #0]	@ zero_extendqisi2
 9007 8820 6420D2E5 		ldrb	r2, [r2, #100]	@ zero_extendqisi2
 9008 8824 820053E1 		cmp	r3, r2, asl #1
 9009 8828 D0389FA5 		ldrge	r3, .L269+24
 9010 882c 0010A0A3 		movge	r1, #0
 9011 8830 0010C3A5 		strgeb	r1, [r3, #0]
 9012 8834 C4689FE5 		ldr	r6, .L269+24
 9013 8838 0030D6E5 		ldrb	r3, [r6, #0]	@ zero_extendqisi2
 9014 883c 020053E1 		cmp	r3, r2
 9015 8840 9400002A 		bcs	.L221
 9016 8844 A4789FE5 		ldr	r7, .L269+8
 9017 8848 833187E0 		add	r3, r7, r3, asl #3
 9018 884c 6930D3E5 		ldrb	r3, [r3, #105]	@ zero_extendqisi2
 9019 8850 000053E3 		cmp	r3, #0
 9020 8854 8F00000A 		beq	.L221
 9021 8858 34099FE5 		ldr	r0, .L269+172
 9022 885c 0E10A0E3 		mov	r1, #14
 9023 8860 FEFFFFEB 		bl	uart_check_free_space
 9024 8864 000050E3 		cmp	r0, #0
 9025 8868 8600000A 		beq	.L222
 9026 886c 2C399FE5 		ldr	r3, .L269+184
 9027 8870 B020D3E1 		ldrh	r2, [r3, #0]
 9028 8874 0E2082E2 		add	r2, r2, #14
 9029 8878 B020C3E1 		strh	r2, [r3, #0]	@ movhi
 9030 887c 20399FE5 		ldr	r3, .L269+188
 9031 8880 B020D3E1 		ldrh	r2, [r3, #0]
 9032 8884 012082E2 		add	r2, r2, #1
 9033 8888 B020C3E1 		strh	r2, [r3, #0]	@ movhi
 9034 888c 00099FE5 		ldr	r0, .L269+172
 9035 8890 9910A0E3 		mov	r1, #153
 9036 8894 0C599FE5 		ldr	r5, .L269+192
 9037 8898 FEFFFFEB 		bl	uart_transmit
 9038 889c F0089FE5 		ldr	r0, .L269+172
 9039 88a0 0E10A0E3 		mov	r1, #14
 9040 88a4 00499FE5 		ldr	r4, .L269+196
 9041 88a8 FEFFFFEB 		bl	uart_transmit
 9042 88ac 1030A0E3 		mov	r3, #16
 9043 88b0 0030C5E5 		strb	r3, [r5, #0]
 9044 88b4 1E30A0E3 		mov	r3, #30
 9045 88b8 0030C4E5 		strb	r3, [r4, #0]
 9046 88bc D0089FE5 		ldr	r0, .L269+172
 9047 88c0 0210A0E3 		mov	r1, #2
 9048 88c4 FEFFFFEB 		bl	uart_transmit
 9049 88c8 0030D5E5 		ldrb	r3, [r5, #0]	@ zero_extendqisi2
 9050 88cc 0020D4E5 		ldrb	r2, [r4, #0]	@ zero_extendqisi2
 9051 88d0 193083E2 		add	r3, r3, #25
 9052 88d4 FF3003E2 		and	r3, r3, #255
 9053 88d8 0030C5E5 		strb	r3, [r5, #0]
 9054 88dc 023083E0 		add	r3, r3, r2
 9055 88e0 0030C4E5 		strb	r3, [r4, #0]
 9056 88e4 A8089FE5 		ldr	r0, .L269+172
 9057 88e8 1910A0E3 		mov	r1, #25
 9058 88ec FEFFFFEB 		bl	uart_transmit
 9059 88f0 0010D6E5 		ldrb	r1, [r6, #0]	@ zero_extendqisi2
 9060 88f4 0030D5E5 		ldrb	r3, [r5, #0]	@ zero_extendqisi2
 9061 88f8 0020D4E5 		ldrb	r2, [r4, #0]	@ zero_extendqisi2
 9062 88fc 033081E0 		add	r3, r1, r3
 9063 8900 FF3003E2 		and	r3, r3, #255
 9064 8904 0030C5E5 		strb	r3, [r5, #0]
 9065 8908 023083E0 		add	r3, r3, r2
 9066 890c 0030C4E5 		strb	r3, [r4, #0]
 9067 8910 7C089FE5 		ldr	r0, .L269+172
 9068 8914 FEFFFFEB 		bl	uart_transmit
 9069 8918 0030D6E5 		ldrb	r3, [r6, #0]	@ zero_extendqisi2
 9070 891c 833187E0 		add	r3, r7, r3, asl #3
 9071 8920 6610D3E5 		ldrb	r1, [r3, #102]	@ zero_extendqisi2
 9072 8924 0030D5E5 		ldrb	r3, [r5, #0]	@ zero_extendqisi2
 9073 8928 0020D4E5 		ldrb	r2, [r4, #0]	@ zero_extendqisi2
 9074 892c 033081E0 		add	r3, r1, r3
 9075 8930 FF3003E2 		and	r3, r3, #255
 9076 8934 0030C5E5 		strb	r3, [r5, #0]
 9077 8938 023083E0 		add	r3, r3, r2
 9078 893c 0030C4E5 		strb	r3, [r4, #0]
 9079 8940 4C089FE5 		ldr	r0, .L269+172
 9080 8944 FEFFFFEB 		bl	uart_transmit
 9081 8948 0030D6E5 		ldrb	r3, [r6, #0]	@ zero_extendqisi2
 9082 894c 833187E0 		add	r3, r7, r3, asl #3
 9083 8950 6710D3E5 		ldrb	r1, [r3, #103]	@ zero_extendqisi2
 9084 8954 0030D5E5 		ldrb	r3, [r5, #0]	@ zero_extendqisi2
 9085 8958 0020D4E5 		ldrb	r2, [r4, #0]	@ zero_extendqisi2
 9086 895c 033081E0 		add	r3, r1, r3
 9087 8960 FF3003E2 		and	r3, r3, #255
 9088 8964 0030C5E5 		strb	r3, [r5, #0]
 9089 8968 023083E0 		add	r3, r3, r2
 9090 896c 0030C4E5 		strb	r3, [r4, #0]
 9091 8970 1C089FE5 		ldr	r0, .L269+172
 9092 8974 FEFFFFEB 		bl	uart_transmit
 9093 8978 0030D6E5 		ldrb	r3, [r6, #0]	@ zero_extendqisi2
 9094 897c 833187E0 		add	r3, r7, r3, asl #3
 9095 8980 6810D3E5 		ldrb	r1, [r3, #104]	@ zero_extendqisi2
 9096 8984 0030D5E5 		ldrb	r3, [r5, #0]	@ zero_extendqisi2
 9097 8988 0020D4E5 		ldrb	r2, [r4, #0]	@ zero_extendqisi2
 9098 898c 033081E0 		add	r3, r1, r3
 9099 8990 FF3003E2 		and	r3, r3, #255
 9100 8994 0030C5E5 		strb	r3, [r5, #0]
 9101 8998 023083E0 		add	r3, r3, r2
 9102 899c 0030C4E5 		strb	r3, [r4, #0]
 9103 89a0 EC079FE5 		ldr	r0, .L269+172
 9104 89a4 FEFFFFEB 		bl	uart_transmit
 9105 89a8 0030D6E5 		ldrb	r3, [r6, #0]	@ zero_extendqisi2
 9106 89ac 833187E0 		add	r3, r7, r3, asl #3
 9107 89b0 6910D3E5 		ldrb	r1, [r3, #105]	@ zero_extendqisi2
 9108 89b4 0030D5E5 		ldrb	r3, [r5, #0]	@ zero_extendqisi2
 9109 89b8 0020D4E5 		ldrb	r2, [r4, #0]	@ zero_extendqisi2
 9110 89bc 033081E0 		add	r3, r1, r3
 9111 89c0 FF3003E2 		and	r3, r3, #255
 9112 89c4 0030C5E5 		strb	r3, [r5, #0]
 9113 89c8 023083E0 		add	r3, r3, r2
 9114 89cc 0030C4E5 		strb	r3, [r4, #0]
 9115 89d0 BC079FE5 		ldr	r0, .L269+172
 9116 89d4 FEFFFFEB 		bl	uart_transmit
 9117 89d8 0030D6E5 		ldrb	r3, [r6, #0]	@ zero_extendqisi2
 9118 89dc 833187E0 		add	r3, r7, r3, asl #3
 9119 89e0 6A10D3E5 		ldrb	r1, [r3, #106]	@ zero_extendqisi2
 9120 89e4 0030D5E5 		ldrb	r3, [r5, #0]	@ zero_extendqisi2
 9121 89e8 0020D4E5 		ldrb	r2, [r4, #0]	@ zero_extendqisi2
 9122 89ec 033081E0 		add	r3, r1, r3
 9123 89f0 FF3003E2 		and	r3, r3, #255
 9124 89f4 0030C5E5 		strb	r3, [r5, #0]
 9125 89f8 023083E0 		add	r3, r3, r2
 9126 89fc 0030C4E5 		strb	r3, [r4, #0]
 9127 8a00 8C079FE5 		ldr	r0, .L269+172
 9128 8a04 FEFFFFEB 		bl	uart_transmit
 9129 8a08 0030D6E5 		ldrb	r3, [r6, #0]	@ zero_extendqisi2
 9130 8a0c 0C7087E2 		add	r7, r7, #12
 9131 8a10 0C3083E2 		add	r3, r3, #12
 9132 8a14 8311D7E7 		ldrb	r1, [r7, r3, asl #3]	@ zero_extendqisi2
 9133 8a18 0030D5E5 		ldrb	r3, [r5, #0]	@ zero_extendqisi2
 9134 8a1c 0020D4E5 		ldrb	r2, [r4, #0]	@ zero_extendqisi2
 9135 8a20 033081E0 		add	r3, r1, r3
 9136 8a24 FF3003E2 		and	r3, r3, #255
 9137 8a28 0030C5E5 		strb	r3, [r5, #0]
 9138 8a2c 023083E0 		add	r3, r3, r2
 9139 8a30 0030C4E5 		strb	r3, [r4, #0]
 9140 8a34 58079FE5 		ldr	r0, .L269+172
 9141 8a38 FEFFFFEB 		bl	uart_transmit
 9142 8a3c 0030D6E5 		ldrb	r3, [r6, #0]	@ zero_extendqisi2
 9143 8a40 837187E0 		add	r7, r7, r3, asl #3
 9144 8a44 6110D7E5 		ldrb	r1, [r7, #97]	@ zero_extendqisi2
 9145 8a48 0030D5E5 		ldrb	r3, [r5, #0]	@ zero_extendqisi2
 9146 8a4c 0020D4E5 		ldrb	r2, [r4, #0]	@ zero_extendqisi2
 9147 8a50 033081E0 		add	r3, r1, r3
 9148 8a54 FF3003E2 		and	r3, r3, #255
 9149 8a58 0030C5E5 		strb	r3, [r5, #0]
 9150 8a5c 023083E0 		add	r3, r3, r2
 9151 8a60 0030C4E5 		strb	r3, [r4, #0]
 9152 8a64 28079FE5 		ldr	r0, .L269+172
 9153 8a68 FEFFFFEB 		bl	uart_transmit
 9154 8a6c 0010D5E5 		ldrb	r1, [r5, #0]	@ zero_extendqisi2
 9155 8a70 1C079FE5 		ldr	r0, .L269+172
 9156 8a74 FEFFFFEB 		bl	uart_transmit
 9157 8a78 14079FE5 		ldr	r0, .L269+172
 9158 8a7c 0010D4E5 		ldrb	r1, [r4, #0]	@ zero_extendqisi2
 9159 8a80 FEFFFFEB 		bl	uart_transmit
 9160 8a84 030000EA 		b	.L221
 9161              	.L222:
 9162 8a88 40379FE5 		ldr	r3, .L269+232
 9163 8a8c 0020D3E5 		ldrb	r2, [r3, #0]	@ zero_extendqisi2
 9164 8a90 012082E2 		add	r2, r2, #1
 9165 8a94 0020C3E5 		strb	r2, [r3, #0]
 9166              	.L221:
 9167 8a98 60369FE5 		ldr	r3, .L269+24
 9168 8a9c 0020D3E5 		ldrb	r2, [r3, #0]	@ zero_extendqisi2
 9169 8aa0 012082E2 		add	r2, r2, #1
 9170 8aa4 0020C3E5 		strb	r2, [r3, #0]
 9171              	.L216:
 9172 8aa8 54369FE5 		ldr	r3, .L269+28
 9173 8aac B030D3E1 		ldrh	r3, [r3, #0]
 9174 8ab0 0C0053E3 		cmp	r3, #12
 9175 8ab4 8200001A 		bne	.L223
 9176 8ab8 D4069FE5 		ldr	r0, .L269+172
 9177 8abc 0E10A0E3 		mov	r1, #14
 9178 8ac0 FEFFFFEB 		bl	uart_check_free_space
 9179 8ac4 000050E3 		cmp	r0, #0
 9180 8ac8 7900000A 		beq	.L224
 9181 8acc CC369FE5 		ldr	r3, .L269+184
 9182 8ad0 B020D3E1 		ldrh	r2, [r3, #0]
 9183 8ad4 0E2082E2 		add	r2, r2, #14
 9184 8ad8 B020C3E1 		strh	r2, [r3, #0]	@ movhi
 9185 8adc C0369FE5 		ldr	r3, .L269+188
 9186 8ae0 B020D3E1 		ldrh	r2, [r3, #0]
 9187 8ae4 012082E2 		add	r2, r2, #1
 9188 8ae8 B020C3E1 		strh	r2, [r3, #0]	@ movhi
 9189 8aec A0069FE5 		ldr	r0, .L269+172
 9190 8af0 9910A0E3 		mov	r1, #153
 9191 8af4 AC569FE5 		ldr	r5, .L269+192
 9192 8af8 FEFFFFEB 		bl	uart_transmit
 9193 8afc 90069FE5 		ldr	r0, .L269+172
 9194 8b00 0E10A0E3 		mov	r1, #14
 9195 8b04 A0469FE5 		ldr	r4, .L269+196
 9196 8b08 FEFFFFEB 		bl	uart_transmit
 9197 8b0c 1030A0E3 		mov	r3, #16
 9198 8b10 0030C5E5 		strb	r3, [r5, #0]
 9199 8b14 1E30A0E3 		mov	r3, #30
 9200 8b18 0030C4E5 		strb	r3, [r4, #0]
 9201 8b1c 70069FE5 		ldr	r0, .L269+172
 9202 8b20 0210A0E3 		mov	r1, #2
 9203 8b24 FEFFFFEB 		bl	uart_transmit
 9204 8b28 0030D5E5 		ldrb	r3, [r5, #0]	@ zero_extendqisi2
 9205 8b2c 0020D4E5 		ldrb	r2, [r4, #0]	@ zero_extendqisi2
 9206 8b30 2A3083E2 		add	r3, r3, #42
 9207 8b34 FF3003E2 		and	r3, r3, #255
 9208 8b38 C8659FE5 		ldr	r6, .L269+32
 9209 8b3c 0030C5E5 		strb	r3, [r5, #0]
 9210 8b40 023083E0 		add	r3, r3, r2
 9211 8b44 0030C4E5 		strb	r3, [r4, #0]
 9212 8b48 44069FE5 		ldr	r0, .L269+172
 9213 8b4c 2A10A0E3 		mov	r1, #42
 9214 8b50 FEFFFFEB 		bl	uart_transmit
 9215 8b54 0010D6E5 		ldrb	r1, [r6, #0]	@ zero_extendqisi2
 9216 8b58 0030D5E5 		ldrb	r3, [r5, #0]	@ zero_extendqisi2
 9217 8b5c 0020D4E5 		ldrb	r2, [r4, #0]	@ zero_extendqisi2
 9218 8b60 033081E0 		add	r3, r1, r3
 9219 8b64 FF3003E2 		and	r3, r3, #255
 9220 8b68 0030C5E5 		strb	r3, [r5, #0]
 9221 8b6c 023083E0 		add	r3, r3, r2
 9222 8b70 0030C4E5 		strb	r3, [r4, #0]
 9223 8b74 18069FE5 		ldr	r0, .L269+172
 9224 8b78 FEFFFFEB 		bl	uart_transmit
 9225 8b7c 0110D6E5 		ldrb	r1, [r6, #1]	@ zero_extendqisi2
 9226 8b80 0030D5E5 		ldrb	r3, [r5, #0]	@ zero_extendqisi2
 9227 8b84 0020D4E5 		ldrb	r2, [r4, #0]	@ zero_extendqisi2
 9228 8b88 033081E0 		add	r3, r1, r3
 9229 8b8c FF3003E2 		and	r3, r3, #255
 9230 8b90 0030C5E5 		strb	r3, [r5, #0]
 9231 8b94 023083E0 		add	r3, r3, r2
 9232 8b98 0030C4E5 		strb	r3, [r4, #0]
 9233 8b9c F0059FE5 		ldr	r0, .L269+172
 9234 8ba0 FEFFFFEB 		bl	uart_transmit
 9235 8ba4 0210D6E5 		ldrb	r1, [r6, #2]	@ zero_extendqisi2
 9236 8ba8 0030D5E5 		ldrb	r3, [r5, #0]	@ zero_extendqisi2
 9237 8bac 0020D4E5 		ldrb	r2, [r4, #0]	@ zero_extendqisi2
 9238 8bb0 033081E0 		add	r3, r1, r3
 9239 8bb4 FF3003E2 		and	r3, r3, #255
 9240 8bb8 0030C5E5 		strb	r3, [r5, #0]
 9241 8bbc 023083E0 		add	r3, r3, r2
 9242 8bc0 0030C4E5 		strb	r3, [r4, #0]
 9243 8bc4 C8059FE5 		ldr	r0, .L269+172
 9244 8bc8 FEFFFFEB 		bl	uart_transmit
 9245 8bcc 0310D6E5 		ldrb	r1, [r6, #3]	@ zero_extendqisi2
 9246 8bd0 0030D5E5 		ldrb	r3, [r5, #0]	@ zero_extendqisi2
 9247 8bd4 0020D4E5 		ldrb	r2, [r4, #0]	@ zero_extendqisi2
 9248 8bd8 033081E0 		add	r3, r1, r3
 9249 8bdc FF3003E2 		and	r3, r3, #255
 9250 8be0 24659FE5 		ldr	r6, .L269+36
 9251 8be4 0030C5E5 		strb	r3, [r5, #0]
 9252 8be8 023083E0 		add	r3, r3, r2
 9253 8bec 0030C4E5 		strb	r3, [r4, #0]
 9254 8bf0 9C059FE5 		ldr	r0, .L269+172
 9255 8bf4 FEFFFFEB 		bl	uart_transmit
 9256 8bf8 0010D6E5 		ldrb	r1, [r6, #0]	@ zero_extendqisi2
 9257 8bfc 0030D5E5 		ldrb	r3, [r5, #0]	@ zero_extendqisi2
 9258 8c00 0020D4E5 		ldrb	r2, [r4, #0]	@ zero_extendqisi2
 9259 8c04 033081E0 		add	r3, r1, r3
 9260 8c08 FF3003E2 		and	r3, r3, #255
 9261 8c0c 0030C5E5 		strb	r3, [r5, #0]
 9262 8c10 023083E0 		add	r3, r3, r2
 9263 8c14 0030C4E5 		strb	r3, [r4, #0]
 9264 8c18 74059FE5 		ldr	r0, .L269+172
 9265 8c1c FEFFFFEB 		bl	uart_transmit
 9266 8c20 0110D6E5 		ldrb	r1, [r6, #1]	@ zero_extendqisi2
 9267 8c24 0030D5E5 		ldrb	r3, [r5, #0]	@ zero_extendqisi2
 9268 8c28 0020D4E5 		ldrb	r2, [r4, #0]	@ zero_extendqisi2
 9269 8c2c 033081E0 		add	r3, r1, r3
 9270 8c30 FF3003E2 		and	r3, r3, #255
 9271 8c34 0030C5E5 		strb	r3, [r5, #0]
 9272 8c38 023083E0 		add	r3, r3, r2
 9273 8c3c 0030C4E5 		strb	r3, [r4, #0]
 9274 8c40 4C059FE5 		ldr	r0, .L269+172
 9275 8c44 FEFFFFEB 		bl	uart_transmit
 9276 8c48 0210D6E5 		ldrb	r1, [r6, #2]	@ zero_extendqisi2
 9277 8c4c 0030D5E5 		ldrb	r3, [r5, #0]	@ zero_extendqisi2
 9278 8c50 0020D4E5 		ldrb	r2, [r4, #0]	@ zero_extendqisi2
 9279 8c54 033081E0 		add	r3, r1, r3
 9280 8c58 FF3003E2 		and	r3, r3, #255
 9281 8c5c 0030C5E5 		strb	r3, [r5, #0]
 9282 8c60 023083E0 		add	r3, r3, r2
 9283 8c64 0030C4E5 		strb	r3, [r4, #0]
 9284 8c68 24059FE5 		ldr	r0, .L269+172
 9285 8c6c FEFFFFEB 		bl	uart_transmit
 9286 8c70 0310D6E5 		ldrb	r1, [r6, #3]	@ zero_extendqisi2
 9287 8c74 0030D5E5 		ldrb	r3, [r5, #0]	@ zero_extendqisi2
 9288 8c78 0020D4E5 		ldrb	r2, [r4, #0]	@ zero_extendqisi2
 9289 8c7c 033081E0 		add	r3, r1, r3
 9290 8c80 FF3003E2 		and	r3, r3, #255
 9291 8c84 0030C5E5 		strb	r3, [r5, #0]
 9292 8c88 023083E0 		add	r3, r3, r2
 9293 8c8c 0030C4E5 		strb	r3, [r4, #0]
 9294 8c90 FC049FE5 		ldr	r0, .L269+172
 9295 8c94 FEFFFFEB 		bl	uart_transmit
 9296 8c98 0010D5E5 		ldrb	r1, [r5, #0]	@ zero_extendqisi2
 9297 8c9c F0049FE5 		ldr	r0, .L269+172
 9298 8ca0 FEFFFFEB 		bl	uart_transmit
 9299 8ca4 E8049FE5 		ldr	r0, .L269+172
 9300 8ca8 0010D4E5 		ldrb	r1, [r4, #0]	@ zero_extendqisi2
 9301 8cac FEFFFFEB 		bl	uart_transmit
 9302 8cb0 030000EA 		b	.L223
 9303              	.L224:
 9304 8cb4 14359FE5 		ldr	r3, .L269+232
 9305 8cb8 0020D3E5 		ldrb	r2, [r3, #0]	@ zero_extendqisi2
 9306 8cbc 012082E2 		add	r2, r2, #1
 9307 8cc0 0020C3E5 		strb	r2, [r3, #0]
 9308              	.L223:
 9309 8cc4 44349FE5 		ldr	r3, .L269+40
 9310 8cc8 B030D3E1 		ldrh	r3, [r3, #0]
 9311 8ccc 120053E3 		cmp	r3, #18
 9312 8cd0 4301001A 		bne	.L225
 9313 8cd4 38349FE5 		ldr	r3, .L269+44
 9314 8cd8 B4049FE5 		ldr	r0, .L269+172
 9315 8cdc 1A10A0E3 		mov	r1, #26
 9316 8ce0 004093E5 		ldr	r4, [r3, #0]	@ float
 9317 8ce4 FEFFFFEB 		bl	uart_check_free_space
 9318 8ce8 000050E3 		cmp	r0, #0
 9319 8cec 3801000A 		beq	.L226
 9320 8cf0 0201C4E3 		bic	r0, r4, #-2147483648
 9321 8cf4 FEFFFFEB 		bl	__aeabi_f2d
 9322 8cf8 18249FE5 		ldr	r2, .L269+48
 9323 8cfc 18349FE5 		ldr	r3, .L269+52
 9324 8d00 FEFFFFEB 		bl	__aeabi_ddiv
 9325 8d04 FEFFFFEB 		bl	__aeabi_d2uiz
 9326 8d08 90349FE5 		ldr	r3, .L269+184
 9327 8d0c B020D3E1 		ldrh	r2, [r3, #0]
 9328 8d10 1A2082E2 		add	r2, r2, #26
 9329 8d14 B020C3E1 		strh	r2, [r3, #0]	@ movhi
 9330 8d18 84349FE5 		ldr	r3, .L269+188
 9331 8d1c B020D3E1 		ldrh	r2, [r3, #0]
 9332 8d20 012082E2 		add	r2, r2, #1
 9333 8d24 B020C3E1 		strh	r2, [r3, #0]	@ movhi
 9334 8d28 FF7000E2 		and	r7, r0, #255
 9335 8d2c 9910A0E3 		mov	r1, #153
 9336 8d30 5C049FE5 		ldr	r0, .L269+172
 9337 8d34 6C549FE5 		ldr	r5, .L269+192
 9338 8d38 FEFFFFEB 		bl	uart_transmit
 9339 8d3c 50049FE5 		ldr	r0, .L269+172
 9340 8d40 1A10A0E3 		mov	r1, #26
 9341 8d44 60449FE5 		ldr	r4, .L269+196
 9342 8d48 FEFFFFEB 		bl	uart_transmit
 9343 8d4c 1C30A0E3 		mov	r3, #28
 9344 8d50 0030C5E5 		strb	r3, [r5, #0]
 9345 8d54 3630A0E3 		mov	r3, #54
 9346 8d58 0030C4E5 		strb	r3, [r4, #0]
 9347 8d5c 30049FE5 		ldr	r0, .L269+172
 9348 8d60 0210A0E3 		mov	r1, #2
 9349 8d64 FEFFFFEB 		bl	uart_transmit
 9350 8d68 0030D5E5 		ldrb	r3, [r5, #0]	@ zero_extendqisi2
 9351 8d6c 0020D4E5 		ldrb	r2, [r4, #0]	@ zero_extendqisi2
 9352 8d70 0A3083E2 		add	r3, r3, #10
 9353 8d74 FF3003E2 		and	r3, r3, #255
 9354 8d78 0030C5E5 		strb	r3, [r5, #0]
 9355 8d7c 023083E0 		add	r3, r3, r2
 9356 8d80 0030C4E5 		strb	r3, [r4, #0]
 9357 8d84 08049FE5 		ldr	r0, .L269+172
 9358 8d88 0A10A0E3 		mov	r1, #10
 9359 8d8c FEFFFFEB 		bl	uart_transmit
 9360 8d90 88339FE5 		ldr	r3, .L269+56
 9361 8d94 0010D3E5 		ldrb	r1, [r3, #0]	@ zero_extendqisi2
 9362 8d98 0030D5E5 		ldrb	r3, [r5, #0]	@ zero_extendqisi2
 9363 8d9c 0020D4E5 		ldrb	r2, [r4, #0]	@ zero_extendqisi2
 9364 8da0 033081E0 		add	r3, r1, r3
 9365 8da4 FF3003E2 		and	r3, r3, #255
 9366 8da8 0030C5E5 		strb	r3, [r5, #0]
 9367 8dac 023083E0 		add	r3, r3, r2
 9368 8db0 0030C4E5 		strb	r3, [r4, #0]
 9369 8db4 D8039FE5 		ldr	r0, .L269+172
 9370 8db8 FEFFFFEB 		bl	uart_transmit
 9371 8dbc 60339FE5 		ldr	r3, .L269+60
 9372 8dc0 0010D3E5 		ldrb	r1, [r3, #0]	@ zero_extendqisi2
 9373 8dc4 0030D5E5 		ldrb	r3, [r5, #0]	@ zero_extendqisi2
 9374 8dc8 0020D4E5 		ldrb	r2, [r4, #0]	@ zero_extendqisi2
 9375 8dcc 033081E0 		add	r3, r1, r3
 9376 8dd0 FF3003E2 		and	r3, r3, #255
 9377 8dd4 4C639FE5 		ldr	r6, .L269+64
 9378 8dd8 0030C5E5 		strb	r3, [r5, #0]
 9379 8ddc 023083E0 		add	r3, r3, r2
 9380 8de0 0030C4E5 		strb	r3, [r4, #0]
 9381 8de4 A8039FE5 		ldr	r0, .L269+172
 9382 8de8 FEFFFFEB 		bl	uart_transmit
 9383 8dec 0010D6E5 		ldrb	r1, [r6, #0]	@ zero_extendqisi2
 9384 8df0 0030D5E5 		ldrb	r3, [r5, #0]	@ zero_extendqisi2
 9385 8df4 0020D4E5 		ldrb	r2, [r4, #0]	@ zero_extendqisi2
 9386 8df8 033081E0 		add	r3, r1, r3
 9387 8dfc FF3003E2 		and	r3, r3, #255
 9388 8e00 0030C5E5 		strb	r3, [r5, #0]
 9389 8e04 023083E0 		add	r3, r3, r2
 9390 8e08 0030C4E5 		strb	r3, [r4, #0]
 9391 8e0c 80039FE5 		ldr	r0, .L269+172
 9392 8e10 FEFFFFEB 		bl	uart_transmit
 9393 8e14 0110D6E5 		ldrb	r1, [r6, #1]	@ zero_extendqisi2
 9394 8e18 0030D5E5 		ldrb	r3, [r5, #0]	@ zero_extendqisi2
 9395 8e1c 0020D4E5 		ldrb	r2, [r4, #0]	@ zero_extendqisi2
 9396 8e20 033081E0 		add	r3, r1, r3
 9397 8e24 FF3003E2 		and	r3, r3, #255
 9398 8e28 0030C5E5 		strb	r3, [r5, #0]
 9399 8e2c 023083E0 		add	r3, r3, r2
 9400 8e30 0030C4E5 		strb	r3, [r4, #0]
 9401 8e34 58039FE5 		ldr	r0, .L269+172
 9402 8e38 FEFFFFEB 		bl	uart_transmit
 9403 8e3c 0210D6E5 		ldrb	r1, [r6, #2]	@ zero_extendqisi2
 9404 8e40 0030D5E5 		ldrb	r3, [r5, #0]	@ zero_extendqisi2
 9405 8e44 0020D4E5 		ldrb	r2, [r4, #0]	@ zero_extendqisi2
 9406 8e48 033081E0 		add	r3, r1, r3
 9407 8e4c FF3003E2 		and	r3, r3, #255
 9408 8e50 0030C5E5 		strb	r3, [r5, #0]
 9409 8e54 023083E0 		add	r3, r3, r2
 9410 8e58 0030C4E5 		strb	r3, [r4, #0]
 9411 8e5c 30039FE5 		ldr	r0, .L269+172
 9412 8e60 FEFFFFEB 		bl	uart_transmit
 9413 8e64 0310D6E5 		ldrb	r1, [r6, #3]	@ zero_extendqisi2
 9414 8e68 0030D5E5 		ldrb	r3, [r5, #0]	@ zero_extendqisi2
 9415 8e6c 0020D4E5 		ldrb	r2, [r4, #0]	@ zero_extendqisi2
 9416 8e70 033081E0 		add	r3, r1, r3
 9417 8e74 FF3003E2 		and	r3, r3, #255
 9418 8e78 AC629FE5 		ldr	r6, .L269+68
 9419 8e7c 0030C5E5 		strb	r3, [r5, #0]
 9420 8e80 023083E0 		add	r3, r3, r2
 9421 8e84 0030C4E5 		strb	r3, [r4, #0]
 9422 8e88 04039FE5 		ldr	r0, .L269+172
 9423 8e8c FEFFFFEB 		bl	uart_transmit
 9424 8e90 0010D6E5 		ldrb	r1, [r6, #0]	@ zero_extendqisi2
 9425 8e94 0030D5E5 		ldrb	r3, [r5, #0]	@ zero_extendqisi2
 9426 8e98 0020D4E5 		ldrb	r2, [r4, #0]	@ zero_extendqisi2
 9427 8e9c 033081E0 		add	r3, r1, r3
 9428 8ea0 FF3003E2 		and	r3, r3, #255
 9429 8ea4 0030C5E5 		strb	r3, [r5, #0]
 9430 8ea8 023083E0 		add	r3, r3, r2
 9431 8eac 0030C4E5 		strb	r3, [r4, #0]
 9432 8eb0 DC029FE5 		ldr	r0, .L269+172
 9433 8eb4 FEFFFFEB 		bl	uart_transmit
 9434 8eb8 0110D6E5 		ldrb	r1, [r6, #1]	@ zero_extendqisi2
 9435 8ebc 0030D5E5 		ldrb	r3, [r5, #0]	@ zero_extendqisi2
 9436 8ec0 0020D4E5 		ldrb	r2, [r4, #0]	@ zero_extendqisi2
 9437 8ec4 033081E0 		add	r3, r1, r3
 9438 8ec8 FF3003E2 		and	r3, r3, #255
 9439 8ecc 0030C5E5 		strb	r3, [r5, #0]
 9440 8ed0 023083E0 		add	r3, r3, r2
 9441 8ed4 0030C4E5 		strb	r3, [r4, #0]
 9442 8ed8 B4029FE5 		ldr	r0, .L269+172
 9443 8edc FEFFFFEB 		bl	uart_transmit
 9444 8ee0 0210D6E5 		ldrb	r1, [r6, #2]	@ zero_extendqisi2
 9445 8ee4 0030D5E5 		ldrb	r3, [r5, #0]	@ zero_extendqisi2
 9446 8ee8 0020D4E5 		ldrb	r2, [r4, #0]	@ zero_extendqisi2
 9447 8eec 033081E0 		add	r3, r1, r3
 9448 8ef0 FF3003E2 		and	r3, r3, #255
 9449 8ef4 0030C5E5 		strb	r3, [r5, #0]
 9450 8ef8 023083E0 		add	r3, r3, r2
 9451 8efc 0030C4E5 		strb	r3, [r4, #0]
 9452 8f00 8C029FE5 		ldr	r0, .L269+172
 9453 8f04 FEFFFFEB 		bl	uart_transmit
 9454 8f08 0310D6E5 		ldrb	r1, [r6, #3]	@ zero_extendqisi2
 9455 8f0c 0030D5E5 		ldrb	r3, [r5, #0]	@ zero_extendqisi2
 9456 8f10 0020D4E5 		ldrb	r2, [r4, #0]	@ zero_extendqisi2
 9457 8f14 033081E0 		add	r3, r1, r3
 9458 8f18 FF3003E2 		and	r3, r3, #255
 9459 8f1c 0C629FE5 		ldr	r6, .L269+72
 9460 8f20 0030C5E5 		strb	r3, [r5, #0]
 9461 8f24 023083E0 		add	r3, r3, r2
 9462 8f28 0030C4E5 		strb	r3, [r4, #0]
 9463 8f2c 60029FE5 		ldr	r0, .L269+172
 9464 8f30 FEFFFFEB 		bl	uart_transmit
 9465 8f34 0010D6E5 		ldrb	r1, [r6, #0]	@ zero_extendqisi2
 9466 8f38 0030D5E5 		ldrb	r3, [r5, #0]	@ zero_extendqisi2
 9467 8f3c 0020D4E5 		ldrb	r2, [r4, #0]	@ zero_extendqisi2
 9468 8f40 033081E0 		add	r3, r1, r3
 9469 8f44 FF3003E2 		and	r3, r3, #255
 9470 8f48 0030C5E5 		strb	r3, [r5, #0]
 9471 8f4c 023083E0 		add	r3, r3, r2
 9472 8f50 0030C4E5 		strb	r3, [r4, #0]
 9473 8f54 38029FE5 		ldr	r0, .L269+172
 9474 8f58 FEFFFFEB 		bl	uart_transmit
 9475 8f5c 0110D6E5 		ldrb	r1, [r6, #1]	@ zero_extendqisi2
 9476 8f60 0030D5E5 		ldrb	r3, [r5, #0]	@ zero_extendqisi2
 9477 8f64 0020D4E5 		ldrb	r2, [r4, #0]	@ zero_extendqisi2
 9478 8f68 033081E0 		add	r3, r1, r3
 9479 8f6c FF3003E2 		and	r3, r3, #255
 9480 8f70 0030C5E5 		strb	r3, [r5, #0]
 9481 8f74 023083E0 		add	r3, r3, r2
 9482 8f78 0030C4E5 		strb	r3, [r4, #0]
 9483 8f7c 10029FE5 		ldr	r0, .L269+172
 9484 8f80 FEFFFFEB 		bl	uart_transmit
 9485 8f84 0210D6E5 		ldrb	r1, [r6, #2]	@ zero_extendqisi2
 9486 8f88 0030D5E5 		ldrb	r3, [r5, #0]	@ zero_extendqisi2
 9487 8f8c 0020D4E5 		ldrb	r2, [r4, #0]	@ zero_extendqisi2
 9488 8f90 033081E0 		add	r3, r1, r3
 9489 8f94 FF3003E2 		and	r3, r3, #255
 9490 8f98 0030C5E5 		strb	r3, [r5, #0]
 9491 8f9c 023083E0 		add	r3, r3, r2
 9492 8fa0 0030C4E5 		strb	r3, [r4, #0]
 9493 8fa4 E8019FE5 		ldr	r0, .L269+172
 9494 8fa8 FEFFFFEB 		bl	uart_transmit
 9495 8fac 0310D6E5 		ldrb	r1, [r6, #3]	@ zero_extendqisi2
 9496 8fb0 0030D5E5 		ldrb	r3, [r5, #0]	@ zero_extendqisi2
 9497 8fb4 0020D4E5 		ldrb	r2, [r4, #0]	@ zero_extendqisi2
 9498 8fb8 033081E0 		add	r3, r1, r3
 9499 8fbc FF3003E2 		and	r3, r3, #255
 9500 8fc0 6C619FE5 		ldr	r6, .L269+76
 9501 8fc4 0030C5E5 		strb	r3, [r5, #0]
 9502 8fc8 023083E0 		add	r3, r3, r2
 9503 8fcc 0030C4E5 		strb	r3, [r4, #0]
 9504 8fd0 BC019FE5 		ldr	r0, .L269+172
 9505 8fd4 FEFFFFEB 		bl	uart_transmit
 9506 8fd8 0010D6E5 		ldrb	r1, [r6, #0]	@ zero_extendqisi2
 9507 8fdc 0030D5E5 		ldrb	r3, [r5, #0]	@ zero_extendqisi2
 9508 8fe0 0020D4E5 		ldrb	r2, [r4, #0]	@ zero_extendqisi2
 9509 8fe4 033081E0 		add	r3, r1, r3
 9510 8fe8 FF3003E2 		and	r3, r3, #255
 9511 8fec 0030C5E5 		strb	r3, [r5, #0]
 9512 8ff0 023083E0 		add	r3, r3, r2
 9513 8ff4 0030C4E5 		strb	r3, [r4, #0]
 9514 8ff8 94019FE5 		ldr	r0, .L269+172
 9515 8ffc FEFFFFEB 		bl	uart_transmit
 9516 9000 0110D6E5 		ldrb	r1, [r6, #1]	@ zero_extendqisi2
 9517 9004 0030D5E5 		ldrb	r3, [r5, #0]	@ zero_extendqisi2
 9518 9008 0020D4E5 		ldrb	r2, [r4, #0]	@ zero_extendqisi2
 9519 900c 033081E0 		add	r3, r1, r3
 9520 9010 FF3003E2 		and	r3, r3, #255
 9521 9014 0030C5E5 		strb	r3, [r5, #0]
 9522 9018 023083E0 		add	r3, r3, r2
 9523 901c 0030C4E5 		strb	r3, [r4, #0]
 9524 9020 6C019FE5 		ldr	r0, .L269+172
 9525 9024 FEFFFFEB 		bl	uart_transmit
 9526 9028 0210D6E5 		ldrb	r1, [r6, #2]	@ zero_extendqisi2
 9527 902c 0030D5E5 		ldrb	r3, [r5, #0]	@ zero_extendqisi2
 9528 9030 0020D4E5 		ldrb	r2, [r4, #0]	@ zero_extendqisi2
 9529 9034 033081E0 		add	r3, r1, r3
 9530 9038 FF3003E2 		and	r3, r3, #255
 9531 903c 0030C5E5 		strb	r3, [r5, #0]
 9532 9040 023083E0 		add	r3, r3, r2
 9533 9044 0030C4E5 		strb	r3, [r4, #0]
 9534 9048 44019FE5 		ldr	r0, .L269+172
 9535 904c FEFFFFEB 		bl	uart_transmit
 9536 9050 0310D6E5 		ldrb	r1, [r6, #3]	@ zero_extendqisi2
 9537 9054 0030D5E5 		ldrb	r3, [r5, #0]	@ zero_extendqisi2
 9538 9058 0020D4E5 		ldrb	r2, [r4, #0]	@ zero_extendqisi2
 9539 905c 033081E0 		add	r3, r1, r3
 9540 9060 FF3003E2 		and	r3, r3, #255
 9541 9064 0030C5E5 		strb	r3, [r5, #0]
 9542 9068 023083E0 		add	r3, r3, r2
 9543 906c 0030C4E5 		strb	r3, [r4, #0]
 9544 9070 1C019FE5 		ldr	r0, .L269+172
 9545 9074 FEFFFFEB 		bl	uart_transmit
 9546 9078 0030D5E5 		ldrb	r3, [r5, #0]	@ zero_extendqisi2
 9547 907c 0020D4E5 		ldrb	r2, [r4, #0]	@ zero_extendqisi2
 9548 9080 033087E0 		add	r3, r7, r3
 9549 9084 FF3003E2 		and	r3, r3, #255
 9550 9088 0030C5E5 		strb	r3, [r5, #0]
 9551 908c 023083E0 		add	r3, r3, r2
 9552 9090 0030C4E5 		strb	r3, [r4, #0]
 9553 9094 0710A0E1 		mov	r1, r7
 9554 9098 F4009FE5 		ldr	r0, .L269+172
 9555 909c FEFFFFEB 		bl	uart_transmit
 9556 90a0 90309FE5 		ldr	r3, .L269+80
 9557 90a4 0010D3E5 		ldrb	r1, [r3, #0]	@ zero_extendqisi2
 9558 90a8 0030D5E5 		ldrb	r3, [r5, #0]	@ zero_extendqisi2
 9559 90ac 0020D4E5 		ldrb	r2, [r4, #0]	@ zero_extendqisi2
 9560 90b0 033081E0 		add	r3, r1, r3
 9561 90b4 FF3003E2 		and	r3, r3, #255
 9562 90b8 0030C5E5 		strb	r3, [r5, #0]
 9563 90bc 023083E0 		add	r3, r3, r2
 9564 90c0 0030C4E5 		strb	r3, [r4, #0]
 9565 90c4 C8009FE5 		ldr	r0, .L269+172
 9566 90c8 FEFFFFEB 		bl	uart_transmit
 9567 90cc 0010D5E5 		ldrb	r1, [r5, #0]	@ zero_extendqisi2
 9568 90d0 BC009FE5 		ldr	r0, .L269+172
 9569 90d4 FEFFFFEB 		bl	uart_transmit
 9570 90d8 B4009FE5 		ldr	r0, .L269+172
 9571 90dc 0010D4E5 		ldrb	r1, [r4, #0]	@ zero_extendqisi2
 9572 90e0 FEFFFFEB 		bl	uart_transmit
 9573 90e4 3E0000EA 		b	.L225
 9574              	.L270:
 9575              		.align	2
 9576              	.L269:
 9577 90e8 00000000 		.word	.LC0
 9578 90ec 00000000 		.word	.LANCHOR46
 9579 90f0 00000000 		.word	gps
 9580 90f4 F8C1631A 		.word	442745336
 9581 90f8 DCA54C40 		.word	1078765020
 9582 90fc 80842E41 		.word	1093567616
 9583 9100 00000000 		.word	.LANCHOR54
 9584 9104 00000000 		.word	.LANCHOR47
 9585 9108 00000000 		.word	estimator_z
 9586 910c 00000000 		.word	estimator_z_dot
 9587 9110 00000000 		.word	.LANCHOR48
 9588 9114 00000000 		.word	nav_circle_radians
 9589 9118 182D4454 		.word	1413754136
 9590 911c FB211940 		.word	1075388923
 9591 9120 00000000 		.word	nav_block
 9592 9124 00000000 		.word	nav_stage
 9593 9128 00000000 		.word	estimator_x
 9594 912c 00000000 		.word	estimator_y
 9595 9130 00000000 		.word	dist2_to_wp
 9596 9134 00000000 		.word	dist2_to_home
 9597 9138 00000000 		.word	nav_oval_count
 9598 913c 00000000 		.word	.LANCHOR49
 9599 9140 00000000 		.word	.LANCHOR20
 9600 9144 00000000 		.word	v_ctl_mode
 9601 9148 00000000 		.word	.LANCHOR22
 9602 914c 00000000 		.word	horizontal_mode
 9603 9150 00000000 		.word	.LANCHOR23
 9604 9154 00000000 		.word	.LANCHOR50
 9605 9158 00000000 		.word	.LANCHOR55
 9606 915c 66666666 		.word	1717986918
 9607 9160 66661440 		.word	1075078758
 9608 9164 00000000 		.word	.LANCHOR51
 9609 9168 00000000 		.word	infrared
 9610 916c 00000000 		.word	.LANCHOR52
 9611 9170 00000000 		.word	.LANCHOR17
 9612 9174 00000000 		.word	energy
 9613 9178 00000000 		.word	v_ctl_throttle_slewed
 9614 917c 00000000 		.word	vsupply
 9615 9180 00000000 		.word	electrical
 9616 9184 00000000 		.word	estimator_flight_time
 9617 9188 00000000 		.word	.LANCHOR18
 9618 918c 00000000 		.word	block_time
 9619 9190 00000000 		.word	stage_time
 9620 9194 00000000 		.word	uart1
 9621 9198 00000000 		.word	.LANCHOR53
 9622 919c 00009041 		.word	1099956224
 9623 91a0 00000000 		.word	downlink_nb_bytes
 9624 91a4 00000000 		.word	downlink_nb_msgs
 9625 91a8 00000000 		.word	ck_a
 9626 91ac 00000000 		.word	ck_b
 9627 91b0 00000000 		.word	h_ctl_roll_setpoint
 9628 91b4 00000000 		.word	h_ctl_pitch_loop_setpoint
 9629 91b8 00000000 		.word	h_ctl_course_setpoint
 9630 91bc 00000000 		.word	desired_x
 9631 91c0 00000000 		.word	desired_y
 9632 91c4 00000000 		.word	v_ctl_altitude_setpoint
 9633 91c8 00000000 		.word	v_ctl_climb_setpoint
 9634 91cc 00000000 		.word	uart1
 9635 91d0 00000000 		.word	downlink_nb_ovrn
 9636              	.L226:
 9637 91d4 0C301FE5 		ldr	r3, .L269+232
 9638 91d8 0020D3E5 		ldrb	r2, [r3, #0]	@ zero_extendqisi2
 9639 91dc 012082E2 		add	r2, r2, #1
 9640 91e0 0020C3E5 		strb	r2, [r3, #0]
 9641              	.L225:
 9642 91e4 B0301FE5 		ldr	r3, .L269+84
 9643 91e8 B030D3E1 		ldrh	r3, [r3, #0]
 9644 91ec 180053E3 		cmp	r3, #24
 9645 91f0 6E00001A 		bne	.L227
 9646 91f4 68001FE5 		ldr	r0, .L269+172
 9647 91f8 0C10A0E3 		mov	r1, #12
 9648 91fc FEFFFFEB 		bl	uart_check_free_space
 9649 9200 000050E3 		cmp	r0, #0
 9650 9204 6500000A 		beq	.L228
 9651 9208 70301FE5 		ldr	r3, .L269+184
 9652 920c B020D3E1 		ldrh	r2, [r3, #0]
 9653 9210 0C2082E2 		add	r2, r2, #12
 9654 9214 B020C3E1 		strh	r2, [r3, #0]	@ movhi
 9655 9218 7C301FE5 		ldr	r3, .L269+188
 9656 921c B020D3E1 		ldrh	r2, [r3, #0]
 9657 9220 012082E2 		add	r2, r2, #1
 9658 9224 B020C3E1 		strh	r2, [r3, #0]	@ movhi
 9659 9228 9C001FE5 		ldr	r0, .L269+172
 9660 922c 9910A0E3 		mov	r1, #153
 9661 9230 90501FE5 		ldr	r5, .L269+192
 9662 9234 FEFFFFEB 		bl	uart_transmit
 9663 9238 AC001FE5 		ldr	r0, .L269+172
 9664 923c 0C10A0E3 		mov	r1, #12
 9665 9240 9C401FE5 		ldr	r4, .L269+196
 9666 9244 FEFFFFEB 		bl	uart_transmit
 9667 9248 0E30A0E3 		mov	r3, #14
 9668 924c 0030C5E5 		strb	r3, [r5, #0]
 9669 9250 1A30A0E3 		mov	r3, #26
 9670 9254 0030C4E5 		strb	r3, [r4, #0]
 9671 9258 CC001FE5 		ldr	r0, .L269+172
 9672 925c 0210A0E3 		mov	r1, #2
 9673 9260 FEFFFFEB 		bl	uart_transmit
 9674 9264 0030D5E5 		ldrb	r3, [r5, #0]	@ zero_extendqisi2
 9675 9268 0020D4E5 		ldrb	r2, [r4, #0]	@ zero_extendqisi2
 9676 926c 0B3083E2 		add	r3, r3, #11
 9677 9270 FF3003E2 		and	r3, r3, #255
 9678 9274 0030C5E5 		strb	r3, [r5, #0]
 9679 9278 023083E0 		add	r3, r3, r2
 9680 927c 0030C4E5 		strb	r3, [r4, #0]
 9681 9280 F4001FE5 		ldr	r0, .L269+172
 9682 9284 0B10A0E3 		mov	r1, #11
 9683 9288 FEFFFFEB 		bl	uart_transmit
 9684 928c 54311FE5 		ldr	r3, .L269+88
 9685 9290 0010D3E5 		ldrb	r1, [r3, #0]	@ zero_extendqisi2
 9686 9294 0030D5E5 		ldrb	r3, [r5, #0]	@ zero_extendqisi2
 9687 9298 0020D4E5 		ldrb	r2, [r4, #0]	@ zero_extendqisi2
 9688 929c 033081E0 		add	r3, r1, r3
 9689 92a0 FF3003E2 		and	r3, r3, #255
 9690 92a4 0030C5E5 		strb	r3, [r5, #0]
 9691 92a8 023083E0 		add	r3, r3, r2
 9692 92ac 0030C4E5 		strb	r3, [r4, #0]
 9693 92b0 24011FE5 		ldr	r0, .L269+172
 9694 92b4 FEFFFFEB 		bl	uart_transmit
 9695 92b8 7C311FE5 		ldr	r3, .L269+92
 9696 92bc 0010D3E5 		ldrb	r1, [r3, #0]	@ zero_extendqisi2
 9697 92c0 0030D5E5 		ldrb	r3, [r5, #0]	@ zero_extendqisi2
 9698 92c4 0020D4E5 		ldrb	r2, [r4, #0]	@ zero_extendqisi2
 9699 92c8 033081E0 		add	r3, r1, r3
 9700 92cc FF3003E2 		and	r3, r3, #255
 9701 92d0 0030C5E5 		strb	r3, [r5, #0]
 9702 92d4 023083E0 		add	r3, r3, r2
 9703 92d8 0030C4E5 		strb	r3, [r4, #0]
 9704 92dc 50011FE5 		ldr	r0, .L269+172
 9705 92e0 FEFFFFEB 		bl	uart_transmit
 9706 92e4 A4311FE5 		ldr	r3, .L269+96
 9707 92e8 0010D3E5 		ldrb	r1, [r3, #0]	@ zero_extendqisi2
 9708 92ec 0030D5E5 		ldrb	r3, [r5, #0]	@ zero_extendqisi2
 9709 92f0 0020D4E5 		ldrb	r2, [r4, #0]	@ zero_extendqisi2
 9710 92f4 033081E0 		add	r3, r1, r3
 9711 92f8 FF3003E2 		and	r3, r3, #255
 9712 92fc 0030C5E5 		strb	r3, [r5, #0]
 9713 9300 023083E0 		add	r3, r3, r2
 9714 9304 0030C4E5 		strb	r3, [r4, #0]
 9715 9308 7C011FE5 		ldr	r0, .L269+172
 9716 930c FEFFFFEB 		bl	uart_transmit
 9717 9310 CC311FE5 		ldr	r3, .L269+100
 9718 9314 0010D3E5 		ldrb	r1, [r3, #0]	@ zero_extendqisi2
 9719 9318 0030D5E5 		ldrb	r3, [r5, #0]	@ zero_extendqisi2
 9720 931c 0020D4E5 		ldrb	r2, [r4, #0]	@ zero_extendqisi2
 9721 9320 033081E0 		add	r3, r1, r3
 9722 9324 FF3003E2 		and	r3, r3, #255
 9723 9328 0030C5E5 		strb	r3, [r5, #0]
 9724 932c 023083E0 		add	r3, r3, r2
 9725 9330 0030C4E5 		strb	r3, [r4, #0]
 9726 9334 A8011FE5 		ldr	r0, .L269+172
 9727 9338 FEFFFFEB 		bl	uart_transmit
 9728 933c 0020D4E5 		ldrb	r2, [r4, #0]	@ zero_extendqisi2
 9729 9340 0030D5E5 		ldrb	r3, [r5, #0]	@ zero_extendqisi2
 9730 9344 033082E0 		add	r3, r2, r3
 9731 9348 0030C4E5 		strb	r3, [r4, #0]
 9732 934c C0011FE5 		ldr	r0, .L269+172
 9733 9350 0010A0E3 		mov	r1, #0
 9734 9354 FEFFFFEB 		bl	uart_transmit
 9735 9358 10321FE5 		ldr	r3, .L269+104
 9736 935c 0010D3E5 		ldrb	r1, [r3, #0]	@ zero_extendqisi2
 9737 9360 0030D5E5 		ldrb	r3, [r5, #0]	@ zero_extendqisi2
 9738 9364 0020D4E5 		ldrb	r2, [r4, #0]	@ zero_extendqisi2
 9739 9368 033081E0 		add	r3, r1, r3
 9740 936c FF3003E2 		and	r3, r3, #255
 9741 9370 0030C5E5 		strb	r3, [r5, #0]
 9742 9374 023083E0 		add	r3, r3, r2
 9743 9378 0030C4E5 		strb	r3, [r4, #0]
 9744 937c F0011FE5 		ldr	r0, .L269+172
 9745 9380 FEFFFFEB 		bl	uart_transmit
 9746 9384 0010D5E5 		ldrb	r1, [r5, #0]	@ zero_extendqisi2
 9747 9388 FC011FE5 		ldr	r0, .L269+172
 9748 938c FEFFFFEB 		bl	uart_transmit
 9749 9390 04021FE5 		ldr	r0, .L269+172
 9750 9394 0010D4E5 		ldrb	r1, [r4, #0]	@ zero_extendqisi2
 9751 9398 FEFFFFEB 		bl	uart_transmit
 9752 939c 030000EA 		b	.L227
 9753              	.L228:
 9754 93a0 D8311FE5 		ldr	r3, .L269+232
 9755 93a4 0020D3E5 		ldrb	r2, [r3, #0]	@ zero_extendqisi2
 9756 93a8 012082E2 		add	r2, r2, #1
 9757 93ac 0020C3E5 		strb	r2, [r3, #0]
 9758              	.L227:
 9759 93b0 64321FE5 		ldr	r3, .L269+108
 9760 93b4 B050D3E1 		ldrh	r5, [r3, #0]
 9761 93b8 1E0055E3 		cmp	r5, #30
 9762 93bc 6E00001A 		bne	.L229
 9763 93c0 70621FE5 		ldr	r6, .L269+112
 9764 93c4 2C421FE5 		ldr	r4, .L269+184
 9765 93c8 B000D6E1 		ldrh	r0, [r6, #0]
 9766 93cc B070D4E1 		ldrh	r7, [r4, #0]
 9767 93d0 070060E0 		rsb	r0, r0, r7
 9768 93d4 FEFFFFEB 		bl	__aeabi_i2d
 9769 93d8 84221FE5 		ldr	r2, .L269+116
 9770 93dc 84321FE5 		ldr	r3, .L269+120
 9771 93e0 FEFFFFEB 		bl	__aeabi_ddiv
 9772 93e4 FEFFFFEB 		bl	__aeabi_d2uiz
 9773 93e8 B070C6E1 		strh	r7, [r6, #0]	@ movhi
 9774 93ec BE00CDE1 		strh	r0, [sp, #14]	@ movhi
 9775 93f0 0B10A0E3 		mov	r1, #11
 9776 93f4 68021FE5 		ldr	r0, .L269+172
 9777 93f8 FEFFFFEB 		bl	uart_check_free_space
 9778 93fc 000050E3 		cmp	r0, #0
 9779 9400 5900000A 		beq	.L230
 9780 9404 B030D4E1 		ldrh	r3, [r4, #0]
 9781 9408 6C721FE5 		ldr	r7, .L269+188
 9782 940c 0B3083E2 		add	r3, r3, #11
 9783 9410 B030C4E1 		strh	r3, [r4, #0]	@ movhi
 9784 9414 B030D7E1 		ldrh	r3, [r7, #0]
 9785 9418 013083E2 		add	r3, r3, #1
 9786 941c B030C7E1 		strh	r3, [r7, #0]	@ movhi
 9787 9420 94021FE5 		ldr	r0, .L269+172
 9788 9424 9910A0E3 		mov	r1, #153
 9789 9428 88621FE5 		ldr	r6, .L269+192
 9790 942c FEFFFFEB 		bl	uart_transmit
 9791 9430 A4021FE5 		ldr	r0, .L269+172
 9792 9434 0B10A0E3 		mov	r1, #11
 9793 9438 94421FE5 		ldr	r4, .L269+196
 9794 943c FEFFFFEB 		bl	uart_transmit
 9795 9440 0D30A0E3 		mov	r3, #13
 9796 9444 0030C6E5 		strb	r3, [r6, #0]
 9797 9448 1830A0E3 		mov	r3, #24
 9798 944c 0030C4E5 		strb	r3, [r4, #0]
 9799 9450 C4021FE5 		ldr	r0, .L269+172
 9800 9454 0210A0E3 		mov	r1, #2
 9801 9458 FEFFFFEB 		bl	uart_transmit
 9802 945c 0030D6E5 		ldrb	r3, [r6, #0]	@ zero_extendqisi2
 9803 9460 0020D4E5 		ldrb	r2, [r4, #0]	@ zero_extendqisi2
 9804 9464 1E3083E2 		add	r3, r3, #30
 9805 9468 FF3003E2 		and	r3, r3, #255
 9806 946c 0030C6E5 		strb	r3, [r6, #0]
 9807 9470 023083E0 		add	r3, r3, r2
 9808 9474 0030C4E5 		strb	r3, [r4, #0]
 9809 9478 0510A0E1 		mov	r1, r5
 9810 947c F0021FE5 		ldr	r0, .L269+172
 9811 9480 FEFFFFEB 		bl	uart_transmit
 9812 9484 BC321FE5 		ldr	r3, .L269+232
 9813 9488 0010D3E5 		ldrb	r1, [r3, #0]	@ zero_extendqisi2
 9814 948c 0030D6E5 		ldrb	r3, [r6, #0]	@ zero_extendqisi2
 9815 9490 0020D4E5 		ldrb	r2, [r4, #0]	@ zero_extendqisi2
 9816 9494 033081E0 		add	r3, r1, r3
 9817 9498 FF3003E2 		and	r3, r3, #255
 9818 949c 0030C6E5 		strb	r3, [r6, #0]
 9819 94a0 023083E0 		add	r3, r3, r2
 9820 94a4 0030C4E5 		strb	r3, [r4, #0]
 9821 94a8 1C031FE5 		ldr	r0, .L269+172
 9822 94ac FEFFFFEB 		bl	uart_transmit
 9823 94b0 0E10DDE5 		ldrb	r1, [sp, #14]	@ zero_extendqisi2
 9824 94b4 0030D6E5 		ldrb	r3, [r6, #0]	@ zero_extendqisi2
 9825 94b8 0020D4E5 		ldrb	r2, [r4, #0]	@ zero_extendqisi2
 9826 94bc 033081E0 		add	r3, r1, r3
 9827 94c0 FF3003E2 		and	r3, r3, #255
 9828 94c4 0030C6E5 		strb	r3, [r6, #0]
 9829 94c8 023083E0 		add	r3, r3, r2
 9830 94cc 0030C4E5 		strb	r3, [r4, #0]
 9831 94d0 44031FE5 		ldr	r0, .L269+172
 9832 94d4 FEFFFFEB 		bl	uart_transmit
 9833 94d8 0F10DDE5 		ldrb	r1, [sp, #15]	@ zero_extendqisi2
 9834 94dc 0030D6E5 		ldrb	r3, [r6, #0]	@ zero_extendqisi2
 9835 94e0 0020D4E5 		ldrb	r2, [r4, #0]	@ zero_extendqisi2
 9836 94e4 033081E0 		add	r3, r1, r3
 9837 94e8 FF3003E2 		and	r3, r3, #255
 9838 94ec 0030C6E5 		strb	r3, [r6, #0]
 9839 94f0 023083E0 		add	r3, r3, r2
 9840 94f4 0030C4E5 		strb	r3, [r4, #0]
 9841 94f8 6C031FE5 		ldr	r0, .L269+172
 9842 94fc FEFFFFEB 		bl	uart_transmit
 9843 9500 0010D7E5 		ldrb	r1, [r7, #0]	@ zero_extendqisi2
 9844 9504 0030D6E5 		ldrb	r3, [r6, #0]	@ zero_extendqisi2
 9845 9508 0020D4E5 		ldrb	r2, [r4, #0]	@ zero_extendqisi2
 9846 950c 033081E0 		add	r3, r1, r3
 9847 9510 FF3003E2 		and	r3, r3, #255
 9848 9514 0030C6E5 		strb	r3, [r6, #0]
 9849 9518 023083E0 		add	r3, r3, r2
 9850 951c 0030C4E5 		strb	r3, [r4, #0]
 9851 9520 94031FE5 		ldr	r0, .L269+172
 9852 9524 FEFFFFEB 		bl	uart_transmit
 9853 9528 0110D7E5 		ldrb	r1, [r7, #1]	@ zero_extendqisi2
 9854 952c 0030D6E5 		ldrb	r3, [r6, #0]	@ zero_extendqisi2
 9855 9530 0020D4E5 		ldrb	r2, [r4, #0]	@ zero_extendqisi2
 9856 9534 033081E0 		add	r3, r1, r3
 9857 9538 FF3003E2 		and	r3, r3, #255
 9858 953c 0030C6E5 		strb	r3, [r6, #0]
 9859 9540 023083E0 		add	r3, r3, r2
 9860 9544 0030C4E5 		strb	r3, [r4, #0]
 9861 9548 BC031FE5 		ldr	r0, .L269+172
 9862 954c FEFFFFEB 		bl	uart_transmit
 9863 9550 0010D6E5 		ldrb	r1, [r6, #0]	@ zero_extendqisi2
 9864 9554 C8031FE5 		ldr	r0, .L269+172
 9865 9558 FEFFFFEB 		bl	uart_transmit
 9866 955c D0031FE5 		ldr	r0, .L269+172
 9867 9560 0010D4E5 		ldrb	r1, [r4, #0]	@ zero_extendqisi2
 9868 9564 FEFFFFEB 		bl	uart_transmit
 9869 9568 030000EA 		b	.L229
 9870              	.L230:
 9871 956c A4331FE5 		ldr	r3, .L269+232
 9872 9570 0020D3E5 		ldrb	r2, [r3, #0]	@ zero_extendqisi2
 9873 9574 012082E2 		add	r2, r2, #1
 9874 9578 0020C3E5 		strb	r2, [r3, #0]
 9875              	.L229:
 9876 957c 20341FE5 		ldr	r3, .L269+124
 9877 9580 B030D3E1 		ldrh	r3, [r3, #0]
 9878 9584 240053E3 		cmp	r3, #36
 9879 9588 6000001A 		bne	.L231
 9880 958c 2C341FE5 		ldr	r3, .L269+128
 9881 9590 F661D3E1 		ldrsh	r6, [r3, #22]
 9882 9594 F421D3E1 		ldrsh	r2, [r3, #20]
 9883 9598 F831D3E1 		ldrsh	r3, [r3, #24]
 9884 959c 000052E3 		cmp	r2, #0
 9885 95a0 002062B2 		rsblt	r2, r2, #0
 9886 95a4 000056E3 		cmp	r6, #0
 9887 95a8 006066B2 		rsblt	r6, r6, #0
 9888 95ac 000053E3 		cmp	r3, #0
 9889 95b0 003063B2 		rsblt	r3, r3, #0
 9890 95b4 026086E0 		add	r6, r6, r2
 9891 95b8 036086E0 		add	r6, r6, r3
 9892 95bc 0668A0E1 		mov	r6, r6, asl #16
 9893 95c0 2668A0E1 		mov	r6, r6, lsr #16
 9894 95c4 310056E3 		cmp	r6, #49
 9895 95c8 3C041FE5 		ldr	r0, .L269+172
 9896 95cc 0910A0E3 		mov	r1, #9
 9897 95d0 BE60CDE1 		strh	r6, [sp, #14]	@ movhi
 9898 95d4 0760A093 		movls	r6, #7
 9899 95d8 0360A083 		movhi	r6, #3
 9900 95dc FEFFFFEB 		bl	uart_check_free_space
 9901 95e0 000050E3 		cmp	r0, #0
 9902 95e4 4500000A 		beq	.L233
 9903 95e8 50341FE5 		ldr	r3, .L269+184
 9904 95ec B020D3E1 		ldrh	r2, [r3, #0]
 9905 95f0 092082E2 		add	r2, r2, #9
 9906 95f4 B020C3E1 		strh	r2, [r3, #0]	@ movhi
 9907 95f8 5C341FE5 		ldr	r3, .L269+188
 9908 95fc B020D3E1 		ldrh	r2, [r3, #0]
 9909 9600 012082E2 		add	r2, r2, #1
 9910 9604 B020C3E1 		strh	r2, [r3, #0]	@ movhi
 9911 9608 7C041FE5 		ldr	r0, .L269+172
 9912 960c 9910A0E3 		mov	r1, #153
 9913 9610 70541FE5 		ldr	r5, .L269+192
 9914 9614 FEFFFFEB 		bl	uart_transmit
 9915 9618 8C041FE5 		ldr	r0, .L269+172
 9916 961c 0910A0E3 		mov	r1, #9
 9917 9620 7C441FE5 		ldr	r4, .L269+196
 9918 9624 FEFFFFEB 		bl	uart_transmit
 9919 9628 0B30A0E3 		mov	r3, #11
 9920 962c 0030C5E5 		strb	r3, [r5, #0]
 9921 9630 1430A0E3 		mov	r3, #20
 9922 9634 0030C4E5 		strb	r3, [r4, #0]
 9923 9638 AC041FE5 		ldr	r0, .L269+172
 9924 963c 0210A0E3 		mov	r1, #2
 9925 9640 FEFFFFEB 		bl	uart_transmit
 9926 9644 0030D5E5 		ldrb	r3, [r5, #0]	@ zero_extendqisi2
 9927 9648 0020D4E5 		ldrb	r2, [r4, #0]	@ zero_extendqisi2
 9928 964c 183043E2 		sub	r3, r3, #24
 9929 9650 FF3003E2 		and	r3, r3, #255
 9930 9654 0030C5E5 		strb	r3, [r5, #0]
 9931 9658 023083E0 		add	r3, r3, r2
 9932 965c 0030C4E5 		strb	r3, [r4, #0]
 9933 9660 D4041FE5 		ldr	r0, .L269+172
 9934 9664 E810A0E3 		mov	r1, #232
 9935 9668 FEFFFFEB 		bl	uart_transmit
 9936 966c 0030D5E5 		ldrb	r3, [r5, #0]	@ zero_extendqisi2
 9937 9670 0020D4E5 		ldrb	r2, [r4, #0]	@ zero_extendqisi2
 9938 9674 033086E0 		add	r3, r6, r3
 9939 9678 FF3003E2 		and	r3, r3, #255
 9940 967c 0030C5E5 		strb	r3, [r5, #0]
 9941 9680 023083E0 		add	r3, r3, r2
 9942 9684 0030C4E5 		strb	r3, [r4, #0]
 9943 9688 0610A0E1 		mov	r1, r6
 9944 968c 00051FE5 		ldr	r0, .L269+172
 9945 9690 FEFFFFEB 		bl	uart_transmit
 9946 9694 0E10DDE5 		ldrb	r1, [sp, #14]	@ zero_extendqisi2
 9947 9698 0030D5E5 		ldrb	r3, [r5, #0]	@ zero_extendqisi2
 9948 969c 0020D4E5 		ldrb	r2, [r4, #0]	@ zero_extendqisi2
 9949 96a0 033081E0 		add	r3, r1, r3
 9950 96a4 FF3003E2 		and	r3, r3, #255
 9951 96a8 0030C5E5 		strb	r3, [r5, #0]
 9952 96ac 023083E0 		add	r3, r3, r2
 9953 96b0 0030C4E5 		strb	r3, [r4, #0]
 9954 96b4 28051FE5 		ldr	r0, .L269+172
 9955 96b8 FEFFFFEB 		bl	uart_transmit
 9956 96bc 0F10DDE5 		ldrb	r1, [sp, #15]	@ zero_extendqisi2
 9957 96c0 0030D5E5 		ldrb	r3, [r5, #0]	@ zero_extendqisi2
 9958 96c4 0020D4E5 		ldrb	r2, [r4, #0]	@ zero_extendqisi2
 9959 96c8 033081E0 		add	r3, r1, r3
 9960 96cc FF3003E2 		and	r3, r3, #255
 9961 96d0 0030C5E5 		strb	r3, [r5, #0]
 9962 96d4 023083E0 		add	r3, r3, r2
 9963 96d8 0030C4E5 		strb	r3, [r4, #0]
 9964 96dc 50051FE5 		ldr	r0, .L269+172
 9965 96e0 FEFFFFEB 		bl	uart_transmit
 9966 96e4 0010D5E5 		ldrb	r1, [r5, #0]	@ zero_extendqisi2
 9967 96e8 5C051FE5 		ldr	r0, .L269+172
 9968 96ec FEFFFFEB 		bl	uart_transmit
 9969 96f0 64051FE5 		ldr	r0, .L269+172
 9970 96f4 0010D4E5 		ldrb	r1, [r4, #0]	@ zero_extendqisi2
 9971 96f8 FEFFFFEB 		bl	uart_transmit
 9972 96fc 030000EA 		b	.L231
 9973              	.L233:
 9974 9700 38351FE5 		ldr	r3, .L269+232
 9975 9704 0020D3E5 		ldrb	r2, [r3, #0]	@ zero_extendqisi2
 9976 9708 012082E2 		add	r2, r2, #1
 9977 970c 0020C3E5 		strb	r2, [r3, #0]
 9978              	.L231:
 9979 9710 AC351FE5 		ldr	r3, .L269+132
 9980 9714 B030D3E1 		ldrh	r3, [r3, #0]
 9981 9718 2A0053E3 		cmp	r3, #42
 9982 971c EA00001A 		bne	.L234
 9983 9720 B8351FE5 		ldr	r3, .L269+136
 9984 9724 0A10A0E3 		mov	r1, #10
 9985 9728 000093E5 		ldr	r0, [r3, #0]
 9986 972c FEFFFFEB 		bl	__aeabi_idiv
 9987 9730 C4351FE5 		ldr	r3, .L269+140
 9988 9734 BE00CDE1 		strh	r0, [sp, #14]	@ movhi
 9989 9738 000093E5 		ldr	r0, [r3, #0]	@ float
 9990 973c FEFFFFEB 		bl	__aeabi_f2iz
 9991 9740 1710A0E3 		mov	r1, #23
 9992 9744 BC00CDE1 		strh	r0, [sp, #12]	@ movhi
 9993 9748 BC051FE5 		ldr	r0, .L269+172
 9994 974c FEFFFFEB 		bl	uart_check_free_space
 9995 9750 000050E3 		cmp	r0, #0
 9996 9754 D800000A 		beq	.L235
 9997 9758 C0351FE5 		ldr	r3, .L269+184
 9998 975c B020D3E1 		ldrh	r2, [r3, #0]
 9999 9760 172082E2 		add	r2, r2, #23
 10000 9764 B020C3E1 		strh	r2, [r3, #0]	@ movhi
 10001 9768 CC351FE5 		ldr	r3, .L269+188
 10002 976c B020D3E1 		ldrh	r2, [r3, #0]
 10003 9770 012082E2 		add	r2, r2, #1
 10004 9774 B020C3E1 		strh	r2, [r3, #0]	@ movhi
 10005 9778 EC051FE5 		ldr	r0, .L269+172
 10006 977c 9910A0E3 		mov	r1, #153
 10007 9780 E0551FE5 		ldr	r5, .L269+192
 10008 9784 FEFFFFEB 		bl	uart_transmit
 10009 9788 FC051FE5 		ldr	r0, .L269+172
 10010 978c 1710A0E3 		mov	r1, #23
 10011 9790 EC451FE5 		ldr	r4, .L269+196
 10012 9794 FEFFFFEB 		bl	uart_transmit
 10013 9798 1930A0E3 		mov	r3, #25
 10014 979c 0030C5E5 		strb	r3, [r5, #0]
 10015 97a0 3030A0E3 		mov	r3, #48
 10016 97a4 0030C4E5 		strb	r3, [r4, #0]
 10017 97a8 1C061FE5 		ldr	r0, .L269+172
 10018 97ac 0210A0E3 		mov	r1, #2
 10019 97b0 FEFFFFEB 		bl	uart_transmit
 10020 97b4 0030D5E5 		ldrb	r3, [r5, #0]	@ zero_extendqisi2
 10021 97b8 0020D4E5 		ldrb	r2, [r4, #0]	@ zero_extendqisi2
 10022 97bc 0C3083E2 		add	r3, r3, #12
 10023 97c0 FF3003E2 		and	r3, r3, #255
 10024 97c4 0030C5E5 		strb	r3, [r5, #0]
 10025 97c8 58661FE5 		ldr	r6, .L269+144
 10026 97cc 023083E0 		add	r3, r3, r2
 10027 97d0 0030C4E5 		strb	r3, [r4, #0]
 10028 97d4 48061FE5 		ldr	r0, .L269+172
 10029 97d8 0C10A0E3 		mov	r1, #12
 10030 97dc FEFFFFEB 		bl	uart_transmit
 10031 97e0 0010D6E5 		ldrb	r1, [r6, #0]	@ zero_extendqisi2
 10032 97e4 0030D5E5 		ldrb	r3, [r5, #0]	@ zero_extendqisi2
 10033 97e8 0020D4E5 		ldrb	r2, [r4, #0]	@ zero_extendqisi2
 10034 97ec 033081E0 		add	r3, r1, r3
 10035 97f0 FF3003E2 		and	r3, r3, #255
 10036 97f4 0030C5E5 		strb	r3, [r5, #0]
 10037 97f8 023083E0 		add	r3, r3, r2
 10038 97fc 0030C4E5 		strb	r3, [r4, #0]
 10039 9800 74061FE5 		ldr	r0, .L269+172
 10040 9804 FEFFFFEB 		bl	uart_transmit
 10041 9808 0110D6E5 		ldrb	r1, [r6, #1]	@ zero_extendqisi2
 10042 980c 0030D5E5 		ldrb	r3, [r5, #0]	@ zero_extendqisi2
 10043 9810 0020D4E5 		ldrb	r2, [r4, #0]	@ zero_extendqisi2
 10044 9814 033081E0 		add	r3, r1, r3
 10045 9818 FF3003E2 		and	r3, r3, #255
 10046 981c 0030C5E5 		strb	r3, [r5, #0]
 10047 9820 AC661FE5 		ldr	r6, .L269+148
 10048 9824 023083E0 		add	r3, r3, r2
 10049 9828 0030C4E5 		strb	r3, [r4, #0]
 10050 982c A0061FE5 		ldr	r0, .L269+172
 10051 9830 FEFFFFEB 		bl	uart_transmit
 10052 9834 0010D6E5 		ldrb	r1, [r6, #0]	@ zero_extendqisi2
 10053 9838 0030D5E5 		ldrb	r3, [r5, #0]	@ zero_extendqisi2
 10054 983c 0020D4E5 		ldrb	r2, [r4, #0]	@ zero_extendqisi2
 10055 9840 033081E0 		add	r3, r1, r3
 10056 9844 FF3003E2 		and	r3, r3, #255
 10057 9848 0030C5E5 		strb	r3, [r5, #0]
 10058 984c 023083E0 		add	r3, r3, r2
 10059 9850 0030C4E5 		strb	r3, [r4, #0]
 10060 9854 C8061FE5 		ldr	r0, .L269+172
 10061 9858 FEFFFFEB 		bl	uart_transmit
 10062 985c 0110D6E5 		ldrb	r1, [r6, #1]	@ zero_extendqisi2
 10063 9860 0030D5E5 		ldrb	r3, [r5, #0]	@ zero_extendqisi2
 10064 9864 0020D4E5 		ldrb	r2, [r4, #0]	@ zero_extendqisi2
 10065 9868 033081E0 		add	r3, r1, r3
 10066 986c FF3003E2 		and	r3, r3, #255
 10067 9870 0030C5E5 		strb	r3, [r5, #0]
 10068 9874 FC661FE5 		ldr	r6, .L269+152
 10069 9878 023083E0 		add	r3, r3, r2
 10070 987c 0030C4E5 		strb	r3, [r4, #0]
 10071 9880 F4061FE5 		ldr	r0, .L269+172
 10072 9884 FEFFFFEB 		bl	uart_transmit
 10073 9888 0210D6E5 		ldrb	r1, [r6, #2]	@ zero_extendqisi2
 10074 988c 0030D5E5 		ldrb	r3, [r5, #0]	@ zero_extendqisi2
 10075 9890 0020D4E5 		ldrb	r2, [r4, #0]	@ zero_extendqisi2
 10076 9894 033081E0 		add	r3, r1, r3
 10077 9898 FF3003E2 		and	r3, r3, #255
 10078 989c 0030C5E5 		strb	r3, [r5, #0]
 10079 98a0 023083E0 		add	r3, r3, r2
 10080 98a4 0030C4E5 		strb	r3, [r4, #0]
 10081 98a8 1C071FE5 		ldr	r0, .L269+172
 10082 98ac FEFFFFEB 		bl	uart_transmit
 10083 98b0 0310D6E5 		ldrb	r1, [r6, #3]	@ zero_extendqisi2
 10084 98b4 0030D5E5 		ldrb	r3, [r5, #0]	@ zero_extendqisi2
 10085 98b8 0020D4E5 		ldrb	r2, [r4, #0]	@ zero_extendqisi2
 10086 98bc 033081E0 		add	r3, r1, r3
 10087 98c0 FF3003E2 		and	r3, r3, #255
 10088 98c4 0030C5E5 		strb	r3, [r5, #0]
 10089 98c8 023083E0 		add	r3, r3, r2
 10090 98cc 0030C4E5 		strb	r3, [r4, #0]
 10091 98d0 44071FE5 		ldr	r0, .L269+172
 10092 98d4 FEFFFFEB 		bl	uart_transmit
 10093 98d8 0E10DDE5 		ldrb	r1, [sp, #14]	@ zero_extendqisi2
 10094 98dc 0030D5E5 		ldrb	r3, [r5, #0]	@ zero_extendqisi2
 10095 98e0 0020D4E5 		ldrb	r2, [r4, #0]	@ zero_extendqisi2
 10096 98e4 033081E0 		add	r3, r1, r3
 10097 98e8 FF3003E2 		and	r3, r3, #255
 10098 98ec 0030C5E5 		strb	r3, [r5, #0]
 10099 98f0 023083E0 		add	r3, r3, r2
 10100 98f4 0030C4E5 		strb	r3, [r4, #0]
 10101 98f8 6C071FE5 		ldr	r0, .L269+172
 10102 98fc FEFFFFEB 		bl	uart_transmit
 10103 9900 0F10DDE5 		ldrb	r1, [sp, #15]	@ zero_extendqisi2
 10104 9904 0030D5E5 		ldrb	r3, [r5, #0]	@ zero_extendqisi2
 10105 9908 0020D4E5 		ldrb	r2, [r4, #0]	@ zero_extendqisi2
 10106 990c 033081E0 		add	r3, r1, r3
 10107 9910 FF3003E2 		and	r3, r3, #255
 10108 9914 0030C5E5 		strb	r3, [r5, #0]
 10109 9918 9C671FE5 		ldr	r6, .L269+156
 10110 991c 023083E0 		add	r3, r3, r2
 10111 9920 0030C4E5 		strb	r3, [r4, #0]
 10112 9924 98071FE5 		ldr	r0, .L269+172
 10113 9928 FEFFFFEB 		bl	uart_transmit
 10114 992c 0010D6E5 		ldrb	r1, [r6, #0]	@ zero_extendqisi2
 10115 9930 0030D5E5 		ldrb	r3, [r5, #0]	@ zero_extendqisi2
 10116 9934 0020D4E5 		ldrb	r2, [r4, #0]	@ zero_extendqisi2
 10117 9938 033081E0 		add	r3, r1, r3
 10118 993c FF3003E2 		and	r3, r3, #255
 10119 9940 0030C5E5 		strb	r3, [r5, #0]
 10120 9944 023083E0 		add	r3, r3, r2
 10121 9948 0030C4E5 		strb	r3, [r4, #0]
 10122 994c C0071FE5 		ldr	r0, .L269+172
 10123 9950 FEFFFFEB 		bl	uart_transmit
 10124 9954 0110D6E5 		ldrb	r1, [r6, #1]	@ zero_extendqisi2
 10125 9958 0030D5E5 		ldrb	r3, [r5, #0]	@ zero_extendqisi2
 10126 995c 0020D4E5 		ldrb	r2, [r4, #0]	@ zero_extendqisi2
 10127 9960 033081E0 		add	r3, r1, r3
 10128 9964 FF3003E2 		and	r3, r3, #255
 10129 9968 0030C5E5 		strb	r3, [r5, #0]
 10130 996c 023083E0 		add	r3, r3, r2
 10131 9970 0030C4E5 		strb	r3, [r4, #0]
 10132 9974 E8071FE5 		ldr	r0, .L269+172
 10133 9978 FEFFFFEB 		bl	uart_transmit
 10134 997c FC371FE5 		ldr	r3, .L269+160
 10135 9980 0010D3E5 		ldrb	r1, [r3, #0]	@ zero_extendqisi2
 10136 9984 0030D5E5 		ldrb	r3, [r5, #0]	@ zero_extendqisi2
 10137 9988 0020D4E5 		ldrb	r2, [r4, #0]	@ zero_extendqisi2
 10138 998c 033081E0 		add	r3, r1, r3
 10139 9990 FF3003E2 		and	r3, r3, #255
 10140 9994 0030C5E5 		strb	r3, [r5, #0]
 10141 9998 14681FE5 		ldr	r6, .L269+164
 10142 999c 023083E0 		add	r3, r3, r2
 10143 99a0 0030C4E5 		strb	r3, [r4, #0]
 10144 99a4 18081FE5 		ldr	r0, .L269+172
 10145 99a8 FEFFFFEB 		bl	uart_transmit
 10146 99ac 0010D6E5 		ldrb	r1, [r6, #0]	@ zero_extendqisi2
 10147 99b0 0030D5E5 		ldrb	r3, [r5, #0]	@ zero_extendqisi2
 10148 99b4 0020D4E5 		ldrb	r2, [r4, #0]	@ zero_extendqisi2
 10149 99b8 033081E0 		add	r3, r1, r3
 10150 99bc FF3003E2 		and	r3, r3, #255
 10151 99c0 0030C5E5 		strb	r3, [r5, #0]
 10152 99c4 023083E0 		add	r3, r3, r2
 10153 99c8 0030C4E5 		strb	r3, [r4, #0]
 10154 99cc 40081FE5 		ldr	r0, .L269+172
 10155 99d0 FEFFFFEB 		bl	uart_transmit
 10156 99d4 0110D6E5 		ldrb	r1, [r6, #1]	@ zero_extendqisi2
 10157 99d8 0030D5E5 		ldrb	r3, [r5, #0]	@ zero_extendqisi2
 10158 99dc 0020D4E5 		ldrb	r2, [r4, #0]	@ zero_extendqisi2
 10159 99e0 033081E0 		add	r3, r1, r3
 10160 99e4 FF3003E2 		and	r3, r3, #255
 10161 99e8 0030C5E5 		strb	r3, [r5, #0]
 10162 99ec 64681FE5 		ldr	r6, .L269+168
 10163 99f0 023083E0 		add	r3, r3, r2
 10164 99f4 0030C4E5 		strb	r3, [r4, #0]
 10165 99f8 6C081FE5 		ldr	r0, .L269+172
 10166 99fc FEFFFFEB 		bl	uart_transmit
 10167 9a00 0010D6E5 		ldrb	r1, [r6, #0]	@ zero_extendqisi2
 10168 9a04 0030D5E5 		ldrb	r3, [r5, #0]	@ zero_extendqisi2
 10169 9a08 0020D4E5 		ldrb	r2, [r4, #0]	@ zero_extendqisi2
 10170 9a0c 033081E0 		add	r3, r1, r3
 10171 9a10 FF3003E2 		and	r3, r3, #255
 10172 9a14 0030C5E5 		strb	r3, [r5, #0]
 10173 9a18 023083E0 		add	r3, r3, r2
 10174 9a1c 0030C4E5 		strb	r3, [r4, #0]
 10175 9a20 94081FE5 		ldr	r0, .L269+172
 10176 9a24 FEFFFFEB 		bl	uart_transmit
 10177 9a28 0110D6E5 		ldrb	r1, [r6, #1]	@ zero_extendqisi2
 10178 9a2c 0030D5E5 		ldrb	r3, [r5, #0]	@ zero_extendqisi2
 10179 9a30 0020D4E5 		ldrb	r2, [r4, #0]	@ zero_extendqisi2
 10180 9a34 033081E0 		add	r3, r1, r3
 10181 9a38 FF3003E2 		and	r3, r3, #255
 10182 9a3c 0030C5E5 		strb	r3, [r5, #0]
 10183 9a40 023083E0 		add	r3, r3, r2
 10184 9a44 0030C4E5 		strb	r3, [r4, #0]
 10185 9a48 BC081FE5 		ldr	r0, .L269+172
 10186 9a4c FEFFFFEB 		bl	uart_transmit
 10187 9a50 0C10DDE5 		ldrb	r1, [sp, #12]	@ zero_extendqisi2
 10188 9a54 0030D5E5 		ldrb	r3, [r5, #0]	@ zero_extendqisi2
 10189 9a58 0020D4E5 		ldrb	r2, [r4, #0]	@ zero_extendqisi2
 10190 9a5c 033081E0 		add	r3, r1, r3
 10191 9a60 FF3003E2 		and	r3, r3, #255
 10192 9a64 0030C5E5 		strb	r3, [r5, #0]
 10193 9a68 023083E0 		add	r3, r3, r2
 10194 9a6c 0030C4E5 		strb	r3, [r4, #0]
 10195 9a70 E4081FE5 		ldr	r0, .L269+172
 10196 9a74 FEFFFFEB 		bl	uart_transmit
 10197 9a78 0D10DDE5 		ldrb	r1, [sp, #13]	@ zero_extendqisi2
 10198 9a7c 0030D5E5 		ldrb	r3, [r5, #0]	@ zero_extendqisi2
 10199 9a80 0020D4E5 		ldrb	r2, [r4, #0]	@ zero_extendqisi2
 10200 9a84 033081E0 		add	r3, r1, r3
 10201 9a88 FF3003E2 		and	r3, r3, #255
 10202 9a8c 0030C5E5 		strb	r3, [r5, #0]
 10203 9a90 023083E0 		add	r3, r3, r2
 10204 9a94 0030C4E5 		strb	r3, [r4, #0]
 10205 9a98 0C091FE5 		ldr	r0, .L269+172
 10206 9a9c FEFFFFEB 		bl	uart_transmit
 10207 9aa0 0010D5E5 		ldrb	r1, [r5, #0]	@ zero_extendqisi2
 10208 9aa4 18091FE5 		ldr	r0, .L269+172
 10209 9aa8 FEFFFFEB 		bl	uart_transmit
 10210 9aac 20091FE5 		ldr	r0, .L269+172
 10211 9ab0 0010D4E5 		ldrb	r1, [r4, #0]	@ zero_extendqisi2
 10212 9ab4 FEFFFFEB 		bl	uart_transmit
 10213 9ab8 030000EA 		b	.L234
 10214              	.L235:
 10215 9abc F4381FE5 		ldr	r3, .L269+232
 10216 9ac0 0020D3E5 		ldrb	r2, [r3, #0]	@ zero_extendqisi2
 10217 9ac4 012082E2 		add	r2, r2, #1
 10218 9ac8 0020C3E5 		strb	r2, [r3, #0]
 10219              	.L234:
 10220 9acc 3C391FE5 		ldr	r3, .L269+176
 10221 9ad0 B030D3E1 		ldrh	r3, [r3, #0]
 10222 9ad4 300053E3 		cmp	r3, #48
 10223 9ad8 7901001A 		bne	.L4
 10224 9adc 48391FE5 		ldr	r3, .L269+180
 10225 9ae0 1C091FE5 		ldr	r0, .L269+228
 10226 9ae4 2610A0E3 		mov	r1, #38
 10227 9ae8 00308DE5 		str	r3, [sp, #0]	@ float
 10228 9aec FEFFFFEB 		bl	uart_check_free_space
 10229 9af0 000050E3 		cmp	r0, #0
 10230 9af4 6E01000A 		beq	.L236
 10231 9af8 60391FE5 		ldr	r3, .L269+184
 10232 9afc B020D3E1 		ldrh	r2, [r3, #0]
 10233 9b00 262082E2 		add	r2, r2, #38
 10234 9b04 B020C3E1 		strh	r2, [r3, #0]	@ movhi
 10235 9b08 6C391FE5 		ldr	r3, .L269+188
 10236 9b0c B020D3E1 		ldrh	r2, [r3, #0]
 10237 9b10 012082E2 		add	r2, r2, #1
 10238 9b14 B020C3E1 		strh	r2, [r3, #0]	@ movhi
 10239 9b18 54091FE5 		ldr	r0, .L269+228
 10240 9b1c 9910A0E3 		mov	r1, #153
 10241 9b20 80591FE5 		ldr	r5, .L269+192
 10242 9b24 FEFFFFEB 		bl	uart_transmit
 10243 9b28 64091FE5 		ldr	r0, .L269+228
 10244 9b2c 2610A0E3 		mov	r1, #38
 10245 9b30 8C491FE5 		ldr	r4, .L269+196
 10246 9b34 FEFFFFEB 		bl	uart_transmit
 10247 9b38 2830A0E3 		mov	r3, #40
 10248 9b3c 0030C5E5 		strb	r3, [r5, #0]
 10249 9b40 4E30A0E3 		mov	r3, #78
 10250 9b44 0030C4E5 		strb	r3, [r4, #0]
 10251 9b48 84091FE5 		ldr	r0, .L269+228
 10252 9b4c 0210A0E3 		mov	r1, #2
 10253 9b50 FEFFFFEB 		bl	uart_transmit
 10254 9b54 0030D5E5 		ldrb	r3, [r5, #0]	@ zero_extendqisi2
 10255 9b58 0020D4E5 		ldrb	r2, [r4, #0]	@ zero_extendqisi2
 10256 9b5c 103083E2 		add	r3, r3, #16
 10257 9b60 FF3003E2 		and	r3, r3, #255
 10258 9b64 BC691FE5 		ldr	r6, .L269+200
 10259 9b68 0030C5E5 		strb	r3, [r5, #0]
 10260 9b6c 023083E0 		add	r3, r3, r2
 10261 9b70 0030C4E5 		strb	r3, [r4, #0]
 10262 9b74 B0091FE5 		ldr	r0, .L269+228
 10263 9b78 1010A0E3 		mov	r1, #16
 10264 9b7c FEFFFFEB 		bl	uart_transmit
 10265 9b80 0010D6E5 		ldrb	r1, [r6, #0]	@ zero_extendqisi2
 10266 9b84 0030D5E5 		ldrb	r3, [r5, #0]	@ zero_extendqisi2
 10267 9b88 0020D4E5 		ldrb	r2, [r4, #0]	@ zero_extendqisi2
 10268 9b8c 033081E0 		add	r3, r1, r3
 10269 9b90 FF3003E2 		and	r3, r3, #255
 10270 9b94 0030C5E5 		strb	r3, [r5, #0]
 10271 9b98 023083E0 		add	r3, r3, r2
 10272 9b9c 0030C4E5 		strb	r3, [r4, #0]
 10273 9ba0 DC091FE5 		ldr	r0, .L269+228
 10274 9ba4 FEFFFFEB 		bl	uart_transmit
 10275 9ba8 0110D6E5 		ldrb	r1, [r6, #1]	@ zero_extendqisi2
 10276 9bac 0030D5E5 		ldrb	r3, [r5, #0]	@ zero_extendqisi2
 10277 9bb0 0020D4E5 		ldrb	r2, [r4, #0]	@ zero_extendqisi2
 10278 9bb4 033081E0 		add	r3, r1, r3
 10279 9bb8 FF3003E2 		and	r3, r3, #255
 10280 9bbc 0030C5E5 		strb	r3, [r5, #0]
 10281 9bc0 023083E0 		add	r3, r3, r2
 10282 9bc4 0030C4E5 		strb	r3, [r4, #0]
 10283 9bc8 040A1FE5 		ldr	r0, .L269+228
 10284 9bcc FEFFFFEB 		bl	uart_transmit
 10285 9bd0 0210D6E5 		ldrb	r1, [r6, #2]	@ zero_extendqisi2
 10286 9bd4 0030D5E5 		ldrb	r3, [r5, #0]	@ zero_extendqisi2
 10287 9bd8 0020D4E5 		ldrb	r2, [r4, #0]	@ zero_extendqisi2
 10288 9bdc 033081E0 		add	r3, r1, r3
 10289 9be0 FF3003E2 		and	r3, r3, #255
 10290 9be4 0030C5E5 		strb	r3, [r5, #0]
 10291 9be8 023083E0 		add	r3, r3, r2
 10292 9bec 0030C4E5 		strb	r3, [r4, #0]
 10293 9bf0 2C0A1FE5 		ldr	r0, .L269+228
 10294 9bf4 FEFFFFEB 		bl	uart_transmit
 10295 9bf8 0310D6E5 		ldrb	r1, [r6, #3]	@ zero_extendqisi2
 10296 9bfc 0030D5E5 		ldrb	r3, [r5, #0]	@ zero_extendqisi2
 10297 9c00 0020D4E5 		ldrb	r2, [r4, #0]	@ zero_extendqisi2
 10298 9c04 033081E0 		add	r3, r1, r3
 10299 9c08 FF3003E2 		and	r3, r3, #255
 10300 9c0c 606A1FE5 		ldr	r6, .L269+204
 10301 9c10 0030C5E5 		strb	r3, [r5, #0]
 10302 9c14 023083E0 		add	r3, r3, r2
 10303 9c18 0030C4E5 		strb	r3, [r4, #0]
 10304 9c1c 580A1FE5 		ldr	r0, .L269+228
 10305 9c20 FEFFFFEB 		bl	uart_transmit
 10306 9c24 0010D6E5 		ldrb	r1, [r6, #0]	@ zero_extendqisi2
 10307 9c28 0030D5E5 		ldrb	r3, [r5, #0]	@ zero_extendqisi2
 10308 9c2c 0020D4E5 		ldrb	r2, [r4, #0]	@ zero_extendqisi2
 10309 9c30 033081E0 		add	r3, r1, r3
 10310 9c34 FF3003E2 		and	r3, r3, #255
 10311 9c38 0030C5E5 		strb	r3, [r5, #0]
 10312 9c3c 023083E0 		add	r3, r3, r2
 10313 9c40 0030C4E5 		strb	r3, [r4, #0]
 10314 9c44 800A1FE5 		ldr	r0, .L269+228
 10315 9c48 FEFFFFEB 		bl	uart_transmit
 10316 9c4c 0110D6E5 		ldrb	r1, [r6, #1]	@ zero_extendqisi2
 10317 9c50 0030D5E5 		ldrb	r3, [r5, #0]	@ zero_extendqisi2
 10318 9c54 0020D4E5 		ldrb	r2, [r4, #0]	@ zero_extendqisi2
 10319 9c58 033081E0 		add	r3, r1, r3
 10320 9c5c FF3003E2 		and	r3, r3, #255
 10321 9c60 0030C5E5 		strb	r3, [r5, #0]
 10322 9c64 023083E0 		add	r3, r3, r2
 10323 9c68 0030C4E5 		strb	r3, [r4, #0]
 10324 9c6c A80A1FE5 		ldr	r0, .L269+228
 10325 9c70 FEFFFFEB 		bl	uart_transmit
 10326 9c74 0210D6E5 		ldrb	r1, [r6, #2]	@ zero_extendqisi2
 10327 9c78 0030D5E5 		ldrb	r3, [r5, #0]	@ zero_extendqisi2
 10328 9c7c 0020D4E5 		ldrb	r2, [r4, #0]	@ zero_extendqisi2
 10329 9c80 033081E0 		add	r3, r1, r3
 10330 9c84 FF3003E2 		and	r3, r3, #255
 10331 9c88 0030C5E5 		strb	r3, [r5, #0]
 10332 9c8c 023083E0 		add	r3, r3, r2
 10333 9c90 0030C4E5 		strb	r3, [r4, #0]
 10334 9c94 D00A1FE5 		ldr	r0, .L269+228
 10335 9c98 FEFFFFEB 		bl	uart_transmit
 10336 9c9c 0310D6E5 		ldrb	r1, [r6, #3]	@ zero_extendqisi2
 10337 9ca0 0030D5E5 		ldrb	r3, [r5, #0]	@ zero_extendqisi2
 10338 9ca4 0020D4E5 		ldrb	r2, [r4, #0]	@ zero_extendqisi2
 10339 9ca8 033081E0 		add	r3, r1, r3
 10340 9cac FF3003E2 		and	r3, r3, #255
 10341 9cb0 006B1FE5 		ldr	r6, .L269+208
 10342 9cb4 0030C5E5 		strb	r3, [r5, #0]
 10343 9cb8 023083E0 		add	r3, r3, r2
 10344 9cbc 0030C4E5 		strb	r3, [r4, #0]
 10345 9cc0 FC0A1FE5 		ldr	r0, .L269+228
 10346 9cc4 FEFFFFEB 		bl	uart_transmit
 10347 9cc8 0010D6E5 		ldrb	r1, [r6, #0]	@ zero_extendqisi2
 10348 9ccc 0030D5E5 		ldrb	r3, [r5, #0]	@ zero_extendqisi2
 10349 9cd0 0020D4E5 		ldrb	r2, [r4, #0]	@ zero_extendqisi2
 10350 9cd4 033081E0 		add	r3, r1, r3
 10351 9cd8 FF3003E2 		and	r3, r3, #255
 10352 9cdc 0030C5E5 		strb	r3, [r5, #0]
 10353 9ce0 023083E0 		add	r3, r3, r2
 10354 9ce4 0030C4E5 		strb	r3, [r4, #0]
 10355 9ce8 240B1FE5 		ldr	r0, .L269+228
 10356 9cec FEFFFFEB 		bl	uart_transmit
 10357 9cf0 0110D6E5 		ldrb	r1, [r6, #1]	@ zero_extendqisi2
 10358 9cf4 0030D5E5 		ldrb	r3, [r5, #0]	@ zero_extendqisi2
 10359 9cf8 0020D4E5 		ldrb	r2, [r4, #0]	@ zero_extendqisi2
 10360 9cfc 033081E0 		add	r3, r1, r3
 10361 9d00 FF3003E2 		and	r3, r3, #255
 10362 9d04 0030C5E5 		strb	r3, [r5, #0]
 10363 9d08 023083E0 		add	r3, r3, r2
 10364 9d0c 0030C4E5 		strb	r3, [r4, #0]
 10365 9d10 4C0B1FE5 		ldr	r0, .L269+228
 10366 9d14 FEFFFFEB 		bl	uart_transmit
 10367 9d18 0210D6E5 		ldrb	r1, [r6, #2]	@ zero_extendqisi2
 10368 9d1c 0030D5E5 		ldrb	r3, [r5, #0]	@ zero_extendqisi2
 10369 9d20 0020D4E5 		ldrb	r2, [r4, #0]	@ zero_extendqisi2
 10370 9d24 033081E0 		add	r3, r1, r3
 10371 9d28 FF3003E2 		and	r3, r3, #255
 10372 9d2c 0030C5E5 		strb	r3, [r5, #0]
 10373 9d30 023083E0 		add	r3, r3, r2
 10374 9d34 0030C4E5 		strb	r3, [r4, #0]
 10375 9d38 740B1FE5 		ldr	r0, .L269+228
 10376 9d3c FEFFFFEB 		bl	uart_transmit
 10377 9d40 0310D6E5 		ldrb	r1, [r6, #3]	@ zero_extendqisi2
 10378 9d44 0030D5E5 		ldrb	r3, [r5, #0]	@ zero_extendqisi2
 10379 9d48 0020D4E5 		ldrb	r2, [r4, #0]	@ zero_extendqisi2
 10380 9d4c 033081E0 		add	r3, r1, r3
 10381 9d50 FF3003E2 		and	r3, r3, #255
 10382 9d54 A06B1FE5 		ldr	r6, .L269+212
 10383 9d58 0030C5E5 		strb	r3, [r5, #0]
 10384 9d5c 023083E0 		add	r3, r3, r2
 10385 9d60 0030C4E5 		strb	r3, [r4, #0]
 10386 9d64 A00B1FE5 		ldr	r0, .L269+228
 10387 9d68 FEFFFFEB 		bl	uart_transmit
 10388 9d6c 0010D6E5 		ldrb	r1, [r6, #0]	@ zero_extendqisi2
 10389 9d70 0030D5E5 		ldrb	r3, [r5, #0]	@ zero_extendqisi2
 10390 9d74 0020D4E5 		ldrb	r2, [r4, #0]	@ zero_extendqisi2
 10391 9d78 033081E0 		add	r3, r1, r3
 10392 9d7c FF3003E2 		and	r3, r3, #255
 10393 9d80 0030C5E5 		strb	r3, [r5, #0]
 10394 9d84 023083E0 		add	r3, r3, r2
 10395 9d88 0030C4E5 		strb	r3, [r4, #0]
 10396 9d8c C80B1FE5 		ldr	r0, .L269+228
 10397 9d90 FEFFFFEB 		bl	uart_transmit
 10398 9d94 0110D6E5 		ldrb	r1, [r6, #1]	@ zero_extendqisi2
 10399 9d98 0030D5E5 		ldrb	r3, [r5, #0]	@ zero_extendqisi2
 10400 9d9c 0020D4E5 		ldrb	r2, [r4, #0]	@ zero_extendqisi2
 10401 9da0 033081E0 		add	r3, r1, r3
 10402 9da4 FF3003E2 		and	r3, r3, #255
 10403 9da8 0030C5E5 		strb	r3, [r5, #0]
 10404 9dac 023083E0 		add	r3, r3, r2
 10405 9db0 0030C4E5 		strb	r3, [r4, #0]
 10406 9db4 F00B1FE5 		ldr	r0, .L269+228
 10407 9db8 FEFFFFEB 		bl	uart_transmit
 10408 9dbc 0210D6E5 		ldrb	r1, [r6, #2]	@ zero_extendqisi2
 10409 9dc0 0030D5E5 		ldrb	r3, [r5, #0]	@ zero_extendqisi2
 10410 9dc4 0020D4E5 		ldrb	r2, [r4, #0]	@ zero_extendqisi2
 10411 9dc8 033081E0 		add	r3, r1, r3
 10412 9dcc FF3003E2 		and	r3, r3, #255
 10413 9dd0 0030C5E5 		strb	r3, [r5, #0]
 10414 9dd4 023083E0 		add	r3, r3, r2
 10415 9dd8 0030C4E5 		strb	r3, [r4, #0]
 10416 9ddc 180C1FE5 		ldr	r0, .L269+228
 10417 9de0 FEFFFFEB 		bl	uart_transmit
 10418 9de4 0310D6E5 		ldrb	r1, [r6, #3]	@ zero_extendqisi2
 10419 9de8 0030D5E5 		ldrb	r3, [r5, #0]	@ zero_extendqisi2
 10420 9dec 0020D4E5 		ldrb	r2, [r4, #0]	@ zero_extendqisi2
 10421 9df0 033081E0 		add	r3, r1, r3
 10422 9df4 FF3003E2 		and	r3, r3, #255
 10423 9df8 406C1FE5 		ldr	r6, .L269+216
 10424 9dfc 0030C5E5 		strb	r3, [r5, #0]
 10425 9e00 023083E0 		add	r3, r3, r2
 10426 9e04 0030C4E5 		strb	r3, [r4, #0]
 10427 9e08 440C1FE5 		ldr	r0, .L269+228
 10428 9e0c FEFFFFEB 		bl	uart_transmit
 10429 9e10 0010D6E5 		ldrb	r1, [r6, #0]	@ zero_extendqisi2
 10430 9e14 0030D5E5 		ldrb	r3, [r5, #0]	@ zero_extendqisi2
 10431 9e18 0020D4E5 		ldrb	r2, [r4, #0]	@ zero_extendqisi2
 10432 9e1c 033081E0 		add	r3, r1, r3
 10433 9e20 FF3003E2 		and	r3, r3, #255
 10434 9e24 0030C5E5 		strb	r3, [r5, #0]
 10435 9e28 023083E0 		add	r3, r3, r2
 10436 9e2c 0030C4E5 		strb	r3, [r4, #0]
 10437 9e30 6C0C1FE5 		ldr	r0, .L269+228
 10438 9e34 FEFFFFEB 		bl	uart_transmit
 10439 9e38 0110D6E5 		ldrb	r1, [r6, #1]	@ zero_extendqisi2
 10440 9e3c 0030D5E5 		ldrb	r3, [r5, #0]	@ zero_extendqisi2
 10441 9e40 0020D4E5 		ldrb	r2, [r4, #0]	@ zero_extendqisi2
 10442 9e44 033081E0 		add	r3, r1, r3
 10443 9e48 FF3003E2 		and	r3, r3, #255
 10444 9e4c 0030C5E5 		strb	r3, [r5, #0]
 10445 9e50 023083E0 		add	r3, r3, r2
 10446 9e54 0030C4E5 		strb	r3, [r4, #0]
 10447 9e58 940C1FE5 		ldr	r0, .L269+228
 10448 9e5c FEFFFFEB 		bl	uart_transmit
 10449 9e60 0210D6E5 		ldrb	r1, [r6, #2]	@ zero_extendqisi2
 10450 9e64 0030D5E5 		ldrb	r3, [r5, #0]	@ zero_extendqisi2
 10451 9e68 0020D4E5 		ldrb	r2, [r4, #0]	@ zero_extendqisi2
 10452 9e6c 033081E0 		add	r3, r1, r3
 10453 9e70 FF3003E2 		and	r3, r3, #255
 10454 9e74 0030C5E5 		strb	r3, [r5, #0]
 10455 9e78 023083E0 		add	r3, r3, r2
 10456 9e7c 0030C4E5 		strb	r3, [r4, #0]
 10457 9e80 BC0C1FE5 		ldr	r0, .L269+228
 10458 9e84 FEFFFFEB 		bl	uart_transmit
 10459 9e88 0310D6E5 		ldrb	r1, [r6, #3]	@ zero_extendqisi2
 10460 9e8c 0030D5E5 		ldrb	r3, [r5, #0]	@ zero_extendqisi2
 10461 9e90 0020D4E5 		ldrb	r2, [r4, #0]	@ zero_extendqisi2
 10462 9e94 033081E0 		add	r3, r1, r3
 10463 9e98 FF3003E2 		and	r3, r3, #255
 10464 9e9c E06C1FE5 		ldr	r6, .L269+220
 10465 9ea0 0030C5E5 		strb	r3, [r5, #0]
 10466 9ea4 023083E0 		add	r3, r3, r2
 10467 9ea8 0030C4E5 		strb	r3, [r4, #0]
 10468 9eac E80C1FE5 		ldr	r0, .L269+228
 10469 9eb0 FEFFFFEB 		bl	uart_transmit
 10470 9eb4 0010D6E5 		ldrb	r1, [r6, #0]	@ zero_extendqisi2
 10471 9eb8 0030D5E5 		ldrb	r3, [r5, #0]	@ zero_extendqisi2
 10472 9ebc 0020D4E5 		ldrb	r2, [r4, #0]	@ zero_extendqisi2
 10473 9ec0 033081E0 		add	r3, r1, r3
 10474 9ec4 FF3003E2 		and	r3, r3, #255
 10475 9ec8 0030C5E5 		strb	r3, [r5, #0]
 10476 9ecc 023083E0 		add	r3, r3, r2
 10477 9ed0 0030C4E5 		strb	r3, [r4, #0]
 10478 9ed4 100D1FE5 		ldr	r0, .L269+228
 10479 9ed8 FEFFFFEB 		bl	uart_transmit
 10480 9edc 0110D6E5 		ldrb	r1, [r6, #1]	@ zero_extendqisi2
 10481 9ee0 0030D5E5 		ldrb	r3, [r5, #0]	@ zero_extendqisi2
 10482 9ee4 0020D4E5 		ldrb	r2, [r4, #0]	@ zero_extendqisi2
 10483 9ee8 033081E0 		add	r3, r1, r3
 10484 9eec FF3003E2 		and	r3, r3, #255
 10485 9ef0 0030C5E5 		strb	r3, [r5, #0]
 10486 9ef4 023083E0 		add	r3, r3, r2
 10487 9ef8 0030C4E5 		strb	r3, [r4, #0]
 10488 9efc 380D1FE5 		ldr	r0, .L269+228
 10489 9f00 FEFFFFEB 		bl	uart_transmit
 10490 9f04 0210D6E5 		ldrb	r1, [r6, #2]	@ zero_extendqisi2
 10491 9f08 0030D5E5 		ldrb	r3, [r5, #0]	@ zero_extendqisi2
 10492 9f0c 0020D4E5 		ldrb	r2, [r4, #0]	@ zero_extendqisi2
 10493 9f10 033081E0 		add	r3, r1, r3
 10494 9f14 FF3003E2 		and	r3, r3, #255
 10495 9f18 0030C5E5 		strb	r3, [r5, #0]
 10496 9f1c 023083E0 		add	r3, r3, r2
 10497 9f20 0030C4E5 		strb	r3, [r4, #0]
 10498 9f24 600D1FE5 		ldr	r0, .L269+228
 10499 9f28 FEFFFFEB 		bl	uart_transmit
 10500 9f2c 0310D6E5 		ldrb	r1, [r6, #3]	@ zero_extendqisi2
 10501 9f30 0030D5E5 		ldrb	r3, [r5, #0]	@ zero_extendqisi2
 10502 9f34 0020D4E5 		ldrb	r2, [r4, #0]	@ zero_extendqisi2
 10503 9f38 033081E0 		add	r3, r1, r3
 10504 9f3c FF3003E2 		and	r3, r3, #255
 10505 9f40 806D1FE5 		ldr	r6, .L269+224
 10506 9f44 0030C5E5 		strb	r3, [r5, #0]
 10507 9f48 023083E0 		add	r3, r3, r2
 10508 9f4c 0030C4E5 		strb	r3, [r4, #0]
 10509 9f50 8C0D1FE5 		ldr	r0, .L269+228
 10510 9f54 FEFFFFEB 		bl	uart_transmit
 10511 9f58 0010D6E5 		ldrb	r1, [r6, #0]	@ zero_extendqisi2
 10512 9f5c 0030D5E5 		ldrb	r3, [r5, #0]	@ zero_extendqisi2
 10513 9f60 0020D4E5 		ldrb	r2, [r4, #0]	@ zero_extendqisi2
 10514 9f64 033081E0 		add	r3, r1, r3
 10515 9f68 FF3003E2 		and	r3, r3, #255
 10516 9f6c 0030C5E5 		strb	r3, [r5, #0]
 10517 9f70 023083E0 		add	r3, r3, r2
 10518 9f74 0030C4E5 		strb	r3, [r4, #0]
 10519 9f78 B40D1FE5 		ldr	r0, .L269+228
 10520 9f7c FEFFFFEB 		bl	uart_transmit
 10521 9f80 0110D6E5 		ldrb	r1, [r6, #1]	@ zero_extendqisi2
 10522 9f84 0030D5E5 		ldrb	r3, [r5, #0]	@ zero_extendqisi2
 10523 9f88 0020D4E5 		ldrb	r2, [r4, #0]	@ zero_extendqisi2
 10524 9f8c 033081E0 		add	r3, r1, r3
 10525 9f90 FF3003E2 		and	r3, r3, #255
 10526 9f94 0030C5E5 		strb	r3, [r5, #0]
 10527 9f98 023083E0 		add	r3, r3, r2
 10528 9f9c 0030C4E5 		strb	r3, [r4, #0]
 10529 9fa0 DC0D1FE5 		ldr	r0, .L269+228
 10530 9fa4 FEFFFFEB 		bl	uart_transmit
 10531 9fa8 0210D6E5 		ldrb	r1, [r6, #2]	@ zero_extendqisi2
 10532 9fac 0030D5E5 		ldrb	r3, [r5, #0]	@ zero_extendqisi2
 10533 9fb0 0020D4E5 		ldrb	r2, [r4, #0]	@ zero_extendqisi2
 10534 9fb4 033081E0 		add	r3, r1, r3
 10535 9fb8 FF3003E2 		and	r3, r3, #255
 10536 9fbc 0030C5E5 		strb	r3, [r5, #0]
 10537 9fc0 023083E0 		add	r3, r3, r2
 10538 9fc4 0030C4E5 		strb	r3, [r4, #0]
 10539 9fc8 040E1FE5 		ldr	r0, .L269+228
 10540 9fcc FEFFFFEB 		bl	uart_transmit
 10541 9fd0 0310D6E5 		ldrb	r1, [r6, #3]	@ zero_extendqisi2
 10542 9fd4 0030D5E5 		ldrb	r3, [r5, #0]	@ zero_extendqisi2
 10543 9fd8 0020D4E5 		ldrb	r2, [r4, #0]	@ zero_extendqisi2
 10544 9fdc 033081E0 		add	r3, r1, r3
 10545 9fe0 FF3003E2 		and	r3, r3, #255
 10546 9fe4 0030C5E5 		strb	r3, [r5, #0]
 10547 9fe8 023083E0 		add	r3, r3, r2
 10548 9fec 0030C4E5 		strb	r3, [r4, #0]
 10549 9ff0 2C0E1FE5 		ldr	r0, .L269+228
 10550 9ff4 FEFFFFEB 		bl	uart_transmit
 10551 9ff8 0010DDE5 		ldrb	r1, [sp, #0]	@ zero_extendqisi2
 10552 9ffc 0030D5E5 		ldrb	r3, [r5, #0]	@ zero_extendqisi2
 10553 a000 0020D4E5 		ldrb	r2, [r4, #0]	@ zero_extendqisi2
 10554 a004 033081E0 		add	r3, r1, r3
 10555 a008 FF3003E2 		and	r3, r3, #255
 10556 a00c 0030C5E5 		strb	r3, [r5, #0]
 10557 a010 023083E0 		add	r3, r3, r2
 10558 a014 0030C4E5 		strb	r3, [r4, #0]
 10559 a018 540E1FE5 		ldr	r0, .L269+228
 10560 a01c FEFFFFEB 		bl	uart_transmit
 10561 a020 0110DDE5 		ldrb	r1, [sp, #1]	@ zero_extendqisi2
 10562 a024 0030D5E5 		ldrb	r3, [r5, #0]	@ zero_extendqisi2
 10563 a028 0020D4E5 		ldrb	r2, [r4, #0]	@ zero_extendqisi2
 10564 a02c 033081E0 		add	r3, r1, r3
 10565 a030 FF3003E2 		and	r3, r3, #255
 10566 a034 0030C5E5 		strb	r3, [r5, #0]
 10567 a038 023083E0 		add	r3, r3, r2
 10568 a03c 0030C4E5 		strb	r3, [r4, #0]
 10569 a040 7C0E1FE5 		ldr	r0, .L269+228
 10570 a044 FEFFFFEB 		bl	uart_transmit
 10571 a048 0210DDE5 		ldrb	r1, [sp, #2]	@ zero_extendqisi2
 10572 a04c 0030D5E5 		ldrb	r3, [r5, #0]	@ zero_extendqisi2
 10573 a050 0020D4E5 		ldrb	r2, [r4, #0]	@ zero_extendqisi2
 10574 a054 033081E0 		add	r3, r1, r3
 10575 a058 FF3003E2 		and	r3, r3, #255
 10576 a05c 0030C5E5 		strb	r3, [r5, #0]
 10577 a060 023083E0 		add	r3, r3, r2
 10578 a064 0030C4E5 		strb	r3, [r4, #0]
 10579 a068 A40E1FE5 		ldr	r0, .L269+228
 10580 a06c FEFFFFEB 		bl	uart_transmit
 10581 a070 0310DDE5 		ldrb	r1, [sp, #3]	@ zero_extendqisi2
 10582 a074 0030D5E5 		ldrb	r3, [r5, #0]	@ zero_extendqisi2
 10583 a078 0020D4E5 		ldrb	r2, [r4, #0]	@ zero_extendqisi2
 10584 a07c 033081E0 		add	r3, r1, r3
 10585 a080 FF3003E2 		and	r3, r3, #255
 10586 a084 0030C5E5 		strb	r3, [r5, #0]
 10587 a088 023083E0 		add	r3, r3, r2
 10588 a08c 0030C4E5 		strb	r3, [r4, #0]
 10589 a090 CC0E1FE5 		ldr	r0, .L269+228
 10590 a094 FEFFFFEB 		bl	uart_transmit
 10591 a098 0010D5E5 		ldrb	r1, [r5, #0]	@ zero_extendqisi2
 10592 a09c D80E1FE5 		ldr	r0, .L269+228
 10593 a0a0 FEFFFFEB 		bl	uart_transmit
 10594 a0a4 E00E1FE5 		ldr	r0, .L269+228
 10595 a0a8 0010D4E5 		ldrb	r1, [r4, #0]	@ zero_extendqisi2
 10596 a0ac FEFFFFEB 		bl	uart_transmit
 10597 a0b0 030000EA 		b	.L4
 10598              	.L236:
 10599 a0b4 EC3E1FE5 		ldr	r3, .L269+232
 10600 a0b8 0020D3E5 		ldrb	r2, [r3, #0]	@ zero_extendqisi2
 10601 a0bc 012082E2 		add	r2, r2, #1
 10602              	.L256:
 10603 a0c0 0020C3E5 		strb	r2, [r3, #0]
 10604              	.L4:
 10605 a0c4 FF41BDE8 		ldmfd	sp!, {r0, r1, r2, r3, r4, r5, r6, r7, r8, lr}
 10606 a0c8 1EFF2FE1 		bx	lr
 10608              		.section	.text.navigation_task,"ax",%progbits
 10609              		.align	2
 10610              		.global	navigation_task
 10612              	navigation_task:
 10613              		@ Function supports interworking.
 10614              		@ args = 0, pretend = 0, frame = 0
 10615              		@ frame_needed = 0, uses_anonymous_args = 0
 10616 0000 F8402DE9 		stmfd	sp!, {r3, r4, r5, r6, r7, lr}
 10617 0004 FEFFFFEB 		bl	common_nav_periodic_task_4Hz
 10618 0008 B4349FE5 		ldr	r3, .L279
 10619 000c 0030D3E5 		ldrb	r3, [r3, #0]	@ zero_extendqisi2
 10620 0010 030053E3 		cmp	r3, #3
 10621 0014 0100001A 		bne	.L272
 10622 0018 FEFFFFEB 		bl	nav_home
 10623 001c 040000EA 		b	.L273
 10624              	.L272:
 10625 0020 040053E3 		cmp	r3, #4
 10626 0024 0100001A 		bne	.L274
 10627 0028 FEFFFFEB 		bl	nav_without_gps
 10628 002c 000000EA 		b	.L273
 10629              	.L274:
 10630 0030 FEFFFFEB 		bl	nav_periodic_task
 10631              	.L273:
 10632 0034 8C349FE5 		ldr	r3, .L279+4
 10633 0038 8C049FE5 		ldr	r0, .L279+8
 10634 003c 1A10A0E3 		mov	r1, #26
 10635 0040 004093E5 		ldr	r4, [r3, #0]	@ float
 10636 0044 FEFFFFEB 		bl	uart_check_free_space
 10637 0048 000050E3 		cmp	r0, #0
 10638 004c FD00000A 		beq	.L275
 10639 0050 0201C4E3 		bic	r0, r4, #-2147483648
 10640 0054 FEFFFFEB 		bl	__aeabi_f2d
 10641 0058 70249FE5 		ldr	r2, .L279+12
 10642 005c 70349FE5 		ldr	r3, .L279+16
 10643 0060 FEFFFFEB 		bl	__aeabi_ddiv
 10644 0064 FEFFFFEB 		bl	__aeabi_d2uiz
 10645 0068 68349FE5 		ldr	r3, .L279+20
 10646 006c B020D3E1 		ldrh	r2, [r3, #0]
 10647 0070 1A2082E2 		add	r2, r2, #26
 10648 0074 B020C3E1 		strh	r2, [r3, #0]	@ movhi
 10649 0078 5C349FE5 		ldr	r3, .L279+24
 10650 007c B020D3E1 		ldrh	r2, [r3, #0]
 10651 0080 012082E2 		add	r2, r2, #1
 10652 0084 B020C3E1 		strh	r2, [r3, #0]	@ movhi
 10653 0088 FF7000E2 		and	r7, r0, #255
 10654 008c 9910A0E3 		mov	r1, #153
 10655 0090 34049FE5 		ldr	r0, .L279+8
 10656 0094 44549FE5 		ldr	r5, .L279+28
 10657 0098 FEFFFFEB 		bl	uart_transmit
 10658 009c 28049FE5 		ldr	r0, .L279+8
 10659 00a0 1A10A0E3 		mov	r1, #26
 10660 00a4 38449FE5 		ldr	r4, .L279+32
 10661 00a8 FEFFFFEB 		bl	uart_transmit
 10662 00ac 1C30A0E3 		mov	r3, #28
 10663 00b0 0030C5E5 		strb	r3, [r5, #0]
 10664 00b4 3630A0E3 		mov	r3, #54
 10665 00b8 0030C4E5 		strb	r3, [r4, #0]
 10666 00bc 08049FE5 		ldr	r0, .L279+8
 10667 00c0 0210A0E3 		mov	r1, #2
 10668 00c4 FEFFFFEB 		bl	uart_transmit
 10669 00c8 0030D5E5 		ldrb	r3, [r5, #0]	@ zero_extendqisi2
 10670 00cc 0020D4E5 		ldrb	r2, [r4, #0]	@ zero_extendqisi2
 10671 00d0 0A3083E2 		add	r3, r3, #10
 10672 00d4 FF3003E2 		and	r3, r3, #255
 10673 00d8 0030C5E5 		strb	r3, [r5, #0]
 10674 00dc 023083E0 		add	r3, r3, r2
 10675 00e0 0030C4E5 		strb	r3, [r4, #0]
 10676 00e4 E0039FE5 		ldr	r0, .L279+8
 10677 00e8 0A10A0E3 		mov	r1, #10
 10678 00ec FEFFFFEB 		bl	uart_transmit
 10679 00f0 F0339FE5 		ldr	r3, .L279+36
 10680 00f4 0010D3E5 		ldrb	r1, [r3, #0]	@ zero_extendqisi2
 10681 00f8 0030D5E5 		ldrb	r3, [r5, #0]	@ zero_extendqisi2
 10682 00fc 0020D4E5 		ldrb	r2, [r4, #0]	@ zero_extendqisi2
 10683 0100 033081E0 		add	r3, r1, r3
 10684 0104 FF3003E2 		and	r3, r3, #255
 10685 0108 0030C5E5 		strb	r3, [r5, #0]
 10686 010c 023083E0 		add	r3, r3, r2
 10687 0110 0030C4E5 		strb	r3, [r4, #0]
 10688 0114 B0039FE5 		ldr	r0, .L279+8
 10689 0118 FEFFFFEB 		bl	uart_transmit
 10690 011c C8339FE5 		ldr	r3, .L279+40
 10691 0120 0010D3E5 		ldrb	r1, [r3, #0]	@ zero_extendqisi2
 10692 0124 0030D5E5 		ldrb	r3, [r5, #0]	@ zero_extendqisi2
 10693 0128 0020D4E5 		ldrb	r2, [r4, #0]	@ zero_extendqisi2
 10694 012c 033081E0 		add	r3, r1, r3
 10695 0130 FF3003E2 		and	r3, r3, #255
 10696 0134 B4639FE5 		ldr	r6, .L279+44
 10697 0138 0030C5E5 		strb	r3, [r5, #0]
 10698 013c 023083E0 		add	r3, r3, r2
 10699 0140 0030C4E5 		strb	r3, [r4, #0]
 10700 0144 80039FE5 		ldr	r0, .L279+8
 10701 0148 FEFFFFEB 		bl	uart_transmit
 10702 014c 0010D6E5 		ldrb	r1, [r6, #0]	@ zero_extendqisi2
 10703 0150 0030D5E5 		ldrb	r3, [r5, #0]	@ zero_extendqisi2
 10704 0154 0020D4E5 		ldrb	r2, [r4, #0]	@ zero_extendqisi2
 10705 0158 033081E0 		add	r3, r1, r3
 10706 015c FF3003E2 		and	r3, r3, #255
 10707 0160 0030C5E5 		strb	r3, [r5, #0]
 10708 0164 023083E0 		add	r3, r3, r2
 10709 0168 0030C4E5 		strb	r3, [r4, #0]
 10710 016c 58039FE5 		ldr	r0, .L279+8
 10711 0170 FEFFFFEB 		bl	uart_transmit
 10712 0174 0110D6E5 		ldrb	r1, [r6, #1]	@ zero_extendqisi2
 10713 0178 0030D5E5 		ldrb	r3, [r5, #0]	@ zero_extendqisi2
 10714 017c 0020D4E5 		ldrb	r2, [r4, #0]	@ zero_extendqisi2
 10715 0180 033081E0 		add	r3, r1, r3
 10716 0184 FF3003E2 		and	r3, r3, #255
 10717 0188 0030C5E5 		strb	r3, [r5, #0]
 10718 018c 023083E0 		add	r3, r3, r2
 10719 0190 0030C4E5 		strb	r3, [r4, #0]
 10720 0194 30039FE5 		ldr	r0, .L279+8
 10721 0198 FEFFFFEB 		bl	uart_transmit
 10722 019c 0210D6E5 		ldrb	r1, [r6, #2]	@ zero_extendqisi2
 10723 01a0 0030D5E5 		ldrb	r3, [r5, #0]	@ zero_extendqisi2
 10724 01a4 0020D4E5 		ldrb	r2, [r4, #0]	@ zero_extendqisi2
 10725 01a8 033081E0 		add	r3, r1, r3
 10726 01ac FF3003E2 		and	r3, r3, #255
 10727 01b0 0030C5E5 		strb	r3, [r5, #0]
 10728 01b4 023083E0 		add	r3, r3, r2
 10729 01b8 0030C4E5 		strb	r3, [r4, #0]
 10730 01bc 08039FE5 		ldr	r0, .L279+8
 10731 01c0 FEFFFFEB 		bl	uart_transmit
 10732 01c4 0310D6E5 		ldrb	r1, [r6, #3]	@ zero_extendqisi2
 10733 01c8 0030D5E5 		ldrb	r3, [r5, #0]	@ zero_extendqisi2
 10734 01cc 0020D4E5 		ldrb	r2, [r4, #0]	@ zero_extendqisi2
 10735 01d0 033081E0 		add	r3, r1, r3
 10736 01d4 FF3003E2 		and	r3, r3, #255
 10737 01d8 14639FE5 		ldr	r6, .L279+48
 10738 01dc 0030C5E5 		strb	r3, [r5, #0]
 10739 01e0 023083E0 		add	r3, r3, r2
 10740 01e4 0030C4E5 		strb	r3, [r4, #0]
 10741 01e8 DC029FE5 		ldr	r0, .L279+8
 10742 01ec FEFFFFEB 		bl	uart_transmit
 10743 01f0 0010D6E5 		ldrb	r1, [r6, #0]	@ zero_extendqisi2
 10744 01f4 0030D5E5 		ldrb	r3, [r5, #0]	@ zero_extendqisi2
 10745 01f8 0020D4E5 		ldrb	r2, [r4, #0]	@ zero_extendqisi2
 10746 01fc 033081E0 		add	r3, r1, r3
 10747 0200 FF3003E2 		and	r3, r3, #255
 10748 0204 0030C5E5 		strb	r3, [r5, #0]
 10749 0208 023083E0 		add	r3, r3, r2
 10750 020c 0030C4E5 		strb	r3, [r4, #0]
 10751 0210 B4029FE5 		ldr	r0, .L279+8
 10752 0214 FEFFFFEB 		bl	uart_transmit
 10753 0218 0110D6E5 		ldrb	r1, [r6, #1]	@ zero_extendqisi2
 10754 021c 0030D5E5 		ldrb	r3, [r5, #0]	@ zero_extendqisi2
 10755 0220 0020D4E5 		ldrb	r2, [r4, #0]	@ zero_extendqisi2
 10756 0224 033081E0 		add	r3, r1, r3
 10757 0228 FF3003E2 		and	r3, r3, #255
 10758 022c 0030C5E5 		strb	r3, [r5, #0]
 10759 0230 023083E0 		add	r3, r3, r2
 10760 0234 0030C4E5 		strb	r3, [r4, #0]
 10761 0238 8C029FE5 		ldr	r0, .L279+8
 10762 023c FEFFFFEB 		bl	uart_transmit
 10763 0240 0210D6E5 		ldrb	r1, [r6, #2]	@ zero_extendqisi2
 10764 0244 0030D5E5 		ldrb	r3, [r5, #0]	@ zero_extendqisi2
 10765 0248 0020D4E5 		ldrb	r2, [r4, #0]	@ zero_extendqisi2
 10766 024c 033081E0 		add	r3, r1, r3
 10767 0250 FF3003E2 		and	r3, r3, #255
 10768 0254 0030C5E5 		strb	r3, [r5, #0]
 10769 0258 023083E0 		add	r3, r3, r2
 10770 025c 0030C4E5 		strb	r3, [r4, #0]
 10771 0260 64029FE5 		ldr	r0, .L279+8
 10772 0264 FEFFFFEB 		bl	uart_transmit
 10773 0268 0310D6E5 		ldrb	r1, [r6, #3]	@ zero_extendqisi2
 10774 026c 0030D5E5 		ldrb	r3, [r5, #0]	@ zero_extendqisi2
 10775 0270 0020D4E5 		ldrb	r2, [r4, #0]	@ zero_extendqisi2
 10776 0274 033081E0 		add	r3, r1, r3
 10777 0278 FF3003E2 		and	r3, r3, #255
 10778 027c 74629FE5 		ldr	r6, .L279+52
 10779 0280 0030C5E5 		strb	r3, [r5, #0]
 10780 0284 023083E0 		add	r3, r3, r2
 10781 0288 0030C4E5 		strb	r3, [r4, #0]
 10782 028c 38029FE5 		ldr	r0, .L279+8
 10783 0290 FEFFFFEB 		bl	uart_transmit
 10784 0294 0010D6E5 		ldrb	r1, [r6, #0]	@ zero_extendqisi2
 10785 0298 0030D5E5 		ldrb	r3, [r5, #0]	@ zero_extendqisi2
 10786 029c 0020D4E5 		ldrb	r2, [r4, #0]	@ zero_extendqisi2
 10787 02a0 033081E0 		add	r3, r1, r3
 10788 02a4 FF3003E2 		and	r3, r3, #255
 10789 02a8 0030C5E5 		strb	r3, [r5, #0]
 10790 02ac 023083E0 		add	r3, r3, r2
 10791 02b0 0030C4E5 		strb	r3, [r4, #0]
 10792 02b4 10029FE5 		ldr	r0, .L279+8
 10793 02b8 FEFFFFEB 		bl	uart_transmit
 10794 02bc 0110D6E5 		ldrb	r1, [r6, #1]	@ zero_extendqisi2
 10795 02c0 0030D5E5 		ldrb	r3, [r5, #0]	@ zero_extendqisi2
 10796 02c4 0020D4E5 		ldrb	r2, [r4, #0]	@ zero_extendqisi2
 10797 02c8 033081E0 		add	r3, r1, r3
 10798 02cc FF3003E2 		and	r3, r3, #255
 10799 02d0 0030C5E5 		strb	r3, [r5, #0]
 10800 02d4 023083E0 		add	r3, r3, r2
 10801 02d8 0030C4E5 		strb	r3, [r4, #0]
 10802 02dc E8019FE5 		ldr	r0, .L279+8
 10803 02e0 FEFFFFEB 		bl	uart_transmit
 10804 02e4 0210D6E5 		ldrb	r1, [r6, #2]	@ zero_extendqisi2
 10805 02e8 0030D5E5 		ldrb	r3, [r5, #0]	@ zero_extendqisi2
 10806 02ec 0020D4E5 		ldrb	r2, [r4, #0]	@ zero_extendqisi2
 10807 02f0 033081E0 		add	r3, r1, r3
 10808 02f4 FF3003E2 		and	r3, r3, #255
 10809 02f8 0030C5E5 		strb	r3, [r5, #0]
 10810 02fc 023083E0 		add	r3, r3, r2
 10811 0300 0030C4E5 		strb	r3, [r4, #0]
 10812 0304 C0019FE5 		ldr	r0, .L279+8
 10813 0308 FEFFFFEB 		bl	uart_transmit
 10814 030c 0310D6E5 		ldrb	r1, [r6, #3]	@ zero_extendqisi2
 10815 0310 0030D5E5 		ldrb	r3, [r5, #0]	@ zero_extendqisi2
 10816 0314 0020D4E5 		ldrb	r2, [r4, #0]	@ zero_extendqisi2
 10817 0318 033081E0 		add	r3, r1, r3
 10818 031c FF3003E2 		and	r3, r3, #255
 10819 0320 D4619FE5 		ldr	r6, .L279+56
 10820 0324 0030C5E5 		strb	r3, [r5, #0]
 10821 0328 023083E0 		add	r3, r3, r2
 10822 032c 0030C4E5 		strb	r3, [r4, #0]
 10823 0330 94019FE5 		ldr	r0, .L279+8
 10824 0334 FEFFFFEB 		bl	uart_transmit
 10825 0338 0010D6E5 		ldrb	r1, [r6, #0]	@ zero_extendqisi2
 10826 033c 0030D5E5 		ldrb	r3, [r5, #0]	@ zero_extendqisi2
 10827 0340 0020D4E5 		ldrb	r2, [r4, #0]	@ zero_extendqisi2
 10828 0344 033081E0 		add	r3, r1, r3
 10829 0348 FF3003E2 		and	r3, r3, #255
 10830 034c 0030C5E5 		strb	r3, [r5, #0]
 10831 0350 023083E0 		add	r3, r3, r2
 10832 0354 0030C4E5 		strb	r3, [r4, #0]
 10833 0358 6C019FE5 		ldr	r0, .L279+8
 10834 035c FEFFFFEB 		bl	uart_transmit
 10835 0360 0110D6E5 		ldrb	r1, [r6, #1]	@ zero_extendqisi2
 10836 0364 0030D5E5 		ldrb	r3, [r5, #0]	@ zero_extendqisi2
 10837 0368 0020D4E5 		ldrb	r2, [r4, #0]	@ zero_extendqisi2
 10838 036c 033081E0 		add	r3, r1, r3
 10839 0370 FF3003E2 		and	r3, r3, #255
 10840 0374 0030C5E5 		strb	r3, [r5, #0]
 10841 0378 023083E0 		add	r3, r3, r2
 10842 037c 0030C4E5 		strb	r3, [r4, #0]
 10843 0380 44019FE5 		ldr	r0, .L279+8
 10844 0384 FEFFFFEB 		bl	uart_transmit
 10845 0388 0210D6E5 		ldrb	r1, [r6, #2]	@ zero_extendqisi2
 10846 038c 0030D5E5 		ldrb	r3, [r5, #0]	@ zero_extendqisi2
 10847 0390 0020D4E5 		ldrb	r2, [r4, #0]	@ zero_extendqisi2
 10848 0394 033081E0 		add	r3, r1, r3
 10849 0398 FF3003E2 		and	r3, r3, #255
 10850 039c 0030C5E5 		strb	r3, [r5, #0]
 10851 03a0 023083E0 		add	r3, r3, r2
 10852 03a4 0030C4E5 		strb	r3, [r4, #0]
 10853 03a8 1C019FE5 		ldr	r0, .L279+8
 10854 03ac FEFFFFEB 		bl	uart_transmit
 10855 03b0 0310D6E5 		ldrb	r1, [r6, #3]	@ zero_extendqisi2
 10856 03b4 0030D5E5 		ldrb	r3, [r5, #0]	@ zero_extendqisi2
 10857 03b8 0020D4E5 		ldrb	r2, [r4, #0]	@ zero_extendqisi2
 10858 03bc 033081E0 		add	r3, r1, r3
 10859 03c0 FF3003E2 		and	r3, r3, #255
 10860 03c4 0030C5E5 		strb	r3, [r5, #0]
 10861 03c8 023083E0 		add	r3, r3, r2
 10862 03cc 0030C4E5 		strb	r3, [r4, #0]
 10863 03d0 F4009FE5 		ldr	r0, .L279+8
 10864 03d4 FEFFFFEB 		bl	uart_transmit
 10865 03d8 0030D5E5 		ldrb	r3, [r5, #0]	@ zero_extendqisi2
 10866 03dc 0020D4E5 		ldrb	r2, [r4, #0]	@ zero_extendqisi2
 10867 03e0 033087E0 		add	r3, r7, r3
 10868 03e4 FF3003E2 		and	r3, r3, #255
 10869 03e8 0030C5E5 		strb	r3, [r5, #0]
 10870 03ec 023083E0 		add	r3, r3, r2
 10871 03f0 0030C4E5 		strb	r3, [r4, #0]
 10872 03f4 0710A0E1 		mov	r1, r7
 10873 03f8 CC009FE5 		ldr	r0, .L279+8
 10874 03fc FEFFFFEB 		bl	uart_transmit
 10875 0400 F8309FE5 		ldr	r3, .L279+60
 10876 0404 0010D3E5 		ldrb	r1, [r3, #0]	@ zero_extendqisi2
 10877 0408 0030D5E5 		ldrb	r3, [r5, #0]	@ zero_extendqisi2
 10878 040c 0020D4E5 		ldrb	r2, [r4, #0]	@ zero_extendqisi2
 10879 0410 033081E0 		add	r3, r1, r3
 10880 0414 FF3003E2 		and	r3, r3, #255
 10881 0418 0030C5E5 		strb	r3, [r5, #0]
 10882 041c 023083E0 		add	r3, r3, r2
 10883 0420 0030C4E5 		strb	r3, [r4, #0]
 10884 0424 A0009FE5 		ldr	r0, .L279+8
 10885 0428 FEFFFFEB 		bl	uart_transmit
 10886 042c 0010D5E5 		ldrb	r1, [r5, #0]	@ zero_extendqisi2
 10887 0430 94009FE5 		ldr	r0, .L279+8
 10888 0434 FEFFFFEB 		bl	uart_transmit
 10889 0438 8C009FE5 		ldr	r0, .L279+8
 10890 043c 0010D4E5 		ldrb	r1, [r4, #0]	@ zero_extendqisi2
 10891 0440 FEFFFFEB 		bl	uart_transmit
 10892 0444 030000EA 		b	.L276
 10893              	.L275:
 10894 0448 B4309FE5 		ldr	r3, .L279+64
 10895 044c 0020D3E5 		ldrb	r2, [r3, #0]	@ zero_extendqisi2
 10896 0450 012082E2 		add	r2, r2, #1
 10897 0454 0020C3E5 		strb	r2, [r3, #0]
 10898              	.L276:
 10899 0458 A8309FE5 		ldr	r3, .L279+68
 10900 045c 0030D3E5 		ldrb	r3, [r3, #0]	@ zero_extendqisi2
 10901 0460 030053E3 		cmp	r3, #3
 10902 0464 FEFFFF0B 		bleq	v_ctl_altitude_loop
 10903              	.L277:
 10904 0468 54309FE5 		ldr	r3, .L279
 10905 046c 0030D3E5 		ldrb	r3, [r3, #0]	@ zero_extendqisi2
 10906 0470 023043E2 		sub	r3, r3, #2
 10907 0474 020053E3 		cmp	r3, #2
 10908 0478 0300008A 		bhi	.L278
 10909 047c 88309FE5 		ldr	r3, .L279+72
 10910 0480 0030D3E5 		ldrb	r3, [r3, #0]	@ zero_extendqisi2
 10911 0484 020053E3 		cmp	r3, #2
 10912 0488 FEFFFF8B 		blhi	h_ctl_course_loop
 10913              	.L278:
 10914 048c 7C309FE5 		ldr	r3, .L279+76
 10915 0490 000093E5 		ldr	r0, [r3, #0]
 10916 0494 FEFFFFEB 		bl	__aeabi_i2f
 10917 0498 74109FE5 		ldr	r1, .L279+80
 10918 049c FEFFFFEB 		bl	__aeabi_fdiv
 10919 04a0 FA15A0E3 		mov	r1, #1048576000
 10920 04a4 FEFFFFEB 		bl	__aeabi_fmul
 10921 04a8 68409FE5 		ldr	r4, .L279+84
 10922 04ac 0010A0E1 		mov	r1, r0
 10923 04b0 000094E5 		ldr	r0, [r4, #0]	@ float
 10924 04b4 FEFFFFEB 		bl	__aeabi_fadd
 10925 04b8 000084E5 		str	r0, [r4, #0]	@ float
 10926 04bc F840BDE8 		ldmfd	sp!, {r3, r4, r5, r6, r7, lr}
 10927 04c0 1EFF2FE1 		bx	lr
 10928              	.L280:
 10929              		.align	2
 10930              	.L279:
 10931 04c4 00000000 		.word	.LANCHOR20
 10932 04c8 00000000 		.word	nav_circle_radians
 10933 04cc 00000000 		.word	uart1
 10934 04d0 182D4454 		.word	1413754136
 10935 04d4 FB211940 		.word	1075388923
 10936 04d8 00000000 		.word	downlink_nb_bytes
 10937 04dc 00000000 		.word	downlink_nb_msgs
 10938 04e0 00000000 		.word	ck_a
 10939 04e4 00000000 		.word	ck_b
 10940 04e8 00000000 		.word	nav_block
 10941 04ec 00000000 		.word	nav_stage
 10942 04f0 00000000 		.word	estimator_x
 10943 04f4 00000000 		.word	estimator_y
 10944 04f8 00000000 		.word	dist2_to_wp
 10945 04fc 00000000 		.word	dist2_to_home
 10946 0500 00000000 		.word	nav_oval_count
 10947 0504 00000000 		.word	downlink_nb_ovrn
 10948 0508 00000000 		.word	v_ctl_mode
 10949 050c 00000000 		.word	.LANCHOR22
 10950 0510 00000000 		.word	.LANCHOR17
 10951 0514 00006145 		.word	1163984896
 10952 0518 00000000 		.word	energy
 10954              		.global	__aeabi_dcmpgt
 10955              		.global	__aeabi_dcmplt
 10956              		.section	.text.attitude_loop,"ax",%progbits
 10957              		.align	2
 10958              		.global	attitude_loop
 10960              	attitude_loop:
 10961              		@ Function supports interworking.
 10962              		@ args = 0, pretend = 0, frame = 0
 10963              		@ frame_needed = 0, uses_anonymous_args = 0
 10964 0000 F8402DE9 		stmfd	sp!, {r3, r4, r5, r6, r7, lr}
 10965 0004 FEFFFFEB 		bl	ahrs_update_infrared
 10966 0008 70319FE5 		ldr	r3, .L296
 10967 000c 0030D3E5 		ldrb	r3, [r3, #0]	@ zero_extendqisi2
 10968 0010 010053E3 		cmp	r3, #1
 10969 0014 2D00009A 		bls	.L282
 10970 0018 64319FE5 		ldr	r3, .L296+4
 10971 001c 0030D3E5 		ldrb	r3, [r3, #0]	@ zero_extendqisi2
 10972 0020 010053E3 		cmp	r3, #1
 10973 0024 5C319F05 		ldreq	r3, .L296+8
 10974 0028 B020D301 		ldreqh	r2, [r3, #0]
 10975 002c 58319F05 		ldreq	r3, .L296+12
 10976 0030 B020C301 		streqh	r2, [r3, #0]	@ movhi
 10977 0034 0000000A 		beq	.L284
 10978              	.L283:
 10979 0038 FEFFFF8B 		blhi	v_ctl_climb_loop
 10980              	.L284:
 10981 003c 4C319FE5 		ldr	r3, .L296+16
 10982 0040 4C419FE5 		ldr	r4, .L296+20
 10983 0044 000093E5 		ldr	r0, [r3, #0]	@ float
 10984 0048 000084E5 		str	r0, [r4, #0]	@ float
 10985 004c FEFFFFEB 		bl	__aeabi_f2d
 10986 0050 40319FE5 		ldr	r3, .L296+24
 10987 0054 40219FE5 		ldr	r2, .L296+28
 10988 0058 0060A0E1 		mov	r6, r0
 10989 005c 0170A0E1 		mov	r7, r1
 10990 0060 FEFFFFEB 		bl	__aeabi_dcmpgt
 10991 0064 000050E3 		cmp	r0, #0
 10992 0068 30319F15 		ldrne	r3, .L296+32
 10993 006c 0700001A 		bne	.L295
 10994 0070 0600A0E1 		mov	r0, r6
 10995 0074 0710A0E1 		mov	r1, r7
 10996 0078 1C219FE5 		ldr	r2, .L296+28
 10997 007c 20319FE5 		ldr	r3, .L296+36
 10998 0080 FEFFFFEB 		bl	__aeabi_dcmplt
 10999 0084 000050E3 		cmp	r0, #0
 11000 0088 0100000A 		beq	.L287
 11001 008c 14319FE5 		ldr	r3, .L296+40
 11002              	.L295:
 11003 0090 003084E5 		str	r3, [r4, #0]	@ float
 11004              	.L287:
 11005 0094 10319FE5 		ldr	r3, .L296+44
 11006 0098 0030D3E5 		ldrb	r3, [r3, #0]	@ zero_extendqisi2
 11007 009c 000053E3 		cmp	r3, #0
 11008 00a0 0700001A 		bne	.L289
 11009 00a4 04319FE5 		ldr	r3, .L296+48
 11010 00a8 B030D3E1 		ldrh	r3, [r3, #0]
 11011 00ac 000053E3 		cmp	r3, #0
 11012 00b0 0600001A 		bne	.L282
 11013 00b4 F8309FE5 		ldr	r3, .L296+52
 11014 00b8 0030D3E5 		ldrb	r3, [r3, #0]	@ zero_extendqisi2
 11015 00bc 000053E3 		cmp	r3, #0
 11016 00c0 0200001A 		bne	.L282
 11017              	.L289:
 11018 00c4 C0309FE5 		ldr	r3, .L296+12
 11019 00c8 0020A0E3 		mov	r2, #0
 11020 00cc B020C3E1 		strh	r2, [r3, #0]	@ movhi
 11021              	.L282:
 11022 00d0 FEFFFFEB 		bl	h_ctl_attitude_loop
 11023 00d4 FEFFFFEB 		bl	v_ctl_throttle_slew
 11024 00d8 D8309FE5 		ldr	r3, .L296+56
 11025 00dc 004093E5 		ldr	r4, [r3, #0]
 11026 00e0 D4309FE5 		ldr	r3, .L296+60
 11027 00e4 B030D3E1 		ldrh	r3, [r3, #0]
 11028 00e8 B030C4E1 		strh	r3, [r4, #0]	@ movhi
 11029 00ec CC309FE5 		ldr	r3, .L296+64
 11030 00f0 B030D3E1 		ldrh	r3, [r3, #0]
 11031 00f4 002063E2 		rsb	r2, r3, #0
 11032 00f8 B620C4E1 		strh	r2, [r4, #6]	@ movhi
 11033 00fc C0209FE5 		ldr	r2, .L296+68
 11034 0100 B020D2E1 		ldrh	r2, [r2, #0]
 11035 0104 B220C4E1 		strh	r2, [r4, #2]	@ movhi
 11036 0108 B8209FE5 		ldr	r2, .L296+72
 11037 010c 0020D2E5 		ldrb	r2, [r2, #0]	@ zero_extendqisi2
 11038 0110 000052E3 		cmp	r2, #0
 11039 0114 B0309F05 		ldreq	r3, .L296+76
 11040 0118 00309305 		ldreq	r3, [r3, #0]
 11041 011c B430D301 		ldreqh	r3, [r3, #4]
 11042 0120 B430C401 		streqh	r3, [r4, #4]	@ movhi
 11043 0124 1000000A 		beq	.L291
 11044              	.L290:
 11045 0128 0338A0E1 		mov	r3, r3, asl #16
 11046 012c 4308A0E1 		mov	r0, r3, asr #16
 11047 0130 000060E2 		rsb	r0, r0, #0
 11048 0134 FEFFFFEB 		bl	__aeabi_i2f
 11049 0138 90309FE5 		ldr	r3, .L296+80
 11050 013c 001093E5 		ldr	r1, [r3, #0]	@ float
 11051 0140 FEFFFFEB 		bl	__aeabi_fmul
 11052 0144 80309FE5 		ldr	r3, .L296+76
 11053 0148 003093E5 		ldr	r3, [r3, #0]
 11054 014c 0050A0E1 		mov	r5, r0
 11055 0150 F400D3E1 		ldrsh	r0, [r3, #4]
 11056 0154 FEFFFFEB 		bl	__aeabi_i2f
 11057 0158 0010A0E1 		mov	r1, r0
 11058 015c 0500A0E1 		mov	r0, r5
 11059 0160 FEFFFFEB 		bl	__aeabi_fadd
 11060 0164 FEFFFFEB 		bl	__aeabi_f2iz
 11061 0168 B400C4E1 		strh	r0, [r4, #4]	@ movhi
 11062              	.L291:
 11063 016c 60309FE5 		ldr	r3, .L296+84
 11064 0170 0120A0E3 		mov	r2, #1
 11065 0174 0020C3E5 		strb	r2, [r3, #0]
 11066 0178 F840BDE8 		ldmfd	sp!, {r3, r4, r5, r6, r7, lr}
 11067 017c 1EFF2FE1 		bx	lr
 11068              	.L297:
 11069              		.align	2
 11070              	.L296:
 11071 0180 00000000 		.word	.LANCHOR20
 11072 0184 00000000 		.word	v_ctl_mode
 11073 0188 00000000 		.word	nav_throttle_setpoint
 11074 018c 00000000 		.word	v_ctl_throttle_setpoint
 11075 0190 00000000 		.word	nav_pitch
 11076 0194 00000000 		.word	h_ctl_pitch_setpoint
 11077 0198 FB21E93F 		.word	1072243195
 11078 019c 182D4454 		.word	1413754136
 11079 01a0 DB0F493F 		.word	1061752795
 11080 01a4 FB21E9BF 		.word	-1075240453
 11081 01a8 DB0F49BF 		.word	-1085730853
 11082 01ac 00000000 		.word	.LANCHOR18
 11083 01b0 00000000 		.word	estimator_flight_time
 11084 01b4 00000000 		.word	.LANCHOR21
 11085 01b8 00000000 		.word	ap_state
 11086 01bc 00000000 		.word	v_ctl_throttle_slewed
 11087 01c0 00000000 		.word	h_ctl_aileron_setpoint
 11088 01c4 00000000 		.word	h_ctl_elevator_setpoint
 11089 01c8 00000000 		.word	combi_switch_status
 11090 01cc 00000000 		.word	fbw_state
 11091 01d0 00000000 		.word	combi_switch_value
 11092 01d4 00000000 		.word	inter_mcu_received_ap
 11094              		.section	.text.sensors_task,"ax",%progbits
 11095              		.align	2
 11096              		.global	sensors_task
 11098              	sensors_task:
 11099              		@ Function supports interworking.
 11100              		@ args = 0, pretend = 0, frame = 0
 11101              		@ frame_needed = 0, uses_anonymous_args = 0
 11102              		@ link register save eliminated.
 11103 0000 1EFF2FE1 		bx	lr
 11105              		.global	__aeabi_fcmpgt
 11106              		.section	.text.monitor_task,"ax",%progbits
 11107              		.align	2
 11108              		.global	monitor_task
 11110              	monitor_task:
 11111              		@ Function supports interworking.
 11112              		@ args = 0, pretend = 0, frame = 8
 11113              		@ frame_needed = 0, uses_anonymous_args = 0
 11114 0000 FC319FE5 		ldr	r3, .L313
 11115 0004 37402DE9 		stmfd	sp!, {r0, r1, r2, r4, r5, lr}
 11116 0008 B020D3E1 		ldrh	r2, [r3, #0]
 11117 000c 000052E3 		cmp	r2, #0
 11118 0010 01208212 		addne	r2, r2, #1
 11119 0014 B020C311 		strneh	r2, [r3, #0]	@ movhi
 11120 0018 E8319FE5 		ldr	r3, .L313+4
 11121 001c B020D3E1 		ldrh	r2, [r3, #0]
 11122 0020 012082E2 		add	r2, r2, #1
 11123 0024 B020C3E1 		strh	r2, [r3, #0]	@ movhi
 11124 0028 DC319FE5 		ldr	r3, .L313+8
 11125 002c B000D3E1 		ldrh	r0, [r3, #0]
 11126 0030 FEFFFFEB 		bl	__aeabi_i2d
 11127 0034 0020A0E3 		mov	r2, #0
 11128 0038 D0319FE5 		ldr	r3, .L313+12
 11129 003c FEFFFFEB 		bl	__aeabi_dcmplt
 11130 0040 CC319FE5 		ldr	r3, .L313+16
 11131 0044 000050E3 		cmp	r0, #0
 11132 0048 0020D315 		ldrneb	r2, [r3, #0]	@ zero_extendqisi2
 11133 004c 01208212 		addne	r2, r2, #1
 11134 0050 0020C315 		strneb	r2, [r3, #0]
 11135 0054 0000C305 		streqb	r0, [r3, #0]
 11136 0058 0040D3E5 		ldrb	r4, [r3, #0]	@ zero_extendqisi2
 11137 005c B4319FE5 		ldr	r3, .L313+20
 11138 0060 0030D3E5 		ldrb	r3, [r3, #0]	@ zero_extendqisi2
 11139 0064 040054E3 		cmp	r4, #4
 11140 0068 0340A091 		movls	r4, r3
 11141 006c 01408383 		orrhi	r4, r3, #1
 11142 0070 A4319FE5 		ldr	r3, .L313+24
 11143 0074 0000D3E5 		ldrb	r0, [r3, #0]	@ zero_extendqisi2
 11144 0078 000050E3 		cmp	r0, #0
 11145 007c 0500000A 		beq	.L304
 11146 0080 98319FE5 		ldr	r3, .L313+28
 11147 0084 98119FE5 		ldr	r1, .L313+32
 11148 0088 000093E5 		ldr	r0, [r3, #0]	@ float
 11149 008c FEFFFFEB 		bl	__aeabi_fcmpgt
 11150 0090 000090E2 		adds	r0, r0, #0
 11151 0094 0100A013 		movne	r0, #1
 11152              	.L304:
 11153 0098 78319FE5 		ldr	r3, .L313+20
 11154 009c 004084E1 		orr	r4, r4, r0
 11155 00a0 0040C3E5 		strb	r4, [r3, #0]
 11156 00a4 58419FE5 		ldr	r4, .L313
 11157 00a8 B030D4E1 		ldrh	r3, [r4, #0]
 11158 00ac 000053E3 		cmp	r3, #0
 11159 00b0 5100001A 		bne	.L299
 11160 00b4 6C319FE5 		ldr	r3, .L313+36
 11161 00b8 6C119FE5 		ldr	r1, .L313+40
 11162 00bc 000093E5 		ldr	r0, [r3, #0]	@ float
 11163 00c0 FEFFFFEB 		bl	__aeabi_fcmpgt
 11164 00c4 000050E3 		cmp	r0, #0
 11165 00c8 4B00000A 		beq	.L299
 11166 00cc 48219FE5 		ldr	r2, .L313+24
 11167 00d0 0130A0E3 		mov	r3, #1
 11168 00d4 B030C4E1 		strh	r3, [r4, #0]	@ movhi
 11169 00d8 0030C2E5 		strb	r3, [r2, #0]
 11170 00dc 4C319FE5 		ldr	r3, .L313+44
 11171 00e0 003093E5 		ldr	r3, [r3, #0]
 11172 00e4 48019FE5 		ldr	r0, .L313+48
 11173 00e8 0810A0E3 		mov	r1, #8
 11174 00ec B630CDE1 		strh	r3, [sp, #6]	@ movhi
 11175 00f0 FEFFFFEB 		bl	uart_check_free_space
 11176 00f4 000050E3 		cmp	r0, #0
 11177 00f8 3B00000A 		beq	.L308
 11178 00fc 34319FE5 		ldr	r3, .L313+52
 11179 0100 B020D3E1 		ldrh	r2, [r3, #0]
 11180 0104 082082E2 		add	r2, r2, #8
 11181 0108 B020C3E1 		strh	r2, [r3, #0]	@ movhi
 11182 010c 28319FE5 		ldr	r3, .L313+56
 11183 0110 B020D3E1 		ldrh	r2, [r3, #0]
 11184 0114 012082E2 		add	r2, r2, #1
 11185 0118 B020C3E1 		strh	r2, [r3, #0]	@ movhi
 11186 011c 10019FE5 		ldr	r0, .L313+48
 11187 0120 9910A0E3 		mov	r1, #153
 11188 0124 14519FE5 		ldr	r5, .L313+60
 11189 0128 FEFFFFEB 		bl	uart_transmit
 11190 012c 00019FE5 		ldr	r0, .L313+48
 11191 0130 0810A0E3 		mov	r1, #8
 11192 0134 08419FE5 		ldr	r4, .L313+64
 11193 0138 FEFFFFEB 		bl	uart_transmit
 11194 013c 0A30A0E3 		mov	r3, #10
 11195 0140 0030C5E5 		strb	r3, [r5, #0]
 11196 0144 1230A0E3 		mov	r3, #18
 11197 0148 0030C4E5 		strb	r3, [r4, #0]
 11198 014c E0009FE5 		ldr	r0, .L313+48
 11199 0150 0210A0E3 		mov	r1, #2
 11200 0154 FEFFFFEB 		bl	uart_transmit
 11201 0158 0030D5E5 		ldrb	r3, [r5, #0]	@ zero_extendqisi2
 11202 015c 0020D4E5 		ldrb	r2, [r4, #0]	@ zero_extendqisi2
 11203 0160 043083E2 		add	r3, r3, #4
 11204 0164 FF3003E2 		and	r3, r3, #255
 11205 0168 0030C5E5 		strb	r3, [r5, #0]
 11206 016c 023083E0 		add	r3, r3, r2
 11207 0170 0030C4E5 		strb	r3, [r4, #0]
 11208 0174 B8009FE5 		ldr	r0, .L313+48
 11209 0178 0410A0E3 		mov	r1, #4
 11210 017c FEFFFFEB 		bl	uart_transmit
 11211 0180 0610DDE5 		ldrb	r1, [sp, #6]	@ zero_extendqisi2
 11212 0184 0030D5E5 		ldrb	r3, [r5, #0]	@ zero_extendqisi2
 11213 0188 0020D4E5 		ldrb	r2, [r4, #0]	@ zero_extendqisi2
 11214 018c 033081E0 		add	r3, r1, r3
 11215 0190 FF3003E2 		and	r3, r3, #255
 11216 0194 0030C5E5 		strb	r3, [r5, #0]
 11217 0198 023083E0 		add	r3, r3, r2
 11218 019c 0030C4E5 		strb	r3, [r4, #0]
 11219 01a0 8C009FE5 		ldr	r0, .L313+48
 11220 01a4 FEFFFFEB 		bl	uart_transmit
 11221 01a8 0710DDE5 		ldrb	r1, [sp, #7]	@ zero_extendqisi2
 11222 01ac 0030D5E5 		ldrb	r3, [r5, #0]	@ zero_extendqisi2
 11223 01b0 0020D4E5 		ldrb	r2, [r4, #0]	@ zero_extendqisi2
 11224 01b4 033081E0 		add	r3, r1, r3
 11225 01b8 FF3003E2 		and	r3, r3, #255
 11226 01bc 0030C5E5 		strb	r3, [r5, #0]
 11227 01c0 023083E0 		add	r3, r3, r2
 11228 01c4 0030C4E5 		strb	r3, [r4, #0]
 11229 01c8 64009FE5 		ldr	r0, .L313+48
 11230 01cc FEFFFFEB 		bl	uart_transmit
 11231 01d0 0010D5E5 		ldrb	r1, [r5, #0]	@ zero_extendqisi2
 11232 01d4 58009FE5 		ldr	r0, .L313+48
 11233 01d8 FEFFFFEB 		bl	uart_transmit
 11234 01dc 50009FE5 		ldr	r0, .L313+48
 11235 01e0 0010D4E5 		ldrb	r1, [r4, #0]	@ zero_extendqisi2
 11236 01e4 FEFFFFEB 		bl	uart_transmit
 11237 01e8 030000EA 		b	.L299
 11238              	.L308:
 11239 01ec 54309FE5 		ldr	r3, .L313+68
 11240 01f0 0020D3E5 		ldrb	r2, [r3, #0]	@ zero_extendqisi2
 11241 01f4 012082E2 		add	r2, r2, #1
 11242 01f8 0020C3E5 		strb	r2, [r3, #0]
 11243              	.L299:
 11244 01fc 3E40BDE8 		ldmfd	sp!, {r1, r2, r3, r4, r5, lr}
 11245 0200 1EFF2FE1 		bx	lr
 11246              	.L314:
 11247              		.align	2
 11248              	.L313:
 11249 0204 00000000 		.word	estimator_flight_time
 11250 0208 00000000 		.word	datalink_time
 11251 020c 00000000 		.word	vsupply
 11252 0210 00806640 		.word	1080459264
 11253 0214 00000000 		.word	.LANCHOR56
 11254 0218 00000000 		.word	.LANCHOR18
 11255 021c 00000000 		.word	.LANCHOR21
 11256 0220 00000000 		.word	dist2_to_home
 11257 0224 C87E9A4A 		.word	1251638984
 11258 0228 00000000 		.word	estimator_hspeed_mod
 11259 022c 0000A040 		.word	1084227584
 11260 0230 00000000 		.word	sys_time
 11261 0234 00000000 		.word	uart1
 11262 0238 00000000 		.word	downlink_nb_bytes
 11263 023c 00000000 		.word	downlink_nb_msgs
 11264 0240 00000000 		.word	ck_a
 11265 0244 00000000 		.word	ck_b
 11266 0248 00000000 		.word	downlink_nb_ovrn
 11268              		.section	.text.handle_periodic_tasks_ap,"ax",%progbits
 11269              		.align	2
 11270              		.global	handle_periodic_tasks_ap
 11272              	handle_periodic_tasks_ap:
 11273              		@ Function supports interworking.
 11274              		@ args = 0, pretend = 0, frame = 0
 11275              		@ frame_needed = 0, uses_anonymous_args = 0
 11276 0000 10402DE9 		stmfd	sp!, {r4, lr}
 11277 0004 28319FE5 		ldr	r3, .L323
 11278 0008 0020D3E5 		ldrb	r2, [r3, #0]	@ zero_extendqisi2
 11279 000c 24319FE5 		ldr	r3, .L323+4
 11280 0010 1410A0E3 		mov	r1, #20
 11281 0014 913222E0 		mla	r2, r1, r2, r3
 11282 0018 1410D2E5 		ldrb	r1, [r2, #20]	@ zero_extendqisi2
 11283 001c 000051E3 		cmp	r1, #0
 11284 0020 0010A013 		movne	r1, #0
 11285 0024 102082E2 		add	r2, r2, #16
 11286 0028 0410C215 		strneb	r1, [r2, #4]
 11287 002c 08219FE5 		ldr	r2, .L323+8
 11288 0030 0020D2E5 		ldrb	r2, [r2, #0]	@ zero_extendqisi2
 11289 0034 1410A0E3 		mov	r1, #20
 11290 0038 913223E0 		mla	r3, r1, r2, r3
 11291 003c 1420D3E5 		ldrb	r2, [r3, #20]	@ zero_extendqisi2
 11292 0040 000052E3 		cmp	r2, #0
 11293 0044 103083E2 		add	r3, r3, #16
 11294 0048 0020A013 		movne	r2, #0
 11295 004c 0420C315 		strneb	r2, [r3, #4]
 11296 0050 FEFFFF1B 		blne	navigation_task
 11297              	.L317:
 11298 0054 E4309FE5 		ldr	r3, .L323+12
 11299 0058 0020D3E5 		ldrb	r2, [r3, #0]	@ zero_extendqisi2
 11300 005c D4309FE5 		ldr	r3, .L323+4
 11301 0060 1410A0E3 		mov	r1, #20
 11302 0064 913222E0 		mla	r2, r1, r2, r3
 11303 0068 1410D2E5 		ldrb	r1, [r2, #20]	@ zero_extendqisi2
 11304 006c 000051E3 		cmp	r1, #0
 11305 0070 102082E2 		add	r2, r2, #16
 11306 0074 0340A0E1 		mov	r4, r3
 11307 0078 0030A013 		movne	r3, #0
 11308 007c 0430C215 		strneb	r3, [r2, #4]
 11309 0080 FEFFFF1B 		blne	attitude_loop
 11310              	.L318:
 11311 0084 B8309FE5 		ldr	r3, .L323+16
 11312 0088 0030D3E5 		ldrb	r3, [r3, #0]	@ zero_extendqisi2
 11313 008c 1420A0E3 		mov	r2, #20
 11314 0090 924323E0 		mla	r3, r2, r3, r4
 11315 0094 1420D3E5 		ldrb	r2, [r3, #20]	@ zero_extendqisi2
 11316 0098 000052E3 		cmp	r2, #0
 11317 009c 103083E2 		add	r3, r3, #16
 11318 00a0 0900000A 		beq	.L319
 11319 00a4 0020A0E3 		mov	r2, #0
 11320 00a8 0420C3E5 		strb	r2, [r3, #4]
 11321 00ac 94309FE5 		ldr	r3, .L323+20
 11322 00b0 0010D3E5 		ldrb	r1, [r3, #0]	@ zero_extendqisi2
 11323 00b4 011081E2 		add	r1, r1, #1
 11324 00b8 FF1001E2 		and	r1, r1, #255
 11325 00bc 020051E1 		cmp	r1, r2
 11326 00c0 0010C3E5 		strb	r1, [r3, #0]
 11327 00c4 0020C315 		strneb	r2, [r3, #0]
 11328 00c8 FEFFFFEB 		bl	infrared_adc_update
 11329              	.L319:
 11330 00cc 78309FE5 		ldr	r3, .L323+24
 11331 00d0 0020D3E5 		ldrb	r2, [r3, #0]	@ zero_extendqisi2
 11332 00d4 5C309FE5 		ldr	r3, .L323+4
 11333 00d8 1410A0E3 		mov	r1, #20
 11334 00dc 913222E0 		mla	r2, r1, r2, r3
 11335 00e0 1410D2E5 		ldrb	r1, [r2, #20]	@ zero_extendqisi2
 11336 00e4 000051E3 		cmp	r1, #0
 11337 00e8 102082E2 		add	r2, r2, #16
 11338 00ec 0340A0E1 		mov	r4, r3
 11339 00f0 0030A013 		movne	r3, #0
 11340 00f4 0430C215 		strneb	r3, [r2, #4]
 11341 00f8 FEFFFF1B 		blne	monitor_task
 11342              	.L321:
 11343 00fc 4C309FE5 		ldr	r3, .L323+28
 11344 0100 0030D3E5 		ldrb	r3, [r3, #0]	@ zero_extendqisi2
 11345 0104 1420A0E3 		mov	r2, #20
 11346 0108 924323E0 		mla	r3, r2, r3, r4
 11347 010c 103083E2 		add	r3, r3, #16
 11348 0110 0420D3E5 		ldrb	r2, [r3, #4]	@ zero_extendqisi2
 11349 0114 000052E3 		cmp	r2, #0
 11350 0118 0300000A 		beq	.L315
 11351 011c 0020A0E3 		mov	r2, #0
 11352 0120 0420C3E5 		strb	r2, [r3, #4]
 11353 0124 1040BDE8 		ldmfd	sp!, {r4, lr}
 11354 0128 FEFFFFEA 		b	reporting_task
 11355              	.L315:
 11356 012c 1040BDE8 		ldmfd	sp!, {r4, lr}
 11357 0130 1EFF2FE1 		bx	lr
 11358              	.L324:
 11359              		.align	2
 11360              	.L323:
 11361 0134 00000000 		.word	sensors_tid
 11362 0138 00000000 		.word	sys_time
 11363 013c 00000000 		.word	navigation_tid
 11364 0140 00000000 		.word	attitude_tid
 11365 0144 00000000 		.word	modules_tid
 11366 0148 00000000 		.word	.LANCHOR57
 11367 014c 00000000 		.word	monitor_tid
 11368 0150 00000000 		.word	telemetry_tid
 11370              		.global	__aeabi_dadd
 11371              		.global	__aeabi_d2f
 11372              		.section	.text.event_task_ap,"ax",%progbits
 11373              		.align	2
 11374              		.global	event_task_ap
 11376              	event_task_ap:
 11377              		@ Function supports interworking.
 11378              		@ args = 0, pretend = 0, frame = 0
 11379              		@ frame_needed = 0, uses_anonymous_args = 0
 11380 0000 F84F2DE9 		stmfd	sp!, {r3, r4, r5, r6, r7, r8, r9, sl, fp, lr}
 11381 0004 44469FE5 		ldr	r4, .L376
 11382 0008 B028D4E1 		ldrh	r2, [r4, #128]
 11383 000c B238D4E1 		ldrh	r3, [r4, #130]
 11384 0010 030052E1 		cmp	r2, r3
 11385 0014 38569F15 		ldrne	r5, .L376+4
 11386 0018 0500001A 		bne	.L374
 11387 001c 0B0000EA 		b	.L327
 11388              	.L328:
 11389 0020 0300D4E7 		ldrb	r0, [r4, r3]	@ zero_extendqisi2
 11390 0024 013083E2 		add	r3, r3, #1
 11391 0028 7F3003E2 		and	r3, r3, #127
 11392 002c B238C4E1 		strh	r3, [r4, #130]	@ movhi
 11393 0030 FEFFFFEB 		bl	gps_ubx_parse
 11394              	.L374:
 11395 0034 B238D4E1 		ldrh	r3, [r4, #130]
 11396 0038 B028D4E1 		ldrh	r2, [r4, #128]
 11397 003c 030052E1 		cmp	r2, r3
 11398 0040 0200000A 		beq	.L327
 11399 0044 0020D5E5 		ldrb	r2, [r5, #0]	@ zero_extendqisi2
 11400 0048 000052E3 		cmp	r2, #0
 11401 004c F3FFFF0A 		beq	.L328
 11402              	.L327:
 11403 0050 FC459FE5 		ldr	r4, .L376+4
 11404 0054 0030D4E5 		ldrb	r3, [r4, #0]	@ zero_extendqisi2
 11405 0058 000053E3 		cmp	r3, #0
 11406 005c 1700000A 		beq	.L329
 11407 0060 FEFFFFEB 		bl	gps_ubx_read_message
 11408 0064 0831D4E5 		ldrb	r3, [r4, #264]	@ zero_extendqisi2
 11409 0068 010053E3 		cmp	r3, #1
 11410 006c 1100001A 		bne	.L330
 11411 0070 0731D4E5 		ldrb	r3, [r4, #263]	@ zero_extendqisi2
 11412 0074 120053E3 		cmp	r3, #18
 11413 0078 0400000A 		beq	.L331
 11414 007c 060053E3 		cmp	r3, #6
 11415 0080 0C00001A 		bne	.L330
 11416 0084 1531D4E5 		ldrb	r3, [r4, #277]	@ zero_extendqisi2
 11417 0088 000053E3 		cmp	r3, #0
 11418 008c 0900001A 		bne	.L330
 11419              	.L331:
 11420 0090 C0359FE5 		ldr	r3, .L376+8
 11421 0094 5B20D3E5 		ldrb	r2, [r3, #91]	@ zero_extendqisi2
 11422 0098 030052E3 		cmp	r2, #3
 11423 009c B8259F05 		ldreq	r2, .L376+12
 11424 00a0 04109205 		ldreq	r1, [r2, #4]
 11425 00a4 00209205 		ldreq	r2, [r2, #0]
 11426 00a8 E8108305 		streq	r1, [r3, #232]
 11427 00ac EC208305 		streq	r2, [r3, #236]
 11428 00b0 FEFFFFEB 		bl	estimator_update_state_gps
 11429 00b4 FEFFFFEB 		bl	ahrs_update_gps
 11430              	.L330:
 11431 00b8 0030A0E3 		mov	r3, #0
 11432 00bc 0030C4E5 		strb	r3, [r4, #0]
 11433              	.L329:
 11434 00c0 98B59FE5 		ldr	fp, .L376+16
 11435 00c4 B088DBE1 		ldrh	r8, [fp, #128]
 11436 00c8 B248DBE1 		ldrh	r4, [fp, #130]
 11437 00cc 040058E1 		cmp	r8, r4
 11438 00d0 6000000A 		beq	.L333
 11439 00d4 88759FE5 		ldr	r7, .L376+20
 11440 00d8 0890A0E1 		mov	r9, r8
 11441 00dc 0431D7E5 		ldrb	r3, [r7, #260]	@ zero_extendqisi2
 11442 00e0 0261D7E5 		ldrb	r6, [r7, #258]	@ zero_extendqisi2
 11443 00e4 07C1D7E5 		ldrb	ip, [r7, #263]	@ zero_extendqisi2
 11444 00e8 0621D7E5 		ldrb	r2, [r7, #262]	@ zero_extendqisi2
 11445 00ec 0511D7E5 		ldrb	r1, [r7, #261]	@ zero_extendqisi2
 11446 00f0 0351D7E5 		ldrb	r5, [r7, #259]	@ zero_extendqisi2
 11447 00f4 07A0A0E1 		mov	sl, r7
 11448 00f8 360000EA 		b	.L334
 11449              	.L346:
 11450 00fc 0400DBE7 		ldrb	r0, [fp, r4]	@ zero_extendqisi2
 11451 0100 014084E2 		add	r4, r4, #1
 11452 0104 7F4004E2 		and	r4, r4, #127
 11453 0108 040053E3 		cmp	r3, #4
 11454 010c 03F19F97 		ldrls	pc, [pc, r3, asl #2]
 11455 0110 270000EA 		b	.L335
 11456              	.L341:
 11457 0114 28010000 		.word	.L336
 11458 0118 34010000 		.word	.L337
 11459 011c 68010000 		.word	.L338
 11460 0120 94010000 		.word	.L339
 11461 0124 A4010000 		.word	.L340
 11462              	.L336:
 11463 0128 990050E3 		cmp	r0, #153
 11464 012c 0130A003 		moveq	r3, #1
 11465 0130 220000EA 		b	.L342
 11466              	.L337:
 11467 0134 0131DAE5 		ldrb	r3, [sl, #257]	@ zero_extendqisi2
 11468 0138 FF3013E2 		ands	r3, r3, #255
 11469 013c 01608612 		addne	r6, r6, #1
 11470 0140 FF600612 		andne	r6, r6, #255
 11471 0144 1A00001A 		bne	.L335
 11472 0148 042040E2 		sub	r2, r0, #4
 11473 014c FF2002E2 		and	r2, r2, #255
 11474 0150 0021C7E5 		strb	r2, [r7, #256]
 11475 0154 0310A0E1 		mov	r1, r3
 11476 0158 0020A0E1 		mov	r2, r0
 11477 015c 00C0A0E1 		mov	ip, r0
 11478 0160 0230A0E3 		mov	r3, #2
 11479 0164 150000EA 		b	.L342
 11480              	.L338:
 11481 0168 0100CAE7 		strb	r0, [sl, r1]
 11482 016c 022080E0 		add	r2, r0, r2
 11483 0170 011081E2 		add	r1, r1, #1
 11484 0174 0001DAE5 		ldrb	r0, [sl, #256]	@ zero_extendqisi2
 11485 0178 FF2002E2 		and	r2, r2, #255
 11486 017c FF1001E2 		and	r1, r1, #255
 11487 0180 0CC082E0 		add	ip, r2, ip
 11488 0184 000051E1 		cmp	r1, r0
 11489 0188 FFC00CE2 		and	ip, ip, #255
 11490 018c 0330A003 		moveq	r3, #3
 11491 0190 0A0000EA 		b	.L342
 11492              	.L339:
 11493 0194 020050E1 		cmp	r0, r2
 11494 0198 0430A003 		moveq	r3, #4
 11495 019c 0400001A 		bne	.L335
 11496 01a0 060000EA 		b	.L342
 11497              	.L340:
 11498 01a4 0C0050E1 		cmp	r0, ip
 11499 01a8 0130A003 		moveq	r3, #1
 11500 01ac 0131C705 		streqb	r3, [r7, #257]
 11501 01b0 0100000A 		beq	.L344
 11502              	.L335:
 11503 01b4 015085E2 		add	r5, r5, #1
 11504 01b8 FF5005E2 		and	r5, r5, #255
 11505              	.L344:
 11506 01bc 0030A0E3 		mov	r3, #0
 11507              	.L342:
 11508 01c0 040059E1 		cmp	r9, r4
 11509 01c4 94049F05 		ldreq	r0, .L376+16
 11510 01c8 0980A001 		moveq	r8, r9
 11511 01cc B298C001 		streqh	r9, [r0, #130]	@ movhi
 11512 01d0 8C049F05 		ldreq	r0, .L376+20
 11513 01d4 0500000A 		beq	.L375
 11514              	.L334:
 11515 01d8 0181D7E5 		ldrb	r8, [r7, #257]	@ zero_extendqisi2
 11516 01dc 000058E3 		cmp	r8, #0
 11517 01e0 7C049FE5 		ldr	r0, .L376+20
 11518 01e4 C4FFFF0A 		beq	.L346
 11519 01e8 70749FE5 		ldr	r7, .L376+16
 11520 01ec B248C7E1 		strh	r4, [r7, #130]	@ movhi
 11521              	.L375:
 11522 01f0 0621C0E5 		strb	r2, [r0, #262]
 11523 01f4 68249FE5 		ldr	r2, .L376+20
 11524 01f8 0431C0E5 		strb	r3, [r0, #260]
 11525 01fc 0131D2E5 		ldrb	r3, [r2, #257]	@ zero_extendqisi2
 11526 0200 000053E3 		cmp	r3, #0
 11527 0204 0511C0E5 		strb	r1, [r0, #261]
 11528 0208 0261C0E5 		strb	r6, [r0, #258]
 11529 020c 07C1C0E5 		strb	ip, [r0, #263]
 11530 0210 0351C0E5 		strb	r5, [r0, #259]
 11531 0214 0030A013 		movne	r3, #0
 11532 0218 48149F15 		ldrne	r1, .L376+24
 11533 021c 0400001A 		bne	.L347
 11534 0220 0C0000EA 		b	.L333
 11535              	.L348:
 11536 0224 0300D2E7 		ldrb	r0, [r2, r3]	@ zero_extendqisi2
 11537 0228 0300C1E7 		strb	r0, [r1, r3]
 11538 022c 013083E2 		add	r3, r3, #1
 11539 0230 FF3003E2 		and	r3, r3, #255
 11540              	.L347:
 11541 0234 0001D2E5 		ldrb	r0, [r2, #256]	@ zero_extendqisi2
 11542 0238 000053E1 		cmp	r3, r0
 11543 023c F8FFFF3A 		bcc	.L348
 11544 0240 24349FE5 		ldr	r3, .L376+28
 11545 0244 0120A0E3 		mov	r2, #1
 11546 0248 0020C3E5 		strb	r2, [r3, #0]
 11547 024c 10349FE5 		ldr	r3, .L376+20
 11548 0250 0020A0E3 		mov	r2, #0
 11549 0254 0121C3E5 		strb	r2, [r3, #257]
 11550              	.L333:
 11551 0258 0C449FE5 		ldr	r4, .L376+28
 11552 025c 0030D4E5 		ldrb	r3, [r4, #0]	@ zero_extendqisi2
 11553 0260 000053E3 		cmp	r3, #0
 11554 0264 0200000A 		beq	.L349
 11555 0268 FEFFFFEB 		bl	dl_parse_msg
 11556 026c 0030A0E3 		mov	r3, #0
 11557 0270 0030C4E5 		strb	r3, [r4, #0]
 11558              	.L349:
 11559 0274 F4339FE5 		ldr	r3, .L376+32
 11560 0278 0020D3E5 		ldrb	r2, [r3, #0]	@ zero_extendqisi2
 11561 027c 000052E3 		cmp	r2, #0
 11562 0280 F000000A 		beq	.L325
 11563 0284 0020A0E3 		mov	r2, #0
 11564 0288 0020C3E5 		strb	r2, [r3, #0]
 11565 028c E0339FE5 		ldr	r3, .L376+36
 11566 0290 001093E5 		ldr	r1, [r3, #0]
 11567 0294 0B20D1E5 		ldrb	r2, [r1, #11]	@ zero_extendqisi2
 11568 0298 A200A0E1 		mov	r0, r2, lsr #1
 11569 029c 010010E2 		ands	r0, r0, #1
 11570 02a0 D0339FE5 		ldr	r3, .L376+40
 11571 02a4 0300000A 		beq	.L351
 11572 02a8 0000D3E5 		ldrb	r0, [r3, #0]	@ zero_extendqisi2
 11573 02ac 010050E3 		cmp	r0, #1
 11574 02b0 0000A083 		movhi	r0, #0
 11575 02b4 0100A093 		movls	r0, #1
 11576              	.L351:
 11577 02b8 0030D3E5 		ldrb	r3, [r3, #0]	@ zero_extendqisi2
 11578 02bc 033043E2 		sub	r3, r3, #3
 11579 02c0 010053E3 		cmp	r3, #1
 11580 02c4 0030A093 		movls	r3, #0
 11581 02c8 0F00009A 		bls	.L352
 11582 02cc A8339FE5 		ldr	r3, .L376+44
 11583 02d0 0030D3E5 		ldrb	r3, [r3, #0]	@ zero_extendqisi2
 11584 02d4 000053E3 		cmp	r3, #0
 11585 02d8 0B00000A 		beq	.L352
 11586 02dc 9C339FE5 		ldr	r3, .L376+48
 11587 02e0 0030D3E5 		ldrb	r3, [r3, #0]	@ zero_extendqisi2
 11588 02e4 000053E3 		cmp	r3, #0
 11589 02e8 88339F15 		ldrne	r3, .L376+40
 11590 02ec 03C0A013 		movne	ip, #3
 11591 02f0 00C0C315 		strneb	ip, [r3, #0]
 11592 02f4 0130A013 		movne	r3, #1
 11593 02f8 000050E3 		cmp	r0, #0
 11594 02fc 74339F15 		ldrne	r3, .L376+40
 11595 0300 0200A013 		movne	r0, #2
 11596 0304 0000C315 		strneb	r0, [r3, #0]
 11597 0308 0130A013 		movne	r3, #1
 11598              	.L352:
 11599 030c 100012E3 		tst	r2, #16
 11600 0310 1300000A 		beq	.L354
 11601 0314 5C039FE5 		ldr	r0, .L376+40
 11602 0318 0000D0E5 		ldrb	r0, [r0, #0]	@ zero_extendqisi2
 11603 031c 03C040E2 		sub	ip, r0, #3
 11604 0320 01005CE3 		cmp	ip, #1
 11605 0324 0010A093 		movls	r1, #0
 11606 0328 0C00009A 		bls	.L355
 11607 032c F810D1E1 		ldrsh	r1, [r1, #8]
 11608 0330 4B0D51E3 		cmp	r1, #4800
 11609 0334 0210A0C3 		movgt	r1, #2
 11610 0338 020000CA 		bgt	.L356
 11611 033c 4B0D71E3 		cmn	r1, #4800
 11612 0340 0010A0D3 		movle	r1, #0
 11613 0344 0110A0C3 		movgt	r1, #1
 11614              	.L356:
 11615 0348 010050E1 		cmp	r0, r1
 11616 034c 24039F15 		ldrne	r0, .L376+40
 11617 0350 0010A003 		moveq	r1, #0
 11618 0354 0010C015 		strneb	r1, [r0, #0]
 11619 0358 0110A013 		movne	r1, #1
 11620 035c FF1001E2 		and	r1, r1, #255
 11621              	.L355:
 11622 0360 033081E1 		orr	r3, r1, r3
 11623              	.L354:
 11624 0364 18039FE5 		ldr	r0, .L376+52
 11625 0368 0010D0E5 		ldrb	r1, [r0, #0]	@ zero_extendqisi2
 11626 036c 020051E1 		cmp	r1, r2
 11627 0370 0010A003 		moveq	r1, #0
 11628 0374 0300000A 		beq	.L358
 11629 0378 011022E0 		eor	r1, r2, r1
 11630 037c 0F1011E2 		ands	r1, r1, #15
 11631 0380 0020C0E5 		strb	r2, [r0, #0]
 11632 0384 0110A013 		movne	r1, #1
 11633              	.L358:
 11634 0388 031091E1 		orrs	r1, r1, r3
 11635 038c 6E00000A 		beq	.L359
 11636 0390 C8029FE5 		ldr	r0, .L376+16
 11637 0394 0C10A0E3 		mov	r1, #12
 11638 0398 FEFFFFEB 		bl	uart_check_free_space
 11639 039c 000050E3 		cmp	r0, #0
 11640 03a0 6500000A 		beq	.L360
 11641 03a4 DC329FE5 		ldr	r3, .L376+56
 11642 03a8 B020D3E1 		ldrh	r2, [r3, #0]
 11643 03ac 0C2082E2 		add	r2, r2, #12
 11644 03b0 B020C3E1 		strh	r2, [r3, #0]	@ movhi
 11645 03b4 D0329FE5 		ldr	r3, .L376+60
 11646 03b8 B020D3E1 		ldrh	r2, [r3, #0]
 11647 03bc 012082E2 		add	r2, r2, #1
 11648 03c0 B020C3E1 		strh	r2, [r3, #0]	@ movhi
 11649 03c4 94029FE5 		ldr	r0, .L376+16
 11650 03c8 9910A0E3 		mov	r1, #153
 11651 03cc BC529FE5 		ldr	r5, .L376+64
 11652 03d0 FEFFFFEB 		bl	uart_transmit
 11653 03d4 84029FE5 		ldr	r0, .L376+16
 11654 03d8 0C10A0E3 		mov	r1, #12
 11655 03dc B0429FE5 		ldr	r4, .L376+68
 11656 03e0 FEFFFFEB 		bl	uart_transmit
 11657 03e4 0E30A0E3 		mov	r3, #14
 11658 03e8 0030C5E5 		strb	r3, [r5, #0]
 11659 03ec 1A30A0E3 		mov	r3, #26
 11660 03f0 0030C4E5 		strb	r3, [r4, #0]
 11661 03f4 64029FE5 		ldr	r0, .L376+16
 11662 03f8 0210A0E3 		mov	r1, #2
 11663 03fc FEFFFFEB 		bl	uart_transmit
 11664 0400 0030D5E5 		ldrb	r3, [r5, #0]	@ zero_extendqisi2
 11665 0404 0020D4E5 		ldrb	r2, [r4, #0]	@ zero_extendqisi2
 11666 0408 0B3083E2 		add	r3, r3, #11
 11667 040c FF3003E2 		and	r3, r3, #255
 11668 0410 0030C5E5 		strb	r3, [r5, #0]
 11669 0414 023083E0 		add	r3, r3, r2
 11670 0418 0030C4E5 		strb	r3, [r4, #0]
 11671 041c 3C029FE5 		ldr	r0, .L376+16
 11672 0420 0B10A0E3 		mov	r1, #11
 11673 0424 FEFFFFEB 		bl	uart_transmit
 11674 0428 48329FE5 		ldr	r3, .L376+40
 11675 042c 0010D3E5 		ldrb	r1, [r3, #0]	@ zero_extendqisi2
 11676 0430 0030D5E5 		ldrb	r3, [r5, #0]	@ zero_extendqisi2
 11677 0434 0020D4E5 		ldrb	r2, [r4, #0]	@ zero_extendqisi2
 11678 0438 033081E0 		add	r3, r1, r3
 11679 043c FF3003E2 		and	r3, r3, #255
 11680 0440 0030C5E5 		strb	r3, [r5, #0]
 11681 0444 023083E0 		add	r3, r3, r2
 11682 0448 0030C4E5 		strb	r3, [r4, #0]
 11683 044c 0C029FE5 		ldr	r0, .L376+16
 11684 0450 FEFFFFEB 		bl	uart_transmit
 11685 0454 3C329FE5 		ldr	r3, .L376+72
 11686 0458 0010D3E5 		ldrb	r1, [r3, #0]	@ zero_extendqisi2
 11687 045c 0030D5E5 		ldrb	r3, [r5, #0]	@ zero_extendqisi2
 11688 0460 0020D4E5 		ldrb	r2, [r4, #0]	@ zero_extendqisi2
 11689 0464 033081E0 		add	r3, r1, r3
 11690 0468 FF3003E2 		and	r3, r3, #255
 11691 046c 0030C5E5 		strb	r3, [r5, #0]
 11692 0470 023083E0 		add	r3, r3, r2
 11693 0474 0030C4E5 		strb	r3, [r4, #0]
 11694 0478 E0019FE5 		ldr	r0, .L376+16
 11695 047c FEFFFFEB 		bl	uart_transmit
 11696 0480 14329FE5 		ldr	r3, .L376+76
 11697 0484 0010D3E5 		ldrb	r1, [r3, #0]	@ zero_extendqisi2
 11698 0488 0030D5E5 		ldrb	r3, [r5, #0]	@ zero_extendqisi2
 11699 048c 0020D4E5 		ldrb	r2, [r4, #0]	@ zero_extendqisi2
 11700 0490 033081E0 		add	r3, r1, r3
 11701 0494 FF3003E2 		and	r3, r3, #255
 11702 0498 0030C5E5 		strb	r3, [r5, #0]
 11703 049c 023083E0 		add	r3, r3, r2
 11704 04a0 0030C4E5 		strb	r3, [r4, #0]
 11705 04a4 B4019FE5 		ldr	r0, .L376+16
 11706 04a8 FEFFFFEB 		bl	uart_transmit
 11707 04ac EC319FE5 		ldr	r3, .L376+80
 11708 04b0 0010D3E5 		ldrb	r1, [r3, #0]	@ zero_extendqisi2
 11709 04b4 0030D5E5 		ldrb	r3, [r5, #0]	@ zero_extendqisi2
 11710 04b8 0020D4E5 		ldrb	r2, [r4, #0]	@ zero_extendqisi2
 11711 04bc 033081E0 		add	r3, r1, r3
 11712 04c0 FF3003E2 		and	r3, r3, #255
 11713 04c4 0030C5E5 		strb	r3, [r5, #0]
 11714 04c8 023083E0 		add	r3, r3, r2
 11715 04cc 0030C4E5 		strb	r3, [r4, #0]
 11716 04d0 88019FE5 		ldr	r0, .L376+16
 11717 04d4 FEFFFFEB 		bl	uart_transmit
 11718 04d8 0020D4E5 		ldrb	r2, [r4, #0]	@ zero_extendqisi2
 11719 04dc 0030D5E5 		ldrb	r3, [r5, #0]	@ zero_extendqisi2
 11720 04e0 033082E0 		add	r3, r2, r3
 11721 04e4 0030C4E5 		strb	r3, [r4, #0]
 11722 04e8 70019FE5 		ldr	r0, .L376+16
 11723 04ec 0010A0E3 		mov	r1, #0
 11724 04f0 FEFFFFEB 		bl	uart_transmit
 11725 04f4 88319FE5 		ldr	r3, .L376+52
 11726 04f8 0010D3E5 		ldrb	r1, [r3, #0]	@ zero_extendqisi2
 11727 04fc 0030D5E5 		ldrb	r3, [r5, #0]	@ zero_extendqisi2
 11728 0500 0020D4E5 		ldrb	r2, [r4, #0]	@ zero_extendqisi2
 11729 0504 033081E0 		add	r3, r1, r3
 11730 0508 FF3003E2 		and	r3, r3, #255
 11731 050c 0030C5E5 		strb	r3, [r5, #0]
 11732 0510 023083E0 		add	r3, r3, r2
 11733 0514 0030C4E5 		strb	r3, [r4, #0]
 11734 0518 40019FE5 		ldr	r0, .L376+16
 11735 051c FEFFFFEB 		bl	uart_transmit
 11736 0520 0010D5E5 		ldrb	r1, [r5, #0]	@ zero_extendqisi2
 11737 0524 34019FE5 		ldr	r0, .L376+16
 11738 0528 FEFFFFEB 		bl	uart_transmit
 11739 052c 2C019FE5 		ldr	r0, .L376+16
 11740 0530 0010D4E5 		ldrb	r1, [r4, #0]	@ zero_extendqisi2
 11741 0534 FEFFFFEB 		bl	uart_transmit
 11742 0538 030000EA 		b	.L359
 11743              	.L360:
 11744 053c 60319FE5 		ldr	r3, .L376+84
 11745 0540 0020D3E5 		ldrb	r2, [r3, #0]	@ zero_extendqisi2
 11746 0544 012082E2 		add	r2, r2, #1
 11747 0548 0020C3E5 		strb	r2, [r3, #0]
 11748              	.L359:
 11749 054c 24319FE5 		ldr	r3, .L376+40
 11750 0550 0040D3E5 		ldrb	r4, [r3, #0]	@ zero_extendqisi2
 11751 0554 010054E3 		cmp	r4, #1
 11752 0558 1E00001A 		bne	.L361
 11753 055c 10319FE5 		ldr	r3, .L376+36
 11754 0560 005093E5 		ldr	r5, [r3, #0]
 11755 0564 F000D5E1 		ldrsh	r0, [r5, #0]
 11756 0568 FEFFFFEB 		bl	__aeabi_i2f
 11757 056c 34119FE5 		ldr	r1, .L376+88
 11758 0570 FEFFFFEB 		bl	__aeabi_fdiv
 11759 0574 FEFFFFEB 		bl	__aeabi_f2d
 11760 0578 2C219FE5 		ldr	r2, .L376+92
 11761 057c 2C319FE5 		ldr	r3, .L376+96
 11762 0580 FEFFFFEB 		bl	__aeabi_dmul
 11763 0584 0020A0E3 		mov	r2, #0
 11764 0588 0030A0E3 		mov	r3, #0
 11765 058c FEFFFFEB 		bl	__aeabi_dadd
 11766 0590 FEFFFFEB 		bl	__aeabi_d2f
 11767 0594 18319FE5 		ldr	r3, .L376+100
 11768 0598 000083E5 		str	r0, [r3, #0]	@ float
 11769 059c F200D5E1 		ldrsh	r0, [r5, #2]
 11770 05a0 FEFFFFEB 		bl	__aeabi_i2f
 11771 05a4 FC109FE5 		ldr	r1, .L376+88
 11772 05a8 FEFFFFEB 		bl	__aeabi_fdiv
 11773 05ac FEFFFFEB 		bl	__aeabi_f2d
 11774 05b0 F4209FE5 		ldr	r2, .L376+92
 11775 05b4 F4309FE5 		ldr	r3, .L376+96
 11776 05b8 FEFFFFEB 		bl	__aeabi_dmul
 11777 05bc 0030A0E3 		mov	r3, #0
 11778 05c0 0020A0E3 		mov	r2, #0
 11779 05c4 FEFFFFEB 		bl	__aeabi_dadd
 11780 05c8 FEFFFFEB 		bl	__aeabi_d2f
 11781 05cc E4309FE5 		ldr	r3, .L376+104
 11782 05d0 000083E5 		str	r0, [r3, #0]	@ float
 11783 05d4 000000EA 		b	.L362
 11784              	.L361:
 11785 05d8 0400008A 		bhi	.L363
 11786              	.L362:
 11787 05dc 90309FE5 		ldr	r3, .L376+36
 11788 05e0 003093E5 		ldr	r3, [r3, #0]
 11789 05e4 B620D3E1 		ldrh	r2, [r3, #6]
 11790 05e8 CC309FE5 		ldr	r3, .L376+108
 11791 05ec B020C3E1 		strh	r2, [r3, #0]	@ movhi
 11792              	.L363:
 11793 05f0 7C309FE5 		ldr	r3, .L376+36
 11794 05f4 003093E5 		ldr	r3, [r3, #0]
 11795 05f8 C0209FE5 		ldr	r2, .L376+112
 11796 05fc 0A10D3E5 		ldrb	r1, [r3, #10]	@ zero_extendqisi2
 11797 0600 0010C2E5 		strb	r1, [r2, #0]
 11798 0604 BE10D3E1 		ldrh	r1, [r3, #14]
 11799 0608 B4209FE5 		ldr	r2, .L376+116
 11800 060c B010C2E1 		strh	r1, [r2, #0]	@ movhi
 11801 0610 B0209FE5 		ldr	r2, .L376+120
 11802 0614 101093E5 		ldr	r1, [r3, #16]
 11803 0618 001082E5 		str	r1, [r2, #0]
 11804 061c A8209FE5 		ldr	r2, .L376+124
 11805 0620 B020D2E1 		ldrh	r2, [r2, #0]
 11806 0624 000052E3 		cmp	r2, #0
 11807 0628 0600001A 		bne	.L325
 11808 062c 020054E3 		cmp	r4, #2
 11809 0630 0400001A 		bne	.L325
 11810 0634 F630D3E1 		ldrsh	r3, [r3, #6]
 11811 0638 870D53E3 		cmp	r3, #8640
 11812 063c 38309FC5 		ldrgt	r3, .L376+44
 11813 0640 0120A0C3 		movgt	r2, #1
 11814 0644 0020C3C5 		strgtb	r2, [r3, #0]
 11815              	.L325:
 11816 0648 F84FBDE8 		ldmfd	sp!, {r3, r4, r5, r6, r7, r8, r9, sl, fp, lr}
 11817 064c 1EFF2FE1 		bx	lr
 11818              	.L377:
 11819              		.align	2
 11820              	.L376:
 11821 0650 00000000 		.word	uart0
 11822 0654 00000000 		.word	gps_ubx
 11823 0658 00000000 		.word	gps
 11824 065c 00000000 		.word	sys_time
 11825 0660 00000000 		.word	uart1
 11826 0664 00000000 		.word	pprz_tp
 11827 0668 00000000 		.word	dl_buffer
 11828 066c 00000000 		.word	dl_msg_available
 11829 0670 00000000 		.word	inter_mcu_received_fbw
 11830 0674 00000000 		.word	fbw_state
 11831 0678 00000000 		.word	.LANCHOR20
 11832 067c 00000000 		.word	.LANCHOR21
 11833 0680 00000000 		.word	too_far_from_home
 11834 0684 00000000 		.word	.LANCHOR23
 11835 0688 00000000 		.word	downlink_nb_bytes
 11836 068c 00000000 		.word	downlink_nb_msgs
 11837 0690 00000000 		.word	ck_a
 11838 0694 00000000 		.word	ck_b
 11839 0698 00000000 		.word	v_ctl_mode
 11840 069c 00000000 		.word	.LANCHOR22
 11841 06a0 00000000 		.word	horizontal_mode
 11842 06a4 00000000 		.word	downlink_nb_ovrn
 11843 06a8 00001646 		.word	1175846912
 11844 06ac 1F85EB51 		.word	1374389535
 11845 06b0 B81EE93F 		.word	1072242360
 11846 06b4 00000000 		.word	h_ctl_roll_setpoint
 11847 06b8 00000000 		.word	h_ctl_pitch_setpoint
 11848 06bc 00000000 		.word	v_ctl_throttle_setpoint
 11849 06c0 00000000 		.word	.LANCHOR58
 11850 06c4 00000000 		.word	vsupply
 11851 06c8 00000000 		.word	.LANCHOR17
 11852 06cc 00000000 		.word	estimator_flight_time
 11854              		.comm	monitor_tid,1,1
 11855              		.comm	navigation_tid,1,1
 11856              		.comm	attitude_tid,1,1
 11857              		.comm	sensors_tid,1,1
 11858              		.comm	telemetry_tid,1,1
 11859              		.comm	modules_tid,1,1
 11860              		.global	gps_lost
 11861              		.comm	energy,4,4
 11862              		.comm	vsupply,2,2
 11863              		.global	launch
 11864              		.global	kill_throttle
 11865              		.global	lateral_mode
 11866              		.global	pprz_mode
 11867              		.comm	power_switch,1,1
 11868              		.comm	combi_switch_value,4,4
 11869              		.comm	combi_switch_status,1,1
 11870              		.section	.bss.mcu1_ppm_cpt,"aw",%nobits
 11871              		.set	.LANCHOR58,. + 0
 11874              	mcu1_ppm_cpt:
 11875 0000 00       		.space	1
 11876              		.section	.bss.i66.3845,"aw",%nobits
 11877              		.set	.LANCHOR6,. + 0
 11880              	i66.3845:
 11881 0000 00       		.space	1
 11882              		.section	.bss.i324.4514,"aw",%nobits
 11883              		.align	1
 11884              		.set	.LANCHOR48,. + 0
 11887              	i324.4514:
 11888 0000 0000     		.space	2
 11889              		.section	.bss.i342.4516,"aw",%nobits
 11890              		.align	1
 11891              		.set	.LANCHOR50,. + 0
 11894              	i342.4516:
 11895 0000 0000     		.space	2
 11896              		.section	.bss.t.4707,"aw",%nobits
 11897              		.set	.LANCHOR56,. + 0
 11900              	t.4707:
 11901 0000 00       		.space	1
 11902              		.section	.bss.i63.3844,"aw",%nobits
 11903              		.set	.LANCHOR5,. + 0
 11906              	i63.3844:
 11907 0000 00       		.space	1
 11908              		.section	.bss.last.4605,"aw",%nobits
 11909              		.align	1
 11910              		.set	.LANCHOR55,. + 0
 11913              	last.4605:
 11914 0000 0000     		.space	2
 11915              		.section	.bss.i318.4513,"aw",%nobits
 11916              		.align	1
 11917              		.set	.LANCHOR47,. + 0
 11920              	i318.4513:
 11921 0000 0000     		.space	2
 11922              		.section	.bss.i.4269,"aw",%nobits
 11923              		.set	.LANCHOR42,. + 0
 11926              	i.4269:
 11927 0000 00       		.space	1
 11928              		.section	.bss.i60.3843,"aw",%nobits
 11929              		.set	.LANCHOR4,. + 0
 11932              	i60.3843:
 11933 0000 00       		.space	1
 11934              		.section	.bss.i606.4518,"aw",%nobits
 11935              		.align	1
 11936              		.set	.LANCHOR52,. + 0
 11939              	i606.4518:
 11940 0000 0000     		.space	2
 11941              		.section	.bss.i.4287,"aw",%nobits
 11942              		.set	.LANCHOR43,. + 0
 11945              	i.4287:
 11946 0000 00       		.space	1
 11947              		.section	.bss.i306.4512,"aw",%nobits
 11948              		.align	1
 11949              		.set	.LANCHOR46,. + 0
 11952              	i306.4512:
 11953 0000 0000     		.space	2
 11954              		.section	.bss.i312.4197,"aw",%nobits
 11955              		.align	1
 11956              		.set	.LANCHOR38,. + 0
 11959              	i312.4197:
 11960 0000 0000     		.space	2
 11961              		.section	.bss.launch,"aw",%nobits
 11962              		.set	.LANCHOR21,. + 0
 11965              	launch:
 11966 0000 00       		.space	1
 11967              		.section	.bss.i150.3850,"aw",%nobits
 11968              		.set	.LANCHOR11,. + 0
 11971              	i150.3850:
 11972 0000 00       		.space	1
 11973              		.section	.bss.lateral_mode,"aw",%nobits
 11974              		.set	.LANCHOR22,. + 0
 11977              	lateral_mode:
 11978 0000 00       		.space	1
 11979              		.section	.data.pprz_mode,"aw",%progbits
 11980              		.set	.LANCHOR20,. + 0
 11983              	pprz_mode:
 11984 0000 02       		.byte	2
 11985              		.section	.bss.i90.4188,"aw",%nobits
 11986              		.set	.LANCHOR29,. + 0
 11989              	i90.4188:
 11990 0000 00       		.space	1
 11991              		.section	.bss.mcu1_status,"aw",%nobits
 11992              		.set	.LANCHOR23,. + 0
 11995              	mcu1_status:
 11996 0000 00       		.space	1
 11997              		.section	.bss.current,"aw",%nobits
 11998              		.align	2
 11999              		.set	.LANCHOR17,. + 0
 12002              	current:
 12003 0000 00000000 		.space	4
 12004              		.section	.bss.i.4051,"aw",%nobits
 12005              		.set	.LANCHOR19,. + 0
 12008              	i.4051:
 12009 0000 00       		.space	1
 12010              		.section	.bss.i300.4195,"aw",%nobits
 12011              		.align	1
 12012              		.set	.LANCHOR36,. + 0
 12015              	i300.4195:
 12016 0000 0000     		.space	2
 12017              		.section	.bss.i306.4196,"aw",%nobits
 12018              		.align	1
 12019              		.set	.LANCHOR37,. + 0
 12022              	i306.4196:
 12023 0000 0000     		.space	2
 12024              		.section	.bss.i.3854,"aw",%nobits
 12025              		.set	.LANCHOR15,. + 0
 12028              	i.3854:
 12029 0000 00       		.space	1
 12030              		.section	.bss.i126.4189,"aw",%nobits
 12031              		.set	.LANCHOR30,. + 0
 12034              	i126.4189:
 12035 0000 00       		.space	1
 12036              		.section	.bss.i90.3847,"aw",%nobits
 12037              		.set	.LANCHOR8,. + 0
 12040              	i90.3847:
 12041 0000 00       		.space	1
 12042              		.section	.bss.i180.4190,"aw",%nobits
 12043              		.set	.LANCHOR31,. + 0
 12046              	i180.4190:
 12047 0000 00       		.space	1
 12048              		.section	.bss.i300.3851,"aw",%nobits
 12049              		.align	1
 12050              		.set	.LANCHOR12,. + 0
 12053              	i300.3851:
 12054 0000 0000     		.space	2
 12055              		.section	.bss.i306.3852,"aw",%nobits
 12056              		.align	1
 12057              		.set	.LANCHOR13,. + 0
 12060              	i306.3852:
 12061 0000 0000     		.space	2
 12062              		.section	.bss.i540.4198,"aw",%nobits
 12063              		.align	1
 12064              		.set	.LANCHOR39,. + 0
 12067              	i540.4198:
 12068 0000 0000     		.space	2
 12069              		.section	.data.boot.3837,"aw",%progbits
 12070              		.set	.LANCHOR0,. + 0
 12073              	boot.3837:
 12074 0000 01       		.byte	1
 12075              		.section	.bss.i540.3853,"aw",%nobits
 12076              		.align	1
 12077              		.set	.LANCHOR14,. + 0
 12080              	i540.3853:
 12081 0000 0000     		.space	2
 12082              		.section	.bss.last.4166,"aw",%nobits
 12083              		.align	1
 12084              		.set	.LANCHOR24,. + 0
 12087              	last.4166:
 12088 0000 0000     		.space	2
 12089              		.section	.bss.i126.3849,"aw",%nobits
 12090              		.set	.LANCHOR10,. + 0
 12093              	i126.3849:
 12094 0000 00       		.space	1
 12095              		.section	.bss.i84.4187,"aw",%nobits
 12096              		.set	.LANCHOR28,. + 0
 12099              	i84.4187:
 12100 0000 00       		.space	1
 12101              		.section	.bss.i78.4186,"aw",%nobits
 12102              		.set	.LANCHOR27,. + 0
 12105              	i78.4186:
 12106 0000 00       		.space	1
 12107              		.section	.bss.last.4482,"aw",%nobits
 12108              		.align	1
 12109              		.set	.LANCHOR44,. + 0
 12112              	last.4482:
 12113 0000 0000     		.space	2
 12114              		.section	.bss.kill_throttle,"aw",%nobits
 12115              		.set	.LANCHOR18,. + 0
 12118              	kill_throttle:
 12119 0000 00       		.space	1
 12120              		.section	.bss.i1.3608,"aw",%nobits
 12121              		.set	.LANCHOR57,. + 0
 12124              	i1.3608:
 12125 0000 00       		.space	1
 12126              		.section	.bss.gps_lost,"aw",%nobits
 12129              	gps_lost:
 12130 0000 00       		.space	1
 12131              		.section	.bss.i120.3848,"aw",%nobits
 12132              		.set	.LANCHOR9,. + 0
 12135              	i120.3848:
 12136 0000 00       		.space	1
 12137              		.section	.rodata.version,"a",%progbits
 12138              		.align	1
 12139              		.set	.LANCHOR1,. + 0
 12142              	version:
 12143 0000 0100     		.short	1
 12144              		.section	.bss.i.3916,"aw",%nobits
 12145              		.set	.LANCHOR16,. + 0
 12148              	i.3916:
 12149 0000 00       		.space	1
 12150              		.section	.bss.i300.4511,"aw",%nobits
 12151              		.align	1
 12152              		.set	.LANCHOR45,. + 0
 12155              	i300.4511:
 12156 0000 0000     		.space	2
 12157              		.section	.bss.i183.4191,"aw",%nobits
 12158              		.set	.LANCHOR32,. + 0
 12161              	i183.4191:
 12162 0000 00       		.space	1
 12163              		.section	.bss.i192.4192,"aw",%nobits
 12164              		.set	.LANCHOR33,. + 0
 12167              	i192.4192:
 12168 0000 00       		.space	1
 12169              		.section	.bss.i612.4519,"aw",%nobits
 12170              		.align	1
 12171              		.set	.LANCHOR53,. + 0
 12174              	i612.4519:
 12175 0000 0000     		.space	2
 12176              		.section	.bss.i606.4199,"aw",%nobits
 12177              		.align	1
 12178              		.set	.LANCHOR40,. + 0
 12181              	i606.4199:
 12182 0000 0000     		.space	2
 12183              		.section	.bss.i.4526,"aw",%nobits
 12184              		.set	.LANCHOR54,. + 0
 12187              	i.4526:
 12188 0000 00       		.space	1
 12189              		.section	.bss.i72.3846,"aw",%nobits
 12190              		.set	.LANCHOR7,. + 0
 12193              	i72.3846:
 12194 0000 00       		.space	1
 12195              		.section	.bss.i30.3842,"aw",%nobits
 12196              		.set	.LANCHOR3,. + 0
 12199              	i30.3842:
 12200 0000 00       		.space	1
 12201              		.section	.bss.i243.4194,"aw",%nobits
 12202              		.set	.LANCHOR35,. + 0
 12205              	i243.4194:
 12206 0000 00       		.space	1
 12207              		.section	.bss.i.4200,"aw",%nobits
 12208              		.set	.LANCHOR41,. + 0
 12211              	i.4200:
 12212 0000 00       		.space	1
 12213              		.section	.bss.i6.3841,"aw",%nobits
 12214              		.set	.LANCHOR2,. + 0
 12217              	i6.3841:
 12218 0000 00       		.space	1
 12219              		.section	.bss.i330.4515,"aw",%nobits
 12220              		.align	1
 12221              		.set	.LANCHOR49,. + 0
 12224              	i330.4515:
 12225 0000 0000     		.space	2
 12226              		.section	.bss.i420.4517,"aw",%nobits
 12227              		.align	1
 12228              		.set	.LANCHOR51,. + 0
 12231              	i420.4517:
 12232 0000 0000     		.space	2
 12233              		.section	.bss.i66.4185,"aw",%nobits
 12234              		.set	.LANCHOR26,. + 0
 12237              	i66.4185:
 12238 0000 00       		.space	1
 12239              		.section	.bss.i240.4193,"aw",%nobits
 12240              		.set	.LANCHOR34,. + 0
 12243              	i240.4193:
 12244 0000 00       		.space	1
 12245              		.section	.rodata.str1.1,"aMS",%progbits,1
 12246              	.LC0:
 12247 0000 42195AD6 		.ascii	"B\031Z\326\032\207\365<\304T\323\267\373Y2:\000"
 12247      1A87F53C 
 12247      C454D3B7 
 12247      FB59323A 
 12247      00
 12248              		.section	.bss.i63.4184,"aw",%nobits
 12249              		.set	.LANCHOR25,. + 0
 12252              	i63.4184:
 12253 0000 00       		.space	1
 12254              		.ident	"GCC: (Linaro GCC 4.6-2011.09-1) 4.6.2 20110908 (prerelease)"
DEFINED SYMBOLS
                            *ABS*:00000000 main_ap.c
     /tmp/ccyOkxxQ.s:13     .text.init_ap:00000000 $a
     /tmp/ccyOkxxQ.s:16     .text.init_ap:00000000 init_ap
     /tmp/ccyOkxxQ.s:76     .text.init_ap:000000d4 $d
                            *COM*:00000001 combi_switch_status
                            *COM*:00000004 combi_switch_value
                            *COM*:00000001 sensors_tid
                            *COM*:00000001 navigation_tid
                            *COM*:00000001 attitude_tid
                            *COM*:00000001 modules_tid
                            *COM*:00000001 telemetry_tid
                            *COM*:00000001 monitor_tid
                            *COM*:00000001 power_switch
     /tmp/ccyOkxxQ.s:102    .text.reporting_task:00000000 $a
     /tmp/ccyOkxxQ.s:105    .text.reporting_task:00000000 reporting_task
     /tmp/ccyOkxxQ.s:1115   .text.reporting_task:00000f80 $d
     /tmp/ccyOkxxQ.s:1182   .text.reporting_task:00001088 $a
     /tmp/ccyOkxxQ.s:2841   .text.reporting_task:00002a34 $d
     /tmp/ccyOkxxQ.s:2873   .text.reporting_task:00002ab0 $a
     /tmp/ccyOkxxQ.s:3249   .text.reporting_task:00002fe8 $d
                            *COM*:00000004 energy
                            *COM*:00000002 vsupply
     /tmp/ccyOkxxQ.s:3337   .text.reporting_task:00003144 $a
     /tmp/ccyOkxxQ.s:5303   .text.reporting_task:00004f90 $d
     /tmp/ccyOkxxQ.s:5393   .text.reporting_task:000050f4 $a
     /tmp/ccyOkxxQ.s:5781   .text.reporting_task:000056ec $d
     /tmp/ccyOkxxQ.s:5813   .text.reporting_task:00005768 $a
     /tmp/ccyOkxxQ.s:7484   .text.reporting_task:000070b4 $d
     /tmp/ccyOkxxQ.s:7552   .text.reporting_task:000071c0 $a
     /tmp/ccyOkxxQ.s:9577   .text.reporting_task:000090e8 $d
     /tmp/ccyOkxxQ.s:9637   .text.reporting_task:000091d4 $a
     /tmp/ccyOkxxQ.s:10609  .text.navigation_task:00000000 $a
     /tmp/ccyOkxxQ.s:10612  .text.navigation_task:00000000 navigation_task
     /tmp/ccyOkxxQ.s:10931  .text.navigation_task:000004c4 $d
     /tmp/ccyOkxxQ.s:10957  .text.attitude_loop:00000000 $a
     /tmp/ccyOkxxQ.s:10960  .text.attitude_loop:00000000 attitude_loop
     /tmp/ccyOkxxQ.s:11071  .text.attitude_loop:00000180 $d
     /tmp/ccyOkxxQ.s:11095  .text.sensors_task:00000000 $a
     /tmp/ccyOkxxQ.s:11098  .text.sensors_task:00000000 sensors_task
     /tmp/ccyOkxxQ.s:11107  .text.monitor_task:00000000 $a
     /tmp/ccyOkxxQ.s:11110  .text.monitor_task:00000000 monitor_task
     /tmp/ccyOkxxQ.s:11249  .text.monitor_task:00000204 $d
     /tmp/ccyOkxxQ.s:11269  .text.handle_periodic_tasks_ap:00000000 $a
     /tmp/ccyOkxxQ.s:11272  .text.handle_periodic_tasks_ap:00000000 handle_periodic_tasks_ap
     /tmp/ccyOkxxQ.s:11361  .text.handle_periodic_tasks_ap:00000134 $d
     /tmp/ccyOkxxQ.s:11373  .text.event_task_ap:00000000 $a
     /tmp/ccyOkxxQ.s:11376  .text.event_task_ap:00000000 event_task_ap
     /tmp/ccyOkxxQ.s:11457  .text.event_task_ap:00000114 $d
     /tmp/ccyOkxxQ.s:11463  .text.event_task_ap:00000128 $a
     /tmp/ccyOkxxQ.s:11821  .text.event_task_ap:00000650 $d
     /tmp/ccyOkxxQ.s:12129  .bss.gps_lost:00000000 gps_lost
     /tmp/ccyOkxxQ.s:11965  .bss.launch:00000000 launch
     /tmp/ccyOkxxQ.s:12118  .bss.kill_throttle:00000000 kill_throttle
     /tmp/ccyOkxxQ.s:11977  .bss.lateral_mode:00000000 lateral_mode
     /tmp/ccyOkxxQ.s:11983  .data.pprz_mode:00000000 pprz_mode
     /tmp/ccyOkxxQ.s:11874  .bss.mcu1_ppm_cpt:00000000 mcu1_ppm_cpt
     /tmp/ccyOkxxQ.s:11875  .bss.mcu1_ppm_cpt:00000000 $d
     /tmp/ccyOkxxQ.s:11880  .bss.i66.3845:00000000 i66.3845
     /tmp/ccyOkxxQ.s:11881  .bss.i66.3845:00000000 $d
     /tmp/ccyOkxxQ.s:11883  .bss.i324.4514:00000000 $d
     /tmp/ccyOkxxQ.s:11887  .bss.i324.4514:00000000 i324.4514
     /tmp/ccyOkxxQ.s:11890  .bss.i342.4516:00000000 $d
     /tmp/ccyOkxxQ.s:11894  .bss.i342.4516:00000000 i342.4516
     /tmp/ccyOkxxQ.s:11900  .bss.t.4707:00000000 t.4707
     /tmp/ccyOkxxQ.s:11901  .bss.t.4707:00000000 $d
     /tmp/ccyOkxxQ.s:11906  .bss.i63.3844:00000000 i63.3844
     /tmp/ccyOkxxQ.s:11907  .bss.i63.3844:00000000 $d
     /tmp/ccyOkxxQ.s:11909  .bss.last.4605:00000000 $d
     /tmp/ccyOkxxQ.s:11913  .bss.last.4605:00000000 last.4605
     /tmp/ccyOkxxQ.s:11916  .bss.i318.4513:00000000 $d
     /tmp/ccyOkxxQ.s:11920  .bss.i318.4513:00000000 i318.4513
     /tmp/ccyOkxxQ.s:11926  .bss.i.4269:00000000 i.4269
     /tmp/ccyOkxxQ.s:11927  .bss.i.4269:00000000 $d
     /tmp/ccyOkxxQ.s:11932  .bss.i60.3843:00000000 i60.3843
     /tmp/ccyOkxxQ.s:11933  .bss.i60.3843:00000000 $d
     /tmp/ccyOkxxQ.s:11935  .bss.i606.4518:00000000 $d
     /tmp/ccyOkxxQ.s:11939  .bss.i606.4518:00000000 i606.4518
     /tmp/ccyOkxxQ.s:11945  .bss.i.4287:00000000 i.4287
     /tmp/ccyOkxxQ.s:11946  .bss.i.4287:00000000 $d
     /tmp/ccyOkxxQ.s:11948  .bss.i306.4512:00000000 $d
     /tmp/ccyOkxxQ.s:11952  .bss.i306.4512:00000000 i306.4512
     /tmp/ccyOkxxQ.s:11955  .bss.i312.4197:00000000 $d
     /tmp/ccyOkxxQ.s:11959  .bss.i312.4197:00000000 i312.4197
     /tmp/ccyOkxxQ.s:11966  .bss.launch:00000000 $d
     /tmp/ccyOkxxQ.s:11971  .bss.i150.3850:00000000 i150.3850
     /tmp/ccyOkxxQ.s:11972  .bss.i150.3850:00000000 $d
     /tmp/ccyOkxxQ.s:11978  .bss.lateral_mode:00000000 $d
     /tmp/ccyOkxxQ.s:11989  .bss.i90.4188:00000000 i90.4188
     /tmp/ccyOkxxQ.s:11990  .bss.i90.4188:00000000 $d
     /tmp/ccyOkxxQ.s:11995  .bss.mcu1_status:00000000 mcu1_status
     /tmp/ccyOkxxQ.s:11996  .bss.mcu1_status:00000000 $d
     /tmp/ccyOkxxQ.s:11998  .bss.current:00000000 $d
     /tmp/ccyOkxxQ.s:12002  .bss.current:00000000 current
     /tmp/ccyOkxxQ.s:12008  .bss.i.4051:00000000 i.4051
     /tmp/ccyOkxxQ.s:12009  .bss.i.4051:00000000 $d
     /tmp/ccyOkxxQ.s:12011  .bss.i300.4195:00000000 $d
     /tmp/ccyOkxxQ.s:12015  .bss.i300.4195:00000000 i300.4195
     /tmp/ccyOkxxQ.s:12018  .bss.i306.4196:00000000 $d
     /tmp/ccyOkxxQ.s:12022  .bss.i306.4196:00000000 i306.4196
     /tmp/ccyOkxxQ.s:12028  .bss.i.3854:00000000 i.3854
     /tmp/ccyOkxxQ.s:12029  .bss.i.3854:00000000 $d
     /tmp/ccyOkxxQ.s:12034  .bss.i126.4189:00000000 i126.4189
     /tmp/ccyOkxxQ.s:12035  .bss.i126.4189:00000000 $d
     /tmp/ccyOkxxQ.s:12040  .bss.i90.3847:00000000 i90.3847
     /tmp/ccyOkxxQ.s:12041  .bss.i90.3847:00000000 $d
     /tmp/ccyOkxxQ.s:12046  .bss.i180.4190:00000000 i180.4190
     /tmp/ccyOkxxQ.s:12047  .bss.i180.4190:00000000 $d
     /tmp/ccyOkxxQ.s:12049  .bss.i300.3851:00000000 $d
     /tmp/ccyOkxxQ.s:12053  .bss.i300.3851:00000000 i300.3851
     /tmp/ccyOkxxQ.s:12056  .bss.i306.3852:00000000 $d
     /tmp/ccyOkxxQ.s:12060  .bss.i306.3852:00000000 i306.3852
     /tmp/ccyOkxxQ.s:12063  .bss.i540.4198:00000000 $d
     /tmp/ccyOkxxQ.s:12067  .bss.i540.4198:00000000 i540.4198
     /tmp/ccyOkxxQ.s:12073  .data.boot.3837:00000000 boot.3837
     /tmp/ccyOkxxQ.s:12076  .bss.i540.3853:00000000 $d
     /tmp/ccyOkxxQ.s:12080  .bss.i540.3853:00000000 i540.3853
     /tmp/ccyOkxxQ.s:12083  .bss.last.4166:00000000 $d
     /tmp/ccyOkxxQ.s:12087  .bss.last.4166:00000000 last.4166
     /tmp/ccyOkxxQ.s:12093  .bss.i126.3849:00000000 i126.3849
     /tmp/ccyOkxxQ.s:12094  .bss.i126.3849:00000000 $d
     /tmp/ccyOkxxQ.s:12099  .bss.i84.4187:00000000 i84.4187
     /tmp/ccyOkxxQ.s:12100  .bss.i84.4187:00000000 $d
     /tmp/ccyOkxxQ.s:12105  .bss.i78.4186:00000000 i78.4186
     /tmp/ccyOkxxQ.s:12106  .bss.i78.4186:00000000 $d
     /tmp/ccyOkxxQ.s:12108  .bss.last.4482:00000000 $d
     /tmp/ccyOkxxQ.s:12112  .bss.last.4482:00000000 last.4482
     /tmp/ccyOkxxQ.s:12119  .bss.kill_throttle:00000000 $d
     /tmp/ccyOkxxQ.s:12124  .bss.i1.3608:00000000 i1.3608
     /tmp/ccyOkxxQ.s:12125  .bss.i1.3608:00000000 $d
     /tmp/ccyOkxxQ.s:12130  .bss.gps_lost:00000000 $d
     /tmp/ccyOkxxQ.s:12135  .bss.i120.3848:00000000 i120.3848
     /tmp/ccyOkxxQ.s:12136  .bss.i120.3848:00000000 $d
     /tmp/ccyOkxxQ.s:12138  .rodata.version:00000000 $d
     /tmp/ccyOkxxQ.s:12142  .rodata.version:00000000 version
     /tmp/ccyOkxxQ.s:12148  .bss.i.3916:00000000 i.3916
     /tmp/ccyOkxxQ.s:12149  .bss.i.3916:00000000 $d
     /tmp/ccyOkxxQ.s:12151  .bss.i300.4511:00000000 $d
     /tmp/ccyOkxxQ.s:12155  .bss.i300.4511:00000000 i300.4511
     /tmp/ccyOkxxQ.s:12161  .bss.i183.4191:00000000 i183.4191
     /tmp/ccyOkxxQ.s:12162  .bss.i183.4191:00000000 $d
     /tmp/ccyOkxxQ.s:12167  .bss.i192.4192:00000000 i192.4192
     /tmp/ccyOkxxQ.s:12168  .bss.i192.4192:00000000 $d
     /tmp/ccyOkxxQ.s:12170  .bss.i612.4519:00000000 $d
     /tmp/ccyOkxxQ.s:12174  .bss.i612.4519:00000000 i612.4519
     /tmp/ccyOkxxQ.s:12177  .bss.i606.4199:00000000 $d
     /tmp/ccyOkxxQ.s:12181  .bss.i606.4199:00000000 i606.4199
     /tmp/ccyOkxxQ.s:12187  .bss.i.4526:00000000 i.4526
     /tmp/ccyOkxxQ.s:12188  .bss.i.4526:00000000 $d
     /tmp/ccyOkxxQ.s:12193  .bss.i72.3846:00000000 i72.3846
     /tmp/ccyOkxxQ.s:12194  .bss.i72.3846:00000000 $d
     /tmp/ccyOkxxQ.s:12199  .bss.i30.3842:00000000 i30.3842
     /tmp/ccyOkxxQ.s:12200  .bss.i30.3842:00000000 $d
     /tmp/ccyOkxxQ.s:12205  .bss.i243.4194:00000000 i243.4194
     /tmp/ccyOkxxQ.s:12206  .bss.i243.4194:00000000 $d
     /tmp/ccyOkxxQ.s:12211  .bss.i.4200:00000000 i.4200
     /tmp/ccyOkxxQ.s:12212  .bss.i.4200:00000000 $d
     /tmp/ccyOkxxQ.s:12217  .bss.i6.3841:00000000 i6.3841
     /tmp/ccyOkxxQ.s:12218  .bss.i6.3841:00000000 $d
     /tmp/ccyOkxxQ.s:12220  .bss.i330.4515:00000000 $d
     /tmp/ccyOkxxQ.s:12224  .bss.i330.4515:00000000 i330.4515
     /tmp/ccyOkxxQ.s:12227  .bss.i420.4517:00000000 $d
     /tmp/ccyOkxxQ.s:12231  .bss.i420.4517:00000000 i420.4517
     /tmp/ccyOkxxQ.s:12237  .bss.i66.4185:00000000 i66.4185
     /tmp/ccyOkxxQ.s:12238  .bss.i66.4185:00000000 $d
     /tmp/ccyOkxxQ.s:12243  .bss.i240.4193:00000000 i240.4193
     /tmp/ccyOkxxQ.s:12244  .bss.i240.4193:00000000 $d
     /tmp/ccyOkxxQ.s:12252  .bss.i63.4184:00000000 i63.4184
     /tmp/ccyOkxxQ.s:12253  .bss.i63.4184:00000000 $d

UNDEFINED SYMBOLS
gps_init
ahrs_init
h_ctl_init
v_ctl_init
estimator_init
alt_kalman_init
nav_init
infrared_adc_init
settings_init
sys_time_register_timer
enableIRQ
traffic_info_init
__aeabi_i2d
__aeabi_dmul
__aeabi_ddiv
__aeabi_d2iz
__aeabi_i2f
__aeabi_fadd
__aeabi_f2d
__aeabi_d2uiz
__aeabi_idiv
__aeabi_f2iz
__aeabi_ui2f
__aeabi_fdiv
__aeabi_fmul
uart_check_free_space
uart_transmit
uart1
telemetry_mode_Ap
gps
estimator_z
estimator_z_dot
estimator_phi
estimator_psi
estimator_theta
nb_waypoint
nav_utm_east0
waypoints
nav_utm_north0
downlink_nb_bytes
nav_utm_zone0
nav_circle_radians
downlink_nb_msgs
ck_a
nav_block
nav_stage
estimator_x
estimator_y
dist2_to_wp
dist2_to_home
nav_oval_count
downlink_nb_ovrn
nav_in_circle
ck_b
nav_circle_x
nav_circle_y
nav_circle_radius
h_ctl_roll_setpoint
h_ctl_pitch_loop_setpoint
h_ctl_course_setpoint
desired_x
desired_y
v_ctl_altitude_setpoint
v_ctl_climb_setpoint
v_ctl_throttle_slewed
electrical
estimator_flight_time
block_time
stage_time
nav_in_segment
nav_segment_x_1
nav_segment_y_1
nav_segment_x_2
nav_segment_y_2
telemetry_mode_Fbw
flight_altitude
nav_course
nav_shift
nav_radius
route_ap_time
h_ctl_pitch_pgain
h_ctl_pitch_dgain
h_ctl_elevator_of_roll
h_ctl_roll_attitude_gain
h_ctl_roll_rate_gain
h_ctl_aileron_of_throttle
h_ctl_roll_slew
h_ctl_course_pgain
h_ctl_course_dgain
h_ctl_course_pre_bank_correction
h_ctl_roll_max_setpoint
v_ctl_altitude_pgain
v_ctl_auto_throttle_cruise_throttle
v_ctl_auto_throttle_pgain
v_ctl_auto_throttle_igain
v_ctl_auto_throttle_dgain
v_ctl_auto_throttle_climb_throttle_increment
v_ctl_auto_throttle_pitch_of_vz_pgain
v_ctl_auto_throttle_pitch_of_vz_dgain
v_ctl_auto_throttle_sum_err
v_ctl_auto_throttle_submode
nav_survey_active
nav_survey_east
nav_survey_north
nav_survey_west
nav_survey_south
v_ctl_mode
horizontal_mode
infrared
common_nav_periodic_task_4Hz
nav_home
nav_without_gps
nav_periodic_task
v_ctl_altitude_loop
h_ctl_course_loop
__aeabi_dcmpgt
__aeabi_dcmplt
ahrs_update_infrared
v_ctl_climb_loop
h_ctl_attitude_loop
v_ctl_throttle_slew
nav_throttle_setpoint
v_ctl_throttle_setpoint
nav_pitch
h_ctl_pitch_setpoint
ap_state
h_ctl_aileron_setpoint
h_ctl_elevator_setpoint
fbw_state
inter_mcu_received_ap
__aeabi_fcmpgt
datalink_time
estimator_hspeed_mod
sys_time
infrared_adc_update
__aeabi_dadd
__aeabi_d2f
gps_ubx_parse
gps_ubx_read_message
estimator_update_state_gps
ahrs_update_gps
dl_parse_msg
uart0
gps_ubx
pprz_tp
dl_buffer
dl_msg_available
inter_mcu_received_fbw
too_far_from_home
