   1              		.cpu arm7tdmi
   2              		.fpu softvfp
   3              		.eabi_attribute 20, 1
   4              		.eabi_attribute 21, 1
   5              		.eabi_attribute 23, 3
   6              		.eabi_attribute 24, 1
   7              		.eabi_attribute 25, 1
   8              		.eabi_attribute 26, 1
   9              		.eabi_attribute 30, 4
  10              		.eabi_attribute 34, 0
  11              		.eabi_attribute 18, 4
  12              		.file	"main_ap.c"
  13              		.section	.text.init_ap,"ax",%progbits
  14              		.align	2
  15              		.global	init_ap
  17              	init_ap:
  18              		@ Function supports interworking.
  19              		@ args = 0, pretend = 0, frame = 0
  20              		@ frame_needed = 0, uses_anonymous_args = 0
  21 0000 38402DE9 		stmfd	sp!, {r3, r4, r5, lr}
  22 0004 C8309FE5 		ldr	r3, .L2
  23 0008 0040A0E3 		mov	r4, #0
  24 000c C4509FE5 		ldr	r5, .L2+4
  25 0010 0040C3E5 		strb	r4, [r3]
  26 0014 C0309FE5 		ldr	r3, .L2+8
  27 0018 0020A0E3 		mov	r2, #0
  28 001c 002083E5 		str	r2, [r3]	@ float
  29 0020 FEFFFFEB 		bl	gps_init
  30 0024 FEFFFFEB 		bl	ahrs_init
  31 0028 FEFFFFEB 		bl	h_ctl_init
  32 002c FEFFFFEB 		bl	v_ctl_init
  33 0030 FEFFFFEB 		bl	estimator_init
  34 0034 FEFFFFEB 		bl	alt_kalman_init
  35 0038 FEFFFFEB 		bl	nav_init
  36 003c FEFFFFEB 		bl	infrared_adc_init
  37 0040 FEFFFFEB 		bl	settings_init
  38 0044 0410A0E1 		mov	r1, r4
  39 0048 0500A0E1 		mov	r0, r5
  40 004c FEFFFFEB 		bl	sys_time_register_timer
  41 0050 88309FE5 		ldr	r3, .L2+12
  42 0054 0410A0E1 		mov	r1, r4
  43 0058 0000C3E5 		strb	r0, [r3]
  44 005c FA05A0E3 		mov	r0, #1048576000
  45 0060 FEFFFFEB 		bl	sys_time_register_timer
  46 0064 78309FE5 		ldr	r3, .L2+16
  47 0068 0410A0E1 		mov	r1, r4
  48 006c 0000C3E5 		strb	r0, [r3]
  49 0070 0500A0E1 		mov	r0, r5
  50 0074 FEFFFFEB 		bl	sys_time_register_timer
  51 0078 68309FE5 		ldr	r3, .L2+20
  52 007c 0410A0E1 		mov	r1, r4
  53 0080 0000C3E5 		strb	r0, [r3]
  54 0084 0500A0E1 		mov	r0, r5
  55 0088 FEFFFFEB 		bl	sys_time_register_timer
  56 008c 58309FE5 		ldr	r3, .L2+24
  57 0090 0410A0E1 		mov	r1, r4
  58 0094 0000C3E5 		strb	r0, [r3]
  59 0098 0500A0E1 		mov	r0, r5
  60 009c FEFFFFEB 		bl	sys_time_register_timer
  61 00a0 48309FE5 		ldr	r3, .L2+28
  62 00a4 0410A0E1 		mov	r1, r4
  63 00a8 0000C3E5 		strb	r0, [r3]
  64 00ac FE05A0E3 		mov	r0, #1065353216
  65 00b0 FEFFFFEB 		bl	sys_time_register_timer
  66 00b4 38309FE5 		ldr	r3, .L2+32
  67 00b8 0000C3E5 		strb	r0, [r3]
  68 00bc FEFFFFEB 		bl	enableIRQ
  69 00c0 30309FE5 		ldr	r3, .L2+36
  70 00c4 0040C3E5 		strb	r4, [r3]
  71 00c8 FEFFFFEB 		bl	traffic_info_init
  72 00cc 3840BDE8 		ldmfd	sp!, {r3, r4, r5, lr}
  73 00d0 1EFF2FE1 		bx	lr
  74              	.L3:
  75              		.align	2
  76              	.L2:
  77 00d4 00000000 		.word	combi_switch_status
  78 00d8 8988883C 		.word	1015580809
  79 00dc 00000000 		.word	combi_switch_value
  80 00e0 00000000 		.word	sensors_tid
  81 00e4 00000000 		.word	navigation_tid
  82 00e8 00000000 		.word	attitude_tid
  83 00ec 00000000 		.word	modules_tid
  84 00f0 00000000 		.word	telemetry_tid
  85 00f4 00000000 		.word	monitor_tid
  86 00f8 00000000 		.word	power_switch
  88              		.global	__aeabi_i2d
  89              		.global	__aeabi_dmul
  90              		.global	__aeabi_ddiv
  91              		.global	__aeabi_d2iz
  92              		.global	__aeabi_i2f
  93              		.global	__aeabi_fadd
  94              		.global	__aeabi_f2d
  95              		.global	__aeabi_d2uiz
  96              		.global	__aeabi_idiv
  97              		.global	__aeabi_f2iz
  98              		.global	__aeabi_ui2f
  99              		.global	__aeabi_fdiv
 100              		.global	__aeabi_fmul
 101              		.section	.text.reporting_task,"ax",%progbits
 102              		.align	2
 103              		.global	reporting_task
 105              	reporting_task:
 106              		@ Function supports interworking.
 107              		@ args = 0, pretend = 0, frame = 16
 108              		@ frame_needed = 0, uses_anonymous_args = 0
 109 0000 F04F2DE9 		stmfd	sp!, {r4, r5, r6, r7, r8, r9, r10, fp, lr}
 110 0004 903F9FE5 		ldr	r3, .L383
 111 0008 0020D3E5 		ldrb	r2, [r3]	@ zero_extendqisi2
 112 000c 000052E3 		cmp	r2, #0
 113 0010 14D04DE2 		sub	sp, sp, #20
 114 0014 0370A0E1 		mov	r7, r3
 115 0018 4800000A 		beq	.L5
 116 001c 7C0F9FE5 		ldr	r0, .L383+4
 117 0020 0810A0E3 		mov	r1, #8
 118 0024 FEFFFFEB 		bl	uart_check_free_space
 119 0028 000050E3 		cmp	r0, #0
 120 002c 3C00000A 		beq	.L6
 121 0030 6C3F9FE5 		ldr	r3, .L383+8
 122 0034 B020D3E1 		ldrh	r2, [r3]
 123 0038 082082E2 		add	r2, r2, #8
 124 003c B020C3E1 		strh	r2, [r3]	@ movhi
 125 0040 D83F9FE5 		ldr	r3, .L383+132
 126 0044 B020D3E1 		ldrh	r2, [r3]
 127 0048 500F9FE5 		ldr	r0, .L383+4
 128 004c 012082E2 		add	r2, r2, #1
 129 0050 9910A0E3 		mov	r1, #153
 130 0054 D85F9FE5 		ldr	r5, .L383+152
 131 0058 B020C3E1 		strh	r2, [r3]	@ movhi
 132 005c FEFFFFEB 		bl	uart_transmit
 133 0060 380F9FE5 		ldr	r0, .L383+4
 134 0064 0810A0E3 		mov	r1, #8
 135 0068 C84F9FE5 		ldr	r4, .L383+156
 136 006c FEFFFFEB 		bl	uart_transmit
 137 0070 0A30A0E3 		mov	r3, #10
 138 0074 0030C5E5 		strb	r3, [r5]
 139 0078 200F9FE5 		ldr	r0, .L383+4
 140 007c 1230A0E3 		mov	r3, #18
 141 0080 0210A0E3 		mov	r1, #2
 142 0084 0030C4E5 		strb	r3, [r4]
 143 0088 FEFFFFEB 		bl	uart_transmit
 144 008c 0030D5E5 		ldrb	r3, [r5]	@ zero_extendqisi2
 145 0090 0020D4E5 		ldrb	r2, [r4]	@ zero_extendqisi2
 146 0094 013083E2 		add	r3, r3, #1
 147 0098 086F9FE5 		ldr	r6, .L383+12
 148 009c FF3003E2 		and	r3, r3, #255
 149 00a0 0030C5E5 		strb	r3, [r5]
 150 00a4 F40E9FE5 		ldr	r0, .L383+4
 151 00a8 023083E0 		add	r3, r3, r2
 152 00ac 0110A0E3 		mov	r1, #1
 153 00b0 0030C4E5 		strb	r3, [r4]
 154 00b4 FEFFFFEB 		bl	uart_transmit
 155 00b8 0010D6E5 		ldrb	r1, [r6]	@ zero_extendqisi2
 156 00bc 0030D5E5 		ldrb	r3, [r5]	@ zero_extendqisi2
 157 00c0 0020D4E5 		ldrb	r2, [r4]	@ zero_extendqisi2
 158 00c4 033081E0 		add	r3, r1, r3
 159 00c8 FF3003E2 		and	r3, r3, #255
 160 00cc 0030C5E5 		strb	r3, [r5]
 161 00d0 C80E9FE5 		ldr	r0, .L383+4
 162 00d4 023083E0 		add	r3, r3, r2
 163 00d8 0030C4E5 		strb	r3, [r4]
 164 00dc FEFFFFEB 		bl	uart_transmit
 165 00e0 0110D6E5 		ldrb	r1, [r6, #1]	@ zero_extendqisi2
 166 00e4 0020D5E5 		ldrb	r2, [r5]	@ zero_extendqisi2
 167 00e8 0030D4E5 		ldrb	r3, [r4]	@ zero_extendqisi2
 168 00ec 022081E0 		add	r2, r1, r2
 169 00f0 FF2002E2 		and	r2, r2, #255
 170 00f4 0020C5E5 		strb	r2, [r5]
 171 00f8 A00E9FE5 		ldr	r0, .L383+4
 172 00fc 032082E0 		add	r2, r2, r3
 173 0100 0020C4E5 		strb	r2, [r4]
 174 0104 FEFFFFEB 		bl	uart_transmit
 175 0108 0010D5E5 		ldrb	r1, [r5]	@ zero_extendqisi2
 176 010c 8C0E9FE5 		ldr	r0, .L383+4
 177 0110 FEFFFFEB 		bl	uart_transmit
 178 0114 840E9FE5 		ldr	r0, .L383+4
 179 0118 0010D4E5 		ldrb	r1, [r4]	@ zero_extendqisi2
 180 011c FEFFFFEB 		bl	uart_transmit
 181 0120 030000EA 		b	.L7
 182              	.L6:
 183 0124 2C3F9FE5 		ldr	r3, .L383+188
 184 0128 0020D3E5 		ldrb	r2, [r3]	@ zero_extendqisi2
 185 012c 012082E2 		add	r2, r2, #1
 186 0130 0020C3E5 		strb	r2, [r3]
 187              	.L7:
 188 0134 0030A0E3 		mov	r3, #0
 189 0138 0030C7E5 		strb	r3, [r7]
 190 013c A62700EA 		b	.L4
 191              	.L5:
 192 0140 646E9FE5 		ldr	r6, .L383+16
 193 0144 0030D6E5 		ldrb	r3, [r6]	@ zero_extendqisi2
 194 0148 000053E3 		cmp	r3, #0
 195 014c 1610001A 		bne	.L10
 196 0150 587E9FE5 		ldr	r7, .L383+20
 197 0154 0020D7E5 		ldrb	r2, [r7]	@ zero_extendqisi2
 198 0158 012082E2 		add	r2, r2, #1
 199 015c FF2002E2 		and	r2, r2, #255
 200 0160 4CBE9FE5 		ldr	fp, .L383+24
 201 0164 050052E3 		cmp	r2, #5
 202 0168 0030C785 		strhib	r3, [r7]
 203 016c 0030DBE5 		ldrb	r3, [fp]	@ zero_extendqisi2
 204 0170 013083E2 		add	r3, r3, #1
 205 0174 FF3003E2 		and	r3, r3, #255
 206 0178 0020C795 		strlsb	r2, [r7]
 207 017c 34AE9FE5 		ldr	r10, .L383+28
 208 0180 1D0053E3 		cmp	r3, #29
 209 0184 0030A083 		movhi	r3, #0
 210 0188 0030CBE5 		strb	r3, [fp]
 211 018c 0030DAE5 		ldrb	r3, [r10]	@ zero_extendqisi2
 212 0190 013083E2 		add	r3, r3, #1
 213 0194 FF3003E2 		and	r3, r3, #255
 214 0198 3B0053E3 		cmp	r3, #59
 215 019c B89E9FE5 		ldr	r9, .L383+192
 216 01a0 0030A083 		movhi	r3, #0
 217 01a4 0030CAE5 		strb	r3, [r10]
 218 01a8 0030D9E5 		ldrb	r3, [r9]	@ zero_extendqisi2
 219 01ac 013083E2 		add	r3, r3, #1
 220 01b0 FF3003E2 		and	r3, r3, #255
 221 01b4 3E0053E3 		cmp	r3, #62
 222 01b8 9C1E9F85 		ldrhi	r1, .L383+192
 223 01bc F88D9FE5 		ldr	r8, .L383+32
 224 01c0 0030A083 		movhi	r3, #0
 225 01c4 0030C185 		strhib	r3, [r1]
 226 01c8 0030C995 		strlsb	r3, [r9]
 227 01cc 0030D8E5 		ldrb	r3, [r8]	@ zero_extendqisi2
 228 01d0 013083E2 		add	r3, r3, #1
 229 01d4 FF3003E2 		and	r3, r3, #255
 230 01d8 410053E3 		cmp	r3, #65
 231 01dc D82D9F85 		ldrhi	r2, .L383+32
 232 01e0 0030A083 		movhi	r3, #0
 233 01e4 0030C285 		strhib	r3, [r2]
 234 01e8 D02D9FE5 		ldr	r2, .L383+36
 235 01ec 0030C895 		strlsb	r3, [r8]
 236 01f0 0030D2E5 		ldrb	r3, [r2]	@ zero_extendqisi2
 237 01f4 013083E2 		add	r3, r3, #1
 238 01f8 FF3003E2 		and	r3, r3, #255
 239 01fc 470053E3 		cmp	r3, #71
 240 0200 B81D9F85 		ldrhi	r1, .L383+36
 241 0204 0030A083 		movhi	r3, #0
 242 0208 0030C295 		strlsb	r3, [r2]
 243 020c 0030C185 		strhib	r3, [r1]
 244 0210 AC3D9FE5 		ldr	r3, .L383+40
 245 0214 0020D3E5 		ldrb	r2, [r3]	@ zero_extendqisi2
 246 0218 012082E2 		add	r2, r2, #1
 247 021c FF2002E2 		and	r2, r2, #255
 248 0220 590052E3 		cmp	r2, #89
 249 0224 0020A083 		movhi	r2, #0
 250 0228 0020C3E5 		strb	r2, [r3]
 251 022c 943D9FE5 		ldr	r3, .L383+44
 252 0230 0020D3E5 		ldrb	r2, [r3]	@ zero_extendqisi2
 253 0234 012082E2 		add	r2, r2, #1
 254 0238 FF2002E2 		and	r2, r2, #255
 255 023c 770052E3 		cmp	r2, #119
 256 0240 0020A083 		movhi	r2, #0
 257 0244 0020C3E5 		strb	r2, [r3]
 258 0248 7C3D9FE5 		ldr	r3, .L383+48
 259 024c 0020D3E5 		ldrb	r2, [r3]	@ zero_extendqisi2
 260 0250 012082E2 		add	r2, r2, #1
 261 0254 FF2002E2 		and	r2, r2, #255
 262 0258 7D0052E3 		cmp	r2, #125
 263 025c 0020A083 		movhi	r2, #0
 264 0260 0020C3E5 		strb	r2, [r3]
 265 0264 643D9FE5 		ldr	r3, .L383+52
 266 0268 0020D3E5 		ldrb	r2, [r3]	@ zero_extendqisi2
 267 026c 012082E2 		add	r2, r2, #1
 268 0270 FF2002E2 		and	r2, r2, #255
 269 0274 950052E3 		cmp	r2, #149
 270 0278 0020A083 		movhi	r2, #0
 271 027c 0020C3E5 		strb	r2, [r3]
 272 0280 4C3D9FE5 		ldr	r3, .L383+56
 273 0284 B020D3E1 		ldrh	r2, [r3]
 274 0288 012082E2 		add	r2, r2, #1
 275 028c 0228A0E1 		mov	r2, r2, asl #16
 276 0290 2228A0E1 		mov	r2, r2, lsr #16
 277 0294 4B0F52E3 		cmp	r2, #300
 278 0298 0020A023 		movcs	r2, #0
 279 029c B020C3E1 		strh	r2, [r3]	@ movhi
 280 02a0 303D9FE5 		ldr	r3, .L383+60
 281 02a4 B020D3E1 		ldrh	r2, [r3]
 282 02a8 012082E2 		add	r2, r2, #1
 283 02ac 0228A0E1 		mov	r2, r2, asl #16
 284 02b0 241D9FE5 		ldr	r1, .L383+64
 285 02b4 2228A0E1 		mov	r2, r2, lsr #16
 286 02b8 010052E1 		cmp	r2, r1
 287 02bc 0020A083 		movhi	r2, #0
 288 02c0 B020C3E1 		strh	r2, [r3]	@ movhi
 289 02c4 143D9FE5 		ldr	r3, .L383+68
 290 02c8 B020D3E1 		ldrh	r2, [r3]
 291 02cc 012082E2 		add	r2, r2, #1
 292 02d0 0228A0E1 		mov	r2, r2, asl #16
 293 02d4 2228A0E1 		mov	r2, r2, lsr #16
 294 02d8 870F52E3 		cmp	r2, #540
 295 02dc 0020A023 		movcs	r2, #0
 296 02e0 B020C3E1 		strh	r2, [r3]	@ movhi
 297 02e4 0030D7E5 		ldrb	r3, [r7]	@ zero_extendqisi2
 298 02e8 000053E3 		cmp	r3, #0
 299 02ec FA01001A 		bne	.L37
 300 02f0 EC4C9FE5 		ldr	r4, .L383+72
 301 02f4 403094E5 		ldr	r3, [r4, #64]
 302 02f8 480094E5 		ldr	r0, [r4, #72]
 303 02fc 003063E2 		rsb	r3, r3, #0
 304 0300 B830CDE1 		strh	r3, [sp, #8]	@ movhi
 305 0304 FEFFFFEB 		bl	__aeabi_i2d
 306 0308 D82C9FE5 		ldr	r2, .L383+76
 307 030c D83C9FE5 		ldr	r3, .L383+80
 308 0310 FEFFFFEB 		bl	__aeabi_dmul
 309 0314 0020A0E3 		mov	r2, #0
 310 0318 D03C9FE5 		ldr	r3, .L383+84
 311 031c FEFFFFEB 		bl	__aeabi_ddiv
 312 0320 FEFFFFEB 		bl	__aeabi_d2iz
 313 0324 2110A0E3 		mov	r1, #33
 314 0328 BC00CDE1 		strh	r0, [sp, #12]	@ movhi
 315 032c 6C0C9FE5 		ldr	r0, .L383+4
 316 0330 FEFFFFEB 		bl	uart_check_free_space
 317 0334 000050E3 		cmp	r0, #0
 318 0338 3601000A 		beq	.L38
 319 033c 603C9FE5 		ldr	r3, .L383+8
 320 0340 B020D3E1 		ldrh	r2, [r3]
 321 0344 212082E2 		add	r2, r2, #33
 322 0348 B020C3E1 		strh	r2, [r3]	@ movhi
 323 034c CC3C9FE5 		ldr	r3, .L383+132
 324 0350 B020D3E1 		ldrh	r2, [r3]
 325 0354 440C9FE5 		ldr	r0, .L383+4
 326 0358 012082E2 		add	r2, r2, #1
 327 035c 9910A0E3 		mov	r1, #153
 328 0360 CC8C9FE5 		ldr	r8, .L383+152
 329 0364 B020C3E1 		strh	r2, [r3]	@ movhi
 330 0368 FEFFFFEB 		bl	uart_transmit
 331 036c 2C0C9FE5 		ldr	r0, .L383+4
 332 0370 2110A0E3 		mov	r1, #33
 333 0374 BC5C9FE5 		ldr	r5, .L383+156
 334 0378 FEFFFFEB 		bl	uart_transmit
 335 037c 2320A0E3 		mov	r2, #35
 336 0380 0020C8E5 		strb	r2, [r8]
 337 0384 140C9FE5 		ldr	r0, .L383+4
 338 0388 4420A0E3 		mov	r2, #68
 339 038c 0210A0E3 		mov	r1, #2
 340 0390 0020C5E5 		strb	r2, [r5]
 341 0394 FEFFFFEB 		bl	uart_transmit
 342 0398 0020D8E5 		ldrb	r2, [r8]	@ zero_extendqisi2
 343 039c 0010D5E5 		ldrb	r1, [r5]	@ zero_extendqisi2
 344 03a0 082082E2 		add	r2, r2, #8
 345 03a4 FF2002E2 		and	r2, r2, #255
 346 03a8 0020C8E5 		strb	r2, [r8]
 347 03ac EC0B9FE5 		ldr	r0, .L383+4
 348 03b0 012082E0 		add	r2, r2, r1
 349 03b4 0810A0E3 		mov	r1, #8
 350 03b8 0020C5E5 		strb	r2, [r5]
 351 03bc FEFFFFEB 		bl	uart_transmit
 352 03c0 5B10D4E5 		ldrb	r1, [r4, #91]	@ zero_extendqisi2
 353 03c4 0020D8E5 		ldrb	r2, [r8]	@ zero_extendqisi2
 354 03c8 0000D5E5 		ldrb	r0, [r5]	@ zero_extendqisi2
 355 03cc 022081E0 		add	r2, r1, r2
 356 03d0 FF2002E2 		and	r2, r2, #255
 357 03d4 0020C8E5 		strb	r2, [r8]
 358 03d8 002082E0 		add	r2, r2, r0
 359 03dc BC0B9FE5 		ldr	r0, .L383+4
 360 03e0 0020C5E5 		strb	r2, [r5]
 361 03e4 FEFFFFEB 		bl	uart_transmit
 362 03e8 1C10D4E5 		ldrb	r1, [r4, #28]	@ zero_extendqisi2
 363 03ec 0020D8E5 		ldrb	r2, [r8]	@ zero_extendqisi2
 364 03f0 0000D5E5 		ldrb	r0, [r5]	@ zero_extendqisi2
 365 03f4 022081E0 		add	r2, r1, r2
 366 03f8 FF2002E2 		and	r2, r2, #255
 367 03fc 0020C8E5 		strb	r2, [r8]
 368 0400 002082E0 		add	r2, r2, r0
 369 0404 940B9FE5 		ldr	r0, .L383+4
 370 0408 0020C5E5 		strb	r2, [r5]
 371 040c FEFFFFEB 		bl	uart_transmit
 372 0410 1D10D4E5 		ldrb	r1, [r4, #29]	@ zero_extendqisi2
 373 0414 0020D8E5 		ldrb	r2, [r8]	@ zero_extendqisi2
 374 0418 0000D5E5 		ldrb	r0, [r5]	@ zero_extendqisi2
 375 041c 022081E0 		add	r2, r1, r2
 376 0420 FF2002E2 		and	r2, r2, #255
 377 0424 0020C8E5 		strb	r2, [r8]
 378 0428 002082E0 		add	r2, r2, r0
 379 042c 6C0B9FE5 		ldr	r0, .L383+4
 380 0430 0020C5E5 		strb	r2, [r5]
 381 0434 FEFFFFEB 		bl	uart_transmit
 382 0438 1E10D4E5 		ldrb	r1, [r4, #30]	@ zero_extendqisi2
 383 043c 0020D8E5 		ldrb	r2, [r8]	@ zero_extendqisi2
 384 0440 0000D5E5 		ldrb	r0, [r5]	@ zero_extendqisi2
 385 0444 022081E0 		add	r2, r1, r2
 386 0448 FF2002E2 		and	r2, r2, #255
 387 044c 0020C8E5 		strb	r2, [r8]
 388 0450 002082E0 		add	r2, r2, r0
 389 0454 440B9FE5 		ldr	r0, .L383+4
 390 0458 0020C5E5 		strb	r2, [r5]
 391 045c FEFFFFEB 		bl	uart_transmit
 392 0460 1F10D4E5 		ldrb	r1, [r4, #31]	@ zero_extendqisi2
 393 0464 0020D8E5 		ldrb	r2, [r8]	@ zero_extendqisi2
 394 0468 0000D5E5 		ldrb	r0, [r5]	@ zero_extendqisi2
 395 046c 022081E0 		add	r2, r1, r2
 396 0470 FF2002E2 		and	r2, r2, #255
 397 0474 0020C8E5 		strb	r2, [r8]
 398 0478 002082E0 		add	r2, r2, r0
 399 047c 1C0B9FE5 		ldr	r0, .L383+4
 400 0480 0020C5E5 		strb	r2, [r5]
 401 0484 FEFFFFEB 		bl	uart_transmit
 402 0488 1810D4E5 		ldrb	r1, [r4, #24]	@ zero_extendqisi2
 403 048c 0020D8E5 		ldrb	r2, [r8]	@ zero_extendqisi2
 404 0490 0000D5E5 		ldrb	r0, [r5]	@ zero_extendqisi2
 405 0494 022081E0 		add	r2, r1, r2
 406 0498 FF2002E2 		and	r2, r2, #255
 407 049c 0020C8E5 		strb	r2, [r8]
 408 04a0 002082E0 		add	r2, r2, r0
 409 04a4 F40A9FE5 		ldr	r0, .L383+4
 410 04a8 0020C5E5 		strb	r2, [r5]
 411 04ac FEFFFFEB 		bl	uart_transmit
 412 04b0 1910D4E5 		ldrb	r1, [r4, #25]	@ zero_extendqisi2
 413 04b4 0020D8E5 		ldrb	r2, [r8]	@ zero_extendqisi2
 414 04b8 0000D5E5 		ldrb	r0, [r5]	@ zero_extendqisi2
 415 04bc 022081E0 		add	r2, r1, r2
 416 04c0 FF2002E2 		and	r2, r2, #255
 417 04c4 0020C8E5 		strb	r2, [r8]
 418 04c8 002082E0 		add	r2, r2, r0
 419 04cc CC0A9FE5 		ldr	r0, .L383+4
 420 04d0 0020C5E5 		strb	r2, [r5]
 421 04d4 FEFFFFEB 		bl	uart_transmit
 422 04d8 1A10D4E5 		ldrb	r1, [r4, #26]	@ zero_extendqisi2
 423 04dc 0020D8E5 		ldrb	r2, [r8]	@ zero_extendqisi2
 424 04e0 0000D5E5 		ldrb	r0, [r5]	@ zero_extendqisi2
 425 04e4 022081E0 		add	r2, r1, r2
 426 04e8 FF2002E2 		and	r2, r2, #255
 427 04ec 0020C8E5 		strb	r2, [r8]
 428 04f0 002082E0 		add	r2, r2, r0
 429 04f4 A40A9FE5 		ldr	r0, .L383+4
 430 04f8 0020C5E5 		strb	r2, [r5]
 431 04fc FEFFFFEB 		bl	uart_transmit
 432 0500 1B10D4E5 		ldrb	r1, [r4, #27]	@ zero_extendqisi2
 433 0504 0020D8E5 		ldrb	r2, [r8]	@ zero_extendqisi2
 434 0508 0000D5E5 		ldrb	r0, [r5]	@ zero_extendqisi2
 435 050c 022081E0 		add	r2, r1, r2
 436 0510 FF2002E2 		and	r2, r2, #255
 437 0514 0020C8E5 		strb	r2, [r8]
 438 0518 002082E0 		add	r2, r2, r0
 439 051c 7C0A9FE5 		ldr	r0, .L383+4
 440 0520 0020C5E5 		strb	r2, [r5]
 441 0524 FEFFFFEB 		bl	uart_transmit
 442 0528 0C10DDE5 		ldrb	r1, [sp, #12]	@ zero_extendqisi2
 443 052c 0020D8E5 		ldrb	r2, [r8]	@ zero_extendqisi2
 444 0530 0000D5E5 		ldrb	r0, [r5]	@ zero_extendqisi2
 445 0534 022081E0 		add	r2, r1, r2
 446 0538 FF2002E2 		and	r2, r2, #255
 447 053c 0020C8E5 		strb	r2, [r8]
 448 0540 002082E0 		add	r2, r2, r0
 449 0544 540A9FE5 		ldr	r0, .L383+4
 450 0548 0020C5E5 		strb	r2, [r5]
 451 054c FEFFFFEB 		bl	uart_transmit
 452 0550 0D10DDE5 		ldrb	r1, [sp, #13]	@ zero_extendqisi2
 453 0554 0020D8E5 		ldrb	r2, [r8]	@ zero_extendqisi2
 454 0558 0000D5E5 		ldrb	r0, [r5]	@ zero_extendqisi2
 455 055c 022081E0 		add	r2, r1, r2
 456 0560 FF2002E2 		and	r2, r2, #255
 457 0564 0020C8E5 		strb	r2, [r8]
 458 0568 002082E0 		add	r2, r2, r0
 459 056c 2C0A9FE5 		ldr	r0, .L383+4
 460 0570 0020C5E5 		strb	r2, [r5]
 461 0574 FEFFFFEB 		bl	uart_transmit
 462 0578 2810D4E5 		ldrb	r1, [r4, #40]	@ zero_extendqisi2
 463 057c 0020D8E5 		ldrb	r2, [r8]	@ zero_extendqisi2
 464 0580 0000D5E5 		ldrb	r0, [r5]	@ zero_extendqisi2
 465 0584 022081E0 		add	r2, r1, r2
 466 0588 FF2002E2 		and	r2, r2, #255
 467 058c 0020C8E5 		strb	r2, [r8]
 468 0590 002082E0 		add	r2, r2, r0
 469 0594 040A9FE5 		ldr	r0, .L383+4
 470 0598 0020C5E5 		strb	r2, [r5]
 471 059c FEFFFFEB 		bl	uart_transmit
 472 05a0 2910D4E5 		ldrb	r1, [r4, #41]	@ zero_extendqisi2
 473 05a4 0020D8E5 		ldrb	r2, [r8]	@ zero_extendqisi2
 474 05a8 0000D5E5 		ldrb	r0, [r5]	@ zero_extendqisi2
 475 05ac 022081E0 		add	r2, r1, r2
 476 05b0 FF2002E2 		and	r2, r2, #255
 477 05b4 0020C8E5 		strb	r2, [r8]
 478 05b8 002082E0 		add	r2, r2, r0
 479 05bc DC099FE5 		ldr	r0, .L383+4
 480 05c0 0020C5E5 		strb	r2, [r5]
 481 05c4 FEFFFFEB 		bl	uart_transmit
 482 05c8 2A10D4E5 		ldrb	r1, [r4, #42]	@ zero_extendqisi2
 483 05cc 0020D8E5 		ldrb	r2, [r8]	@ zero_extendqisi2
 484 05d0 0000D5E5 		ldrb	r0, [r5]	@ zero_extendqisi2
 485 05d4 022081E0 		add	r2, r1, r2
 486 05d8 FF2002E2 		and	r2, r2, #255
 487 05dc 0020C8E5 		strb	r2, [r8]
 488 05e0 002082E0 		add	r2, r2, r0
 489 05e4 B4099FE5 		ldr	r0, .L383+4
 490 05e8 0020C5E5 		strb	r2, [r5]
 491 05ec FEFFFFEB 		bl	uart_transmit
 492 05f0 2B10D4E5 		ldrb	r1, [r4, #43]	@ zero_extendqisi2
 493 05f4 0020D8E5 		ldrb	r2, [r8]	@ zero_extendqisi2
 494 05f8 0000D5E5 		ldrb	r0, [r5]	@ zero_extendqisi2
 495 05fc 022081E0 		add	r2, r1, r2
 496 0600 FF2002E2 		and	r2, r2, #255
 497 0604 0020C8E5 		strb	r2, [r8]
 498 0608 002082E0 		add	r2, r2, r0
 499 060c 8C099FE5 		ldr	r0, .L383+4
 500 0610 0020C5E5 		strb	r2, [r5]
 501 0614 FEFFFFEB 		bl	uart_transmit
 502 0618 4410D4E5 		ldrb	r1, [r4, #68]	@ zero_extendqisi2
 503 061c 0020D8E5 		ldrb	r2, [r8]	@ zero_extendqisi2
 504 0620 0000D5E5 		ldrb	r0, [r5]	@ zero_extendqisi2
 505 0624 022081E0 		add	r2, r1, r2
 506 0628 FF2002E2 		and	r2, r2, #255
 507 062c 0020C8E5 		strb	r2, [r8]
 508 0630 002082E0 		add	r2, r2, r0
 509 0634 64099FE5 		ldr	r0, .L383+4
 510 0638 0020C5E5 		strb	r2, [r5]
 511 063c FEFFFFEB 		bl	uart_transmit
 512 0640 4510D4E5 		ldrb	r1, [r4, #69]	@ zero_extendqisi2
 513 0644 0020D8E5 		ldrb	r2, [r8]	@ zero_extendqisi2
 514 0648 0000D5E5 		ldrb	r0, [r5]	@ zero_extendqisi2
 515 064c 022081E0 		add	r2, r1, r2
 516 0650 FF2002E2 		and	r2, r2, #255
 517 0654 0020C8E5 		strb	r2, [r8]
 518 0658 002082E0 		add	r2, r2, r0
 519 065c 3C099FE5 		ldr	r0, .L383+4
 520 0660 0020C5E5 		strb	r2, [r5]
 521 0664 FEFFFFEB 		bl	uart_transmit
 522 0668 0810DDE5 		ldrb	r1, [sp, #8]	@ zero_extendqisi2
 523 066c 0020D8E5 		ldrb	r2, [r8]	@ zero_extendqisi2
 524 0670 0000D5E5 		ldrb	r0, [r5]	@ zero_extendqisi2
 525 0674 022081E0 		add	r2, r1, r2
 526 0678 FF2002E2 		and	r2, r2, #255
 527 067c 0020C8E5 		strb	r2, [r8]
 528 0680 002082E0 		add	r2, r2, r0
 529 0684 14099FE5 		ldr	r0, .L383+4
 530 0688 0020C5E5 		strb	r2, [r5]
 531 068c FEFFFFEB 		bl	uart_transmit
 532 0690 0910DDE5 		ldrb	r1, [sp, #9]	@ zero_extendqisi2
 533 0694 0020D8E5 		ldrb	r2, [r8]	@ zero_extendqisi2
 534 0698 0000D5E5 		ldrb	r0, [r5]	@ zero_extendqisi2
 535 069c 022081E0 		add	r2, r1, r2
 536 06a0 FF2002E2 		and	r2, r2, #255
 537 06a4 0020C8E5 		strb	r2, [r8]
 538 06a8 002082E0 		add	r2, r2, r0
 539 06ac EC089FE5 		ldr	r0, .L383+4
 540 06b0 0020C5E5 		strb	r2, [r5]
 541 06b4 FEFFFFEB 		bl	uart_transmit
 542 06b8 5C10D4E5 		ldrb	r1, [r4, #92]	@ zero_extendqisi2
 543 06bc 0020D8E5 		ldrb	r2, [r8]	@ zero_extendqisi2
 544 06c0 0000D5E5 		ldrb	r0, [r5]	@ zero_extendqisi2
 545 06c4 022081E0 		add	r2, r1, r2
 546 06c8 FF2002E2 		and	r2, r2, #255
 547 06cc 0020C8E5 		strb	r2, [r8]
 548 06d0 002082E0 		add	r2, r2, r0
 549 06d4 C4089FE5 		ldr	r0, .L383+4
 550 06d8 0020C5E5 		strb	r2, [r5]
 551 06dc FEFFFFEB 		bl	uart_transmit
 552 06e0 5D10D4E5 		ldrb	r1, [r4, #93]	@ zero_extendqisi2
 553 06e4 0020D8E5 		ldrb	r2, [r8]	@ zero_extendqisi2
 554 06e8 0000D5E5 		ldrb	r0, [r5]	@ zero_extendqisi2
 555 06ec 022081E0 		add	r2, r1, r2
 556 06f0 FF2002E2 		and	r2, r2, #255
 557 06f4 0020C8E5 		strb	r2, [r8]
 558 06f8 002082E0 		add	r2, r2, r0
 559 06fc 9C089FE5 		ldr	r0, .L383+4
 560 0700 0020C5E5 		strb	r2, [r5]
 561 0704 FEFFFFEB 		bl	uart_transmit
 562 0708 6010D4E5 		ldrb	r1, [r4, #96]	@ zero_extendqisi2
 563 070c 0020D8E5 		ldrb	r2, [r8]	@ zero_extendqisi2
 564 0710 0000D5E5 		ldrb	r0, [r5]	@ zero_extendqisi2
 565 0714 022081E0 		add	r2, r1, r2
 566 0718 FF2002E2 		and	r2, r2, #255
 567 071c 0020C8E5 		strb	r2, [r8]
 568 0720 002082E0 		add	r2, r2, r0
 569 0724 74089FE5 		ldr	r0, .L383+4
 570 0728 0020C5E5 		strb	r2, [r5]
 571 072c FEFFFFEB 		bl	uart_transmit
 572 0730 6110D4E5 		ldrb	r1, [r4, #97]	@ zero_extendqisi2
 573 0734 0020D8E5 		ldrb	r2, [r8]	@ zero_extendqisi2
 574 0738 0000D5E5 		ldrb	r0, [r5]	@ zero_extendqisi2
 575 073c 022081E0 		add	r2, r1, r2
 576 0740 FF2002E2 		and	r2, r2, #255
 577 0744 0020C8E5 		strb	r2, [r8]
 578 0748 002082E0 		add	r2, r2, r0
 579 074c 4C089FE5 		ldr	r0, .L383+4
 580 0750 0020C5E5 		strb	r2, [r5]
 581 0754 FEFFFFEB 		bl	uart_transmit
 582 0758 6210D4E5 		ldrb	r1, [r4, #98]	@ zero_extendqisi2
 583 075c 0020D8E5 		ldrb	r2, [r8]	@ zero_extendqisi2
 584 0760 0000D5E5 		ldrb	r0, [r5]	@ zero_extendqisi2
 585 0764 022081E0 		add	r2, r1, r2
 586 0768 FF2002E2 		and	r2, r2, #255
 587 076c 0020C8E5 		strb	r2, [r8]
 588 0770 002082E0 		add	r2, r2, r0
 589 0774 24089FE5 		ldr	r0, .L383+4
 590 0778 0020C5E5 		strb	r2, [r5]
 591 077c FEFFFFEB 		bl	uart_transmit
 592 0780 6310D4E5 		ldrb	r1, [r4, #99]	@ zero_extendqisi2
 593 0784 0020D8E5 		ldrb	r2, [r8]	@ zero_extendqisi2
 594 0788 0000D5E5 		ldrb	r0, [r5]	@ zero_extendqisi2
 595 078c 022081E0 		add	r2, r1, r2
 596 0790 FF2002E2 		and	r2, r2, #255
 597 0794 0020C8E5 		strb	r2, [r8]
 598 0798 002082E0 		add	r2, r2, r0
 599 079c FC079FE5 		ldr	r0, .L383+4
 600 07a0 0020C5E5 		strb	r2, [r5]
 601 07a4 FEFFFFEB 		bl	uart_transmit
 602 07a8 2410D4E5 		ldrb	r1, [r4, #36]	@ zero_extendqisi2
 603 07ac 0020D8E5 		ldrb	r2, [r8]	@ zero_extendqisi2
 604 07b0 0000D5E5 		ldrb	r0, [r5]	@ zero_extendqisi2
 605 07b4 022081E0 		add	r2, r1, r2
 606 07b8 FF2002E2 		and	r2, r2, #255
 607 07bc 0020C8E5 		strb	r2, [r8]
 608 07c0 002082E0 		add	r2, r2, r0
 609 07c4 D4079FE5 		ldr	r0, .L383+4
 610 07c8 0020C5E5 		strb	r2, [r5]
 611 07cc FEFFFFEB 		bl	uart_transmit
 612 07d0 1C289FE5 		ldr	r2, .L383+88
 613 07d4 0010D2E5 		ldrb	r1, [r2]	@ zero_extendqisi2
 614 07d8 0020D8E5 		ldrb	r2, [r8]	@ zero_extendqisi2
 615 07dc 0000D5E5 		ldrb	r0, [r5]	@ zero_extendqisi2
 616 07e0 022081E0 		add	r2, r1, r2
 617 07e4 FF2002E2 		and	r2, r2, #255
 618 07e8 0020C8E5 		strb	r2, [r8]
 619 07ec 002082E0 		add	r2, r2, r0
 620 07f0 A8079FE5 		ldr	r0, .L383+4
 621 07f4 0020C5E5 		strb	r2, [r5]
 622 07f8 FEFFFFEB 		bl	uart_transmit
 623 07fc 0010D8E5 		ldrb	r1, [r8]	@ zero_extendqisi2
 624 0800 98079FE5 		ldr	r0, .L383+4
 625 0804 FEFFFFEB 		bl	uart_transmit
 626 0808 90079FE5 		ldr	r0, .L383+4
 627 080c 0010D5E5 		ldrb	r1, [r5]	@ zero_extendqisi2
 628 0810 FEFFFFEB 		bl	uart_transmit
 629 0814 030000EA 		b	.L39
 630              	.L38:
 631 0818 38389FE5 		ldr	r3, .L383+188
 632 081c 0020D3E5 		ldrb	r2, [r3]	@ zero_extendqisi2
 633 0820 012082E2 		add	r2, r2, #1
 634 0824 0020C3E5 		strb	r2, [r3]
 635              	.L39:
 636 0828 B4279FE5 		ldr	r2, .L383+72
 637 082c 5B30D2E5 		ldrb	r3, [r2, #91]	@ zero_extendqisi2
 638 0830 030053E3 		cmp	r3, #3
 639 0834 B8379FE5 		ldr	r3, .L383+88
 640 0838 0400000A 		beq	.L40
 641 083c 6410D2E5 		ldrb	r1, [r2, #100]	@ zero_extendqisi2
 642 0840 0000D3E5 		ldrb	r0, [r3]	@ zero_extendqisi2
 643 0844 010050E1 		cmp	r0, r1
 644 0848 0010A023 		movcs	r1, #0
 645 084c 0010C325 		strcsb	r1, [r3]
 646              	.L40:
 647 0850 0000D3E5 		ldrb	r0, [r3]	@ zero_extendqisi2
 648 0854 6410D2E5 		ldrb	r1, [r2, #100]	@ zero_extendqisi2
 649 0858 810050E1 		cmp	r0, r1, asl #1
 650 085c 90079FA5 		ldrge	r0, .L383+88
 651 0860 00C0A0A3 		movge	ip, #0
 652 0864 00C0C0A5 		strgeb	ip, [r0]
 653 0868 0030D3E5 		ldrb	r3, [r3]	@ zero_extendqisi2
 654 086c 010053E1 		cmp	r3, r1
 655 0870 7C479FE5 		ldr	r4, .L383+88
 656 0874 9400002A 		bcs	.L42
 657 0878 832182E0 		add	r2, r2, r3, asl #3
 658 087c 6930D2E5 		ldrb	r3, [r2, #105]	@ zero_extendqisi2
 659 0880 000053E3 		cmp	r3, #0
 660 0884 58579FE5 		ldr	r5, .L383+72
 661 0888 8F00000A 		beq	.L42
 662 088c 0C079FE5 		ldr	r0, .L383+4
 663 0890 0E10A0E3 		mov	r1, #14
 664 0894 FEFFFFEB 		bl	uart_check_free_space
 665 0898 000050E3 		cmp	r0, #0
 666 089c 8600000A 		beq	.L43
 667 08a0 FC369FE5 		ldr	r3, .L383+8
 668 08a4 B020D3E1 		ldrh	r2, [r3]
 669 08a8 0E2082E2 		add	r2, r2, #14
 670 08ac B020C3E1 		strh	r2, [r3]	@ movhi
 671 08b0 68379FE5 		ldr	r3, .L383+132
 672 08b4 B020D3E1 		ldrh	r2, [r3]
 673 08b8 E0069FE5 		ldr	r0, .L383+4
 674 08bc 012082E2 		add	r2, r2, #1
 675 08c0 9910A0E3 		mov	r1, #153
 676 08c4 6C879FE5 		ldr	r8, .L383+156
 677 08c8 B020C3E1 		strh	r2, [r3]	@ movhi
 678 08cc FEFFFFEB 		bl	uart_transmit
 679 08d0 C8069FE5 		ldr	r0, .L383+4
 680 08d4 0E10A0E3 		mov	r1, #14
 681 08d8 54979FE5 		ldr	r9, .L383+152
 682 08dc FEFFFFEB 		bl	uart_transmit
 683 08e0 1E10A0E3 		mov	r1, #30
 684 08e4 1030A0E3 		mov	r3, #16
 685 08e8 0010C8E5 		strb	r1, [r8]
 686 08ec AC069FE5 		ldr	r0, .L383+4
 687 08f0 0210A0E3 		mov	r1, #2
 688 08f4 0030C9E5 		strb	r3, [r9]
 689 08f8 FEFFFFEB 		bl	uart_transmit
 690 08fc 0010D9E5 		ldrb	r1, [r9]	@ zero_extendqisi2
 691 0900 0000D8E5 		ldrb	r0, [r8]	@ zero_extendqisi2
 692 0904 191081E2 		add	r1, r1, #25
 693 0908 FF1001E2 		and	r1, r1, #255
 694 090c 0010C9E5 		strb	r1, [r9]
 695 0910 001081E0 		add	r1, r1, r0
 696 0914 0010C8E5 		strb	r1, [r8]
 697 0918 80069FE5 		ldr	r0, .L383+4
 698 091c 1910A0E3 		mov	r1, #25
 699 0920 FEFFFFEB 		bl	uart_transmit
 700 0924 0010D4E5 		ldrb	r1, [r4]	@ zero_extendqisi2
 701 0928 0000D9E5 		ldrb	r0, [r9]	@ zero_extendqisi2
 702 092c 00C0D8E5 		ldrb	ip, [r8]	@ zero_extendqisi2
 703 0930 000081E0 		add	r0, r1, r0
 704 0934 FF0000E2 		and	r0, r0, #255
 705 0938 0000C9E5 		strb	r0, [r9]
 706 093c 0C0080E0 		add	r0, r0, ip
 707 0940 0000C8E5 		strb	r0, [r8]
 708 0944 54069FE5 		ldr	r0, .L383+4
 709 0948 FEFFFFEB 		bl	uart_transmit
 710 094c 0010D4E5 		ldrb	r1, [r4]	@ zero_extendqisi2
 711 0950 811185E0 		add	r1, r5, r1, asl #3
 712 0954 0000D9E5 		ldrb	r0, [r9]	@ zero_extendqisi2
 713 0958 6610D1E5 		ldrb	r1, [r1, #102]	@ zero_extendqisi2
 714 095c 00C0D8E5 		ldrb	ip, [r8]	@ zero_extendqisi2
 715 0960 000081E0 		add	r0, r1, r0
 716 0964 FF0000E2 		and	r0, r0, #255
 717 0968 0000C9E5 		strb	r0, [r9]
 718 096c 0C0080E0 		add	r0, r0, ip
 719 0970 0000C8E5 		strb	r0, [r8]
 720 0974 24069FE5 		ldr	r0, .L383+4
 721 0978 FEFFFFEB 		bl	uart_transmit
 722 097c 0010D4E5 		ldrb	r1, [r4]	@ zero_extendqisi2
 723 0980 811185E0 		add	r1, r5, r1, asl #3
 724 0984 0000D9E5 		ldrb	r0, [r9]	@ zero_extendqisi2
 725 0988 6710D1E5 		ldrb	r1, [r1, #103]	@ zero_extendqisi2
 726 098c 00C0D8E5 		ldrb	ip, [r8]	@ zero_extendqisi2
 727 0990 000081E0 		add	r0, r1, r0
 728 0994 FF0000E2 		and	r0, r0, #255
 729 0998 0000C9E5 		strb	r0, [r9]
 730 099c 0C0080E0 		add	r0, r0, ip
 731 09a0 0000C8E5 		strb	r0, [r8]
 732 09a4 F4059FE5 		ldr	r0, .L383+4
 733 09a8 FEFFFFEB 		bl	uart_transmit
 734 09ac 0010D4E5 		ldrb	r1, [r4]	@ zero_extendqisi2
 735 09b0 811185E0 		add	r1, r5, r1, asl #3
 736 09b4 0000D9E5 		ldrb	r0, [r9]	@ zero_extendqisi2
 737 09b8 6810D1E5 		ldrb	r1, [r1, #104]	@ zero_extendqisi2
 738 09bc 00C0D8E5 		ldrb	ip, [r8]	@ zero_extendqisi2
 739 09c0 000081E0 		add	r0, r1, r0
 740 09c4 FF0000E2 		and	r0, r0, #255
 741 09c8 0000C9E5 		strb	r0, [r9]
 742 09cc 0C0080E0 		add	r0, r0, ip
 743 09d0 0000C8E5 		strb	r0, [r8]
 744 09d4 C4059FE5 		ldr	r0, .L383+4
 745 09d8 FEFFFFEB 		bl	uart_transmit
 746 09dc 0010D4E5 		ldrb	r1, [r4]	@ zero_extendqisi2
 747 09e0 811185E0 		add	r1, r5, r1, asl #3
 748 09e4 0000D9E5 		ldrb	r0, [r9]	@ zero_extendqisi2
 749 09e8 6910D1E5 		ldrb	r1, [r1, #105]	@ zero_extendqisi2
 750 09ec 00C0D8E5 		ldrb	ip, [r8]	@ zero_extendqisi2
 751 09f0 000081E0 		add	r0, r1, r0
 752 09f4 FF0000E2 		and	r0, r0, #255
 753 09f8 0000C9E5 		strb	r0, [r9]
 754 09fc 0C0080E0 		add	r0, r0, ip
 755 0a00 0000C8E5 		strb	r0, [r8]
 756 0a04 94059FE5 		ldr	r0, .L383+4
 757 0a08 FEFFFFEB 		bl	uart_transmit
 758 0a0c 0010D4E5 		ldrb	r1, [r4]	@ zero_extendqisi2
 759 0a10 811185E0 		add	r1, r5, r1, asl #3
 760 0a14 0000D9E5 		ldrb	r0, [r9]	@ zero_extendqisi2
 761 0a18 6A10D1E5 		ldrb	r1, [r1, #106]	@ zero_extendqisi2
 762 0a1c 00C0D8E5 		ldrb	ip, [r8]	@ zero_extendqisi2
 763 0a20 000081E0 		add	r0, r1, r0
 764 0a24 FF0000E2 		and	r0, r0, #255
 765 0a28 0000C9E5 		strb	r0, [r9]
 766 0a2c 0C0080E0 		add	r0, r0, ip
 767 0a30 0000C8E5 		strb	r0, [r8]
 768 0a34 64059FE5 		ldr	r0, .L383+4
 769 0a38 FEFFFFEB 		bl	uart_transmit
 770 0a3c 0010D4E5 		ldrb	r1, [r4]	@ zero_extendqisi2
 771 0a40 0C5085E2 		add	r5, r5, #12
 772 0a44 0C1081E2 		add	r1, r1, #12
 773 0a48 8111D5E7 		ldrb	r1, [r5, r1, asl #3]	@ zero_extendqisi2
 774 0a4c 0000D9E5 		ldrb	r0, [r9]	@ zero_extendqisi2
 775 0a50 00C0D8E5 		ldrb	ip, [r8]	@ zero_extendqisi2
 776 0a54 000081E0 		add	r0, r1, r0
 777 0a58 FF0000E2 		and	r0, r0, #255
 778 0a5c 0000C9E5 		strb	r0, [r9]
 779 0a60 0C0080E0 		add	r0, r0, ip
 780 0a64 0000C8E5 		strb	r0, [r8]
 781 0a68 30059FE5 		ldr	r0, .L383+4
 782 0a6c FEFFFFEB 		bl	uart_transmit
 783 0a70 0010D4E5 		ldrb	r1, [r4]	@ zero_extendqisi2
 784 0a74 815185E0 		add	r5, r5, r1, asl #3
 785 0a78 6110D5E5 		ldrb	r1, [r5, #97]	@ zero_extendqisi2
 786 0a7c 0000D9E5 		ldrb	r0, [r9]	@ zero_extendqisi2
 787 0a80 00C0D8E5 		ldrb	ip, [r8]	@ zero_extendqisi2
 788 0a84 000081E0 		add	r0, r1, r0
 789 0a88 FF0000E2 		and	r0, r0, #255
 790 0a8c 0000C9E5 		strb	r0, [r9]
 791 0a90 0C0080E0 		add	r0, r0, ip
 792 0a94 0000C8E5 		strb	r0, [r8]
 793 0a98 00059FE5 		ldr	r0, .L383+4
 794 0a9c FEFFFFEB 		bl	uart_transmit
 795 0aa0 0010D9E5 		ldrb	r1, [r9]	@ zero_extendqisi2
 796 0aa4 F4049FE5 		ldr	r0, .L383+4
 797 0aa8 FEFFFFEB 		bl	uart_transmit
 798 0aac EC049FE5 		ldr	r0, .L383+4
 799 0ab0 0010D8E5 		ldrb	r1, [r8]	@ zero_extendqisi2
 800 0ab4 FEFFFFEB 		bl	uart_transmit
 801 0ab8 030000EA 		b	.L42
 802              	.L43:
 803 0abc 94359FE5 		ldr	r3, .L383+188
 804 0ac0 0020D3E5 		ldrb	r2, [r3]	@ zero_extendqisi2
 805 0ac4 012082E2 		add	r2, r2, #1
 806 0ac8 0020C3E5 		strb	r2, [r3]
 807              	.L42:
 808 0acc 20359FE5 		ldr	r3, .L383+88
 809 0ad0 0020D3E5 		ldrb	r2, [r3]	@ zero_extendqisi2
 810 0ad4 012082E2 		add	r2, r2, #1
 811 0ad8 0020C3E5 		strb	r2, [r3]
 812              	.L37:
 813 0adc 0030D7E5 		ldrb	r3, [r7]	@ zero_extendqisi2
 814 0ae0 000053E3 		cmp	r3, #0
 815 0ae4 8200001A 		bne	.L44
 816 0ae8 B0049FE5 		ldr	r0, .L383+4
 817 0aec 0E10A0E3 		mov	r1, #14
 818 0af0 FEFFFFEB 		bl	uart_check_free_space
 819 0af4 000050E3 		cmp	r0, #0
 820 0af8 7900000A 		beq	.L45
 821 0afc A0349FE5 		ldr	r3, .L383+8
 822 0b00 B020D3E1 		ldrh	r2, [r3]
 823 0b04 0E2082E2 		add	r2, r2, #14
 824 0b08 B020C3E1 		strh	r2, [r3]	@ movhi
 825 0b0c 0C359FE5 		ldr	r3, .L383+132
 826 0b10 B020D3E1 		ldrh	r2, [r3]
 827 0b14 84049FE5 		ldr	r0, .L383+4
 828 0b18 012082E2 		add	r2, r2, #1
 829 0b1c 9910A0E3 		mov	r1, #153
 830 0b20 0C759FE5 		ldr	r7, .L383+152
 831 0b24 B020C3E1 		strh	r2, [r3]	@ movhi
 832 0b28 FEFFFFEB 		bl	uart_transmit
 833 0b2c 6C049FE5 		ldr	r0, .L383+4
 834 0b30 0E10A0E3 		mov	r1, #14
 835 0b34 FC449FE5 		ldr	r4, .L383+156
 836 0b38 FEFFFFEB 		bl	uart_transmit
 837 0b3c 1030A0E3 		mov	r3, #16
 838 0b40 0030C7E5 		strb	r3, [r7]
 839 0b44 54049FE5 		ldr	r0, .L383+4
 840 0b48 1E30A0E3 		mov	r3, #30
 841 0b4c 0210A0E3 		mov	r1, #2
 842 0b50 0030C4E5 		strb	r3, [r4]
 843 0b54 FEFFFFEB 		bl	uart_transmit
 844 0b58 0030D7E5 		ldrb	r3, [r7]	@ zero_extendqisi2
 845 0b5c 0020D4E5 		ldrb	r2, [r4]	@ zero_extendqisi2
 846 0b60 2A3083E2 		add	r3, r3, #42
 847 0b64 8C549FE5 		ldr	r5, .L383+92
 848 0b68 FF3003E2 		and	r3, r3, #255
 849 0b6c 0030C7E5 		strb	r3, [r7]
 850 0b70 28049FE5 		ldr	r0, .L383+4
 851 0b74 023083E0 		add	r3, r3, r2
 852 0b78 2A10A0E3 		mov	r1, #42
 853 0b7c 0030C4E5 		strb	r3, [r4]
 854 0b80 FEFFFFEB 		bl	uart_transmit
 855 0b84 0010D5E5 		ldrb	r1, [r5]	@ zero_extendqisi2
 856 0b88 0030D7E5 		ldrb	r3, [r7]	@ zero_extendqisi2
 857 0b8c 0020D4E5 		ldrb	r2, [r4]	@ zero_extendqisi2
 858 0b90 033081E0 		add	r3, r1, r3
 859 0b94 FF3003E2 		and	r3, r3, #255
 860 0b98 0030C7E5 		strb	r3, [r7]
 861 0b9c FC039FE5 		ldr	r0, .L383+4
 862 0ba0 023083E0 		add	r3, r3, r2
 863 0ba4 0030C4E5 		strb	r3, [r4]
 864 0ba8 FEFFFFEB 		bl	uart_transmit
 865 0bac 0110D5E5 		ldrb	r1, [r5, #1]	@ zero_extendqisi2
 866 0bb0 0030D7E5 		ldrb	r3, [r7]	@ zero_extendqisi2
 867 0bb4 0020D4E5 		ldrb	r2, [r4]	@ zero_extendqisi2
 868 0bb8 033081E0 		add	r3, r1, r3
 869 0bbc FF3003E2 		and	r3, r3, #255
 870 0bc0 0030C7E5 		strb	r3, [r7]
 871 0bc4 D4039FE5 		ldr	r0, .L383+4
 872 0bc8 023083E0 		add	r3, r3, r2
 873 0bcc 0030C4E5 		strb	r3, [r4]
 874 0bd0 FEFFFFEB 		bl	uart_transmit
 875 0bd4 0210D5E5 		ldrb	r1, [r5, #2]	@ zero_extendqisi2
 876 0bd8 0030D7E5 		ldrb	r3, [r7]	@ zero_extendqisi2
 877 0bdc 0020D4E5 		ldrb	r2, [r4]	@ zero_extendqisi2
 878 0be0 033081E0 		add	r3, r1, r3
 879 0be4 FF3003E2 		and	r3, r3, #255
 880 0be8 0030C7E5 		strb	r3, [r7]
 881 0bec AC039FE5 		ldr	r0, .L383+4
 882 0bf0 023083E0 		add	r3, r3, r2
 883 0bf4 0030C4E5 		strb	r3, [r4]
 884 0bf8 FEFFFFEB 		bl	uart_transmit
 885 0bfc 0310D5E5 		ldrb	r1, [r5, #3]	@ zero_extendqisi2
 886 0c00 0030D7E5 		ldrb	r3, [r7]	@ zero_extendqisi2
 887 0c04 0020D4E5 		ldrb	r2, [r4]	@ zero_extendqisi2
 888 0c08 033081E0 		add	r3, r1, r3
 889 0c0c E8539FE5 		ldr	r5, .L383+96
 890 0c10 FF3003E2 		and	r3, r3, #255
 891 0c14 0030C7E5 		strb	r3, [r7]
 892 0c18 80039FE5 		ldr	r0, .L383+4
 893 0c1c 023083E0 		add	r3, r3, r2
 894 0c20 0030C4E5 		strb	r3, [r4]
 895 0c24 FEFFFFEB 		bl	uart_transmit
 896 0c28 0010D5E5 		ldrb	r1, [r5]	@ zero_extendqisi2
 897 0c2c 0030D7E5 		ldrb	r3, [r7]	@ zero_extendqisi2
 898 0c30 0020D4E5 		ldrb	r2, [r4]	@ zero_extendqisi2
 899 0c34 033081E0 		add	r3, r1, r3
 900 0c38 FF3003E2 		and	r3, r3, #255
 901 0c3c 0030C7E5 		strb	r3, [r7]
 902 0c40 58039FE5 		ldr	r0, .L383+4
 903 0c44 023083E0 		add	r3, r3, r2
 904 0c48 0030C4E5 		strb	r3, [r4]
 905 0c4c FEFFFFEB 		bl	uart_transmit
 906 0c50 0110D5E5 		ldrb	r1, [r5, #1]	@ zero_extendqisi2
 907 0c54 0030D7E5 		ldrb	r3, [r7]	@ zero_extendqisi2
 908 0c58 0020D4E5 		ldrb	r2, [r4]	@ zero_extendqisi2
 909 0c5c 033081E0 		add	r3, r1, r3
 910 0c60 FF3003E2 		and	r3, r3, #255
 911 0c64 0030C7E5 		strb	r3, [r7]
 912 0c68 30039FE5 		ldr	r0, .L383+4
 913 0c6c 023083E0 		add	r3, r3, r2
 914 0c70 0030C4E5 		strb	r3, [r4]
 915 0c74 FEFFFFEB 		bl	uart_transmit
 916 0c78 0210D5E5 		ldrb	r1, [r5, #2]	@ zero_extendqisi2
 917 0c7c 0030D7E5 		ldrb	r3, [r7]	@ zero_extendqisi2
 918 0c80 0020D4E5 		ldrb	r2, [r4]	@ zero_extendqisi2
 919 0c84 033081E0 		add	r3, r1, r3
 920 0c88 FF3003E2 		and	r3, r3, #255
 921 0c8c 0030C7E5 		strb	r3, [r7]
 922 0c90 08039FE5 		ldr	r0, .L383+4
 923 0c94 023083E0 		add	r3, r3, r2
 924 0c98 0030C4E5 		strb	r3, [r4]
 925 0c9c FEFFFFEB 		bl	uart_transmit
 926 0ca0 0310D5E5 		ldrb	r1, [r5, #3]	@ zero_extendqisi2
 927 0ca4 0030D7E5 		ldrb	r3, [r7]	@ zero_extendqisi2
 928 0ca8 0020D4E5 		ldrb	r2, [r4]	@ zero_extendqisi2
 929 0cac 033081E0 		add	r3, r1, r3
 930 0cb0 FF3003E2 		and	r3, r3, #255
 931 0cb4 0030C7E5 		strb	r3, [r7]
 932 0cb8 E0029FE5 		ldr	r0, .L383+4
 933 0cbc 023083E0 		add	r3, r3, r2
 934 0cc0 0030C4E5 		strb	r3, [r4]
 935 0cc4 FEFFFFEB 		bl	uart_transmit
 936 0cc8 0010D7E5 		ldrb	r1, [r7]	@ zero_extendqisi2
 937 0ccc CC029FE5 		ldr	r0, .L383+4
 938 0cd0 FEFFFFEB 		bl	uart_transmit
 939 0cd4 C4029FE5 		ldr	r0, .L383+4
 940 0cd8 0010D4E5 		ldrb	r1, [r4]	@ zero_extendqisi2
 941 0cdc FEFFFFEB 		bl	uart_transmit
 942 0ce0 030000EA 		b	.L44
 943              	.L45:
 944 0ce4 6C339FE5 		ldr	r3, .L383+188
 945 0ce8 0020D3E5 		ldrb	r2, [r3]	@ zero_extendqisi2
 946 0cec 012082E2 		add	r2, r2, #1
 947 0cf0 0020C3E5 		strb	r2, [r3]
 948              	.L44:
 949 0cf4 0070DBE5 		ldrb	r7, [fp]	@ zero_extendqisi2
 950 0cf8 060057E3 		cmp	r7, #6
 951 0cfc E700001A 		bne	.L46
 952 0d00 98029FE5 		ldr	r0, .L383+4
 953 0d04 1210A0E3 		mov	r1, #18
 954 0d08 FEFFFFEB 		bl	uart_check_free_space
 955 0d0c 000050E3 		cmp	r0, #0
 956 0d10 C201000A 		beq	.L50
 957 0d14 88329FE5 		ldr	r3, .L383+8
 958 0d18 B020D3E1 		ldrh	r2, [r3]
 959 0d1c 122082E2 		add	r2, r2, #18
 960 0d20 B020C3E1 		strh	r2, [r3]	@ movhi
 961 0d24 F4329FE5 		ldr	r3, .L383+132
 962 0d28 B020D3E1 		ldrh	r2, [r3]
 963 0d2c 6C029FE5 		ldr	r0, .L383+4
 964 0d30 012082E2 		add	r2, r2, #1
 965 0d34 9910A0E3 		mov	r1, #153
 966 0d38 F4529FE5 		ldr	r5, .L383+152
 967 0d3c B020C3E1 		strh	r2, [r3]	@ movhi
 968 0d40 FEFFFFEB 		bl	uart_transmit
 969 0d44 54029FE5 		ldr	r0, .L383+4
 970 0d48 1210A0E3 		mov	r1, #18
 971 0d4c E4429FE5 		ldr	r4, .L383+156
 972 0d50 FEFFFFEB 		bl	uart_transmit
 973 0d54 1430A0E3 		mov	r3, #20
 974 0d58 0030C5E5 		strb	r3, [r5]
 975 0d5c 3C029FE5 		ldr	r0, .L383+4
 976 0d60 2630A0E3 		mov	r3, #38
 977 0d64 0210A0E3 		mov	r1, #2
 978 0d68 0030C4E5 		strb	r3, [r4]
 979 0d6c FEFFFFEB 		bl	uart_transmit
 980 0d70 0030D5E5 		ldrb	r3, [r5]	@ zero_extendqisi2
 981 0d74 0020D4E5 		ldrb	r2, [r4]	@ zero_extendqisi2
 982 0d78 063083E2 		add	r3, r3, #6
 983 0d7c 0710A0E1 		mov	r1, r7
 984 0d80 FF3003E2 		and	r3, r3, #255
 985 0d84 74729FE5 		ldr	r7, .L383+100
 986 0d88 0030C5E5 		strb	r3, [r5]
 987 0d8c 0C029FE5 		ldr	r0, .L383+4
 988 0d90 023083E0 		add	r3, r3, r2
 989 0d94 0030C4E5 		strb	r3, [r4]
 990 0d98 FEFFFFEB 		bl	uart_transmit
 991 0d9c 0010D7E5 		ldrb	r1, [r7]	@ zero_extendqisi2
 992 0da0 0030D5E5 		ldrb	r3, [r5]	@ zero_extendqisi2
 993 0da4 0020D4E5 		ldrb	r2, [r4]	@ zero_extendqisi2
 994 0da8 033081E0 		add	r3, r1, r3
 995 0dac FF3003E2 		and	r3, r3, #255
 996 0db0 0030C5E5 		strb	r3, [r5]
 997 0db4 E4019FE5 		ldr	r0, .L383+4
 998 0db8 023083E0 		add	r3, r3, r2
 999 0dbc 0030C4E5 		strb	r3, [r4]
 1000 0dc0 FEFFFFEB 		bl	uart_transmit
 1001 0dc4 0110D7E5 		ldrb	r1, [r7, #1]	@ zero_extendqisi2
 1002 0dc8 0030D5E5 		ldrb	r3, [r5]	@ zero_extendqisi2
 1003 0dcc 0020D4E5 		ldrb	r2, [r4]	@ zero_extendqisi2
 1004 0dd0 033081E0 		add	r3, r1, r3
 1005 0dd4 FF3003E2 		and	r3, r3, #255
 1006 0dd8 0030C5E5 		strb	r3, [r5]
 1007 0ddc BC019FE5 		ldr	r0, .L383+4
 1008 0de0 023083E0 		add	r3, r3, r2
 1009 0de4 0030C4E5 		strb	r3, [r4]
 1010 0de8 FEFFFFEB 		bl	uart_transmit
 1011 0dec 0210D7E5 		ldrb	r1, [r7, #2]	@ zero_extendqisi2
 1012 0df0 0030D5E5 		ldrb	r3, [r5]	@ zero_extendqisi2
 1013 0df4 0020D4E5 		ldrb	r2, [r4]	@ zero_extendqisi2
 1014 0df8 033081E0 		add	r3, r1, r3
 1015 0dfc FF3003E2 		and	r3, r3, #255
 1016 0e00 0030C5E5 		strb	r3, [r5]
 1017 0e04 94019FE5 		ldr	r0, .L383+4
 1018 0e08 023083E0 		add	r3, r3, r2
 1019 0e0c 0030C4E5 		strb	r3, [r4]
 1020 0e10 FEFFFFEB 		bl	uart_transmit
 1021 0e14 0310D7E5 		ldrb	r1, [r7, #3]	@ zero_extendqisi2
 1022 0e18 0030D5E5 		ldrb	r3, [r5]	@ zero_extendqisi2
 1023 0e1c 0020D4E5 		ldrb	r2, [r4]	@ zero_extendqisi2
 1024 0e20 033081E0 		add	r3, r1, r3
 1025 0e24 D8719FE5 		ldr	r7, .L383+104
 1026 0e28 FF3003E2 		and	r3, r3, #255
 1027 0e2c 0030C5E5 		strb	r3, [r5]
 1028 0e30 68019FE5 		ldr	r0, .L383+4
 1029 0e34 023083E0 		add	r3, r3, r2
 1030 0e38 0030C4E5 		strb	r3, [r4]
 1031 0e3c FEFFFFEB 		bl	uart_transmit
 1032 0e40 0010D7E5 		ldrb	r1, [r7]	@ zero_extendqisi2
 1033 0e44 0030D5E5 		ldrb	r3, [r5]	@ zero_extendqisi2
 1034 0e48 0020D4E5 		ldrb	r2, [r4]	@ zero_extendqisi2
 1035 0e4c 033081E0 		add	r3, r1, r3
 1036 0e50 FF3003E2 		and	r3, r3, #255
 1037 0e54 0030C5E5 		strb	r3, [r5]
 1038 0e58 40019FE5 		ldr	r0, .L383+4
 1039 0e5c 023083E0 		add	r3, r3, r2
 1040 0e60 0030C4E5 		strb	r3, [r4]
 1041 0e64 FEFFFFEB 		bl	uart_transmit
 1042 0e68 0110D7E5 		ldrb	r1, [r7, #1]	@ zero_extendqisi2
 1043 0e6c 0030D5E5 		ldrb	r3, [r5]	@ zero_extendqisi2
 1044 0e70 0020D4E5 		ldrb	r2, [r4]	@ zero_extendqisi2
 1045 0e74 033081E0 		add	r3, r1, r3
 1046 0e78 FF3003E2 		and	r3, r3, #255
 1047 0e7c 0030C5E5 		strb	r3, [r5]
 1048 0e80 18019FE5 		ldr	r0, .L383+4
 1049 0e84 023083E0 		add	r3, r3, r2
 1050 0e88 0030C4E5 		strb	r3, [r4]
 1051 0e8c FEFFFFEB 		bl	uart_transmit
 1052 0e90 0210D7E5 		ldrb	r1, [r7, #2]	@ zero_extendqisi2
 1053 0e94 0030D5E5 		ldrb	r3, [r5]	@ zero_extendqisi2
 1054 0e98 0020D4E5 		ldrb	r2, [r4]	@ zero_extendqisi2
 1055 0e9c 033081E0 		add	r3, r1, r3
 1056 0ea0 FF3003E2 		and	r3, r3, #255
 1057 0ea4 0030C5E5 		strb	r3, [r5]
 1058 0ea8 F0009FE5 		ldr	r0, .L383+4
 1059 0eac 023083E0 		add	r3, r3, r2
 1060 0eb0 0030C4E5 		strb	r3, [r4]
 1061 0eb4 FEFFFFEB 		bl	uart_transmit
 1062 0eb8 0310D7E5 		ldrb	r1, [r7, #3]	@ zero_extendqisi2
 1063 0ebc 0030D5E5 		ldrb	r3, [r5]	@ zero_extendqisi2
 1064 0ec0 0020D4E5 		ldrb	r2, [r4]	@ zero_extendqisi2
 1065 0ec4 033081E0 		add	r3, r1, r3
 1066 0ec8 38719FE5 		ldr	r7, .L383+108
 1067 0ecc FF3003E2 		and	r3, r3, #255
 1068 0ed0 0030C5E5 		strb	r3, [r5]
 1069 0ed4 C4009FE5 		ldr	r0, .L383+4
 1070 0ed8 023083E0 		add	r3, r3, r2
 1071 0edc 0030C4E5 		strb	r3, [r4]
 1072 0ee0 FEFFFFEB 		bl	uart_transmit
 1073 0ee4 0010D7E5 		ldrb	r1, [r7]	@ zero_extendqisi2
 1074 0ee8 0030D5E5 		ldrb	r3, [r5]	@ zero_extendqisi2
 1075 0eec 0020D4E5 		ldrb	r2, [r4]	@ zero_extendqisi2
 1076 0ef0 033081E0 		add	r3, r1, r3
 1077 0ef4 FF3003E2 		and	r3, r3, #255
 1078 0ef8 0030C5E5 		strb	r3, [r5]
 1079 0efc 9C009FE5 		ldr	r0, .L383+4
 1080 0f00 023083E0 		add	r3, r3, r2
 1081 0f04 0030C4E5 		strb	r3, [r4]
 1082 0f08 FEFFFFEB 		bl	uart_transmit
 1083 0f0c 0110D7E5 		ldrb	r1, [r7, #1]	@ zero_extendqisi2
 1084 0f10 0030D5E5 		ldrb	r3, [r5]	@ zero_extendqisi2
 1085 0f14 0020D4E5 		ldrb	r2, [r4]	@ zero_extendqisi2
 1086 0f18 033081E0 		add	r3, r1, r3
 1087 0f1c FF3003E2 		and	r3, r3, #255
 1088 0f20 0030C5E5 		strb	r3, [r5]
 1089 0f24 74009FE5 		ldr	r0, .L383+4
 1090 0f28 023083E0 		add	r3, r3, r2
 1091 0f2c 0030C4E5 		strb	r3, [r4]
 1092 0f30 FEFFFFEB 		bl	uart_transmit
 1093 0f34 0210D7E5 		ldrb	r1, [r7, #2]	@ zero_extendqisi2
 1094 0f38 0030D5E5 		ldrb	r3, [r5]	@ zero_extendqisi2
 1095 0f3c 0020D4E5 		ldrb	r2, [r4]	@ zero_extendqisi2
 1096 0f40 033081E0 		add	r3, r1, r3
 1097 0f44 FF3003E2 		and	r3, r3, #255
 1098 0f48 0030C5E5 		strb	r3, [r5]
 1099 0f4c 4C009FE5 		ldr	r0, .L383+4
 1100 0f50 023083E0 		add	r3, r3, r2
 1101 0f54 0030C4E5 		strb	r3, [r4]
 1102 0f58 FEFFFFEB 		bl	uart_transmit
 1103 0f5c 0310D7E5 		ldrb	r1, [r7, #3]	@ zero_extendqisi2
 1104 0f60 0030D5E5 		ldrb	r3, [r5]	@ zero_extendqisi2
 1105 0f64 0020D4E5 		ldrb	r2, [r4]	@ zero_extendqisi2
 1106 0f68 033081E0 		add	r3, r1, r3
 1107 0f6c FF3003E2 		and	r3, r3, #255
 1108 0f70 0030C5E5 		strb	r3, [r5]
 1109 0f74 24009FE5 		ldr	r0, .L383+4
 1110 0f78 023083E0 		add	r3, r3, r2
 1111 0f7c 0030C4E5 		strb	r3, [r4]
 1112 0f80 FEFFFFEB 		bl	uart_transmit
 1113 0f84 14009FE5 		ldr	r0, .L383+4
 1114 0f88 0010D5E5 		ldrb	r1, [r5]	@ zero_extendqisi2
 1115 0f8c FEFFFFEB 		bl	uart_transmit
 1116 0f90 08009FE5 		ldr	r0, .L383+4
 1117 0f94 0010D4E5 		ldrb	r1, [r4]	@ zero_extendqisi2
 1118 0f98 1E0100EA 		b	.L344
 1119              	.L384:
 1120              		.align	2
 1121              	.L383:
 1122 0f9c 00000000 		.word	.LANCHOR0
 1123 0fa0 00000000 		.word	uart1
 1124 0fa4 00000000 		.word	downlink_nb_bytes
 1125 0fa8 00000000 		.word	.LANCHOR1
 1126 0fac 00000000 		.word	telemetry_mode_Ap
 1127 0fb0 00000000 		.word	.LANCHOR2
 1128 0fb4 00000000 		.word	.LANCHOR3
 1129 0fb8 00000000 		.word	.LANCHOR4
 1130 0fbc 00000000 		.word	.LANCHOR6
 1131 0fc0 00000000 		.word	.LANCHOR7
 1132 0fc4 00000000 		.word	.LANCHOR8
 1133 0fc8 00000000 		.word	.LANCHOR9
 1134 0fcc 00000000 		.word	.LANCHOR10
 1135 0fd0 00000000 		.word	.LANCHOR11
 1136 0fd4 00000000 		.word	.LANCHOR12
 1137 0fd8 00000000 		.word	.LANCHOR13
 1138 0fdc 31010000 		.word	305
 1139 0fe0 00000000 		.word	.LANCHOR14
 1140 0fe4 00000000 		.word	gps
 1141 0fe8 F8C1631A 		.word	442745336
 1142 0fec DCA54C40 		.word	1078765020
 1143 0ff0 80842E41 		.word	1093567616
 1144 0ff4 00000000 		.word	.LANCHOR15
 1145 0ff8 00000000 		.word	estimator_z
 1146 0ffc 00000000 		.word	estimator_z_dot
 1147 1000 00000000 		.word	estimator_phi
 1148 1004 00000000 		.word	estimator_psi
 1149 1008 00000000 		.word	estimator_theta
 1150 100c 00000000 		.word	nb_waypoint
 1151 1010 00000000 		.word	nav_utm_east0
 1152 1014 00000000 		.word	waypoints
 1153 1018 00000000 		.word	nav_utm_north0
 1154 101c 00000000 		.word	.LANCHOR16
 1155 1020 00000000 		.word	downlink_nb_msgs
 1156 1024 00000000 		.word	nav_utm_zone0
 1157 1028 00000000 		.word	nav_circle_radians
 1158 102c 182D4454 		.word	1413754136
 1159 1030 FB211940 		.word	1075388923
 1160 1034 00000000 		.word	ck_a
 1161 1038 00000000 		.word	ck_b
 1162 103c 00000000 		.word	nav_block
 1163 1040 00000000 		.word	nav_stage
 1164 1044 00000000 		.word	estimator_x
 1165 1048 00000000 		.word	estimator_y
 1166 104c 00000000 		.word	dist2_to_wp
 1167 1050 00000000 		.word	dist2_to_home
 1168 1054 00000000 		.word	nav_oval_count
 1169 1058 00000000 		.word	downlink_nb_ovrn
 1170 105c 00000000 		.word	.LANCHOR5
 1171 1060 00000000 		.word	nav_in_circle
 1172 1064 00000000 		.word	nav_circle_x
 1173 1068 00000000 		.word	nav_circle_y
 1174 106c 00000000 		.word	nav_circle_radius
 1175 1070 00000000 		.word	downlink_nb_bytes
 1176 1074 00000000 		.word	downlink_nb_msgs
 1177 1078 00000000 		.word	ck_a
 1178 107c 00000000 		.word	ck_b
 1179 1080 00000000 		.word	h_ctl_roll_setpoint
 1180 1084 00000000 		.word	h_ctl_pitch_loop_setpoint
 1181 1088 00000000 		.word	h_ctl_course_setpoint
 1182 108c 00000000 		.word	desired_x
 1183 1090 00000000 		.word	desired_y
 1184 1094 00000000 		.word	v_ctl_altitude_setpoint
 1185 1098 00000000 		.word	v_ctl_climb_setpoint
 1186 109c 00000000 		.word	uart1
 1187              	.L46:
 1188 10a0 0C0057E3 		cmp	r7, #12
 1189 10a4 E100001A 		bne	.L48
 1190 10a8 94301FE5 		ldr	r3, .L383+128
 1191 10ac A8101FE5 		ldr	r1, .L383+112
 1192 10b0 0020D3E5 		ldrb	r2, [r3]	@ zero_extendqisi2
 1193 10b4 0010D1E5 		ldrb	r1, [r1]	@ zero_extendqisi2
 1194 10b8 012082E2 		add	r2, r2, #1
 1195 10bc FF2002E2 		and	r2, r2, #255
 1196 10c0 020051E1 		cmp	r1, r2
 1197 10c4 0020C3E5 		strb	r2, [r3]
 1198 10c8 0020A093 		movls	r2, #0
 1199 10cc 0020C395 		strlsb	r2, [r3]
 1200 10d0 00B0D3E5 		ldrb	fp, [r3]	@ zero_extendqisi2
 1201 10d4 CC301FE5 		ldr	r3, .L383+116
 1202 10d8 0C50A0E3 		mov	r5, #12
 1203 10dc 000093E5 		ldr	r0, [r3]
 1204 10e0 FEFFFFEB 		bl	__aeabi_i2f
 1205 10e4 950B03E0 		mul	r3, r5, fp
 1206 10e8 DC401FE5 		ldr	r4, .L383+120
 1207 10ec 031094E7 		ldr	r1, [r4, r3]	@ float
 1208 10f0 03B084E0 		add	fp, r4, r3
 1209 10f4 FEFFFFEB 		bl	__aeabi_fadd
 1210 10f8 E8301FE5 		ldr	r3, .L383+124
 1211 10fc 08008DE5 		str	r0, [sp, #8]	@ float
 1212 1100 000093E5 		ldr	r0, [r3]
 1213 1104 FEFFFFEB 		bl	__aeabi_i2f
 1214 1108 04109BE5 		ldr	r1, [fp, #4]	@ float
 1215 110c FEFFFFEB 		bl	__aeabi_fadd
 1216 1110 1410A0E3 		mov	r1, #20
 1217 1114 0C008DE5 		str	r0, [sp, #12]	@ float
 1218 1118 84001FE5 		ldr	r0, .L383+256
 1219 111c FEFFFFEB 		bl	uart_check_free_space
 1220 1120 000050E3 		cmp	r0, #0
 1221 1124 10711FE5 		ldr	r7, .L383+128
 1222 1128 BC00000A 		beq	.L50
 1223 112c C4301FE5 		ldr	r3, .L383+212
 1224 1130 B020D3E1 		ldrh	r2, [r3]
 1225 1134 142082E2 		add	r2, r2, #20
 1226 1138 B020C3E1 		strh	r2, [r3]	@ movhi
 1227 113c 24311FE5 		ldr	r3, .L383+132
 1228 1140 B020D3E1 		ldrh	r2, [r3]
 1229 1144 B0001FE5 		ldr	r0, .L383+256
 1230 1148 012082E2 		add	r2, r2, #1
 1231 114c 9910A0E3 		mov	r1, #153
 1232 1150 24811FE5 		ldr	r8, .L383+152
 1233 1154 B020C3E1 		strh	r2, [r3]	@ movhi
 1234 1158 FEFFFFEB 		bl	uart_transmit
 1235 115c C8001FE5 		ldr	r0, .L383+256
 1236 1160 1410A0E3 		mov	r1, #20
 1237 1164 34B11FE5 		ldr	fp, .L383+156
 1238 1168 FEFFFFEB 		bl	uart_transmit
 1239 116c 1620A0E3 		mov	r2, #22
 1240 1170 0020C8E5 		strb	r2, [r8]
 1241 1174 E0001FE5 		ldr	r0, .L383+256
 1242 1178 2A20A0E3 		mov	r2, #42
 1243 117c 0210A0E3 		mov	r1, #2
 1244 1180 0020CBE5 		strb	r2, [fp]
 1245 1184 FEFFFFEB 		bl	uart_transmit
 1246 1188 0020D8E5 		ldrb	r2, [r8]	@ zero_extendqisi2
 1247 118c 0010DBE5 		ldrb	r1, [fp]	@ zero_extendqisi2
 1248 1190 232082E2 		add	r2, r2, #35
 1249 1194 FF2002E2 		and	r2, r2, #255
 1250 1198 0020C8E5 		strb	r2, [r8]
 1251 119c 08011FE5 		ldr	r0, .L383+256
 1252 11a0 012082E0 		add	r2, r2, r1
 1253 11a4 2310A0E3 		mov	r1, #35
 1254 11a8 0020CBE5 		strb	r2, [fp]
 1255 11ac FEFFFFEB 		bl	uart_transmit
 1256 11b0 0010D7E5 		ldrb	r1, [r7]	@ zero_extendqisi2
 1257 11b4 0020D8E5 		ldrb	r2, [r8]	@ zero_extendqisi2
 1258 11b8 0000DBE5 		ldrb	r0, [fp]	@ zero_extendqisi2
 1259 11bc 022081E0 		add	r2, r1, r2
 1260 11c0 FF2002E2 		and	r2, r2, #255
 1261 11c4 0020C8E5 		strb	r2, [r8]
 1262 11c8 002082E0 		add	r2, r2, r0
 1263 11cc 38011FE5 		ldr	r0, .L383+256
 1264 11d0 0020CBE5 		strb	r2, [fp]
 1265 11d4 FEFFFFEB 		bl	uart_transmit
 1266 11d8 0810DDE5 		ldrb	r1, [sp, #8]	@ zero_extendqisi2
 1267 11dc 0020D8E5 		ldrb	r2, [r8]	@ zero_extendqisi2
 1268 11e0 0000DBE5 		ldrb	r0, [fp]	@ zero_extendqisi2
 1269 11e4 022081E0 		add	r2, r1, r2
 1270 11e8 FF2002E2 		and	r2, r2, #255
 1271 11ec 0020C8E5 		strb	r2, [r8]
 1272 11f0 002082E0 		add	r2, r2, r0
 1273 11f4 60011FE5 		ldr	r0, .L383+256
 1274 11f8 0020CBE5 		strb	r2, [fp]
 1275 11fc FEFFFFEB 		bl	uart_transmit
 1276 1200 0910DDE5 		ldrb	r1, [sp, #9]	@ zero_extendqisi2
 1277 1204 0020D8E5 		ldrb	r2, [r8]	@ zero_extendqisi2
 1278 1208 0000DBE5 		ldrb	r0, [fp]	@ zero_extendqisi2
 1279 120c 022081E0 		add	r2, r1, r2
 1280 1210 FF2002E2 		and	r2, r2, #255
 1281 1214 0020C8E5 		strb	r2, [r8]
 1282 1218 002082E0 		add	r2, r2, r0
 1283 121c 88011FE5 		ldr	r0, .L383+256
 1284 1220 0020CBE5 		strb	r2, [fp]
 1285 1224 FEFFFFEB 		bl	uart_transmit
 1286 1228 0A10DDE5 		ldrb	r1, [sp, #10]	@ zero_extendqisi2
 1287 122c 0020D8E5 		ldrb	r2, [r8]	@ zero_extendqisi2
 1288 1230 0000DBE5 		ldrb	r0, [fp]	@ zero_extendqisi2
 1289 1234 022081E0 		add	r2, r1, r2
 1290 1238 FF2002E2 		and	r2, r2, #255
 1291 123c 0020C8E5 		strb	r2, [r8]
 1292 1240 002082E0 		add	r2, r2, r0
 1293 1244 B0011FE5 		ldr	r0, .L383+256
 1294 1248 0020CBE5 		strb	r2, [fp]
 1295 124c FEFFFFEB 		bl	uart_transmit
 1296 1250 0B10DDE5 		ldrb	r1, [sp, #11]	@ zero_extendqisi2
 1297 1254 0020D8E5 		ldrb	r2, [r8]	@ zero_extendqisi2
 1298 1258 0000DBE5 		ldrb	r0, [fp]	@ zero_extendqisi2
 1299 125c 022081E0 		add	r2, r1, r2
 1300 1260 FF2002E2 		and	r2, r2, #255
 1301 1264 0020C8E5 		strb	r2, [r8]
 1302 1268 002082E0 		add	r2, r2, r0
 1303 126c D8011FE5 		ldr	r0, .L383+256
 1304 1270 0020CBE5 		strb	r2, [fp]
 1305 1274 FEFFFFEB 		bl	uart_transmit
 1306 1278 0C10DDE5 		ldrb	r1, [sp, #12]	@ zero_extendqisi2
 1307 127c 0020D8E5 		ldrb	r2, [r8]	@ zero_extendqisi2
 1308 1280 0000DBE5 		ldrb	r0, [fp]	@ zero_extendqisi2
 1309 1284 022081E0 		add	r2, r1, r2
 1310 1288 FF2002E2 		and	r2, r2, #255
 1311 128c 0020C8E5 		strb	r2, [r8]
 1312 1290 002082E0 		add	r2, r2, r0
 1313 1294 00021FE5 		ldr	r0, .L383+256
 1314 1298 0020CBE5 		strb	r2, [fp]
 1315 129c FEFFFFEB 		bl	uart_transmit
 1316 12a0 0D10DDE5 		ldrb	r1, [sp, #13]	@ zero_extendqisi2
 1317 12a4 0020D8E5 		ldrb	r2, [r8]	@ zero_extendqisi2
 1318 12a8 0000DBE5 		ldrb	r0, [fp]	@ zero_extendqisi2
 1319 12ac 022081E0 		add	r2, r1, r2
 1320 12b0 FF2002E2 		and	r2, r2, #255
 1321 12b4 0020C8E5 		strb	r2, [r8]
 1322 12b8 002082E0 		add	r2, r2, r0
 1323 12bc 28021FE5 		ldr	r0, .L383+256
 1324 12c0 0020CBE5 		strb	r2, [fp]
 1325 12c4 FEFFFFEB 		bl	uart_transmit
 1326 12c8 0E10DDE5 		ldrb	r1, [sp, #14]	@ zero_extendqisi2
 1327 12cc 0020D8E5 		ldrb	r2, [r8]	@ zero_extendqisi2
 1328 12d0 0000DBE5 		ldrb	r0, [fp]	@ zero_extendqisi2
 1329 12d4 022081E0 		add	r2, r1, r2
 1330 12d8 FF2002E2 		and	r2, r2, #255
 1331 12dc 0020C8E5 		strb	r2, [r8]
 1332 12e0 002082E0 		add	r2, r2, r0
 1333 12e4 50021FE5 		ldr	r0, .L383+256
 1334 12e8 0020CBE5 		strb	r2, [fp]
 1335 12ec FEFFFFEB 		bl	uart_transmit
 1336 12f0 0F10DDE5 		ldrb	r1, [sp, #15]	@ zero_extendqisi2
 1337 12f4 0020D8E5 		ldrb	r2, [r8]	@ zero_extendqisi2
 1338 12f8 0000DBE5 		ldrb	r0, [fp]	@ zero_extendqisi2
 1339 12fc 022081E0 		add	r2, r1, r2
 1340 1300 FF2002E2 		and	r2, r2, #255
 1341 1304 0020C8E5 		strb	r2, [r8]
 1342 1308 002082E0 		add	r2, r2, r0
 1343 130c 78021FE5 		ldr	r0, .L383+256
 1344 1310 0020CBE5 		strb	r2, [fp]
 1345 1314 FEFFFFEB 		bl	uart_transmit
 1346 1318 0020D7E5 		ldrb	r2, [r7]	@ zero_extendqisi2
 1347 131c 954222E0 		mla	r2, r5, r2, r4
 1348 1320 0810D2E5 		ldrb	r1, [r2, #8]	@ zero_extendqisi2
 1349 1324 0020D8E5 		ldrb	r2, [r8]	@ zero_extendqisi2
 1350 1328 0000DBE5 		ldrb	r0, [fp]	@ zero_extendqisi2
 1351 132c 022081E0 		add	r2, r1, r2
 1352 1330 FF2002E2 		and	r2, r2, #255
 1353 1334 0020C8E5 		strb	r2, [r8]
 1354 1338 002082E0 		add	r2, r2, r0
 1355 133c A8021FE5 		ldr	r0, .L383+256
 1356 1340 0020CBE5 		strb	r2, [fp]
 1357 1344 FEFFFFEB 		bl	uart_transmit
 1358 1348 0020D7E5 		ldrb	r2, [r7]	@ zero_extendqisi2
 1359 134c 954222E0 		mla	r2, r5, r2, r4
 1360 1350 0910D2E5 		ldrb	r1, [r2, #9]	@ zero_extendqisi2
 1361 1354 0020D8E5 		ldrb	r2, [r8]	@ zero_extendqisi2
 1362 1358 0000DBE5 		ldrb	r0, [fp]	@ zero_extendqisi2
 1363 135c 022081E0 		add	r2, r1, r2
 1364 1360 FF2002E2 		and	r2, r2, #255
 1365 1364 0020C8E5 		strb	r2, [r8]
 1366 1368 002082E0 		add	r2, r2, r0
 1367 136c D8021FE5 		ldr	r0, .L383+256
 1368 1370 0020CBE5 		strb	r2, [fp]
 1369 1374 FEFFFFEB 		bl	uart_transmit
 1370 1378 0020D7E5 		ldrb	r2, [r7]	@ zero_extendqisi2
 1371 137c 954222E0 		mla	r2, r5, r2, r4
 1372 1380 0A10D2E5 		ldrb	r1, [r2, #10]	@ zero_extendqisi2
 1373 1384 0020D8E5 		ldrb	r2, [r8]	@ zero_extendqisi2
 1374 1388 0000DBE5 		ldrb	r0, [fp]	@ zero_extendqisi2
 1375 138c 022081E0 		add	r2, r1, r2
 1376 1390 FF2002E2 		and	r2, r2, #255
 1377 1394 0020C8E5 		strb	r2, [r8]
 1378 1398 002082E0 		add	r2, r2, r0
 1379 139c 08031FE5 		ldr	r0, .L383+256
 1380 13a0 0020CBE5 		strb	r2, [fp]
 1381 13a4 FEFFFFEB 		bl	uart_transmit
 1382 13a8 0020D7E5 		ldrb	r2, [r7]	@ zero_extendqisi2
 1383 13ac 954224E0 		mla	r4, r5, r2, r4
 1384 13b0 0020D8E5 		ldrb	r2, [r8]	@ zero_extendqisi2
 1385 13b4 0B10D4E5 		ldrb	r1, [r4, #11]	@ zero_extendqisi2
 1386 13b8 0000DBE5 		ldrb	r0, [fp]	@ zero_extendqisi2
 1387 13bc 022081E0 		add	r2, r1, r2
 1388 13c0 FF2002E2 		and	r2, r2, #255
 1389 13c4 0020C8E5 		strb	r2, [r8]
 1390 13c8 002082E0 		add	r2, r2, r0
 1391 13cc 38031FE5 		ldr	r0, .L383+256
 1392 13d0 0020CBE5 		strb	r2, [fp]
 1393 13d4 FEFFFFEB 		bl	uart_transmit
 1394 13d8 BC231FE5 		ldr	r2, .L383+136
 1395 13dc 0010D2E5 		ldrb	r1, [r2]	@ zero_extendqisi2
 1396 13e0 0020D8E5 		ldrb	r2, [r8]	@ zero_extendqisi2
 1397 13e4 0000DBE5 		ldrb	r0, [fp]	@ zero_extendqisi2
 1398 13e8 022081E0 		add	r2, r1, r2
 1399 13ec FF2002E2 		and	r2, r2, #255
 1400 13f0 0020C8E5 		strb	r2, [r8]
 1401 13f4 002082E0 		add	r2, r2, r0
 1402 13f8 64031FE5 		ldr	r0, .L383+256
 1403 13fc 0020CBE5 		strb	r2, [fp]
 1404 1400 FEFFFFEB 		bl	uart_transmit
 1405 1404 70031FE5 		ldr	r0, .L383+256
 1406 1408 0010D8E5 		ldrb	r1, [r8]	@ zero_extendqisi2
 1407 140c FEFFFFEB 		bl	uart_transmit
 1408 1410 7C031FE5 		ldr	r0, .L383+256
 1409 1414 0010DBE5 		ldrb	r1, [fp]	@ zero_extendqisi2
 1410              	.L344:
 1411 1418 FEFFFFEB 		bl	uart_transmit
 1412 141c 030000EA 		b	.L48
 1413              	.L50:
 1414 1420 D0331FE5 		ldr	r3, .L383+188
 1415 1424 0020D3E5 		ldrb	r2, [r3]	@ zero_extendqisi2
 1416 1428 012082E2 		add	r2, r2, #1
 1417 142c 0020C3E5 		strb	r2, [r3]
 1418              	.L48:
 1419 1430 0030DAE5 		ldrb	r3, [r10]	@ zero_extendqisi2
 1420 1434 120053E3 		cmp	r3, #18
 1421 1438 0801001A 		bne	.L52
 1422 143c 1C341FE5 		ldr	r3, .L383+140
 1423 1440 AC031FE5 		ldr	r0, .L383+256
 1424 1444 1A10A0E3 		mov	r1, #26
 1425 1448 004093E5 		ldr	r4, [r3]	@ float
 1426 144c FEFFFFEB 		bl	uart_check_free_space
 1427 1450 000050E3 		cmp	r0, #0
 1428 1454 FD00000A 		beq	.L53
 1429 1458 0201C4E3 		bic	r0, r4, #-2147483648
 1430 145c FEFFFFEB 		bl	__aeabi_f2d
 1431 1460 3C241FE5 		ldr	r2, .L383+144
 1432 1464 3C341FE5 		ldr	r3, .L383+148
 1433 1468 FEFFFFEB 		bl	__aeabi_ddiv
 1434 146c FEFFFFEB 		bl	__aeabi_d2uiz
 1435 1470 08341FE5 		ldr	r3, .L383+212
 1436 1474 B020D3E1 		ldrh	r2, [r3]
 1437 1478 1A2082E2 		add	r2, r2, #26
 1438 147c B020C3E1 		strh	r2, [r3]	@ movhi
 1439 1480 14341FE5 		ldr	r3, .L383+216
 1440 1484 B020D3E1 		ldrh	r2, [r3]
 1441 1488 FFA000E2 		and	r10, r0, #255
 1442 148c 012082E2 		add	r2, r2, #1
 1443 1490 FC031FE5 		ldr	r0, .L383+256
 1444 1494 9910A0E3 		mov	r1, #153
 1445 1498 6C541FE5 		ldr	r5, .L383+152
 1446 149c B020C3E1 		strh	r2, [r3]	@ movhi
 1447 14a0 FEFFFFEB 		bl	uart_transmit
 1448 14a4 10041FE5 		ldr	r0, .L383+256
 1449 14a8 1A10A0E3 		mov	r1, #26
 1450 14ac 7C441FE5 		ldr	r4, .L383+156
 1451 14b0 FEFFFFEB 		bl	uart_transmit
 1452 14b4 1C30A0E3 		mov	r3, #28
 1453 14b8 0030C5E5 		strb	r3, [r5]
 1454 14bc 28041FE5 		ldr	r0, .L383+256
 1455 14c0 3630A0E3 		mov	r3, #54
 1456 14c4 0210A0E3 		mov	r1, #2
 1457 14c8 0030C4E5 		strb	r3, [r4]
 1458 14cc FEFFFFEB 		bl	uart_transmit
 1459 14d0 0030D5E5 		ldrb	r3, [r5]	@ zero_extendqisi2
 1460 14d4 0020D4E5 		ldrb	r2, [r4]	@ zero_extendqisi2
 1461 14d8 0A3083E2 		add	r3, r3, #10
 1462 14dc FF3003E2 		and	r3, r3, #255
 1463 14e0 0030C5E5 		strb	r3, [r5]
 1464 14e4 50041FE5 		ldr	r0, .L383+256
 1465 14e8 023083E0 		add	r3, r3, r2
 1466 14ec 0A10A0E3 		mov	r1, #10
 1467 14f0 0030C4E5 		strb	r3, [r4]
 1468 14f4 FEFFFFEB 		bl	uart_transmit
 1469 14f8 C4341FE5 		ldr	r3, .L383+160
 1470 14fc 0010D3E5 		ldrb	r1, [r3]	@ zero_extendqisi2
 1471 1500 0030D5E5 		ldrb	r3, [r5]	@ zero_extendqisi2
 1472 1504 0020D4E5 		ldrb	r2, [r4]	@ zero_extendqisi2
 1473 1508 033081E0 		add	r3, r1, r3
 1474 150c FF3003E2 		and	r3, r3, #255
 1475 1510 0030C5E5 		strb	r3, [r5]
 1476 1514 80041FE5 		ldr	r0, .L383+256
 1477 1518 023083E0 		add	r3, r3, r2
 1478 151c 0030C4E5 		strb	r3, [r4]
 1479 1520 FEFFFFEB 		bl	uart_transmit
 1480 1524 EC341FE5 		ldr	r3, .L383+164
 1481 1528 0010D3E5 		ldrb	r1, [r3]	@ zero_extendqisi2
 1482 152c 0030D5E5 		ldrb	r3, [r5]	@ zero_extendqisi2
 1483 1530 0020D4E5 		ldrb	r2, [r4]	@ zero_extendqisi2
 1484 1534 033081E0 		add	r3, r1, r3
 1485 1538 FC741FE5 		ldr	r7, .L383+168
 1486 153c FF3003E2 		and	r3, r3, #255
 1487 1540 0030C5E5 		strb	r3, [r5]
 1488 1544 B0041FE5 		ldr	r0, .L383+256
 1489 1548 023083E0 		add	r3, r3, r2
 1490 154c 0030C4E5 		strb	r3, [r4]
 1491 1550 FEFFFFEB 		bl	uart_transmit
 1492 1554 0010D7E5 		ldrb	r1, [r7]	@ zero_extendqisi2
 1493 1558 0030D5E5 		ldrb	r3, [r5]	@ zero_extendqisi2
 1494 155c 0020D4E5 		ldrb	r2, [r4]	@ zero_extendqisi2
 1495 1560 033081E0 		add	r3, r1, r3
 1496 1564 FF3003E2 		and	r3, r3, #255
 1497 1568 0030C5E5 		strb	r3, [r5]
 1498 156c D8041FE5 		ldr	r0, .L383+256
 1499 1570 023083E0 		add	r3, r3, r2
 1500 1574 0030C4E5 		strb	r3, [r4]
 1501 1578 FEFFFFEB 		bl	uart_transmit
 1502 157c 0110D7E5 		ldrb	r1, [r7, #1]	@ zero_extendqisi2
 1503 1580 0030D5E5 		ldrb	r3, [r5]	@ zero_extendqisi2
 1504 1584 0020D4E5 		ldrb	r2, [r4]	@ zero_extendqisi2
 1505 1588 033081E0 		add	r3, r1, r3
 1506 158c FF3003E2 		and	r3, r3, #255
 1507 1590 0030C5E5 		strb	r3, [r5]
 1508 1594 00051FE5 		ldr	r0, .L383+256
 1509 1598 023083E0 		add	r3, r3, r2
 1510 159c 0030C4E5 		strb	r3, [r4]
 1511 15a0 FEFFFFEB 		bl	uart_transmit
 1512 15a4 0210D7E5 		ldrb	r1, [r7, #2]	@ zero_extendqisi2
 1513 15a8 0030D5E5 		ldrb	r3, [r5]	@ zero_extendqisi2
 1514 15ac 0020D4E5 		ldrb	r2, [r4]	@ zero_extendqisi2
 1515 15b0 033081E0 		add	r3, r1, r3
 1516 15b4 FF3003E2 		and	r3, r3, #255
 1517 15b8 0030C5E5 		strb	r3, [r5]
 1518 15bc 28051FE5 		ldr	r0, .L383+256
 1519 15c0 023083E0 		add	r3, r3, r2
 1520 15c4 0030C4E5 		strb	r3, [r4]
 1521 15c8 FEFFFFEB 		bl	uart_transmit
 1522 15cc 0310D7E5 		ldrb	r1, [r7, #3]	@ zero_extendqisi2
 1523 15d0 0030D5E5 		ldrb	r3, [r5]	@ zero_extendqisi2
 1524 15d4 0020D4E5 		ldrb	r2, [r4]	@ zero_extendqisi2
 1525 15d8 033081E0 		add	r3, r1, r3
 1526 15dc 9C751FE5 		ldr	r7, .L383+172
 1527 15e0 FF3003E2 		and	r3, r3, #255
 1528 15e4 0030C5E5 		strb	r3, [r5]
 1529 15e8 54051FE5 		ldr	r0, .L383+256
 1530 15ec 023083E0 		add	r3, r3, r2
 1531 15f0 0030C4E5 		strb	r3, [r4]
 1532 15f4 FEFFFFEB 		bl	uart_transmit
 1533 15f8 0010D7E5 		ldrb	r1, [r7]	@ zero_extendqisi2
 1534 15fc 0030D5E5 		ldrb	r3, [r5]	@ zero_extendqisi2
 1535 1600 0020D4E5 		ldrb	r2, [r4]	@ zero_extendqisi2
 1536 1604 033081E0 		add	r3, r1, r3
 1537 1608 FF3003E2 		and	r3, r3, #255
 1538 160c 0030C5E5 		strb	r3, [r5]
 1539 1610 7C051FE5 		ldr	r0, .L383+256
 1540 1614 023083E0 		add	r3, r3, r2
 1541 1618 0030C4E5 		strb	r3, [r4]
 1542 161c FEFFFFEB 		bl	uart_transmit
 1543 1620 0110D7E5 		ldrb	r1, [r7, #1]	@ zero_extendqisi2
 1544 1624 0030D5E5 		ldrb	r3, [r5]	@ zero_extendqisi2
 1545 1628 0020D4E5 		ldrb	r2, [r4]	@ zero_extendqisi2
 1546 162c 033081E0 		add	r3, r1, r3
 1547 1630 FF3003E2 		and	r3, r3, #255
 1548 1634 0030C5E5 		strb	r3, [r5]
 1549 1638 A4051FE5 		ldr	r0, .L383+256
 1550 163c 023083E0 		add	r3, r3, r2
 1551 1640 0030C4E5 		strb	r3, [r4]
 1552 1644 FEFFFFEB 		bl	uart_transmit
 1553 1648 0210D7E5 		ldrb	r1, [r7, #2]	@ zero_extendqisi2
 1554 164c 0030D5E5 		ldrb	r3, [r5]	@ zero_extendqisi2
 1555 1650 0020D4E5 		ldrb	r2, [r4]	@ zero_extendqisi2
 1556 1654 033081E0 		add	r3, r1, r3
 1557 1658 FF3003E2 		and	r3, r3, #255
 1558 165c 0030C5E5 		strb	r3, [r5]
 1559 1660 CC051FE5 		ldr	r0, .L383+256
 1560 1664 023083E0 		add	r3, r3, r2
 1561 1668 0030C4E5 		strb	r3, [r4]
 1562 166c FEFFFFEB 		bl	uart_transmit
 1563 1670 0310D7E5 		ldrb	r1, [r7, #3]	@ zero_extendqisi2
 1564 1674 0030D5E5 		ldrb	r3, [r5]	@ zero_extendqisi2
 1565 1678 0020D4E5 		ldrb	r2, [r4]	@ zero_extendqisi2
 1566 167c 033081E0 		add	r3, r1, r3
 1567 1680 3C761FE5 		ldr	r7, .L383+176
 1568 1684 FF3003E2 		and	r3, r3, #255
 1569 1688 0030C5E5 		strb	r3, [r5]
 1570 168c F8051FE5 		ldr	r0, .L383+256
 1571 1690 023083E0 		add	r3, r3, r2
 1572 1694 0030C4E5 		strb	r3, [r4]
 1573 1698 FEFFFFEB 		bl	uart_transmit
 1574 169c 0010D7E5 		ldrb	r1, [r7]	@ zero_extendqisi2
 1575 16a0 0030D5E5 		ldrb	r3, [r5]	@ zero_extendqisi2
 1576 16a4 0020D4E5 		ldrb	r2, [r4]	@ zero_extendqisi2
 1577 16a8 033081E0 		add	r3, r1, r3
 1578 16ac FF3003E2 		and	r3, r3, #255
 1579 16b0 0030C5E5 		strb	r3, [r5]
 1580 16b4 20061FE5 		ldr	r0, .L383+256
 1581 16b8 023083E0 		add	r3, r3, r2
 1582 16bc 0030C4E5 		strb	r3, [r4]
 1583 16c0 FEFFFFEB 		bl	uart_transmit
 1584 16c4 0110D7E5 		ldrb	r1, [r7, #1]	@ zero_extendqisi2
 1585 16c8 0030D5E5 		ldrb	r3, [r5]	@ zero_extendqisi2
 1586 16cc 0020D4E5 		ldrb	r2, [r4]	@ zero_extendqisi2
 1587 16d0 033081E0 		add	r3, r1, r3
 1588 16d4 FF3003E2 		and	r3, r3, #255
 1589 16d8 0030C5E5 		strb	r3, [r5]
 1590 16dc 48061FE5 		ldr	r0, .L383+256
 1591 16e0 023083E0 		add	r3, r3, r2
 1592 16e4 0030C4E5 		strb	r3, [r4]
 1593 16e8 FEFFFFEB 		bl	uart_transmit
 1594 16ec 0210D7E5 		ldrb	r1, [r7, #2]	@ zero_extendqisi2
 1595 16f0 0030D5E5 		ldrb	r3, [r5]	@ zero_extendqisi2
 1596 16f4 0020D4E5 		ldrb	r2, [r4]	@ zero_extendqisi2
 1597 16f8 033081E0 		add	r3, r1, r3
 1598 16fc FF3003E2 		and	r3, r3, #255
 1599 1700 0030C5E5 		strb	r3, [r5]
 1600 1704 70061FE5 		ldr	r0, .L383+256
 1601 1708 023083E0 		add	r3, r3, r2
 1602 170c 0030C4E5 		strb	r3, [r4]
 1603 1710 FEFFFFEB 		bl	uart_transmit
 1604 1714 0310D7E5 		ldrb	r1, [r7, #3]	@ zero_extendqisi2
 1605 1718 0030D5E5 		ldrb	r3, [r5]	@ zero_extendqisi2
 1606 171c 0020D4E5 		ldrb	r2, [r4]	@ zero_extendqisi2
 1607 1720 033081E0 		add	r3, r1, r3
 1608 1724 DC761FE5 		ldr	r7, .L383+180
 1609 1728 FF3003E2 		and	r3, r3, #255
 1610 172c 0030C5E5 		strb	r3, [r5]
 1611 1730 9C061FE5 		ldr	r0, .L383+256
 1612 1734 023083E0 		add	r3, r3, r2
 1613 1738 0030C4E5 		strb	r3, [r4]
 1614 173c FEFFFFEB 		bl	uart_transmit
 1615 1740 0010D7E5 		ldrb	r1, [r7]	@ zero_extendqisi2
 1616 1744 0030D5E5 		ldrb	r3, [r5]	@ zero_extendqisi2
 1617 1748 0020D4E5 		ldrb	r2, [r4]	@ zero_extendqisi2
 1618 174c 033081E0 		add	r3, r1, r3
 1619 1750 FF3003E2 		and	r3, r3, #255
 1620 1754 0030C5E5 		strb	r3, [r5]
 1621 1758 C4061FE5 		ldr	r0, .L383+256
 1622 175c 023083E0 		add	r3, r3, r2
 1623 1760 0030C4E5 		strb	r3, [r4]
 1624 1764 FEFFFFEB 		bl	uart_transmit
 1625 1768 0110D7E5 		ldrb	r1, [r7, #1]	@ zero_extendqisi2
 1626 176c 0030D5E5 		ldrb	r3, [r5]	@ zero_extendqisi2
 1627 1770 0020D4E5 		ldrb	r2, [r4]	@ zero_extendqisi2
 1628 1774 033081E0 		add	r3, r1, r3
 1629 1778 FF3003E2 		and	r3, r3, #255
 1630 177c 0030C5E5 		strb	r3, [r5]
 1631 1780 EC061FE5 		ldr	r0, .L383+256
 1632 1784 023083E0 		add	r3, r3, r2
 1633 1788 0030C4E5 		strb	r3, [r4]
 1634 178c FEFFFFEB 		bl	uart_transmit
 1635 1790 0210D7E5 		ldrb	r1, [r7, #2]	@ zero_extendqisi2
 1636 1794 0030D5E5 		ldrb	r3, [r5]	@ zero_extendqisi2
 1637 1798 0020D4E5 		ldrb	r2, [r4]	@ zero_extendqisi2
 1638 179c 033081E0 		add	r3, r1, r3
 1639 17a0 FF3003E2 		and	r3, r3, #255
 1640 17a4 0030C5E5 		strb	r3, [r5]
 1641 17a8 14071FE5 		ldr	r0, .L383+256
 1642 17ac 023083E0 		add	r3, r3, r2
 1643 17b0 0030C4E5 		strb	r3, [r4]
 1644 17b4 FEFFFFEB 		bl	uart_transmit
 1645 17b8 0310D7E5 		ldrb	r1, [r7, #3]	@ zero_extendqisi2
 1646 17bc 0030D5E5 		ldrb	r3, [r5]	@ zero_extendqisi2
 1647 17c0 0020D4E5 		ldrb	r2, [r4]	@ zero_extendqisi2
 1648 17c4 033081E0 		add	r3, r1, r3
 1649 17c8 FF3003E2 		and	r3, r3, #255
 1650 17cc 0030C5E5 		strb	r3, [r5]
 1651 17d0 3C071FE5 		ldr	r0, .L383+256
 1652 17d4 023083E0 		add	r3, r3, r2
 1653 17d8 0030C4E5 		strb	r3, [r4]
 1654 17dc FEFFFFEB 		bl	uart_transmit
 1655 17e0 0030D5E5 		ldrb	r3, [r5]	@ zero_extendqisi2
 1656 17e4 0020D4E5 		ldrb	r2, [r4]	@ zero_extendqisi2
 1657 17e8 03308AE0 		add	r3, r10, r3
 1658 17ec FF3003E2 		and	r3, r3, #255
 1659 17f0 0030C5E5 		strb	r3, [r5]
 1660 17f4 0A10A0E1 		mov	r1, r10
 1661 17f8 023083E0 		add	r3, r3, r2
 1662 17fc 68071FE5 		ldr	r0, .L383+256
 1663 1800 0030C4E5 		strb	r3, [r4]
 1664 1804 FEFFFFEB 		bl	uart_transmit
 1665 1808 BC371FE5 		ldr	r3, .L383+184
 1666 180c 0010D3E5 		ldrb	r1, [r3]	@ zero_extendqisi2
 1667 1810 0030D5E5 		ldrb	r3, [r5]	@ zero_extendqisi2
 1668 1814 0020D4E5 		ldrb	r2, [r4]	@ zero_extendqisi2
 1669 1818 033081E0 		add	r3, r1, r3
 1670 181c FF3003E2 		and	r3, r3, #255
 1671 1820 0030C5E5 		strb	r3, [r5]
 1672 1824 90071FE5 		ldr	r0, .L383+256
 1673 1828 023083E0 		add	r3, r3, r2
 1674 182c 0030C4E5 		strb	r3, [r4]
 1675 1830 FEFFFFEB 		bl	uart_transmit
 1676 1834 0010D5E5 		ldrb	r1, [r5]	@ zero_extendqisi2
 1677 1838 A4071FE5 		ldr	r0, .L383+256
 1678 183c FEFFFFEB 		bl	uart_transmit
 1679 1840 AC071FE5 		ldr	r0, .L383+256
 1680 1844 0010D4E5 		ldrb	r1, [r4]	@ zero_extendqisi2
 1681 1848 FEFFFFEB 		bl	uart_transmit
 1682 184c 030000EA 		b	.L52
 1683              	.L53:
 1684 1850 00381FE5 		ldr	r3, .L383+188
 1685 1854 0020D3E5 		ldrb	r2, [r3]	@ zero_extendqisi2
 1686 1858 012082E2 		add	r2, r2, #1
 1687 185c 0020C3E5 		strb	r2, [r3]
 1688              	.L52:
 1689 1860 0C281FE5 		ldr	r2, .L383+192
 1690 1864 0030D2E5 		ldrb	r3, [r2]	@ zero_extendqisi2
 1691 1868 240053E3 		cmp	r3, #36
 1692 186c A400001A 		bne	.L54
 1693 1870 18381FE5 		ldr	r3, .L383+196
 1694 1874 0030D3E5 		ldrb	r3, [r3]	@ zero_extendqisi2
 1695 1878 000053E3 		cmp	r3, #0
 1696 187c 1402000A 		beq	.L55
 1697 1880 EC071FE5 		ldr	r0, .L383+256
 1698 1884 1210A0E3 		mov	r1, #18
 1699 1888 FEFFFFEB 		bl	uart_check_free_space
 1700 188c 000050E3 		cmp	r0, #0
 1701 1890 0B02000A 		beq	.L57
 1702 1894 2C381FE5 		ldr	r3, .L383+212
 1703 1898 B020D3E1 		ldrh	r2, [r3]
 1704 189c 122082E2 		add	r2, r2, #18
 1705 18a0 B020C3E1 		strh	r2, [r3]	@ movhi
 1706 18a4 38381FE5 		ldr	r3, .L383+216
 1707 18a8 B020D3E1 		ldrh	r2, [r3]
 1708 18ac 18081FE5 		ldr	r0, .L383+256
 1709 18b0 012082E2 		add	r2, r2, #1
 1710 18b4 9910A0E3 		mov	r1, #153
 1711 18b8 48581FE5 		ldr	r5, .L383+220
 1712 18bc B020C3E1 		strh	r2, [r3]	@ movhi
 1713 18c0 FEFFFFEB 		bl	uart_transmit
 1714 18c4 30081FE5 		ldr	r0, .L383+256
 1715 18c8 1210A0E3 		mov	r1, #18
 1716 18cc 58481FE5 		ldr	r4, .L383+224
 1717 18d0 FEFFFFEB 		bl	uart_transmit
 1718 18d4 1430A0E3 		mov	r3, #20
 1719 18d8 0030C5E5 		strb	r3, [r5]
 1720 18dc 48081FE5 		ldr	r0, .L383+256
 1721 18e0 2630A0E3 		mov	r3, #38
 1722 18e4 0210A0E3 		mov	r1, #2
 1723 18e8 0030C4E5 		strb	r3, [r4]
 1724 18ec FEFFFFEB 		bl	uart_transmit
 1725 18f0 0030D5E5 		ldrb	r3, [r5]	@ zero_extendqisi2
 1726 18f4 0020D4E5 		ldrb	r2, [r4]	@ zero_extendqisi2
 1727 18f8 153083E2 		add	r3, r3, #21
 1728 18fc A0781FE5 		ldr	r7, .L383+200
 1729 1900 FF3003E2 		and	r3, r3, #255
 1730 1904 0030C5E5 		strb	r3, [r5]
 1731 1908 74081FE5 		ldr	r0, .L383+256
 1732 190c 023083E0 		add	r3, r3, r2
 1733 1910 1510A0E3 		mov	r1, #21
 1734 1914 0030C4E5 		strb	r3, [r4]
 1735 1918 FEFFFFEB 		bl	uart_transmit
 1736 191c 0010D7E5 		ldrb	r1, [r7]	@ zero_extendqisi2
 1737 1920 0030D5E5 		ldrb	r3, [r5]	@ zero_extendqisi2
 1738 1924 0020D4E5 		ldrb	r2, [r4]	@ zero_extendqisi2
 1739 1928 033081E0 		add	r3, r1, r3
 1740 192c FF3003E2 		and	r3, r3, #255
 1741 1930 0030C5E5 		strb	r3, [r5]
 1742 1934 A0081FE5 		ldr	r0, .L383+256
 1743 1938 023083E0 		add	r3, r3, r2
 1744 193c 0030C4E5 		strb	r3, [r4]
 1745 1940 FEFFFFEB 		bl	uart_transmit
 1746 1944 0110D7E5 		ldrb	r1, [r7, #1]	@ zero_extendqisi2
 1747 1948 0030D5E5 		ldrb	r3, [r5]	@ zero_extendqisi2
 1748 194c 0020D4E5 		ldrb	r2, [r4]	@ zero_extendqisi2
 1749 1950 033081E0 		add	r3, r1, r3
 1750 1954 FF3003E2 		and	r3, r3, #255
 1751 1958 0030C5E5 		strb	r3, [r5]
 1752 195c C8081FE5 		ldr	r0, .L383+256
 1753 1960 023083E0 		add	r3, r3, r2
 1754 1964 0030C4E5 		strb	r3, [r4]
 1755 1968 FEFFFFEB 		bl	uart_transmit
 1756 196c 0210D7E5 		ldrb	r1, [r7, #2]	@ zero_extendqisi2
 1757 1970 0030D5E5 		ldrb	r3, [r5]	@ zero_extendqisi2
 1758 1974 0020D4E5 		ldrb	r2, [r4]	@ zero_extendqisi2
 1759 1978 033081E0 		add	r3, r1, r3
 1760 197c FF3003E2 		and	r3, r3, #255
 1761 1980 0030C5E5 		strb	r3, [r5]
 1762 1984 F0081FE5 		ldr	r0, .L383+256
 1763 1988 023083E0 		add	r3, r3, r2
 1764 198c 0030C4E5 		strb	r3, [r4]
 1765 1990 FEFFFFEB 		bl	uart_transmit
 1766 1994 0310D7E5 		ldrb	r1, [r7, #3]	@ zero_extendqisi2
 1767 1998 0030D5E5 		ldrb	r3, [r5]	@ zero_extendqisi2
 1768 199c 0020D4E5 		ldrb	r2, [r4]	@ zero_extendqisi2
 1769 19a0 033081E0 		add	r3, r1, r3
 1770 19a4 44791FE5 		ldr	r7, .L383+204
 1771 19a8 FF3003E2 		and	r3, r3, #255
 1772 19ac 0030C5E5 		strb	r3, [r5]
 1773 19b0 1C091FE5 		ldr	r0, .L383+256
 1774 19b4 023083E0 		add	r3, r3, r2
 1775 19b8 0030C4E5 		strb	r3, [r4]
 1776 19bc FEFFFFEB 		bl	uart_transmit
 1777 19c0 0010D7E5 		ldrb	r1, [r7]	@ zero_extendqisi2
 1778 19c4 0030D5E5 		ldrb	r3, [r5]	@ zero_extendqisi2
 1779 19c8 0020D4E5 		ldrb	r2, [r4]	@ zero_extendqisi2
 1780 19cc 033081E0 		add	r3, r1, r3
 1781 19d0 FF3003E2 		and	r3, r3, #255
 1782 19d4 0030C5E5 		strb	r3, [r5]
 1783 19d8 44091FE5 		ldr	r0, .L383+256
 1784 19dc 023083E0 		add	r3, r3, r2
 1785 19e0 0030C4E5 		strb	r3, [r4]
 1786 19e4 FEFFFFEB 		bl	uart_transmit
 1787 19e8 0110D7E5 		ldrb	r1, [r7, #1]	@ zero_extendqisi2
 1788 19ec 0030D5E5 		ldrb	r3, [r5]	@ zero_extendqisi2
 1789 19f0 0020D4E5 		ldrb	r2, [r4]	@ zero_extendqisi2
 1790 19f4 033081E0 		add	r3, r1, r3
 1791 19f8 FF3003E2 		and	r3, r3, #255
 1792 19fc 0030C5E5 		strb	r3, [r5]
 1793 1a00 6C091FE5 		ldr	r0, .L383+256
 1794 1a04 023083E0 		add	r3, r3, r2
 1795 1a08 0030C4E5 		strb	r3, [r4]
 1796 1a0c FEFFFFEB 		bl	uart_transmit
 1797 1a10 0210D7E5 		ldrb	r1, [r7, #2]	@ zero_extendqisi2
 1798 1a14 0030D5E5 		ldrb	r3, [r5]	@ zero_extendqisi2
 1799 1a18 0020D4E5 		ldrb	r2, [r4]	@ zero_extendqisi2
 1800 1a1c 033081E0 		add	r3, r1, r3
 1801 1a20 FF3003E2 		and	r3, r3, #255
 1802 1a24 0030C5E5 		strb	r3, [r5]
 1803 1a28 94091FE5 		ldr	r0, .L383+256
 1804 1a2c 023083E0 		add	r3, r3, r2
 1805 1a30 0030C4E5 		strb	r3, [r4]
 1806 1a34 FEFFFFEB 		bl	uart_transmit
 1807 1a38 0310D7E5 		ldrb	r1, [r7, #3]	@ zero_extendqisi2
 1808 1a3c 0030D5E5 		ldrb	r3, [r5]	@ zero_extendqisi2
 1809 1a40 0020D4E5 		ldrb	r2, [r4]	@ zero_extendqisi2
 1810 1a44 033081E0 		add	r3, r1, r3
 1811 1a48 E4791FE5 		ldr	r7, .L383+208
 1812 1a4c FF3003E2 		and	r3, r3, #255
 1813 1a50 0030C5E5 		strb	r3, [r5]
 1814 1a54 C0091FE5 		ldr	r0, .L383+256
 1815 1a58 023083E0 		add	r3, r3, r2
 1816 1a5c 0030C4E5 		strb	r3, [r4]
 1817 1a60 FEFFFFEB 		bl	uart_transmit
 1818 1a64 0010D7E5 		ldrb	r1, [r7]	@ zero_extendqisi2
 1819 1a68 0030D5E5 		ldrb	r3, [r5]	@ zero_extendqisi2
 1820 1a6c 0020D4E5 		ldrb	r2, [r4]	@ zero_extendqisi2
 1821 1a70 033081E0 		add	r3, r1, r3
 1822 1a74 FF3003E2 		and	r3, r3, #255
 1823 1a78 0030C5E5 		strb	r3, [r5]
 1824 1a7c E8091FE5 		ldr	r0, .L383+256
 1825 1a80 023083E0 		add	r3, r3, r2
 1826 1a84 0030C4E5 		strb	r3, [r4]
 1827 1a88 FEFFFFEB 		bl	uart_transmit
 1828 1a8c 0110D7E5 		ldrb	r1, [r7, #1]	@ zero_extendqisi2
 1829 1a90 0030D5E5 		ldrb	r3, [r5]	@ zero_extendqisi2
 1830 1a94 0020D4E5 		ldrb	r2, [r4]	@ zero_extendqisi2
 1831 1a98 033081E0 		add	r3, r1, r3
 1832 1a9c FF3003E2 		and	r3, r3, #255
 1833 1aa0 0030C5E5 		strb	r3, [r5]
 1834 1aa4 100A1FE5 		ldr	r0, .L383+256
 1835 1aa8 023083E0 		add	r3, r3, r2
 1836 1aac 0030C4E5 		strb	r3, [r4]
 1837 1ab0 FEFFFFEB 		bl	uart_transmit
 1838 1ab4 0210D7E5 		ldrb	r1, [r7, #2]	@ zero_extendqisi2
 1839 1ab8 0030D5E5 		ldrb	r3, [r5]	@ zero_extendqisi2
 1840 1abc 0020D4E5 		ldrb	r2, [r4]	@ zero_extendqisi2
 1841 1ac0 033081E0 		add	r3, r1, r3
 1842 1ac4 FF3003E2 		and	r3, r3, #255
 1843 1ac8 0030C5E5 		strb	r3, [r5]
 1844 1acc 380A1FE5 		ldr	r0, .L383+256
 1845 1ad0 023083E0 		add	r3, r3, r2
 1846 1ad4 0030C4E5 		strb	r3, [r4]
 1847 1ad8 FEFFFFEB 		bl	uart_transmit
 1848 1adc 0030D5E5 		ldrb	r3, [r5]	@ zero_extendqisi2
 1849 1ae0 0310D7E5 		ldrb	r1, [r7, #3]	@ zero_extendqisi2
 1850 1ae4 0020D4E5 		ldrb	r2, [r4]	@ zero_extendqisi2
 1851 1ae8 033081E0 		add	r3, r1, r3
 1852 1aec FF3003E2 		and	r3, r3, #255
 1853 1af0 0030C5E5 		strb	r3, [r5]
 1854 1af4 023083E0 		add	r3, r3, r2
 1855 1af8 0030C4E5 		strb	r3, [r4]
 1856 1afc 680A1FE5 		ldr	r0, .L383+256
 1857 1b00 670100EA 		b	.L345
 1858              	.L54:
 1859 1b04 2A0053E3 		cmp	r3, #42
 1860 1b08 7101001A 		bne	.L55
 1861 1b0c 780A1FE5 		ldr	r0, .L383+256
 1862 1b10 2610A0E3 		mov	r1, #38
 1863 1b14 FEFFFFEB 		bl	uart_check_free_space
 1864 1b18 000050E3 		cmp	r0, #0
 1865 1b1c 6801000A 		beq	.L57
 1866 1b20 B83A1FE5 		ldr	r3, .L383+212
 1867 1b24 B020D3E1 		ldrh	r2, [r3]
 1868 1b28 262082E2 		add	r2, r2, #38
 1869 1b2c B020C3E1 		strh	r2, [r3]	@ movhi
 1870 1b30 C43A1FE5 		ldr	r3, .L383+216
 1871 1b34 B020D3E1 		ldrh	r2, [r3]
 1872 1b38 A40A1FE5 		ldr	r0, .L383+256
 1873 1b3c 012082E2 		add	r2, r2, #1
 1874 1b40 9910A0E3 		mov	r1, #153
 1875 1b44 D45A1FE5 		ldr	r5, .L383+220
 1876 1b48 B020C3E1 		strh	r2, [r3]	@ movhi
 1877 1b4c FEFFFFEB 		bl	uart_transmit
 1878 1b50 BC0A1FE5 		ldr	r0, .L383+256
 1879 1b54 2610A0E3 		mov	r1, #38
 1880 1b58 E44A1FE5 		ldr	r4, .L383+224
 1881 1b5c FEFFFFEB 		bl	uart_transmit
 1882 1b60 2830A0E3 		mov	r3, #40
 1883 1b64 0030C5E5 		strb	r3, [r5]
 1884 1b68 D40A1FE5 		ldr	r0, .L383+256
 1885 1b6c 4E30A0E3 		mov	r3, #78
 1886 1b70 0210A0E3 		mov	r1, #2
 1887 1b74 0030C4E5 		strb	r3, [r4]
 1888 1b78 FEFFFFEB 		bl	uart_transmit
 1889 1b7c 0030D5E5 		ldrb	r3, [r5]	@ zero_extendqisi2
 1890 1b80 0020D4E5 		ldrb	r2, [r4]	@ zero_extendqisi2
 1891 1b84 103083E2 		add	r3, r3, #16
 1892 1b88 107B1FE5 		ldr	r7, .L383+228
 1893 1b8c FF3003E2 		and	r3, r3, #255
 1894 1b90 0030C5E5 		strb	r3, [r5]
 1895 1b94 000B1FE5 		ldr	r0, .L383+256
 1896 1b98 023083E0 		add	r3, r3, r2
 1897 1b9c 1010A0E3 		mov	r1, #16
 1898 1ba0 0030C4E5 		strb	r3, [r4]
 1899 1ba4 FEFFFFEB 		bl	uart_transmit
 1900 1ba8 0010D7E5 		ldrb	r1, [r7]	@ zero_extendqisi2
 1901 1bac 0030D5E5 		ldrb	r3, [r5]	@ zero_extendqisi2
 1902 1bb0 0020D4E5 		ldrb	r2, [r4]	@ zero_extendqisi2
 1903 1bb4 033081E0 		add	r3, r1, r3
 1904 1bb8 FF3003E2 		and	r3, r3, #255
 1905 1bbc 0030C5E5 		strb	r3, [r5]
 1906 1bc0 2C0B1FE5 		ldr	r0, .L383+256
 1907 1bc4 023083E0 		add	r3, r3, r2
 1908 1bc8 0030C4E5 		strb	r3, [r4]
 1909 1bcc FEFFFFEB 		bl	uart_transmit
 1910 1bd0 0110D7E5 		ldrb	r1, [r7, #1]	@ zero_extendqisi2
 1911 1bd4 0030D5E5 		ldrb	r3, [r5]	@ zero_extendqisi2
 1912 1bd8 0020D4E5 		ldrb	r2, [r4]	@ zero_extendqisi2
 1913 1bdc 033081E0 		add	r3, r1, r3
 1914 1be0 FF3003E2 		and	r3, r3, #255
 1915 1be4 0030C5E5 		strb	r3, [r5]
 1916 1be8 540B1FE5 		ldr	r0, .L383+256
 1917 1bec 023083E0 		add	r3, r3, r2
 1918 1bf0 0030C4E5 		strb	r3, [r4]
 1919 1bf4 FEFFFFEB 		bl	uart_transmit
 1920 1bf8 0210D7E5 		ldrb	r1, [r7, #2]	@ zero_extendqisi2
 1921 1bfc 0030D5E5 		ldrb	r3, [r5]	@ zero_extendqisi2
 1922 1c00 0020D4E5 		ldrb	r2, [r4]	@ zero_extendqisi2
 1923 1c04 033081E0 		add	r3, r1, r3
 1924 1c08 FF3003E2 		and	r3, r3, #255
 1925 1c0c 0030C5E5 		strb	r3, [r5]
 1926 1c10 7C0B1FE5 		ldr	r0, .L383+256
 1927 1c14 023083E0 		add	r3, r3, r2
 1928 1c18 0030C4E5 		strb	r3, [r4]
 1929 1c1c FEFFFFEB 		bl	uart_transmit
 1930 1c20 0310D7E5 		ldrb	r1, [r7, #3]	@ zero_extendqisi2
 1931 1c24 0030D5E5 		ldrb	r3, [r5]	@ zero_extendqisi2
 1932 1c28 0020D4E5 		ldrb	r2, [r4]	@ zero_extendqisi2
 1933 1c2c 033081E0 		add	r3, r1, r3
 1934 1c30 B47B1FE5 		ldr	r7, .L383+232
 1935 1c34 FF3003E2 		and	r3, r3, #255
 1936 1c38 0030C5E5 		strb	r3, [r5]
 1937 1c3c A80B1FE5 		ldr	r0, .L383+256
 1938 1c40 023083E0 		add	r3, r3, r2
 1939 1c44 0030C4E5 		strb	r3, [r4]
 1940 1c48 FEFFFFEB 		bl	uart_transmit
 1941 1c4c 0010D7E5 		ldrb	r1, [r7]	@ zero_extendqisi2
 1942 1c50 0030D5E5 		ldrb	r3, [r5]	@ zero_extendqisi2
 1943 1c54 0020D4E5 		ldrb	r2, [r4]	@ zero_extendqisi2
 1944 1c58 033081E0 		add	r3, r1, r3
 1945 1c5c FF3003E2 		and	r3, r3, #255
 1946 1c60 0030C5E5 		strb	r3, [r5]
 1947 1c64 D00B1FE5 		ldr	r0, .L383+256
 1948 1c68 023083E0 		add	r3, r3, r2
 1949 1c6c 0030C4E5 		strb	r3, [r4]
 1950 1c70 FEFFFFEB 		bl	uart_transmit
 1951 1c74 0110D7E5 		ldrb	r1, [r7, #1]	@ zero_extendqisi2
 1952 1c78 0030D5E5 		ldrb	r3, [r5]	@ zero_extendqisi2
 1953 1c7c 0020D4E5 		ldrb	r2, [r4]	@ zero_extendqisi2
 1954 1c80 033081E0 		add	r3, r1, r3
 1955 1c84 FF3003E2 		and	r3, r3, #255
 1956 1c88 0030C5E5 		strb	r3, [r5]
 1957 1c8c F80B1FE5 		ldr	r0, .L383+256
 1958 1c90 023083E0 		add	r3, r3, r2
 1959 1c94 0030C4E5 		strb	r3, [r4]
 1960 1c98 FEFFFFEB 		bl	uart_transmit
 1961 1c9c 0210D7E5 		ldrb	r1, [r7, #2]	@ zero_extendqisi2
 1962 1ca0 0030D5E5 		ldrb	r3, [r5]	@ zero_extendqisi2
 1963 1ca4 0020D4E5 		ldrb	r2, [r4]	@ zero_extendqisi2
 1964 1ca8 033081E0 		add	r3, r1, r3
 1965 1cac FF3003E2 		and	r3, r3, #255
 1966 1cb0 0030C5E5 		strb	r3, [r5]
 1967 1cb4 200C1FE5 		ldr	r0, .L383+256
 1968 1cb8 023083E0 		add	r3, r3, r2
 1969 1cbc 0030C4E5 		strb	r3, [r4]
 1970 1cc0 FEFFFFEB 		bl	uart_transmit
 1971 1cc4 0310D7E5 		ldrb	r1, [r7, #3]	@ zero_extendqisi2
 1972 1cc8 0030D5E5 		ldrb	r3, [r5]	@ zero_extendqisi2
 1973 1ccc 0020D4E5 		ldrb	r2, [r4]	@ zero_extendqisi2
 1974 1cd0 033081E0 		add	r3, r1, r3
 1975 1cd4 547C1FE5 		ldr	r7, .L383+236
 1976 1cd8 FF3003E2 		and	r3, r3, #255
 1977 1cdc 0030C5E5 		strb	r3, [r5]
 1978 1ce0 4C0C1FE5 		ldr	r0, .L383+256
 1979 1ce4 023083E0 		add	r3, r3, r2
 1980 1ce8 0030C4E5 		strb	r3, [r4]
 1981 1cec FEFFFFEB 		bl	uart_transmit
 1982 1cf0 0010D7E5 		ldrb	r1, [r7]	@ zero_extendqisi2
 1983 1cf4 0030D5E5 		ldrb	r3, [r5]	@ zero_extendqisi2
 1984 1cf8 0020D4E5 		ldrb	r2, [r4]	@ zero_extendqisi2
 1985 1cfc 033081E0 		add	r3, r1, r3
 1986 1d00 FF3003E2 		and	r3, r3, #255
 1987 1d04 0030C5E5 		strb	r3, [r5]
 1988 1d08 740C1FE5 		ldr	r0, .L383+256
 1989 1d0c 023083E0 		add	r3, r3, r2
 1990 1d10 0030C4E5 		strb	r3, [r4]
 1991 1d14 FEFFFFEB 		bl	uart_transmit
 1992 1d18 0110D7E5 		ldrb	r1, [r7, #1]	@ zero_extendqisi2
 1993 1d1c 0030D5E5 		ldrb	r3, [r5]	@ zero_extendqisi2
 1994 1d20 0020D4E5 		ldrb	r2, [r4]	@ zero_extendqisi2
 1995 1d24 033081E0 		add	r3, r1, r3
 1996 1d28 FF3003E2 		and	r3, r3, #255
 1997 1d2c 0030C5E5 		strb	r3, [r5]
 1998 1d30 9C0C1FE5 		ldr	r0, .L383+256
 1999 1d34 023083E0 		add	r3, r3, r2
 2000 1d38 0030C4E5 		strb	r3, [r4]
 2001 1d3c FEFFFFEB 		bl	uart_transmit
 2002 1d40 0210D7E5 		ldrb	r1, [r7, #2]	@ zero_extendqisi2
 2003 1d44 0030D5E5 		ldrb	r3, [r5]	@ zero_extendqisi2
 2004 1d48 0020D4E5 		ldrb	r2, [r4]	@ zero_extendqisi2
 2005 1d4c 033081E0 		add	r3, r1, r3
 2006 1d50 FF3003E2 		and	r3, r3, #255
 2007 1d54 0030C5E5 		strb	r3, [r5]
 2008 1d58 C40C1FE5 		ldr	r0, .L383+256
 2009 1d5c 023083E0 		add	r3, r3, r2
 2010 1d60 0030C4E5 		strb	r3, [r4]
 2011 1d64 FEFFFFEB 		bl	uart_transmit
 2012 1d68 0310D7E5 		ldrb	r1, [r7, #3]	@ zero_extendqisi2
 2013 1d6c 0030D5E5 		ldrb	r3, [r5]	@ zero_extendqisi2
 2014 1d70 0020D4E5 		ldrb	r2, [r4]	@ zero_extendqisi2
 2015 1d74 033081E0 		add	r3, r1, r3
 2016 1d78 F47C1FE5 		ldr	r7, .L383+240
 2017 1d7c FF3003E2 		and	r3, r3, #255
 2018 1d80 0030C5E5 		strb	r3, [r5]
 2019 1d84 F00C1FE5 		ldr	r0, .L383+256
 2020 1d88 023083E0 		add	r3, r3, r2
 2021 1d8c 0030C4E5 		strb	r3, [r4]
 2022 1d90 FEFFFFEB 		bl	uart_transmit
 2023 1d94 0010D7E5 		ldrb	r1, [r7]	@ zero_extendqisi2
 2024 1d98 0030D5E5 		ldrb	r3, [r5]	@ zero_extendqisi2
 2025 1d9c 0020D4E5 		ldrb	r2, [r4]	@ zero_extendqisi2
 2026 1da0 033081E0 		add	r3, r1, r3
 2027 1da4 FF3003E2 		and	r3, r3, #255
 2028 1da8 0030C5E5 		strb	r3, [r5]
 2029 1dac 180D1FE5 		ldr	r0, .L383+256
 2030 1db0 023083E0 		add	r3, r3, r2
 2031 1db4 0030C4E5 		strb	r3, [r4]
 2032 1db8 FEFFFFEB 		bl	uart_transmit
 2033 1dbc 0110D7E5 		ldrb	r1, [r7, #1]	@ zero_extendqisi2
 2034 1dc0 0030D5E5 		ldrb	r3, [r5]	@ zero_extendqisi2
 2035 1dc4 0020D4E5 		ldrb	r2, [r4]	@ zero_extendqisi2
 2036 1dc8 033081E0 		add	r3, r1, r3
 2037 1dcc FF3003E2 		and	r3, r3, #255
 2038 1dd0 0030C5E5 		strb	r3, [r5]
 2039 1dd4 400D1FE5 		ldr	r0, .L383+256
 2040 1dd8 023083E0 		add	r3, r3, r2
 2041 1ddc 0030C4E5 		strb	r3, [r4]
 2042 1de0 FEFFFFEB 		bl	uart_transmit
 2043 1de4 0210D7E5 		ldrb	r1, [r7, #2]	@ zero_extendqisi2
 2044 1de8 0030D5E5 		ldrb	r3, [r5]	@ zero_extendqisi2
 2045 1dec 0020D4E5 		ldrb	r2, [r4]	@ zero_extendqisi2
 2046 1df0 033081E0 		add	r3, r1, r3
 2047 1df4 FF3003E2 		and	r3, r3, #255
 2048 1df8 0030C5E5 		strb	r3, [r5]
 2049 1dfc 680D1FE5 		ldr	r0, .L383+256
 2050 1e00 023083E0 		add	r3, r3, r2
 2051 1e04 0030C4E5 		strb	r3, [r4]
 2052 1e08 FEFFFFEB 		bl	uart_transmit
 2053 1e0c 0310D7E5 		ldrb	r1, [r7, #3]	@ zero_extendqisi2
 2054 1e10 0030D5E5 		ldrb	r3, [r5]	@ zero_extendqisi2
 2055 1e14 0020D4E5 		ldrb	r2, [r4]	@ zero_extendqisi2
 2056 1e18 033081E0 		add	r3, r1, r3
 2057 1e1c 947D1FE5 		ldr	r7, .L383+244
 2058 1e20 FF3003E2 		and	r3, r3, #255
 2059 1e24 0030C5E5 		strb	r3, [r5]
 2060 1e28 940D1FE5 		ldr	r0, .L383+256
 2061 1e2c 023083E0 		add	r3, r3, r2
 2062 1e30 0030C4E5 		strb	r3, [r4]
 2063 1e34 FEFFFFEB 		bl	uart_transmit
 2064 1e38 0010D7E5 		ldrb	r1, [r7]	@ zero_extendqisi2
 2065 1e3c 0030D5E5 		ldrb	r3, [r5]	@ zero_extendqisi2
 2066 1e40 0020D4E5 		ldrb	r2, [r4]	@ zero_extendqisi2
 2067 1e44 033081E0 		add	r3, r1, r3
 2068 1e48 FF3003E2 		and	r3, r3, #255
 2069 1e4c 0030C5E5 		strb	r3, [r5]
 2070 1e50 BC0D1FE5 		ldr	r0, .L383+256
 2071 1e54 023083E0 		add	r3, r3, r2
 2072 1e58 0030C4E5 		strb	r3, [r4]
 2073 1e5c FEFFFFEB 		bl	uart_transmit
 2074 1e60 0110D7E5 		ldrb	r1, [r7, #1]	@ zero_extendqisi2
 2075 1e64 0030D5E5 		ldrb	r3, [r5]	@ zero_extendqisi2
 2076 1e68 0020D4E5 		ldrb	r2, [r4]	@ zero_extendqisi2
 2077 1e6c 033081E0 		add	r3, r1, r3
 2078 1e70 FF3003E2 		and	r3, r3, #255
 2079 1e74 0030C5E5 		strb	r3, [r5]
 2080 1e78 E40D1FE5 		ldr	r0, .L383+256
 2081 1e7c 023083E0 		add	r3, r3, r2
 2082 1e80 0030C4E5 		strb	r3, [r4]
 2083 1e84 FEFFFFEB 		bl	uart_transmit
 2084 1e88 0210D7E5 		ldrb	r1, [r7, #2]	@ zero_extendqisi2
 2085 1e8c 0030D5E5 		ldrb	r3, [r5]	@ zero_extendqisi2
 2086 1e90 0020D4E5 		ldrb	r2, [r4]	@ zero_extendqisi2
 2087 1e94 033081E0 		add	r3, r1, r3
 2088 1e98 FF3003E2 		and	r3, r3, #255
 2089 1e9c 0030C5E5 		strb	r3, [r5]
 2090 1ea0 0C0E1FE5 		ldr	r0, .L383+256
 2091 1ea4 023083E0 		add	r3, r3, r2
 2092 1ea8 0030C4E5 		strb	r3, [r4]
 2093 1eac FEFFFFEB 		bl	uart_transmit
 2094 1eb0 0310D7E5 		ldrb	r1, [r7, #3]	@ zero_extendqisi2
 2095 1eb4 0030D5E5 		ldrb	r3, [r5]	@ zero_extendqisi2
 2096 1eb8 0020D4E5 		ldrb	r2, [r4]	@ zero_extendqisi2
 2097 1ebc 033081E0 		add	r3, r1, r3
 2098 1ec0 347E1FE5 		ldr	r7, .L383+248
 2099 1ec4 FF3003E2 		and	r3, r3, #255
 2100 1ec8 0030C5E5 		strb	r3, [r5]
 2101 1ecc 380E1FE5 		ldr	r0, .L383+256
 2102 1ed0 023083E0 		add	r3, r3, r2
 2103 1ed4 0030C4E5 		strb	r3, [r4]
 2104 1ed8 FEFFFFEB 		bl	uart_transmit
 2105 1edc 0010D7E5 		ldrb	r1, [r7]	@ zero_extendqisi2
 2106 1ee0 0030D5E5 		ldrb	r3, [r5]	@ zero_extendqisi2
 2107 1ee4 0020D4E5 		ldrb	r2, [r4]	@ zero_extendqisi2
 2108 1ee8 033081E0 		add	r3, r1, r3
 2109 1eec FF3003E2 		and	r3, r3, #255
 2110 1ef0 0030C5E5 		strb	r3, [r5]
 2111 1ef4 600E1FE5 		ldr	r0, .L383+256
 2112 1ef8 023083E0 		add	r3, r3, r2
 2113 1efc 0030C4E5 		strb	r3, [r4]
 2114 1f00 FEFFFFEB 		bl	uart_transmit
 2115 1f04 0110D7E5 		ldrb	r1, [r7, #1]	@ zero_extendqisi2
 2116 1f08 0030D5E5 		ldrb	r3, [r5]	@ zero_extendqisi2
 2117 1f0c 0020D4E5 		ldrb	r2, [r4]	@ zero_extendqisi2
 2118 1f10 033081E0 		add	r3, r1, r3
 2119 1f14 FF3003E2 		and	r3, r3, #255
 2120 1f18 0030C5E5 		strb	r3, [r5]
 2121 1f1c 880E1FE5 		ldr	r0, .L383+256
 2122 1f20 023083E0 		add	r3, r3, r2
 2123 1f24 0030C4E5 		strb	r3, [r4]
 2124 1f28 FEFFFFEB 		bl	uart_transmit
 2125 1f2c 0210D7E5 		ldrb	r1, [r7, #2]	@ zero_extendqisi2
 2126 1f30 0030D5E5 		ldrb	r3, [r5]	@ zero_extendqisi2
 2127 1f34 0020D4E5 		ldrb	r2, [r4]	@ zero_extendqisi2
 2128 1f38 033081E0 		add	r3, r1, r3
 2129 1f3c FF3003E2 		and	r3, r3, #255
 2130 1f40 0030C5E5 		strb	r3, [r5]
 2131 1f44 B00E1FE5 		ldr	r0, .L383+256
 2132 1f48 023083E0 		add	r3, r3, r2
 2133 1f4c 0030C4E5 		strb	r3, [r4]
 2134 1f50 FEFFFFEB 		bl	uart_transmit
 2135 1f54 0310D7E5 		ldrb	r1, [r7, #3]	@ zero_extendqisi2
 2136 1f58 0030D5E5 		ldrb	r3, [r5]	@ zero_extendqisi2
 2137 1f5c 0020D4E5 		ldrb	r2, [r4]	@ zero_extendqisi2
 2138 1f60 033081E0 		add	r3, r1, r3
 2139 1f64 D47E1FE5 		ldr	r7, .L383+252
 2140 1f68 FF3003E2 		and	r3, r3, #255
 2141 1f6c 0030C5E5 		strb	r3, [r5]
 2142 1f70 DC0E1FE5 		ldr	r0, .L383+256
 2143 1f74 023083E0 		add	r3, r3, r2
 2144 1f78 0030C4E5 		strb	r3, [r4]
 2145 1f7c FEFFFFEB 		bl	uart_transmit
 2146 1f80 0010D7E5 		ldrb	r1, [r7]	@ zero_extendqisi2
 2147 1f84 0030D5E5 		ldrb	r3, [r5]	@ zero_extendqisi2
 2148 1f88 0020D4E5 		ldrb	r2, [r4]	@ zero_extendqisi2
 2149 1f8c 033081E0 		add	r3, r1, r3
 2150 1f90 FF3003E2 		and	r3, r3, #255
 2151 1f94 0030C5E5 		strb	r3, [r5]
 2152 1f98 040F1FE5 		ldr	r0, .L383+256
 2153 1f9c 023083E0 		add	r3, r3, r2
 2154 1fa0 0030C4E5 		strb	r3, [r4]
 2155 1fa4 FEFFFFEB 		bl	uart_transmit
 2156 1fa8 0110D7E5 		ldrb	r1, [r7, #1]	@ zero_extendqisi2
 2157 1fac 0030D5E5 		ldrb	r3, [r5]	@ zero_extendqisi2
 2158 1fb0 0020D4E5 		ldrb	r2, [r4]	@ zero_extendqisi2
 2159 1fb4 033081E0 		add	r3, r1, r3
 2160 1fb8 FF3003E2 		and	r3, r3, #255
 2161 1fbc 0030C5E5 		strb	r3, [r5]
 2162 1fc0 2C0F1FE5 		ldr	r0, .L383+256
 2163 1fc4 023083E0 		add	r3, r3, r2
 2164 1fc8 0030C4E5 		strb	r3, [r4]
 2165 1fcc FEFFFFEB 		bl	uart_transmit
 2166 1fd0 0210D7E5 		ldrb	r1, [r7, #2]	@ zero_extendqisi2
 2167 1fd4 0030D5E5 		ldrb	r3, [r5]	@ zero_extendqisi2
 2168 1fd8 0020D4E5 		ldrb	r2, [r4]	@ zero_extendqisi2
 2169 1fdc 033081E0 		add	r3, r1, r3
 2170 1fe0 FF3003E2 		and	r3, r3, #255
 2171 1fe4 0030C5E5 		strb	r3, [r5]
 2172 1fe8 540F1FE5 		ldr	r0, .L383+256
 2173 1fec 023083E0 		add	r3, r3, r2
 2174 1ff0 0030C4E5 		strb	r3, [r4]
 2175 1ff4 FEFFFFEB 		bl	uart_transmit
 2176 1ff8 0310D7E5 		ldrb	r1, [r7, #3]	@ zero_extendqisi2
 2177 1ffc 0030D5E5 		ldrb	r3, [r5]	@ zero_extendqisi2
 2178 2000 0020D4E5 		ldrb	r2, [r4]	@ zero_extendqisi2
 2179 2004 033081E0 		add	r3, r1, r3
 2180 2008 FF3003E2 		and	r3, r3, #255
 2181 200c 0030C5E5 		strb	r3, [r5]
 2182 2010 7C0F1FE5 		ldr	r0, .L383+256
 2183 2014 023083E0 		add	r3, r3, r2
 2184 2018 0030C4E5 		strb	r3, [r4]
 2185 201c FEFFFFEB 		bl	uart_transmit
 2186 2020 0020D4E5 		ldrb	r2, [r4]	@ zero_extendqisi2
 2187 2024 0030D5E5 		ldrb	r3, [r5]	@ zero_extendqisi2
 2188 2028 940F1FE5 		ldr	r0, .L383+256
 2189 202c 033082E0 		add	r3, r2, r3
 2190 2030 0010A0E3 		mov	r1, #0
 2191 2034 0030C4E5 		strb	r3, [r4]
 2192 2038 FEFFFFEB 		bl	uart_transmit
 2193 203c 0020D4E5 		ldrb	r2, [r4]	@ zero_extendqisi2
 2194 2040 0030D5E5 		ldrb	r3, [r5]	@ zero_extendqisi2
 2195 2044 B00F1FE5 		ldr	r0, .L383+256
 2196 2048 033082E0 		add	r3, r2, r3
 2197 204c 0010A0E3 		mov	r1, #0
 2198 2050 0030C4E5 		strb	r3, [r4]
 2199 2054 FEFFFFEB 		bl	uart_transmit
 2200 2058 0030D5E5 		ldrb	r3, [r5]	@ zero_extendqisi2
 2201 205c 0020D4E5 		ldrb	r2, [r4]	@ zero_extendqisi2
 2202 2060 703043E2 		sub	r3, r3, #112
 2203 2064 FF3003E2 		and	r3, r3, #255
 2204 2068 0030C5E5 		strb	r3, [r5]
 2205 206c D80F1FE5 		ldr	r0, .L383+256
 2206 2070 023083E0 		add	r3, r3, r2
 2207 2074 9010A0E3 		mov	r1, #144
 2208 2078 0030C4E5 		strb	r3, [r4]
 2209 207c FEFFFFEB 		bl	uart_transmit
 2210 2080 0030D5E5 		ldrb	r3, [r5]	@ zero_extendqisi2
 2211 2084 0020D4E5 		ldrb	r2, [r4]	@ zero_extendqisi2
 2212 2088 413083E2 		add	r3, r3, #65
 2213 208c FF3003E2 		and	r3, r3, #255
 2214 2090 0030C5E5 		strb	r3, [r5]
 2215 2094 023083E0 		add	r3, r3, r2
 2216 2098 0030C4E5 		strb	r3, [r4]
 2217 209c 500F9FE5 		ldr	r0, .L385
 2218 20a0 4110A0E3 		mov	r1, #65
 2219              	.L345:
 2220 20a4 FEFFFFEB 		bl	uart_transmit
 2221 20a8 0010D5E5 		ldrb	r1, [r5]	@ zero_extendqisi2
 2222 20ac 400F9FE5 		ldr	r0, .L385
 2223 20b0 FEFFFFEB 		bl	uart_transmit
 2224 20b4 380F9FE5 		ldr	r0, .L385
 2225 20b8 0010D4E5 		ldrb	r1, [r4]	@ zero_extendqisi2
 2226 20bc FEFFFFEB 		bl	uart_transmit
 2227 20c0 030000EA 		b	.L55
 2228              	.L57:
 2229 20c4 2C3F9FE5 		ldr	r3, .L385+4
 2230 20c8 0020D3E5 		ldrb	r2, [r3]	@ zero_extendqisi2
 2231 20cc 012082E2 		add	r2, r2, #1
 2232 20d0 0020C3E5 		strb	r2, [r3]
 2233              	.L55:
 2234 20d4 203F9FE5 		ldr	r3, .L385+8
 2235 20d8 0070D3E5 		ldrb	r7, [r3]	@ zero_extendqisi2
 2236 20dc 300057E3 		cmp	r7, #48
 2237 20e0 E900001A 		bne	.L58
 2238 20e4 143F9FE5 		ldr	r3, .L385+12
 2239 20e8 0A10A0E3 		mov	r1, #10
 2240 20ec 000093E5 		ldr	r0, [r3]
 2241 20f0 FEFFFFEB 		bl	__aeabi_idiv
 2242 20f4 083F9FE5 		ldr	r3, .L385+16
 2243 20f8 B800CDE1 		strh	r0, [sp, #8]	@ movhi
 2244 20fc 000093E5 		ldr	r0, [r3]	@ float
 2245 2100 FEFFFFEB 		bl	__aeabi_f2iz
 2246 2104 1710A0E3 		mov	r1, #23
 2247 2108 BC00CDE1 		strh	r0, [sp, #12]	@ movhi
 2248 210c E00E9FE5 		ldr	r0, .L385
 2249 2110 FEFFFFEB 		bl	uart_check_free_space
 2250 2114 000050E3 		cmp	r0, #0
 2251 2118 D700000A 		beq	.L59
 2252 211c CC3F9FE5 		ldr	r3, .L385+252
 2253 2120 B020D3E1 		ldrh	r2, [r3]
 2254 2124 172082E2 		add	r2, r2, #23
 2255 2128 B020C3E1 		strh	r2, [r3]	@ movhi
 2256 212c D83F9FE5 		ldr	r3, .L385+280
 2257 2130 B020D3E1 		ldrh	r2, [r3]
 2258 2134 B80E9FE5 		ldr	r0, .L385
 2259 2138 012082E2 		add	r2, r2, #1
 2260 213c 9910A0E3 		mov	r1, #153
 2261 2140 E85F9FE5 		ldr	r5, .L385+316
 2262 2144 E84F9FE5 		ldr	r4, .L385+320
 2263 2148 B020C3E1 		strh	r2, [r3]	@ movhi
 2264 214c FEFFFFEB 		bl	uart_transmit
 2265 2150 9C0E9FE5 		ldr	r0, .L385
 2266 2154 1710A0E3 		mov	r1, #23
 2267 2158 FEFFFFEB 		bl	uart_transmit
 2268 215c 1930A0E3 		mov	r3, #25
 2269 2160 8C0E9FE5 		ldr	r0, .L385
 2270 2164 0210A0E3 		mov	r1, #2
 2271 2168 0030C5E5 		strb	r3, [r5]
 2272 216c 0070C4E5 		strb	r7, [r4]
 2273 2170 FEFFFFEB 		bl	uart_transmit
 2274 2174 0030D5E5 		ldrb	r3, [r5]	@ zero_extendqisi2
 2275 2178 0020D4E5 		ldrb	r2, [r4]	@ zero_extendqisi2
 2276 217c 0C3083E2 		add	r3, r3, #12
 2277 2180 807E9FE5 		ldr	r7, .L385+20
 2278 2184 FF3003E2 		and	r3, r3, #255
 2279 2188 0030C5E5 		strb	r3, [r5]
 2280 218c 600E9FE5 		ldr	r0, .L385
 2281 2190 023083E0 		add	r3, r3, r2
 2282 2194 0C10A0E3 		mov	r1, #12
 2283 2198 0030C4E5 		strb	r3, [r4]
 2284 219c FEFFFFEB 		bl	uart_transmit
 2285 21a0 0010D7E5 		ldrb	r1, [r7]	@ zero_extendqisi2
 2286 21a4 0030D5E5 		ldrb	r3, [r5]	@ zero_extendqisi2
 2287 21a8 0020D4E5 		ldrb	r2, [r4]	@ zero_extendqisi2
 2288 21ac 033081E0 		add	r3, r1, r3
 2289 21b0 FF3003E2 		and	r3, r3, #255
 2290 21b4 0030C5E5 		strb	r3, [r5]
 2291 21b8 340E9FE5 		ldr	r0, .L385
 2292 21bc 023083E0 		add	r3, r3, r2
 2293 21c0 0030C4E5 		strb	r3, [r4]
 2294 21c4 FEFFFFEB 		bl	uart_transmit
 2295 21c8 0110D7E5 		ldrb	r1, [r7, #1]	@ zero_extendqisi2
 2296 21cc 0030D5E5 		ldrb	r3, [r5]	@ zero_extendqisi2
 2297 21d0 0020D4E5 		ldrb	r2, [r4]	@ zero_extendqisi2
 2298 21d4 033081E0 		add	r3, r1, r3
 2299 21d8 F87E9FE5 		ldr	r7, .L385+228
 2300 21dc FF3003E2 		and	r3, r3, #255
 2301 21e0 0030C5E5 		strb	r3, [r5]
 2302 21e4 080E9FE5 		ldr	r0, .L385
 2303 21e8 023083E0 		add	r3, r3, r2
 2304 21ec 0030C4E5 		strb	r3, [r4]
 2305 21f0 FEFFFFEB 		bl	uart_transmit
 2306 21f4 0010D7E5 		ldrb	r1, [r7]	@ zero_extendqisi2
 2307 21f8 0030D5E5 		ldrb	r3, [r5]	@ zero_extendqisi2
 2308 21fc 0020D4E5 		ldrb	r2, [r4]	@ zero_extendqisi2
 2309 2200 033081E0 		add	r3, r1, r3
 2310 2204 FF3003E2 		and	r3, r3, #255
 2311 2208 0030C5E5 		strb	r3, [r5]
 2312 220c E00D9FE5 		ldr	r0, .L385
 2313 2210 023083E0 		add	r3, r3, r2
 2314 2214 0030C4E5 		strb	r3, [r4]
 2315 2218 FEFFFFEB 		bl	uart_transmit
 2316 221c 0110D7E5 		ldrb	r1, [r7, #1]	@ zero_extendqisi2
 2317 2220 0030D5E5 		ldrb	r3, [r5]	@ zero_extendqisi2
 2318 2224 0020D4E5 		ldrb	r2, [r4]	@ zero_extendqisi2
 2319 2228 033081E0 		add	r3, r1, r3
 2320 222c D87D9FE5 		ldr	r7, .L385+24
 2321 2230 FF3003E2 		and	r3, r3, #255
 2322 2234 0030C5E5 		strb	r3, [r5]
 2323 2238 B40D9FE5 		ldr	r0, .L385
 2324 223c 023083E0 		add	r3, r3, r2
 2325 2240 0030C4E5 		strb	r3, [r4]
 2326 2244 FEFFFFEB 		bl	uart_transmit
 2327 2248 0210D7E5 		ldrb	r1, [r7, #2]	@ zero_extendqisi2
 2328 224c 0030D5E5 		ldrb	r3, [r5]	@ zero_extendqisi2
 2329 2250 0020D4E5 		ldrb	r2, [r4]	@ zero_extendqisi2
 2330 2254 033081E0 		add	r3, r1, r3
 2331 2258 FF3003E2 		and	r3, r3, #255
 2332 225c 0030C5E5 		strb	r3, [r5]
 2333 2260 8C0D9FE5 		ldr	r0, .L385
 2334 2264 023083E0 		add	r3, r3, r2
 2335 2268 0030C4E5 		strb	r3, [r4]
 2336 226c FEFFFFEB 		bl	uart_transmit
 2337 2270 0310D7E5 		ldrb	r1, [r7, #3]	@ zero_extendqisi2
 2338 2274 0030D5E5 		ldrb	r3, [r5]	@ zero_extendqisi2
 2339 2278 0020D4E5 		ldrb	r2, [r4]	@ zero_extendqisi2
 2340 227c 033081E0 		add	r3, r1, r3
 2341 2280 FF3003E2 		and	r3, r3, #255
 2342 2284 0030C5E5 		strb	r3, [r5]
 2343 2288 640D9FE5 		ldr	r0, .L385
 2344 228c 023083E0 		add	r3, r3, r2
 2345 2290 0030C4E5 		strb	r3, [r4]
 2346 2294 FEFFFFEB 		bl	uart_transmit
 2347 2298 0810DDE5 		ldrb	r1, [sp, #8]	@ zero_extendqisi2
 2348 229c 0030D5E5 		ldrb	r3, [r5]	@ zero_extendqisi2
 2349 22a0 0020D4E5 		ldrb	r2, [r4]	@ zero_extendqisi2
 2350 22a4 033081E0 		add	r3, r1, r3
 2351 22a8 FF3003E2 		and	r3, r3, #255
 2352 22ac 0030C5E5 		strb	r3, [r5]
 2353 22b0 3C0D9FE5 		ldr	r0, .L385
 2354 22b4 023083E0 		add	r3, r3, r2
 2355 22b8 0030C4E5 		strb	r3, [r4]
 2356 22bc FEFFFFEB 		bl	uart_transmit
 2357 22c0 0910DDE5 		ldrb	r1, [sp, #9]	@ zero_extendqisi2
 2358 22c4 0030D5E5 		ldrb	r3, [r5]	@ zero_extendqisi2
 2359 22c8 0020D4E5 		ldrb	r2, [r4]	@ zero_extendqisi2
 2360 22cc 033081E0 		add	r3, r1, r3
 2361 22d0 387D9FE5 		ldr	r7, .L385+28
 2362 22d4 FF3003E2 		and	r3, r3, #255
 2363 22d8 0030C5E5 		strb	r3, [r5]
 2364 22dc 100D9FE5 		ldr	r0, .L385
 2365 22e0 023083E0 		add	r3, r3, r2
 2366 22e4 0030C4E5 		strb	r3, [r4]
 2367 22e8 FEFFFFEB 		bl	uart_transmit
 2368 22ec 0010D7E5 		ldrb	r1, [r7]	@ zero_extendqisi2
 2369 22f0 0030D5E5 		ldrb	r3, [r5]	@ zero_extendqisi2
 2370 22f4 0020D4E5 		ldrb	r2, [r4]	@ zero_extendqisi2
 2371 22f8 033081E0 		add	r3, r1, r3
 2372 22fc FF3003E2 		and	r3, r3, #255
 2373 2300 0030C5E5 		strb	r3, [r5]
 2374 2304 E80C9FE5 		ldr	r0, .L385
 2375 2308 023083E0 		add	r3, r3, r2
 2376 230c 0030C4E5 		strb	r3, [r4]
 2377 2310 FEFFFFEB 		bl	uart_transmit
 2378 2314 0110D7E5 		ldrb	r1, [r7, #1]	@ zero_extendqisi2
 2379 2318 0030D5E5 		ldrb	r3, [r5]	@ zero_extendqisi2
 2380 231c 0020D4E5 		ldrb	r2, [r4]	@ zero_extendqisi2
 2381 2320 033081E0 		add	r3, r1, r3
 2382 2324 FF3003E2 		and	r3, r3, #255
 2383 2328 0030C5E5 		strb	r3, [r5]
 2384 232c C00C9FE5 		ldr	r0, .L385
 2385 2330 023083E0 		add	r3, r3, r2
 2386 2334 0030C4E5 		strb	r3, [r4]
 2387 2338 FEFFFFEB 		bl	uart_transmit
 2388 233c D03C9FE5 		ldr	r3, .L385+32
 2389 2340 0010D3E5 		ldrb	r1, [r3]	@ zero_extendqisi2
 2390 2344 0030D5E5 		ldrb	r3, [r5]	@ zero_extendqisi2
 2391 2348 0020D4E5 		ldrb	r2, [r4]	@ zero_extendqisi2
 2392 234c 033081E0 		add	r3, r1, r3
 2393 2350 C07C9FE5 		ldr	r7, .L385+36
 2394 2354 FF3003E2 		and	r3, r3, #255
 2395 2358 0030C5E5 		strb	r3, [r5]
 2396 235c 900C9FE5 		ldr	r0, .L385
 2397 2360 023083E0 		add	r3, r3, r2
 2398 2364 0030C4E5 		strb	r3, [r4]
 2399 2368 FEFFFFEB 		bl	uart_transmit
 2400 236c 0010D7E5 		ldrb	r1, [r7]	@ zero_extendqisi2
 2401 2370 0030D5E5 		ldrb	r3, [r5]	@ zero_extendqisi2
 2402 2374 0020D4E5 		ldrb	r2, [r4]	@ zero_extendqisi2
 2403 2378 033081E0 		add	r3, r1, r3
 2404 237c FF3003E2 		and	r3, r3, #255
 2405 2380 0030C5E5 		strb	r3, [r5]
 2406 2384 680C9FE5 		ldr	r0, .L385
 2407 2388 023083E0 		add	r3, r3, r2
 2408 238c 0030C4E5 		strb	r3, [r4]
 2409 2390 FEFFFFEB 		bl	uart_transmit
 2410 2394 0110D7E5 		ldrb	r1, [r7, #1]	@ zero_extendqisi2
 2411 2398 0030D5E5 		ldrb	r3, [r5]	@ zero_extendqisi2
 2412 239c 0020D4E5 		ldrb	r2, [r4]	@ zero_extendqisi2
 2413 23a0 033081E0 		add	r3, r1, r3
 2414 23a4 707C9FE5 		ldr	r7, .L385+40
 2415 23a8 FF3003E2 		and	r3, r3, #255
 2416 23ac 0030C5E5 		strb	r3, [r5]
 2417 23b0 3C0C9FE5 		ldr	r0, .L385
 2418 23b4 023083E0 		add	r3, r3, r2
 2419 23b8 0030C4E5 		strb	r3, [r4]
 2420 23bc FEFFFFEB 		bl	uart_transmit
 2421 23c0 0010D7E5 		ldrb	r1, [r7]	@ zero_extendqisi2
 2422 23c4 0030D5E5 		ldrb	r3, [r5]	@ zero_extendqisi2
 2423 23c8 0020D4E5 		ldrb	r2, [r4]	@ zero_extendqisi2
 2424 23cc 033081E0 		add	r3, r1, r3
 2425 23d0 FF3003E2 		and	r3, r3, #255
 2426 23d4 0030C5E5 		strb	r3, [r5]
 2427 23d8 140C9FE5 		ldr	r0, .L385
 2428 23dc 023083E0 		add	r3, r3, r2
 2429 23e0 0030C4E5 		strb	r3, [r4]
 2430 23e4 FEFFFFEB 		bl	uart_transmit
 2431 23e8 0110D7E5 		ldrb	r1, [r7, #1]	@ zero_extendqisi2
 2432 23ec 0030D5E5 		ldrb	r3, [r5]	@ zero_extendqisi2
 2433 23f0 0020D4E5 		ldrb	r2, [r4]	@ zero_extendqisi2
 2434 23f4 033081E0 		add	r3, r1, r3
 2435 23f8 FF3003E2 		and	r3, r3, #255
 2436 23fc 0030C5E5 		strb	r3, [r5]
 2437 2400 EC0B9FE5 		ldr	r0, .L385
 2438 2404 023083E0 		add	r3, r3, r2
 2439 2408 0030C4E5 		strb	r3, [r4]
 2440 240c FEFFFFEB 		bl	uart_transmit
 2441 2410 0C10DDE5 		ldrb	r1, [sp, #12]	@ zero_extendqisi2
 2442 2414 0030D5E5 		ldrb	r3, [r5]	@ zero_extendqisi2
 2443 2418 0020D4E5 		ldrb	r2, [r4]	@ zero_extendqisi2
 2444 241c 033081E0 		add	r3, r1, r3
 2445 2420 FF3003E2 		and	r3, r3, #255
 2446 2424 0030C5E5 		strb	r3, [r5]
 2447 2428 C40B9FE5 		ldr	r0, .L385
 2448 242c 023083E0 		add	r3, r3, r2
 2449 2430 0030C4E5 		strb	r3, [r4]
 2450 2434 FEFFFFEB 		bl	uart_transmit
 2451 2438 0D10DDE5 		ldrb	r1, [sp, #13]	@ zero_extendqisi2
 2452 243c 0030D5E5 		ldrb	r3, [r5]	@ zero_extendqisi2
 2453 2440 0020D4E5 		ldrb	r2, [r4]	@ zero_extendqisi2
 2454 2444 033081E0 		add	r3, r1, r3
 2455 2448 FF3003E2 		and	r3, r3, #255
 2456 244c 0030C5E5 		strb	r3, [r5]
 2457 2450 9C0B9FE5 		ldr	r0, .L385
 2458 2454 023083E0 		add	r3, r3, r2
 2459 2458 0030C4E5 		strb	r3, [r4]
 2460 245c FEFFFFEB 		bl	uart_transmit
 2461 2460 0010D5E5 		ldrb	r1, [r5]	@ zero_extendqisi2
 2462 2464 880B9FE5 		ldr	r0, .L385
 2463 2468 FEFFFFEB 		bl	uart_transmit
 2464 246c 800B9FE5 		ldr	r0, .L385
 2465 2470 0010D4E5 		ldrb	r1, [r4]	@ zero_extendqisi2
 2466 2474 FEFFFFEB 		bl	uart_transmit
 2467 2478 030000EA 		b	.L58
 2468              	.L59:
 2469 247c 743B9FE5 		ldr	r3, .L385+4
 2470 2480 0020D3E5 		ldrb	r2, [r3]	@ zero_extendqisi2
 2471 2484 012082E2 		add	r2, r2, #1
 2472 2488 0020C3E5 		strb	r2, [r3]
 2473              	.L58:
 2474 248c 8C1B9FE5 		ldr	r1, .L385+44
 2475 2490 0030D1E5 		ldrb	r3, [r1]	@ zero_extendqisi2
 2476 2494 3C0053E3 		cmp	r3, #60
 2477 2498 C500001A 		bne	.L61
 2478 249c 803B9FE5 		ldr	r3, .L385+48
 2479 24a0 0030D3E5 		ldrb	r3, [r3]	@ zero_extendqisi2
 2480 24a4 000053E3 		cmp	r3, #0
 2481 24a8 5901000A 		beq	.L62
 2482 24ac 400B9FE5 		ldr	r0, .L385
 2483 24b0 1610A0E3 		mov	r1, #22
 2484 24b4 FEFFFFEB 		bl	uart_check_free_space
 2485 24b8 000050E3 		cmp	r0, #0
 2486 24bc 5001000A 		beq	.L64
 2487 24c0 283C9FE5 		ldr	r3, .L385+252
 2488 24c4 B020D3E1 		ldrh	r2, [r3]
 2489 24c8 162082E2 		add	r2, r2, #22
 2490 24cc B020C3E1 		strh	r2, [r3]	@ movhi
 2491 24d0 343C9FE5 		ldr	r3, .L385+280
 2492 24d4 B020D3E1 		ldrh	r2, [r3]
 2493 24d8 140B9FE5 		ldr	r0, .L385
 2494 24dc 012082E2 		add	r2, r2, #1
 2495 24e0 9910A0E3 		mov	r1, #153
 2496 24e4 445C9FE5 		ldr	r5, .L385+316
 2497 24e8 B020C3E1 		strh	r2, [r3]	@ movhi
 2498 24ec FEFFFFEB 		bl	uart_transmit
 2499 24f0 FC0A9FE5 		ldr	r0, .L385
 2500 24f4 1610A0E3 		mov	r1, #22
 2501 24f8 344C9FE5 		ldr	r4, .L385+320
 2502 24fc FEFFFFEB 		bl	uart_transmit
 2503 2500 1830A0E3 		mov	r3, #24
 2504 2504 0030C5E5 		strb	r3, [r5]
 2505 2508 E40A9FE5 		ldr	r0, .L385
 2506 250c 2E30A0E3 		mov	r3, #46
 2507 2510 0210A0E3 		mov	r1, #2
 2508 2514 0030C4E5 		strb	r3, [r4]
 2509 2518 FEFFFFEB 		bl	uart_transmit
 2510 251c 0030D5E5 		ldrb	r3, [r5]	@ zero_extendqisi2
 2511 2520 0020D4E5 		ldrb	r2, [r4]	@ zero_extendqisi2
 2512 2524 163083E2 		add	r3, r3, #22
 2513 2528 F87A9FE5 		ldr	r7, .L385+52
 2514 252c FF3003E2 		and	r3, r3, #255
 2515 2530 0030C5E5 		strb	r3, [r5]
 2516 2534 B80A9FE5 		ldr	r0, .L385
 2517 2538 023083E0 		add	r3, r3, r2
 2518 253c 1610A0E3 		mov	r1, #22
 2519 2540 0030C4E5 		strb	r3, [r4]
 2520 2544 FEFFFFEB 		bl	uart_transmit
 2521 2548 0010D7E5 		ldrb	r1, [r7]	@ zero_extendqisi2
 2522 254c 0030D5E5 		ldrb	r3, [r5]	@ zero_extendqisi2
 2523 2550 0020D4E5 		ldrb	r2, [r4]	@ zero_extendqisi2
 2524 2554 033081E0 		add	r3, r1, r3
 2525 2558 FF3003E2 		and	r3, r3, #255
 2526 255c 0030C5E5 		strb	r3, [r5]
 2527 2560 8C0A9FE5 		ldr	r0, .L385
 2528 2564 023083E0 		add	r3, r3, r2
 2529 2568 0030C4E5 		strb	r3, [r4]
 2530 256c FEFFFFEB 		bl	uart_transmit
 2531 2570 0110D7E5 		ldrb	r1, [r7, #1]	@ zero_extendqisi2
 2532 2574 0030D5E5 		ldrb	r3, [r5]	@ zero_extendqisi2
 2533 2578 0020D4E5 		ldrb	r2, [r4]	@ zero_extendqisi2
 2534 257c 033081E0 		add	r3, r1, r3
 2535 2580 FF3003E2 		and	r3, r3, #255
 2536 2584 0030C5E5 		strb	r3, [r5]
 2537 2588 640A9FE5 		ldr	r0, .L385
 2538 258c 023083E0 		add	r3, r3, r2
 2539 2590 0030C4E5 		strb	r3, [r4]
 2540 2594 FEFFFFEB 		bl	uart_transmit
 2541 2598 0210D7E5 		ldrb	r1, [r7, #2]	@ zero_extendqisi2
 2542 259c 0030D5E5 		ldrb	r3, [r5]	@ zero_extendqisi2
 2543 25a0 0020D4E5 		ldrb	r2, [r4]	@ zero_extendqisi2
 2544 25a4 033081E0 		add	r3, r1, r3
 2545 25a8 FF3003E2 		and	r3, r3, #255
 2546 25ac 0030C5E5 		strb	r3, [r5]
 2547 25b0 3C0A9FE5 		ldr	r0, .L385
 2548 25b4 023083E0 		add	r3, r3, r2
 2549 25b8 0030C4E5 		strb	r3, [r4]
 2550 25bc FEFFFFEB 		bl	uart_transmit
 2551 25c0 0310D7E5 		ldrb	r1, [r7, #3]	@ zero_extendqisi2
 2552 25c4 0030D5E5 		ldrb	r3, [r5]	@ zero_extendqisi2
 2553 25c8 0020D4E5 		ldrb	r2, [r4]	@ zero_extendqisi2
 2554 25cc 033081E0 		add	r3, r1, r3
 2555 25d0 547A9FE5 		ldr	r7, .L385+56
 2556 25d4 FF3003E2 		and	r3, r3, #255
 2557 25d8 0030C5E5 		strb	r3, [r5]
 2558 25dc 100A9FE5 		ldr	r0, .L385
 2559 25e0 023083E0 		add	r3, r3, r2
 2560 25e4 0030C4E5 		strb	r3, [r4]
 2561 25e8 FEFFFFEB 		bl	uart_transmit
 2562 25ec 0010D7E5 		ldrb	r1, [r7]	@ zero_extendqisi2
 2563 25f0 0030D5E5 		ldrb	r3, [r5]	@ zero_extendqisi2
 2564 25f4 0020D4E5 		ldrb	r2, [r4]	@ zero_extendqisi2
 2565 25f8 033081E0 		add	r3, r1, r3
 2566 25fc FF3003E2 		and	r3, r3, #255
 2567 2600 0030C5E5 		strb	r3, [r5]
 2568 2604 E8099FE5 		ldr	r0, .L385
 2569 2608 023083E0 		add	r3, r3, r2
 2570 260c 0030C4E5 		strb	r3, [r4]
 2571 2610 FEFFFFEB 		bl	uart_transmit
 2572 2614 0110D7E5 		ldrb	r1, [r7, #1]	@ zero_extendqisi2
 2573 2618 0030D5E5 		ldrb	r3, [r5]	@ zero_extendqisi2
 2574 261c 0020D4E5 		ldrb	r2, [r4]	@ zero_extendqisi2
 2575 2620 033081E0 		add	r3, r1, r3
 2576 2624 FF3003E2 		and	r3, r3, #255
 2577 2628 0030C5E5 		strb	r3, [r5]
 2578 262c C0099FE5 		ldr	r0, .L385
 2579 2630 023083E0 		add	r3, r3, r2
 2580 2634 0030C4E5 		strb	r3, [r4]
 2581 2638 FEFFFFEB 		bl	uart_transmit
 2582 263c 0210D7E5 		ldrb	r1, [r7, #2]	@ zero_extendqisi2
 2583 2640 0030D5E5 		ldrb	r3, [r5]	@ zero_extendqisi2
 2584 2644 0020D4E5 		ldrb	r2, [r4]	@ zero_extendqisi2
 2585 2648 033081E0 		add	r3, r1, r3
 2586 264c FF3003E2 		and	r3, r3, #255
 2587 2650 0030C5E5 		strb	r3, [r5]
 2588 2654 98099FE5 		ldr	r0, .L385
 2589 2658 023083E0 		add	r3, r3, r2
 2590 265c 0030C4E5 		strb	r3, [r4]
 2591 2660 FEFFFFEB 		bl	uart_transmit
 2592 2664 0310D7E5 		ldrb	r1, [r7, #3]	@ zero_extendqisi2
 2593 2668 0030D5E5 		ldrb	r3, [r5]	@ zero_extendqisi2
 2594 266c 0020D4E5 		ldrb	r2, [r4]	@ zero_extendqisi2
 2595 2670 033081E0 		add	r3, r1, r3
 2596 2674 B4799FE5 		ldr	r7, .L385+60
 2597 2678 FF3003E2 		and	r3, r3, #255
 2598 267c 0030C5E5 		strb	r3, [r5]
 2599 2680 6C099FE5 		ldr	r0, .L385
 2600 2684 023083E0 		add	r3, r3, r2
 2601 2688 0030C4E5 		strb	r3, [r4]
 2602 268c FEFFFFEB 		bl	uart_transmit
 2603 2690 0010D7E5 		ldrb	r1, [r7]	@ zero_extendqisi2
 2604 2694 0030D5E5 		ldrb	r3, [r5]	@ zero_extendqisi2
 2605 2698 0020D4E5 		ldrb	r2, [r4]	@ zero_extendqisi2
 2606 269c 033081E0 		add	r3, r1, r3
 2607 26a0 FF3003E2 		and	r3, r3, #255
 2608 26a4 0030C5E5 		strb	r3, [r5]
 2609 26a8 44099FE5 		ldr	r0, .L385
 2610 26ac 023083E0 		add	r3, r3, r2
 2611 26b0 0030C4E5 		strb	r3, [r4]
 2612 26b4 FEFFFFEB 		bl	uart_transmit
 2613 26b8 0110D7E5 		ldrb	r1, [r7, #1]	@ zero_extendqisi2
 2614 26bc 0030D5E5 		ldrb	r3, [r5]	@ zero_extendqisi2
 2615 26c0 0020D4E5 		ldrb	r2, [r4]	@ zero_extendqisi2
 2616 26c4 033081E0 		add	r3, r1, r3
 2617 26c8 FF3003E2 		and	r3, r3, #255
 2618 26cc 0030C5E5 		strb	r3, [r5]
 2619 26d0 1C099FE5 		ldr	r0, .L385
 2620 26d4 023083E0 		add	r3, r3, r2
 2621 26d8 0030C4E5 		strb	r3, [r4]
 2622 26dc FEFFFFEB 		bl	uart_transmit
 2623 26e0 0210D7E5 		ldrb	r1, [r7, #2]	@ zero_extendqisi2
 2624 26e4 0030D5E5 		ldrb	r3, [r5]	@ zero_extendqisi2
 2625 26e8 0020D4E5 		ldrb	r2, [r4]	@ zero_extendqisi2
 2626 26ec 033081E0 		add	r3, r1, r3
 2627 26f0 FF3003E2 		and	r3, r3, #255
 2628 26f4 0030C5E5 		strb	r3, [r5]
 2629 26f8 F4089FE5 		ldr	r0, .L385
 2630 26fc 023083E0 		add	r3, r3, r2
 2631 2700 0030C4E5 		strb	r3, [r4]
 2632 2704 FEFFFFEB 		bl	uart_transmit
 2633 2708 0310D7E5 		ldrb	r1, [r7, #3]	@ zero_extendqisi2
 2634 270c 0030D5E5 		ldrb	r3, [r5]	@ zero_extendqisi2
 2635 2710 0020D4E5 		ldrb	r2, [r4]	@ zero_extendqisi2
 2636 2714 033081E0 		add	r3, r1, r3
 2637 2718 14799FE5 		ldr	r7, .L385+64
 2638 271c FF3003E2 		and	r3, r3, #255
 2639 2720 0030C5E5 		strb	r3, [r5]
 2640 2724 C8089FE5 		ldr	r0, .L385
 2641 2728 023083E0 		add	r3, r3, r2
 2642 272c 0030C4E5 		strb	r3, [r4]
 2643 2730 FEFFFFEB 		bl	uart_transmit
 2644 2734 0010D7E5 		ldrb	r1, [r7]	@ zero_extendqisi2
 2645 2738 0030D5E5 		ldrb	r3, [r5]	@ zero_extendqisi2
 2646 273c 0020D4E5 		ldrb	r2, [r4]	@ zero_extendqisi2
 2647 2740 033081E0 		add	r3, r1, r3
 2648 2744 FF3003E2 		and	r3, r3, #255
 2649 2748 0030C5E5 		strb	r3, [r5]
 2650 274c A0089FE5 		ldr	r0, .L385
 2651 2750 023083E0 		add	r3, r3, r2
 2652 2754 0030C4E5 		strb	r3, [r4]
 2653 2758 FEFFFFEB 		bl	uart_transmit
 2654 275c 0110D7E5 		ldrb	r1, [r7, #1]	@ zero_extendqisi2
 2655 2760 0030D5E5 		ldrb	r3, [r5]	@ zero_extendqisi2
 2656 2764 0020D4E5 		ldrb	r2, [r4]	@ zero_extendqisi2
 2657 2768 033081E0 		add	r3, r1, r3
 2658 276c FF3003E2 		and	r3, r3, #255
 2659 2770 0030C5E5 		strb	r3, [r5]
 2660 2774 78089FE5 		ldr	r0, .L385
 2661 2778 023083E0 		add	r3, r3, r2
 2662 277c 0030C4E5 		strb	r3, [r4]
 2663 2780 FEFFFFEB 		bl	uart_transmit
 2664 2784 0210D7E5 		ldrb	r1, [r7, #2]	@ zero_extendqisi2
 2665 2788 0030D5E5 		ldrb	r3, [r5]	@ zero_extendqisi2
 2666 278c 0020D4E5 		ldrb	r2, [r4]	@ zero_extendqisi2
 2667 2790 033081E0 		add	r3, r1, r3
 2668 2794 FF3003E2 		and	r3, r3, #255
 2669 2798 0030C5E5 		strb	r3, [r5]
 2670 279c 50089FE5 		ldr	r0, .L385
 2671 27a0 023083E0 		add	r3, r3, r2
 2672 27a4 0030C4E5 		strb	r3, [r4]
 2673 27a8 FEFFFFEB 		bl	uart_transmit
 2674 27ac 0310D7E5 		ldrb	r1, [r7, #3]	@ zero_extendqisi2
 2675 27b0 830000EA 		b	.L346
 2676              	.L61:
 2677 27b4 420053E3 		cmp	r3, #66
 2678 27b8 9500001A 		bne	.L62
 2679 27bc 30089FE5 		ldr	r0, .L385
 2680 27c0 1010A0E3 		mov	r1, #16
 2681 27c4 FEFFFFEB 		bl	uart_check_free_space
 2682 27c8 000050E3 		cmp	r0, #0
 2683 27cc 8C00000A 		beq	.L64
 2684 27d0 18399FE5 		ldr	r3, .L385+252
 2685 27d4 B020D3E1 		ldrh	r2, [r3]
 2686 27d8 102082E2 		add	r2, r2, #16
 2687 27dc B020C3E1 		strh	r2, [r3]	@ movhi
 2688 27e0 24399FE5 		ldr	r3, .L385+280
 2689 27e4 B020D3E1 		ldrh	r2, [r3]
 2690 27e8 04089FE5 		ldr	r0, .L385
 2691 27ec 012082E2 		add	r2, r2, #1
 2692 27f0 9910A0E3 		mov	r1, #153
 2693 27f4 34599FE5 		ldr	r5, .L385+316
 2694 27f8 B020C3E1 		strh	r2, [r3]	@ movhi
 2695 27fc FEFFFFEB 		bl	uart_transmit
 2696 2800 EC079FE5 		ldr	r0, .L385
 2697 2804 1010A0E3 		mov	r1, #16
 2698 2808 24499FE5 		ldr	r4, .L385+320
 2699 280c FEFFFFEB 		bl	uart_transmit
 2700 2810 1230A0E3 		mov	r3, #18
 2701 2814 0030C5E5 		strb	r3, [r5]
 2702 2818 D4079FE5 		ldr	r0, .L385
 2703 281c 2230A0E3 		mov	r3, #34
 2704 2820 0210A0E3 		mov	r1, #2
 2705 2824 0030C4E5 		strb	r3, [r4]
 2706 2828 FEFFFFEB 		bl	uart_transmit
 2707 282c 0030D5E5 		ldrb	r3, [r5]	@ zero_extendqisi2
 2708 2830 0020D4E5 		ldrb	r2, [r4]	@ zero_extendqisi2
 2709 2834 073083E2 		add	r3, r3, #7
 2710 2838 C8789FE5 		ldr	r7, .L385+276
 2711 283c FF3003E2 		and	r3, r3, #255
 2712 2840 0030C5E5 		strb	r3, [r5]
 2713 2844 A8079FE5 		ldr	r0, .L385
 2714 2848 023083E0 		add	r3, r3, r2
 2715 284c 0710A0E3 		mov	r1, #7
 2716 2850 0030C4E5 		strb	r3, [r4]
 2717 2854 FEFFFFEB 		bl	uart_transmit
 2718 2858 0010D7E5 		ldrb	r1, [r7]	@ zero_extendqisi2
 2719 285c 0030D5E5 		ldrb	r3, [r5]	@ zero_extendqisi2
 2720 2860 0020D4E5 		ldrb	r2, [r4]	@ zero_extendqisi2
 2721 2864 033081E0 		add	r3, r1, r3
 2722 2868 FF3003E2 		and	r3, r3, #255
 2723 286c 0030C5E5 		strb	r3, [r5]
 2724 2870 7C079FE5 		ldr	r0, .L385
 2725 2874 023083E0 		add	r3, r3, r2
 2726 2878 0030C4E5 		strb	r3, [r4]
 2727 287c FEFFFFEB 		bl	uart_transmit
 2728 2880 0110D7E5 		ldrb	r1, [r7, #1]	@ zero_extendqisi2
 2729 2884 0030D5E5 		ldrb	r3, [r5]	@ zero_extendqisi2
 2730 2888 0020D4E5 		ldrb	r2, [r4]	@ zero_extendqisi2
 2731 288c 033081E0 		add	r3, r1, r3
 2732 2890 FF3003E2 		and	r3, r3, #255
 2733 2894 0030C5E5 		strb	r3, [r5]
 2734 2898 54079FE5 		ldr	r0, .L385
 2735 289c 023083E0 		add	r3, r3, r2
 2736 28a0 0030C4E5 		strb	r3, [r4]
 2737 28a4 FEFFFFEB 		bl	uart_transmit
 2738 28a8 0210D7E5 		ldrb	r1, [r7, #2]	@ zero_extendqisi2
 2739 28ac 0030D5E5 		ldrb	r3, [r5]	@ zero_extendqisi2
 2740 28b0 0020D4E5 		ldrb	r2, [r4]	@ zero_extendqisi2
 2741 28b4 033081E0 		add	r3, r1, r3
 2742 28b8 FF3003E2 		and	r3, r3, #255
 2743 28bc 0030C5E5 		strb	r3, [r5]
 2744 28c0 2C079FE5 		ldr	r0, .L385
 2745 28c4 023083E0 		add	r3, r3, r2
 2746 28c8 0030C4E5 		strb	r3, [r4]
 2747 28cc FEFFFFEB 		bl	uart_transmit
 2748 28d0 0310D7E5 		ldrb	r1, [r7, #3]	@ zero_extendqisi2
 2749 28d4 0030D5E5 		ldrb	r3, [r5]	@ zero_extendqisi2
 2750 28d8 0020D4E5 		ldrb	r2, [r4]	@ zero_extendqisi2
 2751 28dc 033081E0 		add	r3, r1, r3
 2752 28e0 FF3003E2 		and	r3, r3, #255
 2753 28e4 0030C5E5 		strb	r3, [r5]
 2754 28e8 04079FE5 		ldr	r0, .L385
 2755 28ec 023083E0 		add	r3, r3, r2
 2756 28f0 0030C4E5 		strb	r3, [r4]
 2757 28f4 FEFFFFEB 		bl	uart_transmit
 2758 28f8 1610D7E5 		ldrb	r1, [r7, #22]	@ zero_extendqisi2
 2759 28fc 0030D5E5 		ldrb	r3, [r5]	@ zero_extendqisi2
 2760 2900 0020D4E5 		ldrb	r2, [r4]	@ zero_extendqisi2
 2761 2904 033081E0 		add	r3, r1, r3
 2762 2908 FF3003E2 		and	r3, r3, #255
 2763 290c 0030C5E5 		strb	r3, [r5]
 2764 2910 DC069FE5 		ldr	r0, .L385
 2765 2914 023083E0 		add	r3, r3, r2
 2766 2918 0030C4E5 		strb	r3, [r4]
 2767 291c FEFFFFEB 		bl	uart_transmit
 2768 2920 1710D7E5 		ldrb	r1, [r7, #23]	@ zero_extendqisi2
 2769 2924 0030D5E5 		ldrb	r3, [r5]	@ zero_extendqisi2
 2770 2928 0020D4E5 		ldrb	r2, [r4]	@ zero_extendqisi2
 2771 292c 033081E0 		add	r3, r1, r3
 2772 2930 FF3003E2 		and	r3, r3, #255
 2773 2934 0030C5E5 		strb	r3, [r5]
 2774 2938 B4069FE5 		ldr	r0, .L385
 2775 293c 023083E0 		add	r3, r3, r2
 2776 2940 0030C4E5 		strb	r3, [r4]
 2777 2944 FEFFFFEB 		bl	uart_transmit
 2778 2948 1410D7E5 		ldrb	r1, [r7, #20]	@ zero_extendqisi2
 2779 294c 0030D5E5 		ldrb	r3, [r5]	@ zero_extendqisi2
 2780 2950 0020D4E5 		ldrb	r2, [r4]	@ zero_extendqisi2
 2781 2954 033081E0 		add	r3, r1, r3
 2782 2958 FF3003E2 		and	r3, r3, #255
 2783 295c 0030C5E5 		strb	r3, [r5]
 2784 2960 8C069FE5 		ldr	r0, .L385
 2785 2964 023083E0 		add	r3, r3, r2
 2786 2968 0030C4E5 		strb	r3, [r4]
 2787 296c FEFFFFEB 		bl	uart_transmit
 2788 2970 1510D7E5 		ldrb	r1, [r7, #21]	@ zero_extendqisi2
 2789 2974 0030D5E5 		ldrb	r3, [r5]	@ zero_extendqisi2
 2790 2978 0020D4E5 		ldrb	r2, [r4]	@ zero_extendqisi2
 2791 297c 033081E0 		add	r3, r1, r3
 2792 2980 FF3003E2 		and	r3, r3, #255
 2793 2984 0030C5E5 		strb	r3, [r5]
 2794 2988 64069FE5 		ldr	r0, .L385
 2795 298c 023083E0 		add	r3, r3, r2
 2796 2990 0030C4E5 		strb	r3, [r4]
 2797 2994 FEFFFFEB 		bl	uart_transmit
 2798 2998 1810D7E5 		ldrb	r1, [r7, #24]	@ zero_extendqisi2
 2799 299c 0030D5E5 		ldrb	r3, [r5]	@ zero_extendqisi2
 2800 29a0 0020D4E5 		ldrb	r2, [r4]	@ zero_extendqisi2
 2801 29a4 033081E0 		add	r3, r1, r3
 2802 29a8 FF3003E2 		and	r3, r3, #255
 2803 29ac 0030C5E5 		strb	r3, [r5]
 2804 29b0 3C069FE5 		ldr	r0, .L385
 2805 29b4 023083E0 		add	r3, r3, r2
 2806 29b8 0030C4E5 		strb	r3, [r4]
 2807 29bc FEFFFFEB 		bl	uart_transmit
 2808 29c0 1910D7E5 		ldrb	r1, [r7, #25]	@ zero_extendqisi2
 2809              	.L346:
 2810 29c4 0030D5E5 		ldrb	r3, [r5]	@ zero_extendqisi2
 2811 29c8 0020D4E5 		ldrb	r2, [r4]	@ zero_extendqisi2
 2812 29cc 033081E0 		add	r3, r1, r3
 2813 29d0 FF3003E2 		and	r3, r3, #255
 2814 29d4 0030C5E5 		strb	r3, [r5]
 2815 29d8 14069FE5 		ldr	r0, .L385
 2816 29dc 023083E0 		add	r3, r3, r2
 2817 29e0 0030C4E5 		strb	r3, [r4]
 2818 29e4 FEFFFFEB 		bl	uart_transmit
 2819 29e8 0010D5E5 		ldrb	r1, [r5]	@ zero_extendqisi2
 2820 29ec 00069FE5 		ldr	r0, .L385
 2821 29f0 FEFFFFEB 		bl	uart_transmit
 2822 29f4 F8059FE5 		ldr	r0, .L385
 2823 29f8 0010D4E5 		ldrb	r1, [r4]	@ zero_extendqisi2
 2824 29fc FEFFFFEB 		bl	uart_transmit
 2825 2a00 030000EA 		b	.L62
 2826              	.L64:
 2827 2a04 EC359FE5 		ldr	r3, .L385+4
 2828 2a08 0020D3E5 		ldrb	r2, [r3]	@ zero_extendqisi2
 2829 2a0c 012082E2 		add	r2, r2, #1
 2830 2a10 0020C3E5 		strb	r2, [r3]
 2831              	.L62:
 2832 2a14 1C369FE5 		ldr	r3, .L385+68
 2833 2a18 0030D3E5 		ldrb	r3, [r3]	@ zero_extendqisi2
 2834 2a1c 480053E3 		cmp	r3, #72
 2835 2a20 D300001A 		bne	.L65
 2836 2a24 10769FE5 		ldr	r7, .L385+72
 2837 2a28 0030D7E5 		ldrb	r3, [r7]	@ zero_extendqisi2
 2838 2a2c 1E0053E3 		cmp	r3, #30
 2839 2a30 0030A083 		movhi	r3, #0
 2840 2a34 0030C785 		strhib	r3, [r7]
 2841 2a38 0030D7E5 		ldrb	r3, [r7]	@ zero_extendqisi2
 2842 2a3c 1E0053E3 		cmp	r3, #30
 2843 2a40 03F19F97 		ldrls	pc, [pc, r3, asl #2]
 2844 2a44 620000EA 		b	.L67
 2845              	.L69:
 2846 2a48 C42A0000 		.word	.L68
 2847 2a4c CC2A0000 		.word	.L70
 2848 2a50 E02A0000 		.word	.L71
 2849 2a54 E82A0000 		.word	.L72
 2850 2a58 F02A0000 		.word	.L73
 2851 2a5c F82A0000 		.word	.L74
 2852 2a60 002B0000 		.word	.L75
 2853 2a64 082B0000 		.word	.L76
 2854 2a68 102B0000 		.word	.L77
 2855 2a6c 182B0000 		.word	.L78
 2856 2a70 202B0000 		.word	.L79
 2857 2a74 282B0000 		.word	.L80
 2858 2a78 302B0000 		.word	.L81
 2859 2a7c 382B0000 		.word	.L82
 2860 2a80 402B0000 		.word	.L83
 2861 2a84 482B0000 		.word	.L84
 2862 2a88 502B0000 		.word	.L85
 2863 2a8c 582B0000 		.word	.L86
 2864 2a90 602B0000 		.word	.L87
 2865 2a94 682B0000 		.word	.L88
 2866 2a98 702B0000 		.word	.L89
 2867 2a9c 782B0000 		.word	.L90
 2868 2aa0 802B0000 		.word	.L91
 2869 2aa4 882B0000 		.word	.L92
 2870 2aa8 902B0000 		.word	.L93
 2871 2aac 9C2B0000 		.word	.L94
 2872 2ab0 A82B0000 		.word	.L95
 2873 2ab4 B02B0000 		.word	.L96
 2874 2ab8 B82B0000 		.word	.L97
 2875 2abc C02B0000 		.word	.L98
 2876 2ac0 C82B0000 		.word	.L99
 2877              	.L68:
 2878 2ac4 0000D6E5 		ldrb	r0, [r6]	@ zero_extendqisi2
 2879 2ac8 010000EA 		b	.L347
 2880              	.L70:
 2881 2acc 6C359FE5 		ldr	r3, .L385+76
 2882              	.L348:
 2883 2ad0 0000D3E5 		ldrb	r0, [r3]	@ zero_extendqisi2
 2884              	.L347:
 2885 2ad4 FEFFFFEB 		bl	__aeabi_ui2f
 2886 2ad8 0C008DE5 		str	r0, [sp, #12]	@ float
 2887 2adc 3E0000EA 		b	.L100
 2888              	.L71:
 2889 2ae0 5C359FE5 		ldr	r3, .L385+80
 2890 2ae4 2D0000EA 		b	.L380
 2891              	.L72:
 2892 2ae8 58359FE5 		ldr	r3, .L385+84
 2893 2aec 2B0000EA 		b	.L380
 2894              	.L73:
 2895 2af0 54359FE5 		ldr	r3, .L385+88
 2896 2af4 290000EA 		b	.L380
 2897              	.L74:
 2898 2af8 50359FE5 		ldr	r3, .L385+92
 2899 2afc 270000EA 		b	.L380
 2900              	.L75:
 2901 2b00 4C359FE5 		ldr	r3, .L385+96
 2902 2b04 250000EA 		b	.L380
 2903              	.L76:
 2904 2b08 48359FE5 		ldr	r3, .L385+100
 2905 2b0c 230000EA 		b	.L380
 2906              	.L77:
 2907 2b10 44359FE5 		ldr	r3, .L385+104
 2908 2b14 210000EA 		b	.L380
 2909              	.L78:
 2910 2b18 40359FE5 		ldr	r3, .L385+108
 2911 2b1c 1F0000EA 		b	.L380
 2912              	.L79:
 2913 2b20 3C359FE5 		ldr	r3, .L385+112
 2914 2b24 1D0000EA 		b	.L380
 2915              	.L80:
 2916 2b28 38359FE5 		ldr	r3, .L385+116
 2917 2b2c 1B0000EA 		b	.L380
 2918              	.L81:
 2919 2b30 34359FE5 		ldr	r3, .L385+120
 2920 2b34 190000EA 		b	.L380
 2921              	.L82:
 2922 2b38 30359FE5 		ldr	r3, .L385+124
 2923 2b3c 170000EA 		b	.L380
 2924              	.L83:
 2925 2b40 2C359FE5 		ldr	r3, .L385+128
 2926 2b44 150000EA 		b	.L380
 2927              	.L84:
 2928 2b48 28359FE5 		ldr	r3, .L385+132
 2929 2b4c 130000EA 		b	.L380
 2930              	.L85:
 2931 2b50 24359FE5 		ldr	r3, .L385+136
 2932 2b54 110000EA 		b	.L380
 2933              	.L86:
 2934 2b58 20359FE5 		ldr	r3, .L385+140
 2935 2b5c 0F0000EA 		b	.L380
 2936              	.L87:
 2937 2b60 1C359FE5 		ldr	r3, .L385+144
 2938 2b64 0D0000EA 		b	.L380
 2939              	.L88:
 2940 2b68 18359FE5 		ldr	r3, .L385+148
 2941 2b6c 0B0000EA 		b	.L380
 2942              	.L89:
 2943 2b70 14359FE5 		ldr	r3, .L385+152
 2944 2b74 090000EA 		b	.L380
 2945              	.L90:
 2946 2b78 10359FE5 		ldr	r3, .L385+156
 2947 2b7c 070000EA 		b	.L380
 2948              	.L91:
 2949 2b80 0C359FE5 		ldr	r3, .L385+160
 2950 2b84 050000EA 		b	.L380
 2951              	.L92:
 2952 2b88 08359FE5 		ldr	r3, .L385+164
 2953 2b8c 030000EA 		b	.L380
 2954              	.L93:
 2955 2b90 78349FE5 		ldr	r3, .L385+28
 2956 2b94 B000D3E1 		ldrh	r0, [r3]
 2957 2b98 CDFFFFEA 		b	.L347
 2958              	.L94:
 2959 2b9c F8349FE5 		ldr	r3, .L385+168
 2960              	.L380:
 2961 2ba0 003093E5 		ldr	r3, [r3]	@ float
 2962 2ba4 0B0000EA 		b	.L349
 2963              	.L95:
 2964 2ba8 F0349FE5 		ldr	r3, .L385+172
 2965 2bac C7FFFFEA 		b	.L348
 2966              	.L96:
 2967 2bb0 3C359FE5 		ldr	r3, .L385+256
 2968 2bb4 C5FFFFEA 		b	.L348
 2969              	.L97:
 2970 2bb8 E4349FE5 		ldr	r3, .L385+176
 2971 2bbc C3FFFFEA 		b	.L348
 2972              	.L98:
 2973 2bc0 4C349FE5 		ldr	r3, .L385+32
 2974 2bc4 C1FFFFEA 		b	.L348
 2975              	.L99:
 2976 2bc8 D8349FE5 		ldr	r3, .L385+180
 2977 2bcc B00FD3E1 		ldrh	r0, [r3, #240]
 2978 2bd0 BFFFFFEA 		b	.L347
 2979              	.L67:
 2980 2bd4 0030A0E3 		mov	r3, #0
 2981              	.L349:
 2982 2bd8 0C308DE5 		str	r3, [sp, #12]	@ float
 2983              	.L100:
 2984 2bdc 10049FE5 		ldr	r0, .L385
 2985 2be0 0B10A0E3 		mov	r1, #11
 2986 2be4 FEFFFFEB 		bl	uart_check_free_space
 2987 2be8 000050E3 		cmp	r0, #0
 2988 2bec 5900000A 		beq	.L101
 2989 2bf0 F8349FE5 		ldr	r3, .L385+252
 2990 2bf4 B020D3E1 		ldrh	r2, [r3]
 2991 2bf8 0B2082E2 		add	r2, r2, #11
 2992 2bfc B020C3E1 		strh	r2, [r3]	@ movhi
 2993 2c00 04359FE5 		ldr	r3, .L385+280
 2994 2c04 B020D3E1 		ldrh	r2, [r3]
 2995 2c08 E4039FE5 		ldr	r0, .L385
 2996 2c0c 012082E2 		add	r2, r2, #1
 2997 2c10 9910A0E3 		mov	r1, #153
 2998 2c14 14559FE5 		ldr	r5, .L385+316
 2999 2c18 B020C3E1 		strh	r2, [r3]	@ movhi
 3000 2c1c FEFFFFEB 		bl	uart_transmit
 3001 2c20 CC039FE5 		ldr	r0, .L385
 3002 2c24 0B10A0E3 		mov	r1, #11
 3003 2c28 04459FE5 		ldr	r4, .L385+320
 3004 2c2c FEFFFFEB 		bl	uart_transmit
 3005 2c30 0D30A0E3 		mov	r3, #13
 3006 2c34 0030C5E5 		strb	r3, [r5]
 3007 2c38 B4039FE5 		ldr	r0, .L385
 3008 2c3c 1830A0E3 		mov	r3, #24
 3009 2c40 0210A0E3 		mov	r1, #2
 3010 2c44 0030C4E5 		strb	r3, [r4]
 3011 2c48 FEFFFFEB 		bl	uart_transmit
 3012 2c4c 0030D5E5 		ldrb	r3, [r5]	@ zero_extendqisi2
 3013 2c50 0020D4E5 		ldrb	r2, [r4]	@ zero_extendqisi2
 3014 2c54 1F3083E2 		add	r3, r3, #31
 3015 2c58 FF3003E2 		and	r3, r3, #255
 3016 2c5c 0030C5E5 		strb	r3, [r5]
 3017 2c60 8C039FE5 		ldr	r0, .L385
 3018 2c64 023083E0 		add	r3, r3, r2
 3019 2c68 1F10A0E3 		mov	r1, #31
 3020 2c6c 0030C4E5 		strb	r3, [r4]
 3021 2c70 FEFFFFEB 		bl	uart_transmit
 3022 2c74 0010D7E5 		ldrb	r1, [r7]	@ zero_extendqisi2
 3023 2c78 0030D5E5 		ldrb	r3, [r5]	@ zero_extendqisi2
 3024 2c7c 0020D4E5 		ldrb	r2, [r4]	@ zero_extendqisi2
 3025 2c80 033081E0 		add	r3, r1, r3
 3026 2c84 FF3003E2 		and	r3, r3, #255
 3027 2c88 0030C5E5 		strb	r3, [r5]
 3028 2c8c 60039FE5 		ldr	r0, .L385
 3029 2c90 023083E0 		add	r3, r3, r2
 3030 2c94 0030C4E5 		strb	r3, [r4]
 3031 2c98 FEFFFFEB 		bl	uart_transmit
 3032 2c9c 0C10DDE5 		ldrb	r1, [sp, #12]	@ zero_extendqisi2
 3033 2ca0 0030D5E5 		ldrb	r3, [r5]	@ zero_extendqisi2
 3034 2ca4 0020D4E5 		ldrb	r2, [r4]	@ zero_extendqisi2
 3035 2ca8 033081E0 		add	r3, r1, r3
 3036 2cac FF3003E2 		and	r3, r3, #255
 3037 2cb0 0030C5E5 		strb	r3, [r5]
 3038 2cb4 38039FE5 		ldr	r0, .L385
 3039 2cb8 023083E0 		add	r3, r3, r2
 3040 2cbc 0030C4E5 		strb	r3, [r4]
 3041 2cc0 FEFFFFEB 		bl	uart_transmit
 3042 2cc4 0D10DDE5 		ldrb	r1, [sp, #13]	@ zero_extendqisi2
 3043 2cc8 0030D5E5 		ldrb	r3, [r5]	@ zero_extendqisi2
 3044 2ccc 0020D4E5 		ldrb	r2, [r4]	@ zero_extendqisi2
 3045 2cd0 033081E0 		add	r3, r1, r3
 3046 2cd4 FF3003E2 		and	r3, r3, #255
 3047 2cd8 0030C5E5 		strb	r3, [r5]
 3048 2cdc 10039FE5 		ldr	r0, .L385
 3049 2ce0 023083E0 		add	r3, r3, r2
 3050 2ce4 0030C4E5 		strb	r3, [r4]
 3051 2ce8 FEFFFFEB 		bl	uart_transmit
 3052 2cec 0E10DDE5 		ldrb	r1, [sp, #14]	@ zero_extendqisi2
 3053 2cf0 0030D5E5 		ldrb	r3, [r5]	@ zero_extendqisi2
 3054 2cf4 0020D4E5 		ldrb	r2, [r4]	@ zero_extendqisi2
 3055 2cf8 033081E0 		add	r3, r1, r3
 3056 2cfc FF3003E2 		and	r3, r3, #255
 3057 2d00 0030C5E5 		strb	r3, [r5]
 3058 2d04 E8029FE5 		ldr	r0, .L385
 3059 2d08 023083E0 		add	r3, r3, r2
 3060 2d0c 0030C4E5 		strb	r3, [r4]
 3061 2d10 FEFFFFEB 		bl	uart_transmit
 3062 2d14 0F10DDE5 		ldrb	r1, [sp, #15]	@ zero_extendqisi2
 3063 2d18 0030D5E5 		ldrb	r3, [r5]	@ zero_extendqisi2
 3064 2d1c 0020D4E5 		ldrb	r2, [r4]	@ zero_extendqisi2
 3065 2d20 033081E0 		add	r3, r1, r3
 3066 2d24 FF3003E2 		and	r3, r3, #255
 3067 2d28 0030C5E5 		strb	r3, [r5]
 3068 2d2c C0029FE5 		ldr	r0, .L385
 3069 2d30 023083E0 		add	r3, r3, r2
 3070 2d34 0030C4E5 		strb	r3, [r4]
 3071 2d38 FEFFFFEB 		bl	uart_transmit
 3072 2d3c 0010D5E5 		ldrb	r1, [r5]	@ zero_extendqisi2
 3073 2d40 AC029FE5 		ldr	r0, .L385
 3074 2d44 FEFFFFEB 		bl	uart_transmit
 3075 2d48 A4029FE5 		ldr	r0, .L385
 3076 2d4c 0010D4E5 		ldrb	r1, [r4]	@ zero_extendqisi2
 3077 2d50 FEFFFFEB 		bl	uart_transmit
 3078 2d54 030000EA 		b	.L102
 3079              	.L101:
 3080 2d58 98329FE5 		ldr	r3, .L385+4
 3081 2d5c 0020D3E5 		ldrb	r2, [r3]	@ zero_extendqisi2
 3082 2d60 012082E2 		add	r2, r2, #1
 3083 2d64 0020C3E5 		strb	r2, [r3]
 3084              	.L102:
 3085 2d68 0030D7E5 		ldrb	r3, [r7]	@ zero_extendqisi2
 3086 2d6c 013083E2 		add	r3, r3, #1
 3087 2d70 0030C7E5 		strb	r3, [r7]
 3088              	.L65:
 3089 2d74 30339FE5 		ldr	r3, .L385+184
 3090 2d78 0030D3E5 		ldrb	r3, [r3]	@ zero_extendqisi2
 3091 2d7c 4E0053E3 		cmp	r3, #78
 3092 2d80 F300001A 		bne	.L103
 3093 2d84 68029FE5 		ldr	r0, .L385
 3094 2d88 1110A0E3 		mov	r1, #17
 3095 2d8c FEFFFFEB 		bl	uart_check_free_space
 3096 2d90 000050E3 		cmp	r0, #0
 3097 2d94 EA00000A 		beq	.L104
 3098 2d98 50339FE5 		ldr	r3, .L385+252
 3099 2d9c B020D3E1 		ldrh	r2, [r3]
 3100 2da0 112082E2 		add	r2, r2, #17
 3101 2da4 B020C3E1 		strh	r2, [r3]	@ movhi
 3102 2da8 5C339FE5 		ldr	r3, .L385+280
 3103 2dac B020D3E1 		ldrh	r2, [r3]
 3104 2db0 3C029FE5 		ldr	r0, .L385
 3105 2db4 012082E2 		add	r2, r2, #1
 3106 2db8 9910A0E3 		mov	r1, #153
 3107 2dbc 6C539FE5 		ldr	r5, .L385+316
 3108 2dc0 B020C3E1 		strh	r2, [r3]	@ movhi
 3109 2dc4 FEFFFFEB 		bl	uart_transmit
 3110 2dc8 24029FE5 		ldr	r0, .L385
 3111 2dcc 1110A0E3 		mov	r1, #17
 3112 2dd0 5C439FE5 		ldr	r4, .L385+320
 3113 2dd4 FEFFFFEB 		bl	uart_transmit
 3114 2dd8 1330A0E3 		mov	r3, #19
 3115 2ddc 0030C5E5 		strb	r3, [r5]
 3116 2de0 0C029FE5 		ldr	r0, .L385
 3117 2de4 2430A0E3 		mov	r3, #36
 3118 2de8 0210A0E3 		mov	r1, #2
 3119 2dec 0030C4E5 		strb	r3, [r4]
 3120 2df0 FEFFFFEB 		bl	uart_transmit
 3121 2df4 0030D5E5 		ldrb	r3, [r5]	@ zero_extendqisi2
 3122 2df8 0020D4E5 		ldrb	r2, [r4]	@ zero_extendqisi2
 3123 2dfc 113083E2 		add	r3, r3, #17
 3124 2e00 A0729FE5 		ldr	r7, .L385+180
 3125 2e04 FF3003E2 		and	r3, r3, #255
 3126 2e08 0030C5E5 		strb	r3, [r5]
 3127 2e0c E0019FE5 		ldr	r0, .L385
 3128 2e10 023083E0 		add	r3, r3, r2
 3129 2e14 1110A0E3 		mov	r1, #17
 3130 2e18 0030C4E5 		strb	r3, [r4]
 3131 2e1c FEFFFFEB 		bl	uart_transmit
 3132 2e20 4C10D7E5 		ldrb	r1, [r7, #76]	@ zero_extendqisi2
 3133 2e24 0030D5E5 		ldrb	r3, [r5]	@ zero_extendqisi2
 3134 2e28 0020D4E5 		ldrb	r2, [r4]	@ zero_extendqisi2
 3135 2e2c 033081E0 		add	r3, r1, r3
 3136 2e30 FF3003E2 		and	r3, r3, #255
 3137 2e34 0030C5E5 		strb	r3, [r5]
 3138 2e38 B4019FE5 		ldr	r0, .L385
 3139 2e3c 023083E0 		add	r3, r3, r2
 3140 2e40 0030C4E5 		strb	r3, [r4]
 3141 2e44 FEFFFFEB 		bl	uart_transmit
 3142 2e48 4D10D7E5 		ldrb	r1, [r7, #77]	@ zero_extendqisi2
 3143 2e4c 0030D5E5 		ldrb	r3, [r5]	@ zero_extendqisi2
 3144 2e50 0020D4E5 		ldrb	r2, [r4]	@ zero_extendqisi2
 3145 2e54 033081E0 		add	r3, r1, r3
 3146 2e58 FF3003E2 		and	r3, r3, #255
 3147 2e5c 0030C5E5 		strb	r3, [r5]
 3148 2e60 8C019FE5 		ldr	r0, .L385
 3149 2e64 023083E0 		add	r3, r3, r2
 3150 2e68 0030C4E5 		strb	r3, [r4]
 3151 2e6c FEFFFFEB 		bl	uart_transmit
 3152 2e70 4E10D7E5 		ldrb	r1, [r7, #78]	@ zero_extendqisi2
 3153 2e74 0030D5E5 		ldrb	r3, [r5]	@ zero_extendqisi2
 3154 2e78 0020D4E5 		ldrb	r2, [r4]	@ zero_extendqisi2
 3155 2e7c 033081E0 		add	r3, r1, r3
 3156 2e80 FF3003E2 		and	r3, r3, #255
 3157 2e84 0030C5E5 		strb	r3, [r5]
 3158 2e88 64019FE5 		ldr	r0, .L385
 3159 2e8c 023083E0 		add	r3, r3, r2
 3160 2e90 0030C4E5 		strb	r3, [r4]
 3161 2e94 FEFFFFEB 		bl	uart_transmit
 3162 2e98 4F10D7E5 		ldrb	r1, [r7, #79]	@ zero_extendqisi2
 3163 2e9c 0030D5E5 		ldrb	r3, [r5]	@ zero_extendqisi2
 3164 2ea0 0020D4E5 		ldrb	r2, [r4]	@ zero_extendqisi2
 3165 2ea4 033081E0 		add	r3, r1, r3
 3166 2ea8 FF3003E2 		and	r3, r3, #255
 3167 2eac 0030C5E5 		strb	r3, [r5]
 3168 2eb0 3C019FE5 		ldr	r0, .L385
 3169 2eb4 023083E0 		add	r3, r3, r2
 3170 2eb8 0030C4E5 		strb	r3, [r4]
 3171 2ebc FEFFFFEB 		bl	uart_transmit
 3172 2ec0 5010D7E5 		ldrb	r1, [r7, #80]	@ zero_extendqisi2
 3173 2ec4 0030D5E5 		ldrb	r3, [r5]	@ zero_extendqisi2
 3174 2ec8 0020D4E5 		ldrb	r2, [r4]	@ zero_extendqisi2
 3175 2ecc 033081E0 		add	r3, r1, r3
 3176 2ed0 FF3003E2 		and	r3, r3, #255
 3177 2ed4 0030C5E5 		strb	r3, [r5]
 3178 2ed8 14019FE5 		ldr	r0, .L385
 3179 2edc 023083E0 		add	r3, r3, r2
 3180 2ee0 0030C4E5 		strb	r3, [r4]
 3181 2ee4 FEFFFFEB 		bl	uart_transmit
 3182 2ee8 5110D7E5 		ldrb	r1, [r7, #81]	@ zero_extendqisi2
 3183 2eec 0030D5E5 		ldrb	r3, [r5]	@ zero_extendqisi2
 3184 2ef0 0020D4E5 		ldrb	r2, [r4]	@ zero_extendqisi2
 3185 2ef4 033081E0 		add	r3, r1, r3
 3186 2ef8 FF3003E2 		and	r3, r3, #255
 3187 2efc 0030C5E5 		strb	r3, [r5]
 3188 2f00 EC009FE5 		ldr	r0, .L385
 3189 2f04 023083E0 		add	r3, r3, r2
 3190 2f08 0030C4E5 		strb	r3, [r4]
 3191 2f0c FEFFFFEB 		bl	uart_transmit
 3192 2f10 5210D7E5 		ldrb	r1, [r7, #82]	@ zero_extendqisi2
 3193 2f14 0030D5E5 		ldrb	r3, [r5]	@ zero_extendqisi2
 3194 2f18 0020D4E5 		ldrb	r2, [r4]	@ zero_extendqisi2
 3195 2f1c 033081E0 		add	r3, r1, r3
 3196 2f20 FF3003E2 		and	r3, r3, #255
 3197 2f24 0030C5E5 		strb	r3, [r5]
 3198 2f28 C4009FE5 		ldr	r0, .L385
 3199 2f2c 023083E0 		add	r3, r3, r2
 3200 2f30 0030C4E5 		strb	r3, [r4]
 3201 2f34 FEFFFFEB 		bl	uart_transmit
 3202 2f38 5310D7E5 		ldrb	r1, [r7, #83]	@ zero_extendqisi2
 3203 2f3c 0030D5E5 		ldrb	r3, [r5]	@ zero_extendqisi2
 3204 2f40 0020D4E5 		ldrb	r2, [r4]	@ zero_extendqisi2
 3205 2f44 033081E0 		add	r3, r1, r3
 3206 2f48 FF3003E2 		and	r3, r3, #255
 3207 2f4c 0030C5E5 		strb	r3, [r5]
 3208 2f50 9C009FE5 		ldr	r0, .L385
 3209 2f54 023083E0 		add	r3, r3, r2
 3210 2f58 0030C4E5 		strb	r3, [r4]
 3211 2f5c FEFFFFEB 		bl	uart_transmit
 3212 2f60 5810D7E5 		ldrb	r1, [r7, #88]	@ zero_extendqisi2
 3213 2f64 0030D5E5 		ldrb	r3, [r5]	@ zero_extendqisi2
 3214 2f68 0020D4E5 		ldrb	r2, [r4]	@ zero_extendqisi2
 3215 2f6c 033081E0 		add	r3, r1, r3
 3216 2f70 FF3003E2 		and	r3, r3, #255
 3217 2f74 0030C5E5 		strb	r3, [r5]
 3218 2f78 74009FE5 		ldr	r0, .L385
 3219 2f7c 023083E0 		add	r3, r3, r2
 3220 2f80 0030C4E5 		strb	r3, [r4]
 3221 2f84 FEFFFFEB 		bl	uart_transmit
 3222 2f88 5910D7E5 		ldrb	r1, [r7, #89]	@ zero_extendqisi2
 3223 2f8c 0030D5E5 		ldrb	r3, [r5]	@ zero_extendqisi2
 3224 2f90 0020D4E5 		ldrb	r2, [r4]	@ zero_extendqisi2
 3225 2f94 033081E0 		add	r3, r1, r3
 3226 2f98 FF3003E2 		and	r3, r3, #255
 3227 2f9c 0030C5E5 		strb	r3, [r5]
 3228 2fa0 4C009FE5 		ldr	r0, .L385
 3229 2fa4 023083E0 		add	r3, r3, r2
 3230 2fa8 0030C4E5 		strb	r3, [r4]
 3231 2fac FEFFFFEB 		bl	uart_transmit
 3232 2fb0 5A10D7E5 		ldrb	r1, [r7, #90]	@ zero_extendqisi2
 3233 2fb4 0030D5E5 		ldrb	r3, [r5]	@ zero_extendqisi2
 3234 2fb8 0020D4E5 		ldrb	r2, [r4]	@ zero_extendqisi2
 3235 2fbc 033081E0 		add	r3, r1, r3
 3236 2fc0 FF3003E2 		and	r3, r3, #255
 3237 2fc4 0030C5E5 		strb	r3, [r5]
 3238 2fc8 24009FE5 		ldr	r0, .L385
 3239 2fcc 023083E0 		add	r3, r3, r2
 3240 2fd0 0030C4E5 		strb	r3, [r4]
 3241 2fd4 FEFFFFEB 		bl	uart_transmit
 3242 2fd8 0010D5E5 		ldrb	r1, [r5]	@ zero_extendqisi2
 3243 2fdc 10009FE5 		ldr	r0, .L385
 3244 2fe0 FEFFFFEB 		bl	uart_transmit
 3245 2fe4 08009FE5 		ldr	r0, .L385
 3246 2fe8 0010D4E5 		ldrb	r1, [r4]	@ zero_extendqisi2
 3247 2fec FEFFFFEB 		bl	uart_transmit
 3248 2ff0 570000EA 		b	.L103
 3249              	.L386:
 3250              		.align	2
 3251              	.L385:
 3252 2ff4 00000000 		.word	uart1
 3253 2ff8 00000000 		.word	downlink_nb_ovrn
 3254 2ffc 00000000 		.word	.LANCHOR6
 3255 3000 00000000 		.word	.LANCHOR17
 3256 3004 00000000 		.word	energy
 3257 3008 00000000 		.word	v_ctl_throttle_slewed
 3258 300c 00000000 		.word	electrical
 3259 3010 00000000 		.word	estimator_flight_time
 3260 3014 00000000 		.word	.LANCHOR18
 3261 3018 00000000 		.word	block_time
 3262 301c 00000000 		.word	stage_time
 3263 3020 00000000 		.word	.LANCHOR7
 3264 3024 00000000 		.word	nav_in_segment
 3265 3028 00000000 		.word	nav_segment_x_1
 3266 302c 00000000 		.word	nav_segment_y_1
 3267 3030 00000000 		.word	nav_segment_x_2
 3268 3034 00000000 		.word	nav_segment_y_2
 3269 3038 00000000 		.word	.LANCHOR8
 3270 303c 00000000 		.word	.LANCHOR19
 3271 3040 00000000 		.word	telemetry_mode_Fbw
 3272 3044 00000000 		.word	h_ctl_pitch_pgain
 3273 3048 00000000 		.word	h_ctl_pitch_dgain
 3274 304c 00000000 		.word	h_ctl_elevator_of_roll
 3275 3050 00000000 		.word	h_ctl_roll_attitude_gain
 3276 3054 00000000 		.word	h_ctl_roll_rate_gain
 3277 3058 00000000 		.word	h_ctl_aileron_of_throttle
 3278 305c 00000000 		.word	h_ctl_roll_slew
 3279 3060 00000000 		.word	h_ctl_course_pgain
 3280 3064 00000000 		.word	h_ctl_course_dgain
 3281 3068 00000000 		.word	h_ctl_course_pre_bank_correction
 3282 306c 00000000 		.word	h_ctl_roll_max_setpoint
 3283 3070 00000000 		.word	v_ctl_altitude_pgain
 3284 3074 00000000 		.word	v_ctl_auto_throttle_cruise_throttle
 3285 3078 00000000 		.word	v_ctl_auto_throttle_pgain
 3286 307c 00000000 		.word	v_ctl_auto_throttle_igain
 3287 3080 00000000 		.word	v_ctl_auto_throttle_dgain
 3288 3084 00000000 		.word	v_ctl_auto_throttle_climb_throttle_increment
 3289 3088 00000000 		.word	v_ctl_auto_throttle_pitch_of_vz_pgain
 3290 308c 00000000 		.word	v_ctl_auto_throttle_pitch_of_vz_dgain
 3291 3090 00000000 		.word	flight_altitude
 3292 3094 00000000 		.word	nav_course
 3293 3098 00000000 		.word	nav_shift
 3294 309c 00000000 		.word	nav_radius
 3295 30a0 00000000 		.word	route_ap_time
 3296 30a4 00000000 		.word	.LANCHOR21
 3297 30a8 00000000 		.word	gps
 3298 30ac 00000000 		.word	.LANCHOR9
 3299 30b0 00000000 		.word	.LANCHOR10
 3300 30b4 00000000 		.word	v_ctl_auto_throttle_sum_err
 3301 30b8 00000000 		.word	v_ctl_auto_throttle_submode
 3302 30bc 00000000 		.word	nav_survey_active
 3303 30c0 00000000 		.word	nav_survey_east
 3304 30c4 00000000 		.word	nav_survey_north
 3305 30c8 00000000 		.word	nav_survey_west
 3306 30cc 00000000 		.word	nav_survey_south
 3307 30d0 00000000 		.word	.LANCHOR11
 3308 30d4 00000000 		.word	energy
 3309 30d8 00000000 		.word	vsupply
 3310 30dc 00002041 		.word	1092616192
 3311 30e0 00000000 		.word	.LANCHOR17
 3312 30e4 00007A44 		.word	1148846080
 3313 30e8 00000000 		.word	.LANCHOR12
 3314 30ec 00000000 		.word	.LC0
 3315 30f0 00000000 		.word	downlink_nb_bytes
 3316 30f4 00000000 		.word	.LANCHOR20
 3317 30f8 00000000 		.word	v_ctl_mode
 3318 30fc 00000000 		.word	.LANCHOR22
 3319 3100 00000000 		.word	horizontal_mode
 3320 3104 00000000 		.word	.LANCHOR23
 3321 3108 00000000 		.word	infrared
 3322 310c 00000000 		.word	downlink_nb_msgs
 3323 3110 00000000 		.word	.LANCHOR13
 3324 3114 00000000 		.word	.LANCHOR24
 3325 3118 66661440 		.word	1075078758
 3326 311c 66666666 		.word	1717986918
 3327 3120 00000000 		.word	downlink_nb_ovrn
 3328 3124 00000000 		.word	.LANCHOR14
 3329 3128 00000000 		.word	downlink_nb_bytes
 3330 312c 00000000 		.word	downlink_nb_msgs
 3331 3130 00000000 		.word	ck_a
 3332 3134 00000000 		.word	ck_b
 3333 3138 00000000 		.word	nav_utm_east0
 3334 313c 00000000 		.word	nav_utm_north0
 3335 3140 00000000 		.word	uart1
 3336              	.L104:
 3337 3144 2C301FE5 		ldr	r3, .L385+300
 3338 3148 0020D3E5 		ldrb	r2, [r3]	@ zero_extendqisi2
 3339 314c 012082E2 		add	r2, r2, #1
 3340 3150 0020C3E5 		strb	r2, [r3]
 3341              	.L103:
 3342 3154 AC301FE5 		ldr	r3, .L385+188
 3343 3158 0030D3E5 		ldrb	r3, [r3]	@ zero_extendqisi2
 3344 315c 540053E3 		cmp	r3, #84
 3345 3160 5100001A 		bne	.L105
 3346 3164 2C001FE5 		ldr	r0, .L385+332
 3347 3168 0B10A0E3 		mov	r1, #11
 3348 316c FEFFFFEB 		bl	uart_check_free_space
 3349 3170 000050E3 		cmp	r0, #0
 3350 3174 2301000A 		beq	.L108
 3351 3178 90301FE5 		ldr	r3, .L385+252
 3352 317c B020D3E1 		ldrh	r2, [r3]
 3353 3180 0B2082E2 		add	r2, r2, #11
 3354 3184 B020C3E1 		strh	r2, [r3]	@ movhi
 3355 3188 84301FE5 		ldr	r3, .L385+280
 3356 318c B020D3E1 		ldrh	r2, [r3]
 3357 3190 58001FE5 		ldr	r0, .L385+332
 3358 3194 012082E2 		add	r2, r2, #1
 3359 3198 9910A0E3 		mov	r1, #153
 3360 319c 74501FE5 		ldr	r5, .L385+316
 3361 31a0 B020C3E1 		strh	r2, [r3]	@ movhi
 3362 31a4 FEFFFFEB 		bl	uart_transmit
 3363 31a8 70001FE5 		ldr	r0, .L385+332
 3364 31ac 0B10A0E3 		mov	r1, #11
 3365 31b0 84401FE5 		ldr	r4, .L385+320
 3366 31b4 FEFFFFEB 		bl	uart_transmit
 3367 31b8 0D30A0E3 		mov	r3, #13
 3368 31bc 0030C5E5 		strb	r3, [r5]
 3369 31c0 88001FE5 		ldr	r0, .L385+332
 3370 31c4 1830A0E3 		mov	r3, #24
 3371 31c8 0210A0E3 		mov	r1, #2
 3372 31cc 0030C4E5 		strb	r3, [r4]
 3373 31d0 FEFFFFEB 		bl	uart_transmit
 3374 31d4 0030D5E5 		ldrb	r3, [r5]	@ zero_extendqisi2
 3375 31d8 0020D4E5 		ldrb	r2, [r4]	@ zero_extendqisi2
 3376 31dc 0E3083E2 		add	r3, r3, #14
 3377 31e0 34711FE5 		ldr	r7, .L385+192
 3378 31e4 FF3003E2 		and	r3, r3, #255
 3379 31e8 0030C5E5 		strb	r3, [r5]
 3380 31ec B4001FE5 		ldr	r0, .L385+332
 3381 31f0 023083E0 		add	r3, r3, r2
 3382 31f4 0E10A0E3 		mov	r1, #14
 3383 31f8 0030C4E5 		strb	r3, [r4]
 3384 31fc FEFFFFEB 		bl	uart_transmit
 3385 3200 0010D7E5 		ldrb	r1, [r7]	@ zero_extendqisi2
 3386 3204 0030D5E5 		ldrb	r3, [r5]	@ zero_extendqisi2
 3387 3208 0020D4E5 		ldrb	r2, [r4]	@ zero_extendqisi2
 3388 320c 033081E0 		add	r3, r1, r3
 3389 3210 FF3003E2 		and	r3, r3, #255
 3390 3214 0030C5E5 		strb	r3, [r5]
 3391 3218 E0001FE5 		ldr	r0, .L385+332
 3392 321c 023083E0 		add	r3, r3, r2
 3393 3220 0030C4E5 		strb	r3, [r4]
 3394 3224 FEFFFFEB 		bl	uart_transmit
 3395 3228 0110D7E5 		ldrb	r1, [r7, #1]	@ zero_extendqisi2
 3396 322c 0030D5E5 		ldrb	r3, [r5]	@ zero_extendqisi2
 3397 3230 0020D4E5 		ldrb	r2, [r4]	@ zero_extendqisi2
 3398 3234 033081E0 		add	r3, r1, r3
 3399 3238 FF3003E2 		and	r3, r3, #255
 3400 323c 0030C5E5 		strb	r3, [r5]
 3401 3240 08011FE5 		ldr	r0, .L385+332
 3402 3244 023083E0 		add	r3, r3, r2
 3403 3248 0030C4E5 		strb	r3, [r4]
 3404 324c FEFFFFEB 		bl	uart_transmit
 3405 3250 0210D7E5 		ldrb	r1, [r7, #2]	@ zero_extendqisi2
 3406 3254 0030D5E5 		ldrb	r3, [r5]	@ zero_extendqisi2
 3407 3258 0020D4E5 		ldrb	r2, [r4]	@ zero_extendqisi2
 3408 325c 033081E0 		add	r3, r1, r3
 3409 3260 FF3003E2 		and	r3, r3, #255
 3410 3264 0030C5E5 		strb	r3, [r5]
 3411 3268 30011FE5 		ldr	r0, .L385+332
 3412 326c 023083E0 		add	r3, r3, r2
 3413 3270 0030C4E5 		strb	r3, [r4]
 3414 3274 FEFFFFEB 		bl	uart_transmit
 3415 3278 0310D7E5 		ldrb	r1, [r7, #3]	@ zero_extendqisi2
 3416 327c 0030D5E5 		ldrb	r3, [r5]	@ zero_extendqisi2
 3417 3280 0020D4E5 		ldrb	r2, [r4]	@ zero_extendqisi2
 3418 3284 033081E0 		add	r3, r1, r3
 3419 3288 FF3003E2 		and	r3, r3, #255
 3420 328c 0030C5E5 		strb	r3, [r5]
 3421 3290 58011FE5 		ldr	r0, .L385+332
 3422 3294 023083E0 		add	r3, r3, r2
 3423 3298 0030C4E5 		strb	r3, [r4]
 3424 329c FEFFFFEB 		bl	uart_transmit
 3425 32a0 F0311FE5 		ldr	r3, .L385+196
 3426 32a4 0010D3E5 		ldrb	r1, [r3]	@ zero_extendqisi2
 3427 32a8 C60000EA 		b	.L350
 3428              	.L105:
 3429 32ac 5A0053E3 		cmp	r3, #90
 3430 32b0 D800001A 		bne	.L107
 3431 32b4 00321FE5 		ldr	r3, .L385+200
 3432 32b8 0030D3E5 		ldrb	r3, [r3]	@ zero_extendqisi2
 3433 32bc 000053E3 		cmp	r3, #0
 3434 32c0 D400000A 		beq	.L107
 3435 32c4 8C011FE5 		ldr	r0, .L385+332
 3436 32c8 1610A0E3 		mov	r1, #22
 3437 32cc FEFFFFEB 		bl	uart_check_free_space
 3438 32d0 000050E3 		cmp	r0, #0
 3439 32d4 CB00000A 		beq	.L108
 3440 32d8 F0311FE5 		ldr	r3, .L385+252
 3441 32dc B020D3E1 		ldrh	r2, [r3]
 3442 32e0 162082E2 		add	r2, r2, #22
 3443 32e4 B020C3E1 		strh	r2, [r3]	@ movhi
 3444 32e8 E4311FE5 		ldr	r3, .L385+280
 3445 32ec B020D3E1 		ldrh	r2, [r3]
 3446 32f0 B8011FE5 		ldr	r0, .L385+332
 3447 32f4 012082E2 		add	r2, r2, #1
 3448 32f8 9910A0E3 		mov	r1, #153
 3449 32fc D4511FE5 		ldr	r5, .L385+316
 3450 3300 B020C3E1 		strh	r2, [r3]	@ movhi
 3451 3304 FEFFFFEB 		bl	uart_transmit
 3452 3308 D0011FE5 		ldr	r0, .L385+332
 3453 330c 1610A0E3 		mov	r1, #22
 3454 3310 E4411FE5 		ldr	r4, .L385+320
 3455 3314 FEFFFFEB 		bl	uart_transmit
 3456 3318 1830A0E3 		mov	r3, #24
 3457 331c 0030C5E5 		strb	r3, [r5]
 3458 3320 E8011FE5 		ldr	r0, .L385+332
 3459 3324 2E30A0E3 		mov	r3, #46
 3460 3328 0210A0E3 		mov	r1, #2
 3461 332c 0030C4E5 		strb	r3, [r4]
 3462 3330 FEFFFFEB 		bl	uart_transmit
 3463 3334 0030D5E5 		ldrb	r3, [r5]	@ zero_extendqisi2
 3464 3338 0020D4E5 		ldrb	r2, [r4]	@ zero_extendqisi2
 3465 333c 1B3083E2 		add	r3, r3, #27
 3466 3340 88721FE5 		ldr	r7, .L385+204
 3467 3344 FF3003E2 		and	r3, r3, #255
 3468 3348 0030C5E5 		strb	r3, [r5]
 3469 334c 14021FE5 		ldr	r0, .L385+332
 3470 3350 023083E0 		add	r3, r3, r2
 3471 3354 1B10A0E3 		mov	r1, #27
 3472 3358 0030C4E5 		strb	r3, [r4]
 3473 335c FEFFFFEB 		bl	uart_transmit
 3474 3360 0010D7E5 		ldrb	r1, [r7]	@ zero_extendqisi2
 3475 3364 0030D5E5 		ldrb	r3, [r5]	@ zero_extendqisi2
 3476 3368 0020D4E5 		ldrb	r2, [r4]	@ zero_extendqisi2
 3477 336c 033081E0 		add	r3, r1, r3
 3478 3370 FF3003E2 		and	r3, r3, #255
 3479 3374 0030C5E5 		strb	r3, [r5]
 3480 3378 40021FE5 		ldr	r0, .L385+332
 3481 337c 023083E0 		add	r3, r3, r2
 3482 3380 0030C4E5 		strb	r3, [r4]
 3483 3384 FEFFFFEB 		bl	uart_transmit
 3484 3388 0110D7E5 		ldrb	r1, [r7, #1]	@ zero_extendqisi2
 3485 338c 0030D5E5 		ldrb	r3, [r5]	@ zero_extendqisi2
 3486 3390 0020D4E5 		ldrb	r2, [r4]	@ zero_extendqisi2
 3487 3394 033081E0 		add	r3, r1, r3
 3488 3398 FF3003E2 		and	r3, r3, #255
 3489 339c 0030C5E5 		strb	r3, [r5]
 3490 33a0 68021FE5 		ldr	r0, .L385+332
 3491 33a4 023083E0 		add	r3, r3, r2
 3492 33a8 0030C4E5 		strb	r3, [r4]
 3493 33ac FEFFFFEB 		bl	uart_transmit
 3494 33b0 0210D7E5 		ldrb	r1, [r7, #2]	@ zero_extendqisi2
 3495 33b4 0030D5E5 		ldrb	r3, [r5]	@ zero_extendqisi2
 3496 33b8 0020D4E5 		ldrb	r2, [r4]	@ zero_extendqisi2
 3497 33bc 033081E0 		add	r3, r1, r3
 3498 33c0 FF3003E2 		and	r3, r3, #255
 3499 33c4 0030C5E5 		strb	r3, [r5]
 3500 33c8 90021FE5 		ldr	r0, .L385+332
 3501 33cc 023083E0 		add	r3, r3, r2
 3502 33d0 0030C4E5 		strb	r3, [r4]
 3503 33d4 FEFFFFEB 		bl	uart_transmit
 3504 33d8 0310D7E5 		ldrb	r1, [r7, #3]	@ zero_extendqisi2
 3505 33dc 0030D5E5 		ldrb	r3, [r5]	@ zero_extendqisi2
 3506 33e0 0020D4E5 		ldrb	r2, [r4]	@ zero_extendqisi2
 3507 33e4 033081E0 		add	r3, r1, r3
 3508 33e8 2C731FE5 		ldr	r7, .L385+208
 3509 33ec FF3003E2 		and	r3, r3, #255
 3510 33f0 0030C5E5 		strb	r3, [r5]
 3511 33f4 BC021FE5 		ldr	r0, .L385+332
 3512 33f8 023083E0 		add	r3, r3, r2
 3513 33fc 0030C4E5 		strb	r3, [r4]
 3514 3400 FEFFFFEB 		bl	uart_transmit
 3515 3404 0010D7E5 		ldrb	r1, [r7]	@ zero_extendqisi2
 3516 3408 0030D5E5 		ldrb	r3, [r5]	@ zero_extendqisi2
 3517 340c 0020D4E5 		ldrb	r2, [r4]	@ zero_extendqisi2
 3518 3410 033081E0 		add	r3, r1, r3
 3519 3414 FF3003E2 		and	r3, r3, #255
 3520 3418 0030C5E5 		strb	r3, [r5]
 3521 341c E4021FE5 		ldr	r0, .L385+332
 3522 3420 023083E0 		add	r3, r3, r2
 3523 3424 0030C4E5 		strb	r3, [r4]
 3524 3428 FEFFFFEB 		bl	uart_transmit
 3525 342c 0110D7E5 		ldrb	r1, [r7, #1]	@ zero_extendqisi2
 3526 3430 0030D5E5 		ldrb	r3, [r5]	@ zero_extendqisi2
 3527 3434 0020D4E5 		ldrb	r2, [r4]	@ zero_extendqisi2
 3528 3438 033081E0 		add	r3, r1, r3
 3529 343c FF3003E2 		and	r3, r3, #255
 3530 3440 0030C5E5 		strb	r3, [r5]
 3531 3444 0C031FE5 		ldr	r0, .L385+332
 3532 3448 023083E0 		add	r3, r3, r2
 3533 344c 0030C4E5 		strb	r3, [r4]
 3534 3450 FEFFFFEB 		bl	uart_transmit
 3535 3454 0210D7E5 		ldrb	r1, [r7, #2]	@ zero_extendqisi2
 3536 3458 0030D5E5 		ldrb	r3, [r5]	@ zero_extendqisi2
 3537 345c 0020D4E5 		ldrb	r2, [r4]	@ zero_extendqisi2
 3538 3460 033081E0 		add	r3, r1, r3
 3539 3464 FF3003E2 		and	r3, r3, #255
 3540 3468 0030C5E5 		strb	r3, [r5]
 3541 346c 34031FE5 		ldr	r0, .L385+332
 3542 3470 023083E0 		add	r3, r3, r2
 3543 3474 0030C4E5 		strb	r3, [r4]
 3544 3478 FEFFFFEB 		bl	uart_transmit
 3545 347c 0310D7E5 		ldrb	r1, [r7, #3]	@ zero_extendqisi2
 3546 3480 0030D5E5 		ldrb	r3, [r5]	@ zero_extendqisi2
 3547 3484 0020D4E5 		ldrb	r2, [r4]	@ zero_extendqisi2
 3548 3488 033081E0 		add	r3, r1, r3
 3549 348c CC731FE5 		ldr	r7, .L385+212
 3550 3490 FF3003E2 		and	r3, r3, #255
 3551 3494 0030C5E5 		strb	r3, [r5]
 3552 3498 60031FE5 		ldr	r0, .L385+332
 3553 349c 023083E0 		add	r3, r3, r2
 3554 34a0 0030C4E5 		strb	r3, [r4]
 3555 34a4 FEFFFFEB 		bl	uart_transmit
 3556 34a8 0010D7E5 		ldrb	r1, [r7]	@ zero_extendqisi2
 3557 34ac 0030D5E5 		ldrb	r3, [r5]	@ zero_extendqisi2
 3558 34b0 0020D4E5 		ldrb	r2, [r4]	@ zero_extendqisi2
 3559 34b4 033081E0 		add	r3, r1, r3
 3560 34b8 FF3003E2 		and	r3, r3, #255
 3561 34bc 0030C5E5 		strb	r3, [r5]
 3562 34c0 88031FE5 		ldr	r0, .L385+332
 3563 34c4 023083E0 		add	r3, r3, r2
 3564 34c8 0030C4E5 		strb	r3, [r4]
 3565 34cc FEFFFFEB 		bl	uart_transmit
 3566 34d0 0110D7E5 		ldrb	r1, [r7, #1]	@ zero_extendqisi2
 3567 34d4 0030D5E5 		ldrb	r3, [r5]	@ zero_extendqisi2
 3568 34d8 0020D4E5 		ldrb	r2, [r4]	@ zero_extendqisi2
 3569 34dc 033081E0 		add	r3, r1, r3
 3570 34e0 FF3003E2 		and	r3, r3, #255
 3571 34e4 0030C5E5 		strb	r3, [r5]
 3572 34e8 B0031FE5 		ldr	r0, .L385+332
 3573 34ec 023083E0 		add	r3, r3, r2
 3574 34f0 0030C4E5 		strb	r3, [r4]
 3575 34f4 FEFFFFEB 		bl	uart_transmit
 3576 34f8 0210D7E5 		ldrb	r1, [r7, #2]	@ zero_extendqisi2
 3577 34fc 0030D5E5 		ldrb	r3, [r5]	@ zero_extendqisi2
 3578 3500 0020D4E5 		ldrb	r2, [r4]	@ zero_extendqisi2
 3579 3504 033081E0 		add	r3, r1, r3
 3580 3508 FF3003E2 		and	r3, r3, #255
 3581 350c 0030C5E5 		strb	r3, [r5]
 3582 3510 D8031FE5 		ldr	r0, .L385+332
 3583 3514 023083E0 		add	r3, r3, r2
 3584 3518 0030C4E5 		strb	r3, [r4]
 3585 351c FEFFFFEB 		bl	uart_transmit
 3586 3520 0310D7E5 		ldrb	r1, [r7, #3]	@ zero_extendqisi2
 3587 3524 0030D5E5 		ldrb	r3, [r5]	@ zero_extendqisi2
 3588 3528 0020D4E5 		ldrb	r2, [r4]	@ zero_extendqisi2
 3589 352c 033081E0 		add	r3, r1, r3
 3590 3530 6C741FE5 		ldr	r7, .L385+216
 3591 3534 FF3003E2 		and	r3, r3, #255
 3592 3538 0030C5E5 		strb	r3, [r5]
 3593 353c 04041FE5 		ldr	r0, .L385+332
 3594 3540 023083E0 		add	r3, r3, r2
 3595 3544 0030C4E5 		strb	r3, [r4]
 3596 3548 FEFFFFEB 		bl	uart_transmit
 3597 354c 0010D7E5 		ldrb	r1, [r7]	@ zero_extendqisi2
 3598 3550 0030D5E5 		ldrb	r3, [r5]	@ zero_extendqisi2
 3599 3554 0020D4E5 		ldrb	r2, [r4]	@ zero_extendqisi2
 3600 3558 033081E0 		add	r3, r1, r3
 3601 355c FF3003E2 		and	r3, r3, #255
 3602 3560 0030C5E5 		strb	r3, [r5]
 3603 3564 2C041FE5 		ldr	r0, .L385+332
 3604 3568 023083E0 		add	r3, r3, r2
 3605 356c 0030C4E5 		strb	r3, [r4]
 3606 3570 FEFFFFEB 		bl	uart_transmit
 3607 3574 0110D7E5 		ldrb	r1, [r7, #1]	@ zero_extendqisi2
 3608 3578 0030D5E5 		ldrb	r3, [r5]	@ zero_extendqisi2
 3609 357c 0020D4E5 		ldrb	r2, [r4]	@ zero_extendqisi2
 3610 3580 033081E0 		add	r3, r1, r3
 3611 3584 FF3003E2 		and	r3, r3, #255
 3612 3588 0030C5E5 		strb	r3, [r5]
 3613 358c 54041FE5 		ldr	r0, .L385+332
 3614 3590 023083E0 		add	r3, r3, r2
 3615 3594 0030C4E5 		strb	r3, [r4]
 3616 3598 FEFFFFEB 		bl	uart_transmit
 3617 359c 0210D7E5 		ldrb	r1, [r7, #2]	@ zero_extendqisi2
 3618 35a0 0030D5E5 		ldrb	r3, [r5]	@ zero_extendqisi2
 3619 35a4 0020D4E5 		ldrb	r2, [r4]	@ zero_extendqisi2
 3620 35a8 033081E0 		add	r3, r1, r3
 3621 35ac FF3003E2 		and	r3, r3, #255
 3622 35b0 0030C5E5 		strb	r3, [r5]
 3623 35b4 7C041FE5 		ldr	r0, .L385+332
 3624 35b8 023083E0 		add	r3, r3, r2
 3625 35bc 0030C4E5 		strb	r3, [r4]
 3626 35c0 FEFFFFEB 		bl	uart_transmit
 3627 35c4 0310D7E5 		ldrb	r1, [r7, #3]	@ zero_extendqisi2
 3628              	.L350:
 3629 35c8 0030D5E5 		ldrb	r3, [r5]	@ zero_extendqisi2
 3630 35cc 0020D4E5 		ldrb	r2, [r4]	@ zero_extendqisi2
 3631 35d0 033081E0 		add	r3, r1, r3
 3632 35d4 FF3003E2 		and	r3, r3, #255
 3633 35d8 0030C5E5 		strb	r3, [r5]
 3634 35dc A4041FE5 		ldr	r0, .L385+332
 3635 35e0 023083E0 		add	r3, r3, r2
 3636 35e4 0030C4E5 		strb	r3, [r4]
 3637 35e8 FEFFFFEB 		bl	uart_transmit
 3638 35ec 0010D5E5 		ldrb	r1, [r5]	@ zero_extendqisi2
 3639 35f0 B8041FE5 		ldr	r0, .L385+332
 3640 35f4 FEFFFFEB 		bl	uart_transmit
 3641 35f8 C0041FE5 		ldr	r0, .L385+332
 3642 35fc 0010D4E5 		ldrb	r1, [r4]	@ zero_extendqisi2
 3643 3600 FEFFFFEB 		bl	uart_transmit
 3644 3604 030000EA 		b	.L107
 3645              	.L108:
 3646 3608 F0341FE5 		ldr	r3, .L385+300
 3647 360c 0020D3E5 		ldrb	r2, [r3]	@ zero_extendqisi2
 3648 3610 012082E2 		add	r2, r2, #1
 3649 3614 0020C3E5 		strb	r2, [r3]
 3650              	.L107:
 3651 3618 50351FE5 		ldr	r3, .L385+220
 3652 361c 0030D3E5 		ldrb	r3, [r3]	@ zero_extendqisi2
 3653 3620 600053E3 		cmp	r3, #96
 3654 3624 D100001A 		bne	.L109
 3655 3628 5C351FE5 		ldr	r3, .L385+224
 3656 362c 000093E5 		ldr	r0, [r3]	@ float
 3657 3630 FEFFFFEB 		bl	__aeabi_f2iz
 3658 3634 64351FE5 		ldr	r3, .L385+228
 3659 3638 B200CDE1 		strh	r0, [sp, #2]	@ movhi
 3660 363c B000D3E1 		ldrh	r0, [r3]
 3661 3640 FEFFFFEB 		bl	__aeabi_ui2f
 3662 3644 70151FE5 		ldr	r1, .L385+232
 3663 3648 FEFFFFEB 		bl	__aeabi_fdiv
 3664 364c 74351FE5 		ldr	r3, .L385+236
 3665 3650 0040A0E1 		mov	r4, r0
 3666 3654 04008DE5 		str	r0, [sp, #4]	@ float
 3667 3658 000093E5 		ldr	r0, [r3]
 3668 365c FEFFFFEB 		bl	__aeabi_i2f
 3669 3660 84151FE5 		ldr	r1, .L385+240
 3670 3664 FEFFFFEB 		bl	__aeabi_fdiv
 3671 3668 0010A0E1 		mov	r1, r0
 3672 366c 08008DE5 		str	r0, [sp, #8]	@ float
 3673 3670 0400A0E1 		mov	r0, r4
 3674 3674 FEFFFFEB 		bl	__aeabi_fmul
 3675 3678 1410A0E3 		mov	r1, #20
 3676 367c 0C008DE5 		str	r0, [sp, #12]	@ float
 3677 3680 48051FE5 		ldr	r0, .L385+332
 3678 3684 FEFFFFEB 		bl	uart_check_free_space
 3679 3688 000050E3 		cmp	r0, #0
 3680 368c B300000A 		beq	.L110
 3681 3690 A8351FE5 		ldr	r3, .L385+252
 3682 3694 B020D3E1 		ldrh	r2, [r3]
 3683 3698 142082E2 		add	r2, r2, #20
 3684 369c B020C3E1 		strh	r2, [r3]	@ movhi
 3685 36a0 9C351FE5 		ldr	r3, .L385+280
 3686 36a4 B020D3E1 		ldrh	r2, [r3]
 3687 36a8 70051FE5 		ldr	r0, .L385+332
 3688 36ac 012082E2 		add	r2, r2, #1
 3689 36b0 9910A0E3 		mov	r1, #153
 3690 36b4 8C551FE5 		ldr	r5, .L385+316
 3691 36b8 B020C3E1 		strh	r2, [r3]	@ movhi
 3692 36bc FEFFFFEB 		bl	uart_transmit
 3693 36c0 88051FE5 		ldr	r0, .L385+332
 3694 36c4 1410A0E3 		mov	r1, #20
 3695 36c8 9C451FE5 		ldr	r4, .L385+320
 3696 36cc FEFFFFEB 		bl	uart_transmit
 3697 36d0 1630A0E3 		mov	r3, #22
 3698 36d4 0030C5E5 		strb	r3, [r5]
 3699 36d8 A0051FE5 		ldr	r0, .L385+332
 3700 36dc 2A30A0E3 		mov	r3, #42
 3701 36e0 0210A0E3 		mov	r1, #2
 3702 36e4 0030C4E5 		strb	r3, [r4]
 3703 36e8 FEFFFFEB 		bl	uart_transmit
 3704 36ec 0030D5E5 		ldrb	r3, [r5]	@ zero_extendqisi2
 3705 36f0 0020D4E5 		ldrb	r2, [r4]	@ zero_extendqisi2
 3706 36f4 253083E2 		add	r3, r3, #37
 3707 36f8 FF3003E2 		and	r3, r3, #255
 3708 36fc 0030C5E5 		strb	r3, [r5]
 3709 3700 C8051FE5 		ldr	r0, .L385+332
 3710 3704 023083E0 		add	r3, r3, r2
 3711 3708 2510A0E3 		mov	r1, #37
 3712 370c 0030C4E5 		strb	r3, [r4]
 3713 3710 FEFFFFEB 		bl	uart_transmit
 3714 3714 0410DDE5 		ldrb	r1, [sp, #4]	@ zero_extendqisi2
 3715 3718 0030D5E5 		ldrb	r3, [r5]	@ zero_extendqisi2
 3716 371c 0020D4E5 		ldrb	r2, [r4]	@ zero_extendqisi2
 3717 3720 033081E0 		add	r3, r1, r3
 3718 3724 FF3003E2 		and	r3, r3, #255
 3719 3728 0030C5E5 		strb	r3, [r5]
 3720 372c F4051FE5 		ldr	r0, .L385+332
 3721 3730 023083E0 		add	r3, r3, r2
 3722 3734 0030C4E5 		strb	r3, [r4]
 3723 3738 FEFFFFEB 		bl	uart_transmit
 3724 373c 0510DDE5 		ldrb	r1, [sp, #5]	@ zero_extendqisi2
 3725 3740 0030D5E5 		ldrb	r3, [r5]	@ zero_extendqisi2
 3726 3744 0020D4E5 		ldrb	r2, [r4]	@ zero_extendqisi2
 3727 3748 033081E0 		add	r3, r1, r3
 3728 374c FF3003E2 		and	r3, r3, #255
 3729 3750 0030C5E5 		strb	r3, [r5]
 3730 3754 1C061FE5 		ldr	r0, .L385+332
 3731 3758 023083E0 		add	r3, r3, r2
 3732 375c 0030C4E5 		strb	r3, [r4]
 3733 3760 FEFFFFEB 		bl	uart_transmit
 3734 3764 0610DDE5 		ldrb	r1, [sp, #6]	@ zero_extendqisi2
 3735 3768 0030D5E5 		ldrb	r3, [r5]	@ zero_extendqisi2
 3736 376c 0020D4E5 		ldrb	r2, [r4]	@ zero_extendqisi2
 3737 3770 033081E0 		add	r3, r1, r3
 3738 3774 FF3003E2 		and	r3, r3, #255
 3739 3778 0030C5E5 		strb	r3, [r5]
 3740 377c 44061FE5 		ldr	r0, .L385+332
 3741 3780 023083E0 		add	r3, r3, r2
 3742 3784 0030C4E5 		strb	r3, [r4]
 3743 3788 FEFFFFEB 		bl	uart_transmit
 3744 378c 0710DDE5 		ldrb	r1, [sp, #7]	@ zero_extendqisi2
 3745 3790 0030D5E5 		ldrb	r3, [r5]	@ zero_extendqisi2
 3746 3794 0020D4E5 		ldrb	r2, [r4]	@ zero_extendqisi2
 3747 3798 033081E0 		add	r3, r1, r3
 3748 379c FF3003E2 		and	r3, r3, #255
 3749 37a0 0030C5E5 		strb	r3, [r5]
 3750 37a4 6C061FE5 		ldr	r0, .L385+332
 3751 37a8 023083E0 		add	r3, r3, r2
 3752 37ac 0030C4E5 		strb	r3, [r4]
 3753 37b0 FEFFFFEB 		bl	uart_transmit
 3754 37b4 0810DDE5 		ldrb	r1, [sp, #8]	@ zero_extendqisi2
 3755 37b8 0030D5E5 		ldrb	r3, [r5]	@ zero_extendqisi2
 3756 37bc 0020D4E5 		ldrb	r2, [r4]	@ zero_extendqisi2
 3757 37c0 033081E0 		add	r3, r1, r3
 3758 37c4 FF3003E2 		and	r3, r3, #255
 3759 37c8 0030C5E5 		strb	r3, [r5]
 3760 37cc 94061FE5 		ldr	r0, .L385+332
 3761 37d0 023083E0 		add	r3, r3, r2
 3762 37d4 0030C4E5 		strb	r3, [r4]
 3763 37d8 FEFFFFEB 		bl	uart_transmit
 3764 37dc 0910DDE5 		ldrb	r1, [sp, #9]	@ zero_extendqisi2
 3765 37e0 0030D5E5 		ldrb	r3, [r5]	@ zero_extendqisi2
 3766 37e4 0020D4E5 		ldrb	r2, [r4]	@ zero_extendqisi2
 3767 37e8 033081E0 		add	r3, r1, r3
 3768 37ec FF3003E2 		and	r3, r3, #255
 3769 37f0 0030C5E5 		strb	r3, [r5]
 3770 37f4 BC061FE5 		ldr	r0, .L385+332
 3771 37f8 023083E0 		add	r3, r3, r2
 3772 37fc 0030C4E5 		strb	r3, [r4]
 3773 3800 FEFFFFEB 		bl	uart_transmit
 3774 3804 0A10DDE5 		ldrb	r1, [sp, #10]	@ zero_extendqisi2
 3775 3808 0030D5E5 		ldrb	r3, [r5]	@ zero_extendqisi2
 3776 380c 0020D4E5 		ldrb	r2, [r4]	@ zero_extendqisi2
 3777 3810 033081E0 		add	r3, r1, r3
 3778 3814 FF3003E2 		and	r3, r3, #255
 3779 3818 0030C5E5 		strb	r3, [r5]
 3780 381c E4061FE5 		ldr	r0, .L385+332
 3781 3820 023083E0 		add	r3, r3, r2
 3782 3824 0030C4E5 		strb	r3, [r4]
 3783 3828 FEFFFFEB 		bl	uart_transmit
 3784 382c 0B10DDE5 		ldrb	r1, [sp, #11]	@ zero_extendqisi2
 3785 3830 0030D5E5 		ldrb	r3, [r5]	@ zero_extendqisi2
 3786 3834 0020D4E5 		ldrb	r2, [r4]	@ zero_extendqisi2
 3787 3838 033081E0 		add	r3, r1, r3
 3788 383c FF3003E2 		and	r3, r3, #255
 3789 3840 0030C5E5 		strb	r3, [r5]
 3790 3844 0C071FE5 		ldr	r0, .L385+332
 3791 3848 023083E0 		add	r3, r3, r2
 3792 384c 0030C4E5 		strb	r3, [r4]
 3793 3850 FEFFFFEB 		bl	uart_transmit
 3794 3854 0210DDE5 		ldrb	r1, [sp, #2]	@ zero_extendqisi2
 3795 3858 0030D5E5 		ldrb	r3, [r5]	@ zero_extendqisi2
 3796 385c 0020D4E5 		ldrb	r2, [r4]	@ zero_extendqisi2
 3797 3860 033081E0 		add	r3, r1, r3
 3798 3864 FF3003E2 		and	r3, r3, #255
 3799 3868 0030C5E5 		strb	r3, [r5]
 3800 386c 34071FE5 		ldr	r0, .L385+332
 3801 3870 023083E0 		add	r3, r3, r2
 3802 3874 0030C4E5 		strb	r3, [r4]
 3803 3878 FEFFFFEB 		bl	uart_transmit
 3804 387c 0310DDE5 		ldrb	r1, [sp, #3]	@ zero_extendqisi2
 3805 3880 0030D5E5 		ldrb	r3, [r5]	@ zero_extendqisi2
 3806 3884 0020D4E5 		ldrb	r2, [r4]	@ zero_extendqisi2
 3807 3888 033081E0 		add	r3, r1, r3
 3808 388c FF3003E2 		and	r3, r3, #255
 3809 3890 0030C5E5 		strb	r3, [r5]
 3810 3894 5C071FE5 		ldr	r0, .L385+332
 3811 3898 023083E0 		add	r3, r3, r2
 3812 389c 0030C4E5 		strb	r3, [r4]
 3813 38a0 FEFFFFEB 		bl	uart_transmit
 3814 38a4 0C10DDE5 		ldrb	r1, [sp, #12]	@ zero_extendqisi2
 3815 38a8 0030D5E5 		ldrb	r3, [r5]	@ zero_extendqisi2
 3816 38ac 0020D4E5 		ldrb	r2, [r4]	@ zero_extendqisi2
 3817 38b0 033081E0 		add	r3, r1, r3
 3818 38b4 FF3003E2 		and	r3, r3, #255
 3819 38b8 0030C5E5 		strb	r3, [r5]
 3820 38bc 84071FE5 		ldr	r0, .L385+332
 3821 38c0 023083E0 		add	r3, r3, r2
 3822 38c4 0030C4E5 		strb	r3, [r4]
 3823 38c8 FEFFFFEB 		bl	uart_transmit
 3824 38cc 0D10DDE5 		ldrb	r1, [sp, #13]	@ zero_extendqisi2
 3825 38d0 0030D5E5 		ldrb	r3, [r5]	@ zero_extendqisi2
 3826 38d4 0020D4E5 		ldrb	r2, [r4]	@ zero_extendqisi2
 3827 38d8 033081E0 		add	r3, r1, r3
 3828 38dc FF3003E2 		and	r3, r3, #255
 3829 38e0 0030C5E5 		strb	r3, [r5]
 3830 38e4 AC071FE5 		ldr	r0, .L385+332
 3831 38e8 023083E0 		add	r3, r3, r2
 3832 38ec 0030C4E5 		strb	r3, [r4]
 3833 38f0 FEFFFFEB 		bl	uart_transmit
 3834 38f4 0E10DDE5 		ldrb	r1, [sp, #14]	@ zero_extendqisi2
 3835 38f8 0030D5E5 		ldrb	r3, [r5]	@ zero_extendqisi2
 3836 38fc 0020D4E5 		ldrb	r2, [r4]	@ zero_extendqisi2
 3837 3900 033081E0 		add	r3, r1, r3
 3838 3904 FF3003E2 		and	r3, r3, #255
 3839 3908 0030C5E5 		strb	r3, [r5]
 3840 390c D4071FE5 		ldr	r0, .L385+332
 3841 3910 023083E0 		add	r3, r3, r2
 3842 3914 0030C4E5 		strb	r3, [r4]
 3843 3918 FEFFFFEB 		bl	uart_transmit
 3844 391c 0F10DDE5 		ldrb	r1, [sp, #15]	@ zero_extendqisi2
 3845 3920 0030D5E5 		ldrb	r3, [r5]	@ zero_extendqisi2
 3846 3924 0020D4E5 		ldrb	r2, [r4]	@ zero_extendqisi2
 3847 3928 033081E0 		add	r3, r1, r3
 3848 392c FF3003E2 		and	r3, r3, #255
 3849 3930 0030C5E5 		strb	r3, [r5]
 3850 3934 FC071FE5 		ldr	r0, .L385+332
 3851 3938 023083E0 		add	r3, r3, r2
 3852 393c 0030C4E5 		strb	r3, [r4]
 3853 3940 FEFFFFEB 		bl	uart_transmit
 3854 3944 0010D5E5 		ldrb	r1, [r5]	@ zero_extendqisi2
 3855 3948 10081FE5 		ldr	r0, .L385+332
 3856 394c FEFFFFEB 		bl	uart_transmit
 3857 3950 18081FE5 		ldr	r0, .L385+332
 3858 3954 0010D4E5 		ldrb	r1, [r4]	@ zero_extendqisi2
 3859 3958 FEFFFFEB 		bl	uart_transmit
 3860 395c 030000EA 		b	.L109
 3861              	.L110:
 3862 3960 48381FE5 		ldr	r3, .L385+300
 3863 3964 0020D3E5 		ldrb	r2, [r3]	@ zero_extendqisi2
 3864 3968 012082E2 		add	r2, r2, #1
 3865 396c 0020C3E5 		strb	r2, [r3]
 3866              	.L109:
 3867 3970 90381FE5 		ldr	r3, .L385+244
 3868 3974 B030D3E1 		ldrh	r3, [r3]
 3869 3978 660053E3 		cmp	r3, #102
 3870 397c 4600001A 		bne	.L112
 3871 3980 48081FE5 		ldr	r0, .L385+332
 3872 3984 1710A0E3 		mov	r1, #23
 3873 3988 FEFFFFEB 		bl	uart_check_free_space
 3874 398c 000050E3 		cmp	r0, #0
 3875 3990 FE00000A 		beq	.L120
 3876 3994 AC381FE5 		ldr	r3, .L385+252
 3877 3998 B020D3E1 		ldrh	r2, [r3]
 3878 399c 172082E2 		add	r2, r2, #23
 3879 39a0 B020C3E1 		strh	r2, [r3]	@ movhi
 3880 39a4 A0381FE5 		ldr	r3, .L385+280
 3881 39a8 B020D3E1 		ldrh	r2, [r3]
 3882 39ac 74081FE5 		ldr	r0, .L385+332
 3883 39b0 012082E2 		add	r2, r2, #1
 3884 39b4 9910A0E3 		mov	r1, #153
 3885 39b8 B020C3E1 		strh	r2, [r3]	@ movhi
 3886 39bc 94581FE5 		ldr	r5, .L385+316
 3887 39c0 FEFFFFEB 		bl	uart_transmit
 3888 39c4 8C081FE5 		ldr	r0, .L385+332
 3889 39c8 1710A0E3 		mov	r1, #23
 3890 39cc FEFFFFEB 		bl	uart_transmit
 3891 39d0 A4481FE5 		ldr	r4, .L385+320
 3892 39d4 1930A0E3 		mov	r3, #25
 3893 39d8 0030C5E5 		strb	r3, [r5]
 3894 39dc A4081FE5 		ldr	r0, .L385+332
 3895 39e0 3030A0E3 		mov	r3, #48
 3896 39e4 0210A0E3 		mov	r1, #2
 3897 39e8 0030C4E5 		strb	r3, [r4]
 3898 39ec FEFFFFEB 		bl	uart_transmit
 3899 39f0 0030D5E5 		ldrb	r3, [r5]	@ zero_extendqisi2
 3900 39f4 0020D4E5 		ldrb	r2, [r4]	@ zero_extendqisi2
 3901 39f8 023083E2 		add	r3, r3, #2
 3902 39fc FF3003E2 		and	r3, r3, #255
 3903 3a00 0030C5E5 		strb	r3, [r5]
 3904 3a04 CC081FE5 		ldr	r0, .L385+332
 3905 3a08 023083E0 		add	r3, r3, r2
 3906 3a0c 0210A0E3 		mov	r1, #2
 3907 3a10 0030C4E5 		strb	r3, [r4]
 3908 3a14 FEFFFFEB 		bl	uart_transmit
 3909 3a18 0030D5E5 		ldrb	r3, [r5]	@ zero_extendqisi2
 3910 3a1c 0020D4E5 		ldrb	r2, [r4]	@ zero_extendqisi2
 3911 3a20 103083E2 		add	r3, r3, #16
 3912 3a24 FF3003E2 		and	r3, r3, #255
 3913 3a28 0030C5E5 		strb	r3, [r5]
 3914 3a2c F4081FE5 		ldr	r0, .L385+332
 3915 3a30 023083E0 		add	r3, r3, r2
 3916 3a34 1010A0E3 		mov	r1, #16
 3917 3a38 0030C4E5 		strb	r3, [r4]
 3918 3a3c FEFFFFEB 		bl	uart_transmit
 3919 3a40 0070A0E3 		mov	r7, #0
 3920              	.L115:
 3921 3a44 60391FE5 		ldr	r3, .L385+248
 3922 3a48 0710D3E7 		ldrb	r1, [r3, r7]	@ zero_extendqisi2
 3923 3a4c 0030D5E5 		ldrb	r3, [r5]	@ zero_extendqisi2
 3924 3a50 0020D4E5 		ldrb	r2, [r4]	@ zero_extendqisi2
 3925 3a54 033081E0 		add	r3, r1, r3
 3926 3a58 FF3003E2 		and	r3, r3, #255
 3927 3a5c 0030C5E5 		strb	r3, [r5]
 3928 3a60 28091FE5 		ldr	r0, .L385+332
 3929 3a64 023083E0 		add	r3, r3, r2
 3930 3a68 017087E2 		add	r7, r7, #1
 3931 3a6c 0030C4E5 		strb	r3, [r4]
 3932 3a70 FEFFFFEB 		bl	uart_transmit
 3933 3a74 100057E3 		cmp	r7, #16
 3934 3a78 F1FFFF1A 		bne	.L115
 3935 3a7c 54391FE5 		ldr	r3, .L385+316
 3936 3a80 48091FE5 		ldr	r0, .L385+332
 3937 3a84 0010D3E5 		ldrb	r1, [r3]	@ zero_extendqisi2
 3938 3a88 FEFFFFEB 		bl	uart_transmit
 3939 3a8c 60391FE5 		ldr	r3, .L385+320
 3940 3a90 58091FE5 		ldr	r0, .L385+332
 3941 3a94 0010D3E5 		ldrb	r1, [r3]	@ zero_extendqisi2
 3942 3a98 6A0000EA 		b	.L351
 3943              	.L112:
 3944 3a9c 6C0053E3 		cmp	r3, #108
 3945 3aa0 6A00001A 		bne	.L117
 3946 3aa4 6C091FE5 		ldr	r0, .L385+332
 3947 3aa8 0C10A0E3 		mov	r1, #12
 3948 3aac FEFFFFEB 		bl	uart_check_free_space
 3949 3ab0 000050E3 		cmp	r0, #0
 3950 3ab4 B500000A 		beq	.L120
 3951 3ab8 D0391FE5 		ldr	r3, .L385+252
 3952 3abc B020D3E1 		ldrh	r2, [r3]
 3953 3ac0 0C2082E2 		add	r2, r2, #12
 3954 3ac4 B020C3E1 		strh	r2, [r3]	@ movhi
 3955 3ac8 C4391FE5 		ldr	r3, .L385+280
 3956 3acc B020D3E1 		ldrh	r2, [r3]
 3957 3ad0 98091FE5 		ldr	r0, .L385+332
 3958 3ad4 012082E2 		add	r2, r2, #1
 3959 3ad8 9910A0E3 		mov	r1, #153
 3960 3adc B4591FE5 		ldr	r5, .L385+316
 3961 3ae0 B020C3E1 		strh	r2, [r3]	@ movhi
 3962 3ae4 FEFFFFEB 		bl	uart_transmit
 3963 3ae8 B0091FE5 		ldr	r0, .L385+332
 3964 3aec 0C10A0E3 		mov	r1, #12
 3965 3af0 C4491FE5 		ldr	r4, .L385+320
 3966 3af4 FEFFFFEB 		bl	uart_transmit
 3967 3af8 0E30A0E3 		mov	r3, #14
 3968 3afc 0030C5E5 		strb	r3, [r5]
 3969 3b00 C8091FE5 		ldr	r0, .L385+332
 3970 3b04 1A30A0E3 		mov	r3, #26
 3971 3b08 0210A0E3 		mov	r1, #2
 3972 3b0c 0030C4E5 		strb	r3, [r4]
 3973 3b10 FEFFFFEB 		bl	uart_transmit
 3974 3b14 0030D5E5 		ldrb	r3, [r5]	@ zero_extendqisi2
 3975 3b18 0020D4E5 		ldrb	r2, [r4]	@ zero_extendqisi2
 3976 3b1c 0B3083E2 		add	r3, r3, #11
 3977 3b20 FF3003E2 		and	r3, r3, #255
 3978 3b24 0030C5E5 		strb	r3, [r5]
 3979 3b28 F0091FE5 		ldr	r0, .L385+332
 3980 3b2c 023083E0 		add	r3, r3, r2
 3981 3b30 0B10A0E3 		mov	r1, #11
 3982 3b34 0030C4E5 		strb	r3, [r4]
 3983 3b38 FEFFFFEB 		bl	uart_transmit
 3984 3b3c 503A1FE5 		ldr	r3, .L385+256
 3985 3b40 0010D3E5 		ldrb	r1, [r3]	@ zero_extendqisi2
 3986 3b44 0030D5E5 		ldrb	r3, [r5]	@ zero_extendqisi2
 3987 3b48 0020D4E5 		ldrb	r2, [r4]	@ zero_extendqisi2
 3988 3b4c 033081E0 		add	r3, r1, r3
 3989 3b50 FF3003E2 		and	r3, r3, #255
 3990 3b54 0030C5E5 		strb	r3, [r5]
 3991 3b58 200A1FE5 		ldr	r0, .L385+332
 3992 3b5c 023083E0 		add	r3, r3, r2
 3993 3b60 0030C4E5 		strb	r3, [r4]
 3994 3b64 FEFFFFEB 		bl	uart_transmit
 3995 3b68 783A1FE5 		ldr	r3, .L385+260
 3996 3b6c 0010D3E5 		ldrb	r1, [r3]	@ zero_extendqisi2
 3997 3b70 0030D5E5 		ldrb	r3, [r5]	@ zero_extendqisi2
 3998 3b74 0020D4E5 		ldrb	r2, [r4]	@ zero_extendqisi2
 3999 3b78 033081E0 		add	r3, r1, r3
 4000 3b7c FF3003E2 		and	r3, r3, #255
 4001 3b80 0030C5E5 		strb	r3, [r5]
 4002 3b84 4C0A1FE5 		ldr	r0, .L385+332
 4003 3b88 023083E0 		add	r3, r3, r2
 4004 3b8c 0030C4E5 		strb	r3, [r4]
 4005 3b90 FEFFFFEB 		bl	uart_transmit
 4006 3b94 A03A1FE5 		ldr	r3, .L385+264
 4007 3b98 0010D3E5 		ldrb	r1, [r3]	@ zero_extendqisi2
 4008 3b9c 0030D5E5 		ldrb	r3, [r5]	@ zero_extendqisi2
 4009 3ba0 0020D4E5 		ldrb	r2, [r4]	@ zero_extendqisi2
 4010 3ba4 033081E0 		add	r3, r1, r3
 4011 3ba8 FF3003E2 		and	r3, r3, #255
 4012 3bac 0030C5E5 		strb	r3, [r5]
 4013 3bb0 780A1FE5 		ldr	r0, .L385+332
 4014 3bb4 023083E0 		add	r3, r3, r2
 4015 3bb8 0030C4E5 		strb	r3, [r4]
 4016 3bbc FEFFFFEB 		bl	uart_transmit
 4017 3bc0 C83A1FE5 		ldr	r3, .L385+268
 4018 3bc4 0010D3E5 		ldrb	r1, [r3]	@ zero_extendqisi2
 4019 3bc8 0030D5E5 		ldrb	r3, [r5]	@ zero_extendqisi2
 4020 3bcc 0020D4E5 		ldrb	r2, [r4]	@ zero_extendqisi2
 4021 3bd0 033081E0 		add	r3, r1, r3
 4022 3bd4 FF3003E2 		and	r3, r3, #255
 4023 3bd8 0030C5E5 		strb	r3, [r5]
 4024 3bdc A40A1FE5 		ldr	r0, .L385+332
 4025 3be0 023083E0 		add	r3, r3, r2
 4026 3be4 0030C4E5 		strb	r3, [r4]
 4027 3be8 FEFFFFEB 		bl	uart_transmit
 4028 3bec 0020D4E5 		ldrb	r2, [r4]	@ zero_extendqisi2
 4029 3bf0 0030D5E5 		ldrb	r3, [r5]	@ zero_extendqisi2
 4030 3bf4 0010A0E3 		mov	r1, #0
 4031 3bf8 033082E0 		add	r3, r2, r3
 4032 3bfc C40A1FE5 		ldr	r0, .L385+332
 4033 3c00 0030C4E5 		strb	r3, [r4]
 4034 3c04 FEFFFFEB 		bl	uart_transmit
 4035 3c08 0C3B1FE5 		ldr	r3, .L385+272
 4036 3c0c 0010D3E5 		ldrb	r1, [r3]	@ zero_extendqisi2
 4037              	.L352:
 4038 3c10 0030D5E5 		ldrb	r3, [r5]	@ zero_extendqisi2
 4039 3c14 0020D4E5 		ldrb	r2, [r4]	@ zero_extendqisi2
 4040 3c18 033081E0 		add	r3, r1, r3
 4041 3c1c FF3003E2 		and	r3, r3, #255
 4042 3c20 0030C5E5 		strb	r3, [r5]
 4043 3c24 EC0A1FE5 		ldr	r0, .L385+332
 4044 3c28 023083E0 		add	r3, r3, r2
 4045 3c2c 0030C4E5 		strb	r3, [r4]
 4046 3c30 FEFFFFEB 		bl	uart_transmit
 4047 3c34 FC0A1FE5 		ldr	r0, .L385+332
 4048 3c38 0010D5E5 		ldrb	r1, [r5]	@ zero_extendqisi2
 4049 3c3c FEFFFFEB 		bl	uart_transmit
 4050 3c40 080B1FE5 		ldr	r0, .L385+332
 4051 3c44 0010D4E5 		ldrb	r1, [r4]	@ zero_extendqisi2
 4052              	.L351:
 4053 3c48 FEFFFFEB 		bl	uart_transmit
 4054 3c4c 530000EA 		b	.L116
 4055              	.L117:
 4056 3c50 780053E3 		cmp	r3, #120
 4057 3c54 5100001A 		bne	.L116
 4058 3c58 583B1FE5 		ldr	r3, .L385+276
 4059 3c5c F671D3E1 		ldrsh	r7, [r3, #22]
 4060 3c60 F421D3E1 		ldrsh	r2, [r3, #20]
 4061 3c64 F831D3E1 		ldrsh	r3, [r3, #24]
 4062 3c68 000052E3 		cmp	r2, #0
 4063 3c6c 002062B2 		rsblt	r2, r2, #0
 4064 3c70 000057E3 		cmp	r7, #0
 4065 3c74 007067B2 		rsblt	r7, r7, #0
 4066 3c78 000053E3 		cmp	r3, #0
 4067 3c7c 003063B2 		rsblt	r3, r3, #0
 4068 3c80 027087E0 		add	r7, r7, r2
 4069 3c84 037087E0 		add	r7, r7, r3
 4070 3c88 0778A0E1 		mov	r7, r7, asl #16
 4071 3c8c 2778A0E1 		mov	r7, r7, lsr #16
 4072 3c90 310057E3 		cmp	r7, #49
 4073 3c94 5C0B1FE5 		ldr	r0, .L385+332
 4074 3c98 0910A0E3 		mov	r1, #9
 4075 3c9c BC70CDE1 		strh	r7, [sp, #12]	@ movhi
 4076 3ca0 0770A093 		movls	r7, #7
 4077 3ca4 0370A083 		movhi	r7, #3
 4078 3ca8 FEFFFFEB 		bl	uart_check_free_space
 4079 3cac 000050E3 		cmp	r0, #0
 4080 3cb0 3600000A 		beq	.L120
 4081 3cb4 943B1FE5 		ldr	r3, .L385+308
 4082 3cb8 B020D3E1 		ldrh	r2, [r3]
 4083 3cbc 092082E2 		add	r2, r2, #9
 4084 3cc0 B020C3E1 		strh	r2, [r3]	@ movhi
 4085 3cc4 C03B1FE5 		ldr	r3, .L385+280
 4086 3cc8 B020D3E1 		ldrh	r2, [r3]
 4087 3ccc 940B1FE5 		ldr	r0, .L385+332
 4088 3cd0 012082E2 		add	r2, r2, #1
 4089 3cd4 9910A0E3 		mov	r1, #153
 4090 3cd8 B05B1FE5 		ldr	r5, .L385+316
 4091 3cdc B020C3E1 		strh	r2, [r3]	@ movhi
 4092 3ce0 FEFFFFEB 		bl	uart_transmit
 4093 3ce4 AC0B1FE5 		ldr	r0, .L385+332
 4094 3ce8 0910A0E3 		mov	r1, #9
 4095 3cec FEFFFFEB 		bl	uart_transmit
 4096 3cf0 C44B1FE5 		ldr	r4, .L385+320
 4097 3cf4 0B30A0E3 		mov	r3, #11
 4098 3cf8 0030C5E5 		strb	r3, [r5]
 4099 3cfc C40B1FE5 		ldr	r0, .L385+332
 4100 3d00 1430A0E3 		mov	r3, #20
 4101 3d04 0210A0E3 		mov	r1, #2
 4102 3d08 0030C4E5 		strb	r3, [r4]
 4103 3d0c FEFFFFEB 		bl	uart_transmit
 4104 3d10 0030D5E5 		ldrb	r3, [r5]	@ zero_extendqisi2
 4105 3d14 0020D4E5 		ldrb	r2, [r4]	@ zero_extendqisi2
 4106 3d18 183043E2 		sub	r3, r3, #24
 4107 3d1c FF3003E2 		and	r3, r3, #255
 4108 3d20 0030C5E5 		strb	r3, [r5]
 4109 3d24 EC0B1FE5 		ldr	r0, .L385+332
 4110 3d28 023083E0 		add	r3, r3, r2
 4111 3d2c E810A0E3 		mov	r1, #232
 4112 3d30 0030C4E5 		strb	r3, [r4]
 4113 3d34 FEFFFFEB 		bl	uart_transmit
 4114 3d38 0030D5E5 		ldrb	r3, [r5]	@ zero_extendqisi2
 4115 3d3c 0020D4E5 		ldrb	r2, [r4]	@ zero_extendqisi2
 4116 3d40 033087E0 		add	r3, r7, r3
 4117 3d44 FF3003E2 		and	r3, r3, #255
 4118 3d48 0030C5E5 		strb	r3, [r5]
 4119 3d4c 140C1FE5 		ldr	r0, .L385+332
 4120 3d50 023083E0 		add	r3, r3, r2
 4121 3d54 0710A0E1 		mov	r1, r7
 4122 3d58 0030C4E5 		strb	r3, [r4]
 4123 3d5c FEFFFFEB 		bl	uart_transmit
 4124 3d60 0C10DDE5 		ldrb	r1, [sp, #12]	@ zero_extendqisi2
 4125 3d64 0030D5E5 		ldrb	r3, [r5]	@ zero_extendqisi2
 4126 3d68 0020D4E5 		ldrb	r2, [r4]	@ zero_extendqisi2
 4127 3d6c 033081E0 		add	r3, r1, r3
 4128 3d70 FF3003E2 		and	r3, r3, #255
 4129 3d74 0030C5E5 		strb	r3, [r5]
 4130 3d78 400C1FE5 		ldr	r0, .L385+332
 4131 3d7c 023083E0 		add	r3, r3, r2
 4132 3d80 0030C4E5 		strb	r3, [r4]
 4133 3d84 FEFFFFEB 		bl	uart_transmit
 4134 3d88 0D10DDE5 		ldrb	r1, [sp, #13]	@ zero_extendqisi2
 4135 3d8c 9FFFFFEA 		b	.L352
 4136              	.L120:
 4137 3d90 783C1FE5 		ldr	r3, .L385+300
 4138 3d94 0020D3E5 		ldrb	r2, [r3]	@ zero_extendqisi2
 4139 3d98 012082E2 		add	r2, r2, #1
 4140 3d9c 0020C3E5 		strb	r2, [r3]
 4141              	.L116:
 4142 3da0 983C1FE5 		ldr	r3, .L385+284
 4143 3da4 B030D3E1 		ldrh	r3, [r3]
 4144 3da8 7E0053E3 		cmp	r3, #126
 4145 3dac 6C00001A 		bne	.L122
 4146 3db0 A45C1FE5 		ldr	r5, .L385+288
 4147 3db4 944C1FE5 		ldr	r4, .L385+308
 4148 3db8 B000D5E1 		ldrh	r0, [r5]
 4149 3dbc B070D4E1 		ldrh	r7, [r4]
 4150 3dc0 070060E0 		rsb	r0, r0, r7
 4151 3dc4 FEFFFFEB 		bl	__aeabi_i2d
 4152 3dc8 B83C1FE5 		ldr	r3, .L385+292
 4153 3dcc B82C1FE5 		ldr	r2, .L385+296
 4154 3dd0 FEFFFFEB 		bl	__aeabi_ddiv
 4155 3dd4 FEFFFFEB 		bl	__aeabi_d2uiz
 4156 3dd8 0B10A0E3 		mov	r1, #11
 4157 3ddc BC00CDE1 		strh	r0, [sp, #12]	@ movhi
 4158 3de0 A80C1FE5 		ldr	r0, .L385+332
 4159 3de4 B070C5E1 		strh	r7, [r5]	@ movhi
 4160 3de8 FEFFFFEB 		bl	uart_check_free_space
 4161 3dec D48C1FE5 		ldr	r8, .L385+300
 4162 3df0 000050E3 		cmp	r0, #0
 4163 3df4 0030D805 		ldreqb	r3, [r8]	@ zero_extendqisi2
 4164 3df8 01308302 		addeq	r3, r3, #1
 4165 3dfc 0030C805 		streqb	r3, [r8]
 4166 3e00 5700000A 		beq	.L122
 4167 3e04 B030D4E1 		ldrh	r3, [r4]
 4168 3e08 E47C1FE5 		ldr	r7, .L385+312
 4169 3e0c 0B3083E2 		add	r3, r3, #11
 4170 3e10 B030C4E1 		strh	r3, [r4]	@ movhi
 4171 3e14 B030D7E1 		ldrh	r3, [r7]
 4172 3e18 E00C1FE5 		ldr	r0, .L385+332
 4173 3e1c 013083E2 		add	r3, r3, #1
 4174 3e20 9910A0E3 		mov	r1, #153
 4175 3e24 FC5C1FE5 		ldr	r5, .L385+316
 4176 3e28 B030C7E1 		strh	r3, [r7]	@ movhi
 4177 3e2c FEFFFFEB 		bl	uart_transmit
 4178 3e30 F80C1FE5 		ldr	r0, .L385+332
 4179 3e34 0B10A0E3 		mov	r1, #11
 4180 3e38 0C4D1FE5 		ldr	r4, .L385+320
 4181 3e3c FEFFFFEB 		bl	uart_transmit
 4182 3e40 0D30A0E3 		mov	r3, #13
 4183 3e44 0030C5E5 		strb	r3, [r5]
 4184 3e48 100D1FE5 		ldr	r0, .L385+332
 4185 3e4c 1830A0E3 		mov	r3, #24
 4186 3e50 0210A0E3 		mov	r1, #2
 4187 3e54 0030C4E5 		strb	r3, [r4]
 4188 3e58 FEFFFFEB 		bl	uart_transmit
 4189 3e5c 0030D5E5 		ldrb	r3, [r5]	@ zero_extendqisi2
 4190 3e60 0020D4E5 		ldrb	r2, [r4]	@ zero_extendqisi2
 4191 3e64 1E3083E2 		add	r3, r3, #30
 4192 3e68 FF3003E2 		and	r3, r3, #255
 4193 3e6c 0030C5E5 		strb	r3, [r5]
 4194 3e70 380D1FE5 		ldr	r0, .L385+332
 4195 3e74 023083E0 		add	r3, r3, r2
 4196 3e78 1E10A0E3 		mov	r1, #30
 4197 3e7c 0030C4E5 		strb	r3, [r4]
 4198 3e80 FEFFFFEB 		bl	uart_transmit
 4199 3e84 0010D8E5 		ldrb	r1, [r8]	@ zero_extendqisi2
 4200 3e88 0030D5E5 		ldrb	r3, [r5]	@ zero_extendqisi2
 4201 3e8c 0020D4E5 		ldrb	r2, [r4]	@ zero_extendqisi2
 4202 3e90 033081E0 		add	r3, r1, r3
 4203 3e94 FF3003E2 		and	r3, r3, #255
 4204 3e98 0030C5E5 		strb	r3, [r5]
 4205 3e9c 640D1FE5 		ldr	r0, .L385+332
 4206 3ea0 023083E0 		add	r3, r3, r2
 4207 3ea4 0030C4E5 		strb	r3, [r4]
 4208 3ea8 FEFFFFEB 		bl	uart_transmit
 4209 3eac 0C10DDE5 		ldrb	r1, [sp, #12]	@ zero_extendqisi2
 4210 3eb0 0030D5E5 		ldrb	r3, [r5]	@ zero_extendqisi2
 4211 3eb4 0020D4E5 		ldrb	r2, [r4]	@ zero_extendqisi2
 4212 3eb8 033081E0 		add	r3, r1, r3
 4213 3ebc FF3003E2 		and	r3, r3, #255
 4214 3ec0 0030C5E5 		strb	r3, [r5]
 4215 3ec4 8C0D1FE5 		ldr	r0, .L385+332
 4216 3ec8 023083E0 		add	r3, r3, r2
 4217 3ecc 0030C4E5 		strb	r3, [r4]
 4218 3ed0 FEFFFFEB 		bl	uart_transmit
 4219 3ed4 0D10DDE5 		ldrb	r1, [sp, #13]	@ zero_extendqisi2
 4220 3ed8 0030D5E5 		ldrb	r3, [r5]	@ zero_extendqisi2
 4221 3edc 0020D4E5 		ldrb	r2, [r4]	@ zero_extendqisi2
 4222 3ee0 033081E0 		add	r3, r1, r3
 4223 3ee4 FF3003E2 		and	r3, r3, #255
 4224 3ee8 0030C5E5 		strb	r3, [r5]
 4225 3eec B40D1FE5 		ldr	r0, .L385+332
 4226 3ef0 023083E0 		add	r3, r3, r2
 4227 3ef4 0030C4E5 		strb	r3, [r4]
 4228 3ef8 FEFFFFEB 		bl	uart_transmit
 4229 3efc 0010D7E5 		ldrb	r1, [r7]	@ zero_extendqisi2
 4230 3f00 0030D5E5 		ldrb	r3, [r5]	@ zero_extendqisi2
 4231 3f04 0020D4E5 		ldrb	r2, [r4]	@ zero_extendqisi2
 4232 3f08 033081E0 		add	r3, r1, r3
 4233 3f0c FF3003E2 		and	r3, r3, #255
 4234 3f10 0030C5E5 		strb	r3, [r5]
 4235 3f14 DC0D1FE5 		ldr	r0, .L385+332
 4236 3f18 023083E0 		add	r3, r3, r2
 4237 3f1c 0030C4E5 		strb	r3, [r4]
 4238 3f20 FEFFFFEB 		bl	uart_transmit
 4239 3f24 0110D7E5 		ldrb	r1, [r7, #1]	@ zero_extendqisi2
 4240 3f28 0030D5E5 		ldrb	r3, [r5]	@ zero_extendqisi2
 4241 3f2c 0020D4E5 		ldrb	r2, [r4]	@ zero_extendqisi2
 4242 3f30 033081E0 		add	r3, r1, r3
 4243 3f34 FF3003E2 		and	r3, r3, #255
 4244 3f38 0030C5E5 		strb	r3, [r5]
 4245 3f3c 040E1FE5 		ldr	r0, .L385+332
 4246 3f40 023083E0 		add	r3, r3, r2
 4247 3f44 0030C4E5 		strb	r3, [r4]
 4248 3f48 FEFFFFEB 		bl	uart_transmit
 4249 3f4c 140E1FE5 		ldr	r0, .L385+332
 4250 3f50 0010D5E5 		ldrb	r1, [r5]	@ zero_extendqisi2
 4251 3f54 FEFFFFEB 		bl	uart_transmit
 4252 3f58 200E1FE5 		ldr	r0, .L385+332
 4253 3f5c 0010D4E5 		ldrb	r1, [r4]	@ zero_extendqisi2
 4254 3f60 FEFFFFEB 		bl	uart_transmit
 4255              	.L122:
 4256 3f64 483E1FE5 		ldr	r3, .L385+304
 4257 3f68 B030D3E1 		ldrh	r3, [r3]
 4258 3f6c 840053E3 		cmp	r3, #132
 4259 3f70 8D00001A 		bne	.L10
 4260 3f74 3C0E1FE5 		ldr	r0, .L385+332
 4261 3f78 0F10A0E3 		mov	r1, #15
 4262 3f7c FEFFFFEB 		bl	uart_check_free_space
 4263 3f80 000050E3 		cmp	r0, #0
 4264 3f84 8400000A 		beq	.L126
 4265 3f88 683E1FE5 		ldr	r3, .L385+308
 4266 3f8c B020D3E1 		ldrh	r2, [r3]
 4267 3f90 0F2082E2 		add	r2, r2, #15
 4268 3f94 B020C3E1 		strh	r2, [r3]	@ movhi
 4269 3f98 743E1FE5 		ldr	r3, .L385+312
 4270 3f9c B020D3E1 		ldrh	r2, [r3]
 4271 3fa0 680E1FE5 		ldr	r0, .L385+332
 4272 3fa4 012082E2 		add	r2, r2, #1
 4273 3fa8 9910A0E3 		mov	r1, #153
 4274 3fac 845E1FE5 		ldr	r5, .L385+316
 4275 3fb0 B020C3E1 		strh	r2, [r3]	@ movhi
 4276 3fb4 FEFFFFEB 		bl	uart_transmit
 4277 3fb8 800E1FE5 		ldr	r0, .L385+332
 4278 3fbc 0F10A0E3 		mov	r1, #15
 4279 3fc0 944E1FE5 		ldr	r4, .L385+320
 4280 3fc4 FEFFFFEB 		bl	uart_transmit
 4281 3fc8 1130A0E3 		mov	r3, #17
 4282 3fcc 0030C5E5 		strb	r3, [r5]
 4283 3fd0 980E1FE5 		ldr	r0, .L385+332
 4284 3fd4 2030A0E3 		mov	r3, #32
 4285 3fd8 0210A0E3 		mov	r1, #2
 4286 3fdc 0030C4E5 		strb	r3, [r4]
 4287 3fe0 FEFFFFEB 		bl	uart_transmit
 4288 3fe4 0030D5E5 		ldrb	r3, [r5]	@ zero_extendqisi2
 4289 3fe8 0020D4E5 		ldrb	r2, [r4]	@ zero_extendqisi2
 4290 3fec 093083E2 		add	r3, r3, #9
 4291 3ff0 C07E1FE5 		ldr	r7, .L385+324
 4292 3ff4 FF3003E2 		and	r3, r3, #255
 4293 3ff8 0030C5E5 		strb	r3, [r5]
 4294 3ffc C40E1FE5 		ldr	r0, .L385+332
 4295 4000 023083E0 		add	r3, r3, r2
 4296 4004 0910A0E3 		mov	r1, #9
 4297 4008 0030C4E5 		strb	r3, [r4]
 4298 400c FEFFFFEB 		bl	uart_transmit
 4299 4010 0010D7E5 		ldrb	r1, [r7]	@ zero_extendqisi2
 4300 4014 0030D5E5 		ldrb	r3, [r5]	@ zero_extendqisi2
 4301 4018 0020D4E5 		ldrb	r2, [r4]	@ zero_extendqisi2
 4302 401c 033081E0 		add	r3, r1, r3
 4303 4020 FF3003E2 		and	r3, r3, #255
 4304 4024 0030C5E5 		strb	r3, [r5]
 4305 4028 F00E1FE5 		ldr	r0, .L385+332
 4306 402c 023083E0 		add	r3, r3, r2
 4307 4030 0030C4E5 		strb	r3, [r4]
 4308 4034 FEFFFFEB 		bl	uart_transmit
 4309 4038 0110D7E5 		ldrb	r1, [r7, #1]	@ zero_extendqisi2
 4310 403c 0030D5E5 		ldrb	r3, [r5]	@ zero_extendqisi2
 4311 4040 0020D4E5 		ldrb	r2, [r4]	@ zero_extendqisi2
 4312 4044 033081E0 		add	r3, r1, r3
 4313 4048 FF3003E2 		and	r3, r3, #255
 4314 404c 0030C5E5 		strb	r3, [r5]
 4315 4050 180F1FE5 		ldr	r0, .L385+332
 4316 4054 023083E0 		add	r3, r3, r2
 4317 4058 0030C4E5 		strb	r3, [r4]
 4318 405c FEFFFFEB 		bl	uart_transmit
 4319 4060 0210D7E5 		ldrb	r1, [r7, #2]	@ zero_extendqisi2
 4320 4064 0030D5E5 		ldrb	r3, [r5]	@ zero_extendqisi2
 4321 4068 0020D4E5 		ldrb	r2, [r4]	@ zero_extendqisi2
 4322 406c 033081E0 		add	r3, r1, r3
 4323 4070 FF3003E2 		and	r3, r3, #255
 4324 4074 0030C5E5 		strb	r3, [r5]
 4325 4078 400F1FE5 		ldr	r0, .L385+332
 4326 407c 023083E0 		add	r3, r3, r2
 4327 4080 0030C4E5 		strb	r3, [r4]
 4328 4084 FEFFFFEB 		bl	uart_transmit
 4329 4088 0310D7E5 		ldrb	r1, [r7, #3]	@ zero_extendqisi2
 4330 408c 0030D5E5 		ldrb	r3, [r5]	@ zero_extendqisi2
 4331 4090 0020D4E5 		ldrb	r2, [r4]	@ zero_extendqisi2
 4332 4094 033081E0 		add	r3, r1, r3
 4333 4098 647F1FE5 		ldr	r7, .L385+328
 4334 409c FF3003E2 		and	r3, r3, #255
 4335 40a0 0030C5E5 		strb	r3, [r5]
 4336 40a4 6C0F1FE5 		ldr	r0, .L385+332
 4337 40a8 023083E0 		add	r3, r3, r2
 4338 40ac 0030C4E5 		strb	r3, [r4]
 4339 40b0 FEFFFFEB 		bl	uart_transmit
 4340 40b4 0010D7E5 		ldrb	r1, [r7]	@ zero_extendqisi2
 4341 40b8 0030D5E5 		ldrb	r3, [r5]	@ zero_extendqisi2
 4342 40bc 0020D4E5 		ldrb	r2, [r4]	@ zero_extendqisi2
 4343 40c0 033081E0 		add	r3, r1, r3
 4344 40c4 FF3003E2 		and	r3, r3, #255
 4345 40c8 0030C5E5 		strb	r3, [r5]
 4346 40cc 940F1FE5 		ldr	r0, .L385+332
 4347 40d0 023083E0 		add	r3, r3, r2
 4348 40d4 0030C4E5 		strb	r3, [r4]
 4349 40d8 FEFFFFEB 		bl	uart_transmit
 4350 40dc 0110D7E5 		ldrb	r1, [r7, #1]	@ zero_extendqisi2
 4351 40e0 0030D5E5 		ldrb	r3, [r5]	@ zero_extendqisi2
 4352 40e4 0020D4E5 		ldrb	r2, [r4]	@ zero_extendqisi2
 4353 40e8 033081E0 		add	r3, r1, r3
 4354 40ec FF3003E2 		and	r3, r3, #255
 4355 40f0 0030C5E5 		strb	r3, [r5]
 4356 40f4 BC0F1FE5 		ldr	r0, .L385+332
 4357 40f8 023083E0 		add	r3, r3, r2
 4358 40fc 0030C4E5 		strb	r3, [r4]
 4359 4100 FEFFFFEB 		bl	uart_transmit
 4360 4104 0210D7E5 		ldrb	r1, [r7, #2]	@ zero_extendqisi2
 4361 4108 0030D5E5 		ldrb	r3, [r5]	@ zero_extendqisi2
 4362 410c 0020D4E5 		ldrb	r2, [r4]	@ zero_extendqisi2
 4363 4110 033081E0 		add	r3, r1, r3
 4364 4114 FF3003E2 		and	r3, r3, #255
 4365 4118 0030C5E5 		strb	r3, [r5]
 4366 411c E40F1FE5 		ldr	r0, .L385+332
 4367 4120 023083E0 		add	r3, r3, r2
 4368 4124 0030C4E5 		strb	r3, [r4]
 4369 4128 FEFFFFEB 		bl	uart_transmit
 4370 412c 0310D7E5 		ldrb	r1, [r7, #3]	@ zero_extendqisi2
 4371 4130 0030D5E5 		ldrb	r3, [r5]	@ zero_extendqisi2
 4372 4134 0020D4E5 		ldrb	r2, [r4]	@ zero_extendqisi2
 4373 4138 033081E0 		add	r3, r1, r3
 4374 413c FF3003E2 		and	r3, r3, #255
 4375 4140 0030C5E5 		strb	r3, [r5]
 4376 4144 580F9FE5 		ldr	r0, .L387+348
 4377 4148 023083E0 		add	r3, r3, r2
 4378 414c 0030C4E5 		strb	r3, [r4]
 4379 4150 FEFFFFEB 		bl	uart_transmit
 4380 4154 703E9FE5 		ldr	r3, .L387+132
 4381 4158 0010D3E5 		ldrb	r1, [r3]	@ zero_extendqisi2
 4382 415c 0030D5E5 		ldrb	r3, [r5]	@ zero_extendqisi2
 4383 4160 0020D4E5 		ldrb	r2, [r4]	@ zero_extendqisi2
 4384 4164 033081E0 		add	r3, r1, r3
 4385 4168 FF3003E2 		and	r3, r3, #255
 4386 416c 0030C5E5 		strb	r3, [r5]
 4387 4170 2C0F9FE5 		ldr	r0, .L387+348
 4388 4174 023083E0 		add	r3, r3, r2
 4389 4178 0030C4E5 		strb	r3, [r4]
 4390 417c FEFFFFEB 		bl	uart_transmit
 4391 4180 0010D5E5 		ldrb	r1, [r5]	@ zero_extendqisi2
 4392 4184 180F9FE5 		ldr	r0, .L387+348
 4393 4188 FEFFFFEB 		bl	uart_transmit
 4394 418c 100F9FE5 		ldr	r0, .L387+348
 4395 4190 0010D4E5 		ldrb	r1, [r4]	@ zero_extendqisi2
 4396 4194 FEFFFFEB 		bl	uart_transmit
 4397 4198 030000EA 		b	.L10
 4398              	.L126:
 4399 419c C43E9FE5 		ldr	r3, .L387+288
 4400 41a0 0020D3E5 		ldrb	r2, [r3]	@ zero_extendqisi2
 4401 41a4 012082E2 		add	r2, r2, #1
 4402 41a8 0020C3E5 		strb	r2, [r3]
 4403              	.L10:
 4404 41ac 0030D6E5 		ldrb	r3, [r6]	@ zero_extendqisi2
 4405 41b0 010053E3 		cmp	r3, #1
 4406 41b4 750F001A 		bne	.L128
 4407 41b8 883D9FE5 		ldr	r3, .L387
 4408 41bc 0020D3E5 		ldrb	r2, [r3]	@ zero_extendqisi2
 4409 41c0 012082E2 		add	r2, r2, #1
 4410 41c4 FF2002E2 		and	r2, r2, #255
 4411 41c8 3E0052E3 		cmp	r2, #62
 4412 41cc 78BD9FE5 		ldr	fp, .L387+4
 4413 41d0 0020A083 		movhi	r2, #0
 4414 41d4 0020C3E5 		strb	r2, [r3]
 4415 41d8 0020DBE5 		ldrb	r2, [fp]	@ zero_extendqisi2
 4416 41dc 012082E2 		add	r2, r2, #1
 4417 41e0 FF2002E2 		and	r2, r2, #255
 4418 41e4 410052E3 		cmp	r2, #65
 4419 41e8 60AD9FE5 		ldr	r10, .L387+8
 4420 41ec 0020A083 		movhi	r2, #0
 4421 41f0 0020CBE5 		strb	r2, [fp]
 4422 41f4 0020DAE5 		ldrb	r2, [r10]	@ zero_extendqisi2
 4423 41f8 012082E2 		add	r2, r2, #1
 4424 41fc FF2002E2 		and	r2, r2, #255
 4425 4200 4D0052E3 		cmp	r2, #77
 4426 4204 489D9FE5 		ldr	r9, .L387+12
 4427 4208 0020A083 		movhi	r2, #0
 4428 420c 0020CAE5 		strb	r2, [r10]
 4429 4210 0020D9E5 		ldrb	r2, [r9]	@ zero_extendqisi2
 4430 4214 012082E2 		add	r2, r2, #1
 4431 4218 FF2002E2 		and	r2, r2, #255
 4432 421c 530052E3 		cmp	r2, #83
 4433 4220 A88D9FE5 		ldr	r8, .L387+136
 4434 4224 0020A083 		movhi	r2, #0
 4435 4228 0020C9E5 		strb	r2, [r9]
 4436 422c 0020D8E5 		ldrb	r2, [r8]	@ zero_extendqisi2
 4437 4230 012082E2 		add	r2, r2, #1
 4438 4234 FF2002E2 		and	r2, r2, #255
 4439 4238 590052E3 		cmp	r2, #89
 4440 423c 8C1D9F85 		ldrhi	r1, .L387+136
 4441 4240 087E9FE5 		ldr	r7, .L387+264
 4442 4244 0020A083 		movhi	r2, #0
 4443 4248 0020C185 		strhib	r2, [r1]
 4444 424c 0020C895 		strlsb	r2, [r8]
 4445 4250 0020D7E5 		ldrb	r2, [r7]	@ zero_extendqisi2
 4446 4254 012082E2 		add	r2, r2, #1
 4447 4258 FF2002E2 		and	r2, r2, #255
 4448 425c 7D0052E3 		cmp	r2, #125
 4449 4260 E81D9F85 		ldrhi	r1, .L387+264
 4450 4264 0020A083 		movhi	r2, #0
 4451 4268 0020C185 		strhib	r2, [r1]
 4452 426c F81D9FE5 		ldr	r1, .L387+292
 4453 4270 0020C795 		strlsb	r2, [r7]
 4454 4274 0020D1E5 		ldrb	r2, [r1]	@ zero_extendqisi2
 4455 4278 012082E2 		add	r2, r2, #1
 4456 427c FF2002E2 		and	r2, r2, #255
 4457 4280 B30052E3 		cmp	r2, #179
 4458 4284 E01D9F85 		ldrhi	r1, .L387+292
 4459 4288 0020A083 		movhi	r2, #0
 4460 428c 0020C1E5 		strb	r2, [r1]
 4461 4290 C02C9FE5 		ldr	r2, .L387+16
 4462 4294 0010D2E5 		ldrb	r1, [r2]	@ zero_extendqisi2
 4463 4298 011081E2 		add	r1, r1, #1
 4464 429c FF1001E2 		and	r1, r1, #255
 4465 42a0 B60051E3 		cmp	r1, #182
 4466 42a4 0010A083 		movhi	r1, #0
 4467 42a8 0010C2E5 		strb	r1, [r2]
 4468 42ac A82C9FE5 		ldr	r2, .L387+20
 4469 42b0 0010D2E5 		ldrb	r1, [r2]	@ zero_extendqisi2
 4470 42b4 011081E2 		add	r1, r1, #1
 4471 42b8 FF1001E2 		and	r1, r1, #255
 4472 42bc BF0051E3 		cmp	r1, #191
 4473 42c0 0010A083 		movhi	r1, #0
 4474 42c4 0010C2E5 		strb	r1, [r2]
 4475 42c8 902C9FE5 		ldr	r2, .L387+24
 4476 42cc 0010D2E5 		ldrb	r1, [r2]	@ zero_extendqisi2
 4477 42d0 011081E2 		add	r1, r1, #1
 4478 42d4 FF1001E2 		and	r1, r1, #255
 4479 42d8 EF0051E3 		cmp	r1, #239
 4480 42dc 0010A083 		movhi	r1, #0
 4481 42e0 0010C2E5 		strb	r1, [r2]
 4482 42e4 782C9FE5 		ldr	r2, .L387+28
 4483 42e8 0010D2E5 		ldrb	r1, [r2]	@ zero_extendqisi2
 4484 42ec 011081E2 		add	r1, r1, #1
 4485 42f0 FF1001E2 		and	r1, r1, #255
 4486 42f4 F20051E3 		cmp	r1, #242
 4487 42f8 0010A083 		movhi	r1, #0
 4488 42fc 0010C2E5 		strb	r1, [r2]
 4489 4300 602C9FE5 		ldr	r2, .L387+32
 4490 4304 B010D2E1 		ldrh	r1, [r2]
 4491 4308 011081E2 		add	r1, r1, #1
 4492 430c 0118A0E1 		mov	r1, r1, asl #16
 4493 4310 2118A0E1 		mov	r1, r1, lsr #16
 4494 4314 4B0F51E3 		cmp	r1, #300
 4495 4318 0010A023 		movcs	r1, #0
 4496 431c B010C2E1 		strh	r1, [r2]	@ movhi
 4497 4320 442C9FE5 		ldr	r2, .L387+36
 4498 4324 B010D2E1 		ldrh	r1, [r2]
 4499 4328 011081E2 		add	r1, r1, #1
 4500 432c 3C0C9FE5 		ldr	r0, .L387+40
 4501 4330 0118A0E1 		mov	r1, r1, asl #16
 4502 4334 2118A0E1 		mov	r1, r1, lsr #16
 4503 4338 000051E1 		cmp	r1, r0
 4504 433c 0010A083 		movhi	r1, #0
 4505 4340 B010C2E1 		strh	r1, [r2]	@ movhi
 4506 4344 282C9FE5 		ldr	r2, .L387+44
 4507 4348 B010D2E1 		ldrh	r1, [r2]
 4508 434c 011081E2 		add	r1, r1, #1
 4509 4350 0118A0E1 		mov	r1, r1, asl #16
 4510 4354 2118A0E1 		mov	r1, r1, lsr #16
 4511 4358 4E0F51E3 		cmp	r1, #312
 4512 435c 0010A023 		movcs	r1, #0
 4513 4360 B010C2E1 		strh	r1, [r2]	@ movhi
 4514 4364 0C2C9FE5 		ldr	r2, .L387+48
 4515 4368 B010D2E1 		ldrh	r1, [r2]
 4516 436c 011081E2 		add	r1, r1, #1
 4517 4370 0118A0E1 		mov	r1, r1, asl #16
 4518 4374 2118A0E1 		mov	r1, r1, lsr #16
 4519 4378 870F51E3 		cmp	r1, #540
 4520 437c 0010A023 		movcs	r1, #0
 4521 4380 B010C2E1 		strh	r1, [r2]	@ movhi
 4522 4384 F02B9FE5 		ldr	r2, .L387+52
 4523 4388 B010D2E1 		ldrh	r1, [r2]
 4524 438c 011081E2 		add	r1, r1, #1
 4525 4390 0118A0E1 		mov	r1, r1, asl #16
 4526 4394 E40B9FE5 		ldr	r0, .L387+56
 4527 4398 2118A0E1 		mov	r1, r1, lsr #16
 4528 439c 000051E1 		cmp	r1, r0
 4529 43a0 0010A083 		movhi	r1, #0
 4530 43a4 B010C2E1 		strh	r1, [r2]	@ movhi
 4531 43a8 0030D3E5 		ldrb	r3, [r3]	@ zero_extendqisi2
 4532 43ac 000053E3 		cmp	r3, #0
 4533 43b0 FA01001A 		bne	.L161
 4534 43b4 904C9FE5 		ldr	r4, .L387+260
 4535 43b8 403094E5 		ldr	r3, [r4, #64]
 4536 43bc 480094E5 		ldr	r0, [r4, #72]
 4537 43c0 003063E2 		rsb	r3, r3, #0
 4538 43c4 B830CDE1 		strh	r3, [sp, #8]	@ movhi
 4539 43c8 FEFFFFEB 		bl	__aeabi_i2d
 4540 43cc B02B9FE5 		ldr	r2, .L387+60
 4541 43d0 B03B9FE5 		ldr	r3, .L387+64
 4542 43d4 FEFFFFEB 		bl	__aeabi_dmul
 4543 43d8 0020A0E3 		mov	r2, #0
 4544 43dc A83B9FE5 		ldr	r3, .L387+68
 4545 43e0 FEFFFFEB 		bl	__aeabi_ddiv
 4546 43e4 FEFFFFEB 		bl	__aeabi_d2iz
 4547 43e8 2110A0E3 		mov	r1, #33
 4548 43ec BC00CDE1 		strh	r0, [sp, #12]	@ movhi
 4549 43f0 AC0C9FE5 		ldr	r0, .L387+348
 4550 43f4 FEFFFFEB 		bl	uart_check_free_space
 4551 43f8 000050E3 		cmp	r0, #0
 4552 43fc 3601000A 		beq	.L162
 4553 4400 743C9FE5 		ldr	r3, .L387+308
 4554 4404 B020D3E1 		ldrh	r2, [r3]
 4555 4408 212082E2 		add	r2, r2, #33
 4556 440c B020C3E1 		strh	r2, [r3]	@ movhi
 4557 4410 683C9FE5 		ldr	r3, .L387+312
 4558 4414 B020D3E1 		ldrh	r2, [r3]
 4559 4418 840C9FE5 		ldr	r0, .L387+348
 4560 441c 012082E2 		add	r2, r2, #1
 4561 4420 9910A0E3 		mov	r1, #153
 4562 4424 587C9FE5 		ldr	r7, .L387+316
 4563 4428 B020C3E1 		strh	r2, [r3]	@ movhi
 4564 442c FEFFFFEB 		bl	uart_transmit
 4565 4430 6C0C9FE5 		ldr	r0, .L387+348
 4566 4434 2110A0E3 		mov	r1, #33
 4567 4438 485C9FE5 		ldr	r5, .L387+320
 4568 443c FEFFFFEB 		bl	uart_transmit
 4569 4440 2320A0E3 		mov	r2, #35
 4570 4444 0020C7E5 		strb	r2, [r7]
 4571 4448 540C9FE5 		ldr	r0, .L387+348
 4572 444c 4420A0E3 		mov	r2, #68
 4573 4450 0210A0E3 		mov	r1, #2
 4574 4454 0020C5E5 		strb	r2, [r5]
 4575 4458 FEFFFFEB 		bl	uart_transmit
 4576 445c 0020D7E5 		ldrb	r2, [r7]	@ zero_extendqisi2
 4577 4460 0010D5E5 		ldrb	r1, [r5]	@ zero_extendqisi2
 4578 4464 082082E2 		add	r2, r2, #8
 4579 4468 FF2002E2 		and	r2, r2, #255
 4580 446c 0020C7E5 		strb	r2, [r7]
 4581 4470 2C0C9FE5 		ldr	r0, .L387+348
 4582 4474 012082E0 		add	r2, r2, r1
 4583 4478 0810A0E3 		mov	r1, #8
 4584 447c 0020C5E5 		strb	r2, [r5]
 4585 4480 FEFFFFEB 		bl	uart_transmit
 4586 4484 5B10D4E5 		ldrb	r1, [r4, #91]	@ zero_extendqisi2
 4587 4488 0020D7E5 		ldrb	r2, [r7]	@ zero_extendqisi2
 4588 448c 0000D5E5 		ldrb	r0, [r5]	@ zero_extendqisi2
 4589 4490 022081E0 		add	r2, r1, r2
 4590 4494 FF2002E2 		and	r2, r2, #255
 4591 4498 0020C7E5 		strb	r2, [r7]
 4592 449c 002082E0 		add	r2, r2, r0
 4593 44a0 FC0B9FE5 		ldr	r0, .L387+348
 4594 44a4 0020C5E5 		strb	r2, [r5]
 4595 44a8 FEFFFFEB 		bl	uart_transmit
 4596 44ac 1C10D4E5 		ldrb	r1, [r4, #28]	@ zero_extendqisi2
 4597 44b0 0020D7E5 		ldrb	r2, [r7]	@ zero_extendqisi2
 4598 44b4 0000D5E5 		ldrb	r0, [r5]	@ zero_extendqisi2
 4599 44b8 022081E0 		add	r2, r1, r2
 4600 44bc FF2002E2 		and	r2, r2, #255
 4601 44c0 0020C7E5 		strb	r2, [r7]
 4602 44c4 002082E0 		add	r2, r2, r0
 4603 44c8 D40B9FE5 		ldr	r0, .L387+348
 4604 44cc 0020C5E5 		strb	r2, [r5]
 4605 44d0 FEFFFFEB 		bl	uart_transmit
 4606 44d4 1D10D4E5 		ldrb	r1, [r4, #29]	@ zero_extendqisi2
 4607 44d8 0020D7E5 		ldrb	r2, [r7]	@ zero_extendqisi2
 4608 44dc 0000D5E5 		ldrb	r0, [r5]	@ zero_extendqisi2
 4609 44e0 022081E0 		add	r2, r1, r2
 4610 44e4 FF2002E2 		and	r2, r2, #255
 4611 44e8 0020C7E5 		strb	r2, [r7]
 4612 44ec 002082E0 		add	r2, r2, r0
 4613 44f0 AC0B9FE5 		ldr	r0, .L387+348
 4614 44f4 0020C5E5 		strb	r2, [r5]
 4615 44f8 FEFFFFEB 		bl	uart_transmit
 4616 44fc 1E10D4E5 		ldrb	r1, [r4, #30]	@ zero_extendqisi2
 4617 4500 0020D7E5 		ldrb	r2, [r7]	@ zero_extendqisi2
 4618 4504 0000D5E5 		ldrb	r0, [r5]	@ zero_extendqisi2
 4619 4508 022081E0 		add	r2, r1, r2
 4620 450c FF2002E2 		and	r2, r2, #255
 4621 4510 0020C7E5 		strb	r2, [r7]
 4622 4514 002082E0 		add	r2, r2, r0
 4623 4518 840B9FE5 		ldr	r0, .L387+348
 4624 451c 0020C5E5 		strb	r2, [r5]
 4625 4520 FEFFFFEB 		bl	uart_transmit
 4626 4524 1F10D4E5 		ldrb	r1, [r4, #31]	@ zero_extendqisi2
 4627 4528 0020D7E5 		ldrb	r2, [r7]	@ zero_extendqisi2
 4628 452c 0000D5E5 		ldrb	r0, [r5]	@ zero_extendqisi2
 4629 4530 022081E0 		add	r2, r1, r2
 4630 4534 FF2002E2 		and	r2, r2, #255
 4631 4538 0020C7E5 		strb	r2, [r7]
 4632 453c 002082E0 		add	r2, r2, r0
 4633 4540 5C0B9FE5 		ldr	r0, .L387+348
 4634 4544 0020C5E5 		strb	r2, [r5]
 4635 4548 FEFFFFEB 		bl	uart_transmit
 4636 454c 1810D4E5 		ldrb	r1, [r4, #24]	@ zero_extendqisi2
 4637 4550 0020D7E5 		ldrb	r2, [r7]	@ zero_extendqisi2
 4638 4554 0000D5E5 		ldrb	r0, [r5]	@ zero_extendqisi2
 4639 4558 022081E0 		add	r2, r1, r2
 4640 455c FF2002E2 		and	r2, r2, #255
 4641 4560 0020C7E5 		strb	r2, [r7]
 4642 4564 002082E0 		add	r2, r2, r0
 4643 4568 340B9FE5 		ldr	r0, .L387+348
 4644 456c 0020C5E5 		strb	r2, [r5]
 4645 4570 FEFFFFEB 		bl	uart_transmit
 4646 4574 1910D4E5 		ldrb	r1, [r4, #25]	@ zero_extendqisi2
 4647 4578 0020D7E5 		ldrb	r2, [r7]	@ zero_extendqisi2
 4648 457c 0000D5E5 		ldrb	r0, [r5]	@ zero_extendqisi2
 4649 4580 022081E0 		add	r2, r1, r2
 4650 4584 FF2002E2 		and	r2, r2, #255
 4651 4588 0020C7E5 		strb	r2, [r7]
 4652 458c 002082E0 		add	r2, r2, r0
 4653 4590 0C0B9FE5 		ldr	r0, .L387+348
 4654 4594 0020C5E5 		strb	r2, [r5]
 4655 4598 FEFFFFEB 		bl	uart_transmit
 4656 459c 1A10D4E5 		ldrb	r1, [r4, #26]	@ zero_extendqisi2
 4657 45a0 0020D7E5 		ldrb	r2, [r7]	@ zero_extendqisi2
 4658 45a4 0000D5E5 		ldrb	r0, [r5]	@ zero_extendqisi2
 4659 45a8 022081E0 		add	r2, r1, r2
 4660 45ac FF2002E2 		and	r2, r2, #255
 4661 45b0 0020C7E5 		strb	r2, [r7]
 4662 45b4 002082E0 		add	r2, r2, r0
 4663 45b8 E40A9FE5 		ldr	r0, .L387+348
 4664 45bc 0020C5E5 		strb	r2, [r5]
 4665 45c0 FEFFFFEB 		bl	uart_transmit
 4666 45c4 1B10D4E5 		ldrb	r1, [r4, #27]	@ zero_extendqisi2
 4667 45c8 0020D7E5 		ldrb	r2, [r7]	@ zero_extendqisi2
 4668 45cc 0000D5E5 		ldrb	r0, [r5]	@ zero_extendqisi2
 4669 45d0 022081E0 		add	r2, r1, r2
 4670 45d4 FF2002E2 		and	r2, r2, #255
 4671 45d8 0020C7E5 		strb	r2, [r7]
 4672 45dc 002082E0 		add	r2, r2, r0
 4673 45e0 BC0A9FE5 		ldr	r0, .L387+348
 4674 45e4 0020C5E5 		strb	r2, [r5]
 4675 45e8 FEFFFFEB 		bl	uart_transmit
 4676 45ec 0C10DDE5 		ldrb	r1, [sp, #12]	@ zero_extendqisi2
 4677 45f0 0020D7E5 		ldrb	r2, [r7]	@ zero_extendqisi2
 4678 45f4 0000D5E5 		ldrb	r0, [r5]	@ zero_extendqisi2
 4679 45f8 022081E0 		add	r2, r1, r2
 4680 45fc FF2002E2 		and	r2, r2, #255
 4681 4600 0020C7E5 		strb	r2, [r7]
 4682 4604 002082E0 		add	r2, r2, r0
 4683 4608 940A9FE5 		ldr	r0, .L387+348
 4684 460c 0020C5E5 		strb	r2, [r5]
 4685 4610 FEFFFFEB 		bl	uart_transmit
 4686 4614 0D10DDE5 		ldrb	r1, [sp, #13]	@ zero_extendqisi2
 4687 4618 0020D7E5 		ldrb	r2, [r7]	@ zero_extendqisi2
 4688 461c 0000D5E5 		ldrb	r0, [r5]	@ zero_extendqisi2
 4689 4620 022081E0 		add	r2, r1, r2
 4690 4624 FF2002E2 		and	r2, r2, #255
 4691 4628 0020C7E5 		strb	r2, [r7]
 4692 462c 002082E0 		add	r2, r2, r0
 4693 4630 6C0A9FE5 		ldr	r0, .L387+348
 4694 4634 0020C5E5 		strb	r2, [r5]
 4695 4638 FEFFFFEB 		bl	uart_transmit
 4696 463c 2810D4E5 		ldrb	r1, [r4, #40]	@ zero_extendqisi2
 4697 4640 0020D7E5 		ldrb	r2, [r7]	@ zero_extendqisi2
 4698 4644 0000D5E5 		ldrb	r0, [r5]	@ zero_extendqisi2
 4699 4648 022081E0 		add	r2, r1, r2
 4700 464c FF2002E2 		and	r2, r2, #255
 4701 4650 0020C7E5 		strb	r2, [r7]
 4702 4654 002082E0 		add	r2, r2, r0
 4703 4658 440A9FE5 		ldr	r0, .L387+348
 4704 465c 0020C5E5 		strb	r2, [r5]
 4705 4660 FEFFFFEB 		bl	uart_transmit
 4706 4664 2910D4E5 		ldrb	r1, [r4, #41]	@ zero_extendqisi2
 4707 4668 0020D7E5 		ldrb	r2, [r7]	@ zero_extendqisi2
 4708 466c 0000D5E5 		ldrb	r0, [r5]	@ zero_extendqisi2
 4709 4670 022081E0 		add	r2, r1, r2
 4710 4674 FF2002E2 		and	r2, r2, #255
 4711 4678 0020C7E5 		strb	r2, [r7]
 4712 467c 002082E0 		add	r2, r2, r0
 4713 4680 1C0A9FE5 		ldr	r0, .L387+348
 4714 4684 0020C5E5 		strb	r2, [r5]
 4715 4688 FEFFFFEB 		bl	uart_transmit
 4716 468c 2A10D4E5 		ldrb	r1, [r4, #42]	@ zero_extendqisi2
 4717 4690 0020D7E5 		ldrb	r2, [r7]	@ zero_extendqisi2
 4718 4694 0000D5E5 		ldrb	r0, [r5]	@ zero_extendqisi2
 4719 4698 022081E0 		add	r2, r1, r2
 4720 469c FF2002E2 		and	r2, r2, #255
 4721 46a0 0020C7E5 		strb	r2, [r7]
 4722 46a4 002082E0 		add	r2, r2, r0
 4723 46a8 F4099FE5 		ldr	r0, .L387+348
 4724 46ac 0020C5E5 		strb	r2, [r5]
 4725 46b0 FEFFFFEB 		bl	uart_transmit
 4726 46b4 2B10D4E5 		ldrb	r1, [r4, #43]	@ zero_extendqisi2
 4727 46b8 0020D7E5 		ldrb	r2, [r7]	@ zero_extendqisi2
 4728 46bc 0000D5E5 		ldrb	r0, [r5]	@ zero_extendqisi2
 4729 46c0 022081E0 		add	r2, r1, r2
 4730 46c4 FF2002E2 		and	r2, r2, #255
 4731 46c8 0020C7E5 		strb	r2, [r7]
 4732 46cc 002082E0 		add	r2, r2, r0
 4733 46d0 CC099FE5 		ldr	r0, .L387+348
 4734 46d4 0020C5E5 		strb	r2, [r5]
 4735 46d8 FEFFFFEB 		bl	uart_transmit
 4736 46dc 4410D4E5 		ldrb	r1, [r4, #68]	@ zero_extendqisi2
 4737 46e0 0020D7E5 		ldrb	r2, [r7]	@ zero_extendqisi2
 4738 46e4 0000D5E5 		ldrb	r0, [r5]	@ zero_extendqisi2
 4739 46e8 022081E0 		add	r2, r1, r2
 4740 46ec FF2002E2 		and	r2, r2, #255
 4741 46f0 0020C7E5 		strb	r2, [r7]
 4742 46f4 002082E0 		add	r2, r2, r0
 4743 46f8 A4099FE5 		ldr	r0, .L387+348
 4744 46fc 0020C5E5 		strb	r2, [r5]
 4745 4700 FEFFFFEB 		bl	uart_transmit
 4746 4704 4510D4E5 		ldrb	r1, [r4, #69]	@ zero_extendqisi2
 4747 4708 0020D7E5 		ldrb	r2, [r7]	@ zero_extendqisi2
 4748 470c 0000D5E5 		ldrb	r0, [r5]	@ zero_extendqisi2
 4749 4710 022081E0 		add	r2, r1, r2
 4750 4714 FF2002E2 		and	r2, r2, #255
 4751 4718 0020C7E5 		strb	r2, [r7]
 4752 471c 002082E0 		add	r2, r2, r0
 4753 4720 7C099FE5 		ldr	r0, .L387+348
 4754 4724 0020C5E5 		strb	r2, [r5]
 4755 4728 FEFFFFEB 		bl	uart_transmit
 4756 472c 0810DDE5 		ldrb	r1, [sp, #8]	@ zero_extendqisi2
 4757 4730 0020D7E5 		ldrb	r2, [r7]	@ zero_extendqisi2
 4758 4734 0000D5E5 		ldrb	r0, [r5]	@ zero_extendqisi2
 4759 4738 022081E0 		add	r2, r1, r2
 4760 473c FF2002E2 		and	r2, r2, #255
 4761 4740 0020C7E5 		strb	r2, [r7]
 4762 4744 002082E0 		add	r2, r2, r0
 4763 4748 54099FE5 		ldr	r0, .L387+348
 4764 474c 0020C5E5 		strb	r2, [r5]
 4765 4750 FEFFFFEB 		bl	uart_transmit
 4766 4754 0910DDE5 		ldrb	r1, [sp, #9]	@ zero_extendqisi2
 4767 4758 0020D7E5 		ldrb	r2, [r7]	@ zero_extendqisi2
 4768 475c 0000D5E5 		ldrb	r0, [r5]	@ zero_extendqisi2
 4769 4760 022081E0 		add	r2, r1, r2
 4770 4764 FF2002E2 		and	r2, r2, #255
 4771 4768 0020C7E5 		strb	r2, [r7]
 4772 476c 002082E0 		add	r2, r2, r0
 4773 4770 2C099FE5 		ldr	r0, .L387+348
 4774 4774 0020C5E5 		strb	r2, [r5]
 4775 4778 FEFFFFEB 		bl	uart_transmit
 4776 477c 5C10D4E5 		ldrb	r1, [r4, #92]	@ zero_extendqisi2
 4777 4780 0020D7E5 		ldrb	r2, [r7]	@ zero_extendqisi2
 4778 4784 0000D5E5 		ldrb	r0, [r5]	@ zero_extendqisi2
 4779 4788 022081E0 		add	r2, r1, r2
 4780 478c FF2002E2 		and	r2, r2, #255
 4781 4790 0020C7E5 		strb	r2, [r7]
 4782 4794 002082E0 		add	r2, r2, r0
 4783 4798 04099FE5 		ldr	r0, .L387+348
 4784 479c 0020C5E5 		strb	r2, [r5]
 4785 47a0 FEFFFFEB 		bl	uart_transmit
 4786 47a4 5D10D4E5 		ldrb	r1, [r4, #93]	@ zero_extendqisi2
 4787 47a8 0020D7E5 		ldrb	r2, [r7]	@ zero_extendqisi2
 4788 47ac 0000D5E5 		ldrb	r0, [r5]	@ zero_extendqisi2
 4789 47b0 022081E0 		add	r2, r1, r2
 4790 47b4 FF2002E2 		and	r2, r2, #255
 4791 47b8 0020C7E5 		strb	r2, [r7]
 4792 47bc 002082E0 		add	r2, r2, r0
 4793 47c0 DC089FE5 		ldr	r0, .L387+348
 4794 47c4 0020C5E5 		strb	r2, [r5]
 4795 47c8 FEFFFFEB 		bl	uart_transmit
 4796 47cc 6010D4E5 		ldrb	r1, [r4, #96]	@ zero_extendqisi2
 4797 47d0 0020D7E5 		ldrb	r2, [r7]	@ zero_extendqisi2
 4798 47d4 0000D5E5 		ldrb	r0, [r5]	@ zero_extendqisi2
 4799 47d8 022081E0 		add	r2, r1, r2
 4800 47dc FF2002E2 		and	r2, r2, #255
 4801 47e0 0020C7E5 		strb	r2, [r7]
 4802 47e4 002082E0 		add	r2, r2, r0
 4803 47e8 B4089FE5 		ldr	r0, .L387+348
 4804 47ec 0020C5E5 		strb	r2, [r5]
 4805 47f0 FEFFFFEB 		bl	uart_transmit
 4806 47f4 6110D4E5 		ldrb	r1, [r4, #97]	@ zero_extendqisi2
 4807 47f8 0020D7E5 		ldrb	r2, [r7]	@ zero_extendqisi2
 4808 47fc 0000D5E5 		ldrb	r0, [r5]	@ zero_extendqisi2
 4809 4800 022081E0 		add	r2, r1, r2
 4810 4804 FF2002E2 		and	r2, r2, #255
 4811 4808 0020C7E5 		strb	r2, [r7]
 4812 480c 002082E0 		add	r2, r2, r0
 4813 4810 8C089FE5 		ldr	r0, .L387+348
 4814 4814 0020C5E5 		strb	r2, [r5]
 4815 4818 FEFFFFEB 		bl	uart_transmit
 4816 481c 6210D4E5 		ldrb	r1, [r4, #98]	@ zero_extendqisi2
 4817 4820 0020D7E5 		ldrb	r2, [r7]	@ zero_extendqisi2
 4818 4824 0000D5E5 		ldrb	r0, [r5]	@ zero_extendqisi2
 4819 4828 022081E0 		add	r2, r1, r2
 4820 482c FF2002E2 		and	r2, r2, #255
 4821 4830 0020C7E5 		strb	r2, [r7]
 4822 4834 002082E0 		add	r2, r2, r0
 4823 4838 64089FE5 		ldr	r0, .L387+348
 4824 483c 0020C5E5 		strb	r2, [r5]
 4825 4840 FEFFFFEB 		bl	uart_transmit
 4826 4844 6310D4E5 		ldrb	r1, [r4, #99]	@ zero_extendqisi2
 4827 4848 0020D7E5 		ldrb	r2, [r7]	@ zero_extendqisi2
 4828 484c 0000D5E5 		ldrb	r0, [r5]	@ zero_extendqisi2
 4829 4850 022081E0 		add	r2, r1, r2
 4830 4854 FF2002E2 		and	r2, r2, #255
 4831 4858 0020C7E5 		strb	r2, [r7]
 4832 485c 002082E0 		add	r2, r2, r0
 4833 4860 3C089FE5 		ldr	r0, .L387+348
 4834 4864 0020C5E5 		strb	r2, [r5]
 4835 4868 FEFFFFEB 		bl	uart_transmit
 4836 486c 2410D4E5 		ldrb	r1, [r4, #36]	@ zero_extendqisi2
 4837 4870 0020D7E5 		ldrb	r2, [r7]	@ zero_extendqisi2
 4838 4874 0000D5E5 		ldrb	r0, [r5]	@ zero_extendqisi2
 4839 4878 022081E0 		add	r2, r1, r2
 4840 487c FF2002E2 		and	r2, r2, #255
 4841 4880 0020C7E5 		strb	r2, [r7]
 4842 4884 002082E0 		add	r2, r2, r0
 4843 4888 14089FE5 		ldr	r0, .L387+348
 4844 488c 0020C5E5 		strb	r2, [r5]
 4845 4890 FEFFFFEB 		bl	uart_transmit
 4846 4894 F4269FE5 		ldr	r2, .L387+72
 4847 4898 0010D2E5 		ldrb	r1, [r2]	@ zero_extendqisi2
 4848 489c 0020D7E5 		ldrb	r2, [r7]	@ zero_extendqisi2
 4849 48a0 0000D5E5 		ldrb	r0, [r5]	@ zero_extendqisi2
 4850 48a4 022081E0 		add	r2, r1, r2
 4851 48a8 FF2002E2 		and	r2, r2, #255
 4852 48ac 0020C7E5 		strb	r2, [r7]
 4853 48b0 002082E0 		add	r2, r2, r0
 4854 48b4 E8079FE5 		ldr	r0, .L387+348
 4855 48b8 0020C5E5 		strb	r2, [r5]
 4856 48bc FEFFFFEB 		bl	uart_transmit
 4857 48c0 0010D7E5 		ldrb	r1, [r7]	@ zero_extendqisi2
 4858 48c4 D8079FE5 		ldr	r0, .L387+348
 4859 48c8 FEFFFFEB 		bl	uart_transmit
 4860 48cc D0079FE5 		ldr	r0, .L387+348
 4861 48d0 0010D5E5 		ldrb	r1, [r5]	@ zero_extendqisi2
 4862 48d4 FEFFFFEB 		bl	uart_transmit
 4863 48d8 030000EA 		b	.L163
 4864              	.L162:
 4865 48dc 84379FE5 		ldr	r3, .L387+288
 4866 48e0 0020D3E5 		ldrb	r2, [r3]	@ zero_extendqisi2
 4867 48e4 012082E2 		add	r2, r2, #1
 4868 48e8 0020C3E5 		strb	r2, [r3]
 4869              	.L163:
 4870 48ec 58279FE5 		ldr	r2, .L387+260
 4871 48f0 5B30D2E5 		ldrb	r3, [r2, #91]	@ zero_extendqisi2
 4872 48f4 030053E3 		cmp	r3, #3
 4873 48f8 90369FE5 		ldr	r3, .L387+72
 4874 48fc 0400000A 		beq	.L164
 4875 4900 6410D2E5 		ldrb	r1, [r2, #100]	@ zero_extendqisi2
 4876 4904 0000D3E5 		ldrb	r0, [r3]	@ zero_extendqisi2
 4877 4908 010050E1 		cmp	r0, r1
 4878 490c 0010A023 		movcs	r1, #0
 4879 4910 0010C325 		strcsb	r1, [r3]
 4880              	.L164:
 4881 4914 0000D3E5 		ldrb	r0, [r3]	@ zero_extendqisi2
 4882 4918 6410D2E5 		ldrb	r1, [r2, #100]	@ zero_extendqisi2
 4883 491c 810050E1 		cmp	r0, r1, asl #1
 4884 4920 68069FA5 		ldrge	r0, .L387+72
 4885 4924 00C0A0A3 		movge	ip, #0
 4886 4928 00C0C0A5 		strgeb	ip, [r0]
 4887 492c 0030D3E5 		ldrb	r3, [r3]	@ zero_extendqisi2
 4888 4930 010053E1 		cmp	r3, r1
 4889 4934 54469FE5 		ldr	r4, .L387+72
 4890 4938 9400002A 		bcs	.L166
 4891 493c 832182E0 		add	r2, r2, r3, asl #3
 4892 4940 6930D2E5 		ldrb	r3, [r2, #105]	@ zero_extendqisi2
 4893 4944 000053E3 		cmp	r3, #0
 4894 4948 FC569FE5 		ldr	r5, .L387+260
 4895 494c 8F00000A 		beq	.L166
 4896 4950 4C079FE5 		ldr	r0, .L387+348
 4897 4954 0E10A0E3 		mov	r1, #14
 4898 4958 FEFFFFEB 		bl	uart_check_free_space
 4899 495c 000050E3 		cmp	r0, #0
 4900 4960 8600000A 		beq	.L167
 4901 4964 10379FE5 		ldr	r3, .L387+308
 4902 4968 B020D3E1 		ldrh	r2, [r3]
 4903 496c 0E2082E2 		add	r2, r2, #14
 4904 4970 B020C3E1 		strh	r2, [r3]	@ movhi
 4905 4974 04379FE5 		ldr	r3, .L387+312
 4906 4978 B020D3E1 		ldrh	r2, [r3]
 4907 497c 20079FE5 		ldr	r0, .L387+348
 4908 4980 012082E2 		add	r2, r2, #1
 4909 4984 9910A0E3 		mov	r1, #153
 4910 4988 F8769FE5 		ldr	r7, .L387+320
 4911 498c B020C3E1 		strh	r2, [r3]	@ movhi
 4912 4990 FEFFFFEB 		bl	uart_transmit
 4913 4994 08079FE5 		ldr	r0, .L387+348
 4914 4998 0E10A0E3 		mov	r1, #14
 4915 499c E0869FE5 		ldr	r8, .L387+316
 4916 49a0 FEFFFFEB 		bl	uart_transmit
 4917 49a4 1E10A0E3 		mov	r1, #30
 4918 49a8 1030A0E3 		mov	r3, #16
 4919 49ac 0010C7E5 		strb	r1, [r7]
 4920 49b0 EC069FE5 		ldr	r0, .L387+348
 4921 49b4 0210A0E3 		mov	r1, #2
 4922 49b8 0030C8E5 		strb	r3, [r8]
 4923 49bc FEFFFFEB 		bl	uart_transmit
 4924 49c0 0010D8E5 		ldrb	r1, [r8]	@ zero_extendqisi2
 4925 49c4 0000D7E5 		ldrb	r0, [r7]	@ zero_extendqisi2
 4926 49c8 191081E2 		add	r1, r1, #25
 4927 49cc FF1001E2 		and	r1, r1, #255
 4928 49d0 0010C8E5 		strb	r1, [r8]
 4929 49d4 001081E0 		add	r1, r1, r0
 4930 49d8 0010C7E5 		strb	r1, [r7]
 4931 49dc C0069FE5 		ldr	r0, .L387+348
 4932 49e0 1910A0E3 		mov	r1, #25
 4933 49e4 FEFFFFEB 		bl	uart_transmit
 4934 49e8 0010D4E5 		ldrb	r1, [r4]	@ zero_extendqisi2
 4935 49ec 0000D8E5 		ldrb	r0, [r8]	@ zero_extendqisi2
 4936 49f0 00C0D7E5 		ldrb	ip, [r7]	@ zero_extendqisi2
 4937 49f4 000081E0 		add	r0, r1, r0
 4938 49f8 FF0000E2 		and	r0, r0, #255
 4939 49fc 0000C8E5 		strb	r0, [r8]
 4940 4a00 0C0080E0 		add	r0, r0, ip
 4941 4a04 0000C7E5 		strb	r0, [r7]
 4942 4a08 94069FE5 		ldr	r0, .L387+348
 4943 4a0c FEFFFFEB 		bl	uart_transmit
 4944 4a10 0010D4E5 		ldrb	r1, [r4]	@ zero_extendqisi2
 4945 4a14 811185E0 		add	r1, r5, r1, asl #3
 4946 4a18 0000D8E5 		ldrb	r0, [r8]	@ zero_extendqisi2
 4947 4a1c 6610D1E5 		ldrb	r1, [r1, #102]	@ zero_extendqisi2
 4948 4a20 00C0D7E5 		ldrb	ip, [r7]	@ zero_extendqisi2
 4949 4a24 000081E0 		add	r0, r1, r0
 4950 4a28 FF0000E2 		and	r0, r0, #255
 4951 4a2c 0000C8E5 		strb	r0, [r8]
 4952 4a30 0C0080E0 		add	r0, r0, ip
 4953 4a34 0000C7E5 		strb	r0, [r7]
 4954 4a38 64069FE5 		ldr	r0, .L387+348
 4955 4a3c FEFFFFEB 		bl	uart_transmit
 4956 4a40 0010D4E5 		ldrb	r1, [r4]	@ zero_extendqisi2
 4957 4a44 811185E0 		add	r1, r5, r1, asl #3
 4958 4a48 0000D8E5 		ldrb	r0, [r8]	@ zero_extendqisi2
 4959 4a4c 6710D1E5 		ldrb	r1, [r1, #103]	@ zero_extendqisi2
 4960 4a50 00C0D7E5 		ldrb	ip, [r7]	@ zero_extendqisi2
 4961 4a54 000081E0 		add	r0, r1, r0
 4962 4a58 FF0000E2 		and	r0, r0, #255
 4963 4a5c 0000C8E5 		strb	r0, [r8]
 4964 4a60 0C0080E0 		add	r0, r0, ip
 4965 4a64 0000C7E5 		strb	r0, [r7]
 4966 4a68 34069FE5 		ldr	r0, .L387+348
 4967 4a6c FEFFFFEB 		bl	uart_transmit
 4968 4a70 0010D4E5 		ldrb	r1, [r4]	@ zero_extendqisi2
 4969 4a74 811185E0 		add	r1, r5, r1, asl #3
 4970 4a78 0000D8E5 		ldrb	r0, [r8]	@ zero_extendqisi2
 4971 4a7c 6810D1E5 		ldrb	r1, [r1, #104]	@ zero_extendqisi2
 4972 4a80 00C0D7E5 		ldrb	ip, [r7]	@ zero_extendqisi2
 4973 4a84 000081E0 		add	r0, r1, r0
 4974 4a88 FF0000E2 		and	r0, r0, #255
 4975 4a8c 0000C8E5 		strb	r0, [r8]
 4976 4a90 0C0080E0 		add	r0, r0, ip
 4977 4a94 0000C7E5 		strb	r0, [r7]
 4978 4a98 04069FE5 		ldr	r0, .L387+348
 4979 4a9c FEFFFFEB 		bl	uart_transmit
 4980 4aa0 0010D4E5 		ldrb	r1, [r4]	@ zero_extendqisi2
 4981 4aa4 811185E0 		add	r1, r5, r1, asl #3
 4982 4aa8 0000D8E5 		ldrb	r0, [r8]	@ zero_extendqisi2
 4983 4aac 6910D1E5 		ldrb	r1, [r1, #105]	@ zero_extendqisi2
 4984 4ab0 00C0D7E5 		ldrb	ip, [r7]	@ zero_extendqisi2
 4985 4ab4 000081E0 		add	r0, r1, r0
 4986 4ab8 FF0000E2 		and	r0, r0, #255
 4987 4abc 0000C8E5 		strb	r0, [r8]
 4988 4ac0 0C0080E0 		add	r0, r0, ip
 4989 4ac4 0000C7E5 		strb	r0, [r7]
 4990 4ac8 D4059FE5 		ldr	r0, .L387+348
 4991 4acc FEFFFFEB 		bl	uart_transmit
 4992 4ad0 0010D4E5 		ldrb	r1, [r4]	@ zero_extendqisi2
 4993 4ad4 811185E0 		add	r1, r5, r1, asl #3
 4994 4ad8 0000D8E5 		ldrb	r0, [r8]	@ zero_extendqisi2
 4995 4adc 6A10D1E5 		ldrb	r1, [r1, #106]	@ zero_extendqisi2
 4996 4ae0 00C0D7E5 		ldrb	ip, [r7]	@ zero_extendqisi2
 4997 4ae4 000081E0 		add	r0, r1, r0
 4998 4ae8 FF0000E2 		and	r0, r0, #255
 4999 4aec 0000C8E5 		strb	r0, [r8]
 5000 4af0 0C0080E0 		add	r0, r0, ip
 5001 4af4 0000C7E5 		strb	r0, [r7]
 5002 4af8 A4059FE5 		ldr	r0, .L387+348
 5003 4afc FEFFFFEB 		bl	uart_transmit
 5004 4b00 0010D4E5 		ldrb	r1, [r4]	@ zero_extendqisi2
 5005 4b04 0C5085E2 		add	r5, r5, #12
 5006 4b08 0C1081E2 		add	r1, r1, #12
 5007 4b0c 8111D5E7 		ldrb	r1, [r5, r1, asl #3]	@ zero_extendqisi2
 5008 4b10 0000D8E5 		ldrb	r0, [r8]	@ zero_extendqisi2
 5009 4b14 00C0D7E5 		ldrb	ip, [r7]	@ zero_extendqisi2
 5010 4b18 000081E0 		add	r0, r1, r0
 5011 4b1c FF0000E2 		and	r0, r0, #255
 5012 4b20 0000C8E5 		strb	r0, [r8]
 5013 4b24 0C0080E0 		add	r0, r0, ip
 5014 4b28 0000C7E5 		strb	r0, [r7]
 5015 4b2c 70059FE5 		ldr	r0, .L387+348
 5016 4b30 FEFFFFEB 		bl	uart_transmit
 5017 4b34 0010D4E5 		ldrb	r1, [r4]	@ zero_extendqisi2
 5018 4b38 815185E0 		add	r5, r5, r1, asl #3
 5019 4b3c 6110D5E5 		ldrb	r1, [r5, #97]	@ zero_extendqisi2
 5020 4b40 0000D8E5 		ldrb	r0, [r8]	@ zero_extendqisi2
 5021 4b44 00C0D7E5 		ldrb	ip, [r7]	@ zero_extendqisi2
 5022 4b48 000081E0 		add	r0, r1, r0
 5023 4b4c FF0000E2 		and	r0, r0, #255
 5024 4b50 0000C8E5 		strb	r0, [r8]
 5025 4b54 0C0080E0 		add	r0, r0, ip
 5026 4b58 0000C7E5 		strb	r0, [r7]
 5027 4b5c 40059FE5 		ldr	r0, .L387+348
 5028 4b60 FEFFFFEB 		bl	uart_transmit
 5029 4b64 0010D8E5 		ldrb	r1, [r8]	@ zero_extendqisi2
 5030 4b68 34059FE5 		ldr	r0, .L387+348
 5031 4b6c FEFFFFEB 		bl	uart_transmit
 5032 4b70 2C059FE5 		ldr	r0, .L387+348
 5033 4b74 0010D7E5 		ldrb	r1, [r7]	@ zero_extendqisi2
 5034 4b78 FEFFFFEB 		bl	uart_transmit
 5035 4b7c 030000EA 		b	.L166
 5036              	.L167:
 5037 4b80 E0349FE5 		ldr	r3, .L387+288
 5038 4b84 0020D3E5 		ldrb	r2, [r3]	@ zero_extendqisi2
 5039 4b88 012082E2 		add	r2, r2, #1
 5040 4b8c 0020C3E5 		strb	r2, [r3]
 5041              	.L166:
 5042 4b90 F8339FE5 		ldr	r3, .L387+72
 5043 4b94 0020D3E5 		ldrb	r2, [r3]	@ zero_extendqisi2
 5044 4b98 012082E2 		add	r2, r2, #1
 5045 4b9c 0020C3E5 		strb	r2, [r3]
 5046              	.L161:
 5047 4ba0 0030DBE5 		ldrb	r3, [fp]	@ zero_extendqisi2
 5048 4ba4 060053E3 		cmp	r3, #6
 5049 4ba8 4201001A 		bne	.L168
 5050 4bac E0339FE5 		ldr	r3, .L387+76
 5051 4bb0 0A10A0E3 		mov	r1, #10
 5052 4bb4 000093E5 		ldr	r0, [r3]
 5053 4bb8 FEFFFFEB 		bl	__aeabi_idiv
 5054 4bbc D4339FE5 		ldr	r3, .L387+80
 5055 4bc0 B800CDE1 		strh	r0, [sp, #8]	@ movhi
 5056 4bc4 000093E5 		ldr	r0, [r3]	@ float
 5057 4bc8 FEFFFFEB 		bl	__aeabi_f2iz
 5058 4bcc 1710A0E3 		mov	r1, #23
 5059 4bd0 BC00CDE1 		strh	r0, [sp, #12]	@ movhi
 5060 4bd4 C8049FE5 		ldr	r0, .L387+348
 5061 4bd8 FEFFFFEB 		bl	uart_check_free_space
 5062 4bdc 000050E3 		cmp	r0, #0
 5063 4be0 3001000A 		beq	.L169
 5064 4be4 90349FE5 		ldr	r3, .L387+308
 5065 4be8 B020D3E1 		ldrh	r2, [r3]
 5066 4bec 172082E2 		add	r2, r2, #23
 5067 4bf0 B020C3E1 		strh	r2, [r3]	@ movhi
 5068 4bf4 84349FE5 		ldr	r3, .L387+312
 5069 4bf8 B020D3E1 		ldrh	r2, [r3]
 5070 4bfc A0049FE5 		ldr	r0, .L387+348
 5071 4c00 012082E2 		add	r2, r2, #1
 5072 4c04 9910A0E3 		mov	r1, #153
 5073 4c08 74549FE5 		ldr	r5, .L387+316
 5074 4c0c B020C3E1 		strh	r2, [r3]	@ movhi
 5075 4c10 FEFFFFEB 		bl	uart_transmit
 5076 4c14 88049FE5 		ldr	r0, .L387+348
 5077 4c18 1710A0E3 		mov	r1, #23
 5078 4c1c 64449FE5 		ldr	r4, .L387+320
 5079 4c20 FEFFFFEB 		bl	uart_transmit
 5080 4c24 1930A0E3 		mov	r3, #25
 5081 4c28 0030C5E5 		strb	r3, [r5]
 5082 4c2c 70049FE5 		ldr	r0, .L387+348
 5083 4c30 3030A0E3 		mov	r3, #48
 5084 4c34 0210A0E3 		mov	r1, #2
 5085 4c38 0030C4E5 		strb	r3, [r4]
 5086 4c3c FEFFFFEB 		bl	uart_transmit
 5087 4c40 0030D5E5 		ldrb	r3, [r5]	@ zero_extendqisi2
 5088 4c44 0020D4E5 		ldrb	r2, [r4]	@ zero_extendqisi2
 5089 4c48 0C3083E2 		add	r3, r3, #12
 5090 4c4c 48B39FE5 		ldr	fp, .L387+84
 5091 4c50 FF3003E2 		and	r3, r3, #255
 5092 4c54 0030C5E5 		strb	r3, [r5]
 5093 4c58 44049FE5 		ldr	r0, .L387+348
 5094 4c5c 023083E0 		add	r3, r3, r2
 5095 4c60 0C10A0E3 		mov	r1, #12
 5096 4c64 0030C4E5 		strb	r3, [r4]
 5097 4c68 FEFFFFEB 		bl	uart_transmit
 5098 4c6c 0010DBE5 		ldrb	r1, [fp]	@ zero_extendqisi2
 5099 4c70 0030D5E5 		ldrb	r3, [r5]	@ zero_extendqisi2
 5100 4c74 0020D4E5 		ldrb	r2, [r4]	@ zero_extendqisi2
 5101 4c78 033081E0 		add	r3, r1, r3
 5102 4c7c FF3003E2 		and	r3, r3, #255
 5103 4c80 0030C5E5 		strb	r3, [r5]
 5104 4c84 18049FE5 		ldr	r0, .L387+348
 5105 4c88 023083E0 		add	r3, r3, r2
 5106 4c8c 0030C4E5 		strb	r3, [r4]
 5107 4c90 FEFFFFEB 		bl	uart_transmit
 5108 4c94 0110DBE5 		ldrb	r1, [fp, #1]	@ zero_extendqisi2
 5109 4c98 0030D5E5 		ldrb	r3, [r5]	@ zero_extendqisi2
 5110 4c9c 0020D4E5 		ldrb	r2, [r4]	@ zero_extendqisi2
 5111 4ca0 033081E0 		add	r3, r1, r3
 5112 4ca4 F4B29FE5 		ldr	fp, .L387+88
 5113 4ca8 FF3003E2 		and	r3, r3, #255
 5114 4cac 0030C5E5 		strb	r3, [r5]
 5115 4cb0 EC039FE5 		ldr	r0, .L387+348
 5116 4cb4 023083E0 		add	r3, r3, r2
 5117 4cb8 0030C4E5 		strb	r3, [r4]
 5118 4cbc FEFFFFEB 		bl	uart_transmit
 5119 4cc0 0010DBE5 		ldrb	r1, [fp]	@ zero_extendqisi2
 5120 4cc4 0030D5E5 		ldrb	r3, [r5]	@ zero_extendqisi2
 5121 4cc8 0020D4E5 		ldrb	r2, [r4]	@ zero_extendqisi2
 5122 4ccc 033081E0 		add	r3, r1, r3
 5123 4cd0 FF3003E2 		and	r3, r3, #255
 5124 4cd4 0030C5E5 		strb	r3, [r5]
 5125 4cd8 C4039FE5 		ldr	r0, .L387+348
 5126 4cdc 023083E0 		add	r3, r3, r2
 5127 4ce0 0030C4E5 		strb	r3, [r4]
 5128 4ce4 FEFFFFEB 		bl	uart_transmit
 5129 4ce8 0110DBE5 		ldrb	r1, [fp, #1]	@ zero_extendqisi2
 5130 4cec 0030D5E5 		ldrb	r3, [r5]	@ zero_extendqisi2
 5131 4cf0 0020D4E5 		ldrb	r2, [r4]	@ zero_extendqisi2
 5132 4cf4 033081E0 		add	r3, r1, r3
 5133 4cf8 A4B29FE5 		ldr	fp, .L387+92
 5134 4cfc FF3003E2 		and	r3, r3, #255
 5135 4d00 0030C5E5 		strb	r3, [r5]
 5136 4d04 98039FE5 		ldr	r0, .L387+348
 5137 4d08 023083E0 		add	r3, r3, r2
 5138 4d0c 0030C4E5 		strb	r3, [r4]
 5139 4d10 FEFFFFEB 		bl	uart_transmit
 5140 4d14 0210DBE5 		ldrb	r1, [fp, #2]	@ zero_extendqisi2
 5141 4d18 0030D5E5 		ldrb	r3, [r5]	@ zero_extendqisi2
 5142 4d1c 0020D4E5 		ldrb	r2, [r4]	@ zero_extendqisi2
 5143 4d20 033081E0 		add	r3, r1, r3
 5144 4d24 FF3003E2 		and	r3, r3, #255
 5145 4d28 0030C5E5 		strb	r3, [r5]
 5146 4d2c 70039FE5 		ldr	r0, .L387+348
 5147 4d30 023083E0 		add	r3, r3, r2
 5148 4d34 0030C4E5 		strb	r3, [r4]
 5149 4d38 FEFFFFEB 		bl	uart_transmit
 5150 4d3c 0310DBE5 		ldrb	r1, [fp, #3]	@ zero_extendqisi2
 5151 4d40 0030D5E5 		ldrb	r3, [r5]	@ zero_extendqisi2
 5152 4d44 0020D4E5 		ldrb	r2, [r4]	@ zero_extendqisi2
 5153 4d48 033081E0 		add	r3, r1, r3
 5154 4d4c FF3003E2 		and	r3, r3, #255
 5155 4d50 0030C5E5 		strb	r3, [r5]
 5156 4d54 48039FE5 		ldr	r0, .L387+348
 5157 4d58 023083E0 		add	r3, r3, r2
 5158 4d5c 0030C4E5 		strb	r3, [r4]
 5159 4d60 FEFFFFEB 		bl	uart_transmit
 5160 4d64 0810DDE5 		ldrb	r1, [sp, #8]	@ zero_extendqisi2
 5161 4d68 0030D5E5 		ldrb	r3, [r5]	@ zero_extendqisi2
 5162 4d6c 0020D4E5 		ldrb	r2, [r4]	@ zero_extendqisi2
 5163 4d70 033081E0 		add	r3, r1, r3
 5164 4d74 FF3003E2 		and	r3, r3, #255
 5165 4d78 0030C5E5 		strb	r3, [r5]
 5166 4d7c 20039FE5 		ldr	r0, .L387+348
 5167 4d80 023083E0 		add	r3, r3, r2
 5168 4d84 0030C4E5 		strb	r3, [r4]
 5169 4d88 FEFFFFEB 		bl	uart_transmit
 5170 4d8c 0910DDE5 		ldrb	r1, [sp, #9]	@ zero_extendqisi2
 5171 4d90 0030D5E5 		ldrb	r3, [r5]	@ zero_extendqisi2
 5172 4d94 0020D4E5 		ldrb	r2, [r4]	@ zero_extendqisi2
 5173 4d98 033081E0 		add	r3, r1, r3
 5174 4d9c 90B29FE5 		ldr	fp, .L387+236
 5175 4da0 FF3003E2 		and	r3, r3, #255
 5176 4da4 0030C5E5 		strb	r3, [r5]
 5177 4da8 F4029FE5 		ldr	r0, .L387+348
 5178 4dac 023083E0 		add	r3, r3, r2
 5179 4db0 0030C4E5 		strb	r3, [r4]
 5180 4db4 FEFFFFEB 		bl	uart_transmit
 5181 4db8 0010DBE5 		ldrb	r1, [fp]	@ zero_extendqisi2
 5182 4dbc 0030D5E5 		ldrb	r3, [r5]	@ zero_extendqisi2
 5183 4dc0 0020D4E5 		ldrb	r2, [r4]	@ zero_extendqisi2
 5184 4dc4 033081E0 		add	r3, r1, r3
 5185 4dc8 FF3003E2 		and	r3, r3, #255
 5186 4dcc 0030C5E5 		strb	r3, [r5]
 5187 4dd0 CC029FE5 		ldr	r0, .L387+348
 5188 4dd4 023083E0 		add	r3, r3, r2
 5189 4dd8 0030C4E5 		strb	r3, [r4]
 5190 4ddc FEFFFFEB 		bl	uart_transmit
 5191 4de0 0110DBE5 		ldrb	r1, [fp, #1]	@ zero_extendqisi2
 5192 4de4 0030D5E5 		ldrb	r3, [r5]	@ zero_extendqisi2
 5193 4de8 0020D4E5 		ldrb	r2, [r4]	@ zero_extendqisi2
 5194 4dec 033081E0 		add	r3, r1, r3
 5195 4df0 FF3003E2 		and	r3, r3, #255
 5196 4df4 0030C5E5 		strb	r3, [r5]
 5197 4df8 A4029FE5 		ldr	r0, .L387+348
 5198 4dfc 023083E0 		add	r3, r3, r2
 5199 4e00 0030C4E5 		strb	r3, [r4]
 5200 4e04 FEFFFFEB 		bl	uart_transmit
 5201 4e08 38329FE5 		ldr	r3, .L387+256
 5202 4e0c 0010D3E5 		ldrb	r1, [r3]	@ zero_extendqisi2
 5203 4e10 0030D5E5 		ldrb	r3, [r5]	@ zero_extendqisi2
 5204 4e14 0020D4E5 		ldrb	r2, [r4]	@ zero_extendqisi2
 5205 4e18 033081E0 		add	r3, r1, r3
 5206 4e1c 84B19FE5 		ldr	fp, .L387+96
 5207 4e20 FF3003E2 		and	r3, r3, #255
 5208 4e24 0030C5E5 		strb	r3, [r5]
 5209 4e28 74029FE5 		ldr	r0, .L387+348
 5210 4e2c 023083E0 		add	r3, r3, r2
 5211 4e30 0030C4E5 		strb	r3, [r4]
 5212 4e34 FEFFFFEB 		bl	uart_transmit
 5213 4e38 0010DBE5 		ldrb	r1, [fp]	@ zero_extendqisi2
 5214 4e3c 0030D5E5 		ldrb	r3, [r5]	@ zero_extendqisi2
 5215 4e40 0020D4E5 		ldrb	r2, [r4]	@ zero_extendqisi2
 5216 4e44 033081E0 		add	r3, r1, r3
 5217 4e48 FF3003E2 		and	r3, r3, #255
 5218 4e4c 0030C5E5 		strb	r3, [r5]
 5219 4e50 4C029FE5 		ldr	r0, .L387+348
 5220 4e54 023083E0 		add	r3, r3, r2
 5221 4e58 0030C4E5 		strb	r3, [r4]
 5222 4e5c FEFFFFEB 		bl	uart_transmit
 5223 4e60 0110DBE5 		ldrb	r1, [fp, #1]	@ zero_extendqisi2
 5224 4e64 0030D5E5 		ldrb	r3, [r5]	@ zero_extendqisi2
 5225 4e68 0020D4E5 		ldrb	r2, [r4]	@ zero_extendqisi2
 5226 4e6c 033081E0 		add	r3, r1, r3
 5227 4e70 34B19FE5 		ldr	fp, .L387+100
 5228 4e74 FF3003E2 		and	r3, r3, #255
 5229 4e78 0030C5E5 		strb	r3, [r5]
 5230 4e7c 20029FE5 		ldr	r0, .L387+348
 5231 4e80 023083E0 		add	r3, r3, r2
 5232 4e84 0030C4E5 		strb	r3, [r4]
 5233 4e88 FEFFFFEB 		bl	uart_transmit
 5234 4e8c 0010DBE5 		ldrb	r1, [fp]	@ zero_extendqisi2
 5235 4e90 0030D5E5 		ldrb	r3, [r5]	@ zero_extendqisi2
 5236 4e94 0020D4E5 		ldrb	r2, [r4]	@ zero_extendqisi2
 5237 4e98 033081E0 		add	r3, r1, r3
 5238 4e9c FF3003E2 		and	r3, r3, #255
 5239 4ea0 0030C5E5 		strb	r3, [r5]
 5240 4ea4 F8019FE5 		ldr	r0, .L387+348
 5241 4ea8 023083E0 		add	r3, r3, r2
 5242 4eac 0030C4E5 		strb	r3, [r4]
 5243 4eb0 FEFFFFEB 		bl	uart_transmit
 5244 4eb4 0110DBE5 		ldrb	r1, [fp, #1]	@ zero_extendqisi2
 5245 4eb8 0030D5E5 		ldrb	r3, [r5]	@ zero_extendqisi2
 5246 4ebc 0020D4E5 		ldrb	r2, [r4]	@ zero_extendqisi2
 5247 4ec0 033081E0 		add	r3, r1, r3
 5248 4ec4 FF3003E2 		and	r3, r3, #255
 5249 4ec8 0030C5E5 		strb	r3, [r5]
 5250 4ecc D0019FE5 		ldr	r0, .L387+348
 5251 4ed0 023083E0 		add	r3, r3, r2
 5252 4ed4 0030C4E5 		strb	r3, [r4]
 5253 4ed8 FEFFFFEB 		bl	uart_transmit
 5254 4edc 0C10DDE5 		ldrb	r1, [sp, #12]	@ zero_extendqisi2
 5255 4ee0 0030D5E5 		ldrb	r3, [r5]	@ zero_extendqisi2
 5256 4ee4 0020D4E5 		ldrb	r2, [r4]	@ zero_extendqisi2
 5257 4ee8 033081E0 		add	r3, r1, r3
 5258 4eec FF3003E2 		and	r3, r3, #255
 5259 4ef0 0030C5E5 		strb	r3, [r5]
 5260 4ef4 A8019FE5 		ldr	r0, .L387+348
 5261 4ef8 023083E0 		add	r3, r3, r2
 5262 4efc 0030C4E5 		strb	r3, [r4]
 5263 4f00 FEFFFFEB 		bl	uart_transmit
 5264 4f04 0D10DDE5 		ldrb	r1, [sp, #13]	@ zero_extendqisi2
 5265 4f08 0030D5E5 		ldrb	r3, [r5]	@ zero_extendqisi2
 5266 4f0c 0020D4E5 		ldrb	r2, [r4]	@ zero_extendqisi2
 5267 4f10 033081E0 		add	r3, r1, r3
 5268 4f14 FF3003E2 		and	r3, r3, #255
 5269 4f18 0030C5E5 		strb	r3, [r5]
 5270 4f1c 80019FE5 		ldr	r0, .L387+348
 5271 4f20 023083E0 		add	r3, r3, r2
 5272 4f24 0030C4E5 		strb	r3, [r4]
 5273 4f28 FEFFFFEB 		bl	uart_transmit
 5274 4f2c 0010D5E5 		ldrb	r1, [r5]	@ zero_extendqisi2
 5275 4f30 6C019FE5 		ldr	r0, .L387+348
 5276 4f34 FEFFFFEB 		bl	uart_transmit
 5277 4f38 64019FE5 		ldr	r0, .L387+348
 5278 4f3c 0010D4E5 		ldrb	r1, [r4]	@ zero_extendqisi2
 5279 4f40 FEFFFFEB 		bl	uart_transmit
 5280 4f44 5B0000EA 		b	.L168
 5281              	.L388:
 5282              		.align	2
 5283              	.L387:
 5284 4f48 00000000 		.word	.LANCHOR25
 5285 4f4c 00000000 		.word	.LANCHOR26
 5286 4f50 00000000 		.word	.LANCHOR27
 5287 4f54 00000000 		.word	.LANCHOR28
 5288 4f58 00000000 		.word	.LANCHOR32
 5289 4f5c 00000000 		.word	.LANCHOR33
 5290 4f60 00000000 		.word	.LANCHOR34
 5291 4f64 00000000 		.word	.LANCHOR35
 5292 4f68 00000000 		.word	.LANCHOR36
 5293 4f6c 00000000 		.word	.LANCHOR37
 5294 4f70 31010000 		.word	305
 5295 4f74 00000000 		.word	.LANCHOR38
 5296 4f78 00000000 		.word	.LANCHOR39
 5297 4f7c 00000000 		.word	.LANCHOR40
 5298 4f80 5D020000 		.word	605
 5299 4f84 F8C1631A 		.word	442745336
 5300 4f88 DCA54C40 		.word	1078765020
 5301 4f8c 80842E41 		.word	1093567616
 5302 4f90 00000000 		.word	.LANCHOR41
 5303 4f94 00000000 		.word	.LANCHOR17
 5304 4f98 00000000 		.word	energy
 5305 4f9c 00000000 		.word	v_ctl_throttle_slewed
 5306 4fa0 00000000 		.word	vsupply
 5307 4fa4 00000000 		.word	electrical
 5308 4fa8 00000000 		.word	block_time
 5309 4fac 00000000 		.word	stage_time
 5310 4fb0 00000000 		.word	estimator_z
 5311 4fb4 00000000 		.word	estimator_z_dot
 5312 4fb8 00000000 		.word	nb_waypoint
 5313 4fbc 00000000 		.word	nav_utm_east0
 5314 4fc0 00000000 		.word	waypoints
 5315 4fc4 00000000 		.word	nav_utm_north0
 5316 4fc8 00000000 		.word	.LANCHOR42
 5317 4fcc 00000000 		.word	nav_utm_zone0
 5318 4fd0 00000000 		.word	.LANCHOR29
 5319 4fd4 00000000 		.word	.LANCHOR43
 5320 4fd8 00000000 		.word	telemetry_mode_Fbw
 5321 4fdc 00000000 		.word	h_ctl_pitch_pgain
 5322 4fe0 00000000 		.word	h_ctl_pitch_dgain
 5323 4fe4 00000000 		.word	h_ctl_elevator_of_roll
 5324 4fe8 00000000 		.word	h_ctl_roll_attitude_gain
 5325 4fec 00000000 		.word	h_ctl_roll_rate_gain
 5326 4ff0 00000000 		.word	h_ctl_aileron_of_throttle
 5327 4ff4 00000000 		.word	h_ctl_roll_slew
 5328 4ff8 00000000 		.word	h_ctl_course_pgain
 5329 4ffc 00000000 		.word	h_ctl_course_dgain
 5330 5000 00000000 		.word	h_ctl_course_pre_bank_correction
 5331 5004 00000000 		.word	h_ctl_roll_max_setpoint
 5332 5008 00000000 		.word	v_ctl_altitude_pgain
 5333 500c 00000000 		.word	v_ctl_auto_throttle_cruise_throttle
 5334 5010 00000000 		.word	v_ctl_auto_throttle_pgain
 5335 5014 00000000 		.word	v_ctl_auto_throttle_igain
 5336 5018 00000000 		.word	v_ctl_auto_throttle_dgain
 5337 501c 00000000 		.word	v_ctl_auto_throttle_climb_throttle_increment
 5338 5020 00000000 		.word	v_ctl_auto_throttle_pitch_of_vz_pgain
 5339 5024 00000000 		.word	v_ctl_auto_throttle_pitch_of_vz_dgain
 5340 5028 00000000 		.word	flight_altitude
 5341 502c 00000000 		.word	nav_course
 5342 5030 00000000 		.word	nav_shift
 5343 5034 00000000 		.word	estimator_flight_time
 5344 5038 00000000 		.word	nav_radius
 5345 503c 00000000 		.word	route_ap_time
 5346 5040 00000000 		.word	.LANCHOR20
 5347 5044 00000000 		.word	.LANCHOR21
 5348 5048 00000000 		.word	.LANCHOR18
 5349 504c 00000000 		.word	gps
 5350 5050 00000000 		.word	.LANCHOR30
 5351 5054 00000000 		.word	nav_survey_active
 5352 5058 00000000 		.word	nav_survey_east
 5353 505c 00000000 		.word	nav_survey_north
 5354 5060 00000000 		.word	nav_survey_west
 5355 5064 00000000 		.word	nav_survey_south
 5356 5068 00000000 		.word	downlink_nb_ovrn
 5357 506c 00000000 		.word	.LANCHOR31
 5358 5070 00000000 		.word	nav_circle_radians
 5359 5074 182D4454 		.word	1413754136
 5360 5078 FB211940 		.word	1075388923
 5361 507c 00000000 		.word	downlink_nb_bytes
 5362 5080 00000000 		.word	downlink_nb_msgs
 5363 5084 00000000 		.word	ck_a
 5364 5088 00000000 		.word	ck_b
 5365 508c 00000000 		.word	nav_block
 5366 5090 00000000 		.word	nav_stage
 5367 5094 00000000 		.word	estimator_x
 5368 5098 00000000 		.word	estimator_y
 5369 509c 00000000 		.word	dist2_to_wp
 5370 50a0 00000000 		.word	dist2_to_home
 5371 50a4 00000000 		.word	uart1
 5372              	.L169:
 5373 50a8 48301FE5 		ldr	r3, .L387+288
 5374 50ac 0020D3E5 		ldrb	r2, [r3]	@ zero_extendqisi2
 5375 50b0 012082E2 		add	r2, r2, #1
 5376 50b4 0020C3E5 		strb	r2, [r3]
 5377              	.L168:
 5378 50b8 0030DAE5 		ldrb	r3, [r10]	@ zero_extendqisi2
 5379 50bc 0C0053E3 		cmp	r3, #12
 5380 50c0 8200001A 		bne	.L171
 5381 50c4 28001FE5 		ldr	r0, .L387+348
 5382 50c8 0E10A0E3 		mov	r1, #14
 5383 50cc FEFFFFEB 		bl	uart_check_free_space
 5384 50d0 000050E3 		cmp	r0, #0
 5385 50d4 7900000A 		beq	.L172
 5386 50d8 64301FE5 		ldr	r3, .L387+308
 5387 50dc B020D3E1 		ldrh	r2, [r3]
 5388 50e0 0E2082E2 		add	r2, r2, #14
 5389 50e4 B020C3E1 		strh	r2, [r3]	@ movhi
 5390 50e8 70301FE5 		ldr	r3, .L387+312
 5391 50ec B020D3E1 		ldrh	r2, [r3]
 5392 50f0 54001FE5 		ldr	r0, .L387+348
 5393 50f4 012082E2 		add	r2, r2, #1
 5394 50f8 9910A0E3 		mov	r1, #153
 5395 50fc 80501FE5 		ldr	r5, .L387+316
 5396 5100 B020C3E1 		strh	r2, [r3]	@ movhi
 5397 5104 FEFFFFEB 		bl	uart_transmit
 5398 5108 6C001FE5 		ldr	r0, .L387+348
 5399 510c 0E10A0E3 		mov	r1, #14
 5400 5110 90401FE5 		ldr	r4, .L387+320
 5401 5114 FEFFFFEB 		bl	uart_transmit
 5402 5118 1030A0E3 		mov	r3, #16
 5403 511c 0030C5E5 		strb	r3, [r5]
 5404 5120 84001FE5 		ldr	r0, .L387+348
 5405 5124 1E30A0E3 		mov	r3, #30
 5406 5128 0210A0E3 		mov	r1, #2
 5407 512c 0030C4E5 		strb	r3, [r4]
 5408 5130 FEFFFFEB 		bl	uart_transmit
 5409 5134 0030D5E5 		ldrb	r3, [r5]	@ zero_extendqisi2
 5410 5138 0020D4E5 		ldrb	r2, [r4]	@ zero_extendqisi2
 5411 513c 2A3083E2 		add	r3, r3, #42
 5412 5140 98A11FE5 		ldr	r10, .L387+104
 5413 5144 FF3003E2 		and	r3, r3, #255
 5414 5148 0030C5E5 		strb	r3, [r5]
 5415 514c B0001FE5 		ldr	r0, .L387+348
 5416 5150 023083E0 		add	r3, r3, r2
 5417 5154 2A10A0E3 		mov	r1, #42
 5418 5158 0030C4E5 		strb	r3, [r4]
 5419 515c FEFFFFEB 		bl	uart_transmit
 5420 5160 0010DAE5 		ldrb	r1, [r10]	@ zero_extendqisi2
 5421 5164 0030D5E5 		ldrb	r3, [r5]	@ zero_extendqisi2
 5422 5168 0020D4E5 		ldrb	r2, [r4]	@ zero_extendqisi2
 5423 516c 033081E0 		add	r3, r1, r3
 5424 5170 FF3003E2 		and	r3, r3, #255
 5425 5174 0030C5E5 		strb	r3, [r5]
 5426 5178 DC001FE5 		ldr	r0, .L387+348
 5427 517c 023083E0 		add	r3, r3, r2
 5428 5180 0030C4E5 		strb	r3, [r4]
 5429 5184 FEFFFFEB 		bl	uart_transmit
 5430 5188 0110DAE5 		ldrb	r1, [r10, #1]	@ zero_extendqisi2
 5431 518c 0030D5E5 		ldrb	r3, [r5]	@ zero_extendqisi2
 5432 5190 0020D4E5 		ldrb	r2, [r4]	@ zero_extendqisi2
 5433 5194 033081E0 		add	r3, r1, r3
 5434 5198 FF3003E2 		and	r3, r3, #255
 5435 519c 0030C5E5 		strb	r3, [r5]
 5436 51a0 04011FE5 		ldr	r0, .L387+348
 5437 51a4 023083E0 		add	r3, r3, r2
 5438 51a8 0030C4E5 		strb	r3, [r4]
 5439 51ac FEFFFFEB 		bl	uart_transmit
 5440 51b0 0210DAE5 		ldrb	r1, [r10, #2]	@ zero_extendqisi2
 5441 51b4 0030D5E5 		ldrb	r3, [r5]	@ zero_extendqisi2
 5442 51b8 0020D4E5 		ldrb	r2, [r4]	@ zero_extendqisi2
 5443 51bc 033081E0 		add	r3, r1, r3
 5444 51c0 FF3003E2 		and	r3, r3, #255
 5445 51c4 0030C5E5 		strb	r3, [r5]
 5446 51c8 2C011FE5 		ldr	r0, .L387+348
 5447 51cc 023083E0 		add	r3, r3, r2
 5448 51d0 0030C4E5 		strb	r3, [r4]
 5449 51d4 FEFFFFEB 		bl	uart_transmit
 5450 51d8 0310DAE5 		ldrb	r1, [r10, #3]	@ zero_extendqisi2
 5451 51dc 0030D5E5 		ldrb	r3, [r5]	@ zero_extendqisi2
 5452 51e0 0020D4E5 		ldrb	r2, [r4]	@ zero_extendqisi2
 5453 51e4 033081E0 		add	r3, r1, r3
 5454 51e8 3CA21FE5 		ldr	r10, .L387+108
 5455 51ec FF3003E2 		and	r3, r3, #255
 5456 51f0 0030C5E5 		strb	r3, [r5]
 5457 51f4 58011FE5 		ldr	r0, .L387+348
 5458 51f8 023083E0 		add	r3, r3, r2
 5459 51fc 0030C4E5 		strb	r3, [r4]
 5460 5200 FEFFFFEB 		bl	uart_transmit
 5461 5204 0010DAE5 		ldrb	r1, [r10]	@ zero_extendqisi2
 5462 5208 0030D5E5 		ldrb	r3, [r5]	@ zero_extendqisi2
 5463 520c 0020D4E5 		ldrb	r2, [r4]	@ zero_extendqisi2
 5464 5210 033081E0 		add	r3, r1, r3
 5465 5214 FF3003E2 		and	r3, r3, #255
 5466 5218 0030C5E5 		strb	r3, [r5]
 5467 521c 80011FE5 		ldr	r0, .L387+348
 5468 5220 023083E0 		add	r3, r3, r2
 5469 5224 0030C4E5 		strb	r3, [r4]
 5470 5228 FEFFFFEB 		bl	uart_transmit
 5471 522c 0110DAE5 		ldrb	r1, [r10, #1]	@ zero_extendqisi2
 5472 5230 0030D5E5 		ldrb	r3, [r5]	@ zero_extendqisi2
 5473 5234 0020D4E5 		ldrb	r2, [r4]	@ zero_extendqisi2
 5474 5238 033081E0 		add	r3, r1, r3
 5475 523c FF3003E2 		and	r3, r3, #255
 5476 5240 0030C5E5 		strb	r3, [r5]
 5477 5244 A8011FE5 		ldr	r0, .L387+348
 5478 5248 023083E0 		add	r3, r3, r2
 5479 524c 0030C4E5 		strb	r3, [r4]
 5480 5250 FEFFFFEB 		bl	uart_transmit
 5481 5254 0210DAE5 		ldrb	r1, [r10, #2]	@ zero_extendqisi2
 5482 5258 0030D5E5 		ldrb	r3, [r5]	@ zero_extendqisi2
 5483 525c 0020D4E5 		ldrb	r2, [r4]	@ zero_extendqisi2
 5484 5260 033081E0 		add	r3, r1, r3
 5485 5264 FF3003E2 		and	r3, r3, #255
 5486 5268 0030C5E5 		strb	r3, [r5]
 5487 526c D0011FE5 		ldr	r0, .L387+348
 5488 5270 023083E0 		add	r3, r3, r2
 5489 5274 0030C4E5 		strb	r3, [r4]
 5490 5278 FEFFFFEB 		bl	uart_transmit
 5491 527c 0310DAE5 		ldrb	r1, [r10, #3]	@ zero_extendqisi2
 5492 5280 0030D5E5 		ldrb	r3, [r5]	@ zero_extendqisi2
 5493 5284 0020D4E5 		ldrb	r2, [r4]	@ zero_extendqisi2
 5494 5288 033081E0 		add	r3, r1, r3
 5495 528c FF3003E2 		and	r3, r3, #255
 5496 5290 0030C5E5 		strb	r3, [r5]
 5497 5294 F8011FE5 		ldr	r0, .L387+348
 5498 5298 023083E0 		add	r3, r3, r2
 5499 529c 0030C4E5 		strb	r3, [r4]
 5500 52a0 FEFFFFEB 		bl	uart_transmit
 5501 52a4 0010D5E5 		ldrb	r1, [r5]	@ zero_extendqisi2
 5502 52a8 0C021FE5 		ldr	r0, .L387+348
 5503 52ac FEFFFFEB 		bl	uart_transmit
 5504 52b0 14021FE5 		ldr	r0, .L387+348
 5505 52b4 0010D4E5 		ldrb	r1, [r4]	@ zero_extendqisi2
 5506 52b8 FEFFFFEB 		bl	uart_transmit
 5507 52bc 030000EA 		b	.L171
 5508              	.L172:
 5509 52c0 60321FE5 		ldr	r3, .L387+288
 5510 52c4 0020D3E5 		ldrb	r2, [r3]	@ zero_extendqisi2
 5511 52c8 012082E2 		add	r2, r2, #1
 5512 52cc 0020C3E5 		strb	r2, [r3]
 5513              	.L171:
 5514 52d0 0030D9E5 		ldrb	r3, [r9]	@ zero_extendqisi2
 5515 52d4 120053E3 		cmp	r3, #18
 5516 52d8 E100001A 		bne	.L173
 5517 52dc 1C331FE5 		ldr	r3, .L387+128
 5518 52e0 30131FE5 		ldr	r1, .L387+112
 5519 52e4 0020D3E5 		ldrb	r2, [r3]	@ zero_extendqisi2
 5520 52e8 0010D1E5 		ldrb	r1, [r1]	@ zero_extendqisi2
 5521 52ec 012082E2 		add	r2, r2, #1
 5522 52f0 FF2002E2 		and	r2, r2, #255
 5523 52f4 020051E1 		cmp	r1, r2
 5524 52f8 0020C3E5 		strb	r2, [r3]
 5525 52fc 0020A093 		movls	r2, #0
 5526 5300 0020C395 		strlsb	r2, [r3]
 5527 5304 0040D3E5 		ldrb	r4, [r3]	@ zero_extendqisi2
 5528 5308 54331FE5 		ldr	r3, .L387+116
 5529 530c 0C90A0E3 		mov	r9, #12
 5530 5310 000093E5 		ldr	r0, [r3]
 5531 5314 FEFFFFEB 		bl	__aeabi_i2f
 5532 5318 990403E0 		mul	r3, r9, r4
 5533 531c 64531FE5 		ldr	r5, .L387+120
 5534 5320 031095E7 		ldr	r1, [r5, r3]	@ float
 5535 5324 034085E0 		add	r4, r5, r3
 5536 5328 FEFFFFEB 		bl	__aeabi_fadd
 5537 532c 70331FE5 		ldr	r3, .L387+124
 5538 5330 08008DE5 		str	r0, [sp, #8]	@ float
 5539 5334 000093E5 		ldr	r0, [r3]
 5540 5338 FEFFFFEB 		bl	__aeabi_i2f
 5541 533c 041094E5 		ldr	r1, [r4, #4]	@ float
 5542 5340 FEFFFFEB 		bl	__aeabi_fadd
 5543 5344 1410A0E3 		mov	r1, #20
 5544 5348 0C008DE5 		str	r0, [sp, #12]	@ float
 5545 534c B0021FE5 		ldr	r0, .L387+348
 5546 5350 FEFFFFEB 		bl	uart_check_free_space
 5547 5354 000050E3 		cmp	r0, #0
 5548 5358 98A31FE5 		ldr	r10, .L387+128
 5549 535c BC00000A 		beq	.L175
 5550 5360 EC321FE5 		ldr	r3, .L387+308
 5551 5364 B020D3E1 		ldrh	r2, [r3]
 5552 5368 142082E2 		add	r2, r2, #20
 5553 536c B020C3E1 		strh	r2, [r3]	@ movhi
 5554 5370 F8321FE5 		ldr	r3, .L387+312
 5555 5374 B020D3E1 		ldrh	r2, [r3]
 5556 5378 DC021FE5 		ldr	r0, .L387+348
 5557 537c 012082E2 		add	r2, r2, #1
 5558 5380 9910A0E3 		mov	r1, #153
 5559 5384 08B31FE5 		ldr	fp, .L387+316
 5560 5388 B020C3E1 		strh	r2, [r3]	@ movhi
 5561 538c FEFFFFEB 		bl	uart_transmit
 5562 5390 F4021FE5 		ldr	r0, .L387+348
 5563 5394 1410A0E3 		mov	r1, #20
 5564 5398 18431FE5 		ldr	r4, .L387+320
 5565 539c FEFFFFEB 		bl	uart_transmit
 5566 53a0 1630A0E3 		mov	r3, #22
 5567 53a4 0030CBE5 		strb	r3, [fp]
 5568 53a8 0C031FE5 		ldr	r0, .L387+348
 5569 53ac 2A30A0E3 		mov	r3, #42
 5570 53b0 0210A0E3 		mov	r1, #2
 5571 53b4 0030C4E5 		strb	r3, [r4]
 5572 53b8 FEFFFFEB 		bl	uart_transmit
 5573 53bc 0030DBE5 		ldrb	r3, [fp]	@ zero_extendqisi2
 5574 53c0 0020D4E5 		ldrb	r2, [r4]	@ zero_extendqisi2
 5575 53c4 233083E2 		add	r3, r3, #35
 5576 53c8 FF3003E2 		and	r3, r3, #255
 5577 53cc 0030CBE5 		strb	r3, [fp]
 5578 53d0 34031FE5 		ldr	r0, .L387+348
 5579 53d4 023083E0 		add	r3, r3, r2
 5580 53d8 2310A0E3 		mov	r1, #35
 5581 53dc 0030C4E5 		strb	r3, [r4]
 5582 53e0 FEFFFFEB 		bl	uart_transmit
 5583 53e4 0010DAE5 		ldrb	r1, [r10]	@ zero_extendqisi2
 5584 53e8 0030DBE5 		ldrb	r3, [fp]	@ zero_extendqisi2
 5585 53ec 0020D4E5 		ldrb	r2, [r4]	@ zero_extendqisi2
 5586 53f0 033081E0 		add	r3, r1, r3
 5587 53f4 FF3003E2 		and	r3, r3, #255
 5588 53f8 0030CBE5 		strb	r3, [fp]
 5589 53fc 60031FE5 		ldr	r0, .L387+348
 5590 5400 023083E0 		add	r3, r3, r2
 5591 5404 0030C4E5 		strb	r3, [r4]
 5592 5408 FEFFFFEB 		bl	uart_transmit
 5593 540c 0810DDE5 		ldrb	r1, [sp, #8]	@ zero_extendqisi2
 5594 5410 0030DBE5 		ldrb	r3, [fp]	@ zero_extendqisi2
 5595 5414 0020D4E5 		ldrb	r2, [r4]	@ zero_extendqisi2
 5596 5418 033081E0 		add	r3, r1, r3
 5597 541c FF3003E2 		and	r3, r3, #255
 5598 5420 0030CBE5 		strb	r3, [fp]
 5599 5424 88031FE5 		ldr	r0, .L387+348
 5600 5428 023083E0 		add	r3, r3, r2
 5601 542c 0030C4E5 		strb	r3, [r4]
 5602 5430 FEFFFFEB 		bl	uart_transmit
 5603 5434 0910DDE5 		ldrb	r1, [sp, #9]	@ zero_extendqisi2
 5604 5438 0030DBE5 		ldrb	r3, [fp]	@ zero_extendqisi2
 5605 543c 0020D4E5 		ldrb	r2, [r4]	@ zero_extendqisi2
 5606 5440 033081E0 		add	r3, r1, r3
 5607 5444 FF3003E2 		and	r3, r3, #255
 5608 5448 0030CBE5 		strb	r3, [fp]
 5609 544c B0031FE5 		ldr	r0, .L387+348
 5610 5450 023083E0 		add	r3, r3, r2
 5611 5454 0030C4E5 		strb	r3, [r4]
 5612 5458 FEFFFFEB 		bl	uart_transmit
 5613 545c 0A10DDE5 		ldrb	r1, [sp, #10]	@ zero_extendqisi2
 5614 5460 0030DBE5 		ldrb	r3, [fp]	@ zero_extendqisi2
 5615 5464 0020D4E5 		ldrb	r2, [r4]	@ zero_extendqisi2
 5616 5468 033081E0 		add	r3, r1, r3
 5617 546c FF3003E2 		and	r3, r3, #255
 5618 5470 0030CBE5 		strb	r3, [fp]
 5619 5474 D8031FE5 		ldr	r0, .L387+348
 5620 5478 023083E0 		add	r3, r3, r2
 5621 547c 0030C4E5 		strb	r3, [r4]
 5622 5480 FEFFFFEB 		bl	uart_transmit
 5623 5484 0B10DDE5 		ldrb	r1, [sp, #11]	@ zero_extendqisi2
 5624 5488 0030DBE5 		ldrb	r3, [fp]	@ zero_extendqisi2
 5625 548c 0020D4E5 		ldrb	r2, [r4]	@ zero_extendqisi2
 5626 5490 033081E0 		add	r3, r1, r3
 5627 5494 FF3003E2 		and	r3, r3, #255
 5628 5498 0030CBE5 		strb	r3, [fp]
 5629 549c 00041FE5 		ldr	r0, .L387+348
 5630 54a0 023083E0 		add	r3, r3, r2
 5631 54a4 0030C4E5 		strb	r3, [r4]
 5632 54a8 FEFFFFEB 		bl	uart_transmit
 5633 54ac 0C10DDE5 		ldrb	r1, [sp, #12]	@ zero_extendqisi2
 5634 54b0 0030DBE5 		ldrb	r3, [fp]	@ zero_extendqisi2
 5635 54b4 0020D4E5 		ldrb	r2, [r4]	@ zero_extendqisi2
 5636 54b8 033081E0 		add	r3, r1, r3
 5637 54bc FF3003E2 		and	r3, r3, #255
 5638 54c0 0030CBE5 		strb	r3, [fp]
 5639 54c4 28041FE5 		ldr	r0, .L387+348
 5640 54c8 023083E0 		add	r3, r3, r2
 5641 54cc 0030C4E5 		strb	r3, [r4]
 5642 54d0 FEFFFFEB 		bl	uart_transmit
 5643 54d4 0D10DDE5 		ldrb	r1, [sp, #13]	@ zero_extendqisi2
 5644 54d8 0030DBE5 		ldrb	r3, [fp]	@ zero_extendqisi2
 5645 54dc 0020D4E5 		ldrb	r2, [r4]	@ zero_extendqisi2
 5646 54e0 033081E0 		add	r3, r1, r3
 5647 54e4 FF3003E2 		and	r3, r3, #255
 5648 54e8 0030CBE5 		strb	r3, [fp]
 5649 54ec 50041FE5 		ldr	r0, .L387+348
 5650 54f0 023083E0 		add	r3, r3, r2
 5651 54f4 0030C4E5 		strb	r3, [r4]
 5652 54f8 FEFFFFEB 		bl	uart_transmit
 5653 54fc 0E10DDE5 		ldrb	r1, [sp, #14]	@ zero_extendqisi2
 5654 5500 0030DBE5 		ldrb	r3, [fp]	@ zero_extendqisi2
 5655 5504 0020D4E5 		ldrb	r2, [r4]	@ zero_extendqisi2
 5656 5508 033081E0 		add	r3, r1, r3
 5657 550c FF3003E2 		and	r3, r3, #255
 5658 5510 0030CBE5 		strb	r3, [fp]
 5659 5514 78041FE5 		ldr	r0, .L387+348
 5660 5518 023083E0 		add	r3, r3, r2
 5661 551c 0030C4E5 		strb	r3, [r4]
 5662 5520 FEFFFFEB 		bl	uart_transmit
 5663 5524 0F10DDE5 		ldrb	r1, [sp, #15]	@ zero_extendqisi2
 5664 5528 0030DBE5 		ldrb	r3, [fp]	@ zero_extendqisi2
 5665 552c 0020D4E5 		ldrb	r2, [r4]	@ zero_extendqisi2
 5666 5530 033081E0 		add	r3, r1, r3
 5667 5534 FF3003E2 		and	r3, r3, #255
 5668 5538 0030CBE5 		strb	r3, [fp]
 5669 553c A0041FE5 		ldr	r0, .L387+348
 5670 5540 023083E0 		add	r3, r3, r2
 5671 5544 0030C4E5 		strb	r3, [r4]
 5672 5548 FEFFFFEB 		bl	uart_transmit
 5673 554c 0030DAE5 		ldrb	r3, [r10]	@ zero_extendqisi2
 5674 5550 995323E0 		mla	r3, r9, r3, r5
 5675 5554 0810D3E5 		ldrb	r1, [r3, #8]	@ zero_extendqisi2
 5676 5558 0030DBE5 		ldrb	r3, [fp]	@ zero_extendqisi2
 5677 555c 0020D4E5 		ldrb	r2, [r4]	@ zero_extendqisi2
 5678 5560 033081E0 		add	r3, r1, r3
 5679 5564 FF3003E2 		and	r3, r3, #255
 5680 5568 0030CBE5 		strb	r3, [fp]
 5681 556c D0041FE5 		ldr	r0, .L387+348
 5682 5570 023083E0 		add	r3, r3, r2
 5683 5574 0030C4E5 		strb	r3, [r4]
 5684 5578 FEFFFFEB 		bl	uart_transmit
 5685 557c 0030DAE5 		ldrb	r3, [r10]	@ zero_extendqisi2
 5686 5580 995323E0 		mla	r3, r9, r3, r5
 5687 5584 0910D3E5 		ldrb	r1, [r3, #9]	@ zero_extendqisi2
 5688 5588 0030DBE5 		ldrb	r3, [fp]	@ zero_extendqisi2
 5689 558c 0020D4E5 		ldrb	r2, [r4]	@ zero_extendqisi2
 5690 5590 033081E0 		add	r3, r1, r3
 5691 5594 FF3003E2 		and	r3, r3, #255
 5692 5598 0030CBE5 		strb	r3, [fp]
 5693 559c 00051FE5 		ldr	r0, .L387+348
 5694 55a0 023083E0 		add	r3, r3, r2
 5695 55a4 0030C4E5 		strb	r3, [r4]
 5696 55a8 FEFFFFEB 		bl	uart_transmit
 5697 55ac 0030DAE5 		ldrb	r3, [r10]	@ zero_extendqisi2
 5698 55b0 995323E0 		mla	r3, r9, r3, r5
 5699 55b4 0A10D3E5 		ldrb	r1, [r3, #10]	@ zero_extendqisi2
 5700 55b8 0030DBE5 		ldrb	r3, [fp]	@ zero_extendqisi2
 5701 55bc 0020D4E5 		ldrb	r2, [r4]	@ zero_extendqisi2
 5702 55c0 033081E0 		add	r3, r1, r3
 5703 55c4 FF3003E2 		and	r3, r3, #255
 5704 55c8 0030CBE5 		strb	r3, [fp]
 5705 55cc 30051FE5 		ldr	r0, .L387+348
 5706 55d0 023083E0 		add	r3, r3, r2
 5707 55d4 0030C4E5 		strb	r3, [r4]
 5708 55d8 FEFFFFEB 		bl	uart_transmit
 5709 55dc 0030DAE5 		ldrb	r3, [r10]	@ zero_extendqisi2
 5710 55e0 995325E0 		mla	r5, r9, r3, r5
 5711 55e4 0030DBE5 		ldrb	r3, [fp]	@ zero_extendqisi2
 5712 55e8 0B10D5E5 		ldrb	r1, [r5, #11]	@ zero_extendqisi2
 5713 55ec 0020D4E5 		ldrb	r2, [r4]	@ zero_extendqisi2
 5714 55f0 033081E0 		add	r3, r1, r3
 5715 55f4 FF3003E2 		and	r3, r3, #255
 5716 55f8 0030CBE5 		strb	r3, [fp]
 5717 55fc 60051FE5 		ldr	r0, .L387+348
 5718 5600 023083E0 		add	r3, r3, r2
 5719 5604 0030C4E5 		strb	r3, [r4]
 5720 5608 FEFFFFEB 		bl	uart_transmit
 5721 560c 48361FE5 		ldr	r3, .L387+132
 5722 5610 0010D3E5 		ldrb	r1, [r3]	@ zero_extendqisi2
 5723 5614 0030DBE5 		ldrb	r3, [fp]	@ zero_extendqisi2
 5724 5618 0020D4E5 		ldrb	r2, [r4]	@ zero_extendqisi2
 5725 561c 033081E0 		add	r3, r1, r3
 5726 5620 FF3003E2 		and	r3, r3, #255
 5727 5624 0030CBE5 		strb	r3, [fp]
 5728 5628 8C051FE5 		ldr	r0, .L387+348
 5729 562c 023083E0 		add	r3, r3, r2
 5730 5630 0030C4E5 		strb	r3, [r4]
 5731 5634 FEFFFFEB 		bl	uart_transmit
 5732 5638 0010DBE5 		ldrb	r1, [fp]	@ zero_extendqisi2
 5733 563c A0051FE5 		ldr	r0, .L387+348
 5734 5640 FEFFFFEB 		bl	uart_transmit
 5735 5644 A8051FE5 		ldr	r0, .L387+348
 5736 5648 0010D4E5 		ldrb	r1, [r4]	@ zero_extendqisi2
 5737 564c FEFFFFEB 		bl	uart_transmit
 5738 5650 030000EA 		b	.L173
 5739              	.L175:
 5740 5654 F4351FE5 		ldr	r3, .L387+288
 5741 5658 0020D3E5 		ldrb	r2, [r3]	@ zero_extendqisi2
 5742 565c 012082E2 		add	r2, r2, #1
 5743 5660 0020C3E5 		strb	r2, [r3]
 5744              	.L173:
 5745 5664 9C261FE5 		ldr	r2, .L387+136
 5746 5668 0030D2E5 		ldrb	r3, [r2]	@ zero_extendqisi2
 5747 566c 180053E3 		cmp	r3, #24
 5748 5670 D300001A 		bne	.L177
 5749 5674 A8861FE5 		ldr	r8, .L387+140
 5750 5678 0030D8E5 		ldrb	r3, [r8]	@ zero_extendqisi2
 5751 567c 1E0053E3 		cmp	r3, #30
 5752 5680 0030A083 		movhi	r3, #0
 5753 5684 0030C885 		strhib	r3, [r8]
 5754 5688 0030D8E5 		ldrb	r3, [r8]	@ zero_extendqisi2
 5755 568c 1E0053E3 		cmp	r3, #30
 5756 5690 03F19F97 		ldrls	pc, [pc, r3, asl #2]
 5757 5694 620000EA 		b	.L179
 5758              	.L181:
 5759 5698 14570000 		.word	.L180
 5760 569c 1C570000 		.word	.L182
 5761 56a0 30570000 		.word	.L183
 5762 56a4 38570000 		.word	.L184
 5763 56a8 40570000 		.word	.L185
 5764 56ac 48570000 		.word	.L186
 5765 56b0 50570000 		.word	.L187
 5766 56b4 58570000 		.word	.L188
 5767 56b8 60570000 		.word	.L189
 5768 56bc 68570000 		.word	.L190
 5769 56c0 70570000 		.word	.L191
 5770 56c4 78570000 		.word	.L192
 5771 56c8 80570000 		.word	.L193
 5772 56cc 88570000 		.word	.L194
 5773 56d0 90570000 		.word	.L195
 5774 56d4 98570000 		.word	.L196
 5775 56d8 A0570000 		.word	.L197
 5776 56dc A8570000 		.word	.L198
 5777 56e0 B0570000 		.word	.L199
 5778 56e4 B8570000 		.word	.L200
 5779 56e8 C0570000 		.word	.L201
 5780 56ec C8570000 		.word	.L202
 5781 56f0 D0570000 		.word	.L203
 5782 56f4 D8570000 		.word	.L204
 5783 56f8 E0570000 		.word	.L205
 5784 56fc EC570000 		.word	.L206
 5785 5700 F8570000 		.word	.L207
 5786 5704 00580000 		.word	.L208
 5787 5708 08580000 		.word	.L209
 5788 570c 10580000 		.word	.L210
 5789 5710 18580000 		.word	.L211
 5790              	.L180:
 5791 5714 0000D6E5 		ldrb	r0, [r6]	@ zero_extendqisi2
 5792 5718 010000EA 		b	.L367
 5793              	.L182:
 5794 571c 4C371FE5 		ldr	r3, .L387+144
 5795              	.L368:
 5796 5720 0000D3E5 		ldrb	r0, [r3]	@ zero_extendqisi2
 5797              	.L367:
 5798 5724 FEFFFFEB 		bl	__aeabi_ui2f
 5799 5728 0C008DE5 		str	r0, [sp, #12]	@ float
 5800 572c 3E0000EA 		b	.L212
 5801              	.L183:
 5802 5730 5C371FE5 		ldr	r3, .L387+148
 5803 5734 2D0000EA 		b	.L381
 5804              	.L184:
 5805 5738 60371FE5 		ldr	r3, .L387+152
 5806 573c 2B0000EA 		b	.L381
 5807              	.L185:
 5808 5740 64371FE5 		ldr	r3, .L387+156
 5809 5744 290000EA 		b	.L381
 5810              	.L186:
 5811 5748 68371FE5 		ldr	r3, .L387+160
 5812 574c 270000EA 		b	.L381
 5813              	.L187:
 5814 5750 6C371FE5 		ldr	r3, .L387+164
 5815 5754 250000EA 		b	.L381
 5816              	.L188:
 5817 5758 70371FE5 		ldr	r3, .L387+168
 5818 575c 230000EA 		b	.L381
 5819              	.L189:
 5820 5760 74371FE5 		ldr	r3, .L387+172
 5821 5764 210000EA 		b	.L381
 5822              	.L190:
 5823 5768 78371FE5 		ldr	r3, .L387+176
 5824 576c 1F0000EA 		b	.L381
 5825              	.L191:
 5826 5770 7C371FE5 		ldr	r3, .L387+180
 5827 5774 1D0000EA 		b	.L381
 5828              	.L192:
 5829 5778 80371FE5 		ldr	r3, .L387+184
 5830 577c 1B0000EA 		b	.L381
 5831              	.L193:
 5832 5780 84371FE5 		ldr	r3, .L387+188
 5833 5784 190000EA 		b	.L381
 5834              	.L194:
 5835 5788 88371FE5 		ldr	r3, .L387+192
 5836 578c 170000EA 		b	.L381
 5837              	.L195:
 5838 5790 8C371FE5 		ldr	r3, .L387+196
 5839 5794 150000EA 		b	.L381
 5840              	.L196:
 5841 5798 90371FE5 		ldr	r3, .L387+200
 5842 579c 130000EA 		b	.L381
 5843              	.L197:
 5844 57a0 94371FE5 		ldr	r3, .L387+204
 5845 57a4 110000EA 		b	.L381
 5846              	.L198:
 5847 57a8 98371FE5 		ldr	r3, .L387+208
 5848 57ac 0F0000EA 		b	.L381
 5849              	.L199:
 5850 57b0 9C371FE5 		ldr	r3, .L387+212
 5851 57b4 0D0000EA 		b	.L381
 5852              	.L200:
 5853 57b8 A0371FE5 		ldr	r3, .L387+216
 5854 57bc 0B0000EA 		b	.L381
 5855              	.L201:
 5856 57c0 A4371FE5 		ldr	r3, .L387+220
 5857 57c4 090000EA 		b	.L381
 5858              	.L202:
 5859 57c8 A8371FE5 		ldr	r3, .L387+224
 5860 57cc 070000EA 		b	.L381
 5861              	.L203:
 5862 57d0 AC371FE5 		ldr	r3, .L387+228
 5863 57d4 050000EA 		b	.L381
 5864              	.L204:
 5865 57d8 B0371FE5 		ldr	r3, .L387+232
 5866 57dc 030000EA 		b	.L381
 5867              	.L205:
 5868 57e0 B4371FE5 		ldr	r3, .L387+236
 5869 57e4 B000D3E1 		ldrh	r0, [r3]
 5870 57e8 CDFFFFEA 		b	.L367
 5871              	.L206:
 5872 57ec BC371FE5 		ldr	r3, .L387+240
 5873              	.L381:
 5874 57f0 003093E5 		ldr	r3, [r3]	@ float
 5875 57f4 0B0000EA 		b	.L369
 5876              	.L207:
 5877 57f8 C4371FE5 		ldr	r3, .L387+244
 5878 57fc C7FFFFEA 		b	.L368
 5879              	.L208:
 5880 5800 C8371FE5 		ldr	r3, .L387+248
 5881 5804 C5FFFFEA 		b	.L368
 5882              	.L209:
 5883 5808 CC371FE5 		ldr	r3, .L387+252
 5884 580c C3FFFFEA 		b	.L368
 5885              	.L210:
 5886 5810 D0371FE5 		ldr	r3, .L387+256
 5887 5814 C1FFFFEA 		b	.L368
 5888              	.L211:
 5889 5818 D4371FE5 		ldr	r3, .L387+260
 5890 581c B00FD3E1 		ldrh	r0, [r3, #240]
 5891 5820 BFFFFFEA 		b	.L367
 5892              	.L179:
 5893 5824 0030A0E3 		mov	r3, #0
 5894              	.L369:
 5895 5828 0C308DE5 		str	r3, [sp, #12]	@ float
 5896              	.L212:
 5897 582c 90071FE5 		ldr	r0, .L387+348
 5898 5830 0B10A0E3 		mov	r1, #11
 5899 5834 FEFFFFEB 		bl	uart_check_free_space
 5900 5838 000050E3 		cmp	r0, #0
 5901 583c 5900000A 		beq	.L213
 5902 5840 CC371FE5 		ldr	r3, .L387+308
 5903 5844 B020D3E1 		ldrh	r2, [r3]
 5904 5848 0B2082E2 		add	r2, r2, #11
 5905 584c B020C3E1 		strh	r2, [r3]	@ movhi
 5906 5850 D8371FE5 		ldr	r3, .L387+312
 5907 5854 B020D3E1 		ldrh	r2, [r3]
 5908 5858 BC071FE5 		ldr	r0, .L387+348
 5909 585c 012082E2 		add	r2, r2, #1
 5910 5860 9910A0E3 		mov	r1, #153
 5911 5864 E8571FE5 		ldr	r5, .L387+316
 5912 5868 B020C3E1 		strh	r2, [r3]	@ movhi
 5913 586c FEFFFFEB 		bl	uart_transmit
 5914 5870 D4071FE5 		ldr	r0, .L387+348
 5915 5874 0B10A0E3 		mov	r1, #11
 5916 5878 F8471FE5 		ldr	r4, .L387+320
 5917 587c FEFFFFEB 		bl	uart_transmit
 5918 5880 0D30A0E3 		mov	r3, #13
 5919 5884 0030C5E5 		strb	r3, [r5]
 5920 5888 EC071FE5 		ldr	r0, .L387+348
 5921 588c 1830A0E3 		mov	r3, #24
 5922 5890 0210A0E3 		mov	r1, #2
 5923 5894 0030C4E5 		strb	r3, [r4]
 5924 5898 FEFFFFEB 		bl	uart_transmit
 5925 589c 0030D5E5 		ldrb	r3, [r5]	@ zero_extendqisi2
 5926 58a0 0020D4E5 		ldrb	r2, [r4]	@ zero_extendqisi2
 5927 58a4 1F3083E2 		add	r3, r3, #31
 5928 58a8 FF3003E2 		and	r3, r3, #255
 5929 58ac 0030C5E5 		strb	r3, [r5]
 5930 58b0 14081FE5 		ldr	r0, .L387+348
 5931 58b4 023083E0 		add	r3, r3, r2
 5932 58b8 1F10A0E3 		mov	r1, #31
 5933 58bc 0030C4E5 		strb	r3, [r4]
 5934 58c0 FEFFFFEB 		bl	uart_transmit
 5935 58c4 0010D8E5 		ldrb	r1, [r8]	@ zero_extendqisi2
 5936 58c8 0030D5E5 		ldrb	r3, [r5]	@ zero_extendqisi2
 5937 58cc 0020D4E5 		ldrb	r2, [r4]	@ zero_extendqisi2
 5938 58d0 033081E0 		add	r3, r1, r3
 5939 58d4 FF3003E2 		and	r3, r3, #255
 5940 58d8 0030C5E5 		strb	r3, [r5]
 5941 58dc 40081FE5 		ldr	r0, .L387+348
 5942 58e0 023083E0 		add	r3, r3, r2
 5943 58e4 0030C4E5 		strb	r3, [r4]
 5944 58e8 FEFFFFEB 		bl	uart_transmit
 5945 58ec 0C10DDE5 		ldrb	r1, [sp, #12]	@ zero_extendqisi2
 5946 58f0 0030D5E5 		ldrb	r3, [r5]	@ zero_extendqisi2
 5947 58f4 0020D4E5 		ldrb	r2, [r4]	@ zero_extendqisi2
 5948 58f8 033081E0 		add	r3, r1, r3
 5949 58fc FF3003E2 		and	r3, r3, #255
 5950 5900 0030C5E5 		strb	r3, [r5]
 5951 5904 68081FE5 		ldr	r0, .L387+348
 5952 5908 023083E0 		add	r3, r3, r2
 5953 590c 0030C4E5 		strb	r3, [r4]
 5954 5910 FEFFFFEB 		bl	uart_transmit
 5955 5914 0D10DDE5 		ldrb	r1, [sp, #13]	@ zero_extendqisi2
 5956 5918 0030D5E5 		ldrb	r3, [r5]	@ zero_extendqisi2
 5957 591c 0020D4E5 		ldrb	r2, [r4]	@ zero_extendqisi2
 5958 5920 033081E0 		add	r3, r1, r3
 5959 5924 FF3003E2 		and	r3, r3, #255
 5960 5928 0030C5E5 		strb	r3, [r5]
 5961 592c 90081FE5 		ldr	r0, .L387+348
 5962 5930 023083E0 		add	r3, r3, r2
 5963 5934 0030C4E5 		strb	r3, [r4]
 5964 5938 FEFFFFEB 		bl	uart_transmit
 5965 593c 0E10DDE5 		ldrb	r1, [sp, #14]	@ zero_extendqisi2
 5966 5940 0030D5E5 		ldrb	r3, [r5]	@ zero_extendqisi2
 5967 5944 0020D4E5 		ldrb	r2, [r4]	@ zero_extendqisi2
 5968 5948 033081E0 		add	r3, r1, r3
 5969 594c FF3003E2 		and	r3, r3, #255
 5970 5950 0030C5E5 		strb	r3, [r5]
 5971 5954 B8081FE5 		ldr	r0, .L387+348
 5972 5958 023083E0 		add	r3, r3, r2
 5973 595c 0030C4E5 		strb	r3, [r4]
 5974 5960 FEFFFFEB 		bl	uart_transmit
 5975 5964 0F10DDE5 		ldrb	r1, [sp, #15]	@ zero_extendqisi2
 5976 5968 0030D5E5 		ldrb	r3, [r5]	@ zero_extendqisi2
 5977 596c 0020D4E5 		ldrb	r2, [r4]	@ zero_extendqisi2
 5978 5970 033081E0 		add	r3, r1, r3
 5979 5974 FF3003E2 		and	r3, r3, #255
 5980 5978 0030C5E5 		strb	r3, [r5]
 5981 597c E0081FE5 		ldr	r0, .L387+348
 5982 5980 023083E0 		add	r3, r3, r2
 5983 5984 0030C4E5 		strb	r3, [r4]
 5984 5988 FEFFFFEB 		bl	uart_transmit
 5985 598c 0010D5E5 		ldrb	r1, [r5]	@ zero_extendqisi2
 5986 5990 F4081FE5 		ldr	r0, .L387+348
 5987 5994 FEFFFFEB 		bl	uart_transmit
 5988 5998 FC081FE5 		ldr	r0, .L387+348
 5989 599c 0010D4E5 		ldrb	r1, [r4]	@ zero_extendqisi2
 5990 59a0 FEFFFFEB 		bl	uart_transmit
 5991 59a4 030000EA 		b	.L214
 5992              	.L213:
 5993 59a8 48391FE5 		ldr	r3, .L387+288
 5994 59ac 0020D3E5 		ldrb	r2, [r3]	@ zero_extendqisi2
 5995 59b0 012082E2 		add	r2, r2, #1
 5996 59b4 0020C3E5 		strb	r2, [r3]
 5997              	.L214:
 5998 59b8 0030D8E5 		ldrb	r3, [r8]	@ zero_extendqisi2
 5999 59bc 013083E2 		add	r3, r3, #1
 6000 59c0 0030C8E5 		strb	r3, [r8]
 6001              	.L177:
 6002 59c4 7C191FE5 		ldr	r1, .L387+264
 6003 59c8 0030D1E5 		ldrb	r3, [r1]	@ zero_extendqisi2
 6004 59cc 1E0053E3 		cmp	r3, #30
 6005 59d0 D800001A 		bne	.L215
 6006 59d4 88391FE5 		ldr	r3, .L387+268
 6007 59d8 0030D3E5 		ldrb	r3, [r3]	@ zero_extendqisi2
 6008 59dc 000053E3 		cmp	r3, #0
 6009 59e0 D400000A 		beq	.L215
 6010 59e4 48091FE5 		ldr	r0, .L387+348
 6011 59e8 1610A0E3 		mov	r1, #22
 6012 59ec FEFFFFEB 		bl	uart_check_free_space
 6013 59f0 000050E3 		cmp	r0, #0
 6014 59f4 CB00000A 		beq	.L216
 6015 59f8 84391FE5 		ldr	r3, .L387+308
 6016 59fc B020D3E1 		ldrh	r2, [r3]
 6017 5a00 162082E2 		add	r2, r2, #22
 6018 5a04 B020C3E1 		strh	r2, [r3]	@ movhi
 6019 5a08 90391FE5 		ldr	r3, .L387+312
 6020 5a0c B020D3E1 		ldrh	r2, [r3]
 6021 5a10 74091FE5 		ldr	r0, .L387+348
 6022 5a14 012082E2 		add	r2, r2, #1
 6023 5a18 9910A0E3 		mov	r1, #153
 6024 5a1c A0591FE5 		ldr	r5, .L387+316
 6025 5a20 B020C3E1 		strh	r2, [r3]	@ movhi
 6026 5a24 FEFFFFEB 		bl	uart_transmit
 6027 5a28 8C091FE5 		ldr	r0, .L387+348
 6028 5a2c 1610A0E3 		mov	r1, #22
 6029 5a30 B0491FE5 		ldr	r4, .L387+320
 6030 5a34 FEFFFFEB 		bl	uart_transmit
 6031 5a38 1830A0E3 		mov	r3, #24
 6032 5a3c 0030C5E5 		strb	r3, [r5]
 6033 5a40 A4091FE5 		ldr	r0, .L387+348
 6034 5a44 2E30A0E3 		mov	r3, #46
 6035 5a48 0210A0E3 		mov	r1, #2
 6036 5a4c 0030C4E5 		strb	r3, [r4]
 6037 5a50 FEFFFFEB 		bl	uart_transmit
 6038 5a54 0030D5E5 		ldrb	r3, [r5]	@ zero_extendqisi2
 6039 5a58 0020D4E5 		ldrb	r2, [r4]	@ zero_extendqisi2
 6040 5a5c 1B3083E2 		add	r3, r3, #27
 6041 5a60 107A1FE5 		ldr	r7, .L387+272
 6042 5a64 FF3003E2 		and	r3, r3, #255
 6043 5a68 0030C5E5 		strb	r3, [r5]
 6044 5a6c D0091FE5 		ldr	r0, .L387+348
 6045 5a70 023083E0 		add	r3, r3, r2
 6046 5a74 1B10A0E3 		mov	r1, #27
 6047 5a78 0030C4E5 		strb	r3, [r4]
 6048 5a7c FEFFFFEB 		bl	uart_transmit
 6049 5a80 0010D7E5 		ldrb	r1, [r7]	@ zero_extendqisi2
 6050 5a84 0030D5E5 		ldrb	r3, [r5]	@ zero_extendqisi2
 6051 5a88 0020D4E5 		ldrb	r2, [r4]	@ zero_extendqisi2
 6052 5a8c 033081E0 		add	r3, r1, r3
 6053 5a90 FF3003E2 		and	r3, r3, #255
 6054 5a94 0030C5E5 		strb	r3, [r5]
 6055 5a98 FC091FE5 		ldr	r0, .L387+348
 6056 5a9c 023083E0 		add	r3, r3, r2
 6057 5aa0 0030C4E5 		strb	r3, [r4]
 6058 5aa4 FEFFFFEB 		bl	uart_transmit
 6059 5aa8 0110D7E5 		ldrb	r1, [r7, #1]	@ zero_extendqisi2
 6060 5aac 0030D5E5 		ldrb	r3, [r5]	@ zero_extendqisi2
 6061 5ab0 0020D4E5 		ldrb	r2, [r4]	@ zero_extendqisi2
 6062 5ab4 033081E0 		add	r3, r1, r3
 6063 5ab8 FF3003E2 		and	r3, r3, #255
 6064 5abc 0030C5E5 		strb	r3, [r5]
 6065 5ac0 240A1FE5 		ldr	r0, .L387+348
 6066 5ac4 023083E0 		add	r3, r3, r2
 6067 5ac8 0030C4E5 		strb	r3, [r4]
 6068 5acc FEFFFFEB 		bl	uart_transmit
 6069 5ad0 0210D7E5 		ldrb	r1, [r7, #2]	@ zero_extendqisi2
 6070 5ad4 0030D5E5 		ldrb	r3, [r5]	@ zero_extendqisi2
 6071 5ad8 0020D4E5 		ldrb	r2, [r4]	@ zero_extendqisi2
 6072 5adc 033081E0 		add	r3, r1, r3
 6073 5ae0 FF3003E2 		and	r3, r3, #255
 6074 5ae4 0030C5E5 		strb	r3, [r5]
 6075 5ae8 4C0A1FE5 		ldr	r0, .L387+348
 6076 5aec 023083E0 		add	r3, r3, r2
 6077 5af0 0030C4E5 		strb	r3, [r4]
 6078 5af4 FEFFFFEB 		bl	uart_transmit
 6079 5af8 0310D7E5 		ldrb	r1, [r7, #3]	@ zero_extendqisi2
 6080 5afc 0030D5E5 		ldrb	r3, [r5]	@ zero_extendqisi2
 6081 5b00 0020D4E5 		ldrb	r2, [r4]	@ zero_extendqisi2
 6082 5b04 033081E0 		add	r3, r1, r3
 6083 5b08 B47A1FE5 		ldr	r7, .L387+276
 6084 5b0c FF3003E2 		and	r3, r3, #255
 6085 5b10 0030C5E5 		strb	r3, [r5]
 6086 5b14 780A1FE5 		ldr	r0, .L387+348
 6087 5b18 023083E0 		add	r3, r3, r2
 6088 5b1c 0030C4E5 		strb	r3, [r4]
 6089 5b20 FEFFFFEB 		bl	uart_transmit
 6090 5b24 0010D7E5 		ldrb	r1, [r7]	@ zero_extendqisi2
 6091 5b28 0030D5E5 		ldrb	r3, [r5]	@ zero_extendqisi2
 6092 5b2c 0020D4E5 		ldrb	r2, [r4]	@ zero_extendqisi2
 6093 5b30 033081E0 		add	r3, r1, r3
 6094 5b34 FF3003E2 		and	r3, r3, #255
 6095 5b38 0030C5E5 		strb	r3, [r5]
 6096 5b3c A00A1FE5 		ldr	r0, .L387+348
 6097 5b40 023083E0 		add	r3, r3, r2
 6098 5b44 0030C4E5 		strb	r3, [r4]
 6099 5b48 FEFFFFEB 		bl	uart_transmit
 6100 5b4c 0110D7E5 		ldrb	r1, [r7, #1]	@ zero_extendqisi2
 6101 5b50 0030D5E5 		ldrb	r3, [r5]	@ zero_extendqisi2
 6102 5b54 0020D4E5 		ldrb	r2, [r4]	@ zero_extendqisi2
 6103 5b58 033081E0 		add	r3, r1, r3
 6104 5b5c FF3003E2 		and	r3, r3, #255
 6105 5b60 0030C5E5 		strb	r3, [r5]
 6106 5b64 C80A1FE5 		ldr	r0, .L387+348
 6107 5b68 023083E0 		add	r3, r3, r2
 6108 5b6c 0030C4E5 		strb	r3, [r4]
 6109 5b70 FEFFFFEB 		bl	uart_transmit
 6110 5b74 0210D7E5 		ldrb	r1, [r7, #2]	@ zero_extendqisi2
 6111 5b78 0030D5E5 		ldrb	r3, [r5]	@ zero_extendqisi2
 6112 5b7c 0020D4E5 		ldrb	r2, [r4]	@ zero_extendqisi2
 6113 5b80 033081E0 		add	r3, r1, r3
 6114 5b84 FF3003E2 		and	r3, r3, #255
 6115 5b88 0030C5E5 		strb	r3, [r5]
 6116 5b8c F00A1FE5 		ldr	r0, .L387+348
 6117 5b90 023083E0 		add	r3, r3, r2
 6118 5b94 0030C4E5 		strb	r3, [r4]
 6119 5b98 FEFFFFEB 		bl	uart_transmit
 6120 5b9c 0310D7E5 		ldrb	r1, [r7, #3]	@ zero_extendqisi2
 6121 5ba0 0030D5E5 		ldrb	r3, [r5]	@ zero_extendqisi2
 6122 5ba4 0020D4E5 		ldrb	r2, [r4]	@ zero_extendqisi2
 6123 5ba8 033081E0 		add	r3, r1, r3
 6124 5bac 547B1FE5 		ldr	r7, .L387+280
 6125 5bb0 FF3003E2 		and	r3, r3, #255
 6126 5bb4 0030C5E5 		strb	r3, [r5]
 6127 5bb8 1C0B1FE5 		ldr	r0, .L387+348
 6128 5bbc 023083E0 		add	r3, r3, r2
 6129 5bc0 0030C4E5 		strb	r3, [r4]
 6130 5bc4 FEFFFFEB 		bl	uart_transmit
 6131 5bc8 0010D7E5 		ldrb	r1, [r7]	@ zero_extendqisi2
 6132 5bcc 0030D5E5 		ldrb	r3, [r5]	@ zero_extendqisi2
 6133 5bd0 0020D4E5 		ldrb	r2, [r4]	@ zero_extendqisi2
 6134 5bd4 033081E0 		add	r3, r1, r3
 6135 5bd8 FF3003E2 		and	r3, r3, #255
 6136 5bdc 0030C5E5 		strb	r3, [r5]
 6137 5be0 440B1FE5 		ldr	r0, .L387+348
 6138 5be4 023083E0 		add	r3, r3, r2
 6139 5be8 0030C4E5 		strb	r3, [r4]
 6140 5bec FEFFFFEB 		bl	uart_transmit
 6141 5bf0 0110D7E5 		ldrb	r1, [r7, #1]	@ zero_extendqisi2
 6142 5bf4 0030D5E5 		ldrb	r3, [r5]	@ zero_extendqisi2
 6143 5bf8 0020D4E5 		ldrb	r2, [r4]	@ zero_extendqisi2
 6144 5bfc 033081E0 		add	r3, r1, r3
 6145 5c00 FF3003E2 		and	r3, r3, #255
 6146 5c04 0030C5E5 		strb	r3, [r5]
 6147 5c08 6C0B1FE5 		ldr	r0, .L387+348
 6148 5c0c 023083E0 		add	r3, r3, r2
 6149 5c10 0030C4E5 		strb	r3, [r4]
 6150 5c14 FEFFFFEB 		bl	uart_transmit
 6151 5c18 0210D7E5 		ldrb	r1, [r7, #2]	@ zero_extendqisi2
 6152 5c1c 0030D5E5 		ldrb	r3, [r5]	@ zero_extendqisi2
 6153 5c20 0020D4E5 		ldrb	r2, [r4]	@ zero_extendqisi2
 6154 5c24 033081E0 		add	r3, r1, r3
 6155 5c28 FF3003E2 		and	r3, r3, #255
 6156 5c2c 0030C5E5 		strb	r3, [r5]
 6157 5c30 940B1FE5 		ldr	r0, .L387+348
 6158 5c34 023083E0 		add	r3, r3, r2
 6159 5c38 0030C4E5 		strb	r3, [r4]
 6160 5c3c FEFFFFEB 		bl	uart_transmit
 6161 5c40 0310D7E5 		ldrb	r1, [r7, #3]	@ zero_extendqisi2
 6162 5c44 0030D5E5 		ldrb	r3, [r5]	@ zero_extendqisi2
 6163 5c48 0020D4E5 		ldrb	r2, [r4]	@ zero_extendqisi2
 6164 5c4c 033081E0 		add	r3, r1, r3
 6165 5c50 F47B1FE5 		ldr	r7, .L387+284
 6166 5c54 FF3003E2 		and	r3, r3, #255
 6167 5c58 0030C5E5 		strb	r3, [r5]
 6168 5c5c C00B1FE5 		ldr	r0, .L387+348
 6169 5c60 023083E0 		add	r3, r3, r2
 6170 5c64 0030C4E5 		strb	r3, [r4]
 6171 5c68 FEFFFFEB 		bl	uart_transmit
 6172 5c6c 0010D7E5 		ldrb	r1, [r7]	@ zero_extendqisi2
 6173 5c70 0030D5E5 		ldrb	r3, [r5]	@ zero_extendqisi2
 6174 5c74 0020D4E5 		ldrb	r2, [r4]	@ zero_extendqisi2
 6175 5c78 033081E0 		add	r3, r1, r3
 6176 5c7c FF3003E2 		and	r3, r3, #255
 6177 5c80 0030C5E5 		strb	r3, [r5]
 6178 5c84 E80B1FE5 		ldr	r0, .L387+348
 6179 5c88 023083E0 		add	r3, r3, r2
 6180 5c8c 0030C4E5 		strb	r3, [r4]
 6181 5c90 FEFFFFEB 		bl	uart_transmit
 6182 5c94 0110D7E5 		ldrb	r1, [r7, #1]	@ zero_extendqisi2
 6183 5c98 0030D5E5 		ldrb	r3, [r5]	@ zero_extendqisi2
 6184 5c9c 0020D4E5 		ldrb	r2, [r4]	@ zero_extendqisi2
 6185 5ca0 033081E0 		add	r3, r1, r3
 6186 5ca4 FF3003E2 		and	r3, r3, #255
 6187 5ca8 0030C5E5 		strb	r3, [r5]
 6188 5cac 100C1FE5 		ldr	r0, .L387+348
 6189 5cb0 023083E0 		add	r3, r3, r2
 6190 5cb4 0030C4E5 		strb	r3, [r4]
 6191 5cb8 FEFFFFEB 		bl	uart_transmit
 6192 5cbc 0210D7E5 		ldrb	r1, [r7, #2]	@ zero_extendqisi2
 6193 5cc0 0030D5E5 		ldrb	r3, [r5]	@ zero_extendqisi2
 6194 5cc4 0020D4E5 		ldrb	r2, [r4]	@ zero_extendqisi2
 6195 5cc8 033081E0 		add	r3, r1, r3
 6196 5ccc FF3003E2 		and	r3, r3, #255
 6197 5cd0 0030C5E5 		strb	r3, [r5]
 6198 5cd4 380C1FE5 		ldr	r0, .L387+348
 6199 5cd8 023083E0 		add	r3, r3, r2
 6200 5cdc 0030C4E5 		strb	r3, [r4]
 6201 5ce0 FEFFFFEB 		bl	uart_transmit
 6202 5ce4 0310D7E5 		ldrb	r1, [r7, #3]	@ zero_extendqisi2
 6203 5ce8 0030D5E5 		ldrb	r3, [r5]	@ zero_extendqisi2
 6204 5cec 0020D4E5 		ldrb	r2, [r4]	@ zero_extendqisi2
 6205 5cf0 033081E0 		add	r3, r1, r3
 6206 5cf4 FF3003E2 		and	r3, r3, #255
 6207 5cf8 0030C5E5 		strb	r3, [r5]
 6208 5cfc 600C1FE5 		ldr	r0, .L387+348
 6209 5d00 023083E0 		add	r3, r3, r2
 6210 5d04 0030C4E5 		strb	r3, [r4]
 6211 5d08 FEFFFFEB 		bl	uart_transmit
 6212 5d0c 0010D5E5 		ldrb	r1, [r5]	@ zero_extendqisi2
 6213 5d10 740C1FE5 		ldr	r0, .L387+348
 6214 5d14 FEFFFFEB 		bl	uart_transmit
 6215 5d18 7C0C1FE5 		ldr	r0, .L387+348
 6216 5d1c 0010D4E5 		ldrb	r1, [r4]	@ zero_extendqisi2
 6217 5d20 FEFFFFEB 		bl	uart_transmit
 6218 5d24 030000EA 		b	.L215
 6219              	.L216:
 6220 5d28 C83C1FE5 		ldr	r3, .L387+288
 6221 5d2c 0020D3E5 		ldrb	r2, [r3]	@ zero_extendqisi2
 6222 5d30 012082E2 		add	r2, r2, #1
 6223 5d34 0020C3E5 		strb	r2, [r3]
 6224              	.L215:
 6225 5d38 D42C1FE5 		ldr	r2, .L387+292
 6226 5d3c 0030D2E5 		ldrb	r3, [r2]	@ zero_extendqisi2
 6227 5d40 240053E3 		cmp	r3, #36
 6228 5d44 0801001A 		bne	.L217
 6229 5d48 E03C1FE5 		ldr	r3, .L387+296
 6230 5d4c B00C1FE5 		ldr	r0, .L387+348
 6231 5d50 1A10A0E3 		mov	r1, #26
 6232 5d54 004093E5 		ldr	r4, [r3]	@ float
 6233 5d58 FEFFFFEB 		bl	uart_check_free_space
 6234 5d5c 000050E3 		cmp	r0, #0
 6235 5d60 FD00000A 		beq	.L218
 6236 5d64 0201C4E3 		bic	r0, r4, #-2147483648
 6237 5d68 FEFFFFEB 		bl	__aeabi_f2d
 6238 5d6c 002D1FE5 		ldr	r2, .L387+300
 6239 5d70 003D1FE5 		ldr	r3, .L387+304
 6240 5d74 FEFFFFEB 		bl	__aeabi_ddiv
 6241 5d78 FEFFFFEB 		bl	__aeabi_d2uiz
 6242 5d7c 083D1FE5 		ldr	r3, .L387+308
 6243 5d80 B020D3E1 		ldrh	r2, [r3]
 6244 5d84 1A2082E2 		add	r2, r2, #26
 6245 5d88 B020C3E1 		strh	r2, [r3]	@ movhi
 6246 5d8c 143D1FE5 		ldr	r3, .L387+312
 6247 5d90 B020D3E1 		ldrh	r2, [r3]
 6248 5d94 FF8000E2 		and	r8, r0, #255
 6249 5d98 012082E2 		add	r2, r2, #1
 6250 5d9c 000D1FE5 		ldr	r0, .L387+348
 6251 5da0 9910A0E3 		mov	r1, #153
 6252 5da4 285D1FE5 		ldr	r5, .L387+316
 6253 5da8 B020C3E1 		strh	r2, [r3]	@ movhi
 6254 5dac FEFFFFEB 		bl	uart_transmit
 6255 5db0 140D1FE5 		ldr	r0, .L387+348
 6256 5db4 1A10A0E3 		mov	r1, #26
 6257 5db8 384D1FE5 		ldr	r4, .L387+320
 6258 5dbc FEFFFFEB 		bl	uart_transmit
 6259 5dc0 1C30A0E3 		mov	r3, #28
 6260 5dc4 0030C5E5 		strb	r3, [r5]
 6261 5dc8 2C0D1FE5 		ldr	r0, .L387+348
 6262 5dcc 3630A0E3 		mov	r3, #54
 6263 5dd0 0210A0E3 		mov	r1, #2
 6264 5dd4 0030C4E5 		strb	r3, [r4]
 6265 5dd8 FEFFFFEB 		bl	uart_transmit
 6266 5ddc 0030D5E5 		ldrb	r3, [r5]	@ zero_extendqisi2
 6267 5de0 0020D4E5 		ldrb	r2, [r4]	@ zero_extendqisi2
 6268 5de4 0A3083E2 		add	r3, r3, #10
 6269 5de8 FF3003E2 		and	r3, r3, #255
 6270 5dec 0030C5E5 		strb	r3, [r5]
 6271 5df0 540D1FE5 		ldr	r0, .L387+348
 6272 5df4 023083E0 		add	r3, r3, r2
 6273 5df8 0A10A0E3 		mov	r1, #10
 6274 5dfc 0030C4E5 		strb	r3, [r4]
 6275 5e00 FEFFFFEB 		bl	uart_transmit
 6276 5e04 803D1FE5 		ldr	r3, .L387+324
 6277 5e08 0010D3E5 		ldrb	r1, [r3]	@ zero_extendqisi2
 6278 5e0c 0030D5E5 		ldrb	r3, [r5]	@ zero_extendqisi2
 6279 5e10 0020D4E5 		ldrb	r2, [r4]	@ zero_extendqisi2
 6280 5e14 033081E0 		add	r3, r1, r3
 6281 5e18 FF3003E2 		and	r3, r3, #255
 6282 5e1c 0030C5E5 		strb	r3, [r5]
 6283 5e20 840D1FE5 		ldr	r0, .L387+348
 6284 5e24 023083E0 		add	r3, r3, r2
 6285 5e28 0030C4E5 		strb	r3, [r4]
 6286 5e2c FEFFFFEB 		bl	uart_transmit
 6287 5e30 A83D1FE5 		ldr	r3, .L387+328
 6288 5e34 0010D3E5 		ldrb	r1, [r3]	@ zero_extendqisi2
 6289 5e38 0030D5E5 		ldrb	r3, [r5]	@ zero_extendqisi2
 6290 5e3c 0020D4E5 		ldrb	r2, [r4]	@ zero_extendqisi2
 6291 5e40 033081E0 		add	r3, r1, r3
 6292 5e44 B87D1FE5 		ldr	r7, .L387+332
 6293 5e48 FF3003E2 		and	r3, r3, #255
 6294 5e4c 0030C5E5 		strb	r3, [r5]
 6295 5e50 B40D1FE5 		ldr	r0, .L387+348
 6296 5e54 023083E0 		add	r3, r3, r2
 6297 5e58 0030C4E5 		strb	r3, [r4]
 6298 5e5c FEFFFFEB 		bl	uart_transmit
 6299 5e60 0010D7E5 		ldrb	r1, [r7]	@ zero_extendqisi2
 6300 5e64 0030D5E5 		ldrb	r3, [r5]	@ zero_extendqisi2
 6301 5e68 0020D4E5 		ldrb	r2, [r4]	@ zero_extendqisi2
 6302 5e6c 033081E0 		add	r3, r1, r3
 6303 5e70 FF3003E2 		and	r3, r3, #255
 6304 5e74 0030C5E5 		strb	r3, [r5]
 6305 5e78 DC0D1FE5 		ldr	r0, .L387+348
 6306 5e7c 023083E0 		add	r3, r3, r2
 6307 5e80 0030C4E5 		strb	r3, [r4]
 6308 5e84 FEFFFFEB 		bl	uart_transmit
 6309 5e88 0110D7E5 		ldrb	r1, [r7, #1]	@ zero_extendqisi2
 6310 5e8c 0030D5E5 		ldrb	r3, [r5]	@ zero_extendqisi2
 6311 5e90 0020D4E5 		ldrb	r2, [r4]	@ zero_extendqisi2
 6312 5e94 033081E0 		add	r3, r1, r3
 6313 5e98 FF3003E2 		and	r3, r3, #255
 6314 5e9c 0030C5E5 		strb	r3, [r5]
 6315 5ea0 040E1FE5 		ldr	r0, .L387+348
 6316 5ea4 023083E0 		add	r3, r3, r2
 6317 5ea8 0030C4E5 		strb	r3, [r4]
 6318 5eac FEFFFFEB 		bl	uart_transmit
 6319 5eb0 0210D7E5 		ldrb	r1, [r7, #2]	@ zero_extendqisi2
 6320 5eb4 0030D5E5 		ldrb	r3, [r5]	@ zero_extendqisi2
 6321 5eb8 0020D4E5 		ldrb	r2, [r4]	@ zero_extendqisi2
 6322 5ebc 033081E0 		add	r3, r1, r3
 6323 5ec0 FF3003E2 		and	r3, r3, #255
 6324 5ec4 0030C5E5 		strb	r3, [r5]
 6325 5ec8 2C0E1FE5 		ldr	r0, .L387+348
 6326 5ecc 023083E0 		add	r3, r3, r2
 6327 5ed0 0030C4E5 		strb	r3, [r4]
 6328 5ed4 FEFFFFEB 		bl	uart_transmit
 6329 5ed8 0310D7E5 		ldrb	r1, [r7, #3]	@ zero_extendqisi2
 6330 5edc 0030D5E5 		ldrb	r3, [r5]	@ zero_extendqisi2
 6331 5ee0 0020D4E5 		ldrb	r2, [r4]	@ zero_extendqisi2
 6332 5ee4 033081E0 		add	r3, r1, r3
 6333 5ee8 587E1FE5 		ldr	r7, .L387+336
 6334 5eec FF3003E2 		and	r3, r3, #255
 6335 5ef0 0030C5E5 		strb	r3, [r5]
 6336 5ef4 580E1FE5 		ldr	r0, .L387+348
 6337 5ef8 023083E0 		add	r3, r3, r2
 6338 5efc 0030C4E5 		strb	r3, [r4]
 6339 5f00 FEFFFFEB 		bl	uart_transmit
 6340 5f04 0010D7E5 		ldrb	r1, [r7]	@ zero_extendqisi2
 6341 5f08 0030D5E5 		ldrb	r3, [r5]	@ zero_extendqisi2
 6342 5f0c 0020D4E5 		ldrb	r2, [r4]	@ zero_extendqisi2
 6343 5f10 033081E0 		add	r3, r1, r3
 6344 5f14 FF3003E2 		and	r3, r3, #255
 6345 5f18 0030C5E5 		strb	r3, [r5]
 6346 5f1c 800E1FE5 		ldr	r0, .L387+348
 6347 5f20 023083E0 		add	r3, r3, r2
 6348 5f24 0030C4E5 		strb	r3, [r4]
 6349 5f28 FEFFFFEB 		bl	uart_transmit
 6350 5f2c 0110D7E5 		ldrb	r1, [r7, #1]	@ zero_extendqisi2
 6351 5f30 0030D5E5 		ldrb	r3, [r5]	@ zero_extendqisi2
 6352 5f34 0020D4E5 		ldrb	r2, [r4]	@ zero_extendqisi2
 6353 5f38 033081E0 		add	r3, r1, r3
 6354 5f3c FF3003E2 		and	r3, r3, #255
 6355 5f40 0030C5E5 		strb	r3, [r5]
 6356 5f44 A80E1FE5 		ldr	r0, .L387+348
 6357 5f48 023083E0 		add	r3, r3, r2
 6358 5f4c 0030C4E5 		strb	r3, [r4]
 6359 5f50 FEFFFFEB 		bl	uart_transmit
 6360 5f54 0210D7E5 		ldrb	r1, [r7, #2]	@ zero_extendqisi2
 6361 5f58 0030D5E5 		ldrb	r3, [r5]	@ zero_extendqisi2
 6362 5f5c 0020D4E5 		ldrb	r2, [r4]	@ zero_extendqisi2
 6363 5f60 033081E0 		add	r3, r1, r3
 6364 5f64 FF3003E2 		and	r3, r3, #255
 6365 5f68 0030C5E5 		strb	r3, [r5]
 6366 5f6c D00E1FE5 		ldr	r0, .L387+348
 6367 5f70 023083E0 		add	r3, r3, r2
 6368 5f74 0030C4E5 		strb	r3, [r4]
 6369 5f78 FEFFFFEB 		bl	uart_transmit
 6370 5f7c 0310D7E5 		ldrb	r1, [r7, #3]	@ zero_extendqisi2
 6371 5f80 0030D5E5 		ldrb	r3, [r5]	@ zero_extendqisi2
 6372 5f84 0020D4E5 		ldrb	r2, [r4]	@ zero_extendqisi2
 6373 5f88 033081E0 		add	r3, r1, r3
 6374 5f8c F87E1FE5 		ldr	r7, .L387+340
 6375 5f90 FF3003E2 		and	r3, r3, #255
 6376 5f94 0030C5E5 		strb	r3, [r5]
 6377 5f98 FC0E1FE5 		ldr	r0, .L387+348
 6378 5f9c 023083E0 		add	r3, r3, r2
 6379 5fa0 0030C4E5 		strb	r3, [r4]
 6380 5fa4 FEFFFFEB 		bl	uart_transmit
 6381 5fa8 0010D7E5 		ldrb	r1, [r7]	@ zero_extendqisi2
 6382 5fac 0030D5E5 		ldrb	r3, [r5]	@ zero_extendqisi2
 6383 5fb0 0020D4E5 		ldrb	r2, [r4]	@ zero_extendqisi2
 6384 5fb4 033081E0 		add	r3, r1, r3
 6385 5fb8 FF3003E2 		and	r3, r3, #255
 6386 5fbc 0030C5E5 		strb	r3, [r5]
 6387 5fc0 240F1FE5 		ldr	r0, .L387+348
 6388 5fc4 023083E0 		add	r3, r3, r2
 6389 5fc8 0030C4E5 		strb	r3, [r4]
 6390 5fcc FEFFFFEB 		bl	uart_transmit
 6391 5fd0 0110D7E5 		ldrb	r1, [r7, #1]	@ zero_extendqisi2
 6392 5fd4 0030D5E5 		ldrb	r3, [r5]	@ zero_extendqisi2
 6393 5fd8 0020D4E5 		ldrb	r2, [r4]	@ zero_extendqisi2
 6394 5fdc 033081E0 		add	r3, r1, r3
 6395 5fe0 FF3003E2 		and	r3, r3, #255
 6396 5fe4 0030C5E5 		strb	r3, [r5]
 6397 5fe8 4C0F1FE5 		ldr	r0, .L387+348
 6398 5fec 023083E0 		add	r3, r3, r2
 6399 5ff0 0030C4E5 		strb	r3, [r4]
 6400 5ff4 FEFFFFEB 		bl	uart_transmit
 6401 5ff8 0210D7E5 		ldrb	r1, [r7, #2]	@ zero_extendqisi2
 6402 5ffc 0030D5E5 		ldrb	r3, [r5]	@ zero_extendqisi2
 6403 6000 0020D4E5 		ldrb	r2, [r4]	@ zero_extendqisi2
 6404 6004 033081E0 		add	r3, r1, r3
 6405 6008 FF3003E2 		and	r3, r3, #255
 6406 600c 0030C5E5 		strb	r3, [r5]
 6407 6010 740F1FE5 		ldr	r0, .L387+348
 6408 6014 023083E0 		add	r3, r3, r2
 6409 6018 0030C4E5 		strb	r3, [r4]
 6410 601c FEFFFFEB 		bl	uart_transmit
 6411 6020 0310D7E5 		ldrb	r1, [r7, #3]	@ zero_extendqisi2
 6412 6024 0030D5E5 		ldrb	r3, [r5]	@ zero_extendqisi2
 6413 6028 0020D4E5 		ldrb	r2, [r4]	@ zero_extendqisi2
 6414 602c 033081E0 		add	r3, r1, r3
 6415 6030 987F1FE5 		ldr	r7, .L387+344
 6416 6034 FF3003E2 		and	r3, r3, #255
 6417 6038 0030C5E5 		strb	r3, [r5]
 6418 603c A00F1FE5 		ldr	r0, .L387+348
 6419 6040 023083E0 		add	r3, r3, r2
 6420 6044 0030C4E5 		strb	r3, [r4]
 6421 6048 FEFFFFEB 		bl	uart_transmit
 6422 604c 0010D7E5 		ldrb	r1, [r7]	@ zero_extendqisi2
 6423 6050 0030D5E5 		ldrb	r3, [r5]	@ zero_extendqisi2
 6424 6054 0020D4E5 		ldrb	r2, [r4]	@ zero_extendqisi2
 6425 6058 033081E0 		add	r3, r1, r3
 6426 605c FF3003E2 		and	r3, r3, #255
 6427 6060 0030C5E5 		strb	r3, [r5]
 6428 6064 C80F1FE5 		ldr	r0, .L387+348
 6429 6068 023083E0 		add	r3, r3, r2
 6430 606c 0030C4E5 		strb	r3, [r4]
 6431 6070 FEFFFFEB 		bl	uart_transmit
 6432 6074 0110D7E5 		ldrb	r1, [r7, #1]	@ zero_extendqisi2
 6433 6078 0030D5E5 		ldrb	r3, [r5]	@ zero_extendqisi2
 6434 607c 0020D4E5 		ldrb	r2, [r4]	@ zero_extendqisi2
 6435 6080 033081E0 		add	r3, r1, r3
 6436 6084 FF3003E2 		and	r3, r3, #255
 6437 6088 0030C5E5 		strb	r3, [r5]
 6438 608c F00F1FE5 		ldr	r0, .L387+348
 6439 6090 023083E0 		add	r3, r3, r2
 6440 6094 0030C4E5 		strb	r3, [r4]
 6441 6098 FEFFFFEB 		bl	uart_transmit
 6442 609c 0210D7E5 		ldrb	r1, [r7, #2]	@ zero_extendqisi2
 6443 60a0 0030D5E5 		ldrb	r3, [r5]	@ zero_extendqisi2
 6444 60a4 0020D4E5 		ldrb	r2, [r4]	@ zero_extendqisi2
 6445 60a8 033081E0 		add	r3, r1, r3
 6446 60ac FF3003E2 		and	r3, r3, #255
 6447 60b0 0030C5E5 		strb	r3, [r5]
 6448 60b4 7C0F9FE5 		ldr	r0, .L389
 6449 60b8 023083E0 		add	r3, r3, r2
 6450 60bc 0030C4E5 		strb	r3, [r4]
 6451 60c0 FEFFFFEB 		bl	uart_transmit
 6452 60c4 0310D7E5 		ldrb	r1, [r7, #3]	@ zero_extendqisi2
 6453 60c8 0030D5E5 		ldrb	r3, [r5]	@ zero_extendqisi2
 6454 60cc 0020D4E5 		ldrb	r2, [r4]	@ zero_extendqisi2
 6455 60d0 033081E0 		add	r3, r1, r3
 6456 60d4 FF3003E2 		and	r3, r3, #255
 6457 60d8 0030C5E5 		strb	r3, [r5]
 6458 60dc 540F9FE5 		ldr	r0, .L389
 6459 60e0 023083E0 		add	r3, r3, r2
 6460 60e4 0030C4E5 		strb	r3, [r4]
 6461 60e8 FEFFFFEB 		bl	uart_transmit
 6462 60ec 0030D5E5 		ldrb	r3, [r5]	@ zero_extendqisi2
 6463 60f0 0020D4E5 		ldrb	r2, [r4]	@ zero_extendqisi2
 6464 60f4 033088E0 		add	r3, r8, r3
 6465 60f8 FF3003E2 		and	r3, r3, #255
 6466 60fc 0030C5E5 		strb	r3, [r5]
 6467 6100 0810A0E1 		mov	r1, r8
 6468 6104 023083E0 		add	r3, r3, r2
 6469 6108 280F9FE5 		ldr	r0, .L389
 6470 610c 0030C4E5 		strb	r3, [r4]
 6471 6110 FEFFFFEB 		bl	uart_transmit
 6472 6114 203F9FE5 		ldr	r3, .L389+4
 6473 6118 0010D3E5 		ldrb	r1, [r3]	@ zero_extendqisi2
 6474 611c 0030D5E5 		ldrb	r3, [r5]	@ zero_extendqisi2
 6475 6120 0020D4E5 		ldrb	r2, [r4]	@ zero_extendqisi2
 6476 6124 033081E0 		add	r3, r1, r3
 6477 6128 FF3003E2 		and	r3, r3, #255
 6478 612c 0030C5E5 		strb	r3, [r5]
 6479 6130 000F9FE5 		ldr	r0, .L389
 6480 6134 023083E0 		add	r3, r3, r2
 6481 6138 0030C4E5 		strb	r3, [r4]
 6482 613c FEFFFFEB 		bl	uart_transmit
 6483 6140 0010D5E5 		ldrb	r1, [r5]	@ zero_extendqisi2
 6484 6144 EC0E9FE5 		ldr	r0, .L389
 6485 6148 FEFFFFEB 		bl	uart_transmit
 6486 614c E40E9FE5 		ldr	r0, .L389
 6487 6150 0010D4E5 		ldrb	r1, [r4]	@ zero_extendqisi2
 6488 6154 FEFFFFEB 		bl	uart_transmit
 6489 6158 030000EA 		b	.L217
 6490              	.L218:
 6491 615c 8C3F9FE5 		ldr	r3, .L389+184
 6492 6160 0020D3E5 		ldrb	r2, [r3]	@ zero_extendqisi2
 6493 6164 012082E2 		add	r2, r2, #1
 6494 6168 0020C3E5 		strb	r2, [r3]
 6495              	.L217:
 6496 616c CC3E9FE5 		ldr	r3, .L389+8
 6497 6170 0030D3E5 		ldrb	r3, [r3]	@ zero_extendqisi2
 6498 6174 2A0053E3 		cmp	r3, #42
 6499 6178 AF00001A 		bne	.L219
 6500 617c C03E9FE5 		ldr	r3, .L389+12
 6501 6180 0030D3E5 		ldrb	r3, [r3]	@ zero_extendqisi2
 6502 6184 000053E3 		cmp	r3, #0
 6503 6188 AB00000A 		beq	.L219
 6504 618c A40E9FE5 		ldr	r0, .L389
 6505 6190 1210A0E3 		mov	r1, #18
 6506 6194 FEFFFFEB 		bl	uart_check_free_space
 6507 6198 000050E3 		cmp	r0, #0
 6508 619c A200000A 		beq	.L220
 6509 61a0 843F9FE5 		ldr	r3, .L389+244
 6510 61a4 B020D3E1 		ldrh	r2, [r3]
 6511 61a8 122082E2 		add	r2, r2, #18
 6512 61ac B020C3E1 		strh	r2, [r3]	@ movhi
 6513 61b0 783F9FE5 		ldr	r3, .L389+248
 6514 61b4 B020D3E1 		ldrh	r2, [r3]
 6515 61b8 780E9FE5 		ldr	r0, .L389
 6516 61bc 012082E2 		add	r2, r2, #1
 6517 61c0 9910A0E3 		mov	r1, #153
 6518 61c4 145F9FE5 		ldr	r5, .L389+168
 6519 61c8 B020C3E1 		strh	r2, [r3]	@ movhi
 6520 61cc FEFFFFEB 		bl	uart_transmit
 6521 61d0 600E9FE5 		ldr	r0, .L389
 6522 61d4 1210A0E3 		mov	r1, #18
 6523 61d8 584F9FE5 		ldr	r4, .L389+256
 6524 61dc FEFFFFEB 		bl	uart_transmit
 6525 61e0 1430A0E3 		mov	r3, #20
 6526 61e4 0030C5E5 		strb	r3, [r5]
 6527 61e8 480E9FE5 		ldr	r0, .L389
 6528 61ec 2630A0E3 		mov	r3, #38
 6529 61f0 0210A0E3 		mov	r1, #2
 6530 61f4 0030C4E5 		strb	r3, [r4]
 6531 61f8 FEFFFFEB 		bl	uart_transmit
 6532 61fc 0030D5E5 		ldrb	r3, [r5]	@ zero_extendqisi2
 6533 6200 0020D4E5 		ldrb	r2, [r4]	@ zero_extendqisi2
 6534 6204 153083E2 		add	r3, r3, #21
 6535 6208 387E9FE5 		ldr	r7, .L389+16
 6536 620c FF3003E2 		and	r3, r3, #255
 6537 6210 0030C5E5 		strb	r3, [r5]
 6538 6214 1C0E9FE5 		ldr	r0, .L389
 6539 6218 023083E0 		add	r3, r3, r2
 6540 621c 1510A0E3 		mov	r1, #21
 6541 6220 0030C4E5 		strb	r3, [r4]
 6542 6224 FEFFFFEB 		bl	uart_transmit
 6543 6228 0010D7E5 		ldrb	r1, [r7]	@ zero_extendqisi2
 6544 622c 0030D5E5 		ldrb	r3, [r5]	@ zero_extendqisi2
 6545 6230 0020D4E5 		ldrb	r2, [r4]	@ zero_extendqisi2
 6546 6234 033081E0 		add	r3, r1, r3
 6547 6238 FF3003E2 		and	r3, r3, #255
 6548 623c 0030C5E5 		strb	r3, [r5]
 6549 6240 F00D9FE5 		ldr	r0, .L389
 6550 6244 023083E0 		add	r3, r3, r2
 6551 6248 0030C4E5 		strb	r3, [r4]
 6552 624c FEFFFFEB 		bl	uart_transmit
 6553 6250 0110D7E5 		ldrb	r1, [r7, #1]	@ zero_extendqisi2
 6554 6254 0030D5E5 		ldrb	r3, [r5]	@ zero_extendqisi2
 6555 6258 0020D4E5 		ldrb	r2, [r4]	@ zero_extendqisi2
 6556 625c 033081E0 		add	r3, r1, r3
 6557 6260 FF3003E2 		and	r3, r3, #255
 6558 6264 0030C5E5 		strb	r3, [r5]
 6559 6268 C80D9FE5 		ldr	r0, .L389
 6560 626c 023083E0 		add	r3, r3, r2
 6561 6270 0030C4E5 		strb	r3, [r4]
 6562 6274 FEFFFFEB 		bl	uart_transmit
 6563 6278 0210D7E5 		ldrb	r1, [r7, #2]	@ zero_extendqisi2
 6564 627c 0030D5E5 		ldrb	r3, [r5]	@ zero_extendqisi2
 6565 6280 0020D4E5 		ldrb	r2, [r4]	@ zero_extendqisi2
 6566 6284 033081E0 		add	r3, r1, r3
 6567 6288 FF3003E2 		and	r3, r3, #255
 6568 628c 0030C5E5 		strb	r3, [r5]
 6569 6290 A00D9FE5 		ldr	r0, .L389
 6570 6294 023083E0 		add	r3, r3, r2
 6571 6298 0030C4E5 		strb	r3, [r4]
 6572 629c FEFFFFEB 		bl	uart_transmit
 6573 62a0 0310D7E5 		ldrb	r1, [r7, #3]	@ zero_extendqisi2
 6574 62a4 0030D5E5 		ldrb	r3, [r5]	@ zero_extendqisi2
 6575 62a8 0020D4E5 		ldrb	r2, [r4]	@ zero_extendqisi2
 6576 62ac 033081E0 		add	r3, r1, r3
 6577 62b0 947D9FE5 		ldr	r7, .L389+20
 6578 62b4 FF3003E2 		and	r3, r3, #255
 6579 62b8 0030C5E5 		strb	r3, [r5]
 6580 62bc 740D9FE5 		ldr	r0, .L389
 6581 62c0 023083E0 		add	r3, r3, r2
 6582 62c4 0030C4E5 		strb	r3, [r4]
 6583 62c8 FEFFFFEB 		bl	uart_transmit
 6584 62cc 0010D7E5 		ldrb	r1, [r7]	@ zero_extendqisi2
 6585 62d0 0030D5E5 		ldrb	r3, [r5]	@ zero_extendqisi2
 6586 62d4 0020D4E5 		ldrb	r2, [r4]	@ zero_extendqisi2
 6587 62d8 033081E0 		add	r3, r1, r3
 6588 62dc FF3003E2 		and	r3, r3, #255
 6589 62e0 0030C5E5 		strb	r3, [r5]
 6590 62e4 4C0D9FE5 		ldr	r0, .L389
 6591 62e8 023083E0 		add	r3, r3, r2
 6592 62ec 0030C4E5 		strb	r3, [r4]
 6593 62f0 FEFFFFEB 		bl	uart_transmit
 6594 62f4 0110D7E5 		ldrb	r1, [r7, #1]	@ zero_extendqisi2
 6595 62f8 0030D5E5 		ldrb	r3, [r5]	@ zero_extendqisi2
 6596 62fc 0020D4E5 		ldrb	r2, [r4]	@ zero_extendqisi2
 6597 6300 033081E0 		add	r3, r1, r3
 6598 6304 FF3003E2 		and	r3, r3, #255
 6599 6308 0030C5E5 		strb	r3, [r5]
 6600 630c 240D9FE5 		ldr	r0, .L389
 6601 6310 023083E0 		add	r3, r3, r2
 6602 6314 0030C4E5 		strb	r3, [r4]
 6603 6318 FEFFFFEB 		bl	uart_transmit
 6604 631c 0210D7E5 		ldrb	r1, [r7, #2]	@ zero_extendqisi2
 6605 6320 0030D5E5 		ldrb	r3, [r5]	@ zero_extendqisi2
 6606 6324 0020D4E5 		ldrb	r2, [r4]	@ zero_extendqisi2
 6607 6328 033081E0 		add	r3, r1, r3
 6608 632c FF3003E2 		and	r3, r3, #255
 6609 6330 0030C5E5 		strb	r3, [r5]
 6610 6334 FC0C9FE5 		ldr	r0, .L389
 6611 6338 023083E0 		add	r3, r3, r2
 6612 633c 0030C4E5 		strb	r3, [r4]
 6613 6340 FEFFFFEB 		bl	uart_transmit
 6614 6344 0310D7E5 		ldrb	r1, [r7, #3]	@ zero_extendqisi2
 6615 6348 0030D5E5 		ldrb	r3, [r5]	@ zero_extendqisi2
 6616 634c 0020D4E5 		ldrb	r2, [r4]	@ zero_extendqisi2
 6617 6350 033081E0 		add	r3, r1, r3
 6618 6354 F47C9FE5 		ldr	r7, .L389+24
 6619 6358 FF3003E2 		and	r3, r3, #255
 6620 635c 0030C5E5 		strb	r3, [r5]
 6621 6360 D00C9FE5 		ldr	r0, .L389
 6622 6364 023083E0 		add	r3, r3, r2
 6623 6368 0030C4E5 		strb	r3, [r4]
 6624 636c FEFFFFEB 		bl	uart_transmit
 6625 6370 0010D7E5 		ldrb	r1, [r7]	@ zero_extendqisi2
 6626 6374 0030D5E5 		ldrb	r3, [r5]	@ zero_extendqisi2
 6627 6378 0020D4E5 		ldrb	r2, [r4]	@ zero_extendqisi2
 6628 637c 033081E0 		add	r3, r1, r3
 6629 6380 FF3003E2 		and	r3, r3, #255
 6630 6384 0030C5E5 		strb	r3, [r5]
 6631 6388 A80C9FE5 		ldr	r0, .L389
 6632 638c 023083E0 		add	r3, r3, r2
 6633 6390 0030C4E5 		strb	r3, [r4]
 6634 6394 FEFFFFEB 		bl	uart_transmit
 6635 6398 0110D7E5 		ldrb	r1, [r7, #1]	@ zero_extendqisi2
 6636 639c 0030D5E5 		ldrb	r3, [r5]	@ zero_extendqisi2
 6637 63a0 0020D4E5 		ldrb	r2, [r4]	@ zero_extendqisi2
 6638 63a4 033081E0 		add	r3, r1, r3
 6639 63a8 FF3003E2 		and	r3, r3, #255
 6640 63ac 0030C5E5 		strb	r3, [r5]
 6641 63b0 800C9FE5 		ldr	r0, .L389
 6642 63b4 023083E0 		add	r3, r3, r2
 6643 63b8 0030C4E5 		strb	r3, [r4]
 6644 63bc FEFFFFEB 		bl	uart_transmit
 6645 63c0 0210D7E5 		ldrb	r1, [r7, #2]	@ zero_extendqisi2
 6646 63c4 0030D5E5 		ldrb	r3, [r5]	@ zero_extendqisi2
 6647 63c8 0020D4E5 		ldrb	r2, [r4]	@ zero_extendqisi2
 6648 63cc 033081E0 		add	r3, r1, r3
 6649 63d0 FF3003E2 		and	r3, r3, #255
 6650 63d4 0030C5E5 		strb	r3, [r5]
 6651 63d8 580C9FE5 		ldr	r0, .L389
 6652 63dc 023083E0 		add	r3, r3, r2
 6653 63e0 0030C4E5 		strb	r3, [r4]
 6654 63e4 FEFFFFEB 		bl	uart_transmit
 6655 63e8 0310D7E5 		ldrb	r1, [r7, #3]	@ zero_extendqisi2
 6656 63ec 0030D5E5 		ldrb	r3, [r5]	@ zero_extendqisi2
 6657 63f0 0020D4E5 		ldrb	r2, [r4]	@ zero_extendqisi2
 6658 63f4 033081E0 		add	r3, r1, r3
 6659 63f8 FF3003E2 		and	r3, r3, #255
 6660 63fc 0030C5E5 		strb	r3, [r5]
 6661 6400 300C9FE5 		ldr	r0, .L389
 6662 6404 023083E0 		add	r3, r3, r2
 6663 6408 0030C4E5 		strb	r3, [r4]
 6664 640c FEFFFFEB 		bl	uart_transmit
 6665 6410 0010D5E5 		ldrb	r1, [r5]	@ zero_extendqisi2
 6666 6414 1C0C9FE5 		ldr	r0, .L389
 6667 6418 FEFFFFEB 		bl	uart_transmit
 6668 641c 140C9FE5 		ldr	r0, .L389
 6669 6420 0010D4E5 		ldrb	r1, [r4]	@ zero_extendqisi2
 6670 6424 FEFFFFEB 		bl	uart_transmit
 6671 6428 030000EA 		b	.L219
 6672              	.L220:
 6673 642c BC3C9FE5 		ldr	r3, .L389+184
 6674 6430 0020D3E5 		ldrb	r2, [r3]	@ zero_extendqisi2
 6675 6434 012082E2 		add	r2, r2, #1
 6676 6438 0020C3E5 		strb	r2, [r3]
 6677              	.L219:
 6678 643c 103C9FE5 		ldr	r3, .L389+28
 6679 6440 0030D3E5 		ldrb	r3, [r3]	@ zero_extendqisi2
 6680 6444 300053E3 		cmp	r3, #48
 6681 6448 D800001A 		bne	.L221
 6682 644c 043C9FE5 		ldr	r3, .L389+32
 6683 6450 0030D3E5 		ldrb	r3, [r3]	@ zero_extendqisi2
 6684 6454 000053E3 		cmp	r3, #0
 6685 6458 D400000A 		beq	.L221
 6686 645c D40B9FE5 		ldr	r0, .L389
 6687 6460 1610A0E3 		mov	r1, #22
 6688 6464 FEFFFFEB 		bl	uart_check_free_space
 6689 6468 000050E3 		cmp	r0, #0
 6690 646c CB00000A 		beq	.L222
 6691 6470 B43C9FE5 		ldr	r3, .L389+244
 6692 6474 B020D3E1 		ldrh	r2, [r3]
 6693 6478 162082E2 		add	r2, r2, #22
 6694 647c B020C3E1 		strh	r2, [r3]	@ movhi
 6695 6480 A83C9FE5 		ldr	r3, .L389+248
 6696 6484 B020D3E1 		ldrh	r2, [r3]
 6697 6488 A80B9FE5 		ldr	r0, .L389
 6698 648c 012082E2 		add	r2, r2, #1
 6699 6490 9910A0E3 		mov	r1, #153
 6700 6494 445C9FE5 		ldr	r5, .L389+168
 6701 6498 B020C3E1 		strh	r2, [r3]	@ movhi
 6702 649c FEFFFFEB 		bl	uart_transmit
 6703 64a0 900B9FE5 		ldr	r0, .L389
 6704 64a4 1610A0E3 		mov	r1, #22
 6705 64a8 884C9FE5 		ldr	r4, .L389+256
 6706 64ac FEFFFFEB 		bl	uart_transmit
 6707 64b0 1830A0E3 		mov	r3, #24
 6708 64b4 0030C5E5 		strb	r3, [r5]
 6709 64b8 780B9FE5 		ldr	r0, .L389
 6710 64bc 2E30A0E3 		mov	r3, #46
 6711 64c0 0210A0E3 		mov	r1, #2
 6712 64c4 0030C4E5 		strb	r3, [r4]
 6713 64c8 FEFFFFEB 		bl	uart_transmit
 6714 64cc 0030D5E5 		ldrb	r3, [r5]	@ zero_extendqisi2
 6715 64d0 0020D4E5 		ldrb	r2, [r4]	@ zero_extendqisi2
 6716 64d4 163083E2 		add	r3, r3, #22
 6717 64d8 7C7B9FE5 		ldr	r7, .L389+36
 6718 64dc FF3003E2 		and	r3, r3, #255
 6719 64e0 0030C5E5 		strb	r3, [r5]
 6720 64e4 4C0B9FE5 		ldr	r0, .L389
 6721 64e8 023083E0 		add	r3, r3, r2
 6722 64ec 1610A0E3 		mov	r1, #22
 6723 64f0 0030C4E5 		strb	r3, [r4]
 6724 64f4 FEFFFFEB 		bl	uart_transmit
 6725 64f8 0010D7E5 		ldrb	r1, [r7]	@ zero_extendqisi2
 6726 64fc 0030D5E5 		ldrb	r3, [r5]	@ zero_extendqisi2
 6727 6500 0020D4E5 		ldrb	r2, [r4]	@ zero_extendqisi2
 6728 6504 033081E0 		add	r3, r1, r3
 6729 6508 FF3003E2 		and	r3, r3, #255
 6730 650c 0030C5E5 		strb	r3, [r5]
 6731 6510 200B9FE5 		ldr	r0, .L389
 6732 6514 023083E0 		add	r3, r3, r2
 6733 6518 0030C4E5 		strb	r3, [r4]
 6734 651c FEFFFFEB 		bl	uart_transmit
 6735 6520 0110D7E5 		ldrb	r1, [r7, #1]	@ zero_extendqisi2
 6736 6524 0030D5E5 		ldrb	r3, [r5]	@ zero_extendqisi2
 6737 6528 0020D4E5 		ldrb	r2, [r4]	@ zero_extendqisi2
 6738 652c 033081E0 		add	r3, r1, r3
 6739 6530 FF3003E2 		and	r3, r3, #255
 6740 6534 0030C5E5 		strb	r3, [r5]
 6741 6538 F80A9FE5 		ldr	r0, .L389
 6742 653c 023083E0 		add	r3, r3, r2
 6743 6540 0030C4E5 		strb	r3, [r4]
 6744 6544 FEFFFFEB 		bl	uart_transmit
 6745 6548 0210D7E5 		ldrb	r1, [r7, #2]	@ zero_extendqisi2
 6746 654c 0030D5E5 		ldrb	r3, [r5]	@ zero_extendqisi2
 6747 6550 0020D4E5 		ldrb	r2, [r4]	@ zero_extendqisi2
 6748 6554 033081E0 		add	r3, r1, r3
 6749 6558 FF3003E2 		and	r3, r3, #255
 6750 655c 0030C5E5 		strb	r3, [r5]
 6751 6560 D00A9FE5 		ldr	r0, .L389
 6752 6564 023083E0 		add	r3, r3, r2
 6753 6568 0030C4E5 		strb	r3, [r4]
 6754 656c FEFFFFEB 		bl	uart_transmit
 6755 6570 0310D7E5 		ldrb	r1, [r7, #3]	@ zero_extendqisi2
 6756 6574 0030D5E5 		ldrb	r3, [r5]	@ zero_extendqisi2
 6757 6578 0020D4E5 		ldrb	r2, [r4]	@ zero_extendqisi2
 6758 657c 033081E0 		add	r3, r1, r3
 6759 6580 D87A9FE5 		ldr	r7, .L389+40
 6760 6584 FF3003E2 		and	r3, r3, #255
 6761 6588 0030C5E5 		strb	r3, [r5]
 6762 658c A40A9FE5 		ldr	r0, .L389
 6763 6590 023083E0 		add	r3, r3, r2
 6764 6594 0030C4E5 		strb	r3, [r4]
 6765 6598 FEFFFFEB 		bl	uart_transmit
 6766 659c 0010D7E5 		ldrb	r1, [r7]	@ zero_extendqisi2
 6767 65a0 0030D5E5 		ldrb	r3, [r5]	@ zero_extendqisi2
 6768 65a4 0020D4E5 		ldrb	r2, [r4]	@ zero_extendqisi2
 6769 65a8 033081E0 		add	r3, r1, r3
 6770 65ac FF3003E2 		and	r3, r3, #255
 6771 65b0 0030C5E5 		strb	r3, [r5]
 6772 65b4 7C0A9FE5 		ldr	r0, .L389
 6773 65b8 023083E0 		add	r3, r3, r2
 6774 65bc 0030C4E5 		strb	r3, [r4]
 6775 65c0 FEFFFFEB 		bl	uart_transmit
 6776 65c4 0110D7E5 		ldrb	r1, [r7, #1]	@ zero_extendqisi2
 6777 65c8 0030D5E5 		ldrb	r3, [r5]	@ zero_extendqisi2
 6778 65cc 0020D4E5 		ldrb	r2, [r4]	@ zero_extendqisi2
 6779 65d0 033081E0 		add	r3, r1, r3
 6780 65d4 FF3003E2 		and	r3, r3, #255
 6781 65d8 0030C5E5 		strb	r3, [r5]
 6782 65dc 540A9FE5 		ldr	r0, .L389
 6783 65e0 023083E0 		add	r3, r3, r2
 6784 65e4 0030C4E5 		strb	r3, [r4]
 6785 65e8 FEFFFFEB 		bl	uart_transmit
 6786 65ec 0210D7E5 		ldrb	r1, [r7, #2]	@ zero_extendqisi2
 6787 65f0 0030D5E5 		ldrb	r3, [r5]	@ zero_extendqisi2
 6788 65f4 0020D4E5 		ldrb	r2, [r4]	@ zero_extendqisi2
 6789 65f8 033081E0 		add	r3, r1, r3
 6790 65fc FF3003E2 		and	r3, r3, #255
 6791 6600 0030C5E5 		strb	r3, [r5]
 6792 6604 2C0A9FE5 		ldr	r0, .L389
 6793 6608 023083E0 		add	r3, r3, r2
 6794 660c 0030C4E5 		strb	r3, [r4]
 6795 6610 FEFFFFEB 		bl	uart_transmit
 6796 6614 0310D7E5 		ldrb	r1, [r7, #3]	@ zero_extendqisi2
 6797 6618 0030D5E5 		ldrb	r3, [r5]	@ zero_extendqisi2
 6798 661c 0020D4E5 		ldrb	r2, [r4]	@ zero_extendqisi2
 6799 6620 033081E0 		add	r3, r1, r3
 6800 6624 387A9FE5 		ldr	r7, .L389+44
 6801 6628 FF3003E2 		and	r3, r3, #255
 6802 662c 0030C5E5 		strb	r3, [r5]
 6803 6630 000A9FE5 		ldr	r0, .L389
 6804 6634 023083E0 		add	r3, r3, r2
 6805 6638 0030C4E5 		strb	r3, [r4]
 6806 663c FEFFFFEB 		bl	uart_transmit
 6807 6640 0010D7E5 		ldrb	r1, [r7]	@ zero_extendqisi2
 6808 6644 0030D5E5 		ldrb	r3, [r5]	@ zero_extendqisi2
 6809 6648 0020D4E5 		ldrb	r2, [r4]	@ zero_extendqisi2
 6810 664c 033081E0 		add	r3, r1, r3
 6811 6650 FF3003E2 		and	r3, r3, #255
 6812 6654 0030C5E5 		strb	r3, [r5]
 6813 6658 D8099FE5 		ldr	r0, .L389
 6814 665c 023083E0 		add	r3, r3, r2
 6815 6660 0030C4E5 		strb	r3, [r4]
 6816 6664 FEFFFFEB 		bl	uart_transmit
 6817 6668 0110D7E5 		ldrb	r1, [r7, #1]	@ zero_extendqisi2
 6818 666c 0030D5E5 		ldrb	r3, [r5]	@ zero_extendqisi2
 6819 6670 0020D4E5 		ldrb	r2, [r4]	@ zero_extendqisi2
 6820 6674 033081E0 		add	r3, r1, r3
 6821 6678 FF3003E2 		and	r3, r3, #255
 6822 667c 0030C5E5 		strb	r3, [r5]
 6823 6680 B0099FE5 		ldr	r0, .L389
 6824 6684 023083E0 		add	r3, r3, r2
 6825 6688 0030C4E5 		strb	r3, [r4]
 6826 668c FEFFFFEB 		bl	uart_transmit
 6827 6690 0210D7E5 		ldrb	r1, [r7, #2]	@ zero_extendqisi2
 6828 6694 0030D5E5 		ldrb	r3, [r5]	@ zero_extendqisi2
 6829 6698 0020D4E5 		ldrb	r2, [r4]	@ zero_extendqisi2
 6830 669c 033081E0 		add	r3, r1, r3
 6831 66a0 FF3003E2 		and	r3, r3, #255
 6832 66a4 0030C5E5 		strb	r3, [r5]
 6833 66a8 88099FE5 		ldr	r0, .L389
 6834 66ac 023083E0 		add	r3, r3, r2
 6835 66b0 0030C4E5 		strb	r3, [r4]
 6836 66b4 FEFFFFEB 		bl	uart_transmit
 6837 66b8 0310D7E5 		ldrb	r1, [r7, #3]	@ zero_extendqisi2
 6838 66bc 0030D5E5 		ldrb	r3, [r5]	@ zero_extendqisi2
 6839 66c0 0020D4E5 		ldrb	r2, [r4]	@ zero_extendqisi2
 6840 66c4 033081E0 		add	r3, r1, r3
 6841 66c8 98799FE5 		ldr	r7, .L389+48
 6842 66cc FF3003E2 		and	r3, r3, #255
 6843 66d0 0030C5E5 		strb	r3, [r5]
 6844 66d4 5C099FE5 		ldr	r0, .L389
 6845 66d8 023083E0 		add	r3, r3, r2
 6846 66dc 0030C4E5 		strb	r3, [r4]
 6847 66e0 FEFFFFEB 		bl	uart_transmit
 6848 66e4 0010D7E5 		ldrb	r1, [r7]	@ zero_extendqisi2
 6849 66e8 0030D5E5 		ldrb	r3, [r5]	@ zero_extendqisi2
 6850 66ec 0020D4E5 		ldrb	r2, [r4]	@ zero_extendqisi2
 6851 66f0 033081E0 		add	r3, r1, r3
 6852 66f4 FF3003E2 		and	r3, r3, #255
 6853 66f8 0030C5E5 		strb	r3, [r5]
 6854 66fc 34099FE5 		ldr	r0, .L389
 6855 6700 023083E0 		add	r3, r3, r2
 6856 6704 0030C4E5 		strb	r3, [r4]
 6857 6708 FEFFFFEB 		bl	uart_transmit
 6858 670c 0110D7E5 		ldrb	r1, [r7, #1]	@ zero_extendqisi2
 6859 6710 0030D5E5 		ldrb	r3, [r5]	@ zero_extendqisi2
 6860 6714 0020D4E5 		ldrb	r2, [r4]	@ zero_extendqisi2
 6861 6718 033081E0 		add	r3, r1, r3
 6862 671c FF3003E2 		and	r3, r3, #255
 6863 6720 0030C5E5 		strb	r3, [r5]
 6864 6724 0C099FE5 		ldr	r0, .L389
 6865 6728 023083E0 		add	r3, r3, r2
 6866 672c 0030C4E5 		strb	r3, [r4]
 6867 6730 FEFFFFEB 		bl	uart_transmit
 6868 6734 0210D7E5 		ldrb	r1, [r7, #2]	@ zero_extendqisi2
 6869 6738 0030D5E5 		ldrb	r3, [r5]	@ zero_extendqisi2
 6870 673c 0020D4E5 		ldrb	r2, [r4]	@ zero_extendqisi2
 6871 6740 033081E0 		add	r3, r1, r3
 6872 6744 FF3003E2 		and	r3, r3, #255
 6873 6748 0030C5E5 		strb	r3, [r5]
 6874 674c E4089FE5 		ldr	r0, .L389
 6875 6750 023083E0 		add	r3, r3, r2
 6876 6754 0030C4E5 		strb	r3, [r4]
 6877 6758 FEFFFFEB 		bl	uart_transmit
 6878 675c 0310D7E5 		ldrb	r1, [r7, #3]	@ zero_extendqisi2
 6879 6760 0030D5E5 		ldrb	r3, [r5]	@ zero_extendqisi2
 6880 6764 0020D4E5 		ldrb	r2, [r4]	@ zero_extendqisi2
 6881 6768 033081E0 		add	r3, r1, r3
 6882 676c FF3003E2 		and	r3, r3, #255
 6883 6770 0030C5E5 		strb	r3, [r5]
 6884 6774 BC089FE5 		ldr	r0, .L389
 6885 6778 023083E0 		add	r3, r3, r2
 6886 677c 0030C4E5 		strb	r3, [r4]
 6887 6780 FEFFFFEB 		bl	uart_transmit
 6888 6784 0010D5E5 		ldrb	r1, [r5]	@ zero_extendqisi2
 6889 6788 A8089FE5 		ldr	r0, .L389
 6890 678c FEFFFFEB 		bl	uart_transmit
 6891 6790 A0089FE5 		ldr	r0, .L389
 6892 6794 0010D4E5 		ldrb	r1, [r4]	@ zero_extendqisi2
 6893 6798 FEFFFFEB 		bl	uart_transmit
 6894 679c 030000EA 		b	.L221
 6895              	.L222:
 6896 67a0 48399FE5 		ldr	r3, .L389+184
 6897 67a4 0020D3E5 		ldrb	r2, [r3]	@ zero_extendqisi2
 6898 67a8 012082E2 		add	r2, r2, #1
 6899 67ac 0020C3E5 		strb	r2, [r3]
 6900              	.L221:
 6901 67b0 B4389FE5 		ldr	r3, .L389+52
 6902 67b4 0030D3E5 		ldrb	r3, [r3]	@ zero_extendqisi2
 6903 67b8 360053E3 		cmp	r3, #54
 6904 67bc AB00001A 		bne	.L223
 6905 67c0 70089FE5 		ldr	r0, .L389
 6906 67c4 1210A0E3 		mov	r1, #18
 6907 67c8 FEFFFFEB 		bl	uart_check_free_space
 6908 67cc 000050E3 		cmp	r0, #0
 6909 67d0 A200000A 		beq	.L224
 6910 67d4 50399FE5 		ldr	r3, .L389+244
 6911 67d8 B020D3E1 		ldrh	r2, [r3]
 6912 67dc 122082E2 		add	r2, r2, #18
 6913 67e0 B020C3E1 		strh	r2, [r3]	@ movhi
 6914 67e4 44399FE5 		ldr	r3, .L389+248
 6915 67e8 B020D3E1 		ldrh	r2, [r3]
 6916 67ec 44089FE5 		ldr	r0, .L389
 6917 67f0 012082E2 		add	r2, r2, #1
 6918 67f4 9910A0E3 		mov	r1, #153
 6919 67f8 E0589FE5 		ldr	r5, .L389+168
 6920 67fc B020C3E1 		strh	r2, [r3]	@ movhi
 6921 6800 FEFFFFEB 		bl	uart_transmit
 6922 6804 2C089FE5 		ldr	r0, .L389
 6923 6808 1210A0E3 		mov	r1, #18
 6924 680c 24499FE5 		ldr	r4, .L389+256
 6925 6810 FEFFFFEB 		bl	uart_transmit
 6926 6814 1430A0E3 		mov	r3, #20
 6927 6818 0030C5E5 		strb	r3, [r5]
 6928 681c 14089FE5 		ldr	r0, .L389
 6929 6820 2630A0E3 		mov	r3, #38
 6930 6824 0210A0E3 		mov	r1, #2
 6931 6828 0030C4E5 		strb	r3, [r4]
 6932 682c FEFFFFEB 		bl	uart_transmit
 6933 6830 0030D5E5 		ldrb	r3, [r5]	@ zero_extendqisi2
 6934 6834 0020D4E5 		ldrb	r2, [r4]	@ zero_extendqisi2
 6935 6838 063083E2 		add	r3, r3, #6
 6936 683c 2C789FE5 		ldr	r7, .L389+56
 6937 6840 FF3003E2 		and	r3, r3, #255
 6938 6844 0030C5E5 		strb	r3, [r5]
 6939 6848 E8079FE5 		ldr	r0, .L389
 6940 684c 023083E0 		add	r3, r3, r2
 6941 6850 0610A0E3 		mov	r1, #6
 6942 6854 0030C4E5 		strb	r3, [r4]
 6943 6858 FEFFFFEB 		bl	uart_transmit
 6944 685c 0010D7E5 		ldrb	r1, [r7]	@ zero_extendqisi2
 6945 6860 0030D5E5 		ldrb	r3, [r5]	@ zero_extendqisi2
 6946 6864 0020D4E5 		ldrb	r2, [r4]	@ zero_extendqisi2
 6947 6868 033081E0 		add	r3, r1, r3
 6948 686c FF3003E2 		and	r3, r3, #255
 6949 6870 0030C5E5 		strb	r3, [r5]
 6950 6874 BC079FE5 		ldr	r0, .L389
 6951 6878 023083E0 		add	r3, r3, r2
 6952 687c 0030C4E5 		strb	r3, [r4]
 6953 6880 FEFFFFEB 		bl	uart_transmit
 6954 6884 0110D7E5 		ldrb	r1, [r7, #1]	@ zero_extendqisi2
 6955 6888 0030D5E5 		ldrb	r3, [r5]	@ zero_extendqisi2
 6956 688c 0020D4E5 		ldrb	r2, [r4]	@ zero_extendqisi2
 6957 6890 033081E0 		add	r3, r1, r3
 6958 6894 FF3003E2 		and	r3, r3, #255
 6959 6898 0030C5E5 		strb	r3, [r5]
 6960 689c 94079FE5 		ldr	r0, .L389
 6961 68a0 023083E0 		add	r3, r3, r2
 6962 68a4 0030C4E5 		strb	r3, [r4]
 6963 68a8 FEFFFFEB 		bl	uart_transmit
 6964 68ac 0210D7E5 		ldrb	r1, [r7, #2]	@ zero_extendqisi2
 6965 68b0 0030D5E5 		ldrb	r3, [r5]	@ zero_extendqisi2
 6966 68b4 0020D4E5 		ldrb	r2, [r4]	@ zero_extendqisi2
 6967 68b8 033081E0 		add	r3, r1, r3
 6968 68bc FF3003E2 		and	r3, r3, #255
 6969 68c0 0030C5E5 		strb	r3, [r5]
 6970 68c4 6C079FE5 		ldr	r0, .L389
 6971 68c8 023083E0 		add	r3, r3, r2
 6972 68cc 0030C4E5 		strb	r3, [r4]
 6973 68d0 FEFFFFEB 		bl	uart_transmit
 6974 68d4 0310D7E5 		ldrb	r1, [r7, #3]	@ zero_extendqisi2
 6975 68d8 0030D5E5 		ldrb	r3, [r5]	@ zero_extendqisi2
 6976 68dc 0020D4E5 		ldrb	r2, [r4]	@ zero_extendqisi2
 6977 68e0 033081E0 		add	r3, r1, r3
 6978 68e4 88779FE5 		ldr	r7, .L389+60
 6979 68e8 FF3003E2 		and	r3, r3, #255
 6980 68ec 0030C5E5 		strb	r3, [r5]
 6981 68f0 40079FE5 		ldr	r0, .L389
 6982 68f4 023083E0 		add	r3, r3, r2
 6983 68f8 0030C4E5 		strb	r3, [r4]
 6984 68fc FEFFFFEB 		bl	uart_transmit
 6985 6900 0010D7E5 		ldrb	r1, [r7]	@ zero_extendqisi2
 6986 6904 0030D5E5 		ldrb	r3, [r5]	@ zero_extendqisi2
 6987 6908 0020D4E5 		ldrb	r2, [r4]	@ zero_extendqisi2
 6988 690c 033081E0 		add	r3, r1, r3
 6989 6910 FF3003E2 		and	r3, r3, #255
 6990 6914 0030C5E5 		strb	r3, [r5]
 6991 6918 18079FE5 		ldr	r0, .L389
 6992 691c 023083E0 		add	r3, r3, r2
 6993 6920 0030C4E5 		strb	r3, [r4]
 6994 6924 FEFFFFEB 		bl	uart_transmit
 6995 6928 0110D7E5 		ldrb	r1, [r7, #1]	@ zero_extendqisi2
 6996 692c 0030D5E5 		ldrb	r3, [r5]	@ zero_extendqisi2
 6997 6930 0020D4E5 		ldrb	r2, [r4]	@ zero_extendqisi2
 6998 6934 033081E0 		add	r3, r1, r3
 6999 6938 FF3003E2 		and	r3, r3, #255
 7000 693c 0030C5E5 		strb	r3, [r5]
 7001 6940 F0069FE5 		ldr	r0, .L389
 7002 6944 023083E0 		add	r3, r3, r2
 7003 6948 0030C4E5 		strb	r3, [r4]
 7004 694c FEFFFFEB 		bl	uart_transmit
 7005 6950 0210D7E5 		ldrb	r1, [r7, #2]	@ zero_extendqisi2
 7006 6954 0030D5E5 		ldrb	r3, [r5]	@ zero_extendqisi2
 7007 6958 0020D4E5 		ldrb	r2, [r4]	@ zero_extendqisi2
 7008 695c 033081E0 		add	r3, r1, r3
 7009 6960 FF3003E2 		and	r3, r3, #255
 7010 6964 0030C5E5 		strb	r3, [r5]
 7011 6968 C8069FE5 		ldr	r0, .L389
 7012 696c 023083E0 		add	r3, r3, r2
 7013 6970 0030C4E5 		strb	r3, [r4]
 7014 6974 FEFFFFEB 		bl	uart_transmit
 7015 6978 0310D7E5 		ldrb	r1, [r7, #3]	@ zero_extendqisi2
 7016 697c 0030D5E5 		ldrb	r3, [r5]	@ zero_extendqisi2
 7017 6980 0020D4E5 		ldrb	r2, [r4]	@ zero_extendqisi2
 7018 6984 033081E0 		add	r3, r1, r3
 7019 6988 E8769FE5 		ldr	r7, .L389+64
 7020 698c FF3003E2 		and	r3, r3, #255
 7021 6990 0030C5E5 		strb	r3, [r5]
 7022 6994 9C069FE5 		ldr	r0, .L389
 7023 6998 023083E0 		add	r3, r3, r2
 7024 699c 0030C4E5 		strb	r3, [r4]
 7025 69a0 FEFFFFEB 		bl	uart_transmit
 7026 69a4 0010D7E5 		ldrb	r1, [r7]	@ zero_extendqisi2
 7027 69a8 0030D5E5 		ldrb	r3, [r5]	@ zero_extendqisi2
 7028 69ac 0020D4E5 		ldrb	r2, [r4]	@ zero_extendqisi2
 7029 69b0 033081E0 		add	r3, r1, r3
 7030 69b4 FF3003E2 		and	r3, r3, #255
 7031 69b8 0030C5E5 		strb	r3, [r5]
 7032 69bc 74069FE5 		ldr	r0, .L389
 7033 69c0 023083E0 		add	r3, r3, r2
 7034 69c4 0030C4E5 		strb	r3, [r4]
 7035 69c8 FEFFFFEB 		bl	uart_transmit
 7036 69cc 0110D7E5 		ldrb	r1, [r7, #1]	@ zero_extendqisi2
 7037 69d0 0030D5E5 		ldrb	r3, [r5]	@ zero_extendqisi2
 7038 69d4 0020D4E5 		ldrb	r2, [r4]	@ zero_extendqisi2
 7039 69d8 033081E0 		add	r3, r1, r3
 7040 69dc FF3003E2 		and	r3, r3, #255
 7041 69e0 0030C5E5 		strb	r3, [r5]
 7042 69e4 4C069FE5 		ldr	r0, .L389
 7043 69e8 023083E0 		add	r3, r3, r2
 7044 69ec 0030C4E5 		strb	r3, [r4]
 7045 69f0 FEFFFFEB 		bl	uart_transmit
 7046 69f4 0210D7E5 		ldrb	r1, [r7, #2]	@ zero_extendqisi2
 7047 69f8 0030D5E5 		ldrb	r3, [r5]	@ zero_extendqisi2
 7048 69fc 0020D4E5 		ldrb	r2, [r4]	@ zero_extendqisi2
 7049 6a00 033081E0 		add	r3, r1, r3
 7050 6a04 FF3003E2 		and	r3, r3, #255
 7051 6a08 0030C5E5 		strb	r3, [r5]
 7052 6a0c 24069FE5 		ldr	r0, .L389
 7053 6a10 023083E0 		add	r3, r3, r2
 7054 6a14 0030C4E5 		strb	r3, [r4]
 7055 6a18 FEFFFFEB 		bl	uart_transmit
 7056 6a1c 0310D7E5 		ldrb	r1, [r7, #3]	@ zero_extendqisi2
 7057 6a20 0030D5E5 		ldrb	r3, [r5]	@ zero_extendqisi2
 7058 6a24 0020D4E5 		ldrb	r2, [r4]	@ zero_extendqisi2
 7059 6a28 033081E0 		add	r3, r1, r3
 7060 6a2c FF3003E2 		and	r3, r3, #255
 7061 6a30 0030C5E5 		strb	r3, [r5]
 7062 6a34 FC059FE5 		ldr	r0, .L389
 7063 6a38 023083E0 		add	r3, r3, r2
 7064 6a3c 0030C4E5 		strb	r3, [r4]
 7065 6a40 FEFFFFEB 		bl	uart_transmit
 7066 6a44 0010D5E5 		ldrb	r1, [r5]	@ zero_extendqisi2
 7067 6a48 E8059FE5 		ldr	r0, .L389
 7068 6a4c FEFFFFEB 		bl	uart_transmit
 7069 6a50 E0059FE5 		ldr	r0, .L389
 7070 6a54 0010D4E5 		ldrb	r1, [r4]	@ zero_extendqisi2
 7071 6a58 FEFFFFEB 		bl	uart_transmit
 7072 6a5c 030000EA 		b	.L223
 7073              	.L224:
 7074 6a60 88369FE5 		ldr	r3, .L389+184
 7075 6a64 0020D3E5 		ldrb	r2, [r3]	@ zero_extendqisi2
 7076 6a68 012082E2 		add	r2, r2, #1
 7077 6a6c 0020C3E5 		strb	r2, [r3]
 7078              	.L223:
 7079 6a70 04369FE5 		ldr	r3, .L389+68
 7080 6a74 0030D3E5 		ldrb	r3, [r3]	@ zero_extendqisi2
 7081 6a78 3C0053E3 		cmp	r3, #60
 7082 6a7c B201001A 		bne	.L225
 7083 6a80 B0059FE5 		ldr	r0, .L389
 7084 6a84 2610A0E3 		mov	r1, #38
 7085 6a88 FEFFFFEB 		bl	uart_check_free_space
 7086 6a8c 000050E3 		cmp	r0, #0
 7087 6a90 A901000A 		beq	.L226
 7088 6a94 90369FE5 		ldr	r3, .L389+244
 7089 6a98 B020D3E1 		ldrh	r2, [r3]
 7090 6a9c 262082E2 		add	r2, r2, #38
 7091 6aa0 B020C3E1 		strh	r2, [r3]	@ movhi
 7092 6aa4 84369FE5 		ldr	r3, .L389+248
 7093 6aa8 B020D3E1 		ldrh	r2, [r3]
 7094 6aac 84059FE5 		ldr	r0, .L389
 7095 6ab0 012082E2 		add	r2, r2, #1
 7096 6ab4 9910A0E3 		mov	r1, #153
 7097 6ab8 20569FE5 		ldr	r5, .L389+168
 7098 6abc B020C3E1 		strh	r2, [r3]	@ movhi
 7099 6ac0 FEFFFFEB 		bl	uart_transmit
 7100 6ac4 6C059FE5 		ldr	r0, .L389
 7101 6ac8 2610A0E3 		mov	r1, #38
 7102 6acc 64469FE5 		ldr	r4, .L389+256
 7103 6ad0 FEFFFFEB 		bl	uart_transmit
 7104 6ad4 2830A0E3 		mov	r3, #40
 7105 6ad8 0030C5E5 		strb	r3, [r5]
 7106 6adc 54059FE5 		ldr	r0, .L389
 7107 6ae0 4E30A0E3 		mov	r3, #78
 7108 6ae4 0210A0E3 		mov	r1, #2
 7109 6ae8 0030C4E5 		strb	r3, [r4]
 7110 6aec FEFFFFEB 		bl	uart_transmit
 7111 6af0 0030D5E5 		ldrb	r3, [r5]	@ zero_extendqisi2
 7112 6af4 0020D4E5 		ldrb	r2, [r4]	@ zero_extendqisi2
 7113 6af8 103083E2 		add	r3, r3, #16
 7114 6afc 7C759FE5 		ldr	r7, .L389+72
 7115 6b00 FF3003E2 		and	r3, r3, #255
 7116 6b04 0030C5E5 		strb	r3, [r5]
 7117 6b08 28059FE5 		ldr	r0, .L389
 7118 6b0c 023083E0 		add	r3, r3, r2
 7119 6b10 1010A0E3 		mov	r1, #16
 7120 6b14 0030C4E5 		strb	r3, [r4]
 7121 6b18 FEFFFFEB 		bl	uart_transmit
 7122 6b1c 0010D7E5 		ldrb	r1, [r7]	@ zero_extendqisi2
 7123 6b20 0030D5E5 		ldrb	r3, [r5]	@ zero_extendqisi2
 7124 6b24 0020D4E5 		ldrb	r2, [r4]	@ zero_extendqisi2
 7125 6b28 033081E0 		add	r3, r1, r3
 7126 6b2c FF3003E2 		and	r3, r3, #255
 7127 6b30 0030C5E5 		strb	r3, [r5]
 7128 6b34 FC049FE5 		ldr	r0, .L389
 7129 6b38 023083E0 		add	r3, r3, r2
 7130 6b3c 0030C4E5 		strb	r3, [r4]
 7131 6b40 FEFFFFEB 		bl	uart_transmit
 7132 6b44 0110D7E5 		ldrb	r1, [r7, #1]	@ zero_extendqisi2
 7133 6b48 0030D5E5 		ldrb	r3, [r5]	@ zero_extendqisi2
 7134 6b4c 0020D4E5 		ldrb	r2, [r4]	@ zero_extendqisi2
 7135 6b50 033081E0 		add	r3, r1, r3
 7136 6b54 FF3003E2 		and	r3, r3, #255
 7137 6b58 0030C5E5 		strb	r3, [r5]
 7138 6b5c D4049FE5 		ldr	r0, .L389
 7139 6b60 023083E0 		add	r3, r3, r2
 7140 6b64 0030C4E5 		strb	r3, [r4]
 7141 6b68 FEFFFFEB 		bl	uart_transmit
 7142 6b6c 0210D7E5 		ldrb	r1, [r7, #2]	@ zero_extendqisi2
 7143 6b70 0030D5E5 		ldrb	r3, [r5]	@ zero_extendqisi2
 7144 6b74 0020D4E5 		ldrb	r2, [r4]	@ zero_extendqisi2
 7145 6b78 033081E0 		add	r3, r1, r3
 7146 6b7c FF3003E2 		and	r3, r3, #255
 7147 6b80 0030C5E5 		strb	r3, [r5]
 7148 6b84 AC049FE5 		ldr	r0, .L389
 7149 6b88 023083E0 		add	r3, r3, r2
 7150 6b8c 0030C4E5 		strb	r3, [r4]
 7151 6b90 FEFFFFEB 		bl	uart_transmit
 7152 6b94 0310D7E5 		ldrb	r1, [r7, #3]	@ zero_extendqisi2
 7153 6b98 0030D5E5 		ldrb	r3, [r5]	@ zero_extendqisi2
 7154 6b9c 0020D4E5 		ldrb	r2, [r4]	@ zero_extendqisi2
 7155 6ba0 033081E0 		add	r3, r1, r3
 7156 6ba4 D8749FE5 		ldr	r7, .L389+76
 7157 6ba8 FF3003E2 		and	r3, r3, #255
 7158 6bac 0030C5E5 		strb	r3, [r5]
 7159 6bb0 80049FE5 		ldr	r0, .L389
 7160 6bb4 023083E0 		add	r3, r3, r2
 7161 6bb8 0030C4E5 		strb	r3, [r4]
 7162 6bbc FEFFFFEB 		bl	uart_transmit
 7163 6bc0 0010D7E5 		ldrb	r1, [r7]	@ zero_extendqisi2
 7164 6bc4 0030D5E5 		ldrb	r3, [r5]	@ zero_extendqisi2
 7165 6bc8 0020D4E5 		ldrb	r2, [r4]	@ zero_extendqisi2
 7166 6bcc 033081E0 		add	r3, r1, r3
 7167 6bd0 FF3003E2 		and	r3, r3, #255
 7168 6bd4 0030C5E5 		strb	r3, [r5]
 7169 6bd8 58049FE5 		ldr	r0, .L389
 7170 6bdc 023083E0 		add	r3, r3, r2
 7171 6be0 0030C4E5 		strb	r3, [r4]
 7172 6be4 FEFFFFEB 		bl	uart_transmit
 7173 6be8 0110D7E5 		ldrb	r1, [r7, #1]	@ zero_extendqisi2
 7174 6bec 0030D5E5 		ldrb	r3, [r5]	@ zero_extendqisi2
 7175 6bf0 0020D4E5 		ldrb	r2, [r4]	@ zero_extendqisi2
 7176 6bf4 033081E0 		add	r3, r1, r3
 7177 6bf8 FF3003E2 		and	r3, r3, #255
 7178 6bfc 0030C5E5 		strb	r3, [r5]
 7179 6c00 30049FE5 		ldr	r0, .L389
 7180 6c04 023083E0 		add	r3, r3, r2
 7181 6c08 0030C4E5 		strb	r3, [r4]
 7182 6c0c FEFFFFEB 		bl	uart_transmit
 7183 6c10 0210D7E5 		ldrb	r1, [r7, #2]	@ zero_extendqisi2
 7184 6c14 0030D5E5 		ldrb	r3, [r5]	@ zero_extendqisi2
 7185 6c18 0020D4E5 		ldrb	r2, [r4]	@ zero_extendqisi2
 7186 6c1c 033081E0 		add	r3, r1, r3
 7187 6c20 FF3003E2 		and	r3, r3, #255
 7188 6c24 0030C5E5 		strb	r3, [r5]
 7189 6c28 08049FE5 		ldr	r0, .L389
 7190 6c2c 023083E0 		add	r3, r3, r2
 7191 6c30 0030C4E5 		strb	r3, [r4]
 7192 6c34 FEFFFFEB 		bl	uart_transmit
 7193 6c38 0310D7E5 		ldrb	r1, [r7, #3]	@ zero_extendqisi2
 7194 6c3c 0030D5E5 		ldrb	r3, [r5]	@ zero_extendqisi2
 7195 6c40 0020D4E5 		ldrb	r2, [r4]	@ zero_extendqisi2
 7196 6c44 033081E0 		add	r3, r1, r3
 7197 6c48 38749FE5 		ldr	r7, .L389+80
 7198 6c4c FF3003E2 		and	r3, r3, #255
 7199 6c50 0030C5E5 		strb	r3, [r5]
 7200 6c54 DC039FE5 		ldr	r0, .L389
 7201 6c58 023083E0 		add	r3, r3, r2
 7202 6c5c 0030C4E5 		strb	r3, [r4]
 7203 6c60 FEFFFFEB 		bl	uart_transmit
 7204 6c64 0010D7E5 		ldrb	r1, [r7]	@ zero_extendqisi2
 7205 6c68 0030D5E5 		ldrb	r3, [r5]	@ zero_extendqisi2
 7206 6c6c 0020D4E5 		ldrb	r2, [r4]	@ zero_extendqisi2
 7207 6c70 033081E0 		add	r3, r1, r3
 7208 6c74 FF3003E2 		and	r3, r3, #255
 7209 6c78 0030C5E5 		strb	r3, [r5]
 7210 6c7c B4039FE5 		ldr	r0, .L389
 7211 6c80 023083E0 		add	r3, r3, r2
 7212 6c84 0030C4E5 		strb	r3, [r4]
 7213 6c88 FEFFFFEB 		bl	uart_transmit
 7214 6c8c 0110D7E5 		ldrb	r1, [r7, #1]	@ zero_extendqisi2
 7215 6c90 0030D5E5 		ldrb	r3, [r5]	@ zero_extendqisi2
 7216 6c94 0020D4E5 		ldrb	r2, [r4]	@ zero_extendqisi2
 7217 6c98 033081E0 		add	r3, r1, r3
 7218 6c9c FF3003E2 		and	r3, r3, #255
 7219 6ca0 0030C5E5 		strb	r3, [r5]
 7220 6ca4 8C039FE5 		ldr	r0, .L389
 7221 6ca8 023083E0 		add	r3, r3, r2
 7222 6cac 0030C4E5 		strb	r3, [r4]
 7223 6cb0 FEFFFFEB 		bl	uart_transmit
 7224 6cb4 0210D7E5 		ldrb	r1, [r7, #2]	@ zero_extendqisi2
 7225 6cb8 0030D5E5 		ldrb	r3, [r5]	@ zero_extendqisi2
 7226 6cbc 0020D4E5 		ldrb	r2, [r4]	@ zero_extendqisi2
 7227 6cc0 033081E0 		add	r3, r1, r3
 7228 6cc4 FF3003E2 		and	r3, r3, #255
 7229 6cc8 0030C5E5 		strb	r3, [r5]
 7230 6ccc 64039FE5 		ldr	r0, .L389
 7231 6cd0 023083E0 		add	r3, r3, r2
 7232 6cd4 0030C4E5 		strb	r3, [r4]
 7233 6cd8 FEFFFFEB 		bl	uart_transmit
 7234 6cdc 0310D7E5 		ldrb	r1, [r7, #3]	@ zero_extendqisi2
 7235 6ce0 0030D5E5 		ldrb	r3, [r5]	@ zero_extendqisi2
 7236 6ce4 0020D4E5 		ldrb	r2, [r4]	@ zero_extendqisi2
 7237 6ce8 033081E0 		add	r3, r1, r3
 7238 6cec 98739FE5 		ldr	r7, .L389+84
 7239 6cf0 FF3003E2 		and	r3, r3, #255
 7240 6cf4 0030C5E5 		strb	r3, [r5]
 7241 6cf8 38039FE5 		ldr	r0, .L389
 7242 6cfc 023083E0 		add	r3, r3, r2
 7243 6d00 0030C4E5 		strb	r3, [r4]
 7244 6d04 FEFFFFEB 		bl	uart_transmit
 7245 6d08 0010D7E5 		ldrb	r1, [r7]	@ zero_extendqisi2
 7246 6d0c 0030D5E5 		ldrb	r3, [r5]	@ zero_extendqisi2
 7247 6d10 0020D4E5 		ldrb	r2, [r4]	@ zero_extendqisi2
 7248 6d14 033081E0 		add	r3, r1, r3
 7249 6d18 FF3003E2 		and	r3, r3, #255
 7250 6d1c 0030C5E5 		strb	r3, [r5]
 7251 6d20 10039FE5 		ldr	r0, .L389
 7252 6d24 023083E0 		add	r3, r3, r2
 7253 6d28 0030C4E5 		strb	r3, [r4]
 7254 6d2c FEFFFFEB 		bl	uart_transmit
 7255 6d30 0110D7E5 		ldrb	r1, [r7, #1]	@ zero_extendqisi2
 7256 6d34 0030D5E5 		ldrb	r3, [r5]	@ zero_extendqisi2
 7257 6d38 0020D4E5 		ldrb	r2, [r4]	@ zero_extendqisi2
 7258 6d3c 033081E0 		add	r3, r1, r3
 7259 6d40 FF3003E2 		and	r3, r3, #255
 7260 6d44 0030C5E5 		strb	r3, [r5]
 7261 6d48 E8029FE5 		ldr	r0, .L389
 7262 6d4c 023083E0 		add	r3, r3, r2
 7263 6d50 0030C4E5 		strb	r3, [r4]
 7264 6d54 FEFFFFEB 		bl	uart_transmit
 7265 6d58 0210D7E5 		ldrb	r1, [r7, #2]	@ zero_extendqisi2
 7266 6d5c 0030D5E5 		ldrb	r3, [r5]	@ zero_extendqisi2
 7267 6d60 0020D4E5 		ldrb	r2, [r4]	@ zero_extendqisi2
 7268 6d64 033081E0 		add	r3, r1, r3
 7269 6d68 FF3003E2 		and	r3, r3, #255
 7270 6d6c 0030C5E5 		strb	r3, [r5]
 7271 6d70 C0029FE5 		ldr	r0, .L389
 7272 6d74 023083E0 		add	r3, r3, r2
 7273 6d78 0030C4E5 		strb	r3, [r4]
 7274 6d7c FEFFFFEB 		bl	uart_transmit
 7275 6d80 0310D7E5 		ldrb	r1, [r7, #3]	@ zero_extendqisi2
 7276 6d84 0030D5E5 		ldrb	r3, [r5]	@ zero_extendqisi2
 7277 6d88 0020D4E5 		ldrb	r2, [r4]	@ zero_extendqisi2
 7278 6d8c 033081E0 		add	r3, r1, r3
 7279 6d90 F8729FE5 		ldr	r7, .L389+88
 7280 6d94 FF3003E2 		and	r3, r3, #255
 7281 6d98 0030C5E5 		strb	r3, [r5]
 7282 6d9c 94029FE5 		ldr	r0, .L389
 7283 6da0 023083E0 		add	r3, r3, r2
 7284 6da4 0030C4E5 		strb	r3, [r4]
 7285 6da8 FEFFFFEB 		bl	uart_transmit
 7286 6dac 0010D7E5 		ldrb	r1, [r7]	@ zero_extendqisi2
 7287 6db0 0030D5E5 		ldrb	r3, [r5]	@ zero_extendqisi2
 7288 6db4 0020D4E5 		ldrb	r2, [r4]	@ zero_extendqisi2
 7289 6db8 033081E0 		add	r3, r1, r3
 7290 6dbc FF3003E2 		and	r3, r3, #255
 7291 6dc0 0030C5E5 		strb	r3, [r5]
 7292 6dc4 6C029FE5 		ldr	r0, .L389
 7293 6dc8 023083E0 		add	r3, r3, r2
 7294 6dcc 0030C4E5 		strb	r3, [r4]
 7295 6dd0 FEFFFFEB 		bl	uart_transmit
 7296 6dd4 0110D7E5 		ldrb	r1, [r7, #1]	@ zero_extendqisi2
 7297 6dd8 0030D5E5 		ldrb	r3, [r5]	@ zero_extendqisi2
 7298 6ddc 0020D4E5 		ldrb	r2, [r4]	@ zero_extendqisi2
 7299 6de0 033081E0 		add	r3, r1, r3
 7300 6de4 FF3003E2 		and	r3, r3, #255
 7301 6de8 0030C5E5 		strb	r3, [r5]
 7302 6dec 44029FE5 		ldr	r0, .L389
 7303 6df0 023083E0 		add	r3, r3, r2
 7304 6df4 0030C4E5 		strb	r3, [r4]
 7305 6df8 FEFFFFEB 		bl	uart_transmit
 7306 6dfc 0210D7E5 		ldrb	r1, [r7, #2]	@ zero_extendqisi2
 7307 6e00 0030D5E5 		ldrb	r3, [r5]	@ zero_extendqisi2
 7308 6e04 0020D4E5 		ldrb	r2, [r4]	@ zero_extendqisi2
 7309 6e08 033081E0 		add	r3, r1, r3
 7310 6e0c FF3003E2 		and	r3, r3, #255
 7311 6e10 0030C5E5 		strb	r3, [r5]
 7312 6e14 1C029FE5 		ldr	r0, .L389
 7313 6e18 023083E0 		add	r3, r3, r2
 7314 6e1c 0030C4E5 		strb	r3, [r4]
 7315 6e20 FEFFFFEB 		bl	uart_transmit
 7316 6e24 0310D7E5 		ldrb	r1, [r7, #3]	@ zero_extendqisi2
 7317 6e28 0030D5E5 		ldrb	r3, [r5]	@ zero_extendqisi2
 7318 6e2c 0020D4E5 		ldrb	r2, [r4]	@ zero_extendqisi2
 7319 6e30 033081E0 		add	r3, r1, r3
 7320 6e34 58729FE5 		ldr	r7, .L389+92
 7321 6e38 FF3003E2 		and	r3, r3, #255
 7322 6e3c 0030C5E5 		strb	r3, [r5]
 7323 6e40 F0019FE5 		ldr	r0, .L389
 7324 6e44 023083E0 		add	r3, r3, r2
 7325 6e48 0030C4E5 		strb	r3, [r4]
 7326 6e4c FEFFFFEB 		bl	uart_transmit
 7327 6e50 0010D7E5 		ldrb	r1, [r7]	@ zero_extendqisi2
 7328 6e54 0030D5E5 		ldrb	r3, [r5]	@ zero_extendqisi2
 7329 6e58 0020D4E5 		ldrb	r2, [r4]	@ zero_extendqisi2
 7330 6e5c 033081E0 		add	r3, r1, r3
 7331 6e60 FF3003E2 		and	r3, r3, #255
 7332 6e64 0030C5E5 		strb	r3, [r5]
 7333 6e68 C8019FE5 		ldr	r0, .L389
 7334 6e6c 023083E0 		add	r3, r3, r2
 7335 6e70 0030C4E5 		strb	r3, [r4]
 7336 6e74 FEFFFFEB 		bl	uart_transmit
 7337 6e78 0110D7E5 		ldrb	r1, [r7, #1]	@ zero_extendqisi2
 7338 6e7c 0030D5E5 		ldrb	r3, [r5]	@ zero_extendqisi2
 7339 6e80 0020D4E5 		ldrb	r2, [r4]	@ zero_extendqisi2
 7340 6e84 033081E0 		add	r3, r1, r3
 7341 6e88 FF3003E2 		and	r3, r3, #255
 7342 6e8c 0030C5E5 		strb	r3, [r5]
 7343 6e90 A0019FE5 		ldr	r0, .L389
 7344 6e94 023083E0 		add	r3, r3, r2
 7345 6e98 0030C4E5 		strb	r3, [r4]
 7346 6e9c FEFFFFEB 		bl	uart_transmit
 7347 6ea0 0210D7E5 		ldrb	r1, [r7, #2]	@ zero_extendqisi2
 7348 6ea4 0030D5E5 		ldrb	r3, [r5]	@ zero_extendqisi2
 7349 6ea8 0020D4E5 		ldrb	r2, [r4]	@ zero_extendqisi2
 7350 6eac 033081E0 		add	r3, r1, r3
 7351 6eb0 FF3003E2 		and	r3, r3, #255
 7352 6eb4 0030C5E5 		strb	r3, [r5]
 7353 6eb8 78019FE5 		ldr	r0, .L389
 7354 6ebc 023083E0 		add	r3, r3, r2
 7355 6ec0 0030C4E5 		strb	r3, [r4]
 7356 6ec4 FEFFFFEB 		bl	uart_transmit
 7357 6ec8 0310D7E5 		ldrb	r1, [r7, #3]	@ zero_extendqisi2
 7358 6ecc 0030D5E5 		ldrb	r3, [r5]	@ zero_extendqisi2
 7359 6ed0 0020D4E5 		ldrb	r2, [r4]	@ zero_extendqisi2
 7360 6ed4 033081E0 		add	r3, r1, r3
 7361 6ed8 B8719FE5 		ldr	r7, .L389+96
 7362 6edc FF3003E2 		and	r3, r3, #255
 7363 6ee0 0030C5E5 		strb	r3, [r5]
 7364 6ee4 4C019FE5 		ldr	r0, .L389
 7365 6ee8 023083E0 		add	r3, r3, r2
 7366 6eec 0030C4E5 		strb	r3, [r4]
 7367 6ef0 FEFFFFEB 		bl	uart_transmit
 7368 6ef4 0010D7E5 		ldrb	r1, [r7]	@ zero_extendqisi2
 7369 6ef8 0030D5E5 		ldrb	r3, [r5]	@ zero_extendqisi2
 7370 6efc 0020D4E5 		ldrb	r2, [r4]	@ zero_extendqisi2
 7371 6f00 033081E0 		add	r3, r1, r3
 7372 6f04 FF3003E2 		and	r3, r3, #255
 7373 6f08 0030C5E5 		strb	r3, [r5]
 7374 6f0c 24019FE5 		ldr	r0, .L389
 7375 6f10 023083E0 		add	r3, r3, r2
 7376 6f14 0030C4E5 		strb	r3, [r4]
 7377 6f18 FEFFFFEB 		bl	uart_transmit
 7378 6f1c 0110D7E5 		ldrb	r1, [r7, #1]	@ zero_extendqisi2
 7379 6f20 0030D5E5 		ldrb	r3, [r5]	@ zero_extendqisi2
 7380 6f24 0020D4E5 		ldrb	r2, [r4]	@ zero_extendqisi2
 7381 6f28 033081E0 		add	r3, r1, r3
 7382 6f2c FF3003E2 		and	r3, r3, #255
 7383 6f30 0030C5E5 		strb	r3, [r5]
 7384 6f34 FC009FE5 		ldr	r0, .L389
 7385 6f38 023083E0 		add	r3, r3, r2
 7386 6f3c 0030C4E5 		strb	r3, [r4]
 7387 6f40 FEFFFFEB 		bl	uart_transmit
 7388 6f44 0210D7E5 		ldrb	r1, [r7, #2]	@ zero_extendqisi2
 7389 6f48 0030D5E5 		ldrb	r3, [r5]	@ zero_extendqisi2
 7390 6f4c 0020D4E5 		ldrb	r2, [r4]	@ zero_extendqisi2
 7391 6f50 033081E0 		add	r3, r1, r3
 7392 6f54 FF3003E2 		and	r3, r3, #255
 7393 6f58 0030C5E5 		strb	r3, [r5]
 7394 6f5c D4009FE5 		ldr	r0, .L389
 7395 6f60 023083E0 		add	r3, r3, r2
 7396 6f64 0030C4E5 		strb	r3, [r4]
 7397 6f68 FEFFFFEB 		bl	uart_transmit
 7398 6f6c 0310D7E5 		ldrb	r1, [r7, #3]	@ zero_extendqisi2
 7399 6f70 0030D5E5 		ldrb	r3, [r5]	@ zero_extendqisi2
 7400 6f74 0020D4E5 		ldrb	r2, [r4]	@ zero_extendqisi2
 7401 6f78 033081E0 		add	r3, r1, r3
 7402 6f7c FF3003E2 		and	r3, r3, #255
 7403 6f80 0030C5E5 		strb	r3, [r5]
 7404 6f84 AC009FE5 		ldr	r0, .L389
 7405 6f88 023083E0 		add	r3, r3, r2
 7406 6f8c 0030C4E5 		strb	r3, [r4]
 7407 6f90 FEFFFFEB 		bl	uart_transmit
 7408 6f94 0020D4E5 		ldrb	r2, [r4]	@ zero_extendqisi2
 7409 6f98 0030D5E5 		ldrb	r3, [r5]	@ zero_extendqisi2
 7410 6f9c 94009FE5 		ldr	r0, .L389
 7411 6fa0 033082E0 		add	r3, r2, r3
 7412 6fa4 0010A0E3 		mov	r1, #0
 7413 6fa8 0030C4E5 		strb	r3, [r4]
 7414 6fac FEFFFFEB 		bl	uart_transmit
 7415 6fb0 0020D4E5 		ldrb	r2, [r4]	@ zero_extendqisi2
 7416 6fb4 0030D5E5 		ldrb	r3, [r5]	@ zero_extendqisi2
 7417 6fb8 78009FE5 		ldr	r0, .L389
 7418 6fbc 033082E0 		add	r3, r2, r3
 7419 6fc0 0010A0E3 		mov	r1, #0
 7420 6fc4 0030C4E5 		strb	r3, [r4]
 7421 6fc8 FEFFFFEB 		bl	uart_transmit
 7422 6fcc 0030D5E5 		ldrb	r3, [r5]	@ zero_extendqisi2
 7423 6fd0 0020D4E5 		ldrb	r2, [r4]	@ zero_extendqisi2
 7424 6fd4 703043E2 		sub	r3, r3, #112
 7425 6fd8 FF3003E2 		and	r3, r3, #255
 7426 6fdc 0030C5E5 		strb	r3, [r5]
 7427 6fe0 50009FE5 		ldr	r0, .L389
 7428 6fe4 023083E0 		add	r3, r3, r2
 7429 6fe8 9010A0E3 		mov	r1, #144
 7430 6fec 0030C4E5 		strb	r3, [r4]
 7431 6ff0 FEFFFFEB 		bl	uart_transmit
 7432 6ff4 0030D5E5 		ldrb	r3, [r5]	@ zero_extendqisi2
 7433 6ff8 0020D4E5 		ldrb	r2, [r4]	@ zero_extendqisi2
 7434 6ffc 413083E2 		add	r3, r3, #65
 7435 7000 FF3003E2 		and	r3, r3, #255
 7436 7004 0030C5E5 		strb	r3, [r5]
 7437 7008 28009FE5 		ldr	r0, .L389
 7438 700c 023083E0 		add	r3, r3, r2
 7439 7010 4110A0E3 		mov	r1, #65
 7440 7014 0030C4E5 		strb	r3, [r4]
 7441 7018 FEFFFFEB 		bl	uart_transmit
 7442 701c 0010D5E5 		ldrb	r1, [r5]	@ zero_extendqisi2
 7443 7020 10009FE5 		ldr	r0, .L389
 7444 7024 FEFFFFEB 		bl	uart_transmit
 7445 7028 08009FE5 		ldr	r0, .L389
 7446 702c 0010D4E5 		ldrb	r1, [r4]	@ zero_extendqisi2
 7447 7030 FEFFFFEB 		bl	uart_transmit
 7448 7034 440000EA 		b	.L225
 7449              	.L390:
 7450              		.align	2
 7451              	.L389:
 7452 7038 00000000 		.word	uart1
 7453 703c 00000000 		.word	nav_oval_count
 7454 7040 00000000 		.word	.LANCHOR32
 7455 7044 00000000 		.word	nav_in_circle
 7456 7048 00000000 		.word	nav_circle_x
 7457 704c 00000000 		.word	nav_circle_y
 7458 7050 00000000 		.word	nav_circle_radius
 7459 7054 00000000 		.word	.LANCHOR33
 7460 7058 00000000 		.word	nav_in_segment
 7461 705c 00000000 		.word	nav_segment_x_1
 7462 7060 00000000 		.word	nav_segment_y_1
 7463 7064 00000000 		.word	nav_segment_x_2
 7464 7068 00000000 		.word	nav_segment_y_2
 7465 706c 00000000 		.word	.LANCHOR34
 7466 7070 00000000 		.word	estimator_phi
 7467 7074 00000000 		.word	estimator_psi
 7468 7078 00000000 		.word	estimator_theta
 7469 707c 00000000 		.word	.LANCHOR35
 7470 7080 00000000 		.word	h_ctl_roll_setpoint
 7471 7084 00000000 		.word	h_ctl_pitch_loop_setpoint
 7472 7088 00000000 		.word	h_ctl_course_setpoint
 7473 708c 00000000 		.word	desired_x
 7474 7090 00000000 		.word	desired_y
 7475 7094 00000000 		.word	v_ctl_altitude_setpoint
 7476 7098 00000000 		.word	v_ctl_climb_setpoint
 7477 709c 00000000 		.word	.LANCHOR36
 7478 70a0 00000000 		.word	.LC0
 7479 70a4 00000000 		.word	.LANCHOR20
 7480 70a8 00000000 		.word	v_ctl_mode
 7481 70ac 00000000 		.word	.LANCHOR22
 7482 70b0 00000000 		.word	horizontal_mode
 7483 70b4 00000000 		.word	.LANCHOR23
 7484 70b8 00000000 		.word	gps
 7485 70bc 00000000 		.word	.LANCHOR37
 7486 70c0 00000000 		.word	v_ctl_auto_throttle_sum_err
 7487 70c4 00000000 		.word	v_ctl_auto_throttle_submode
 7488 70c8 00000000 		.word	.LANCHOR44
 7489 70cc 66661440 		.word	1075078758
 7490 70d0 66666666 		.word	1717986918
 7491 70d4 00000000 		.word	.LANCHOR38
 7492 70d8 00000000 		.word	infrared
 7493 70dc 00000000 		.word	.LANCHOR39
 7494 70e0 00000000 		.word	ck_a
 7495 70e4 00000000 		.word	nav_utm_east0
 7496 70e8 00000000 		.word	nav_utm_north0
 7497 70ec 00000000 		.word	nav_utm_zone0
 7498 70f0 00000000 		.word	downlink_nb_ovrn
 7499 70f4 00000000 		.word	.LANCHOR45
 7500 70f8 00000000 		.word	.LANCHOR46
 7501 70fc 31010000 		.word	305
 7502 7100 00000000 		.word	.LANCHOR47
 7503 7104 3D010000 		.word	317
 7504 7108 00000000 		.word	.LANCHOR48
 7505 710c 00000000 		.word	.LANCHOR49
 7506 7110 49010000 		.word	329
 7507 7114 00000000 		.word	.LANCHOR50
 7508 7118 55010000 		.word	341
 7509 711c 00000000 		.word	.LANCHOR51
 7510 7120 5D020000 		.word	605
 7511 7124 00000000 		.word	.LANCHOR52
 7512 7128 00000000 		.word	.LANCHOR53
 7513 712c 00000000 		.word	downlink_nb_bytes
 7514 7130 00000000 		.word	downlink_nb_msgs
 7515 7134 00000000 		.word	uart1
 7516 7138 00000000 		.word	ck_b
 7517              	.L226:
 7518 713c 54301FE5 		ldr	r3, .L389+184
 7519 7140 0020D3E5 		ldrb	r2, [r3]	@ zero_extendqisi2
 7520 7144 012082E2 		add	r2, r2, #1
 7521 7148 0020C3E5 		strb	r2, [r3]
 7522              	.L225:
 7523 714c B8301FE5 		ldr	r3, .L389+100
 7524 7150 B030D3E1 		ldrh	r3, [r3]
 7525 7154 420053E3 		cmp	r3, #66
 7526 7158 4600001A 		bne	.L227
 7527 715c 30001FE5 		ldr	r0, .L389+252
 7528 7160 1710A0E3 		mov	r1, #23
 7529 7164 FEFFFFEB 		bl	uart_check_free_space
 7530 7168 000050E3 		cmp	r0, #0
 7531 716c 8D01000A 		beq	.L238
 7532 7170 4C301FE5 		ldr	r3, .L389+244
 7533 7174 B020D3E1 		ldrh	r2, [r3]
 7534 7178 172082E2 		add	r2, r2, #23
 7535 717c B020C3E1 		strh	r2, [r3]	@ movhi
 7536 7180 58301FE5 		ldr	r3, .L389+248
 7537 7184 B020D3E1 		ldrh	r2, [r3]
 7538 7188 5C001FE5 		ldr	r0, .L389+252
 7539 718c 012082E2 		add	r2, r2, #1
 7540 7190 9910A0E3 		mov	r1, #153
 7541 7194 B020C3E1 		strh	r2, [r3]	@ movhi
 7542 7198 C0501FE5 		ldr	r5, .L389+168
 7543 719c FEFFFFEB 		bl	uart_transmit
 7544 71a0 74001FE5 		ldr	r0, .L389+252
 7545 71a4 1710A0E3 		mov	r1, #23
 7546 71a8 FEFFFFEB 		bl	uart_transmit
 7547 71ac 7C401FE5 		ldr	r4, .L389+256
 7548 71b0 1930A0E3 		mov	r3, #25
 7549 71b4 0030C5E5 		strb	r3, [r5]
 7550 71b8 8C001FE5 		ldr	r0, .L389+252
 7551 71bc 3030A0E3 		mov	r3, #48
 7552 71c0 0210A0E3 		mov	r1, #2
 7553 71c4 0030C4E5 		strb	r3, [r4]
 7554 71c8 FEFFFFEB 		bl	uart_transmit
 7555 71cc 0030D5E5 		ldrb	r3, [r5]	@ zero_extendqisi2
 7556 71d0 0020D4E5 		ldrb	r2, [r4]	@ zero_extendqisi2
 7557 71d4 023083E2 		add	r3, r3, #2
 7558 71d8 FF3003E2 		and	r3, r3, #255
 7559 71dc 0030C5E5 		strb	r3, [r5]
 7560 71e0 B4001FE5 		ldr	r0, .L389+252
 7561 71e4 023083E0 		add	r3, r3, r2
 7562 71e8 0210A0E3 		mov	r1, #2
 7563 71ec 0030C4E5 		strb	r3, [r4]
 7564 71f0 FEFFFFEB 		bl	uart_transmit
 7565 71f4 0030D5E5 		ldrb	r3, [r5]	@ zero_extendqisi2
 7566 71f8 0020D4E5 		ldrb	r2, [r4]	@ zero_extendqisi2
 7567 71fc 103083E2 		add	r3, r3, #16
 7568 7200 FF3003E2 		and	r3, r3, #255
 7569 7204 0030C5E5 		strb	r3, [r5]
 7570 7208 DC001FE5 		ldr	r0, .L389+252
 7571 720c 023083E0 		add	r3, r3, r2
 7572 7210 1010A0E3 		mov	r1, #16
 7573 7214 0030C4E5 		strb	r3, [r4]
 7574 7218 FEFFFFEB 		bl	uart_transmit
 7575 721c 0070A0E3 		mov	r7, #0
 7576              	.L230:
 7577 7220 88311FE5 		ldr	r3, .L389+104
 7578 7224 0710D3E7 		ldrb	r1, [r3, r7]	@ zero_extendqisi2
 7579 7228 0030D5E5 		ldrb	r3, [r5]	@ zero_extendqisi2
 7580 722c 0020D4E5 		ldrb	r2, [r4]	@ zero_extendqisi2
 7581 7230 033081E0 		add	r3, r1, r3
 7582 7234 FF3003E2 		and	r3, r3, #255
 7583 7238 0030C5E5 		strb	r3, [r5]
 7584 723c 10011FE5 		ldr	r0, .L389+252
 7585 7240 023083E0 		add	r3, r3, r2
 7586 7244 017087E2 		add	r7, r7, #1
 7587 7248 0030C4E5 		strb	r3, [r4]
 7588 724c FEFFFFEB 		bl	uart_transmit
 7589 7250 100057E3 		cmp	r7, #16
 7590 7254 F1FFFF1A 		bne	.L230
 7591 7258 80311FE5 		ldr	r3, .L389+168
 7592 725c 30011FE5 		ldr	r0, .L389+252
 7593 7260 0010D3E5 		ldrb	r1, [r3]	@ zero_extendqisi2
 7594 7264 FEFFFFEB 		bl	uart_transmit
 7595 7268 38311FE5 		ldr	r3, .L389+256
 7596 726c 40011FE5 		ldr	r0, .L389+252
 7597 7270 0010D3E5 		ldrb	r1, [r3]	@ zero_extendqisi2
 7598 7274 6A0000EA 		b	.L370
 7599              	.L227:
 7600 7278 480053E3 		cmp	r3, #72
 7601 727c 6A00001A 		bne	.L232
 7602 7280 54011FE5 		ldr	r0, .L389+252
 7603 7284 0C10A0E3 		mov	r1, #12
 7604 7288 FEFFFFEB 		bl	uart_check_free_space
 7605 728c 000050E3 		cmp	r0, #0
 7606 7290 4401000A 		beq	.L238
 7607 7294 70311FE5 		ldr	r3, .L389+244
 7608 7298 B020D3E1 		ldrh	r2, [r3]
 7609 729c 0C2082E2 		add	r2, r2, #12
 7610 72a0 B020C3E1 		strh	r2, [r3]	@ movhi
 7611 72a4 7C311FE5 		ldr	r3, .L389+248
 7612 72a8 B020D3E1 		ldrh	r2, [r3]
 7613 72ac 80011FE5 		ldr	r0, .L389+252
 7614 72b0 012082E2 		add	r2, r2, #1
 7615 72b4 9910A0E3 		mov	r1, #153
 7616 72b8 E0511FE5 		ldr	r5, .L389+168
 7617 72bc B020C3E1 		strh	r2, [r3]	@ movhi
 7618 72c0 FEFFFFEB 		bl	uart_transmit
 7619 72c4 98011FE5 		ldr	r0, .L389+252
 7620 72c8 0C10A0E3 		mov	r1, #12
 7621 72cc 9C411FE5 		ldr	r4, .L389+256
 7622 72d0 FEFFFFEB 		bl	uart_transmit
 7623 72d4 0E30A0E3 		mov	r3, #14
 7624 72d8 0030C5E5 		strb	r3, [r5]
 7625 72dc B0011FE5 		ldr	r0, .L389+252
 7626 72e0 1A30A0E3 		mov	r3, #26
 7627 72e4 0210A0E3 		mov	r1, #2
 7628 72e8 0030C4E5 		strb	r3, [r4]
 7629 72ec FEFFFFEB 		bl	uart_transmit
 7630 72f0 0030D5E5 		ldrb	r3, [r5]	@ zero_extendqisi2
 7631 72f4 0020D4E5 		ldrb	r2, [r4]	@ zero_extendqisi2
 7632 72f8 0B3083E2 		add	r3, r3, #11
 7633 72fc FF3003E2 		and	r3, r3, #255
 7634 7300 0030C5E5 		strb	r3, [r5]
 7635 7304 D8011FE5 		ldr	r0, .L389+252
 7636 7308 023083E0 		add	r3, r3, r2
 7637 730c 0B10A0E3 		mov	r1, #11
 7638 7310 0030C4E5 		strb	r3, [r4]
 7639 7314 FEFFFFEB 		bl	uart_transmit
 7640 7318 7C321FE5 		ldr	r3, .L389+108
 7641 731c 0010D3E5 		ldrb	r1, [r3]	@ zero_extendqisi2
 7642 7320 0030D5E5 		ldrb	r3, [r5]	@ zero_extendqisi2
 7643 7324 0020D4E5 		ldrb	r2, [r4]	@ zero_extendqisi2
 7644 7328 033081E0 		add	r3, r1, r3
 7645 732c FF3003E2 		and	r3, r3, #255
 7646 7330 0030C5E5 		strb	r3, [r5]
 7647 7334 08021FE5 		ldr	r0, .L389+252
 7648 7338 023083E0 		add	r3, r3, r2
 7649 733c 0030C4E5 		strb	r3, [r4]
 7650 7340 FEFFFFEB 		bl	uart_transmit
 7651 7344 A4321FE5 		ldr	r3, .L389+112
 7652 7348 0010D3E5 		ldrb	r1, [r3]	@ zero_extendqisi2
 7653 734c 0030D5E5 		ldrb	r3, [r5]	@ zero_extendqisi2
 7654 7350 0020D4E5 		ldrb	r2, [r4]	@ zero_extendqisi2
 7655 7354 033081E0 		add	r3, r1, r3
 7656 7358 FF3003E2 		and	r3, r3, #255
 7657 735c 0030C5E5 		strb	r3, [r5]
 7658 7360 34021FE5 		ldr	r0, .L389+252
 7659 7364 023083E0 		add	r3, r3, r2
 7660 7368 0030C4E5 		strb	r3, [r4]
 7661 736c FEFFFFEB 		bl	uart_transmit
 7662 7370 CC321FE5 		ldr	r3, .L389+116
 7663 7374 0010D3E5 		ldrb	r1, [r3]	@ zero_extendqisi2
 7664 7378 0030D5E5 		ldrb	r3, [r5]	@ zero_extendqisi2
 7665 737c 0020D4E5 		ldrb	r2, [r4]	@ zero_extendqisi2
 7666 7380 033081E0 		add	r3, r1, r3
 7667 7384 FF3003E2 		and	r3, r3, #255
 7668 7388 0030C5E5 		strb	r3, [r5]
 7669 738c 60021FE5 		ldr	r0, .L389+252
 7670 7390 023083E0 		add	r3, r3, r2
 7671 7394 0030C4E5 		strb	r3, [r4]
 7672 7398 FEFFFFEB 		bl	uart_transmit
 7673 739c F4321FE5 		ldr	r3, .L389+120
 7674 73a0 0010D3E5 		ldrb	r1, [r3]	@ zero_extendqisi2
 7675 73a4 0030D5E5 		ldrb	r3, [r5]	@ zero_extendqisi2
 7676 73a8 0020D4E5 		ldrb	r2, [r4]	@ zero_extendqisi2
 7677 73ac 033081E0 		add	r3, r1, r3
 7678 73b0 FF3003E2 		and	r3, r3, #255
 7679 73b4 0030C5E5 		strb	r3, [r5]
 7680 73b8 8C021FE5 		ldr	r0, .L389+252
 7681 73bc 023083E0 		add	r3, r3, r2
 7682 73c0 0030C4E5 		strb	r3, [r4]
 7683 73c4 FEFFFFEB 		bl	uart_transmit
 7684 73c8 0020D4E5 		ldrb	r2, [r4]	@ zero_extendqisi2
 7685 73cc 0030D5E5 		ldrb	r3, [r5]	@ zero_extendqisi2
 7686 73d0 0010A0E3 		mov	r1, #0
 7687 73d4 033082E0 		add	r3, r2, r3
 7688 73d8 AC021FE5 		ldr	r0, .L389+252
 7689 73dc 0030C4E5 		strb	r3, [r4]
 7690 73e0 FEFFFFEB 		bl	uart_transmit
 7691 73e4 38331FE5 		ldr	r3, .L389+124
 7692 73e8 0010D3E5 		ldrb	r1, [r3]	@ zero_extendqisi2
 7693              	.L371:
 7694 73ec 0030D5E5 		ldrb	r3, [r5]	@ zero_extendqisi2
 7695 73f0 0020D4E5 		ldrb	r2, [r4]	@ zero_extendqisi2
 7696 73f4 033081E0 		add	r3, r1, r3
 7697 73f8 FF3003E2 		and	r3, r3, #255
 7698 73fc 0030C5E5 		strb	r3, [r5]
 7699 7400 D4021FE5 		ldr	r0, .L389+252
 7700 7404 023083E0 		add	r3, r3, r2
 7701 7408 0030C4E5 		strb	r3, [r4]
 7702 740c FEFFFFEB 		bl	uart_transmit
 7703 7410 E4021FE5 		ldr	r0, .L389+252
 7704 7414 0010D5E5 		ldrb	r1, [r5]	@ zero_extendqisi2
 7705 7418 FEFFFFEB 		bl	uart_transmit
 7706 741c F0021FE5 		ldr	r0, .L389+252
 7707 7420 0010D4E5 		ldrb	r1, [r4]	@ zero_extendqisi2
 7708              	.L370:
 7709 7424 FEFFFFEB 		bl	uart_transmit
 7710 7428 E20000EA 		b	.L231
 7711              	.L232:
 7712 742c 4E0053E3 		cmp	r3, #78
 7713 7430 4D00001A 		bne	.L234
 7714 7434 64331FE5 		ldr	r3, .L389+160
 7715 7438 F671D3E1 		ldrsh	r7, [r3, #22]
 7716 743c F421D3E1 		ldrsh	r2, [r3, #20]
 7717 7440 F831D3E1 		ldrsh	r3, [r3, #24]
 7718 7444 000052E3 		cmp	r2, #0
 7719 7448 002062B2 		rsblt	r2, r2, #0
 7720 744c 000057E3 		cmp	r7, #0
 7721 7450 007067B2 		rsblt	r7, r7, #0
 7722 7454 000053E3 		cmp	r3, #0
 7723 7458 003063B2 		rsblt	r3, r3, #0
 7724 745c 027087E0 		add	r7, r7, r2
 7725 7460 037087E0 		add	r7, r7, r3
 7726 7464 0778A0E1 		mov	r7, r7, asl #16
 7727 7468 2778A0E1 		mov	r7, r7, lsr #16
 7728 746c 310057E3 		cmp	r7, #49
 7729 7470 44031FE5 		ldr	r0, .L389+252
 7730 7474 0910A0E3 		mov	r1, #9
 7731 7478 BC70CDE1 		strh	r7, [sp, #12]	@ movhi
 7732 747c 0770A093 		movls	r7, #7
 7733 7480 0370A083 		movhi	r7, #3
 7734 7484 FEFFFFEB 		bl	uart_check_free_space
 7735 7488 000050E3 		cmp	r0, #0
 7736 748c C500000A 		beq	.L238
 7737 7490 6C331FE5 		ldr	r3, .L389+244
 7738 7494 B020D3E1 		ldrh	r2, [r3]
 7739 7498 092082E2 		add	r2, r2, #9
 7740 749c B020C3E1 		strh	r2, [r3]	@ movhi
 7741 74a0 78331FE5 		ldr	r3, .L389+248
 7742 74a4 B020D3E1 		ldrh	r2, [r3]
 7743 74a8 7C031FE5 		ldr	r0, .L389+252
 7744 74ac 012082E2 		add	r2, r2, #1
 7745 74b0 9910A0E3 		mov	r1, #153
 7746 74b4 DC531FE5 		ldr	r5, .L389+168
 7747 74b8 B020C3E1 		strh	r2, [r3]	@ movhi
 7748 74bc FEFFFFEB 		bl	uart_transmit
 7749 74c0 94031FE5 		ldr	r0, .L389+252
 7750 74c4 0910A0E3 		mov	r1, #9
 7751 74c8 FEFFFFEB 		bl	uart_transmit
 7752 74cc 9C431FE5 		ldr	r4, .L389+256
 7753 74d0 0B30A0E3 		mov	r3, #11
 7754 74d4 0030C5E5 		strb	r3, [r5]
 7755 74d8 AC031FE5 		ldr	r0, .L389+252
 7756 74dc 1430A0E3 		mov	r3, #20
 7757 74e0 0210A0E3 		mov	r1, #2
 7758 74e4 0030C4E5 		strb	r3, [r4]
 7759 74e8 FEFFFFEB 		bl	uart_transmit
 7760 74ec 0030D5E5 		ldrb	r3, [r5]	@ zero_extendqisi2
 7761 74f0 0020D4E5 		ldrb	r2, [r4]	@ zero_extendqisi2
 7762 74f4 183043E2 		sub	r3, r3, #24
 7763 74f8 FF3003E2 		and	r3, r3, #255
 7764 74fc 0030C5E5 		strb	r3, [r5]
 7765 7500 D4031FE5 		ldr	r0, .L389+252
 7766 7504 023083E0 		add	r3, r3, r2
 7767 7508 E810A0E3 		mov	r1, #232
 7768 750c 0030C4E5 		strb	r3, [r4]
 7769 7510 FEFFFFEB 		bl	uart_transmit
 7770 7514 0030D5E5 		ldrb	r3, [r5]	@ zero_extendqisi2
 7771 7518 0020D4E5 		ldrb	r2, [r4]	@ zero_extendqisi2
 7772 751c 033087E0 		add	r3, r7, r3
 7773 7520 FF3003E2 		and	r3, r3, #255
 7774 7524 0030C5E5 		strb	r3, [r5]
 7775 7528 FC031FE5 		ldr	r0, .L389+252
 7776 752c 023083E0 		add	r3, r3, r2
 7777 7530 0710A0E1 		mov	r1, r7
 7778 7534 0030C4E5 		strb	r3, [r4]
 7779 7538 FEFFFFEB 		bl	uart_transmit
 7780 753c 0C10DDE5 		ldrb	r1, [sp, #12]	@ zero_extendqisi2
 7781 7540 0030D5E5 		ldrb	r3, [r5]	@ zero_extendqisi2
 7782 7544 0020D4E5 		ldrb	r2, [r4]	@ zero_extendqisi2
 7783 7548 033081E0 		add	r3, r1, r3
 7784 754c FF3003E2 		and	r3, r3, #255
 7785 7550 0030C5E5 		strb	r3, [r5]
 7786 7554 28041FE5 		ldr	r0, .L389+252
 7787 7558 023083E0 		add	r3, r3, r2
 7788 755c 0030C4E5 		strb	r3, [r4]
 7789 7560 FEFFFFEB 		bl	uart_transmit
 7790 7564 0D10DDE5 		ldrb	r1, [sp, #13]	@ zero_extendqisi2
 7791 7568 9FFFFFEA 		b	.L371
 7792              	.L234:
 7793 756c 540053E3 		cmp	r3, #84
 7794 7570 9000001A 		bne	.L231
 7795 7574 48041FE5 		ldr	r0, .L389+252
 7796 7578 1110A0E3 		mov	r1, #17
 7797 757c FEFFFFEB 		bl	uart_check_free_space
 7798 7580 000050E3 		cmp	r0, #0
 7799 7584 8700000A 		beq	.L238
 7800 7588 64341FE5 		ldr	r3, .L389+244
 7801 758c B020D3E1 		ldrh	r2, [r3]
 7802 7590 112082E2 		add	r2, r2, #17
 7803 7594 B020C3E1 		strh	r2, [r3]	@ movhi
 7804 7598 70341FE5 		ldr	r3, .L389+248
 7805 759c B020D3E1 		ldrh	r2, [r3]
 7806 75a0 74041FE5 		ldr	r0, .L389+252
 7807 75a4 012082E2 		add	r2, r2, #1
 7808 75a8 9910A0E3 		mov	r1, #153
 7809 75ac D4541FE5 		ldr	r5, .L389+168
 7810 75b0 B020C3E1 		strh	r2, [r3]	@ movhi
 7811 75b4 FEFFFFEB 		bl	uart_transmit
 7812 75b8 8C041FE5 		ldr	r0, .L389+252
 7813 75bc 1110A0E3 		mov	r1, #17
 7814 75c0 90441FE5 		ldr	r4, .L389+256
 7815 75c4 FEFFFFEB 		bl	uart_transmit
 7816 75c8 1330A0E3 		mov	r3, #19
 7817 75cc 0030C5E5 		strb	r3, [r5]
 7818 75d0 A4041FE5 		ldr	r0, .L389+252
 7819 75d4 2430A0E3 		mov	r3, #36
 7820 75d8 0210A0E3 		mov	r1, #2
 7821 75dc 0030C4E5 		strb	r3, [r4]
 7822 75e0 FEFFFFEB 		bl	uart_transmit
 7823 75e4 0030D5E5 		ldrb	r3, [r5]	@ zero_extendqisi2
 7824 75e8 0020D4E5 		ldrb	r2, [r4]	@ zero_extendqisi2
 7825 75ec 113083E2 		add	r3, r3, #17
 7826 75f0 40751FE5 		ldr	r7, .L389+128
 7827 75f4 FF3003E2 		and	r3, r3, #255
 7828 75f8 0030C5E5 		strb	r3, [r5]
 7829 75fc D0041FE5 		ldr	r0, .L389+252
 7830 7600 023083E0 		add	r3, r3, r2
 7831 7604 1110A0E3 		mov	r1, #17
 7832 7608 0030C4E5 		strb	r3, [r4]
 7833 760c FEFFFFEB 		bl	uart_transmit
 7834 7610 4C10D7E5 		ldrb	r1, [r7, #76]	@ zero_extendqisi2
 7835 7614 0030D5E5 		ldrb	r3, [r5]	@ zero_extendqisi2
 7836 7618 0020D4E5 		ldrb	r2, [r4]	@ zero_extendqisi2
 7837 761c 033081E0 		add	r3, r1, r3
 7838 7620 FF3003E2 		and	r3, r3, #255
 7839 7624 0030C5E5 		strb	r3, [r5]
 7840 7628 FC041FE5 		ldr	r0, .L389+252
 7841 762c 023083E0 		add	r3, r3, r2
 7842 7630 0030C4E5 		strb	r3, [r4]
 7843 7634 FEFFFFEB 		bl	uart_transmit
 7844 7638 4D10D7E5 		ldrb	r1, [r7, #77]	@ zero_extendqisi2
 7845 763c 0030D5E5 		ldrb	r3, [r5]	@ zero_extendqisi2
 7846 7640 0020D4E5 		ldrb	r2, [r4]	@ zero_extendqisi2
 7847 7644 033081E0 		add	r3, r1, r3
 7848 7648 FF3003E2 		and	r3, r3, #255
 7849 764c 0030C5E5 		strb	r3, [r5]
 7850 7650 24051FE5 		ldr	r0, .L389+252
 7851 7654 023083E0 		add	r3, r3, r2
 7852 7658 0030C4E5 		strb	r3, [r4]
 7853 765c FEFFFFEB 		bl	uart_transmit
 7854 7660 4E10D7E5 		ldrb	r1, [r7, #78]	@ zero_extendqisi2
 7855 7664 0030D5E5 		ldrb	r3, [r5]	@ zero_extendqisi2
 7856 7668 0020D4E5 		ldrb	r2, [r4]	@ zero_extendqisi2
 7857 766c 033081E0 		add	r3, r1, r3
 7858 7670 FF3003E2 		and	r3, r3, #255
 7859 7674 0030C5E5 		strb	r3, [r5]
 7860 7678 4C051FE5 		ldr	r0, .L389+252
 7861 767c 023083E0 		add	r3, r3, r2
 7862 7680 0030C4E5 		strb	r3, [r4]
 7863 7684 FEFFFFEB 		bl	uart_transmit
 7864 7688 4F10D7E5 		ldrb	r1, [r7, #79]	@ zero_extendqisi2
 7865 768c 0030D5E5 		ldrb	r3, [r5]	@ zero_extendqisi2
 7866 7690 0020D4E5 		ldrb	r2, [r4]	@ zero_extendqisi2
 7867 7694 033081E0 		add	r3, r1, r3
 7868 7698 FF3003E2 		and	r3, r3, #255
 7869 769c 0030C5E5 		strb	r3, [r5]
 7870 76a0 74051FE5 		ldr	r0, .L389+252
 7871 76a4 023083E0 		add	r3, r3, r2
 7872 76a8 0030C4E5 		strb	r3, [r4]
 7873 76ac FEFFFFEB 		bl	uart_transmit
 7874 76b0 5010D7E5 		ldrb	r1, [r7, #80]	@ zero_extendqisi2
 7875 76b4 0030D5E5 		ldrb	r3, [r5]	@ zero_extendqisi2
 7876 76b8 0020D4E5 		ldrb	r2, [r4]	@ zero_extendqisi2
 7877 76bc 033081E0 		add	r3, r1, r3
 7878 76c0 FF3003E2 		and	r3, r3, #255
 7879 76c4 0030C5E5 		strb	r3, [r5]
 7880 76c8 9C051FE5 		ldr	r0, .L389+252
 7881 76cc 023083E0 		add	r3, r3, r2
 7882 76d0 0030C4E5 		strb	r3, [r4]
 7883 76d4 FEFFFFEB 		bl	uart_transmit
 7884 76d8 5110D7E5 		ldrb	r1, [r7, #81]	@ zero_extendqisi2
 7885 76dc 0030D5E5 		ldrb	r3, [r5]	@ zero_extendqisi2
 7886 76e0 0020D4E5 		ldrb	r2, [r4]	@ zero_extendqisi2
 7887 76e4 033081E0 		add	r3, r1, r3
 7888 76e8 FF3003E2 		and	r3, r3, #255
 7889 76ec 0030C5E5 		strb	r3, [r5]
 7890 76f0 C4051FE5 		ldr	r0, .L389+252
 7891 76f4 023083E0 		add	r3, r3, r2
 7892 76f8 0030C4E5 		strb	r3, [r4]
 7893 76fc FEFFFFEB 		bl	uart_transmit
 7894 7700 5210D7E5 		ldrb	r1, [r7, #82]	@ zero_extendqisi2
 7895 7704 0030D5E5 		ldrb	r3, [r5]	@ zero_extendqisi2
 7896 7708 0020D4E5 		ldrb	r2, [r4]	@ zero_extendqisi2
 7897 770c 033081E0 		add	r3, r1, r3
 7898 7710 FF3003E2 		and	r3, r3, #255
 7899 7714 0030C5E5 		strb	r3, [r5]
 7900 7718 EC051FE5 		ldr	r0, .L389+252
 7901 771c 023083E0 		add	r3, r3, r2
 7902 7720 0030C4E5 		strb	r3, [r4]
 7903 7724 FEFFFFEB 		bl	uart_transmit
 7904 7728 5310D7E5 		ldrb	r1, [r7, #83]	@ zero_extendqisi2
 7905 772c 0030D5E5 		ldrb	r3, [r5]	@ zero_extendqisi2
 7906 7730 0020D4E5 		ldrb	r2, [r4]	@ zero_extendqisi2
 7907 7734 033081E0 		add	r3, r1, r3
 7908 7738 FF3003E2 		and	r3, r3, #255
 7909 773c 0030C5E5 		strb	r3, [r5]
 7910 7740 14061FE5 		ldr	r0, .L389+252
 7911 7744 023083E0 		add	r3, r3, r2
 7912 7748 0030C4E5 		strb	r3, [r4]
 7913 774c FEFFFFEB 		bl	uart_transmit
 7914 7750 5810D7E5 		ldrb	r1, [r7, #88]	@ zero_extendqisi2
 7915 7754 0030D5E5 		ldrb	r3, [r5]	@ zero_extendqisi2
 7916 7758 0020D4E5 		ldrb	r2, [r4]	@ zero_extendqisi2
 7917 775c 033081E0 		add	r3, r1, r3
 7918 7760 FF3003E2 		and	r3, r3, #255
 7919 7764 0030C5E5 		strb	r3, [r5]
 7920 7768 3C061FE5 		ldr	r0, .L389+252
 7921 776c 023083E0 		add	r3, r3, r2
 7922 7770 0030C4E5 		strb	r3, [r4]
 7923 7774 FEFFFFEB 		bl	uart_transmit
 7924 7778 5910D7E5 		ldrb	r1, [r7, #89]	@ zero_extendqisi2
 7925 777c 0030D5E5 		ldrb	r3, [r5]	@ zero_extendqisi2
 7926 7780 0020D4E5 		ldrb	r2, [r4]	@ zero_extendqisi2
 7927 7784 033081E0 		add	r3, r1, r3
 7928 7788 FF3003E2 		and	r3, r3, #255
 7929 778c 0030C5E5 		strb	r3, [r5]
 7930 7790 64061FE5 		ldr	r0, .L389+252
 7931 7794 023083E0 		add	r3, r3, r2
 7932 7798 0030C4E5 		strb	r3, [r4]
 7933 779c FEFFFFEB 		bl	uart_transmit
 7934 77a0 5A10D7E5 		ldrb	r1, [r7, #90]	@ zero_extendqisi2
 7935 77a4 10FFFFEA 		b	.L371
 7936              	.L238:
 7937 77a8 C0361FE5 		ldr	r3, .L389+184
 7938 77ac 0020D3E5 		ldrb	r2, [r3]	@ zero_extendqisi2
 7939 77b0 012082E2 		add	r2, r2, #1
 7940 77b4 0020C3E5 		strb	r2, [r3]
 7941              	.L231:
 7942 77b8 04371FE5 		ldr	r3, .L389+132
 7943 77bc B030D3E1 		ldrh	r3, [r3]
 7944 77c0 5A0053E3 		cmp	r3, #90
 7945 77c4 5600001A 		bne	.L239
 7946 77c8 9C061FE5 		ldr	r0, .L389+252
 7947 77cc 0B10A0E3 		mov	r1, #11
 7948 77d0 FEFFFFEB 		bl	uart_check_free_space
 7949 77d4 000050E3 		cmp	r0, #0
 7950 77d8 4C00000A 		beq	.L240
 7951 77dc B8361FE5 		ldr	r3, .L389+244
 7952 77e0 B020D3E1 		ldrh	r2, [r3]
 7953 77e4 0B2082E2 		add	r2, r2, #11
 7954 77e8 B020C3E1 		strh	r2, [r3]	@ movhi
 7955 77ec C4361FE5 		ldr	r3, .L389+248
 7956 77f0 B020D3E1 		ldrh	r2, [r3]
 7957 77f4 C8061FE5 		ldr	r0, .L389+252
 7958 77f8 012082E2 		add	r2, r2, #1
 7959 77fc 9910A0E3 		mov	r1, #153
 7960 7800 28571FE5 		ldr	r5, .L389+168
 7961 7804 B020C3E1 		strh	r2, [r3]	@ movhi
 7962 7808 FEFFFFEB 		bl	uart_transmit
 7963 780c E0061FE5 		ldr	r0, .L389+252
 7964 7810 0B10A0E3 		mov	r1, #11
 7965 7814 E4461FE5 		ldr	r4, .L389+256
 7966 7818 FEFFFFEB 		bl	uart_transmit
 7967 781c 0D30A0E3 		mov	r3, #13
 7968 7820 0030C5E5 		strb	r3, [r5]
 7969 7824 F8061FE5 		ldr	r0, .L389+252
 7970 7828 1830A0E3 		mov	r3, #24
 7971 782c 0210A0E3 		mov	r1, #2
 7972 7830 0030C4E5 		strb	r3, [r4]
 7973 7834 FEFFFFEB 		bl	uart_transmit
 7974 7838 0030D5E5 		ldrb	r3, [r5]	@ zero_extendqisi2
 7975 783c 0020D4E5 		ldrb	r2, [r4]	@ zero_extendqisi2
 7976 7840 0E3083E2 		add	r3, r3, #14
 7977 7844 8C771FE5 		ldr	r7, .L389+136
 7978 7848 FF3003E2 		and	r3, r3, #255
 7979 784c 0030C5E5 		strb	r3, [r5]
 7980 7850 24071FE5 		ldr	r0, .L389+252
 7981 7854 023083E0 		add	r3, r3, r2
 7982 7858 0E10A0E3 		mov	r1, #14
 7983 785c 0030C4E5 		strb	r3, [r4]
 7984 7860 FEFFFFEB 		bl	uart_transmit
 7985 7864 0010D7E5 		ldrb	r1, [r7]	@ zero_extendqisi2
 7986 7868 0030D5E5 		ldrb	r3, [r5]	@ zero_extendqisi2
 7987 786c 0020D4E5 		ldrb	r2, [r4]	@ zero_extendqisi2
 7988 7870 033081E0 		add	r3, r1, r3
 7989 7874 FF3003E2 		and	r3, r3, #255
 7990 7878 0030C5E5 		strb	r3, [r5]
 7991 787c 50071FE5 		ldr	r0, .L389+252
 7992 7880 023083E0 		add	r3, r3, r2
 7993 7884 0030C4E5 		strb	r3, [r4]
 7994 7888 FEFFFFEB 		bl	uart_transmit
 7995 788c 0110D7E5 		ldrb	r1, [r7, #1]	@ zero_extendqisi2
 7996 7890 0030D5E5 		ldrb	r3, [r5]	@ zero_extendqisi2
 7997 7894 0020D4E5 		ldrb	r2, [r4]	@ zero_extendqisi2
 7998 7898 033081E0 		add	r3, r1, r3
 7999 789c FF3003E2 		and	r3, r3, #255
 8000 78a0 0030C5E5 		strb	r3, [r5]
 8001 78a4 78071FE5 		ldr	r0, .L389+252
 8002 78a8 023083E0 		add	r3, r3, r2
 8003 78ac 0030C4E5 		strb	r3, [r4]
 8004 78b0 FEFFFFEB 		bl	uart_transmit
 8005 78b4 0210D7E5 		ldrb	r1, [r7, #2]	@ zero_extendqisi2
 8006 78b8 0030D5E5 		ldrb	r3, [r5]	@ zero_extendqisi2
 8007 78bc 0020D4E5 		ldrb	r2, [r4]	@ zero_extendqisi2
 8008 78c0 033081E0 		add	r3, r1, r3
 8009 78c4 FF3003E2 		and	r3, r3, #255
 8010 78c8 0030C5E5 		strb	r3, [r5]
 8011 78cc A0071FE5 		ldr	r0, .L389+252
 8012 78d0 023083E0 		add	r3, r3, r2
 8013 78d4 0030C4E5 		strb	r3, [r4]
 8014 78d8 FEFFFFEB 		bl	uart_transmit
 8015 78dc 0310D7E5 		ldrb	r1, [r7, #3]	@ zero_extendqisi2
 8016 78e0 0030D5E5 		ldrb	r3, [r5]	@ zero_extendqisi2
 8017 78e4 0020D4E5 		ldrb	r2, [r4]	@ zero_extendqisi2
 8018 78e8 033081E0 		add	r3, r1, r3
 8019 78ec FF3003E2 		and	r3, r3, #255
 8020 78f0 0030C5E5 		strb	r3, [r5]
 8021 78f4 C8071FE5 		ldr	r0, .L389+252
 8022 78f8 023083E0 		add	r3, r3, r2
 8023 78fc 0030C4E5 		strb	r3, [r4]
 8024 7900 FEFFFFEB 		bl	uart_transmit
 8025 7904 48381FE5 		ldr	r3, .L389+140
 8026 7908 0010D3E5 		ldrb	r1, [r3]	@ zero_extendqisi2
 8027 790c 640000EA 		b	.L372
 8028              	.L240:
 8029 7910 28381FE5 		ldr	r3, .L389+184
 8030 7914 0020D3E5 		ldrb	r2, [r3]	@ zero_extendqisi2
 8031 7918 012082E2 		add	r2, r2, #1
 8032 791c 0020C3E5 		strb	r2, [r3]
 8033 7920 6E0000EA 		b	.L241
 8034              	.L239:
 8035 7924 600053E3 		cmp	r3, #96
 8036 7928 6C00001A 		bne	.L241
 8037 792c 6C581FE5 		ldr	r5, .L389+144
 8038 7930 0C481FE5 		ldr	r4, .L389+244
 8039 7934 B000D5E1 		ldrh	r0, [r5]
 8040 7938 B070D4E1 		ldrh	r7, [r4]
 8041 793c 070060E0 		rsb	r0, r0, r7
 8042 7940 FEFFFFEB 		bl	__aeabi_i2d
 8043 7944 80381FE5 		ldr	r3, .L389+148
 8044 7948 80281FE5 		ldr	r2, .L389+152
 8045 794c FEFFFFEB 		bl	__aeabi_ddiv
 8046 7950 FEFFFFEB 		bl	__aeabi_d2uiz
 8047 7954 0B10A0E3 		mov	r1, #11
 8048 7958 BC00CDE1 		strh	r0, [sp, #12]	@ movhi
 8049 795c 30081FE5 		ldr	r0, .L389+252
 8050 7960 B070C5E1 		strh	r7, [r5]	@ movhi
 8051 7964 FEFFFFEB 		bl	uart_check_free_space
 8052 7968 80881FE5 		ldr	r8, .L389+184
 8053 796c 000050E3 		cmp	r0, #0
 8054 7970 0030D805 		ldreqb	r3, [r8]	@ zero_extendqisi2
 8055 7974 01308302 		addeq	r3, r3, #1
 8056 7978 0030C805 		streqb	r3, [r8]
 8057 797c 5700000A 		beq	.L241
 8058 7980 B030D4E1 		ldrh	r3, [r4]
 8059 7984 5C781FE5 		ldr	r7, .L389+248
 8060 7988 0B3083E2 		add	r3, r3, #11
 8061 798c B030C4E1 		strh	r3, [r4]	@ movhi
 8062 7990 B030D7E1 		ldrh	r3, [r7]
 8063 7994 68081FE5 		ldr	r0, .L389+252
 8064 7998 013083E2 		add	r3, r3, #1
 8065 799c 9910A0E3 		mov	r1, #153
 8066 79a0 C8581FE5 		ldr	r5, .L389+168
 8067 79a4 B030C7E1 		strh	r3, [r7]	@ movhi
 8068 79a8 FEFFFFEB 		bl	uart_transmit
 8069 79ac 80081FE5 		ldr	r0, .L389+252
 8070 79b0 0B10A0E3 		mov	r1, #11
 8071 79b4 84481FE5 		ldr	r4, .L389+256
 8072 79b8 FEFFFFEB 		bl	uart_transmit
 8073 79bc 0D30A0E3 		mov	r3, #13
 8074 79c0 0030C5E5 		strb	r3, [r5]
 8075 79c4 98081FE5 		ldr	r0, .L389+252
 8076 79c8 1830A0E3 		mov	r3, #24
 8077 79cc 0210A0E3 		mov	r1, #2
 8078 79d0 0030C4E5 		strb	r3, [r4]
 8079 79d4 FEFFFFEB 		bl	uart_transmit
 8080 79d8 0030D5E5 		ldrb	r3, [r5]	@ zero_extendqisi2
 8081 79dc 0020D4E5 		ldrb	r2, [r4]	@ zero_extendqisi2
 8082 79e0 1E3083E2 		add	r3, r3, #30
 8083 79e4 FF3003E2 		and	r3, r3, #255
 8084 79e8 0030C5E5 		strb	r3, [r5]
 8085 79ec C0081FE5 		ldr	r0, .L389+252
 8086 79f0 023083E0 		add	r3, r3, r2
 8087 79f4 1E10A0E3 		mov	r1, #30
 8088 79f8 0030C4E5 		strb	r3, [r4]
 8089 79fc FEFFFFEB 		bl	uart_transmit
 8090 7a00 0010D8E5 		ldrb	r1, [r8]	@ zero_extendqisi2
 8091 7a04 0030D5E5 		ldrb	r3, [r5]	@ zero_extendqisi2
 8092 7a08 0020D4E5 		ldrb	r2, [r4]	@ zero_extendqisi2
 8093 7a0c 033081E0 		add	r3, r1, r3
 8094 7a10 FF3003E2 		and	r3, r3, #255
 8095 7a14 0030C5E5 		strb	r3, [r5]
 8096 7a18 EC081FE5 		ldr	r0, .L389+252
 8097 7a1c 023083E0 		add	r3, r3, r2
 8098 7a20 0030C4E5 		strb	r3, [r4]
 8099 7a24 FEFFFFEB 		bl	uart_transmit
 8100 7a28 0C10DDE5 		ldrb	r1, [sp, #12]	@ zero_extendqisi2
 8101 7a2c 0030D5E5 		ldrb	r3, [r5]	@ zero_extendqisi2
 8102 7a30 0020D4E5 		ldrb	r2, [r4]	@ zero_extendqisi2
 8103 7a34 033081E0 		add	r3, r1, r3
 8104 7a38 FF3003E2 		and	r3, r3, #255
 8105 7a3c 0030C5E5 		strb	r3, [r5]
 8106 7a40 14091FE5 		ldr	r0, .L389+252
 8107 7a44 023083E0 		add	r3, r3, r2
 8108 7a48 0030C4E5 		strb	r3, [r4]
 8109 7a4c FEFFFFEB 		bl	uart_transmit
 8110 7a50 0D10DDE5 		ldrb	r1, [sp, #13]	@ zero_extendqisi2
 8111 7a54 0030D5E5 		ldrb	r3, [r5]	@ zero_extendqisi2
 8112 7a58 0020D4E5 		ldrb	r2, [r4]	@ zero_extendqisi2
 8113 7a5c 033081E0 		add	r3, r1, r3
 8114 7a60 FF3003E2 		and	r3, r3, #255
 8115 7a64 0030C5E5 		strb	r3, [r5]
 8116 7a68 3C091FE5 		ldr	r0, .L389+252
 8117 7a6c 023083E0 		add	r3, r3, r2
 8118 7a70 0030C4E5 		strb	r3, [r4]
 8119 7a74 FEFFFFEB 		bl	uart_transmit
 8120 7a78 0010D7E5 		ldrb	r1, [r7]	@ zero_extendqisi2
 8121 7a7c 0030D5E5 		ldrb	r3, [r5]	@ zero_extendqisi2
 8122 7a80 0020D4E5 		ldrb	r2, [r4]	@ zero_extendqisi2
 8123 7a84 033081E0 		add	r3, r1, r3
 8124 7a88 FF3003E2 		and	r3, r3, #255
 8125 7a8c 0030C5E5 		strb	r3, [r5]
 8126 7a90 64091FE5 		ldr	r0, .L389+252
 8127 7a94 023083E0 		add	r3, r3, r2
 8128 7a98 0030C4E5 		strb	r3, [r4]
 8129 7a9c FEFFFFEB 		bl	uart_transmit
 8130 7aa0 0110D7E5 		ldrb	r1, [r7, #1]	@ zero_extendqisi2
 8131              	.L372:
 8132 7aa4 0030D5E5 		ldrb	r3, [r5]	@ zero_extendqisi2
 8133 7aa8 0020D4E5 		ldrb	r2, [r4]	@ zero_extendqisi2
 8134 7aac 033081E0 		add	r3, r1, r3
 8135 7ab0 FF3003E2 		and	r3, r3, #255
 8136 7ab4 0030C5E5 		strb	r3, [r5]
 8137 7ab8 8C091FE5 		ldr	r0, .L389+252
 8138 7abc 023083E0 		add	r3, r3, r2
 8139 7ac0 0030C4E5 		strb	r3, [r4]
 8140 7ac4 FEFFFFEB 		bl	uart_transmit
 8141 7ac8 9C091FE5 		ldr	r0, .L389+252
 8142 7acc 0010D5E5 		ldrb	r1, [r5]	@ zero_extendqisi2
 8143 7ad0 FEFFFFEB 		bl	uart_transmit
 8144 7ad4 A8091FE5 		ldr	r0, .L389+252
 8145 7ad8 0010D4E5 		ldrb	r1, [r4]	@ zero_extendqisi2
 8146 7adc FEFFFFEB 		bl	uart_transmit
 8147              	.L241:
 8148 7ae0 143A1FE5 		ldr	r3, .L389+156
 8149 7ae4 B030D3E1 		ldrh	r3, [r3]
 8150 7ae8 660053E3 		cmp	r3, #102
 8151 7aec 9500001A 		bne	.L244
 8152 7af0 C4091FE5 		ldr	r0, .L389+252
 8153 7af4 1010A0E3 		mov	r1, #16
 8154 7af8 FEFFFFEB 		bl	uart_check_free_space
 8155 7afc 000050E3 		cmp	r0, #0
 8156 7b00 8C00000A 		beq	.L245
 8157 7b04 E0391FE5 		ldr	r3, .L389+244
 8158 7b08 B020D3E1 		ldrh	r2, [r3]
 8159 7b0c 102082E2 		add	r2, r2, #16
 8160 7b10 B020C3E1 		strh	r2, [r3]	@ movhi
 8161 7b14 EC391FE5 		ldr	r3, .L389+248
 8162 7b18 B020D3E1 		ldrh	r2, [r3]
 8163 7b1c F0091FE5 		ldr	r0, .L389+252
 8164 7b20 012082E2 		add	r2, r2, #1
 8165 7b24 9910A0E3 		mov	r1, #153
 8166 7b28 505A1FE5 		ldr	r5, .L389+168
 8167 7b2c B020C3E1 		strh	r2, [r3]	@ movhi
 8168 7b30 FEFFFFEB 		bl	uart_transmit
 8169 7b34 080A1FE5 		ldr	r0, .L389+252
 8170 7b38 1010A0E3 		mov	r1, #16
 8171 7b3c 0C4A1FE5 		ldr	r4, .L389+256
 8172 7b40 FEFFFFEB 		bl	uart_transmit
 8173 7b44 1230A0E3 		mov	r3, #18
 8174 7b48 0030C5E5 		strb	r3, [r5]
 8175 7b4c 200A1FE5 		ldr	r0, .L389+252
 8176 7b50 2230A0E3 		mov	r3, #34
 8177 7b54 0210A0E3 		mov	r1, #2
 8178 7b58 0030C4E5 		strb	r3, [r4]
 8179 7b5c FEFFFFEB 		bl	uart_transmit
 8180 7b60 0030D5E5 		ldrb	r3, [r5]	@ zero_extendqisi2
 8181 7b64 0020D4E5 		ldrb	r2, [r4]	@ zero_extendqisi2
 8182 7b68 073083E2 		add	r3, r3, #7
 8183 7b6c 9C7A1FE5 		ldr	r7, .L389+160
 8184 7b70 FF3003E2 		and	r3, r3, #255
 8185 7b74 0030C5E5 		strb	r3, [r5]
 8186 7b78 4C0A1FE5 		ldr	r0, .L389+252
 8187 7b7c 023083E0 		add	r3, r3, r2
 8188 7b80 0710A0E3 		mov	r1, #7
 8189 7b84 0030C4E5 		strb	r3, [r4]
 8190 7b88 FEFFFFEB 		bl	uart_transmit
 8191 7b8c 0010D7E5 		ldrb	r1, [r7]	@ zero_extendqisi2
 8192 7b90 0030D5E5 		ldrb	r3, [r5]	@ zero_extendqisi2
 8193 7b94 0020D4E5 		ldrb	r2, [r4]	@ zero_extendqisi2
 8194 7b98 033081E0 		add	r3, r1, r3
 8195 7b9c FF3003E2 		and	r3, r3, #255
 8196 7ba0 0030C5E5 		strb	r3, [r5]
 8197 7ba4 780A1FE5 		ldr	r0, .L389+252
 8198 7ba8 023083E0 		add	r3, r3, r2
 8199 7bac 0030C4E5 		strb	r3, [r4]
 8200 7bb0 FEFFFFEB 		bl	uart_transmit
 8201 7bb4 0110D7E5 		ldrb	r1, [r7, #1]	@ zero_extendqisi2
 8202 7bb8 0030D5E5 		ldrb	r3, [r5]	@ zero_extendqisi2
 8203 7bbc 0020D4E5 		ldrb	r2, [r4]	@ zero_extendqisi2
 8204 7bc0 033081E0 		add	r3, r1, r3
 8205 7bc4 FF3003E2 		and	r3, r3, #255
 8206 7bc8 0030C5E5 		strb	r3, [r5]
 8207 7bcc A00A1FE5 		ldr	r0, .L389+252
 8208 7bd0 023083E0 		add	r3, r3, r2
 8209 7bd4 0030C4E5 		strb	r3, [r4]
 8210 7bd8 FEFFFFEB 		bl	uart_transmit
 8211 7bdc 0210D7E5 		ldrb	r1, [r7, #2]	@ zero_extendqisi2
 8212 7be0 0030D5E5 		ldrb	r3, [r5]	@ zero_extendqisi2
 8213 7be4 0020D4E5 		ldrb	r2, [r4]	@ zero_extendqisi2
 8214 7be8 033081E0 		add	r3, r1, r3
 8215 7bec FF3003E2 		and	r3, r3, #255
 8216 7bf0 0030C5E5 		strb	r3, [r5]
 8217 7bf4 C80A1FE5 		ldr	r0, .L389+252
 8218 7bf8 023083E0 		add	r3, r3, r2
 8219 7bfc 0030C4E5 		strb	r3, [r4]
 8220 7c00 FEFFFFEB 		bl	uart_transmit
 8221 7c04 0310D7E5 		ldrb	r1, [r7, #3]	@ zero_extendqisi2
 8222 7c08 0030D5E5 		ldrb	r3, [r5]	@ zero_extendqisi2
 8223 7c0c 0020D4E5 		ldrb	r2, [r4]	@ zero_extendqisi2
 8224 7c10 033081E0 		add	r3, r1, r3
 8225 7c14 FF3003E2 		and	r3, r3, #255
 8226 7c18 0030C5E5 		strb	r3, [r5]
 8227 7c1c F00A1FE5 		ldr	r0, .L389+252
 8228 7c20 023083E0 		add	r3, r3, r2
 8229 7c24 0030C4E5 		strb	r3, [r4]
 8230 7c28 FEFFFFEB 		bl	uart_transmit
 8231 7c2c 1610D7E5 		ldrb	r1, [r7, #22]	@ zero_extendqisi2
 8232 7c30 0030D5E5 		ldrb	r3, [r5]	@ zero_extendqisi2
 8233 7c34 0020D4E5 		ldrb	r2, [r4]	@ zero_extendqisi2
 8234 7c38 033081E0 		add	r3, r1, r3
 8235 7c3c FF3003E2 		and	r3, r3, #255
 8236 7c40 0030C5E5 		strb	r3, [r5]
 8237 7c44 180B1FE5 		ldr	r0, .L389+252
 8238 7c48 023083E0 		add	r3, r3, r2
 8239 7c4c 0030C4E5 		strb	r3, [r4]
 8240 7c50 FEFFFFEB 		bl	uart_transmit
 8241 7c54 1710D7E5 		ldrb	r1, [r7, #23]	@ zero_extendqisi2
 8242 7c58 0030D5E5 		ldrb	r3, [r5]	@ zero_extendqisi2
 8243 7c5c 0020D4E5 		ldrb	r2, [r4]	@ zero_extendqisi2
 8244 7c60 033081E0 		add	r3, r1, r3
 8245 7c64 FF3003E2 		and	r3, r3, #255
 8246 7c68 0030C5E5 		strb	r3, [r5]
 8247 7c6c 400B1FE5 		ldr	r0, .L389+252
 8248 7c70 023083E0 		add	r3, r3, r2
 8249 7c74 0030C4E5 		strb	r3, [r4]
 8250 7c78 FEFFFFEB 		bl	uart_transmit
 8251 7c7c 1410D7E5 		ldrb	r1, [r7, #20]	@ zero_extendqisi2
 8252 7c80 0030D5E5 		ldrb	r3, [r5]	@ zero_extendqisi2
 8253 7c84 0020D4E5 		ldrb	r2, [r4]	@ zero_extendqisi2
 8254 7c88 033081E0 		add	r3, r1, r3
 8255 7c8c FF3003E2 		and	r3, r3, #255
 8256 7c90 0030C5E5 		strb	r3, [r5]
 8257 7c94 680B1FE5 		ldr	r0, .L389+252
 8258 7c98 023083E0 		add	r3, r3, r2
 8259 7c9c 0030C4E5 		strb	r3, [r4]
 8260 7ca0 FEFFFFEB 		bl	uart_transmit
 8261 7ca4 1510D7E5 		ldrb	r1, [r7, #21]	@ zero_extendqisi2
 8262 7ca8 0030D5E5 		ldrb	r3, [r5]	@ zero_extendqisi2
 8263 7cac 0020D4E5 		ldrb	r2, [r4]	@ zero_extendqisi2
 8264 7cb0 033081E0 		add	r3, r1, r3
 8265 7cb4 FF3003E2 		and	r3, r3, #255
 8266 7cb8 0030C5E5 		strb	r3, [r5]
 8267 7cbc 900B1FE5 		ldr	r0, .L389+252
 8268 7cc0 023083E0 		add	r3, r3, r2
 8269 7cc4 0030C4E5 		strb	r3, [r4]
 8270 7cc8 FEFFFFEB 		bl	uart_transmit
 8271 7ccc 1810D7E5 		ldrb	r1, [r7, #24]	@ zero_extendqisi2
 8272 7cd0 0030D5E5 		ldrb	r3, [r5]	@ zero_extendqisi2
 8273 7cd4 0020D4E5 		ldrb	r2, [r4]	@ zero_extendqisi2
 8274 7cd8 033081E0 		add	r3, r1, r3
 8275 7cdc FF3003E2 		and	r3, r3, #255
 8276 7ce0 0030C5E5 		strb	r3, [r5]
 8277 7ce4 B80B1FE5 		ldr	r0, .L389+252
 8278 7ce8 023083E0 		add	r3, r3, r2
 8279 7cec 0030C4E5 		strb	r3, [r4]
 8280 7cf0 FEFFFFEB 		bl	uart_transmit
 8281 7cf4 1910D7E5 		ldrb	r1, [r7, #25]	@ zero_extendqisi2
 8282 7cf8 0030D5E5 		ldrb	r3, [r5]	@ zero_extendqisi2
 8283 7cfc 0020D4E5 		ldrb	r2, [r4]	@ zero_extendqisi2
 8284 7d00 033081E0 		add	r3, r1, r3
 8285 7d04 FF3003E2 		and	r3, r3, #255
 8286 7d08 0030C5E5 		strb	r3, [r5]
 8287 7d0c E00B1FE5 		ldr	r0, .L389+252
 8288 7d10 023083E0 		add	r3, r3, r2
 8289 7d14 0030C4E5 		strb	r3, [r4]
 8290 7d18 FEFFFFEB 		bl	uart_transmit
 8291 7d1c 0010D5E5 		ldrb	r1, [r5]	@ zero_extendqisi2
 8292 7d20 F40B1FE5 		ldr	r0, .L389+252
 8293 7d24 FEFFFFEB 		bl	uart_transmit
 8294 7d28 FC0B1FE5 		ldr	r0, .L389+252
 8295 7d2c 0010D4E5 		ldrb	r1, [r4]	@ zero_extendqisi2
 8296 7d30 FEFFFFEB 		bl	uart_transmit
 8297 7d34 030000EA 		b	.L244
 8298              	.L245:
 8299 7d38 503C1FE5 		ldr	r3, .L389+184
 8300 7d3c 0020D3E5 		ldrb	r2, [r3]	@ zero_extendqisi2
 8301 7d40 012082E2 		add	r2, r2, #1
 8302 7d44 0020C3E5 		strb	r2, [r3]
 8303              	.L244:
 8304 7d48 743C1FE5 		ldr	r3, .L389+164
 8305 7d4c B030D3E1 		ldrh	r3, [r3]
 8306 7d50 6C0053E3 		cmp	r3, #108
 8307 7d54 8D00001A 		bne	.L128
 8308 7d58 2C0C1FE5 		ldr	r0, .L389+252
 8309 7d5c 0F10A0E3 		mov	r1, #15
 8310 7d60 FEFFFFEB 		bl	uart_check_free_space
 8311 7d64 000050E3 		cmp	r0, #0
 8312 7d68 8400000A 		beq	.L247
 8313 7d6c 483C1FE5 		ldr	r3, .L389+244
 8314 7d70 B020D3E1 		ldrh	r2, [r3]
 8315 7d74 0F2082E2 		add	r2, r2, #15
 8316 7d78 B020C3E1 		strh	r2, [r3]	@ movhi
 8317 7d7c 543C1FE5 		ldr	r3, .L389+248
 8318 7d80 B020D3E1 		ldrh	r2, [r3]
 8319 7d84 580C1FE5 		ldr	r0, .L389+252
 8320 7d88 012082E2 		add	r2, r2, #1
 8321 7d8c 9910A0E3 		mov	r1, #153
 8322 7d90 B85C1FE5 		ldr	r5, .L389+168
 8323 7d94 B020C3E1 		strh	r2, [r3]	@ movhi
 8324 7d98 FEFFFFEB 		bl	uart_transmit
 8325 7d9c 700C1FE5 		ldr	r0, .L389+252
 8326 7da0 0F10A0E3 		mov	r1, #15
 8327 7da4 744C1FE5 		ldr	r4, .L389+256
 8328 7da8 FEFFFFEB 		bl	uart_transmit
 8329 7dac 1130A0E3 		mov	r3, #17
 8330 7db0 0030C5E5 		strb	r3, [r5]
 8331 7db4 880C1FE5 		ldr	r0, .L389+252
 8332 7db8 2030A0E3 		mov	r3, #32
 8333 7dbc 0210A0E3 		mov	r1, #2
 8334 7dc0 0030C4E5 		strb	r3, [r4]
 8335 7dc4 FEFFFFEB 		bl	uart_transmit
 8336 7dc8 0030D5E5 		ldrb	r3, [r5]	@ zero_extendqisi2
 8337 7dcc 0020D4E5 		ldrb	r2, [r4]	@ zero_extendqisi2
 8338 7dd0 093083E2 		add	r3, r3, #9
 8339 7dd4 F87C1FE5 		ldr	r7, .L389+172
 8340 7dd8 FF3003E2 		and	r3, r3, #255
 8341 7ddc 0030C5E5 		strb	r3, [r5]
 8342 7de0 B40C1FE5 		ldr	r0, .L389+252
 8343 7de4 023083E0 		add	r3, r3, r2
 8344 7de8 0910A0E3 		mov	r1, #9
 8345 7dec 0030C4E5 		strb	r3, [r4]
 8346 7df0 FEFFFFEB 		bl	uart_transmit
 8347 7df4 0010D7E5 		ldrb	r1, [r7]	@ zero_extendqisi2
 8348 7df8 0030D5E5 		ldrb	r3, [r5]	@ zero_extendqisi2
 8349 7dfc 0020D4E5 		ldrb	r2, [r4]	@ zero_extendqisi2
 8350 7e00 033081E0 		add	r3, r1, r3
 8351 7e04 FF3003E2 		and	r3, r3, #255
 8352 7e08 0030C5E5 		strb	r3, [r5]
 8353 7e0c E00C1FE5 		ldr	r0, .L389+252
 8354 7e10 023083E0 		add	r3, r3, r2
 8355 7e14 0030C4E5 		strb	r3, [r4]
 8356 7e18 FEFFFFEB 		bl	uart_transmit
 8357 7e1c 0110D7E5 		ldrb	r1, [r7, #1]	@ zero_extendqisi2
 8358 7e20 0030D5E5 		ldrb	r3, [r5]	@ zero_extendqisi2
 8359 7e24 0020D4E5 		ldrb	r2, [r4]	@ zero_extendqisi2
 8360 7e28 033081E0 		add	r3, r1, r3
 8361 7e2c FF3003E2 		and	r3, r3, #255
 8362 7e30 0030C5E5 		strb	r3, [r5]
 8363 7e34 080D1FE5 		ldr	r0, .L389+252
 8364 7e38 023083E0 		add	r3, r3, r2
 8365 7e3c 0030C4E5 		strb	r3, [r4]
 8366 7e40 FEFFFFEB 		bl	uart_transmit
 8367 7e44 0210D7E5 		ldrb	r1, [r7, #2]	@ zero_extendqisi2
 8368 7e48 0030D5E5 		ldrb	r3, [r5]	@ zero_extendqisi2
 8369 7e4c 0020D4E5 		ldrb	r2, [r4]	@ zero_extendqisi2
 8370 7e50 033081E0 		add	r3, r1, r3
 8371 7e54 FF3003E2 		and	r3, r3, #255
 8372 7e58 0030C5E5 		strb	r3, [r5]
 8373 7e5c 300D1FE5 		ldr	r0, .L389+252
 8374 7e60 023083E0 		add	r3, r3, r2
 8375 7e64 0030C4E5 		strb	r3, [r4]
 8376 7e68 FEFFFFEB 		bl	uart_transmit
 8377 7e6c 0310D7E5 		ldrb	r1, [r7, #3]	@ zero_extendqisi2
 8378 7e70 0030D5E5 		ldrb	r3, [r5]	@ zero_extendqisi2
 8379 7e74 0020D4E5 		ldrb	r2, [r4]	@ zero_extendqisi2
 8380 7e78 033081E0 		add	r3, r1, r3
 8381 7e7c 9C7D1FE5 		ldr	r7, .L389+176
 8382 7e80 FF3003E2 		and	r3, r3, #255
 8383 7e84 0030C5E5 		strb	r3, [r5]
 8384 7e88 5C0D1FE5 		ldr	r0, .L389+252
 8385 7e8c 023083E0 		add	r3, r3, r2
 8386 7e90 0030C4E5 		strb	r3, [r4]
 8387 7e94 FEFFFFEB 		bl	uart_transmit
 8388 7e98 0010D7E5 		ldrb	r1, [r7]	@ zero_extendqisi2
 8389 7e9c 0030D5E5 		ldrb	r3, [r5]	@ zero_extendqisi2
 8390 7ea0 0020D4E5 		ldrb	r2, [r4]	@ zero_extendqisi2
 8391 7ea4 033081E0 		add	r3, r1, r3
 8392 7ea8 FF3003E2 		and	r3, r3, #255
 8393 7eac 0030C5E5 		strb	r3, [r5]
 8394 7eb0 840D1FE5 		ldr	r0, .L389+252
 8395 7eb4 023083E0 		add	r3, r3, r2
 8396 7eb8 0030C4E5 		strb	r3, [r4]
 8397 7ebc FEFFFFEB 		bl	uart_transmit
 8398 7ec0 0110D7E5 		ldrb	r1, [r7, #1]	@ zero_extendqisi2
 8399 7ec4 0030D5E5 		ldrb	r3, [r5]	@ zero_extendqisi2
 8400 7ec8 0020D4E5 		ldrb	r2, [r4]	@ zero_extendqisi2
 8401 7ecc 033081E0 		add	r3, r1, r3
 8402 7ed0 FF3003E2 		and	r3, r3, #255
 8403 7ed4 0030C5E5 		strb	r3, [r5]
 8404 7ed8 AC0D1FE5 		ldr	r0, .L389+252
 8405 7edc 023083E0 		add	r3, r3, r2
 8406 7ee0 0030C4E5 		strb	r3, [r4]
 8407 7ee4 FEFFFFEB 		bl	uart_transmit
 8408 7ee8 0210D7E5 		ldrb	r1, [r7, #2]	@ zero_extendqisi2
 8409 7eec 0030D5E5 		ldrb	r3, [r5]	@ zero_extendqisi2
 8410 7ef0 0020D4E5 		ldrb	r2, [r4]	@ zero_extendqisi2
 8411 7ef4 033081E0 		add	r3, r1, r3
 8412 7ef8 FF3003E2 		and	r3, r3, #255
 8413 7efc 0030C5E5 		strb	r3, [r5]
 8414 7f00 D40D1FE5 		ldr	r0, .L389+252
 8415 7f04 023083E0 		add	r3, r3, r2
 8416 7f08 0030C4E5 		strb	r3, [r4]
 8417 7f0c FEFFFFEB 		bl	uart_transmit
 8418 7f10 0310D7E5 		ldrb	r1, [r7, #3]	@ zero_extendqisi2
 8419 7f14 0030D5E5 		ldrb	r3, [r5]	@ zero_extendqisi2
 8420 7f18 0020D4E5 		ldrb	r2, [r4]	@ zero_extendqisi2
 8421 7f1c 033081E0 		add	r3, r1, r3
 8422 7f20 FF3003E2 		and	r3, r3, #255
 8423 7f24 0030C5E5 		strb	r3, [r5]
 8424 7f28 FC0D1FE5 		ldr	r0, .L389+252
 8425 7f2c 023083E0 		add	r3, r3, r2
 8426 7f30 0030C4E5 		strb	r3, [r4]
 8427 7f34 FEFFFFEB 		bl	uart_transmit
 8428 7f38 543E1FE5 		ldr	r3, .L389+180
 8429 7f3c 0010D3E5 		ldrb	r1, [r3]	@ zero_extendqisi2
 8430 7f40 0030D5E5 		ldrb	r3, [r5]	@ zero_extendqisi2
 8431 7f44 0020D4E5 		ldrb	r2, [r4]	@ zero_extendqisi2
 8432 7f48 033081E0 		add	r3, r1, r3
 8433 7f4c FF3003E2 		and	r3, r3, #255
 8434 7f50 0030C5E5 		strb	r3, [r5]
 8435 7f54 280E1FE5 		ldr	r0, .L389+252
 8436 7f58 023083E0 		add	r3, r3, r2
 8437 7f5c 0030C4E5 		strb	r3, [r4]
 8438 7f60 FEFFFFEB 		bl	uart_transmit
 8439 7f64 0010D5E5 		ldrb	r1, [r5]	@ zero_extendqisi2
 8440 7f68 3C0E1FE5 		ldr	r0, .L389+252
 8441 7f6c FEFFFFEB 		bl	uart_transmit
 8442 7f70 440E1FE5 		ldr	r0, .L389+252
 8443 7f74 0010D4E5 		ldrb	r1, [r4]	@ zero_extendqisi2
 8444 7f78 FEFFFFEB 		bl	uart_transmit
 8445 7f7c 030000EA 		b	.L128
 8446              	.L247:
 8447 7f80 983E1FE5 		ldr	r3, .L389+184
 8448 7f84 0020D3E5 		ldrb	r2, [r3]	@ zero_extendqisi2
 8449 7f88 012082E2 		add	r2, r2, #1
 8450 7f8c 0020C3E5 		strb	r2, [r3]
 8451              	.L128:
 8452 7f90 0030D6E5 		ldrb	r3, [r6]	@ zero_extendqisi2
 8453 7f94 020053E3 		cmp	r3, #2
 8454 7f98 0F08001A 		bne	.L4
 8455 7f9c B03E1FE5 		ldr	r3, .L389+188
 8456 7fa0 B020D3E1 		ldrh	r2, [r3]
 8457 7fa4 012082E2 		add	r2, r2, #1
 8458 7fa8 0228A0E1 		mov	r2, r2, asl #16
 8459 7fac 2228A0E1 		mov	r2, r2, lsr #16
 8460 7fb0 4B0F52E3 		cmp	r2, #300
 8461 7fb4 C44E1FE5 		ldr	r4, .L389+192
 8462 7fb8 0020A023 		movcs	r2, #0
 8463 7fbc B020C3E1 		strh	r2, [r3]	@ movhi
 8464 7fc0 B020D4E1 		ldrh	r2, [r4]
 8465 7fc4 012082E2 		add	r2, r2, #1
 8466 7fc8 D41E1FE5 		ldr	r1, .L389+196
 8467 7fcc 0228A0E1 		mov	r2, r2, asl #16
 8468 7fd0 2228A0E1 		mov	r2, r2, lsr #16
 8469 7fd4 010052E1 		cmp	r2, r1
 8470 7fd8 E0BE1FE5 		ldr	fp, .L389+200
 8471 7fdc 0020A083 		movhi	r2, #0
 8472 7fe0 B020C4E1 		strh	r2, [r4]	@ movhi
 8473 7fe4 B020DBE1 		ldrh	r2, [fp]
 8474 7fe8 012082E2 		add	r2, r2, #1
 8475 7fec F01E1FE5 		ldr	r1, .L389+204
 8476 7ff0 0228A0E1 		mov	r2, r2, asl #16
 8477 7ff4 2228A0E1 		mov	r2, r2, lsr #16
 8478 7ff8 010052E1 		cmp	r2, r1
 8479 7ffc FCAE1FE5 		ldr	r10, .L389+208
 8480 8000 0020A083 		movhi	r2, #0
 8481 8004 B020CBE1 		strh	r2, [fp]	@ movhi
 8482 8008 B020DAE1 		ldrh	r2, [r10]
 8483 800c 012082E2 		add	r2, r2, #1
 8484 8010 0228A0E1 		mov	r2, r2, asl #16
 8485 8014 2228A0E1 		mov	r2, r2, lsr #16
 8486 8018 510F52E3 		cmp	r2, #324
 8487 801c 189F1FE5 		ldr	r9, .L389+212
 8488 8020 0020A023 		movcs	r2, #0
 8489 8024 B020CAE1 		strh	r2, [r10]	@ movhi
 8490 8028 B020D9E1 		ldrh	r2, [r9]
 8491 802c 012082E2 		add	r2, r2, #1
 8492 8030 281F1FE5 		ldr	r1, .L389+216
 8493 8034 0228A0E1 		mov	r2, r2, asl #16
 8494 8038 2228A0E1 		mov	r2, r2, lsr #16
 8495 803c 010052E1 		cmp	r2, r1
 8496 8040 348F1FE5 		ldr	r8, .L389+220
 8497 8044 0020A083 		movhi	r2, #0
 8498 8048 B020C9E1 		strh	r2, [r9]	@ movhi
 8499 804c B020D8E1 		ldrh	r2, [r8]
 8500 8050 012082E2 		add	r2, r2, #1
 8501 8054 441F1FE5 		ldr	r1, .L389+224
 8502 8058 0228A0E1 		mov	r2, r2, asl #16
 8503 805c 2228A0E1 		mov	r2, r2, lsr #16
 8504 8060 010052E1 		cmp	r2, r1
 8505 8064 507F1FE5 		ldr	r7, .L389+228
 8506 8068 0020A083 		movhi	r2, #0
 8507 806c B020C8E1 		strh	r2, [r8]	@ movhi
 8508 8070 B020D7E1 		ldrh	r2, [r7]
 8509 8074 012082E2 		add	r2, r2, #1
 8510 8078 0228A0E1 		mov	r2, r2, asl #16
 8511 807c 2228A0E1 		mov	r2, r2, lsr #16
 8512 8080 690F52E3 		cmp	r2, #420
 8513 8084 701F1F25 		ldrcs	r1, .L389+228
 8514 8088 6C6F1FE5 		ldr	r6, .L389+236
 8515 808c 0020A023 		movcs	r2, #0
 8516 8090 B020C121 		strcsh	r2, [r1]	@ movhi
 8517 8094 B020C731 		strcch	r2, [r7]	@ movhi
 8518 8098 B020D6E1 		ldrh	r2, [r6]
 8519 809c 012082E2 		add	r2, r2, #1
 8520 80a0 881F1FE5 		ldr	r1, .L389+232
 8521 80a4 0228A0E1 		mov	r2, r2, asl #16
 8522 80a8 2228A0E1 		mov	r2, r2, lsr #16
 8523 80ac 010052E1 		cmp	r2, r1
 8524 80b0 941F1F85 		ldrhi	r1, .L389+236
 8525 80b4 0020A083 		movhi	r2, #0
 8526 80b8 B020C181 		strhih	r2, [r1]	@ movhi
 8527 80bc 9C1F1FE5 		ldr	r1, .L389+240
 8528 80c0 B020C691 		strlsh	r2, [r6]	@ movhi
 8529 80c4 B020D1E1 		ldrh	r2, [r1]
 8530 80c8 012082E2 		add	r2, r2, #1
 8531 80cc 0228A0E1 		mov	r2, r2, asl #16
 8532 80d0 2228A0E1 		mov	r2, r2, lsr #16
 8533 80d4 990F52E3 		cmp	r2, #612
 8534 80d8 B050D3E1 		ldrh	r5, [r3]
 8535 80dc BC1F1F25 		ldrcs	r1, .L389+240
 8536 80e0 0020A023 		movcs	r2, #0
 8537 80e4 000055E3 		cmp	r5, #0
 8538 80e8 B020C1E1 		strh	r2, [r1]	@ movhi
 8539 80ec 4A00001A 		bne	.L267
 8540 80f0 C40F1FE5 		ldr	r0, .L389+252
 8541 80f4 1710A0E3 		mov	r1, #23
 8542 80f8 FEFFFFEB 		bl	uart_check_free_space
 8543 80fc 000050E3 		cmp	r0, #0
 8544 8100 4100000A 		beq	.L268
 8545 8104 E03F1FE5 		ldr	r3, .L389+244
 8546 8108 B020D3E1 		ldrh	r2, [r3]
 8547 810c 172082E2 		add	r2, r2, #23
 8548 8110 B020C3E1 		strh	r2, [r3]	@ movhi
 8549 8114 EC3F1FE5 		ldr	r3, .L389+248
 8550 8118 B020D3E1 		ldrh	r2, [r3]
 8551 811c F00F1FE5 		ldr	r0, .L389+252
 8552 8120 012082E2 		add	r2, r2, #1
 8553 8124 9910A0E3 		mov	r1, #153
 8554 8128 B020C3E1 		strh	r2, [r3]	@ movhi
 8555 812c FC6F1FE5 		ldr	r6, .L389+256
 8556 8130 FEFFFFEB 		bl	uart_transmit
 8557 8134 D80F9FE5 		ldr	r0, .L391+200
 8558 8138 1710A0E3 		mov	r1, #23
 8559 813c FEFFFFEB 		bl	uart_transmit
 8560 8140 A87F9FE5 		ldr	r7, .L391+164
 8561 8144 3010A0E3 		mov	r1, #48
 8562 8148 1930A0E3 		mov	r3, #25
 8563 814c 0010C6E5 		strb	r1, [r6]
 8564 8150 BC0F9FE5 		ldr	r0, .L391+200
 8565 8154 0210A0E3 		mov	r1, #2
 8566 8158 0030C7E5 		strb	r3, [r7]
 8567 815c FEFFFFEB 		bl	uart_transmit
 8568 8160 0010D7E5 		ldrb	r1, [r7]	@ zero_extendqisi2
 8569 8164 0000D6E5 		ldrb	r0, [r6]	@ zero_extendqisi2
 8570 8168 021081E2 		add	r1, r1, #2
 8571 816c FF1001E2 		and	r1, r1, #255
 8572 8170 0010C7E5 		strb	r1, [r7]
 8573 8174 001081E0 		add	r1, r1, r0
 8574 8178 0010C6E5 		strb	r1, [r6]
 8575 817c 900F9FE5 		ldr	r0, .L391+200
 8576 8180 0210A0E3 		mov	r1, #2
 8577 8184 FEFFFFEB 		bl	uart_transmit
 8578 8188 0010D7E5 		ldrb	r1, [r7]	@ zero_extendqisi2
 8579 818c 0020D6E5 		ldrb	r2, [r6]	@ zero_extendqisi2
 8580 8190 101081E2 		add	r1, r1, #16
 8581 8194 FF1001E2 		and	r1, r1, #255
 8582 8198 0010C7E5 		strb	r1, [r7]
 8583 819c 021081E0 		add	r1, r1, r2
 8584 81a0 0010C6E5 		strb	r1, [r6]
 8585 81a4 680F9FE5 		ldr	r0, .L391+200
 8586 81a8 1010A0E3 		mov	r1, #16
 8587 81ac FEFFFFEB 		bl	uart_transmit
 8588              	.L270:
 8589 81b0 943E9FE5 		ldr	r3, .L391
 8590 81b4 347F9FE5 		ldr	r7, .L391+164
 8591 81b8 0510D3E7 		ldrb	r1, [r3, r5]	@ zero_extendqisi2
 8592 81bc 0000D7E5 		ldrb	r0, [r7]	@ zero_extendqisi2
 8593 81c0 2C6F9FE5 		ldr	r6, .L391+168
 8594 81c4 000081E0 		add	r0, r1, r0
 8595 81c8 00C0D6E5 		ldrb	ip, [r6]	@ zero_extendqisi2
 8596 81cc FF0000E2 		and	r0, r0, #255
 8597 81d0 0000C7E5 		strb	r0, [r7]
 8598 81d4 0C0080E0 		add	r0, r0, ip
 8599 81d8 0000C6E5 		strb	r0, [r6]
 8600 81dc 015085E2 		add	r5, r5, #1
 8601 81e0 2C0F9FE5 		ldr	r0, .L391+200
 8602 81e4 FEFFFFEB 		bl	uart_transmit
 8603 81e8 100055E3 		cmp	r5, #16
 8604 81ec EFFFFF1A 		bne	.L270
 8605 81f0 0010D7E5 		ldrb	r1, [r7]	@ zero_extendqisi2
 8606 81f4 180F9FE5 		ldr	r0, .L391+200
 8607 81f8 FEFFFFEB 		bl	uart_transmit
 8608 81fc 100F9FE5 		ldr	r0, .L391+200
 8609 8200 0010D6E5 		ldrb	r1, [r6]	@ zero_extendqisi2
 8610 8204 FEFFFFEB 		bl	uart_transmit
 8611 8208 030000EA 		b	.L267
 8612              	.L268:
 8613 820c 043F9FE5 		ldr	r3, .L391+204
 8614 8210 0020D3E5 		ldrb	r2, [r3]	@ zero_extendqisi2
 8615 8214 012082E2 		add	r2, r2, #1
 8616 8218 0020C3E5 		strb	r2, [r3]
 8617              	.L267:
 8618 821c B030D4E1 		ldrh	r3, [r4]
 8619 8220 060053E3 		cmp	r3, #6
 8620 8224 FA01001A 		bne	.L271
 8621 8228 204E9FE5 		ldr	r4, .L391+4
 8622 822c 403094E5 		ldr	r3, [r4, #64]
 8623 8230 480094E5 		ldr	r0, [r4, #72]
 8624 8234 003063E2 		rsb	r3, r3, #0
 8625 8238 B830CDE1 		strh	r3, [sp, #8]	@ movhi
 8626 823c FEFFFFEB 		bl	__aeabi_i2d
 8627 8240 0C2E9FE5 		ldr	r2, .L391+8
 8628 8244 0C3E9FE5 		ldr	r3, .L391+12
 8629 8248 FEFFFFEB 		bl	__aeabi_dmul
 8630 824c 0020A0E3 		mov	r2, #0
 8631 8250 043E9FE5 		ldr	r3, .L391+16
 8632 8254 FEFFFFEB 		bl	__aeabi_ddiv
 8633 8258 FEFFFFEB 		bl	__aeabi_d2iz
 8634 825c 2110A0E3 		mov	r1, #33
 8635 8260 BC00CDE1 		strh	r0, [sp, #12]	@ movhi
 8636 8264 A80E9FE5 		ldr	r0, .L391+200
 8637 8268 FEFFFFEB 		bl	uart_check_free_space
 8638 826c 000050E3 		cmp	r0, #0
 8639 8270 3601000A 		beq	.L272
 8640 8274 6C3E9FE5 		ldr	r3, .L391+156
 8641 8278 B020D3E1 		ldrh	r2, [r3]
 8642 827c 212082E2 		add	r2, r2, #33
 8643 8280 B020C3E1 		strh	r2, [r3]	@ movhi
 8644 8284 603E9FE5 		ldr	r3, .L391+160
 8645 8288 B020D3E1 		ldrh	r2, [r3]
 8646 828c 800E9FE5 		ldr	r0, .L391+200
 8647 8290 012082E2 		add	r2, r2, #1
 8648 8294 9910A0E3 		mov	r1, #153
 8649 8298 506E9FE5 		ldr	r6, .L391+164
 8650 829c B020C3E1 		strh	r2, [r3]	@ movhi
 8651 82a0 FEFFFFEB 		bl	uart_transmit
 8652 82a4 680E9FE5 		ldr	r0, .L391+200
 8653 82a8 2110A0E3 		mov	r1, #33
 8654 82ac 405E9FE5 		ldr	r5, .L391+168
 8655 82b0 FEFFFFEB 		bl	uart_transmit
 8656 82b4 2320A0E3 		mov	r2, #35
 8657 82b8 0020C6E5 		strb	r2, [r6]
 8658 82bc 500E9FE5 		ldr	r0, .L391+200
 8659 82c0 4420A0E3 		mov	r2, #68
 8660 82c4 0210A0E3 		mov	r1, #2
 8661 82c8 0020C5E5 		strb	r2, [r5]
 8662 82cc FEFFFFEB 		bl	uart_transmit
 8663 82d0 0020D6E5 		ldrb	r2, [r6]	@ zero_extendqisi2
 8664 82d4 0010D5E5 		ldrb	r1, [r5]	@ zero_extendqisi2
 8665 82d8 082082E2 		add	r2, r2, #8
 8666 82dc FF2002E2 		and	r2, r2, #255
 8667 82e0 0020C6E5 		strb	r2, [r6]
 8668 82e4 280E9FE5 		ldr	r0, .L391+200
 8669 82e8 012082E0 		add	r2, r2, r1
 8670 82ec 0810A0E3 		mov	r1, #8
 8671 82f0 0020C5E5 		strb	r2, [r5]
 8672 82f4 FEFFFFEB 		bl	uart_transmit
 8673 82f8 5B10D4E5 		ldrb	r1, [r4, #91]	@ zero_extendqisi2
 8674 82fc 0020D6E5 		ldrb	r2, [r6]	@ zero_extendqisi2
 8675 8300 0000D5E5 		ldrb	r0, [r5]	@ zero_extendqisi2
 8676 8304 022081E0 		add	r2, r1, r2
 8677 8308 FF2002E2 		and	r2, r2, #255
 8678 830c 0020C6E5 		strb	r2, [r6]
 8679 8310 002082E0 		add	r2, r2, r0
 8680 8314 F80D9FE5 		ldr	r0, .L391+200
 8681 8318 0020C5E5 		strb	r2, [r5]
 8682 831c FEFFFFEB 		bl	uart_transmit
 8683 8320 1C10D4E5 		ldrb	r1, [r4, #28]	@ zero_extendqisi2
 8684 8324 0020D6E5 		ldrb	r2, [r6]	@ zero_extendqisi2
 8685 8328 0000D5E5 		ldrb	r0, [r5]	@ zero_extendqisi2
 8686 832c 022081E0 		add	r2, r1, r2
 8687 8330 FF2002E2 		and	r2, r2, #255
 8688 8334 0020C6E5 		strb	r2, [r6]
 8689 8338 002082E0 		add	r2, r2, r0
 8690 833c D00D9FE5 		ldr	r0, .L391+200
 8691 8340 0020C5E5 		strb	r2, [r5]
 8692 8344 FEFFFFEB 		bl	uart_transmit
 8693 8348 1D10D4E5 		ldrb	r1, [r4, #29]	@ zero_extendqisi2
 8694 834c 0020D6E5 		ldrb	r2, [r6]	@ zero_extendqisi2
 8695 8350 0000D5E5 		ldrb	r0, [r5]	@ zero_extendqisi2
 8696 8354 022081E0 		add	r2, r1, r2
 8697 8358 FF2002E2 		and	r2, r2, #255
 8698 835c 0020C6E5 		strb	r2, [r6]
 8699 8360 002082E0 		add	r2, r2, r0
 8700 8364 A80D9FE5 		ldr	r0, .L391+200
 8701 8368 0020C5E5 		strb	r2, [r5]
 8702 836c FEFFFFEB 		bl	uart_transmit
 8703 8370 1E10D4E5 		ldrb	r1, [r4, #30]	@ zero_extendqisi2
 8704 8374 0020D6E5 		ldrb	r2, [r6]	@ zero_extendqisi2
 8705 8378 0000D5E5 		ldrb	r0, [r5]	@ zero_extendqisi2
 8706 837c 022081E0 		add	r2, r1, r2
 8707 8380 FF2002E2 		and	r2, r2, #255
 8708 8384 0020C6E5 		strb	r2, [r6]
 8709 8388 002082E0 		add	r2, r2, r0
 8710 838c 800D9FE5 		ldr	r0, .L391+200
 8711 8390 0020C5E5 		strb	r2, [r5]
 8712 8394 FEFFFFEB 		bl	uart_transmit
 8713 8398 1F10D4E5 		ldrb	r1, [r4, #31]	@ zero_extendqisi2
 8714 839c 0020D6E5 		ldrb	r2, [r6]	@ zero_extendqisi2
 8715 83a0 0000D5E5 		ldrb	r0, [r5]	@ zero_extendqisi2
 8716 83a4 022081E0 		add	r2, r1, r2
 8717 83a8 FF2002E2 		and	r2, r2, #255
 8718 83ac 0020C6E5 		strb	r2, [r6]
 8719 83b0 002082E0 		add	r2, r2, r0
 8720 83b4 580D9FE5 		ldr	r0, .L391+200
 8721 83b8 0020C5E5 		strb	r2, [r5]
 8722 83bc FEFFFFEB 		bl	uart_transmit
 8723 83c0 1810D4E5 		ldrb	r1, [r4, #24]	@ zero_extendqisi2
 8724 83c4 0020D6E5 		ldrb	r2, [r6]	@ zero_extendqisi2
 8725 83c8 0000D5E5 		ldrb	r0, [r5]	@ zero_extendqisi2
 8726 83cc 022081E0 		add	r2, r1, r2
 8727 83d0 FF2002E2 		and	r2, r2, #255
 8728 83d4 0020C6E5 		strb	r2, [r6]
 8729 83d8 002082E0 		add	r2, r2, r0
 8730 83dc 300D9FE5 		ldr	r0, .L391+200
 8731 83e0 0020C5E5 		strb	r2, [r5]
 8732 83e4 FEFFFFEB 		bl	uart_transmit
 8733 83e8 1910D4E5 		ldrb	r1, [r4, #25]	@ zero_extendqisi2
 8734 83ec 0020D6E5 		ldrb	r2, [r6]	@ zero_extendqisi2
 8735 83f0 0000D5E5 		ldrb	r0, [r5]	@ zero_extendqisi2
 8736 83f4 022081E0 		add	r2, r1, r2
 8737 83f8 FF2002E2 		and	r2, r2, #255
 8738 83fc 0020C6E5 		strb	r2, [r6]
 8739 8400 002082E0 		add	r2, r2, r0
 8740 8404 080D9FE5 		ldr	r0, .L391+200
 8741 8408 0020C5E5 		strb	r2, [r5]
 8742 840c FEFFFFEB 		bl	uart_transmit
 8743 8410 1A10D4E5 		ldrb	r1, [r4, #26]	@ zero_extendqisi2
 8744 8414 0020D6E5 		ldrb	r2, [r6]	@ zero_extendqisi2
 8745 8418 0000D5E5 		ldrb	r0, [r5]	@ zero_extendqisi2
 8746 841c 022081E0 		add	r2, r1, r2
 8747 8420 FF2002E2 		and	r2, r2, #255
 8748 8424 0020C6E5 		strb	r2, [r6]
 8749 8428 002082E0 		add	r2, r2, r0
 8750 842c E00C9FE5 		ldr	r0, .L391+200
 8751 8430 0020C5E5 		strb	r2, [r5]
 8752 8434 FEFFFFEB 		bl	uart_transmit
 8753 8438 1B10D4E5 		ldrb	r1, [r4, #27]	@ zero_extendqisi2
 8754 843c 0020D6E5 		ldrb	r2, [r6]	@ zero_extendqisi2
 8755 8440 0000D5E5 		ldrb	r0, [r5]	@ zero_extendqisi2
 8756 8444 022081E0 		add	r2, r1, r2
 8757 8448 FF2002E2 		and	r2, r2, #255
 8758 844c 0020C6E5 		strb	r2, [r6]
 8759 8450 002082E0 		add	r2, r2, r0
 8760 8454 B80C9FE5 		ldr	r0, .L391+200
 8761 8458 0020C5E5 		strb	r2, [r5]
 8762 845c FEFFFFEB 		bl	uart_transmit
 8763 8460 0C10DDE5 		ldrb	r1, [sp, #12]	@ zero_extendqisi2
 8764 8464 0020D6E5 		ldrb	r2, [r6]	@ zero_extendqisi2
 8765 8468 0000D5E5 		ldrb	r0, [r5]	@ zero_extendqisi2
 8766 846c 022081E0 		add	r2, r1, r2
 8767 8470 FF2002E2 		and	r2, r2, #255
 8768 8474 0020C6E5 		strb	r2, [r6]
 8769 8478 002082E0 		add	r2, r2, r0
 8770 847c 900C9FE5 		ldr	r0, .L391+200
 8771 8480 0020C5E5 		strb	r2, [r5]
 8772 8484 FEFFFFEB 		bl	uart_transmit
 8773 8488 0D10DDE5 		ldrb	r1, [sp, #13]	@ zero_extendqisi2
 8774 848c 0020D6E5 		ldrb	r2, [r6]	@ zero_extendqisi2
 8775 8490 0000D5E5 		ldrb	r0, [r5]	@ zero_extendqisi2
 8776 8494 022081E0 		add	r2, r1, r2
 8777 8498 FF2002E2 		and	r2, r2, #255
 8778 849c 0020C6E5 		strb	r2, [r6]
 8779 84a0 002082E0 		add	r2, r2, r0
 8780 84a4 680C9FE5 		ldr	r0, .L391+200
 8781 84a8 0020C5E5 		strb	r2, [r5]
 8782 84ac FEFFFFEB 		bl	uart_transmit
 8783 84b0 2810D4E5 		ldrb	r1, [r4, #40]	@ zero_extendqisi2
 8784 84b4 0020D6E5 		ldrb	r2, [r6]	@ zero_extendqisi2
 8785 84b8 0000D5E5 		ldrb	r0, [r5]	@ zero_extendqisi2
 8786 84bc 022081E0 		add	r2, r1, r2
 8787 84c0 FF2002E2 		and	r2, r2, #255
 8788 84c4 0020C6E5 		strb	r2, [r6]
 8789 84c8 002082E0 		add	r2, r2, r0
 8790 84cc 400C9FE5 		ldr	r0, .L391+200
 8791 84d0 0020C5E5 		strb	r2, [r5]
 8792 84d4 FEFFFFEB 		bl	uart_transmit
 8793 84d8 2910D4E5 		ldrb	r1, [r4, #41]	@ zero_extendqisi2
 8794 84dc 0020D6E5 		ldrb	r2, [r6]	@ zero_extendqisi2
 8795 84e0 0000D5E5 		ldrb	r0, [r5]	@ zero_extendqisi2
 8796 84e4 022081E0 		add	r2, r1, r2
 8797 84e8 FF2002E2 		and	r2, r2, #255
 8798 84ec 0020C6E5 		strb	r2, [r6]
 8799 84f0 002082E0 		add	r2, r2, r0
 8800 84f4 180C9FE5 		ldr	r0, .L391+200
 8801 84f8 0020C5E5 		strb	r2, [r5]
 8802 84fc FEFFFFEB 		bl	uart_transmit
 8803 8500 2A10D4E5 		ldrb	r1, [r4, #42]	@ zero_extendqisi2
 8804 8504 0020D6E5 		ldrb	r2, [r6]	@ zero_extendqisi2
 8805 8508 0000D5E5 		ldrb	r0, [r5]	@ zero_extendqisi2
 8806 850c 022081E0 		add	r2, r1, r2
 8807 8510 FF2002E2 		and	r2, r2, #255
 8808 8514 0020C6E5 		strb	r2, [r6]
 8809 8518 002082E0 		add	r2, r2, r0
 8810 851c F00B9FE5 		ldr	r0, .L391+200
 8811 8520 0020C5E5 		strb	r2, [r5]
 8812 8524 FEFFFFEB 		bl	uart_transmit
 8813 8528 2B10D4E5 		ldrb	r1, [r4, #43]	@ zero_extendqisi2
 8814 852c 0020D6E5 		ldrb	r2, [r6]	@ zero_extendqisi2
 8815 8530 0000D5E5 		ldrb	r0, [r5]	@ zero_extendqisi2
 8816 8534 022081E0 		add	r2, r1, r2
 8817 8538 FF2002E2 		and	r2, r2, #255
 8818 853c 0020C6E5 		strb	r2, [r6]
 8819 8540 002082E0 		add	r2, r2, r0
 8820 8544 C80B9FE5 		ldr	r0, .L391+200
 8821 8548 0020C5E5 		strb	r2, [r5]
 8822 854c FEFFFFEB 		bl	uart_transmit
 8823 8550 4410D4E5 		ldrb	r1, [r4, #68]	@ zero_extendqisi2
 8824 8554 0020D6E5 		ldrb	r2, [r6]	@ zero_extendqisi2
 8825 8558 0000D5E5 		ldrb	r0, [r5]	@ zero_extendqisi2
 8826 855c 022081E0 		add	r2, r1, r2
 8827 8560 FF2002E2 		and	r2, r2, #255
 8828 8564 0020C6E5 		strb	r2, [r6]
 8829 8568 002082E0 		add	r2, r2, r0
 8830 856c A00B9FE5 		ldr	r0, .L391+200
 8831 8570 0020C5E5 		strb	r2, [r5]
 8832 8574 FEFFFFEB 		bl	uart_transmit
 8833 8578 4510D4E5 		ldrb	r1, [r4, #69]	@ zero_extendqisi2
 8834 857c 0020D6E5 		ldrb	r2, [r6]	@ zero_extendqisi2
 8835 8580 0000D5E5 		ldrb	r0, [r5]	@ zero_extendqisi2
 8836 8584 022081E0 		add	r2, r1, r2
 8837 8588 FF2002E2 		and	r2, r2, #255
 8838 858c 0020C6E5 		strb	r2, [r6]
 8839 8590 002082E0 		add	r2, r2, r0
 8840 8594 780B9FE5 		ldr	r0, .L391+200
 8841 8598 0020C5E5 		strb	r2, [r5]
 8842 859c FEFFFFEB 		bl	uart_transmit
 8843 85a0 0810DDE5 		ldrb	r1, [sp, #8]	@ zero_extendqisi2
 8844 85a4 0020D6E5 		ldrb	r2, [r6]	@ zero_extendqisi2
 8845 85a8 0000D5E5 		ldrb	r0, [r5]	@ zero_extendqisi2
 8846 85ac 022081E0 		add	r2, r1, r2
 8847 85b0 FF2002E2 		and	r2, r2, #255
 8848 85b4 0020C6E5 		strb	r2, [r6]
 8849 85b8 002082E0 		add	r2, r2, r0
 8850 85bc 500B9FE5 		ldr	r0, .L391+200
 8851 85c0 0020C5E5 		strb	r2, [r5]
 8852 85c4 FEFFFFEB 		bl	uart_transmit
 8853 85c8 0910DDE5 		ldrb	r1, [sp, #9]	@ zero_extendqisi2
 8854 85cc 0020D6E5 		ldrb	r2, [r6]	@ zero_extendqisi2
 8855 85d0 0000D5E5 		ldrb	r0, [r5]	@ zero_extendqisi2
 8856 85d4 022081E0 		add	r2, r1, r2
 8857 85d8 FF2002E2 		and	r2, r2, #255
 8858 85dc 0020C6E5 		strb	r2, [r6]
 8859 85e0 002082E0 		add	r2, r2, r0
 8860 85e4 280B9FE5 		ldr	r0, .L391+200
 8861 85e8 0020C5E5 		strb	r2, [r5]
 8862 85ec FEFFFFEB 		bl	uart_transmit
 8863 85f0 5C10D4E5 		ldrb	r1, [r4, #92]	@ zero_extendqisi2
 8864 85f4 0020D6E5 		ldrb	r2, [r6]	@ zero_extendqisi2
 8865 85f8 0000D5E5 		ldrb	r0, [r5]	@ zero_extendqisi2
 8866 85fc 022081E0 		add	r2, r1, r2
 8867 8600 FF2002E2 		and	r2, r2, #255
 8868 8604 0020C6E5 		strb	r2, [r6]
 8869 8608 002082E0 		add	r2, r2, r0
 8870 860c 000B9FE5 		ldr	r0, .L391+200
 8871 8610 0020C5E5 		strb	r2, [r5]
 8872 8614 FEFFFFEB 		bl	uart_transmit
 8873 8618 5D10D4E5 		ldrb	r1, [r4, #93]	@ zero_extendqisi2
 8874 861c 0020D6E5 		ldrb	r2, [r6]	@ zero_extendqisi2
 8875 8620 0000D5E5 		ldrb	r0, [r5]	@ zero_extendqisi2
 8876 8624 022081E0 		add	r2, r1, r2
 8877 8628 FF2002E2 		and	r2, r2, #255
 8878 862c 0020C6E5 		strb	r2, [r6]
 8879 8630 002082E0 		add	r2, r2, r0
 8880 8634 D80A9FE5 		ldr	r0, .L391+200
 8881 8638 0020C5E5 		strb	r2, [r5]
 8882 863c FEFFFFEB 		bl	uart_transmit
 8883 8640 6010D4E5 		ldrb	r1, [r4, #96]	@ zero_extendqisi2
 8884 8644 0020D6E5 		ldrb	r2, [r6]	@ zero_extendqisi2
 8885 8648 0000D5E5 		ldrb	r0, [r5]	@ zero_extendqisi2
 8886 864c 022081E0 		add	r2, r1, r2
 8887 8650 FF2002E2 		and	r2, r2, #255
 8888 8654 0020C6E5 		strb	r2, [r6]
 8889 8658 002082E0 		add	r2, r2, r0
 8890 865c B00A9FE5 		ldr	r0, .L391+200
 8891 8660 0020C5E5 		strb	r2, [r5]
 8892 8664 FEFFFFEB 		bl	uart_transmit
 8893 8668 6110D4E5 		ldrb	r1, [r4, #97]	@ zero_extendqisi2
 8894 866c 0020D6E5 		ldrb	r2, [r6]	@ zero_extendqisi2
 8895 8670 0000D5E5 		ldrb	r0, [r5]	@ zero_extendqisi2
 8896 8674 022081E0 		add	r2, r1, r2
 8897 8678 FF2002E2 		and	r2, r2, #255
 8898 867c 0020C6E5 		strb	r2, [r6]
 8899 8680 002082E0 		add	r2, r2, r0
 8900 8684 880A9FE5 		ldr	r0, .L391+200
 8901 8688 0020C5E5 		strb	r2, [r5]
 8902 868c FEFFFFEB 		bl	uart_transmit
 8903 8690 6210D4E5 		ldrb	r1, [r4, #98]	@ zero_extendqisi2
 8904 8694 0020D6E5 		ldrb	r2, [r6]	@ zero_extendqisi2
 8905 8698 0000D5E5 		ldrb	r0, [r5]	@ zero_extendqisi2
 8906 869c 022081E0 		add	r2, r1, r2
 8907 86a0 FF2002E2 		and	r2, r2, #255
 8908 86a4 0020C6E5 		strb	r2, [r6]
 8909 86a8 002082E0 		add	r2, r2, r0
 8910 86ac 600A9FE5 		ldr	r0, .L391+200
 8911 86b0 0020C5E5 		strb	r2, [r5]
 8912 86b4 FEFFFFEB 		bl	uart_transmit
 8913 86b8 6310D4E5 		ldrb	r1, [r4, #99]	@ zero_extendqisi2
 8914 86bc 0020D6E5 		ldrb	r2, [r6]	@ zero_extendqisi2
 8915 86c0 0000D5E5 		ldrb	r0, [r5]	@ zero_extendqisi2
 8916 86c4 022081E0 		add	r2, r1, r2
 8917 86c8 FF2002E2 		and	r2, r2, #255
 8918 86cc 0020C6E5 		strb	r2, [r6]
 8919 86d0 002082E0 		add	r2, r2, r0
 8920 86d4 380A9FE5 		ldr	r0, .L391+200
 8921 86d8 0020C5E5 		strb	r2, [r5]
 8922 86dc FEFFFFEB 		bl	uart_transmit
 8923 86e0 2410D4E5 		ldrb	r1, [r4, #36]	@ zero_extendqisi2
 8924 86e4 0020D6E5 		ldrb	r2, [r6]	@ zero_extendqisi2
 8925 86e8 0000D5E5 		ldrb	r0, [r5]	@ zero_extendqisi2
 8926 86ec 022081E0 		add	r2, r1, r2
 8927 86f0 FF2002E2 		and	r2, r2, #255
 8928 86f4 0020C6E5 		strb	r2, [r6]
 8929 86f8 002082E0 		add	r2, r2, r0
 8930 86fc 100A9FE5 		ldr	r0, .L391+200
 8931 8700 0020C5E5 		strb	r2, [r5]
 8932 8704 FEFFFFEB 		bl	uart_transmit
 8933 8708 50299FE5 		ldr	r2, .L391+20
 8934 870c 0010D2E5 		ldrb	r1, [r2]	@ zero_extendqisi2
 8935 8710 0020D6E5 		ldrb	r2, [r6]	@ zero_extendqisi2
 8936 8714 0000D5E5 		ldrb	r0, [r5]	@ zero_extendqisi2
 8937 8718 022081E0 		add	r2, r1, r2
 8938 871c FF2002E2 		and	r2, r2, #255
 8939 8720 0020C6E5 		strb	r2, [r6]
 8940 8724 002082E0 		add	r2, r2, r0
 8941 8728 E4099FE5 		ldr	r0, .L391+200
 8942 872c 0020C5E5 		strb	r2, [r5]
 8943 8730 FEFFFFEB 		bl	uart_transmit
 8944 8734 0010D6E5 		ldrb	r1, [r6]	@ zero_extendqisi2
 8945 8738 D4099FE5 		ldr	r0, .L391+200
 8946 873c FEFFFFEB 		bl	uart_transmit
 8947 8740 CC099FE5 		ldr	r0, .L391+200
 8948 8744 0010D5E5 		ldrb	r1, [r5]	@ zero_extendqisi2
 8949 8748 FEFFFFEB 		bl	uart_transmit
 8950 874c 030000EA 		b	.L273
 8951              	.L272:
 8952 8750 C0399FE5 		ldr	r3, .L391+204
 8953 8754 0020D3E5 		ldrb	r2, [r3]	@ zero_extendqisi2
 8954 8758 012082E2 		add	r2, r2, #1
 8955 875c 0020C3E5 		strb	r2, [r3]
 8956              	.L273:
 8957 8760 E8289FE5 		ldr	r2, .L391+4
 8958 8764 5B30D2E5 		ldrb	r3, [r2, #91]	@ zero_extendqisi2
 8959 8768 030053E3 		cmp	r3, #3
 8960 876c EC389FE5 		ldr	r3, .L391+20
 8961 8770 0400000A 		beq	.L274
 8962 8774 6410D2E5 		ldrb	r1, [r2, #100]	@ zero_extendqisi2
 8963 8778 0000D3E5 		ldrb	r0, [r3]	@ zero_extendqisi2
 8964 877c 010050E1 		cmp	r0, r1
 8965 8780 0010A023 		movcs	r1, #0
 8966 8784 0010C325 		strcsb	r1, [r3]
 8967              	.L274:
 8968 8788 0000D3E5 		ldrb	r0, [r3]	@ zero_extendqisi2
 8969 878c 6410D2E5 		ldrb	r1, [r2, #100]	@ zero_extendqisi2
 8970 8790 810050E1 		cmp	r0, r1, asl #1
 8971 8794 C4089FA5 		ldrge	r0, .L391+20
 8972 8798 00C0A0A3 		movge	ip, #0
 8973 879c 00C0C0A5 		strgeb	ip, [r0]
 8974 87a0 0030D3E5 		ldrb	r3, [r3]	@ zero_extendqisi2
 8975 87a4 010053E1 		cmp	r3, r1
 8976 87a8 B0489FE5 		ldr	r4, .L391+20
 8977 87ac 9400002A 		bcs	.L276
 8978 87b0 832182E0 		add	r2, r2, r3, asl #3
 8979 87b4 6930D2E5 		ldrb	r3, [r2, #105]	@ zero_extendqisi2
 8980 87b8 000053E3 		cmp	r3, #0
 8981 87bc 8C589FE5 		ldr	r5, .L391+4
 8982 87c0 8F00000A 		beq	.L276
 8983 87c4 48099FE5 		ldr	r0, .L391+200
 8984 87c8 0E10A0E3 		mov	r1, #14
 8985 87cc FEFFFFEB 		bl	uart_check_free_space
 8986 87d0 000050E3 		cmp	r0, #0
 8987 87d4 8600000A 		beq	.L277
 8988 87d8 08399FE5 		ldr	r3, .L391+156
 8989 87dc B020D3E1 		ldrh	r2, [r3]
 8990 87e0 0E2082E2 		add	r2, r2, #14
 8991 87e4 B020C3E1 		strh	r2, [r3]	@ movhi
 8992 87e8 FC389FE5 		ldr	r3, .L391+160
 8993 87ec B020D3E1 		ldrh	r2, [r3]
 8994 87f0 1C099FE5 		ldr	r0, .L391+200
 8995 87f4 012082E2 		add	r2, r2, #1
 8996 87f8 9910A0E3 		mov	r1, #153
 8997 87fc F0689FE5 		ldr	r6, .L391+168
 8998 8800 B020C3E1 		strh	r2, [r3]	@ movhi
 8999 8804 FEFFFFEB 		bl	uart_transmit
 9000 8808 04099FE5 		ldr	r0, .L391+200
 9001 880c 0E10A0E3 		mov	r1, #14
 9002 8810 D8789FE5 		ldr	r7, .L391+164
 9003 8814 FEFFFFEB 		bl	uart_transmit
 9004 8818 1E10A0E3 		mov	r1, #30
 9005 881c 1030A0E3 		mov	r3, #16
 9006 8820 0010C6E5 		strb	r1, [r6]
 9007 8824 E8089FE5 		ldr	r0, .L391+200
 9008 8828 0210A0E3 		mov	r1, #2
 9009 882c 0030C7E5 		strb	r3, [r7]
 9010 8830 FEFFFFEB 		bl	uart_transmit
 9011 8834 0010D7E5 		ldrb	r1, [r7]	@ zero_extendqisi2
 9012 8838 0000D6E5 		ldrb	r0, [r6]	@ zero_extendqisi2
 9013 883c 191081E2 		add	r1, r1, #25
 9014 8840 FF1001E2 		and	r1, r1, #255
 9015 8844 0010C7E5 		strb	r1, [r7]
 9016 8848 001081E0 		add	r1, r1, r0
 9017 884c 0010C6E5 		strb	r1, [r6]
 9018 8850 BC089FE5 		ldr	r0, .L391+200
 9019 8854 1910A0E3 		mov	r1, #25
 9020 8858 FEFFFFEB 		bl	uart_transmit
 9021 885c 0010D4E5 		ldrb	r1, [r4]	@ zero_extendqisi2
 9022 8860 0000D7E5 		ldrb	r0, [r7]	@ zero_extendqisi2
 9023 8864 00C0D6E5 		ldrb	ip, [r6]	@ zero_extendqisi2
 9024 8868 000081E0 		add	r0, r1, r0
 9025 886c FF0000E2 		and	r0, r0, #255
 9026 8870 0000C7E5 		strb	r0, [r7]
 9027 8874 0C0080E0 		add	r0, r0, ip
 9028 8878 0000C6E5 		strb	r0, [r6]
 9029 887c 90089FE5 		ldr	r0, .L391+200
 9030 8880 FEFFFFEB 		bl	uart_transmit
 9031 8884 0010D4E5 		ldrb	r1, [r4]	@ zero_extendqisi2
 9032 8888 811185E0 		add	r1, r5, r1, asl #3
 9033 888c 0000D7E5 		ldrb	r0, [r7]	@ zero_extendqisi2
 9034 8890 6610D1E5 		ldrb	r1, [r1, #102]	@ zero_extendqisi2
 9035 8894 00C0D6E5 		ldrb	ip, [r6]	@ zero_extendqisi2
 9036 8898 000081E0 		add	r0, r1, r0
 9037 889c FF0000E2 		and	r0, r0, #255
 9038 88a0 0000C7E5 		strb	r0, [r7]
 9039 88a4 0C0080E0 		add	r0, r0, ip
 9040 88a8 0000C6E5 		strb	r0, [r6]
 9041 88ac 60089FE5 		ldr	r0, .L391+200
 9042 88b0 FEFFFFEB 		bl	uart_transmit
 9043 88b4 0010D4E5 		ldrb	r1, [r4]	@ zero_extendqisi2
 9044 88b8 811185E0 		add	r1, r5, r1, asl #3
 9045 88bc 0000D7E5 		ldrb	r0, [r7]	@ zero_extendqisi2
 9046 88c0 6710D1E5 		ldrb	r1, [r1, #103]	@ zero_extendqisi2
 9047 88c4 00C0D6E5 		ldrb	ip, [r6]	@ zero_extendqisi2
 9048 88c8 000081E0 		add	r0, r1, r0
 9049 88cc FF0000E2 		and	r0, r0, #255
 9050 88d0 0000C7E5 		strb	r0, [r7]
 9051 88d4 0C0080E0 		add	r0, r0, ip
 9052 88d8 0000C6E5 		strb	r0, [r6]
 9053 88dc 30089FE5 		ldr	r0, .L391+200
 9054 88e0 FEFFFFEB 		bl	uart_transmit
 9055 88e4 0010D4E5 		ldrb	r1, [r4]	@ zero_extendqisi2
 9056 88e8 811185E0 		add	r1, r5, r1, asl #3
 9057 88ec 0000D7E5 		ldrb	r0, [r7]	@ zero_extendqisi2
 9058 88f0 6810D1E5 		ldrb	r1, [r1, #104]	@ zero_extendqisi2
 9059 88f4 00C0D6E5 		ldrb	ip, [r6]	@ zero_extendqisi2
 9060 88f8 000081E0 		add	r0, r1, r0
 9061 88fc FF0000E2 		and	r0, r0, #255
 9062 8900 0000C7E5 		strb	r0, [r7]
 9063 8904 0C0080E0 		add	r0, r0, ip
 9064 8908 0000C6E5 		strb	r0, [r6]
 9065 890c 00089FE5 		ldr	r0, .L391+200
 9066 8910 FEFFFFEB 		bl	uart_transmit
 9067 8914 0010D4E5 		ldrb	r1, [r4]	@ zero_extendqisi2
 9068 8918 811185E0 		add	r1, r5, r1, asl #3
 9069 891c 0000D7E5 		ldrb	r0, [r7]	@ zero_extendqisi2
 9070 8920 6910D1E5 		ldrb	r1, [r1, #105]	@ zero_extendqisi2
 9071 8924 00C0D6E5 		ldrb	ip, [r6]	@ zero_extendqisi2
 9072 8928 000081E0 		add	r0, r1, r0
 9073 892c FF0000E2 		and	r0, r0, #255
 9074 8930 0000C7E5 		strb	r0, [r7]
 9075 8934 0C0080E0 		add	r0, r0, ip
 9076 8938 0000C6E5 		strb	r0, [r6]
 9077 893c D0079FE5 		ldr	r0, .L391+200
 9078 8940 FEFFFFEB 		bl	uart_transmit
 9079 8944 0010D4E5 		ldrb	r1, [r4]	@ zero_extendqisi2
 9080 8948 811185E0 		add	r1, r5, r1, asl #3
 9081 894c 0000D7E5 		ldrb	r0, [r7]	@ zero_extendqisi2
 9082 8950 6A10D1E5 		ldrb	r1, [r1, #106]	@ zero_extendqisi2
 9083 8954 00C0D6E5 		ldrb	ip, [r6]	@ zero_extendqisi2
 9084 8958 000081E0 		add	r0, r1, r0
 9085 895c FF0000E2 		and	r0, r0, #255
 9086 8960 0000C7E5 		strb	r0, [r7]
 9087 8964 0C0080E0 		add	r0, r0, ip
 9088 8968 0000C6E5 		strb	r0, [r6]
 9089 896c A0079FE5 		ldr	r0, .L391+200
 9090 8970 FEFFFFEB 		bl	uart_transmit
 9091 8974 0010D4E5 		ldrb	r1, [r4]	@ zero_extendqisi2
 9092 8978 0C5085E2 		add	r5, r5, #12
 9093 897c 0C1081E2 		add	r1, r1, #12
 9094 8980 8111D5E7 		ldrb	r1, [r5, r1, asl #3]	@ zero_extendqisi2
 9095 8984 0000D7E5 		ldrb	r0, [r7]	@ zero_extendqisi2
 9096 8988 00C0D6E5 		ldrb	ip, [r6]	@ zero_extendqisi2
 9097 898c 000081E0 		add	r0, r1, r0
 9098 8990 FF0000E2 		and	r0, r0, #255
 9099 8994 0000C7E5 		strb	r0, [r7]
 9100 8998 0C0080E0 		add	r0, r0, ip
 9101 899c 0000C6E5 		strb	r0, [r6]
 9102 89a0 6C079FE5 		ldr	r0, .L391+200
 9103 89a4 FEFFFFEB 		bl	uart_transmit
 9104 89a8 0010D4E5 		ldrb	r1, [r4]	@ zero_extendqisi2
 9105 89ac 815185E0 		add	r5, r5, r1, asl #3
 9106 89b0 6110D5E5 		ldrb	r1, [r5, #97]	@ zero_extendqisi2
 9107 89b4 0000D7E5 		ldrb	r0, [r7]	@ zero_extendqisi2
 9108 89b8 00C0D6E5 		ldrb	ip, [r6]	@ zero_extendqisi2
 9109 89bc 000081E0 		add	r0, r1, r0
 9110 89c0 FF0000E2 		and	r0, r0, #255
 9111 89c4 0000C7E5 		strb	r0, [r7]
 9112 89c8 0C0080E0 		add	r0, r0, ip
 9113 89cc 0000C6E5 		strb	r0, [r6]
 9114 89d0 3C079FE5 		ldr	r0, .L391+200
 9115 89d4 FEFFFFEB 		bl	uart_transmit
 9116 89d8 0010D7E5 		ldrb	r1, [r7]	@ zero_extendqisi2
 9117 89dc 30079FE5 		ldr	r0, .L391+200
 9118 89e0 FEFFFFEB 		bl	uart_transmit
 9119 89e4 28079FE5 		ldr	r0, .L391+200
 9120 89e8 0010D6E5 		ldrb	r1, [r6]	@ zero_extendqisi2
 9121 89ec FEFFFFEB 		bl	uart_transmit
 9122 89f0 030000EA 		b	.L276
 9123              	.L277:
 9124 89f4 1C379FE5 		ldr	r3, .L391+204
 9125 89f8 0020D3E5 		ldrb	r2, [r3]	@ zero_extendqisi2
 9126 89fc 012082E2 		add	r2, r2, #1
 9127 8a00 0020C3E5 		strb	r2, [r3]
 9128              	.L276:
 9129 8a04 54369FE5 		ldr	r3, .L391+20
 9130 8a08 0020D3E5 		ldrb	r2, [r3]	@ zero_extendqisi2
 9131 8a0c 012082E2 		add	r2, r2, #1
 9132 8a10 0020C3E5 		strb	r2, [r3]
 9133              	.L271:
 9134 8a14 B030DBE1 		ldrh	r3, [fp]
 9135 8a18 0C0053E3 		cmp	r3, #12
 9136 8a1c 8200001A 		bne	.L278
 9137 8a20 EC069FE5 		ldr	r0, .L391+200
 9138 8a24 0E10A0E3 		mov	r1, #14
 9139 8a28 FEFFFFEB 		bl	uart_check_free_space
 9140 8a2c 000050E3 		cmp	r0, #0
 9141 8a30 7900000A 		beq	.L279
 9142 8a34 AC369FE5 		ldr	r3, .L391+156
 9143 8a38 B020D3E1 		ldrh	r2, [r3]
 9144 8a3c 0E2082E2 		add	r2, r2, #14
 9145 8a40 B020C3E1 		strh	r2, [r3]	@ movhi
 9146 8a44 A0369FE5 		ldr	r3, .L391+160
 9147 8a48 B020D3E1 		ldrh	r2, [r3]
 9148 8a4c C0069FE5 		ldr	r0, .L391+200
 9149 8a50 012082E2 		add	r2, r2, #1
 9150 8a54 9910A0E3 		mov	r1, #153
 9151 8a58 90B69FE5 		ldr	fp, .L391+164
 9152 8a5c B020C3E1 		strh	r2, [r3]	@ movhi
 9153 8a60 FEFFFFEB 		bl	uart_transmit
 9154 8a64 A8069FE5 		ldr	r0, .L391+200
 9155 8a68 0E10A0E3 		mov	r1, #14
 9156 8a6c 80469FE5 		ldr	r4, .L391+168
 9157 8a70 FEFFFFEB 		bl	uart_transmit
 9158 8a74 1030A0E3 		mov	r3, #16
 9159 8a78 0030CBE5 		strb	r3, [fp]
 9160 8a7c 90069FE5 		ldr	r0, .L391+200
 9161 8a80 1E30A0E3 		mov	r3, #30
 9162 8a84 0210A0E3 		mov	r1, #2
 9163 8a88 0030C4E5 		strb	r3, [r4]
 9164 8a8c FEFFFFEB 		bl	uart_transmit
 9165 8a90 0030DBE5 		ldrb	r3, [fp]	@ zero_extendqisi2
 9166 8a94 0020D4E5 		ldrb	r2, [r4]	@ zero_extendqisi2
 9167 8a98 2A3083E2 		add	r3, r3, #42
 9168 8a9c C0559FE5 		ldr	r5, .L391+24
 9169 8aa0 FF3003E2 		and	r3, r3, #255
 9170 8aa4 0030CBE5 		strb	r3, [fp]
 9171 8aa8 64069FE5 		ldr	r0, .L391+200
 9172 8aac 023083E0 		add	r3, r3, r2
 9173 8ab0 2A10A0E3 		mov	r1, #42
 9174 8ab4 0030C4E5 		strb	r3, [r4]
 9175 8ab8 FEFFFFEB 		bl	uart_transmit
 9176 8abc 0010D5E5 		ldrb	r1, [r5]	@ zero_extendqisi2
 9177 8ac0 0030DBE5 		ldrb	r3, [fp]	@ zero_extendqisi2
 9178 8ac4 0020D4E5 		ldrb	r2, [r4]	@ zero_extendqisi2
 9179 8ac8 033081E0 		add	r3, r1, r3
 9180 8acc FF3003E2 		and	r3, r3, #255
 9181 8ad0 0030CBE5 		strb	r3, [fp]
 9182 8ad4 38069FE5 		ldr	r0, .L391+200
 9183 8ad8 023083E0 		add	r3, r3, r2
 9184 8adc 0030C4E5 		strb	r3, [r4]
 9185 8ae0 FEFFFFEB 		bl	uart_transmit
 9186 8ae4 0110D5E5 		ldrb	r1, [r5, #1]	@ zero_extendqisi2
 9187 8ae8 0030DBE5 		ldrb	r3, [fp]	@ zero_extendqisi2
 9188 8aec 0020D4E5 		ldrb	r2, [r4]	@ zero_extendqisi2
 9189 8af0 033081E0 		add	r3, r1, r3
 9190 8af4 FF3003E2 		and	r3, r3, #255
 9191 8af8 0030CBE5 		strb	r3, [fp]
 9192 8afc 10069FE5 		ldr	r0, .L391+200
 9193 8b00 023083E0 		add	r3, r3, r2
 9194 8b04 0030C4E5 		strb	r3, [r4]
 9195 8b08 FEFFFFEB 		bl	uart_transmit
 9196 8b0c 0210D5E5 		ldrb	r1, [r5, #2]	@ zero_extendqisi2
 9197 8b10 0030DBE5 		ldrb	r3, [fp]	@ zero_extendqisi2
 9198 8b14 0020D4E5 		ldrb	r2, [r4]	@ zero_extendqisi2
 9199 8b18 033081E0 		add	r3, r1, r3
 9200 8b1c FF3003E2 		and	r3, r3, #255
 9201 8b20 0030CBE5 		strb	r3, [fp]
 9202 8b24 E8059FE5 		ldr	r0, .L391+200
 9203 8b28 023083E0 		add	r3, r3, r2
 9204 8b2c 0030C4E5 		strb	r3, [r4]
 9205 8b30 FEFFFFEB 		bl	uart_transmit
 9206 8b34 0310D5E5 		ldrb	r1, [r5, #3]	@ zero_extendqisi2
 9207 8b38 0030DBE5 		ldrb	r3, [fp]	@ zero_extendqisi2
 9208 8b3c 0020D4E5 		ldrb	r2, [r4]	@ zero_extendqisi2
 9209 8b40 033081E0 		add	r3, r1, r3
 9210 8b44 1C559FE5 		ldr	r5, .L391+28
 9211 8b48 FF3003E2 		and	r3, r3, #255
 9212 8b4c 0030CBE5 		strb	r3, [fp]
 9213 8b50 BC059FE5 		ldr	r0, .L391+200
 9214 8b54 023083E0 		add	r3, r3, r2
 9215 8b58 0030C4E5 		strb	r3, [r4]
 9216 8b5c FEFFFFEB 		bl	uart_transmit
 9217 8b60 0010D5E5 		ldrb	r1, [r5]	@ zero_extendqisi2
 9218 8b64 0030DBE5 		ldrb	r3, [fp]	@ zero_extendqisi2
 9219 8b68 0020D4E5 		ldrb	r2, [r4]	@ zero_extendqisi2
 9220 8b6c 033081E0 		add	r3, r1, r3
 9221 8b70 FF3003E2 		and	r3, r3, #255
 9222 8b74 0030CBE5 		strb	r3, [fp]
 9223 8b78 94059FE5 		ldr	r0, .L391+200
 9224 8b7c 023083E0 		add	r3, r3, r2
 9225 8b80 0030C4E5 		strb	r3, [r4]
 9226 8b84 FEFFFFEB 		bl	uart_transmit
 9227 8b88 0110D5E5 		ldrb	r1, [r5, #1]	@ zero_extendqisi2
 9228 8b8c 0030DBE5 		ldrb	r3, [fp]	@ zero_extendqisi2
 9229 8b90 0020D4E5 		ldrb	r2, [r4]	@ zero_extendqisi2
 9230 8b94 033081E0 		add	r3, r1, r3
 9231 8b98 FF3003E2 		and	r3, r3, #255
 9232 8b9c 0030CBE5 		strb	r3, [fp]
 9233 8ba0 6C059FE5 		ldr	r0, .L391+200
 9234 8ba4 023083E0 		add	r3, r3, r2
 9235 8ba8 0030C4E5 		strb	r3, [r4]
 9236 8bac FEFFFFEB 		bl	uart_transmit
 9237 8bb0 0210D5E5 		ldrb	r1, [r5, #2]	@ zero_extendqisi2
 9238 8bb4 0030DBE5 		ldrb	r3, [fp]	@ zero_extendqisi2
 9239 8bb8 0020D4E5 		ldrb	r2, [r4]	@ zero_extendqisi2
 9240 8bbc 033081E0 		add	r3, r1, r3
 9241 8bc0 FF3003E2 		and	r3, r3, #255
 9242 8bc4 0030CBE5 		strb	r3, [fp]
 9243 8bc8 44059FE5 		ldr	r0, .L391+200
 9244 8bcc 023083E0 		add	r3, r3, r2
 9245 8bd0 0030C4E5 		strb	r3, [r4]
 9246 8bd4 FEFFFFEB 		bl	uart_transmit
 9247 8bd8 0310D5E5 		ldrb	r1, [r5, #3]	@ zero_extendqisi2
 9248 8bdc 0030DBE5 		ldrb	r3, [fp]	@ zero_extendqisi2
 9249 8be0 0020D4E5 		ldrb	r2, [r4]	@ zero_extendqisi2
 9250 8be4 033081E0 		add	r3, r1, r3
 9251 8be8 FF3003E2 		and	r3, r3, #255
 9252 8bec 0030CBE5 		strb	r3, [fp]
 9253 8bf0 1C059FE5 		ldr	r0, .L391+200
 9254 8bf4 023083E0 		add	r3, r3, r2
 9255 8bf8 0030C4E5 		strb	r3, [r4]
 9256 8bfc FEFFFFEB 		bl	uart_transmit
 9257 8c00 0010DBE5 		ldrb	r1, [fp]	@ zero_extendqisi2
 9258 8c04 08059FE5 		ldr	r0, .L391+200
 9259 8c08 FEFFFFEB 		bl	uart_transmit
 9260 8c0c 00059FE5 		ldr	r0, .L391+200
 9261 8c10 0010D4E5 		ldrb	r1, [r4]	@ zero_extendqisi2
 9262 8c14 FEFFFFEB 		bl	uart_transmit
 9263 8c18 030000EA 		b	.L278
 9264              	.L279:
 9265 8c1c F4349FE5 		ldr	r3, .L391+204
 9266 8c20 0020D3E5 		ldrb	r2, [r3]	@ zero_extendqisi2
 9267 8c24 012082E2 		add	r2, r2, #1
 9268 8c28 0020C3E5 		strb	r2, [r3]
 9269              	.L278:
 9270 8c2c B030DAE1 		ldrh	r3, [r10]
 9271 8c30 120053E3 		cmp	r3, #18
 9272 8c34 3C01001A 		bne	.L280
 9273 8c38 2C349FE5 		ldr	r3, .L391+32
 9274 8c3c D0049FE5 		ldr	r0, .L391+200
 9275 8c40 1A10A0E3 		mov	r1, #26
 9276 8c44 004093E5 		ldr	r4, [r3]	@ float
 9277 8c48 FEFFFFEB 		bl	uart_check_free_space
 9278 8c4c 000050E3 		cmp	r0, #0
 9279 8c50 3101000A 		beq	.L281
 9280 8c54 0201C4E3 		bic	r0, r4, #-2147483648
 9281 8c58 FEFFFFEB 		bl	__aeabi_f2d
 9282 8c5c 0C249FE5 		ldr	r2, .L391+36
 9283 8c60 0C349FE5 		ldr	r3, .L391+40
 9284 8c64 FEFFFFEB 		bl	__aeabi_ddiv
 9285 8c68 FEFFFFEB 		bl	__aeabi_d2uiz
 9286 8c6c 74349FE5 		ldr	r3, .L391+156
 9287 8c70 B020D3E1 		ldrh	r2, [r3]
 9288 8c74 1A2082E2 		add	r2, r2, #26
 9289 8c78 B020C3E1 		strh	r2, [r3]	@ movhi
 9290 8c7c 68349FE5 		ldr	r3, .L391+160
 9291 8c80 B020D3E1 		ldrh	r2, [r3]
 9292 8c84 FFB000E2 		and	fp, r0, #255
 9293 8c88 012082E2 		add	r2, r2, #1
 9294 8c8c 80049FE5 		ldr	r0, .L391+200
 9295 8c90 9910A0E3 		mov	r1, #153
 9296 8c94 54549FE5 		ldr	r5, .L391+164
 9297 8c98 B020C3E1 		strh	r2, [r3]	@ movhi
 9298 8c9c FEFFFFEB 		bl	uart_transmit
 9299 8ca0 6C049FE5 		ldr	r0, .L391+200
 9300 8ca4 1A10A0E3 		mov	r1, #26
 9301 8ca8 44449FE5 		ldr	r4, .L391+168
 9302 8cac FEFFFFEB 		bl	uart_transmit
 9303 8cb0 1C30A0E3 		mov	r3, #28
 9304 8cb4 0030C5E5 		strb	r3, [r5]
 9305 8cb8 54049FE5 		ldr	r0, .L391+200
 9306 8cbc 3630A0E3 		mov	r3, #54
 9307 8cc0 0210A0E3 		mov	r1, #2
 9308 8cc4 0030C4E5 		strb	r3, [r4]
 9309 8cc8 FEFFFFEB 		bl	uart_transmit
 9310 8ccc 0030D5E5 		ldrb	r3, [r5]	@ zero_extendqisi2
 9311 8cd0 0020D4E5 		ldrb	r2, [r4]	@ zero_extendqisi2
 9312 8cd4 0A3083E2 		add	r3, r3, #10
 9313 8cd8 FF3003E2 		and	r3, r3, #255
 9314 8cdc 0030C5E5 		strb	r3, [r5]
 9315 8ce0 2C049FE5 		ldr	r0, .L391+200
 9316 8ce4 023083E0 		add	r3, r3, r2
 9317 8ce8 0A10A0E3 		mov	r1, #10
 9318 8cec 0030C4E5 		strb	r3, [r4]
 9319 8cf0 FEFFFFEB 		bl	uart_transmit
 9320 8cf4 7C339FE5 		ldr	r3, .L391+44
 9321 8cf8 0010D3E5 		ldrb	r1, [r3]	@ zero_extendqisi2
 9322 8cfc 0030D5E5 		ldrb	r3, [r5]	@ zero_extendqisi2
 9323 8d00 0020D4E5 		ldrb	r2, [r4]	@ zero_extendqisi2
 9324 8d04 033081E0 		add	r3, r1, r3
 9325 8d08 FF3003E2 		and	r3, r3, #255
 9326 8d0c 0030C5E5 		strb	r3, [r5]
 9327 8d10 FC039FE5 		ldr	r0, .L391+200
 9328 8d14 023083E0 		add	r3, r3, r2
 9329 8d18 0030C4E5 		strb	r3, [r4]
 9330 8d1c FEFFFFEB 		bl	uart_transmit
 9331 8d20 54339FE5 		ldr	r3, .L391+48
 9332 8d24 0010D3E5 		ldrb	r1, [r3]	@ zero_extendqisi2
 9333 8d28 0030D5E5 		ldrb	r3, [r5]	@ zero_extendqisi2
 9334 8d2c 0020D4E5 		ldrb	r2, [r4]	@ zero_extendqisi2
 9335 8d30 033081E0 		add	r3, r1, r3
 9336 8d34 44A39FE5 		ldr	r10, .L391+52
 9337 8d38 FF3003E2 		and	r3, r3, #255
 9338 8d3c 0030C5E5 		strb	r3, [r5]
 9339 8d40 CC039FE5 		ldr	r0, .L391+200
 9340 8d44 023083E0 		add	r3, r3, r2
 9341 8d48 0030C4E5 		strb	r3, [r4]
 9342 8d4c FEFFFFEB 		bl	uart_transmit
 9343 8d50 0010DAE5 		ldrb	r1, [r10]	@ zero_extendqisi2
 9344 8d54 0030D5E5 		ldrb	r3, [r5]	@ zero_extendqisi2
 9345 8d58 0020D4E5 		ldrb	r2, [r4]	@ zero_extendqisi2
 9346 8d5c 033081E0 		add	r3, r1, r3
 9347 8d60 FF3003E2 		and	r3, r3, #255
 9348 8d64 0030C5E5 		strb	r3, [r5]
 9349 8d68 A4039FE5 		ldr	r0, .L391+200
 9350 8d6c 023083E0 		add	r3, r3, r2
 9351 8d70 0030C4E5 		strb	r3, [r4]
 9352 8d74 FEFFFFEB 		bl	uart_transmit
 9353 8d78 0110DAE5 		ldrb	r1, [r10, #1]	@ zero_extendqisi2
 9354 8d7c 0030D5E5 		ldrb	r3, [r5]	@ zero_extendqisi2
 9355 8d80 0020D4E5 		ldrb	r2, [r4]	@ zero_extendqisi2
 9356 8d84 033081E0 		add	r3, r1, r3
 9357 8d88 FF3003E2 		and	r3, r3, #255
 9358 8d8c 0030C5E5 		strb	r3, [r5]
 9359 8d90 7C039FE5 		ldr	r0, .L391+200
 9360 8d94 023083E0 		add	r3, r3, r2
 9361 8d98 0030C4E5 		strb	r3, [r4]
 9362 8d9c FEFFFFEB 		bl	uart_transmit
 9363 8da0 0210DAE5 		ldrb	r1, [r10, #2]	@ zero_extendqisi2
 9364 8da4 0030D5E5 		ldrb	r3, [r5]	@ zero_extendqisi2
 9365 8da8 0020D4E5 		ldrb	r2, [r4]	@ zero_extendqisi2
 9366 8dac 033081E0 		add	r3, r1, r3
 9367 8db0 FF3003E2 		and	r3, r3, #255
 9368 8db4 0030C5E5 		strb	r3, [r5]
 9369 8db8 54039FE5 		ldr	r0, .L391+200
 9370 8dbc 023083E0 		add	r3, r3, r2
 9371 8dc0 0030C4E5 		strb	r3, [r4]
 9372 8dc4 FEFFFFEB 		bl	uart_transmit
 9373 8dc8 0310DAE5 		ldrb	r1, [r10, #3]	@ zero_extendqisi2
 9374 8dcc 0030D5E5 		ldrb	r3, [r5]	@ zero_extendqisi2
 9375 8dd0 0020D4E5 		ldrb	r2, [r4]	@ zero_extendqisi2
 9376 8dd4 033081E0 		add	r3, r1, r3
 9377 8dd8 A4A29FE5 		ldr	r10, .L391+56
 9378 8ddc FF3003E2 		and	r3, r3, #255
 9379 8de0 0030C5E5 		strb	r3, [r5]
 9380 8de4 28039FE5 		ldr	r0, .L391+200
 9381 8de8 023083E0 		add	r3, r3, r2
 9382 8dec 0030C4E5 		strb	r3, [r4]
 9383 8df0 FEFFFFEB 		bl	uart_transmit
 9384 8df4 0010DAE5 		ldrb	r1, [r10]	@ zero_extendqisi2
 9385 8df8 0030D5E5 		ldrb	r3, [r5]	@ zero_extendqisi2
 9386 8dfc 0020D4E5 		ldrb	r2, [r4]	@ zero_extendqisi2
 9387 8e00 033081E0 		add	r3, r1, r3
 9388 8e04 FF3003E2 		and	r3, r3, #255
 9389 8e08 0030C5E5 		strb	r3, [r5]
 9390 8e0c 00039FE5 		ldr	r0, .L391+200
 9391 8e10 023083E0 		add	r3, r3, r2
 9392 8e14 0030C4E5 		strb	r3, [r4]
 9393 8e18 FEFFFFEB 		bl	uart_transmit
 9394 8e1c 0110DAE5 		ldrb	r1, [r10, #1]	@ zero_extendqisi2
 9395 8e20 0030D5E5 		ldrb	r3, [r5]	@ zero_extendqisi2
 9396 8e24 0020D4E5 		ldrb	r2, [r4]	@ zero_extendqisi2
 9397 8e28 033081E0 		add	r3, r1, r3
 9398 8e2c FF3003E2 		and	r3, r3, #255
 9399 8e30 0030C5E5 		strb	r3, [r5]
 9400 8e34 D8029FE5 		ldr	r0, .L391+200
 9401 8e38 023083E0 		add	r3, r3, r2
 9402 8e3c 0030C4E5 		strb	r3, [r4]
 9403 8e40 FEFFFFEB 		bl	uart_transmit
 9404 8e44 0210DAE5 		ldrb	r1, [r10, #2]	@ zero_extendqisi2
 9405 8e48 0030D5E5 		ldrb	r3, [r5]	@ zero_extendqisi2
 9406 8e4c 0020D4E5 		ldrb	r2, [r4]	@ zero_extendqisi2
 9407 8e50 033081E0 		add	r3, r1, r3
 9408 8e54 FF3003E2 		and	r3, r3, #255
 9409 8e58 0030C5E5 		strb	r3, [r5]
 9410 8e5c B0029FE5 		ldr	r0, .L391+200
 9411 8e60 023083E0 		add	r3, r3, r2
 9412 8e64 0030C4E5 		strb	r3, [r4]
 9413 8e68 FEFFFFEB 		bl	uart_transmit
 9414 8e6c 0310DAE5 		ldrb	r1, [r10, #3]	@ zero_extendqisi2
 9415 8e70 0030D5E5 		ldrb	r3, [r5]	@ zero_extendqisi2
 9416 8e74 0020D4E5 		ldrb	r2, [r4]	@ zero_extendqisi2
 9417 8e78 033081E0 		add	r3, r1, r3
 9418 8e7c 04A29FE5 		ldr	r10, .L391+60
 9419 8e80 FF3003E2 		and	r3, r3, #255
 9420 8e84 0030C5E5 		strb	r3, [r5]
 9421 8e88 84029FE5 		ldr	r0, .L391+200
 9422 8e8c 023083E0 		add	r3, r3, r2
 9423 8e90 0030C4E5 		strb	r3, [r4]
 9424 8e94 FEFFFFEB 		bl	uart_transmit
 9425 8e98 0010DAE5 		ldrb	r1, [r10]	@ zero_extendqisi2
 9426 8e9c 0030D5E5 		ldrb	r3, [r5]	@ zero_extendqisi2
 9427 8ea0 0020D4E5 		ldrb	r2, [r4]	@ zero_extendqisi2
 9428 8ea4 033081E0 		add	r3, r1, r3
 9429 8ea8 FF3003E2 		and	r3, r3, #255
 9430 8eac 0030C5E5 		strb	r3, [r5]
 9431 8eb0 5C029FE5 		ldr	r0, .L391+200
 9432 8eb4 023083E0 		add	r3, r3, r2
 9433 8eb8 0030C4E5 		strb	r3, [r4]
 9434 8ebc FEFFFFEB 		bl	uart_transmit
 9435 8ec0 0110DAE5 		ldrb	r1, [r10, #1]	@ zero_extendqisi2
 9436 8ec4 0030D5E5 		ldrb	r3, [r5]	@ zero_extendqisi2
 9437 8ec8 0020D4E5 		ldrb	r2, [r4]	@ zero_extendqisi2
 9438 8ecc 033081E0 		add	r3, r1, r3
 9439 8ed0 FF3003E2 		and	r3, r3, #255
 9440 8ed4 0030C5E5 		strb	r3, [r5]
 9441 8ed8 34029FE5 		ldr	r0, .L391+200
 9442 8edc 023083E0 		add	r3, r3, r2
 9443 8ee0 0030C4E5 		strb	r3, [r4]
 9444 8ee4 FEFFFFEB 		bl	uart_transmit
 9445 8ee8 0210DAE5 		ldrb	r1, [r10, #2]	@ zero_extendqisi2
 9446 8eec 0030D5E5 		ldrb	r3, [r5]	@ zero_extendqisi2
 9447 8ef0 0020D4E5 		ldrb	r2, [r4]	@ zero_extendqisi2
 9448 8ef4 033081E0 		add	r3, r1, r3
 9449 8ef8 FF3003E2 		and	r3, r3, #255
 9450 8efc 0030C5E5 		strb	r3, [r5]
 9451 8f00 0C029FE5 		ldr	r0, .L391+200
 9452 8f04 023083E0 		add	r3, r3, r2
 9453 8f08 0030C4E5 		strb	r3, [r4]
 9454 8f0c FEFFFFEB 		bl	uart_transmit
 9455 8f10 0310DAE5 		ldrb	r1, [r10, #3]	@ zero_extendqisi2
 9456 8f14 0030D5E5 		ldrb	r3, [r5]	@ zero_extendqisi2
 9457 8f18 0020D4E5 		ldrb	r2, [r4]	@ zero_extendqisi2
 9458 8f1c 033081E0 		add	r3, r1, r3
 9459 8f20 64A19FE5 		ldr	r10, .L391+64
 9460 8f24 FF3003E2 		and	r3, r3, #255
 9461 8f28 0030C5E5 		strb	r3, [r5]
 9462 8f2c E0019FE5 		ldr	r0, .L391+200
 9463 8f30 023083E0 		add	r3, r3, r2
 9464 8f34 0030C4E5 		strb	r3, [r4]
 9465 8f38 FEFFFFEB 		bl	uart_transmit
 9466 8f3c 0010DAE5 		ldrb	r1, [r10]	@ zero_extendqisi2
 9467 8f40 0030D5E5 		ldrb	r3, [r5]	@ zero_extendqisi2
 9468 8f44 0020D4E5 		ldrb	r2, [r4]	@ zero_extendqisi2
 9469 8f48 033081E0 		add	r3, r1, r3
 9470 8f4c FF3003E2 		and	r3, r3, #255
 9471 8f50 0030C5E5 		strb	r3, [r5]
 9472 8f54 B8019FE5 		ldr	r0, .L391+200
 9473 8f58 023083E0 		add	r3, r3, r2
 9474 8f5c 0030C4E5 		strb	r3, [r4]
 9475 8f60 FEFFFFEB 		bl	uart_transmit
 9476 8f64 0110DAE5 		ldrb	r1, [r10, #1]	@ zero_extendqisi2
 9477 8f68 0030D5E5 		ldrb	r3, [r5]	@ zero_extendqisi2
 9478 8f6c 0020D4E5 		ldrb	r2, [r4]	@ zero_extendqisi2
 9479 8f70 033081E0 		add	r3, r1, r3
 9480 8f74 FF3003E2 		and	r3, r3, #255
 9481 8f78 0030C5E5 		strb	r3, [r5]
 9482 8f7c 90019FE5 		ldr	r0, .L391+200
 9483 8f80 023083E0 		add	r3, r3, r2
 9484 8f84 0030C4E5 		strb	r3, [r4]
 9485 8f88 FEFFFFEB 		bl	uart_transmit
 9486 8f8c 0210DAE5 		ldrb	r1, [r10, #2]	@ zero_extendqisi2
 9487 8f90 0030D5E5 		ldrb	r3, [r5]	@ zero_extendqisi2
 9488 8f94 0020D4E5 		ldrb	r2, [r4]	@ zero_extendqisi2
 9489 8f98 033081E0 		add	r3, r1, r3
 9490 8f9c FF3003E2 		and	r3, r3, #255
 9491 8fa0 0030C5E5 		strb	r3, [r5]
 9492 8fa4 68019FE5 		ldr	r0, .L391+200
 9493 8fa8 023083E0 		add	r3, r3, r2
 9494 8fac 0030C4E5 		strb	r3, [r4]
 9495 8fb0 FEFFFFEB 		bl	uart_transmit
 9496 8fb4 0310DAE5 		ldrb	r1, [r10, #3]	@ zero_extendqisi2
 9497 8fb8 0030D5E5 		ldrb	r3, [r5]	@ zero_extendqisi2
 9498 8fbc 0020D4E5 		ldrb	r2, [r4]	@ zero_extendqisi2
 9499 8fc0 033081E0 		add	r3, r1, r3
 9500 8fc4 FF3003E2 		and	r3, r3, #255
 9501 8fc8 0030C5E5 		strb	r3, [r5]
 9502 8fcc 40019FE5 		ldr	r0, .L391+200
 9503 8fd0 023083E0 		add	r3, r3, r2
 9504 8fd4 0030C4E5 		strb	r3, [r4]
 9505 8fd8 FEFFFFEB 		bl	uart_transmit
 9506 8fdc 0030D5E5 		ldrb	r3, [r5]	@ zero_extendqisi2
 9507 8fe0 0020D4E5 		ldrb	r2, [r4]	@ zero_extendqisi2
 9508 8fe4 03308BE0 		add	r3, fp, r3
 9509 8fe8 FF3003E2 		and	r3, r3, #255
 9510 8fec 0030C5E5 		strb	r3, [r5]
 9511 8ff0 0B10A0E1 		mov	r1, fp
 9512 8ff4 023083E0 		add	r3, r3, r2
 9513 8ff8 14019FE5 		ldr	r0, .L391+200
 9514 8ffc 0030C4E5 		strb	r3, [r4]
 9515 9000 FEFFFFEB 		bl	uart_transmit
 9516 9004 84309FE5 		ldr	r3, .L391+68
 9517 9008 0010D3E5 		ldrb	r1, [r3]	@ zero_extendqisi2
 9518 900c 0030D5E5 		ldrb	r3, [r5]	@ zero_extendqisi2
 9519 9010 0020D4E5 		ldrb	r2, [r4]	@ zero_extendqisi2
 9520 9014 033081E0 		add	r3, r1, r3
 9521 9018 FF3003E2 		and	r3, r3, #255
 9522 901c 0030C5E5 		strb	r3, [r5]
 9523 9020 EC009FE5 		ldr	r0, .L391+200
 9524 9024 023083E0 		add	r3, r3, r2
 9525 9028 0030C4E5 		strb	r3, [r4]
 9526 902c FEFFFFEB 		bl	uart_transmit
 9527 9030 0010D5E5 		ldrb	r1, [r5]	@ zero_extendqisi2
 9528 9034 D8009FE5 		ldr	r0, .L391+200
 9529 9038 FEFFFFEB 		bl	uart_transmit
 9530 903c D0009FE5 		ldr	r0, .L391+200
 9531 9040 0010D4E5 		ldrb	r1, [r4]	@ zero_extendqisi2
 9532 9044 FEFFFFEB 		bl	uart_transmit
 9533 9048 370000EA 		b	.L280
 9534              	.L392:
 9535              		.align	2
 9536              	.L391:
 9537 904c 00000000 		.word	.LC0
 9538 9050 00000000 		.word	gps
 9539 9054 F8C1631A 		.word	442745336
 9540 9058 DCA54C40 		.word	1078765020
 9541 905c 80842E41 		.word	1093567616
 9542 9060 00000000 		.word	.LANCHOR54
 9543 9064 00000000 		.word	estimator_z
 9544 9068 00000000 		.word	estimator_z_dot
 9545 906c 00000000 		.word	nav_circle_radians
 9546 9070 182D4454 		.word	1413754136
 9547 9074 FB211940 		.word	1075388923
 9548 9078 00000000 		.word	nav_block
 9549 907c 00000000 		.word	nav_stage
 9550 9080 00000000 		.word	estimator_x
 9551 9084 00000000 		.word	estimator_y
 9552 9088 00000000 		.word	dist2_to_wp
 9553 908c 00000000 		.word	dist2_to_home
 9554 9090 00000000 		.word	nav_oval_count
 9555 9094 00000000 		.word	.LANCHOR20
 9556 9098 00000000 		.word	v_ctl_mode
 9557 909c 00000000 		.word	.LANCHOR22
 9558 90a0 00000000 		.word	horizontal_mode
 9559 90a4 00000000 		.word	.LANCHOR23
 9560 90a8 00000000 		.word	.LANCHOR55
 9561 90ac 66661440 		.word	1075078758
 9562 90b0 66666666 		.word	1717986918
 9563 90b4 00000000 		.word	.LANCHOR51
 9564 90b8 00000000 		.word	infrared
 9565 90bc 00000000 		.word	.LANCHOR52
 9566 90c0 00000000 		.word	.LANCHOR17
 9567 90c4 00000000 		.word	energy
 9568 90c8 00000000 		.word	v_ctl_throttle_slewed
 9569 90cc 00000000 		.word	vsupply
 9570 90d0 00000000 		.word	electrical
 9571 90d4 00000000 		.word	estimator_flight_time
 9572 90d8 00000000 		.word	.LANCHOR18
 9573 90dc 00000000 		.word	block_time
 9574 90e0 00000000 		.word	stage_time
 9575 90e4 00000000 		.word	.LANCHOR53
 9576 90e8 00000000 		.word	downlink_nb_bytes
 9577 90ec 00000000 		.word	downlink_nb_msgs
 9578 90f0 00000000 		.word	ck_a
 9579 90f4 00000000 		.word	ck_b
 9580 90f8 00000000 		.word	h_ctl_roll_setpoint
 9581 90fc 00000000 		.word	h_ctl_pitch_loop_setpoint
 9582 9100 00000000 		.word	h_ctl_course_setpoint
 9583 9104 00000000 		.word	desired_x
 9584 9108 00000000 		.word	desired_y
 9585 910c 00000000 		.word	v_ctl_altitude_setpoint
 9586 9110 00000000 		.word	v_ctl_climb_setpoint
 9587 9114 00000000 		.word	uart1
 9588 9118 00000000 		.word	downlink_nb_ovrn
 9589              	.L281:
 9590 911c 0C301FE5 		ldr	r3, .L391+204
 9591 9120 0020D3E5 		ldrb	r2, [r3]	@ zero_extendqisi2
 9592 9124 012082E2 		add	r2, r2, #1
 9593 9128 0020C3E5 		strb	r2, [r3]
 9594              	.L280:
 9595 912c B030D9E1 		ldrh	r3, [r9]
 9596 9130 180053E3 		cmp	r3, #24
 9597 9134 6E00001A 		bne	.L282
 9598 9138 2C001FE5 		ldr	r0, .L391+200
 9599 913c 0C10A0E3 		mov	r1, #12
 9600 9140 FEFFFFEB 		bl	uart_check_free_space
 9601 9144 000050E3 		cmp	r0, #0
 9602 9148 6500000A 		beq	.L283
 9603 914c 6C301FE5 		ldr	r3, .L391+156
 9604 9150 B020D3E1 		ldrh	r2, [r3]
 9605 9154 0C2082E2 		add	r2, r2, #12
 9606 9158 B020C3E1 		strh	r2, [r3]	@ movhi
 9607 915c 78301FE5 		ldr	r3, .L391+160
 9608 9160 B020D3E1 		ldrh	r2, [r3]
 9609 9164 58001FE5 		ldr	r0, .L391+200
 9610 9168 012082E2 		add	r2, r2, #1
 9611 916c 9910A0E3 		mov	r1, #153
 9612 9170 88501FE5 		ldr	r5, .L391+164
 9613 9174 B020C3E1 		strh	r2, [r3]	@ movhi
 9614 9178 FEFFFFEB 		bl	uart_transmit
 9615 917c 70001FE5 		ldr	r0, .L391+200
 9616 9180 0C10A0E3 		mov	r1, #12
 9617 9184 98401FE5 		ldr	r4, .L391+168
 9618 9188 FEFFFFEB 		bl	uart_transmit
 9619 918c 0E30A0E3 		mov	r3, #14
 9620 9190 0030C5E5 		strb	r3, [r5]
 9621 9194 88001FE5 		ldr	r0, .L391+200
 9622 9198 1A30A0E3 		mov	r3, #26
 9623 919c 0210A0E3 		mov	r1, #2
 9624 91a0 0030C4E5 		strb	r3, [r4]
 9625 91a4 FEFFFFEB 		bl	uart_transmit
 9626 91a8 0030D5E5 		ldrb	r3, [r5]	@ zero_extendqisi2
 9627 91ac 0020D4E5 		ldrb	r2, [r4]	@ zero_extendqisi2
 9628 91b0 0B3083E2 		add	r3, r3, #11
 9629 91b4 FF3003E2 		and	r3, r3, #255
 9630 91b8 0030C5E5 		strb	r3, [r5]
 9631 91bc B0001FE5 		ldr	r0, .L391+200
 9632 91c0 023083E0 		add	r3, r3, r2
 9633 91c4 0B10A0E3 		mov	r1, #11
 9634 91c8 0030C4E5 		strb	r3, [r4]
 9635 91cc FEFFFFEB 		bl	uart_transmit
 9636 91d0 44311FE5 		ldr	r3, .L391+72
 9637 91d4 0010D3E5 		ldrb	r1, [r3]	@ zero_extendqisi2
 9638 91d8 0030D5E5 		ldrb	r3, [r5]	@ zero_extendqisi2
 9639 91dc 0020D4E5 		ldrb	r2, [r4]	@ zero_extendqisi2
 9640 91e0 033081E0 		add	r3, r1, r3
 9641 91e4 FF3003E2 		and	r3, r3, #255
 9642 91e8 0030C5E5 		strb	r3, [r5]
 9643 91ec E0001FE5 		ldr	r0, .L391+200
 9644 91f0 023083E0 		add	r3, r3, r2
 9645 91f4 0030C4E5 		strb	r3, [r4]
 9646 91f8 FEFFFFEB 		bl	uart_transmit
 9647 91fc 6C311FE5 		ldr	r3, .L391+76
 9648 9200 0010D3E5 		ldrb	r1, [r3]	@ zero_extendqisi2
 9649 9204 0030D5E5 		ldrb	r3, [r5]	@ zero_extendqisi2
 9650 9208 0020D4E5 		ldrb	r2, [r4]	@ zero_extendqisi2
 9651 920c 033081E0 		add	r3, r1, r3
 9652 9210 FF3003E2 		and	r3, r3, #255
 9653 9214 0030C5E5 		strb	r3, [r5]
 9654 9218 0C011FE5 		ldr	r0, .L391+200
 9655 921c 023083E0 		add	r3, r3, r2
 9656 9220 0030C4E5 		strb	r3, [r4]
 9657 9224 FEFFFFEB 		bl	uart_transmit
 9658 9228 94311FE5 		ldr	r3, .L391+80
 9659 922c 0010D3E5 		ldrb	r1, [r3]	@ zero_extendqisi2
 9660 9230 0030D5E5 		ldrb	r3, [r5]	@ zero_extendqisi2
 9661 9234 0020D4E5 		ldrb	r2, [r4]	@ zero_extendqisi2
 9662 9238 033081E0 		add	r3, r1, r3
 9663 923c FF3003E2 		and	r3, r3, #255
 9664 9240 0030C5E5 		strb	r3, [r5]
 9665 9244 38011FE5 		ldr	r0, .L391+200
 9666 9248 023083E0 		add	r3, r3, r2
 9667 924c 0030C4E5 		strb	r3, [r4]
 9668 9250 FEFFFFEB 		bl	uart_transmit
 9669 9254 BC311FE5 		ldr	r3, .L391+84
 9670 9258 0010D3E5 		ldrb	r1, [r3]	@ zero_extendqisi2
 9671 925c 0030D5E5 		ldrb	r3, [r5]	@ zero_extendqisi2
 9672 9260 0020D4E5 		ldrb	r2, [r4]	@ zero_extendqisi2
 9673 9264 033081E0 		add	r3, r1, r3
 9674 9268 FF3003E2 		and	r3, r3, #255
 9675 926c 0030C5E5 		strb	r3, [r5]
 9676 9270 64011FE5 		ldr	r0, .L391+200
 9677 9274 023083E0 		add	r3, r3, r2
 9678 9278 0030C4E5 		strb	r3, [r4]
 9679 927c FEFFFFEB 		bl	uart_transmit
 9680 9280 0020D4E5 		ldrb	r2, [r4]	@ zero_extendqisi2
 9681 9284 0030D5E5 		ldrb	r3, [r5]	@ zero_extendqisi2
 9682 9288 7C011FE5 		ldr	r0, .L391+200
 9683 928c 033082E0 		add	r3, r2, r3
 9684 9290 0010A0E3 		mov	r1, #0
 9685 9294 0030C4E5 		strb	r3, [r4]
 9686 9298 FEFFFFEB 		bl	uart_transmit
 9687 929c 00321FE5 		ldr	r3, .L391+88
 9688 92a0 0010D3E5 		ldrb	r1, [r3]	@ zero_extendqisi2
 9689 92a4 0030D5E5 		ldrb	r3, [r5]	@ zero_extendqisi2
 9690 92a8 0020D4E5 		ldrb	r2, [r4]	@ zero_extendqisi2
 9691 92ac 033081E0 		add	r3, r1, r3
 9692 92b0 FF3003E2 		and	r3, r3, #255
 9693 92b4 0030C5E5 		strb	r3, [r5]
 9694 92b8 AC011FE5 		ldr	r0, .L391+200
 9695 92bc 023083E0 		add	r3, r3, r2
 9696 92c0 0030C4E5 		strb	r3, [r4]
 9697 92c4 FEFFFFEB 		bl	uart_transmit
 9698 92c8 0010D5E5 		ldrb	r1, [r5]	@ zero_extendqisi2
 9699 92cc C0011FE5 		ldr	r0, .L391+200
 9700 92d0 FEFFFFEB 		bl	uart_transmit
 9701 92d4 C8011FE5 		ldr	r0, .L391+200
 9702 92d8 0010D4E5 		ldrb	r1, [r4]	@ zero_extendqisi2
 9703 92dc FEFFFFEB 		bl	uart_transmit
 9704 92e0 030000EA 		b	.L282
 9705              	.L283:
 9706 92e4 D4311FE5 		ldr	r3, .L391+204
 9707 92e8 0020D3E5 		ldrb	r2, [r3]	@ zero_extendqisi2
 9708 92ec 012082E2 		add	r2, r2, #1
 9709 92f0 0020C3E5 		strb	r2, [r3]
 9710              	.L282:
 9711 92f4 B090D8E1 		ldrh	r9, [r8]
 9712 92f8 1E0059E3 		cmp	r9, #30
 9713 92fc 6C00001A 		bne	.L284
 9714 9300 60521FE5 		ldr	r5, .L391+92
 9715 9304 24421FE5 		ldr	r4, .L391+156
 9716 9308 B000D5E1 		ldrh	r0, [r5]
 9717 930c B080D4E1 		ldrh	r8, [r4]
 9718 9310 080060E0 		rsb	r0, r0, r8
 9719 9314 FEFFFFEB 		bl	__aeabi_i2d
 9720 9318 74321FE5 		ldr	r3, .L391+96
 9721 931c 74221FE5 		ldr	r2, .L391+100
 9722 9320 FEFFFFEB 		bl	__aeabi_ddiv
 9723 9324 FEFFFFEB 		bl	__aeabi_d2uiz
 9724 9328 0B10A0E3 		mov	r1, #11
 9725 932c BC00CDE1 		strh	r0, [sp, #12]	@ movhi
 9726 9330 24021FE5 		ldr	r0, .L391+200
 9727 9334 B080C5E1 		strh	r8, [r5]	@ movhi
 9728 9338 FEFFFFEB 		bl	uart_check_free_space
 9729 933c 2CA21FE5 		ldr	r10, .L391+204
 9730 9340 000050E3 		cmp	r0, #0
 9731 9344 0030DA05 		ldreqb	r3, [r10]	@ zero_extendqisi2
 9732 9348 01308302 		addeq	r3, r3, #1
 9733 934c 0030CA05 		streqb	r3, [r10]
 9734 9350 5700000A 		beq	.L284
 9735 9354 B030D4E1 		ldrh	r3, [r4]
 9736 9358 74821FE5 		ldr	r8, .L391+160
 9737 935c 0B3083E2 		add	r3, r3, #11
 9738 9360 B030C4E1 		strh	r3, [r4]	@ movhi
 9739 9364 B030D8E1 		ldrh	r3, [r8]
 9740 9368 5C021FE5 		ldr	r0, .L391+200
 9741 936c 013083E2 		add	r3, r3, #1
 9742 9370 9910A0E3 		mov	r1, #153
 9743 9374 8C521FE5 		ldr	r5, .L391+164
 9744 9378 B030C8E1 		strh	r3, [r8]	@ movhi
 9745 937c FEFFFFEB 		bl	uart_transmit
 9746 9380 74021FE5 		ldr	r0, .L391+200
 9747 9384 0B10A0E3 		mov	r1, #11
 9748 9388 9C421FE5 		ldr	r4, .L391+168
 9749 938c FEFFFFEB 		bl	uart_transmit
 9750 9390 0D30A0E3 		mov	r3, #13
 9751 9394 0030C5E5 		strb	r3, [r5]
 9752 9398 8C021FE5 		ldr	r0, .L391+200
 9753 939c 1830A0E3 		mov	r3, #24
 9754 93a0 0210A0E3 		mov	r1, #2
 9755 93a4 0030C4E5 		strb	r3, [r4]
 9756 93a8 FEFFFFEB 		bl	uart_transmit
 9757 93ac 0030D5E5 		ldrb	r3, [r5]	@ zero_extendqisi2
 9758 93b0 0020D4E5 		ldrb	r2, [r4]	@ zero_extendqisi2
 9759 93b4 1E3083E2 		add	r3, r3, #30
 9760 93b8 FF3003E2 		and	r3, r3, #255
 9761 93bc 0030C5E5 		strb	r3, [r5]
 9762 93c0 B4021FE5 		ldr	r0, .L391+200
 9763 93c4 023083E0 		add	r3, r3, r2
 9764 93c8 0910A0E1 		mov	r1, r9
 9765 93cc 0030C4E5 		strb	r3, [r4]
 9766 93d0 FEFFFFEB 		bl	uart_transmit
 9767 93d4 0010DAE5 		ldrb	r1, [r10]	@ zero_extendqisi2
 9768 93d8 0030D5E5 		ldrb	r3, [r5]	@ zero_extendqisi2
 9769 93dc 0020D4E5 		ldrb	r2, [r4]	@ zero_extendqisi2
 9770 93e0 033081E0 		add	r3, r1, r3
 9771 93e4 FF3003E2 		and	r3, r3, #255
 9772 93e8 0030C5E5 		strb	r3, [r5]
 9773 93ec E0021FE5 		ldr	r0, .L391+200
 9774 93f0 023083E0 		add	r3, r3, r2
 9775 93f4 0030C4E5 		strb	r3, [r4]
 9776 93f8 FEFFFFEB 		bl	uart_transmit
 9777 93fc 0C10DDE5 		ldrb	r1, [sp, #12]	@ zero_extendqisi2
 9778 9400 0030D5E5 		ldrb	r3, [r5]	@ zero_extendqisi2
 9779 9404 0020D4E5 		ldrb	r2, [r4]	@ zero_extendqisi2
 9780 9408 033081E0 		add	r3, r1, r3
 9781 940c FF3003E2 		and	r3, r3, #255
 9782 9410 0030C5E5 		strb	r3, [r5]
 9783 9414 08031FE5 		ldr	r0, .L391+200
 9784 9418 023083E0 		add	r3, r3, r2
 9785 941c 0030C4E5 		strb	r3, [r4]
 9786 9420 FEFFFFEB 		bl	uart_transmit
 9787 9424 0D10DDE5 		ldrb	r1, [sp, #13]	@ zero_extendqisi2
 9788 9428 0030D5E5 		ldrb	r3, [r5]	@ zero_extendqisi2
 9789 942c 0020D4E5 		ldrb	r2, [r4]	@ zero_extendqisi2
 9790 9430 033081E0 		add	r3, r1, r3
 9791 9434 FF3003E2 		and	r3, r3, #255
 9792 9438 0030C5E5 		strb	r3, [r5]
 9793 943c 30031FE5 		ldr	r0, .L391+200
 9794 9440 023083E0 		add	r3, r3, r2
 9795 9444 0030C4E5 		strb	r3, [r4]
 9796 9448 FEFFFFEB 		bl	uart_transmit
 9797 944c 0010D8E5 		ldrb	r1, [r8]	@ zero_extendqisi2
 9798 9450 0030D5E5 		ldrb	r3, [r5]	@ zero_extendqisi2
 9799 9454 0020D4E5 		ldrb	r2, [r4]	@ zero_extendqisi2
 9800 9458 033081E0 		add	r3, r1, r3
 9801 945c FF3003E2 		and	r3, r3, #255
 9802 9460 0030C5E5 		strb	r3, [r5]
 9803 9464 58031FE5 		ldr	r0, .L391+200
 9804 9468 023083E0 		add	r3, r3, r2
 9805 946c 0030C4E5 		strb	r3, [r4]
 9806 9470 FEFFFFEB 		bl	uart_transmit
 9807 9474 0110D8E5 		ldrb	r1, [r8, #1]	@ zero_extendqisi2
 9808 9478 0030D5E5 		ldrb	r3, [r5]	@ zero_extendqisi2
 9809 947c 0020D4E5 		ldrb	r2, [r4]	@ zero_extendqisi2
 9810 9480 033081E0 		add	r3, r1, r3
 9811 9484 FF3003E2 		and	r3, r3, #255
 9812 9488 0030C5E5 		strb	r3, [r5]
 9813 948c 80031FE5 		ldr	r0, .L391+200
 9814 9490 023083E0 		add	r3, r3, r2
 9815 9494 0030C4E5 		strb	r3, [r4]
 9816 9498 FEFFFFEB 		bl	uart_transmit
 9817 949c 90031FE5 		ldr	r0, .L391+200
 9818 94a0 0010D5E5 		ldrb	r1, [r5]	@ zero_extendqisi2
 9819 94a4 FEFFFFEB 		bl	uart_transmit
 9820 94a8 9C031FE5 		ldr	r0, .L391+200
 9821 94ac 0010D4E5 		ldrb	r1, [r4]	@ zero_extendqisi2
 9822 94b0 FEFFFFEB 		bl	uart_transmit
 9823              	.L284:
 9824 94b4 08241FE5 		ldr	r2, .L391+104
 9825 94b8 B030D2E1 		ldrh	r3, [r2]
 9826 94bc 240053E3 		cmp	r3, #36
 9827 94c0 6000001A 		bne	.L287
 9828 94c4 14341FE5 		ldr	r3, .L391+108
 9829 94c8 F671D3E1 		ldrsh	r7, [r3, #22]
 9830 94cc F421D3E1 		ldrsh	r2, [r3, #20]
 9831 94d0 F831D3E1 		ldrsh	r3, [r3, #24]
 9832 94d4 000052E3 		cmp	r2, #0
 9833 94d8 002062B2 		rsblt	r2, r2, #0
 9834 94dc 000057E3 		cmp	r7, #0
 9835 94e0 007067B2 		rsblt	r7, r7, #0
 9836 94e4 000053E3 		cmp	r3, #0
 9837 94e8 003063B2 		rsblt	r3, r3, #0
 9838 94ec 027087E0 		add	r7, r7, r2
 9839 94f0 037087E0 		add	r7, r7, r3
 9840 94f4 0778A0E1 		mov	r7, r7, asl #16
 9841 94f8 2778A0E1 		mov	r7, r7, lsr #16
 9842 94fc 310057E3 		cmp	r7, #49
 9843 9500 F4031FE5 		ldr	r0, .L391+200
 9844 9504 0910A0E3 		mov	r1, #9
 9845 9508 BC70CDE1 		strh	r7, [sp, #12]	@ movhi
 9846 950c 0770A093 		movls	r7, #7
 9847 9510 0370A083 		movhi	r7, #3
 9848 9514 FEFFFFEB 		bl	uart_check_free_space
 9849 9518 000050E3 		cmp	r0, #0
 9850 951c 4500000A 		beq	.L289
 9851 9520 40341FE5 		ldr	r3, .L391+156
 9852 9524 B020D3E1 		ldrh	r2, [r3]
 9853 9528 092082E2 		add	r2, r2, #9
 9854 952c B020C3E1 		strh	r2, [r3]	@ movhi
 9855 9530 4C341FE5 		ldr	r3, .L391+160
 9856 9534 B020D3E1 		ldrh	r2, [r3]
 9857 9538 2C041FE5 		ldr	r0, .L391+200
 9858 953c 012082E2 		add	r2, r2, #1
 9859 9540 9910A0E3 		mov	r1, #153
 9860 9544 5C541FE5 		ldr	r5, .L391+164
 9861 9548 B020C3E1 		strh	r2, [r3]	@ movhi
 9862 954c FEFFFFEB 		bl	uart_transmit
 9863 9550 44041FE5 		ldr	r0, .L391+200
 9864 9554 0910A0E3 		mov	r1, #9
 9865 9558 6C441FE5 		ldr	r4, .L391+168
 9866 955c FEFFFFEB 		bl	uart_transmit
 9867 9560 0B30A0E3 		mov	r3, #11
 9868 9564 0030C5E5 		strb	r3, [r5]
 9869 9568 5C041FE5 		ldr	r0, .L391+200
 9870 956c 1430A0E3 		mov	r3, #20
 9871 9570 0210A0E3 		mov	r1, #2
 9872 9574 0030C4E5 		strb	r3, [r4]
 9873 9578 FEFFFFEB 		bl	uart_transmit
 9874 957c 0030D5E5 		ldrb	r3, [r5]	@ zero_extendqisi2
 9875 9580 0020D4E5 		ldrb	r2, [r4]	@ zero_extendqisi2
 9876 9584 183043E2 		sub	r3, r3, #24
 9877 9588 FF3003E2 		and	r3, r3, #255
 9878 958c 0030C5E5 		strb	r3, [r5]
 9879 9590 84041FE5 		ldr	r0, .L391+200
 9880 9594 023083E0 		add	r3, r3, r2
 9881 9598 E810A0E3 		mov	r1, #232
 9882 959c 0030C4E5 		strb	r3, [r4]
 9883 95a0 FEFFFFEB 		bl	uart_transmit
 9884 95a4 0030D5E5 		ldrb	r3, [r5]	@ zero_extendqisi2
 9885 95a8 0020D4E5 		ldrb	r2, [r4]	@ zero_extendqisi2
 9886 95ac 033087E0 		add	r3, r7, r3
 9887 95b0 FF3003E2 		and	r3, r3, #255
 9888 95b4 0030C5E5 		strb	r3, [r5]
 9889 95b8 0710A0E1 		mov	r1, r7
 9890 95bc 023083E0 		add	r3, r3, r2
 9891 95c0 B4041FE5 		ldr	r0, .L391+200
 9892 95c4 0030C4E5 		strb	r3, [r4]
 9893 95c8 FEFFFFEB 		bl	uart_transmit
 9894 95cc 0C10DDE5 		ldrb	r1, [sp, #12]	@ zero_extendqisi2
 9895 95d0 0030D5E5 		ldrb	r3, [r5]	@ zero_extendqisi2
 9896 95d4 0020D4E5 		ldrb	r2, [r4]	@ zero_extendqisi2
 9897 95d8 033081E0 		add	r3, r1, r3
 9898 95dc FF3003E2 		and	r3, r3, #255
 9899 95e0 0030C5E5 		strb	r3, [r5]
 9900 95e4 D8041FE5 		ldr	r0, .L391+200
 9901 95e8 023083E0 		add	r3, r3, r2
 9902 95ec 0030C4E5 		strb	r3, [r4]
 9903 95f0 FEFFFFEB 		bl	uart_transmit
 9904 95f4 0D10DDE5 		ldrb	r1, [sp, #13]	@ zero_extendqisi2
 9905 95f8 0030D5E5 		ldrb	r3, [r5]	@ zero_extendqisi2
 9906 95fc 0020D4E5 		ldrb	r2, [r4]	@ zero_extendqisi2
 9907 9600 033081E0 		add	r3, r1, r3
 9908 9604 FF3003E2 		and	r3, r3, #255
 9909 9608 0030C5E5 		strb	r3, [r5]
 9910 960c 00051FE5 		ldr	r0, .L391+200
 9911 9610 023083E0 		add	r3, r3, r2
 9912 9614 0030C4E5 		strb	r3, [r4]
 9913 9618 FEFFFFEB 		bl	uart_transmit
 9914 961c 0010D5E5 		ldrb	r1, [r5]	@ zero_extendqisi2
 9915 9620 14051FE5 		ldr	r0, .L391+200
 9916 9624 FEFFFFEB 		bl	uart_transmit
 9917 9628 1C051FE5 		ldr	r0, .L391+200
 9918 962c 0010D4E5 		ldrb	r1, [r4]	@ zero_extendqisi2
 9919 9630 FEFFFFEB 		bl	uart_transmit
 9920 9634 030000EA 		b	.L287
 9921              	.L289:
 9922 9638 28351FE5 		ldr	r3, .L391+204
 9923 963c 0020D3E5 		ldrb	r2, [r3]	@ zero_extendqisi2
 9924 9640 012082E2 		add	r2, r2, #1
 9925 9644 0020C3E5 		strb	r2, [r3]
 9926              	.L287:
 9927 9648 94151FE5 		ldr	r1, .L391+112
 9928 964c B030D1E1 		ldrh	r3, [r1]
 9929 9650 2A0053E3 		cmp	r3, #42
 9930 9654 EA00001A 		bne	.L291
 9931 9658 A0351FE5 		ldr	r3, .L391+116
 9932 965c 0A10A0E3 		mov	r1, #10
 9933 9660 000093E5 		ldr	r0, [r3]
 9934 9664 FEFFFFEB 		bl	__aeabi_idiv
 9935 9668 AC351FE5 		ldr	r3, .L391+120
 9936 966c B800CDE1 		strh	r0, [sp, #8]	@ movhi
 9937 9670 000093E5 		ldr	r0, [r3]	@ float
 9938 9674 FEFFFFEB 		bl	__aeabi_f2iz
 9939 9678 1710A0E3 		mov	r1, #23
 9940 967c BC00CDE1 		strh	r0, [sp, #12]	@ movhi
 9941 9680 74051FE5 		ldr	r0, .L391+200
 9942 9684 FEFFFFEB 		bl	uart_check_free_space
 9943 9688 000050E3 		cmp	r0, #0
 9944 968c D800000A 		beq	.L292
 9945 9690 B0351FE5 		ldr	r3, .L391+156
 9946 9694 B020D3E1 		ldrh	r2, [r3]
 9947 9698 172082E2 		add	r2, r2, #23
 9948 969c B020C3E1 		strh	r2, [r3]	@ movhi
 9949 96a0 BC351FE5 		ldr	r3, .L391+160
 9950 96a4 B020D3E1 		ldrh	r2, [r3]
 9951 96a8 9C051FE5 		ldr	r0, .L391+200
 9952 96ac 012082E2 		add	r2, r2, #1
 9953 96b0 9910A0E3 		mov	r1, #153
 9954 96b4 CC551FE5 		ldr	r5, .L391+164
 9955 96b8 B020C3E1 		strh	r2, [r3]	@ movhi
 9956 96bc FEFFFFEB 		bl	uart_transmit
 9957 96c0 B4051FE5 		ldr	r0, .L391+200
 9958 96c4 1710A0E3 		mov	r1, #23
 9959 96c8 DC451FE5 		ldr	r4, .L391+168
 9960 96cc FEFFFFEB 		bl	uart_transmit
 9961 96d0 1930A0E3 		mov	r3, #25
 9962 96d4 0030C5E5 		strb	r3, [r5]
 9963 96d8 CC051FE5 		ldr	r0, .L391+200
 9964 96dc 3030A0E3 		mov	r3, #48
 9965 96e0 0210A0E3 		mov	r1, #2
 9966 96e4 0030C4E5 		strb	r3, [r4]
 9967 96e8 FEFFFFEB 		bl	uart_transmit
 9968 96ec 0030D5E5 		ldrb	r3, [r5]	@ zero_extendqisi2
 9969 96f0 0020D4E5 		ldrb	r2, [r4]	@ zero_extendqisi2
 9970 96f4 0C3083E2 		add	r3, r3, #12
 9971 96f8 38661FE5 		ldr	r6, .L391+124
 9972 96fc FF3003E2 		and	r3, r3, #255
 9973 9700 0030C5E5 		strb	r3, [r5]
 9974 9704 F8051FE5 		ldr	r0, .L391+200
 9975 9708 023083E0 		add	r3, r3, r2
 9976 970c 0C10A0E3 		mov	r1, #12
 9977 9710 0030C4E5 		strb	r3, [r4]
 9978 9714 FEFFFFEB 		bl	uart_transmit
 9979 9718 0010D6E5 		ldrb	r1, [r6]	@ zero_extendqisi2
 9980 971c 0030D5E5 		ldrb	r3, [r5]	@ zero_extendqisi2
 9981 9720 0020D4E5 		ldrb	r2, [r4]	@ zero_extendqisi2
 9982 9724 033081E0 		add	r3, r1, r3
 9983 9728 FF3003E2 		and	r3, r3, #255
 9984 972c 0030C5E5 		strb	r3, [r5]
 9985 9730 24061FE5 		ldr	r0, .L391+200
 9986 9734 023083E0 		add	r3, r3, r2
 9987 9738 0030C4E5 		strb	r3, [r4]
 9988 973c FEFFFFEB 		bl	uart_transmit
 9989 9740 0110D6E5 		ldrb	r1, [r6, #1]	@ zero_extendqisi2
 9990 9744 0030D5E5 		ldrb	r3, [r5]	@ zero_extendqisi2
 9991 9748 0020D4E5 		ldrb	r2, [r4]	@ zero_extendqisi2
 9992 974c 033081E0 		add	r3, r1, r3
 9993 9750 8C661FE5 		ldr	r6, .L391+128
 9994 9754 FF3003E2 		and	r3, r3, #255
 9995 9758 0030C5E5 		strb	r3, [r5]
 9996 975c 50061FE5 		ldr	r0, .L391+200
 9997 9760 023083E0 		add	r3, r3, r2
 9998 9764 0030C4E5 		strb	r3, [r4]
 9999 9768 FEFFFFEB 		bl	uart_transmit
 10000 976c 0010D6E5 		ldrb	r1, [r6]	@ zero_extendqisi2
 10001 9770 0030D5E5 		ldrb	r3, [r5]	@ zero_extendqisi2
 10002 9774 0020D4E5 		ldrb	r2, [r4]	@ zero_extendqisi2
 10003 9778 033081E0 		add	r3, r1, r3
 10004 977c FF3003E2 		and	r3, r3, #255
 10005 9780 0030C5E5 		strb	r3, [r5]
 10006 9784 78061FE5 		ldr	r0, .L391+200
 10007 9788 023083E0 		add	r3, r3, r2
 10008 978c 0030C4E5 		strb	r3, [r4]
 10009 9790 FEFFFFEB 		bl	uart_transmit
 10010 9794 0110D6E5 		ldrb	r1, [r6, #1]	@ zero_extendqisi2
 10011 9798 0030D5E5 		ldrb	r3, [r5]	@ zero_extendqisi2
 10012 979c 0020D4E5 		ldrb	r2, [r4]	@ zero_extendqisi2
 10013 97a0 033081E0 		add	r3, r1, r3
 10014 97a4 DC661FE5 		ldr	r6, .L391+132
 10015 97a8 FF3003E2 		and	r3, r3, #255
 10016 97ac 0030C5E5 		strb	r3, [r5]
 10017 97b0 A4061FE5 		ldr	r0, .L391+200
 10018 97b4 023083E0 		add	r3, r3, r2
 10019 97b8 0030C4E5 		strb	r3, [r4]
 10020 97bc FEFFFFEB 		bl	uart_transmit
 10021 97c0 0210D6E5 		ldrb	r1, [r6, #2]	@ zero_extendqisi2
 10022 97c4 0030D5E5 		ldrb	r3, [r5]	@ zero_extendqisi2
 10023 97c8 0020D4E5 		ldrb	r2, [r4]	@ zero_extendqisi2
 10024 97cc 033081E0 		add	r3, r1, r3
 10025 97d0 FF3003E2 		and	r3, r3, #255
 10026 97d4 0030C5E5 		strb	r3, [r5]
 10027 97d8 CC061FE5 		ldr	r0, .L391+200
 10028 97dc 023083E0 		add	r3, r3, r2
 10029 97e0 0030C4E5 		strb	r3, [r4]
 10030 97e4 FEFFFFEB 		bl	uart_transmit
 10031 97e8 0310D6E5 		ldrb	r1, [r6, #3]	@ zero_extendqisi2
 10032 97ec 0030D5E5 		ldrb	r3, [r5]	@ zero_extendqisi2
 10033 97f0 0020D4E5 		ldrb	r2, [r4]	@ zero_extendqisi2
 10034 97f4 033081E0 		add	r3, r1, r3
 10035 97f8 FF3003E2 		and	r3, r3, #255
 10036 97fc 0030C5E5 		strb	r3, [r5]
 10037 9800 F4061FE5 		ldr	r0, .L391+200
 10038 9804 023083E0 		add	r3, r3, r2
 10039 9808 0030C4E5 		strb	r3, [r4]
 10040 980c FEFFFFEB 		bl	uart_transmit
 10041 9810 0810DDE5 		ldrb	r1, [sp, #8]	@ zero_extendqisi2
 10042 9814 0030D5E5 		ldrb	r3, [r5]	@ zero_extendqisi2
 10043 9818 0020D4E5 		ldrb	r2, [r4]	@ zero_extendqisi2
 10044 981c 033081E0 		add	r3, r1, r3
 10045 9820 FF3003E2 		and	r3, r3, #255
 10046 9824 0030C5E5 		strb	r3, [r5]
 10047 9828 1C071FE5 		ldr	r0, .L391+200
 10048 982c 023083E0 		add	r3, r3, r2
 10049 9830 0030C4E5 		strb	r3, [r4]
 10050 9834 FEFFFFEB 		bl	uart_transmit
 10051 9838 0910DDE5 		ldrb	r1, [sp, #9]	@ zero_extendqisi2
 10052 983c 0030D5E5 		ldrb	r3, [r5]	@ zero_extendqisi2
 10053 9840 0020D4E5 		ldrb	r2, [r4]	@ zero_extendqisi2
 10054 9844 033081E0 		add	r3, r1, r3
 10055 9848 7C671FE5 		ldr	r6, .L391+136
 10056 984c FF3003E2 		and	r3, r3, #255
 10057 9850 0030C5E5 		strb	r3, [r5]
 10058 9854 48071FE5 		ldr	r0, .L391+200
 10059 9858 023083E0 		add	r3, r3, r2
 10060 985c 0030C4E5 		strb	r3, [r4]
 10061 9860 FEFFFFEB 		bl	uart_transmit
 10062 9864 0010D6E5 		ldrb	r1, [r6]	@ zero_extendqisi2
 10063 9868 0030D5E5 		ldrb	r3, [r5]	@ zero_extendqisi2
 10064 986c 0020D4E5 		ldrb	r2, [r4]	@ zero_extendqisi2
 10065 9870 033081E0 		add	r3, r1, r3
 10066 9874 FF3003E2 		and	r3, r3, #255
 10067 9878 0030C5E5 		strb	r3, [r5]
 10068 987c 70071FE5 		ldr	r0, .L391+200
 10069 9880 023083E0 		add	r3, r3, r2
 10070 9884 0030C4E5 		strb	r3, [r4]
 10071 9888 FEFFFFEB 		bl	uart_transmit
 10072 988c 0110D6E5 		ldrb	r1, [r6, #1]	@ zero_extendqisi2
 10073 9890 0030D5E5 		ldrb	r3, [r5]	@ zero_extendqisi2
 10074 9894 0020D4E5 		ldrb	r2, [r4]	@ zero_extendqisi2
 10075 9898 033081E0 		add	r3, r1, r3
 10076 989c FF3003E2 		and	r3, r3, #255
 10077 98a0 0030C5E5 		strb	r3, [r5]
 10078 98a4 98071FE5 		ldr	r0, .L391+200
 10079 98a8 023083E0 		add	r3, r3, r2
 10080 98ac 0030C4E5 		strb	r3, [r4]
 10081 98b0 FEFFFFEB 		bl	uart_transmit
 10082 98b4 E4371FE5 		ldr	r3, .L391+140
 10083 98b8 0010D3E5 		ldrb	r1, [r3]	@ zero_extendqisi2
 10084 98bc 0030D5E5 		ldrb	r3, [r5]	@ zero_extendqisi2
 10085 98c0 0020D4E5 		ldrb	r2, [r4]	@ zero_extendqisi2
 10086 98c4 033081E0 		add	r3, r1, r3
 10087 98c8 F4671FE5 		ldr	r6, .L391+144
 10088 98cc FF3003E2 		and	r3, r3, #255
 10089 98d0 0030C5E5 		strb	r3, [r5]
 10090 98d4 C8071FE5 		ldr	r0, .L391+200
 10091 98d8 023083E0 		add	r3, r3, r2
 10092 98dc 0030C4E5 		strb	r3, [r4]
 10093 98e0 FEFFFFEB 		bl	uart_transmit
 10094 98e4 0010D6E5 		ldrb	r1, [r6]	@ zero_extendqisi2
 10095 98e8 0030D5E5 		ldrb	r3, [r5]	@ zero_extendqisi2
 10096 98ec 0020D4E5 		ldrb	r2, [r4]	@ zero_extendqisi2
 10097 98f0 033081E0 		add	r3, r1, r3
 10098 98f4 FF3003E2 		and	r3, r3, #255
 10099 98f8 0030C5E5 		strb	r3, [r5]
 10100 98fc F0071FE5 		ldr	r0, .L391+200
 10101 9900 023083E0 		add	r3, r3, r2
 10102 9904 0030C4E5 		strb	r3, [r4]
 10103 9908 FEFFFFEB 		bl	uart_transmit
 10104 990c 0110D6E5 		ldrb	r1, [r6, #1]	@ zero_extendqisi2
 10105 9910 0030D5E5 		ldrb	r3, [r5]	@ zero_extendqisi2
 10106 9914 0020D4E5 		ldrb	r2, [r4]	@ zero_extendqisi2
 10107 9918 033081E0 		add	r3, r1, r3
 10108 991c 44681FE5 		ldr	r6, .L391+148
 10109 9920 FF3003E2 		and	r3, r3, #255
 10110 9924 0030C5E5 		strb	r3, [r5]
 10111 9928 1C081FE5 		ldr	r0, .L391+200
 10112 992c 023083E0 		add	r3, r3, r2
 10113 9930 0030C4E5 		strb	r3, [r4]
 10114 9934 FEFFFFEB 		bl	uart_transmit
 10115 9938 0010D6E5 		ldrb	r1, [r6]	@ zero_extendqisi2
 10116 993c 0030D5E5 		ldrb	r3, [r5]	@ zero_extendqisi2
 10117 9940 0020D4E5 		ldrb	r2, [r4]	@ zero_extendqisi2
 10118 9944 033081E0 		add	r3, r1, r3
 10119 9948 FF3003E2 		and	r3, r3, #255
 10120 994c 0030C5E5 		strb	r3, [r5]
 10121 9950 44081FE5 		ldr	r0, .L391+200
 10122 9954 023083E0 		add	r3, r3, r2
 10123 9958 0030C4E5 		strb	r3, [r4]
 10124 995c FEFFFFEB 		bl	uart_transmit
 10125 9960 0110D6E5 		ldrb	r1, [r6, #1]	@ zero_extendqisi2
 10126 9964 0030D5E5 		ldrb	r3, [r5]	@ zero_extendqisi2
 10127 9968 0020D4E5 		ldrb	r2, [r4]	@ zero_extendqisi2
 10128 996c 033081E0 		add	r3, r1, r3
 10129 9970 FF3003E2 		and	r3, r3, #255
 10130 9974 0030C5E5 		strb	r3, [r5]
 10131 9978 6C081FE5 		ldr	r0, .L391+200
 10132 997c 023083E0 		add	r3, r3, r2
 10133 9980 0030C4E5 		strb	r3, [r4]
 10134 9984 FEFFFFEB 		bl	uart_transmit
 10135 9988 0C10DDE5 		ldrb	r1, [sp, #12]	@ zero_extendqisi2
 10136 998c 0030D5E5 		ldrb	r3, [r5]	@ zero_extendqisi2
 10137 9990 0020D4E5 		ldrb	r2, [r4]	@ zero_extendqisi2
 10138 9994 033081E0 		add	r3, r1, r3
 10139 9998 FF3003E2 		and	r3, r3, #255
 10140 999c 0030C5E5 		strb	r3, [r5]
 10141 99a0 94081FE5 		ldr	r0, .L391+200
 10142 99a4 023083E0 		add	r3, r3, r2
 10143 99a8 0030C4E5 		strb	r3, [r4]
 10144 99ac FEFFFFEB 		bl	uart_transmit
 10145 99b0 0D10DDE5 		ldrb	r1, [sp, #13]	@ zero_extendqisi2
 10146 99b4 0030D5E5 		ldrb	r3, [r5]	@ zero_extendqisi2
 10147 99b8 0020D4E5 		ldrb	r2, [r4]	@ zero_extendqisi2
 10148 99bc 033081E0 		add	r3, r1, r3
 10149 99c0 FF3003E2 		and	r3, r3, #255
 10150 99c4 0030C5E5 		strb	r3, [r5]
 10151 99c8 BC081FE5 		ldr	r0, .L391+200
 10152 99cc 023083E0 		add	r3, r3, r2
 10153 99d0 0030C4E5 		strb	r3, [r4]
 10154 99d4 FEFFFFEB 		bl	uart_transmit
 10155 99d8 0010D5E5 		ldrb	r1, [r5]	@ zero_extendqisi2
 10156 99dc D0081FE5 		ldr	r0, .L391+200
 10157 99e0 FEFFFFEB 		bl	uart_transmit
 10158 99e4 D8081FE5 		ldr	r0, .L391+200
 10159 99e8 0010D4E5 		ldrb	r1, [r4]	@ zero_extendqisi2
 10160 99ec FEFFFFEB 		bl	uart_transmit
 10161 99f0 030000EA 		b	.L291
 10162              	.L292:
 10163 99f4 E4381FE5 		ldr	r3, .L391+204
 10164 99f8 0020D3E5 		ldrb	r2, [r3]	@ zero_extendqisi2
 10165 99fc 012082E2 		add	r2, r2, #1
 10166 9a00 0020C3E5 		strb	r2, [r3]
 10167              	.L291:
 10168 9a04 28291FE5 		ldr	r2, .L391+152
 10169 9a08 B030D2E1 		ldrh	r3, [r2]
 10170 9a0c 300053E3 		cmp	r3, #48
 10171 9a10 7101001A 		bne	.L4
 10172 9a14 08091FE5 		ldr	r0, .L391+200
 10173 9a18 2610A0E3 		mov	r1, #38
 10174 9a1c FEFFFFEB 		bl	uart_check_free_space
 10175 9a20 000050E3 		cmp	r0, #0
 10176 9a24 6801000A 		beq	.L295
 10177 9a28 48391FE5 		ldr	r3, .L391+156
 10178 9a2c B020D3E1 		ldrh	r2, [r3]
 10179 9a30 262082E2 		add	r2, r2, #38
 10180 9a34 B020C3E1 		strh	r2, [r3]	@ movhi
 10181 9a38 54391FE5 		ldr	r3, .L391+160
 10182 9a3c B020D3E1 		ldrh	r2, [r3]
 10183 9a40 34091FE5 		ldr	r0, .L391+200
 10184 9a44 012082E2 		add	r2, r2, #1
 10185 9a48 9910A0E3 		mov	r1, #153
 10186 9a4c 64591FE5 		ldr	r5, .L391+164
 10187 9a50 B020C3E1 		strh	r2, [r3]	@ movhi
 10188 9a54 FEFFFFEB 		bl	uart_transmit
 10189 9a58 4C091FE5 		ldr	r0, .L391+200
 10190 9a5c 2610A0E3 		mov	r1, #38
 10191 9a60 74491FE5 		ldr	r4, .L391+168
 10192 9a64 FEFFFFEB 		bl	uart_transmit
 10193 9a68 2830A0E3 		mov	r3, #40
 10194 9a6c 0030C5E5 		strb	r3, [r5]
 10195 9a70 64091FE5 		ldr	r0, .L391+200
 10196 9a74 4E30A0E3 		mov	r3, #78
 10197 9a78 0210A0E3 		mov	r1, #2
 10198 9a7c 0030C4E5 		strb	r3, [r4]
 10199 9a80 FEFFFFEB 		bl	uart_transmit
 10200 9a84 0030D5E5 		ldrb	r3, [r5]	@ zero_extendqisi2
 10201 9a88 0020D4E5 		ldrb	r2, [r4]	@ zero_extendqisi2
 10202 9a8c 103083E2 		add	r3, r3, #16
 10203 9a90 A0691FE5 		ldr	r6, .L391+172
 10204 9a94 FF3003E2 		and	r3, r3, #255
 10205 9a98 0030C5E5 		strb	r3, [r5]
 10206 9a9c 90091FE5 		ldr	r0, .L391+200
 10207 9aa0 023083E0 		add	r3, r3, r2
 10208 9aa4 1010A0E3 		mov	r1, #16
 10209 9aa8 0030C4E5 		strb	r3, [r4]
 10210 9aac FEFFFFEB 		bl	uart_transmit
 10211 9ab0 0010D6E5 		ldrb	r1, [r6]	@ zero_extendqisi2
 10212 9ab4 0030D5E5 		ldrb	r3, [r5]	@ zero_extendqisi2
 10213 9ab8 0020D4E5 		ldrb	r2, [r4]	@ zero_extendqisi2
 10214 9abc 033081E0 		add	r3, r1, r3
 10215 9ac0 FF3003E2 		and	r3, r3, #255
 10216 9ac4 0030C5E5 		strb	r3, [r5]
 10217 9ac8 BC091FE5 		ldr	r0, .L391+200
 10218 9acc 023083E0 		add	r3, r3, r2
 10219 9ad0 0030C4E5 		strb	r3, [r4]
 10220 9ad4 FEFFFFEB 		bl	uart_transmit
 10221 9ad8 0110D6E5 		ldrb	r1, [r6, #1]	@ zero_extendqisi2
 10222 9adc 0030D5E5 		ldrb	r3, [r5]	@ zero_extendqisi2
 10223 9ae0 0020D4E5 		ldrb	r2, [r4]	@ zero_extendqisi2
 10224 9ae4 033081E0 		add	r3, r1, r3
 10225 9ae8 FF3003E2 		and	r3, r3, #255
 10226 9aec 0030C5E5 		strb	r3, [r5]
 10227 9af0 E4091FE5 		ldr	r0, .L391+200
 10228 9af4 023083E0 		add	r3, r3, r2
 10229 9af8 0030C4E5 		strb	r3, [r4]
 10230 9afc FEFFFFEB 		bl	uart_transmit
 10231 9b00 0210D6E5 		ldrb	r1, [r6, #2]	@ zero_extendqisi2
 10232 9b04 0030D5E5 		ldrb	r3, [r5]	@ zero_extendqisi2
 10233 9b08 0020D4E5 		ldrb	r2, [r4]	@ zero_extendqisi2
 10234 9b0c 033081E0 		add	r3, r1, r3
 10235 9b10 FF3003E2 		and	r3, r3, #255
 10236 9b14 0030C5E5 		strb	r3, [r5]
 10237 9b18 0C0A1FE5 		ldr	r0, .L391+200
 10238 9b1c 023083E0 		add	r3, r3, r2
 10239 9b20 0030C4E5 		strb	r3, [r4]
 10240 9b24 FEFFFFEB 		bl	uart_transmit
 10241 9b28 0310D6E5 		ldrb	r1, [r6, #3]	@ zero_extendqisi2
 10242 9b2c 0030D5E5 		ldrb	r3, [r5]	@ zero_extendqisi2
 10243 9b30 0020D4E5 		ldrb	r2, [r4]	@ zero_extendqisi2
 10244 9b34 033081E0 		add	r3, r1, r3
 10245 9b38 446A1FE5 		ldr	r6, .L391+176
 10246 9b3c FF3003E2 		and	r3, r3, #255
 10247 9b40 0030C5E5 		strb	r3, [r5]
 10248 9b44 380A1FE5 		ldr	r0, .L391+200
 10249 9b48 023083E0 		add	r3, r3, r2
 10250 9b4c 0030C4E5 		strb	r3, [r4]
 10251 9b50 FEFFFFEB 		bl	uart_transmit
 10252 9b54 0010D6E5 		ldrb	r1, [r6]	@ zero_extendqisi2
 10253 9b58 0030D5E5 		ldrb	r3, [r5]	@ zero_extendqisi2
 10254 9b5c 0020D4E5 		ldrb	r2, [r4]	@ zero_extendqisi2
 10255 9b60 033081E0 		add	r3, r1, r3
 10256 9b64 FF3003E2 		and	r3, r3, #255
 10257 9b68 0030C5E5 		strb	r3, [r5]
 10258 9b6c 600A1FE5 		ldr	r0, .L391+200
 10259 9b70 023083E0 		add	r3, r3, r2
 10260 9b74 0030C4E5 		strb	r3, [r4]
 10261 9b78 FEFFFFEB 		bl	uart_transmit
 10262 9b7c 0110D6E5 		ldrb	r1, [r6, #1]	@ zero_extendqisi2
 10263 9b80 0030D5E5 		ldrb	r3, [r5]	@ zero_extendqisi2
 10264 9b84 0020D4E5 		ldrb	r2, [r4]	@ zero_extendqisi2
 10265 9b88 033081E0 		add	r3, r1, r3
 10266 9b8c FF3003E2 		and	r3, r3, #255
 10267 9b90 0030C5E5 		strb	r3, [r5]
 10268 9b94 880A1FE5 		ldr	r0, .L391+200
 10269 9b98 023083E0 		add	r3, r3, r2
 10270 9b9c 0030C4E5 		strb	r3, [r4]
 10271 9ba0 FEFFFFEB 		bl	uart_transmit
 10272 9ba4 0210D6E5 		ldrb	r1, [r6, #2]	@ zero_extendqisi2
 10273 9ba8 0030D5E5 		ldrb	r3, [r5]	@ zero_extendqisi2
 10274 9bac 0020D4E5 		ldrb	r2, [r4]	@ zero_extendqisi2
 10275 9bb0 033081E0 		add	r3, r1, r3
 10276 9bb4 FF3003E2 		and	r3, r3, #255
 10277 9bb8 0030C5E5 		strb	r3, [r5]
 10278 9bbc B00A1FE5 		ldr	r0, .L391+200
 10279 9bc0 023083E0 		add	r3, r3, r2
 10280 9bc4 0030C4E5 		strb	r3, [r4]
 10281 9bc8 FEFFFFEB 		bl	uart_transmit
 10282 9bcc 0310D6E5 		ldrb	r1, [r6, #3]	@ zero_extendqisi2
 10283 9bd0 0030D5E5 		ldrb	r3, [r5]	@ zero_extendqisi2
 10284 9bd4 0020D4E5 		ldrb	r2, [r4]	@ zero_extendqisi2
 10285 9bd8 033081E0 		add	r3, r1, r3
 10286 9bdc E46A1FE5 		ldr	r6, .L391+180
 10287 9be0 FF3003E2 		and	r3, r3, #255
 10288 9be4 0030C5E5 		strb	r3, [r5]
 10289 9be8 DC0A1FE5 		ldr	r0, .L391+200
 10290 9bec 023083E0 		add	r3, r3, r2
 10291 9bf0 0030C4E5 		strb	r3, [r4]
 10292 9bf4 FEFFFFEB 		bl	uart_transmit
 10293 9bf8 0010D6E5 		ldrb	r1, [r6]	@ zero_extendqisi2
 10294 9bfc 0030D5E5 		ldrb	r3, [r5]	@ zero_extendqisi2
 10295 9c00 0020D4E5 		ldrb	r2, [r4]	@ zero_extendqisi2
 10296 9c04 033081E0 		add	r3, r1, r3
 10297 9c08 FF3003E2 		and	r3, r3, #255
 10298 9c0c 0030C5E5 		strb	r3, [r5]
 10299 9c10 040B1FE5 		ldr	r0, .L391+200
 10300 9c14 023083E0 		add	r3, r3, r2
 10301 9c18 0030C4E5 		strb	r3, [r4]
 10302 9c1c FEFFFFEB 		bl	uart_transmit
 10303 9c20 0110D6E5 		ldrb	r1, [r6, #1]	@ zero_extendqisi2
 10304 9c24 0030D5E5 		ldrb	r3, [r5]	@ zero_extendqisi2
 10305 9c28 0020D4E5 		ldrb	r2, [r4]	@ zero_extendqisi2
 10306 9c2c 033081E0 		add	r3, r1, r3
 10307 9c30 FF3003E2 		and	r3, r3, #255
 10308 9c34 0030C5E5 		strb	r3, [r5]
 10309 9c38 2C0B1FE5 		ldr	r0, .L391+200
 10310 9c3c 023083E0 		add	r3, r3, r2
 10311 9c40 0030C4E5 		strb	r3, [r4]
 10312 9c44 FEFFFFEB 		bl	uart_transmit
 10313 9c48 0210D6E5 		ldrb	r1, [r6, #2]	@ zero_extendqisi2
 10314 9c4c 0030D5E5 		ldrb	r3, [r5]	@ zero_extendqisi2
 10315 9c50 0020D4E5 		ldrb	r2, [r4]	@ zero_extendqisi2
 10316 9c54 033081E0 		add	r3, r1, r3
 10317 9c58 FF3003E2 		and	r3, r3, #255
 10318 9c5c 0030C5E5 		strb	r3, [r5]
 10319 9c60 540B1FE5 		ldr	r0, .L391+200
 10320 9c64 023083E0 		add	r3, r3, r2
 10321 9c68 0030C4E5 		strb	r3, [r4]
 10322 9c6c FEFFFFEB 		bl	uart_transmit
 10323 9c70 0310D6E5 		ldrb	r1, [r6, #3]	@ zero_extendqisi2
 10324 9c74 0030D5E5 		ldrb	r3, [r5]	@ zero_extendqisi2
 10325 9c78 0020D4E5 		ldrb	r2, [r4]	@ zero_extendqisi2
 10326 9c7c 033081E0 		add	r3, r1, r3
 10327 9c80 846B1FE5 		ldr	r6, .L391+184
 10328 9c84 FF3003E2 		and	r3, r3, #255
 10329 9c88 0030C5E5 		strb	r3, [r5]
 10330 9c8c 800B1FE5 		ldr	r0, .L391+200
 10331 9c90 023083E0 		add	r3, r3, r2
 10332 9c94 0030C4E5 		strb	r3, [r4]
 10333 9c98 FEFFFFEB 		bl	uart_transmit
 10334 9c9c 0010D6E5 		ldrb	r1, [r6]	@ zero_extendqisi2
 10335 9ca0 0030D5E5 		ldrb	r3, [r5]	@ zero_extendqisi2
 10336 9ca4 0020D4E5 		ldrb	r2, [r4]	@ zero_extendqisi2
 10337 9ca8 033081E0 		add	r3, r1, r3
 10338 9cac FF3003E2 		and	r3, r3, #255
 10339 9cb0 0030C5E5 		strb	r3, [r5]
 10340 9cb4 A80B1FE5 		ldr	r0, .L391+200
 10341 9cb8 023083E0 		add	r3, r3, r2
 10342 9cbc 0030C4E5 		strb	r3, [r4]
 10343 9cc0 FEFFFFEB 		bl	uart_transmit
 10344 9cc4 0110D6E5 		ldrb	r1, [r6, #1]	@ zero_extendqisi2
 10345 9cc8 0030D5E5 		ldrb	r3, [r5]	@ zero_extendqisi2
 10346 9ccc 0020D4E5 		ldrb	r2, [r4]	@ zero_extendqisi2
 10347 9cd0 033081E0 		add	r3, r1, r3
 10348 9cd4 FF3003E2 		and	r3, r3, #255
 10349 9cd8 0030C5E5 		strb	r3, [r5]
 10350 9cdc D00B1FE5 		ldr	r0, .L391+200
 10351 9ce0 023083E0 		add	r3, r3, r2
 10352 9ce4 0030C4E5 		strb	r3, [r4]
 10353 9ce8 FEFFFFEB 		bl	uart_transmit
 10354 9cec 0210D6E5 		ldrb	r1, [r6, #2]	@ zero_extendqisi2
 10355 9cf0 0030D5E5 		ldrb	r3, [r5]	@ zero_extendqisi2
 10356 9cf4 0020D4E5 		ldrb	r2, [r4]	@ zero_extendqisi2
 10357 9cf8 033081E0 		add	r3, r1, r3
 10358 9cfc FF3003E2 		and	r3, r3, #255
 10359 9d00 0030C5E5 		strb	r3, [r5]
 10360 9d04 F80B1FE5 		ldr	r0, .L391+200
 10361 9d08 023083E0 		add	r3, r3, r2
 10362 9d0c 0030C4E5 		strb	r3, [r4]
 10363 9d10 FEFFFFEB 		bl	uart_transmit
 10364 9d14 0310D6E5 		ldrb	r1, [r6, #3]	@ zero_extendqisi2
 10365 9d18 0030D5E5 		ldrb	r3, [r5]	@ zero_extendqisi2
 10366 9d1c 0020D4E5 		ldrb	r2, [r4]	@ zero_extendqisi2
 10367 9d20 033081E0 		add	r3, r1, r3
 10368 9d24 246C1FE5 		ldr	r6, .L391+188
 10369 9d28 FF3003E2 		and	r3, r3, #255
 10370 9d2c 0030C5E5 		strb	r3, [r5]
 10371 9d30 240C1FE5 		ldr	r0, .L391+200
 10372 9d34 023083E0 		add	r3, r3, r2
 10373 9d38 0030C4E5 		strb	r3, [r4]
 10374 9d3c FEFFFFEB 		bl	uart_transmit
 10375 9d40 0010D6E5 		ldrb	r1, [r6]	@ zero_extendqisi2
 10376 9d44 0030D5E5 		ldrb	r3, [r5]	@ zero_extendqisi2
 10377 9d48 0020D4E5 		ldrb	r2, [r4]	@ zero_extendqisi2
 10378 9d4c 033081E0 		add	r3, r1, r3
 10379 9d50 FF3003E2 		and	r3, r3, #255
 10380 9d54 0030C5E5 		strb	r3, [r5]
 10381 9d58 4C0C1FE5 		ldr	r0, .L391+200
 10382 9d5c 023083E0 		add	r3, r3, r2
 10383 9d60 0030C4E5 		strb	r3, [r4]
 10384 9d64 FEFFFFEB 		bl	uart_transmit
 10385 9d68 0110D6E5 		ldrb	r1, [r6, #1]	@ zero_extendqisi2
 10386 9d6c 0030D5E5 		ldrb	r3, [r5]	@ zero_extendqisi2
 10387 9d70 0020D4E5 		ldrb	r2, [r4]	@ zero_extendqisi2
 10388 9d74 033081E0 		add	r3, r1, r3
 10389 9d78 FF3003E2 		and	r3, r3, #255
 10390 9d7c 0030C5E5 		strb	r3, [r5]
 10391 9d80 740C1FE5 		ldr	r0, .L391+200
 10392 9d84 023083E0 		add	r3, r3, r2
 10393 9d88 0030C4E5 		strb	r3, [r4]
 10394 9d8c FEFFFFEB 		bl	uart_transmit
 10395 9d90 0210D6E5 		ldrb	r1, [r6, #2]	@ zero_extendqisi2
 10396 9d94 0030D5E5 		ldrb	r3, [r5]	@ zero_extendqisi2
 10397 9d98 0020D4E5 		ldrb	r2, [r4]	@ zero_extendqisi2
 10398 9d9c 033081E0 		add	r3, r1, r3
 10399 9da0 FF3003E2 		and	r3, r3, #255
 10400 9da4 0030C5E5 		strb	r3, [r5]
 10401 9da8 9C0C1FE5 		ldr	r0, .L391+200
 10402 9dac 023083E0 		add	r3, r3, r2
 10403 9db0 0030C4E5 		strb	r3, [r4]
 10404 9db4 FEFFFFEB 		bl	uart_transmit
 10405 9db8 0310D6E5 		ldrb	r1, [r6, #3]	@ zero_extendqisi2
 10406 9dbc 0030D5E5 		ldrb	r3, [r5]	@ zero_extendqisi2
 10407 9dc0 0020D4E5 		ldrb	r2, [r4]	@ zero_extendqisi2
 10408 9dc4 033081E0 		add	r3, r1, r3
 10409 9dc8 C46C1FE5 		ldr	r6, .L391+192
 10410 9dcc FF3003E2 		and	r3, r3, #255
 10411 9dd0 0030C5E5 		strb	r3, [r5]
 10412 9dd4 C80C1FE5 		ldr	r0, .L391+200
 10413 9dd8 023083E0 		add	r3, r3, r2
 10414 9ddc 0030C4E5 		strb	r3, [r4]
 10415 9de0 FEFFFFEB 		bl	uart_transmit
 10416 9de4 0010D6E5 		ldrb	r1, [r6]	@ zero_extendqisi2
 10417 9de8 0030D5E5 		ldrb	r3, [r5]	@ zero_extendqisi2
 10418 9dec 0020D4E5 		ldrb	r2, [r4]	@ zero_extendqisi2
 10419 9df0 033081E0 		add	r3, r1, r3
 10420 9df4 FF3003E2 		and	r3, r3, #255
 10421 9df8 0030C5E5 		strb	r3, [r5]
 10422 9dfc F00C1FE5 		ldr	r0, .L391+200
 10423 9e00 023083E0 		add	r3, r3, r2
 10424 9e04 0030C4E5 		strb	r3, [r4]
 10425 9e08 FEFFFFEB 		bl	uart_transmit
 10426 9e0c 0110D6E5 		ldrb	r1, [r6, #1]	@ zero_extendqisi2
 10427 9e10 0030D5E5 		ldrb	r3, [r5]	@ zero_extendqisi2
 10428 9e14 0020D4E5 		ldrb	r2, [r4]	@ zero_extendqisi2
 10429 9e18 033081E0 		add	r3, r1, r3
 10430 9e1c FF3003E2 		and	r3, r3, #255
 10431 9e20 0030C5E5 		strb	r3, [r5]
 10432 9e24 180D1FE5 		ldr	r0, .L391+200
 10433 9e28 023083E0 		add	r3, r3, r2
 10434 9e2c 0030C4E5 		strb	r3, [r4]
 10435 9e30 FEFFFFEB 		bl	uart_transmit
 10436 9e34 0210D6E5 		ldrb	r1, [r6, #2]	@ zero_extendqisi2
 10437 9e38 0030D5E5 		ldrb	r3, [r5]	@ zero_extendqisi2
 10438 9e3c 0020D4E5 		ldrb	r2, [r4]	@ zero_extendqisi2
 10439 9e40 033081E0 		add	r3, r1, r3
 10440 9e44 FF3003E2 		and	r3, r3, #255
 10441 9e48 0030C5E5 		strb	r3, [r5]
 10442 9e4c 400D1FE5 		ldr	r0, .L391+200
 10443 9e50 023083E0 		add	r3, r3, r2
 10444 9e54 0030C4E5 		strb	r3, [r4]
 10445 9e58 FEFFFFEB 		bl	uart_transmit
 10446 9e5c 0310D6E5 		ldrb	r1, [r6, #3]	@ zero_extendqisi2
 10447 9e60 0030D5E5 		ldrb	r3, [r5]	@ zero_extendqisi2
 10448 9e64 0020D4E5 		ldrb	r2, [r4]	@ zero_extendqisi2
 10449 9e68 033081E0 		add	r3, r1, r3
 10450 9e6c 646D1FE5 		ldr	r6, .L391+196
 10451 9e70 FF3003E2 		and	r3, r3, #255
 10452 9e74 0030C5E5 		strb	r3, [r5]
 10453 9e78 6C0D1FE5 		ldr	r0, .L391+200
 10454 9e7c 023083E0 		add	r3, r3, r2
 10455 9e80 0030C4E5 		strb	r3, [r4]
 10456 9e84 FEFFFFEB 		bl	uart_transmit
 10457 9e88 0010D6E5 		ldrb	r1, [r6]	@ zero_extendqisi2
 10458 9e8c 0030D5E5 		ldrb	r3, [r5]	@ zero_extendqisi2
 10459 9e90 0020D4E5 		ldrb	r2, [r4]	@ zero_extendqisi2
 10460 9e94 033081E0 		add	r3, r1, r3
 10461 9e98 FF3003E2 		and	r3, r3, #255
 10462 9e9c 0030C5E5 		strb	r3, [r5]
 10463 9ea0 940D1FE5 		ldr	r0, .L391+200
 10464 9ea4 023083E0 		add	r3, r3, r2
 10465 9ea8 0030C4E5 		strb	r3, [r4]
 10466 9eac FEFFFFEB 		bl	uart_transmit
 10467 9eb0 0110D6E5 		ldrb	r1, [r6, #1]	@ zero_extendqisi2
 10468 9eb4 0030D5E5 		ldrb	r3, [r5]	@ zero_extendqisi2
 10469 9eb8 0020D4E5 		ldrb	r2, [r4]	@ zero_extendqisi2
 10470 9ebc 033081E0 		add	r3, r1, r3
 10471 9ec0 FF3003E2 		and	r3, r3, #255
 10472 9ec4 0030C5E5 		strb	r3, [r5]
 10473 9ec8 BC0D1FE5 		ldr	r0, .L391+200
 10474 9ecc 023083E0 		add	r3, r3, r2
 10475 9ed0 0030C4E5 		strb	r3, [r4]
 10476 9ed4 FEFFFFEB 		bl	uart_transmit
 10477 9ed8 0210D6E5 		ldrb	r1, [r6, #2]	@ zero_extendqisi2
 10478 9edc 0030D5E5 		ldrb	r3, [r5]	@ zero_extendqisi2
 10479 9ee0 0020D4E5 		ldrb	r2, [r4]	@ zero_extendqisi2
 10480 9ee4 033081E0 		add	r3, r1, r3
 10481 9ee8 FF3003E2 		and	r3, r3, #255
 10482 9eec 0030C5E5 		strb	r3, [r5]
 10483 9ef0 E40D1FE5 		ldr	r0, .L391+200
 10484 9ef4 023083E0 		add	r3, r3, r2
 10485 9ef8 0030C4E5 		strb	r3, [r4]
 10486 9efc FEFFFFEB 		bl	uart_transmit
 10487 9f00 0310D6E5 		ldrb	r1, [r6, #3]	@ zero_extendqisi2
 10488 9f04 0030D5E5 		ldrb	r3, [r5]	@ zero_extendqisi2
 10489 9f08 0020D4E5 		ldrb	r2, [r4]	@ zero_extendqisi2
 10490 9f0c 033081E0 		add	r3, r1, r3
 10491 9f10 FF3003E2 		and	r3, r3, #255
 10492 9f14 0030C5E5 		strb	r3, [r5]
 10493 9f18 0C0E1FE5 		ldr	r0, .L391+200
 10494 9f1c 023083E0 		add	r3, r3, r2
 10495 9f20 0030C4E5 		strb	r3, [r4]
 10496 9f24 FEFFFFEB 		bl	uart_transmit
 10497 9f28 0020D4E5 		ldrb	r2, [r4]	@ zero_extendqisi2
 10498 9f2c 0030D5E5 		ldrb	r3, [r5]	@ zero_extendqisi2
 10499 9f30 240E1FE5 		ldr	r0, .L391+200
 10500 9f34 033082E0 		add	r3, r2, r3
 10501 9f38 0010A0E3 		mov	r1, #0
 10502 9f3c 0030C4E5 		strb	r3, [r4]
 10503 9f40 FEFFFFEB 		bl	uart_transmit
 10504 9f44 0020D4E5 		ldrb	r2, [r4]	@ zero_extendqisi2
 10505 9f48 0030D5E5 		ldrb	r3, [r5]	@ zero_extendqisi2
 10506 9f4c 400E1FE5 		ldr	r0, .L391+200
 10507 9f50 033082E0 		add	r3, r2, r3
 10508 9f54 0010A0E3 		mov	r1, #0
 10509 9f58 0030C4E5 		strb	r3, [r4]
 10510 9f5c FEFFFFEB 		bl	uart_transmit
 10511 9f60 0030D5E5 		ldrb	r3, [r5]	@ zero_extendqisi2
 10512 9f64 0020D4E5 		ldrb	r2, [r4]	@ zero_extendqisi2
 10513 9f68 703043E2 		sub	r3, r3, #112
 10514 9f6c FF3003E2 		and	r3, r3, #255
 10515 9f70 0030C5E5 		strb	r3, [r5]
 10516 9f74 680E1FE5 		ldr	r0, .L391+200
 10517 9f78 023083E0 		add	r3, r3, r2
 10518 9f7c 9010A0E3 		mov	r1, #144
 10519 9f80 0030C4E5 		strb	r3, [r4]
 10520 9f84 FEFFFFEB 		bl	uart_transmit
 10521 9f88 0030D5E5 		ldrb	r3, [r5]	@ zero_extendqisi2
 10522 9f8c 0020D4E5 		ldrb	r2, [r4]	@ zero_extendqisi2
 10523 9f90 413083E2 		add	r3, r3, #65
 10524 9f94 FF3003E2 		and	r3, r3, #255
 10525 9f98 0030C5E5 		strb	r3, [r5]
 10526 9f9c 900E1FE5 		ldr	r0, .L391+200
 10527 9fa0 023083E0 		add	r3, r3, r2
 10528 9fa4 4110A0E3 		mov	r1, #65
 10529 9fa8 0030C4E5 		strb	r3, [r4]
 10530 9fac FEFFFFEB 		bl	uart_transmit
 10531 9fb0 0010D5E5 		ldrb	r1, [r5]	@ zero_extendqisi2
 10532 9fb4 A80E1FE5 		ldr	r0, .L391+200
 10533 9fb8 FEFFFFEB 		bl	uart_transmit
 10534 9fbc B00E1FE5 		ldr	r0, .L391+200
 10535 9fc0 0010D4E5 		ldrb	r1, [r4]	@ zero_extendqisi2
 10536 9fc4 FEFFFFEB 		bl	uart_transmit
 10537 9fc8 030000EA 		b	.L4
 10538              	.L295:
 10539 9fcc BC3E1FE5 		ldr	r3, .L391+204
 10540 9fd0 0020D3E5 		ldrb	r2, [r3]	@ zero_extendqisi2
 10541 9fd4 012082E2 		add	r2, r2, #1
 10542 9fd8 0020C3E5 		strb	r2, [r3]
 10543              	.L4:
 10544 9fdc 14D08DE2 		add	sp, sp, #20
 10545              		@ sp needed
 10546 9fe0 F04FBDE8 		ldmfd	sp!, {r4, r5, r6, r7, r8, r9, r10, fp, lr}
 10547 9fe4 1EFF2FE1 		bx	lr
 10549              		.section	.text.navigation_task,"ax",%progbits
 10550              		.align	2
 10551              		.global	navigation_task
 10553              	navigation_task:
 10554              		@ Function supports interworking.
 10555              		@ args = 0, pretend = 0, frame = 0
 10556              		@ frame_needed = 0, uses_anonymous_args = 0
 10557 0000 F0412DE9 		stmfd	sp!, {r4, r5, r6, r7, r8, lr}
 10558 0004 B8849FE5 		ldr	r8, .L401
 10559 0008 FEFFFFEB 		bl	common_nav_periodic_task_4Hz
 10560 000c 0030D8E5 		ldrb	r3, [r8]	@ zero_extendqisi2
 10561 0010 030053E3 		cmp	r3, #3
 10562 0014 0100001A 		bne	.L394
 10563 0018 FEFFFFEB 		bl	nav_home
 10564 001c 040000EA 		b	.L395
 10565              	.L394:
 10566 0020 040053E3 		cmp	r3, #4
 10567 0024 0100001A 		bne	.L396
 10568 0028 FEFFFFEB 		bl	nav_without_gps
 10569 002c 000000EA 		b	.L395
 10570              	.L396:
 10571 0030 FEFFFFEB 		bl	nav_periodic_task
 10572              	.L395:
 10573 0034 8C349FE5 		ldr	r3, .L401+4
 10574 0038 8C049FE5 		ldr	r0, .L401+8
 10575 003c 1A10A0E3 		mov	r1, #26
 10576 0040 004093E5 		ldr	r4, [r3]	@ float
 10577 0044 FEFFFFEB 		bl	uart_check_free_space
 10578 0048 000050E3 		cmp	r0, #0
 10579 004c FD00000A 		beq	.L397
 10580 0050 0201C4E3 		bic	r0, r4, #-2147483648
 10581 0054 FEFFFFEB 		bl	__aeabi_f2d
 10582 0058 70249FE5 		ldr	r2, .L401+12
 10583 005c 70349FE5 		ldr	r3, .L401+16
 10584 0060 FEFFFFEB 		bl	__aeabi_ddiv
 10585 0064 FEFFFFEB 		bl	__aeabi_d2uiz
 10586 0068 68349FE5 		ldr	r3, .L401+20
 10587 006c B020D3E1 		ldrh	r2, [r3]
 10588 0070 1A2082E2 		add	r2, r2, #26
 10589 0074 B020C3E1 		strh	r2, [r3]	@ movhi
 10590 0078 5C349FE5 		ldr	r3, .L401+24
 10591 007c B020D3E1 		ldrh	r2, [r3]
 10592 0080 FF7000E2 		and	r7, r0, #255
 10593 0084 012082E2 		add	r2, r2, #1
 10594 0088 3C049FE5 		ldr	r0, .L401+8
 10595 008c 9910A0E3 		mov	r1, #153
 10596 0090 48549FE5 		ldr	r5, .L401+28
 10597 0094 B020C3E1 		strh	r2, [r3]	@ movhi
 10598 0098 FEFFFFEB 		bl	uart_transmit
 10599 009c 28049FE5 		ldr	r0, .L401+8
 10600 00a0 1A10A0E3 		mov	r1, #26
 10601 00a4 38449FE5 		ldr	r4, .L401+32
 10602 00a8 FEFFFFEB 		bl	uart_transmit
 10603 00ac 1C30A0E3 		mov	r3, #28
 10604 00b0 0030C5E5 		strb	r3, [r5]
 10605 00b4 10049FE5 		ldr	r0, .L401+8
 10606 00b8 3630A0E3 		mov	r3, #54
 10607 00bc 0210A0E3 		mov	r1, #2
 10608 00c0 0030C4E5 		strb	r3, [r4]
 10609 00c4 FEFFFFEB 		bl	uart_transmit
 10610 00c8 0030D5E5 		ldrb	r3, [r5]	@ zero_extendqisi2
 10611 00cc 0020D4E5 		ldrb	r2, [r4]	@ zero_extendqisi2
 10612 00d0 0A3083E2 		add	r3, r3, #10
 10613 00d4 FF3003E2 		and	r3, r3, #255
 10614 00d8 0030C5E5 		strb	r3, [r5]
 10615 00dc E8039FE5 		ldr	r0, .L401+8
 10616 00e0 023083E0 		add	r3, r3, r2
 10617 00e4 0A10A0E3 		mov	r1, #10
 10618 00e8 0030C4E5 		strb	r3, [r4]
 10619 00ec FEFFFFEB 		bl	uart_transmit
 10620 00f0 F0339FE5 		ldr	r3, .L401+36
 10621 00f4 0010D3E5 		ldrb	r1, [r3]	@ zero_extendqisi2
 10622 00f8 0030D5E5 		ldrb	r3, [r5]	@ zero_extendqisi2
 10623 00fc 0020D4E5 		ldrb	r2, [r4]	@ zero_extendqisi2
 10624 0100 033081E0 		add	r3, r1, r3
 10625 0104 FF3003E2 		and	r3, r3, #255
 10626 0108 0030C5E5 		strb	r3, [r5]
 10627 010c B8039FE5 		ldr	r0, .L401+8
 10628 0110 023083E0 		add	r3, r3, r2
 10629 0114 0030C4E5 		strb	r3, [r4]
 10630 0118 FEFFFFEB 		bl	uart_transmit
 10631 011c C8339FE5 		ldr	r3, .L401+40
 10632 0120 0010D3E5 		ldrb	r1, [r3]	@ zero_extendqisi2
 10633 0124 0030D5E5 		ldrb	r3, [r5]	@ zero_extendqisi2
 10634 0128 0020D4E5 		ldrb	r2, [r4]	@ zero_extendqisi2
 10635 012c 033081E0 		add	r3, r1, r3
 10636 0130 B8639FE5 		ldr	r6, .L401+44
 10637 0134 FF3003E2 		and	r3, r3, #255
 10638 0138 0030C5E5 		strb	r3, [r5]
 10639 013c 88039FE5 		ldr	r0, .L401+8
 10640 0140 023083E0 		add	r3, r3, r2
 10641 0144 0030C4E5 		strb	r3, [r4]
 10642 0148 FEFFFFEB 		bl	uart_transmit
 10643 014c 0010D6E5 		ldrb	r1, [r6]	@ zero_extendqisi2
 10644 0150 0030D5E5 		ldrb	r3, [r5]	@ zero_extendqisi2
 10645 0154 0020D4E5 		ldrb	r2, [r4]	@ zero_extendqisi2
 10646 0158 033081E0 		add	r3, r1, r3
 10647 015c FF3003E2 		and	r3, r3, #255
 10648 0160 0030C5E5 		strb	r3, [r5]
 10649 0164 60039FE5 		ldr	r0, .L401+8
 10650 0168 023083E0 		add	r3, r3, r2
 10651 016c 0030C4E5 		strb	r3, [r4]
 10652 0170 FEFFFFEB 		bl	uart_transmit
 10653 0174 0110D6E5 		ldrb	r1, [r6, #1]	@ zero_extendqisi2
 10654 0178 0030D5E5 		ldrb	r3, [r5]	@ zero_extendqisi2
 10655 017c 0020D4E5 		ldrb	r2, [r4]	@ zero_extendqisi2
 10656 0180 033081E0 		add	r3, r1, r3
 10657 0184 FF3003E2 		and	r3, r3, #255
 10658 0188 0030C5E5 		strb	r3, [r5]
 10659 018c 38039FE5 		ldr	r0, .L401+8
 10660 0190 023083E0 		add	r3, r3, r2
 10661 0194 0030C4E5 		strb	r3, [r4]
 10662 0198 FEFFFFEB 		bl	uart_transmit
 10663 019c 0210D6E5 		ldrb	r1, [r6, #2]	@ zero_extendqisi2
 10664 01a0 0030D5E5 		ldrb	r3, [r5]	@ zero_extendqisi2
 10665 01a4 0020D4E5 		ldrb	r2, [r4]	@ zero_extendqisi2
 10666 01a8 033081E0 		add	r3, r1, r3
 10667 01ac FF3003E2 		and	r3, r3, #255
 10668 01b0 0030C5E5 		strb	r3, [r5]
 10669 01b4 10039FE5 		ldr	r0, .L401+8
 10670 01b8 023083E0 		add	r3, r3, r2
 10671 01bc 0030C4E5 		strb	r3, [r4]
 10672 01c0 FEFFFFEB 		bl	uart_transmit
 10673 01c4 0310D6E5 		ldrb	r1, [r6, #3]	@ zero_extendqisi2
 10674 01c8 0030D5E5 		ldrb	r3, [r5]	@ zero_extendqisi2
 10675 01cc 0020D4E5 		ldrb	r2, [r4]	@ zero_extendqisi2
 10676 01d0 033081E0 		add	r3, r1, r3
 10677 01d4 18639FE5 		ldr	r6, .L401+48
 10678 01d8 FF3003E2 		and	r3, r3, #255
 10679 01dc 0030C5E5 		strb	r3, [r5]
 10680 01e0 E4029FE5 		ldr	r0, .L401+8
 10681 01e4 023083E0 		add	r3, r3, r2
 10682 01e8 0030C4E5 		strb	r3, [r4]
 10683 01ec FEFFFFEB 		bl	uart_transmit
 10684 01f0 0010D6E5 		ldrb	r1, [r6]	@ zero_extendqisi2
 10685 01f4 0030D5E5 		ldrb	r3, [r5]	@ zero_extendqisi2
 10686 01f8 0020D4E5 		ldrb	r2, [r4]	@ zero_extendqisi2
 10687 01fc 033081E0 		add	r3, r1, r3
 10688 0200 FF3003E2 		and	r3, r3, #255
 10689 0204 0030C5E5 		strb	r3, [r5]
 10690 0208 BC029FE5 		ldr	r0, .L401+8
 10691 020c 023083E0 		add	r3, r3, r2
 10692 0210 0030C4E5 		strb	r3, [r4]
 10693 0214 FEFFFFEB 		bl	uart_transmit
 10694 0218 0110D6E5 		ldrb	r1, [r6, #1]	@ zero_extendqisi2
 10695 021c 0030D5E5 		ldrb	r3, [r5]	@ zero_extendqisi2
 10696 0220 0020D4E5 		ldrb	r2, [r4]	@ zero_extendqisi2
 10697 0224 033081E0 		add	r3, r1, r3
 10698 0228 FF3003E2 		and	r3, r3, #255
 10699 022c 0030C5E5 		strb	r3, [r5]
 10700 0230 94029FE5 		ldr	r0, .L401+8
 10701 0234 023083E0 		add	r3, r3, r2
 10702 0238 0030C4E5 		strb	r3, [r4]
 10703 023c FEFFFFEB 		bl	uart_transmit
 10704 0240 0210D6E5 		ldrb	r1, [r6, #2]	@ zero_extendqisi2
 10705 0244 0030D5E5 		ldrb	r3, [r5]	@ zero_extendqisi2
 10706 0248 0020D4E5 		ldrb	r2, [r4]	@ zero_extendqisi2
 10707 024c 033081E0 		add	r3, r1, r3
 10708 0250 FF3003E2 		and	r3, r3, #255
 10709 0254 0030C5E5 		strb	r3, [r5]
 10710 0258 6C029FE5 		ldr	r0, .L401+8
 10711 025c 023083E0 		add	r3, r3, r2
 10712 0260 0030C4E5 		strb	r3, [r4]
 10713 0264 FEFFFFEB 		bl	uart_transmit
 10714 0268 0310D6E5 		ldrb	r1, [r6, #3]	@ zero_extendqisi2
 10715 026c 0030D5E5 		ldrb	r3, [r5]	@ zero_extendqisi2
 10716 0270 0020D4E5 		ldrb	r2, [r4]	@ zero_extendqisi2
 10717 0274 033081E0 		add	r3, r1, r3
 10718 0278 78629FE5 		ldr	r6, .L401+52
 10719 027c FF3003E2 		and	r3, r3, #255
 10720 0280 0030C5E5 		strb	r3, [r5]
 10721 0284 40029FE5 		ldr	r0, .L401+8
 10722 0288 023083E0 		add	r3, r3, r2
 10723 028c 0030C4E5 		strb	r3, [r4]
 10724 0290 FEFFFFEB 		bl	uart_transmit
 10725 0294 0010D6E5 		ldrb	r1, [r6]	@ zero_extendqisi2
 10726 0298 0030D5E5 		ldrb	r3, [r5]	@ zero_extendqisi2
 10727 029c 0020D4E5 		ldrb	r2, [r4]	@ zero_extendqisi2
 10728 02a0 033081E0 		add	r3, r1, r3
 10729 02a4 FF3003E2 		and	r3, r3, #255
 10730 02a8 0030C5E5 		strb	r3, [r5]
 10731 02ac 18029FE5 		ldr	r0, .L401+8
 10732 02b0 023083E0 		add	r3, r3, r2
 10733 02b4 0030C4E5 		strb	r3, [r4]
 10734 02b8 FEFFFFEB 		bl	uart_transmit
 10735 02bc 0110D6E5 		ldrb	r1, [r6, #1]	@ zero_extendqisi2
 10736 02c0 0030D5E5 		ldrb	r3, [r5]	@ zero_extendqisi2
 10737 02c4 0020D4E5 		ldrb	r2, [r4]	@ zero_extendqisi2
 10738 02c8 033081E0 		add	r3, r1, r3
 10739 02cc FF3003E2 		and	r3, r3, #255
 10740 02d0 0030C5E5 		strb	r3, [r5]
 10741 02d4 F0019FE5 		ldr	r0, .L401+8
 10742 02d8 023083E0 		add	r3, r3, r2
 10743 02dc 0030C4E5 		strb	r3, [r4]
 10744 02e0 FEFFFFEB 		bl	uart_transmit
 10745 02e4 0210D6E5 		ldrb	r1, [r6, #2]	@ zero_extendqisi2
 10746 02e8 0030D5E5 		ldrb	r3, [r5]	@ zero_extendqisi2
 10747 02ec 0020D4E5 		ldrb	r2, [r4]	@ zero_extendqisi2
 10748 02f0 033081E0 		add	r3, r1, r3
 10749 02f4 FF3003E2 		and	r3, r3, #255
 10750 02f8 0030C5E5 		strb	r3, [r5]
 10751 02fc C8019FE5 		ldr	r0, .L401+8
 10752 0300 023083E0 		add	r3, r3, r2
 10753 0304 0030C4E5 		strb	r3, [r4]
 10754 0308 FEFFFFEB 		bl	uart_transmit
 10755 030c 0310D6E5 		ldrb	r1, [r6, #3]	@ zero_extendqisi2
 10756 0310 0030D5E5 		ldrb	r3, [r5]	@ zero_extendqisi2
 10757 0314 0020D4E5 		ldrb	r2, [r4]	@ zero_extendqisi2
 10758 0318 033081E0 		add	r3, r1, r3
 10759 031c D8619FE5 		ldr	r6, .L401+56
 10760 0320 FF3003E2 		and	r3, r3, #255
 10761 0324 0030C5E5 		strb	r3, [r5]
 10762 0328 9C019FE5 		ldr	r0, .L401+8
 10763 032c 023083E0 		add	r3, r3, r2
 10764 0330 0030C4E5 		strb	r3, [r4]
 10765 0334 FEFFFFEB 		bl	uart_transmit
 10766 0338 0010D6E5 		ldrb	r1, [r6]	@ zero_extendqisi2
 10767 033c 0030D5E5 		ldrb	r3, [r5]	@ zero_extendqisi2
 10768 0340 0020D4E5 		ldrb	r2, [r4]	@ zero_extendqisi2
 10769 0344 033081E0 		add	r3, r1, r3
 10770 0348 FF3003E2 		and	r3, r3, #255
 10771 034c 0030C5E5 		strb	r3, [r5]
 10772 0350 74019FE5 		ldr	r0, .L401+8
 10773 0354 023083E0 		add	r3, r3, r2
 10774 0358 0030C4E5 		strb	r3, [r4]
 10775 035c FEFFFFEB 		bl	uart_transmit
 10776 0360 0110D6E5 		ldrb	r1, [r6, #1]	@ zero_extendqisi2
 10777 0364 0030D5E5 		ldrb	r3, [r5]	@ zero_extendqisi2
 10778 0368 0020D4E5 		ldrb	r2, [r4]	@ zero_extendqisi2
 10779 036c 033081E0 		add	r3, r1, r3
 10780 0370 FF3003E2 		and	r3, r3, #255
 10781 0374 0030C5E5 		strb	r3, [r5]
 10782 0378 4C019FE5 		ldr	r0, .L401+8
 10783 037c 023083E0 		add	r3, r3, r2
 10784 0380 0030C4E5 		strb	r3, [r4]
 10785 0384 FEFFFFEB 		bl	uart_transmit
 10786 0388 0210D6E5 		ldrb	r1, [r6, #2]	@ zero_extendqisi2
 10787 038c 0030D5E5 		ldrb	r3, [r5]	@ zero_extendqisi2
 10788 0390 0020D4E5 		ldrb	r2, [r4]	@ zero_extendqisi2
 10789 0394 033081E0 		add	r3, r1, r3
 10790 0398 FF3003E2 		and	r3, r3, #255
 10791 039c 0030C5E5 		strb	r3, [r5]
 10792 03a0 24019FE5 		ldr	r0, .L401+8
 10793 03a4 023083E0 		add	r3, r3, r2
 10794 03a8 0030C4E5 		strb	r3, [r4]
 10795 03ac FEFFFFEB 		bl	uart_transmit
 10796 03b0 0310D6E5 		ldrb	r1, [r6, #3]	@ zero_extendqisi2
 10797 03b4 0030D5E5 		ldrb	r3, [r5]	@ zero_extendqisi2
 10798 03b8 0020D4E5 		ldrb	r2, [r4]	@ zero_extendqisi2
 10799 03bc 033081E0 		add	r3, r1, r3
 10800 03c0 FF3003E2 		and	r3, r3, #255
 10801 03c4 0030C5E5 		strb	r3, [r5]
 10802 03c8 FC009FE5 		ldr	r0, .L401+8
 10803 03cc 023083E0 		add	r3, r3, r2
 10804 03d0 0030C4E5 		strb	r3, [r4]
 10805 03d4 FEFFFFEB 		bl	uart_transmit
 10806 03d8 0030D5E5 		ldrb	r3, [r5]	@ zero_extendqisi2
 10807 03dc 0020D4E5 		ldrb	r2, [r4]	@ zero_extendqisi2
 10808 03e0 033087E0 		add	r3, r7, r3
 10809 03e4 FF3003E2 		and	r3, r3, #255
 10810 03e8 0030C5E5 		strb	r3, [r5]
 10811 03ec 0710A0E1 		mov	r1, r7
 10812 03f0 023083E0 		add	r3, r3, r2
 10813 03f4 D0009FE5 		ldr	r0, .L401+8
 10814 03f8 0030C4E5 		strb	r3, [r4]
 10815 03fc FEFFFFEB 		bl	uart_transmit
 10816 0400 F8309FE5 		ldr	r3, .L401+60
 10817 0404 0010D3E5 		ldrb	r1, [r3]	@ zero_extendqisi2
 10818 0408 0030D5E5 		ldrb	r3, [r5]	@ zero_extendqisi2
 10819 040c 0020D4E5 		ldrb	r2, [r4]	@ zero_extendqisi2
 10820 0410 033081E0 		add	r3, r1, r3
 10821 0414 FF3003E2 		and	r3, r3, #255
 10822 0418 0030C5E5 		strb	r3, [r5]
 10823 041c A8009FE5 		ldr	r0, .L401+8
 10824 0420 023083E0 		add	r3, r3, r2
 10825 0424 0030C4E5 		strb	r3, [r4]
 10826 0428 FEFFFFEB 		bl	uart_transmit
 10827 042c 0010D5E5 		ldrb	r1, [r5]	@ zero_extendqisi2
 10828 0430 94009FE5 		ldr	r0, .L401+8
 10829 0434 FEFFFFEB 		bl	uart_transmit
 10830 0438 8C009FE5 		ldr	r0, .L401+8
 10831 043c 0010D4E5 		ldrb	r1, [r4]	@ zero_extendqisi2
 10832 0440 FEFFFFEB 		bl	uart_transmit
 10833 0444 030000EA 		b	.L398
 10834              	.L397:
 10835 0448 B4309FE5 		ldr	r3, .L401+64
 10836 044c 0020D3E5 		ldrb	r2, [r3]	@ zero_extendqisi2
 10837 0450 012082E2 		add	r2, r2, #1
 10838 0454 0020C3E5 		strb	r2, [r3]
 10839              	.L398:
 10840 0458 A8309FE5 		ldr	r3, .L401+68
 10841 045c 0030D3E5 		ldrb	r3, [r3]	@ zero_extendqisi2
 10842 0460 030053E3 		cmp	r3, #3
 10843 0464 FEFFFF0B 		bleq	v_ctl_altitude_loop
 10844              	.L399:
 10845 0468 0030D8E5 		ldrb	r3, [r8]	@ zero_extendqisi2
 10846 046c 023043E2 		sub	r3, r3, #2
 10847 0470 FF3003E2 		and	r3, r3, #255
 10848 0474 020053E3 		cmp	r3, #2
 10849 0478 0300008A 		bhi	.L400
 10850 047c 88309FE5 		ldr	r3, .L401+72
 10851 0480 0030D3E5 		ldrb	r3, [r3]	@ zero_extendqisi2
 10852 0484 020053E3 		cmp	r3, #2
 10853 0488 FEFFFF8B 		blhi	h_ctl_course_loop
 10854              	.L400:
 10855 048c 7C309FE5 		ldr	r3, .L401+76
 10856 0490 000093E5 		ldr	r0, [r3]
 10857 0494 FEFFFFEB 		bl	__aeabi_i2f
 10858 0498 74109FE5 		ldr	r1, .L401+80
 10859 049c FEFFFFEB 		bl	__aeabi_fdiv
 10860 04a0 FA15A0E3 		mov	r1, #1048576000
 10861 04a4 FEFFFFEB 		bl	__aeabi_fmul
 10862 04a8 68409FE5 		ldr	r4, .L401+84
 10863 04ac 0010A0E1 		mov	r1, r0
 10864 04b0 000094E5 		ldr	r0, [r4]	@ float
 10865 04b4 FEFFFFEB 		bl	__aeabi_fadd
 10866 04b8 000084E5 		str	r0, [r4]	@ float
 10867 04bc F041BDE8 		ldmfd	sp!, {r4, r5, r6, r7, r8, lr}
 10868 04c0 1EFF2FE1 		bx	lr
 10869              	.L402:
 10870              		.align	2
 10871              	.L401:
 10872 04c4 00000000 		.word	.LANCHOR20
 10873 04c8 00000000 		.word	nav_circle_radians
 10874 04cc 00000000 		.word	uart1
 10875 04d0 182D4454 		.word	1413754136
 10876 04d4 FB211940 		.word	1075388923
 10877 04d8 00000000 		.word	downlink_nb_bytes
 10878 04dc 00000000 		.word	downlink_nb_msgs
 10879 04e0 00000000 		.word	ck_a
 10880 04e4 00000000 		.word	ck_b
 10881 04e8 00000000 		.word	nav_block
 10882 04ec 00000000 		.word	nav_stage
 10883 04f0 00000000 		.word	estimator_x
 10884 04f4 00000000 		.word	estimator_y
 10885 04f8 00000000 		.word	dist2_to_wp
 10886 04fc 00000000 		.word	dist2_to_home
 10887 0500 00000000 		.word	nav_oval_count
 10888 0504 00000000 		.word	downlink_nb_ovrn
 10889 0508 00000000 		.word	v_ctl_mode
 10890 050c 00000000 		.word	.LANCHOR22
 10891 0510 00000000 		.word	.LANCHOR17
 10892 0514 00006145 		.word	1163984896
 10893 0518 00000000 		.word	energy
 10895              		.global	__aeabi_dcmpgt
 10896              		.global	__aeabi_dcmplt
 10897              		.section	.text.attitude_loop,"ax",%progbits
 10898              		.align	2
 10899              		.global	attitude_loop
 10901              	attitude_loop:
 10902              		@ Function supports interworking.
 10903              		@ args = 0, pretend = 0, frame = 0
 10904              		@ frame_needed = 0, uses_anonymous_args = 0
 10905 0000 F8402DE9 		stmfd	sp!, {r3, r4, r5, r6, r7, lr}
 10906 0004 FEFFFFEB 		bl	ahrs_update_infrared
 10907 0008 70319FE5 		ldr	r3, .L419
 10908 000c 0030D3E5 		ldrb	r3, [r3]	@ zero_extendqisi2
 10909 0010 010053E3 		cmp	r3, #1
 10910 0014 2E00009A 		bls	.L405
 10911 0018 64319FE5 		ldr	r3, .L419+4
 10912 001c 0030D3E5 		ldrb	r3, [r3]	@ zero_extendqisi2
 10913 0020 010053E3 		cmp	r3, #1
 10914 0024 5C319F05 		ldreq	r3, .L419+8
 10915 0028 B020D301 		ldreqh	r2, [r3]
 10916 002c 58319F05 		ldreq	r3, .L419+12
 10917 0030 B020C301 		streqh	r2, [r3]	@ movhi
 10918 0034 0000000A 		beq	.L407
 10919              	.L406:
 10920 0038 FEFFFF8B 		blhi	v_ctl_climb_loop
 10921              	.L407:
 10922 003c 4C319FE5 		ldr	r3, .L419+16
 10923 0040 007093E5 		ldr	r7, [r3]	@ float
 10924 0044 0700A0E1 		mov	r0, r7
 10925 0048 FEFFFFEB 		bl	__aeabi_f2d
 10926 004c 40319FE5 		ldr	r3, .L419+20
 10927 0050 40219FE5 		ldr	r2, .L419+24
 10928 0054 0040A0E1 		mov	r4, r0
 10929 0058 0150A0E1 		mov	r5, r1
 10930 005c FEFFFFEB 		bl	__aeabi_dcmpgt
 10931 0060 000050E3 		cmp	r0, #0
 10932 0064 30619FE5 		ldr	r6, .L419+28
 10933 0068 30319F15 		ldrne	r3, .L419+32
 10934 006c 0800001A 		bne	.L418
 10935 0070 0400A0E1 		mov	r0, r4
 10936 0074 0510A0E1 		mov	r1, r5
 10937 0078 18219FE5 		ldr	r2, .L419+24
 10938 007c 20319FE5 		ldr	r3, .L419+36
 10939 0080 FEFFFFEB 		bl	__aeabi_dcmplt
 10940 0084 000050E3 		cmp	r0, #0
 10941 0088 00708605 		streq	r7, [r6]	@ float
 10942 008c 0100000A 		beq	.L410
 10943 0090 10319FE5 		ldr	r3, .L419+40
 10944              	.L418:
 10945 0094 003086E5 		str	r3, [r6]	@ float
 10946              	.L410:
 10947 0098 0C319FE5 		ldr	r3, .L419+44
 10948 009c 0030D3E5 		ldrb	r3, [r3]	@ zero_extendqisi2
 10949 00a0 000053E3 		cmp	r3, #0
 10950 00a4 0700001A 		bne	.L412
 10951 00a8 00319FE5 		ldr	r3, .L419+48
 10952 00ac B030D3E1 		ldrh	r3, [r3]
 10953 00b0 000053E3 		cmp	r3, #0
 10954 00b4 0600001A 		bne	.L405
 10955 00b8 F4309FE5 		ldr	r3, .L419+52
 10956 00bc 0030D3E5 		ldrb	r3, [r3]	@ zero_extendqisi2
 10957 00c0 000053E3 		cmp	r3, #0
 10958 00c4 0200001A 		bne	.L405
 10959              	.L412:
 10960 00c8 BC309FE5 		ldr	r3, .L419+12
 10961 00cc 0020A0E3 		mov	r2, #0
 10962 00d0 B020C3E1 		strh	r2, [r3]	@ movhi
 10963              	.L405:
 10964 00d4 FEFFFFEB 		bl	h_ctl_attitude_loop
 10965 00d8 FEFFFFEB 		bl	v_ctl_throttle_slew
 10966 00dc D4309FE5 		ldr	r3, .L419+56
 10967 00e0 004093E5 		ldr	r4, [r3]
 10968 00e4 D0309FE5 		ldr	r3, .L419+60
 10969 00e8 B030D3E1 		ldrh	r3, [r3]
 10970 00ec B030C4E1 		strh	r3, [r4]	@ movhi
 10971 00f0 C8309FE5 		ldr	r3, .L419+64
 10972 00f4 B030D3E1 		ldrh	r3, [r3]
 10973 00f8 002063E2 		rsb	r2, r3, #0
 10974 00fc B620C4E1 		strh	r2, [r4, #6]	@ movhi
 10975 0100 BC209FE5 		ldr	r2, .L419+68
 10976 0104 B020D2E1 		ldrh	r2, [r2]
 10977 0108 B220C4E1 		strh	r2, [r4, #2]	@ movhi
 10978 010c B4209FE5 		ldr	r2, .L419+72
 10979 0110 0020D2E5 		ldrb	r2, [r2]	@ zero_extendqisi2
 10980 0114 000052E3 		cmp	r2, #0
 10981 0118 AC509FE5 		ldr	r5, .L419+76
 10982 011c 00309505 		ldreq	r3, [r5]
 10983 0120 B430D301 		ldreqh	r3, [r3, #4]
 10984 0124 B430C401 		streqh	r3, [r4, #4]	@ movhi
 10985 0128 0F00000A 		beq	.L415
 10986              	.L414:
 10987 012c 0338A0E1 		mov	r3, r3, asl #16
 10988 0130 4308A0E1 		mov	r0, r3, asr #16
 10989 0134 000060E2 		rsb	r0, r0, #0
 10990 0138 FEFFFFEB 		bl	__aeabi_i2f
 10991 013c 8C309FE5 		ldr	r3, .L419+80
 10992 0140 001093E5 		ldr	r1, [r3]	@ float
 10993 0144 FEFFFFEB 		bl	__aeabi_fmul
 10994 0148 003095E5 		ldr	r3, [r5]
 10995 014c 0060A0E1 		mov	r6, r0
 10996 0150 F400D3E1 		ldrsh	r0, [r3, #4]
 10997 0154 FEFFFFEB 		bl	__aeabi_i2f
 10998 0158 0010A0E1 		mov	r1, r0
 10999 015c 0600A0E1 		mov	r0, r6
 11000 0160 FEFFFFEB 		bl	__aeabi_fadd
 11001 0164 FEFFFFEB 		bl	__aeabi_f2iz
 11002 0168 B400C4E1 		strh	r0, [r4, #4]	@ movhi
 11003              	.L415:
 11004 016c 60309FE5 		ldr	r3, .L419+84
 11005 0170 0120A0E3 		mov	r2, #1
 11006 0174 0020C3E5 		strb	r2, [r3]
 11007 0178 F840BDE8 		ldmfd	sp!, {r3, r4, r5, r6, r7, lr}
 11008 017c 1EFF2FE1 		bx	lr
 11009              	.L420:
 11010              		.align	2
 11011              	.L419:
 11012 0180 00000000 		.word	.LANCHOR20
 11013 0184 00000000 		.word	v_ctl_mode
 11014 0188 00000000 		.word	nav_throttle_setpoint
 11015 018c 00000000 		.word	v_ctl_throttle_setpoint
 11016 0190 00000000 		.word	nav_pitch
 11017 0194 FB21E93F 		.word	1072243195
 11018 0198 182D4454 		.word	1413754136
 11019 019c 00000000 		.word	h_ctl_pitch_setpoint
 11020 01a0 DB0F493F 		.word	1061752795
 11021 01a4 FB21E9BF 		.word	-1075240453
 11022 01a8 DB0F49BF 		.word	-1085730853
 11023 01ac 00000000 		.word	.LANCHOR18
 11024 01b0 00000000 		.word	estimator_flight_time
 11025 01b4 00000000 		.word	.LANCHOR21
 11026 01b8 00000000 		.word	ap_state
 11027 01bc 00000000 		.word	v_ctl_throttle_slewed
 11028 01c0 00000000 		.word	h_ctl_aileron_setpoint
 11029 01c4 00000000 		.word	h_ctl_elevator_setpoint
 11030 01c8 00000000 		.word	combi_switch_status
 11031 01cc 00000000 		.word	fbw_state
 11032 01d0 00000000 		.word	combi_switch_value
 11033 01d4 00000000 		.word	inter_mcu_received_ap
 11035              		.section	.text.sensors_task,"ax",%progbits
 11036              		.align	2
 11037              		.global	sensors_task
 11039              	sensors_task:
 11040              		@ Function supports interworking.
 11041              		@ args = 0, pretend = 0, frame = 0
 11042              		@ frame_needed = 0, uses_anonymous_args = 0
 11043              		@ link register save eliminated.
 11044 0000 1EFF2FE1 		bx	lr
 11046              		.global	__aeabi_fcmpgt
 11047              		.section	.text.monitor_task,"ax",%progbits
 11048              		.align	2
 11049              		.global	monitor_task
 11051              	monitor_task:
 11052              		@ Function supports interworking.
 11053              		@ args = 0, pretend = 0, frame = 8
 11054              		@ frame_needed = 0, uses_anonymous_args = 0
 11055 0000 F7402DE9 		stmfd	sp!, {r0, r1, r2, r4, r5, r6, r7, lr}
 11056 0004 FC419FE5 		ldr	r4, .L440
 11057 0008 B030D4E1 		ldrh	r3, [r4]
 11058 000c 000053E3 		cmp	r3, #0
 11059 0010 01308312 		addne	r3, r3, #1
 11060 0014 B030C411 		strneh	r3, [r4]	@ movhi
 11061 0018 EC319FE5 		ldr	r3, .L440+4
 11062 001c B020D3E1 		ldrh	r2, [r3]
 11063 0020 012082E2 		add	r2, r2, #1
 11064 0024 B020C3E1 		strh	r2, [r3]	@ movhi
 11065 0028 E0319FE5 		ldr	r3, .L440+8
 11066 002c B000D3E1 		ldrh	r0, [r3]
 11067 0030 FEFFFFEB 		bl	__aeabi_i2d
 11068 0034 0020A0E3 		mov	r2, #0
 11069 0038 D4319FE5 		ldr	r3, .L440+12
 11070 003c FEFFFFEB 		bl	__aeabi_dcmplt
 11071 0040 D0319FE5 		ldr	r3, .L440+16
 11072 0044 000050E3 		cmp	r0, #0
 11073 0048 0020D315 		ldrneb	r2, [r3]	@ zero_extendqisi2
 11074 004c 01208212 		addne	r2, r2, #1
 11075 0050 0020C315 		strneb	r2, [r3]
 11076 0054 0000C305 		streqb	r0, [r3]
 11077 0058 BC219FE5 		ldr	r2, .L440+20
 11078 005c 0070D3E5 		ldrb	r7, [r3]	@ zero_extendqisi2
 11079 0060 0030D2E5 		ldrb	r3, [r2]	@ zero_extendqisi2
 11080 0064 040057E3 		cmp	r7, #4
 11081 0068 0370A091 		movls	r7, r3
 11082 006c 01708383 		orrhi	r7, r3, #1
 11083 0070 A8319FE5 		ldr	r3, .L440+24
 11084 0074 0000D3E5 		ldrb	r0, [r3]	@ zero_extendqisi2
 11085 0078 000050E3 		cmp	r0, #0
 11086 007c 0260A0E1 		mov	r6, r2
 11087 0080 0350A0E1 		mov	r5, r3
 11088 0084 0500000A 		beq	.L427
 11089 0088 94319FE5 		ldr	r3, .L440+28
 11090 008c 94119FE5 		ldr	r1, .L440+32
 11091 0090 000093E5 		ldr	r0, [r3]	@ float
 11092 0094 FEFFFFEB 		bl	__aeabi_fcmpgt
 11093 0098 000090E2 		adds	r0, r0, #0
 11094 009c 0100A013 		movne	r0, #1
 11095              	.L427:
 11096 00a0 B030D4E1 		ldrh	r3, [r4]
 11097 00a4 000087E1 		orr	r0, r7, r0
 11098 00a8 000053E3 		cmp	r3, #0
 11099 00ac 0000C6E5 		strb	r0, [r6]
 11100 00b0 5100001A 		bne	.L422
 11101 00b4 70319FE5 		ldr	r3, .L440+36
 11102 00b8 70119FE5 		ldr	r1, .L440+40
 11103 00bc 000093E5 		ldr	r0, [r3]	@ float
 11104 00c0 FEFFFFEB 		bl	__aeabi_fcmpgt
 11105 00c4 000050E3 		cmp	r0, #0
 11106 00c8 4B00000A 		beq	.L422
 11107 00cc 34319FE5 		ldr	r3, .L440
 11108 00d0 0120A0E3 		mov	r2, #1
 11109 00d4 B020C3E1 		strh	r2, [r3]	@ movhi
 11110 00d8 54319FE5 		ldr	r3, .L440+44
 11111 00dc 003093E5 		ldr	r3, [r3]
 11112 00e0 50019FE5 		ldr	r0, .L440+48
 11113 00e4 0810A0E3 		mov	r1, #8
 11114 00e8 0020C5E5 		strb	r2, [r5]
 11115 00ec B630CDE1 		strh	r3, [sp, #6]	@ movhi
 11116 00f0 FEFFFFEB 		bl	uart_check_free_space
 11117 00f4 000050E3 		cmp	r0, #0
 11118 00f8 3B00000A 		beq	.L431
 11119 00fc 38319FE5 		ldr	r3, .L440+52
 11120 0100 B020D3E1 		ldrh	r2, [r3]
 11121 0104 082082E2 		add	r2, r2, #8
 11122 0108 B020C3E1 		strh	r2, [r3]	@ movhi
 11123 010c 2C319FE5 		ldr	r3, .L440+56
 11124 0110 B020D3E1 		ldrh	r2, [r3]
 11125 0114 1C019FE5 		ldr	r0, .L440+48
 11126 0118 012082E2 		add	r2, r2, #1
 11127 011c 9910A0E3 		mov	r1, #153
 11128 0120 1C519FE5 		ldr	r5, .L440+60
 11129 0124 B020C3E1 		strh	r2, [r3]	@ movhi
 11130 0128 FEFFFFEB 		bl	uart_transmit
 11131 012c 04019FE5 		ldr	r0, .L440+48
 11132 0130 0810A0E3 		mov	r1, #8
 11133 0134 0C419FE5 		ldr	r4, .L440+64
 11134 0138 FEFFFFEB 		bl	uart_transmit
 11135 013c 0A30A0E3 		mov	r3, #10
 11136 0140 0030C5E5 		strb	r3, [r5]
 11137 0144 EC009FE5 		ldr	r0, .L440+48
 11138 0148 1230A0E3 		mov	r3, #18
 11139 014c 0210A0E3 		mov	r1, #2
 11140 0150 0030C4E5 		strb	r3, [r4]
 11141 0154 FEFFFFEB 		bl	uart_transmit
 11142 0158 0030D5E5 		ldrb	r3, [r5]	@ zero_extendqisi2
 11143 015c 0020D4E5 		ldrb	r2, [r4]	@ zero_extendqisi2
 11144 0160 043083E2 		add	r3, r3, #4
 11145 0164 FF3003E2 		and	r3, r3, #255
 11146 0168 0030C5E5 		strb	r3, [r5]
 11147 016c C4009FE5 		ldr	r0, .L440+48
 11148 0170 023083E0 		add	r3, r3, r2
 11149 0174 0410A0E3 		mov	r1, #4
 11150 0178 0030C4E5 		strb	r3, [r4]
 11151 017c FEFFFFEB 		bl	uart_transmit
 11152 0180 0610DDE5 		ldrb	r1, [sp, #6]	@ zero_extendqisi2
 11153 0184 0030D5E5 		ldrb	r3, [r5]	@ zero_extendqisi2
 11154 0188 0020D4E5 		ldrb	r2, [r4]	@ zero_extendqisi2
 11155 018c 033081E0 		add	r3, r1, r3
 11156 0190 FF3003E2 		and	r3, r3, #255
 11157 0194 0030C5E5 		strb	r3, [r5]
 11158 0198 98009FE5 		ldr	r0, .L440+48
 11159 019c 023083E0 		add	r3, r3, r2
 11160 01a0 0030C4E5 		strb	r3, [r4]
 11161 01a4 FEFFFFEB 		bl	uart_transmit
 11162 01a8 0710DDE5 		ldrb	r1, [sp, #7]	@ zero_extendqisi2
 11163 01ac 0030D5E5 		ldrb	r3, [r5]	@ zero_extendqisi2
 11164 01b0 0020D4E5 		ldrb	r2, [r4]	@ zero_extendqisi2
 11165 01b4 033081E0 		add	r3, r1, r3
 11166 01b8 FF3003E2 		and	r3, r3, #255
 11167 01bc 0030C5E5 		strb	r3, [r5]
 11168 01c0 70009FE5 		ldr	r0, .L440+48
 11169 01c4 023083E0 		add	r3, r3, r2
 11170 01c8 0030C4E5 		strb	r3, [r4]
 11171 01cc FEFFFFEB 		bl	uart_transmit
 11172 01d0 0010D5E5 		ldrb	r1, [r5]	@ zero_extendqisi2
 11173 01d4 5C009FE5 		ldr	r0, .L440+48
 11174 01d8 FEFFFFEB 		bl	uart_transmit
 11175 01dc 54009FE5 		ldr	r0, .L440+48
 11176 01e0 0010D4E5 		ldrb	r1, [r4]	@ zero_extendqisi2
 11177 01e4 FEFFFFEB 		bl	uart_transmit
 11178 01e8 030000EA 		b	.L422
 11179              	.L431:
 11180 01ec 58309FE5 		ldr	r3, .L440+68
 11181 01f0 0020D3E5 		ldrb	r2, [r3]	@ zero_extendqisi2
 11182 01f4 012082E2 		add	r2, r2, #1
 11183 01f8 0020C3E5 		strb	r2, [r3]
 11184              	.L422:
 11185 01fc 0CD08DE2 		add	sp, sp, #12
 11186              		@ sp needed
 11187 0200 F040BDE8 		ldmfd	sp!, {r4, r5, r6, r7, lr}
 11188 0204 1EFF2FE1 		bx	lr
 11189              	.L441:
 11190              		.align	2
 11191              	.L440:
 11192 0208 00000000 		.word	estimator_flight_time
 11193 020c 00000000 		.word	datalink_time
 11194 0210 00000000 		.word	vsupply
 11195 0214 00806640 		.word	1080459264
 11196 0218 00000000 		.word	.LANCHOR56
 11197 021c 00000000 		.word	.LANCHOR18
 11198 0220 00000000 		.word	.LANCHOR21
 11199 0224 00000000 		.word	dist2_to_home
 11200 0228 C87E9A4A 		.word	1251638984
 11201 022c 00000000 		.word	estimator_hspeed_mod
 11202 0230 0000A040 		.word	1084227584
 11203 0234 00000000 		.word	sys_time
 11204 0238 00000000 		.word	uart1
 11205 023c 00000000 		.word	downlink_nb_bytes
 11206 0240 00000000 		.word	downlink_nb_msgs
 11207 0244 00000000 		.word	ck_a
 11208 0248 00000000 		.word	ck_b
 11209 024c 00000000 		.word	downlink_nb_ovrn
 11211              		.section	.text.handle_periodic_tasks_ap,"ax",%progbits
 11212              		.align	2
 11213              		.global	handle_periodic_tasks_ap
 11215              	handle_periodic_tasks_ap:
 11216              		@ Function supports interworking.
 11217              		@ args = 0, pretend = 0, frame = 0
 11218              		@ frame_needed = 0, uses_anonymous_args = 0
 11219 0000 10402DE9 		stmfd	sp!, {r4, lr}
 11220 0004 FC309FE5 		ldr	r3, .L466
 11221 0008 FC409FE5 		ldr	r4, .L466+4
 11222 000c 0030D3E5 		ldrb	r3, [r3]	@ zero_extendqisi2
 11223 0010 1420A0E3 		mov	r2, #20
 11224 0014 924323E0 		mla	r3, r2, r3, r4
 11225 0018 1420D3E5 		ldrb	r2, [r3, #20]	@ zero_extendqisi2
 11226 001c 000052E3 		cmp	r2, #0
 11227 0020 0020A013 		movne	r2, #0
 11228 0024 103083E2 		add	r3, r3, #16
 11229 0028 0420C315 		strneb	r2, [r3, #4]
 11230 002c DC309FE5 		ldr	r3, .L466+8
 11231 0030 0030D3E5 		ldrb	r3, [r3]	@ zero_extendqisi2
 11232 0034 1420A0E3 		mov	r2, #20
 11233 0038 924323E0 		mla	r3, r2, r3, r4
 11234 003c 1420D3E5 		ldrb	r2, [r3, #20]	@ zero_extendqisi2
 11235 0040 000052E3 		cmp	r2, #0
 11236 0044 103083E2 		add	r3, r3, #16
 11237 0048 0020A013 		movne	r2, #0
 11238 004c 0420C315 		strneb	r2, [r3, #4]
 11239 0050 FEFFFF1B 		blne	navigation_task
 11240              	.L444:
 11241 0054 B8309FE5 		ldr	r3, .L466+12
 11242 0058 0030D3E5 		ldrb	r3, [r3]	@ zero_extendqisi2
 11243 005c 1420A0E3 		mov	r2, #20
 11244 0060 924323E0 		mla	r3, r2, r3, r4
 11245 0064 1420D3E5 		ldrb	r2, [r3, #20]	@ zero_extendqisi2
 11246 0068 000052E3 		cmp	r2, #0
 11247 006c 103083E2 		add	r3, r3, #16
 11248 0070 0020A013 		movne	r2, #0
 11249 0074 0420C315 		strneb	r2, [r3, #4]
 11250 0078 FEFFFF1B 		blne	attitude_loop
 11251              	.L445:
 11252 007c 94309FE5 		ldr	r3, .L466+16
 11253 0080 0030D3E5 		ldrb	r3, [r3]	@ zero_extendqisi2
 11254 0084 1420A0E3 		mov	r2, #20
 11255 0088 924323E0 		mla	r3, r2, r3, r4
 11256 008c 1420D3E5 		ldrb	r2, [r3, #20]	@ zero_extendqisi2
 11257 0090 000052E3 		cmp	r2, #0
 11258 0094 103083E2 		add	r3, r3, #16
 11259 0098 0020A013 		movne	r2, #0
 11260 009c 0420C315 		strneb	r2, [r3, #4]
 11261 00a0 74309F15 		ldrne	r3, .L466+20
 11262 00a4 0020C315 		strneb	r2, [r3]
 11263 00a8 FEFFFF1B 		blne	infrared_adc_update
 11264              	.L446:
 11265 00ac 6C309FE5 		ldr	r3, .L466+24
 11266 00b0 0030D3E5 		ldrb	r3, [r3]	@ zero_extendqisi2
 11267 00b4 1420A0E3 		mov	r2, #20
 11268 00b8 924323E0 		mla	r3, r2, r3, r4
 11269 00bc 1420D3E5 		ldrb	r2, [r3, #20]	@ zero_extendqisi2
 11270 00c0 000052E3 		cmp	r2, #0
 11271 00c4 103083E2 		add	r3, r3, #16
 11272 00c8 0020A013 		movne	r2, #0
 11273 00cc 0420C315 		strneb	r2, [r3, #4]
 11274 00d0 FEFFFF1B 		blne	monitor_task
 11275              	.L449:
 11276 00d4 48309FE5 		ldr	r3, .L466+28
 11277 00d8 0030D3E5 		ldrb	r3, [r3]	@ zero_extendqisi2
 11278 00dc 1420A0E3 		mov	r2, #20
 11279 00e0 924324E0 		mla	r4, r2, r3, r4
 11280 00e4 104084E2 		add	r4, r4, #16
 11281 00e8 0430D4E5 		ldrb	r3, [r4, #4]	@ zero_extendqisi2
 11282 00ec 000053E3 		cmp	r3, #0
 11283 00f0 0030A013 		movne	r3, #0
 11284 00f4 0430C415 		strneb	r3, [r4, #4]
 11285 00f8 1040BD18 		ldmnefd	sp!, {r4, lr}
 11286 00fc FEFFFF1A 		bne	reporting_task
 11287              	.L442:
 11288 0100 1040BDE8 		ldmfd	sp!, {r4, lr}
 11289 0104 1EFF2FE1 		bx	lr
 11290              	.L467:
 11291              		.align	2
 11292              	.L466:
 11293 0108 00000000 		.word	sensors_tid
 11294 010c 00000000 		.word	sys_time
 11295 0110 00000000 		.word	navigation_tid
 11296 0114 00000000 		.word	attitude_tid
 11297 0118 00000000 		.word	modules_tid
 11298 011c 00000000 		.word	.LANCHOR57
 11299 0120 00000000 		.word	monitor_tid
 11300 0124 00000000 		.word	telemetry_tid
 11302              		.global	__aeabi_dadd
 11303              		.global	__aeabi_d2f
 11304              		.section	.text.event_task_ap,"ax",%progbits
 11305              		.align	2
 11306              		.global	event_task_ap
 11308              	event_task_ap:
 11309              		@ Function supports interworking.
 11310              		@ args = 0, pretend = 0, frame = 0
 11311              		@ frame_needed = 0, uses_anonymous_args = 0
 11312 0000 3C369FE5 		ldr	r3, .L545
 11313 0004 B018D3E1 		ldrh	r1, [r3, #128]
 11314 0008 B228D3E1 		ldrh	r2, [r3, #130]
 11315 000c 020051E1 		cmp	r1, r2
 11316 0010 F0472DE9 		stmfd	sp!, {r4, r5, r6, r7, r8, r9, r10, lr}
 11317 0014 0350A0E1 		mov	r5, r3
 11318 0018 28469FE5 		ldr	r4, .L545+4
 11319 001c 0C00001A 		bne	.L472
 11320              	.L473:
 11321 0020 0030D4E5 		ldrb	r3, [r4]	@ zero_extendqisi2
 11322 0024 000053E3 		cmp	r3, #0
 11323 0028 18569FE5 		ldr	r5, .L545+4
 11324 002c 2600000A 		beq	.L471
 11325 0030 0D0000EA 		b	.L541
 11326              	.L542:
 11327 0034 0010D4E5 		ldrb	r1, [r4]	@ zero_extendqisi2
 11328 0038 000051E3 		cmp	r1, #0
 11329 003c F7FFFF1A 		bne	.L473
 11330 0040 0300D2E7 		ldrb	r0, [r2, r3]	@ zero_extendqisi2
 11331 0044 013083E2 		add	r3, r3, #1
 11332 0048 7F3003E2 		and	r3, r3, #127
 11333 004c B238C2E1 		strh	r3, [r2, #130]	@ movhi
 11334 0050 FEFFFFEB 		bl	gps_ubx_parse
 11335              	.L472:
 11336 0054 B238D5E1 		ldrh	r3, [r5, #130]
 11337 0058 B018D5E1 		ldrh	r1, [r5, #128]
 11338 005c 030051E1 		cmp	r1, r3
 11339 0060 DC259FE5 		ldr	r2, .L545
 11340 0064 F2FFFF1A 		bne	.L542
 11341 0068 ECFFFFEA 		b	.L473
 11342              	.L541:
 11343 006c FEFFFFEB 		bl	gps_ubx_read_message
 11344 0070 0831D5E5 		ldrb	r3, [r5, #264]	@ zero_extendqisi2
 11345 0074 010053E3 		cmp	r3, #1
 11346 0078 1100001A 		bne	.L475
 11347 007c 0731D5E5 		ldrb	r3, [r5, #263]	@ zero_extendqisi2
 11348 0080 120053E3 		cmp	r3, #18
 11349 0084 0400000A 		beq	.L476
 11350 0088 060053E3 		cmp	r3, #6
 11351 008c 0C00001A 		bne	.L475
 11352 0090 1531D5E5 		ldrb	r3, [r5, #277]	@ zero_extendqisi2
 11353 0094 000053E3 		cmp	r3, #0
 11354 0098 0900001A 		bne	.L475
 11355              	.L476:
 11356 009c A8359FE5 		ldr	r3, .L545+8
 11357 00a0 5B20D3E5 		ldrb	r2, [r3, #91]	@ zero_extendqisi2
 11358 00a4 030052E3 		cmp	r2, #3
 11359 00a8 A0259F05 		ldreq	r2, .L545+12
 11360 00ac 04109205 		ldreq	r1, [r2, #4]
 11361 00b0 00209205 		ldreq	r2, [r2]
 11362 00b4 E8108305 		streq	r1, [r3, #232]
 11363 00b8 EC208305 		streq	r2, [r3, #236]
 11364 00bc FEFFFFEB 		bl	estimator_update_state_gps
 11365 00c0 FEFFFFEB 		bl	ahrs_update_gps
 11366              	.L475:
 11367 00c4 0030A0E3 		mov	r3, #0
 11368 00c8 0030C4E5 		strb	r3, [r4]
 11369              	.L471:
 11370 00cc 80859FE5 		ldr	r8, .L545+16
 11371 00d0 B098D8E1 		ldrh	r9, [r8, #128]
 11372 00d4 B278D8E1 		ldrh	r7, [r8, #130]
 11373 00d8 070059E1 		cmp	r9, r7
 11374 00dc 6100000A 		beq	.L479
 11375 00e0 70359FE5 		ldr	r3, .L545+20
 11376 00e4 0421D3E5 		ldrb	r2, [r3, #260]	@ zero_extendqisi2
 11377 00e8 0261D3E5 		ldrb	r6, [r3, #258]	@ zero_extendqisi2
 11378 00ec 0741D3E5 		ldrb	r4, [r3, #263]	@ zero_extendqisi2
 11379 00f0 0601D3E5 		ldrb	r0, [r3, #262]	@ zero_extendqisi2
 11380 00f4 0511D3E5 		ldrb	r1, [r3, #261]	@ zero_extendqisi2
 11381 00f8 0351D3E5 		ldrb	r5, [r3, #259]	@ zero_extendqisi2
 11382              	.L480:
 11383 00fc 01A1D3E5 		ldrb	r10, [r3, #257]	@ zero_extendqisi2
 11384 0100 00005AE3 		cmp	r10, #0
 11385 0104 4CC59FE5 		ldr	ip, .L545+20
 11386 0108 3F00001A 		bne	.L543
 11387 010c 07C0D8E7 		ldrb	ip, [r8, r7]	@ zero_extendqisi2
 11388 0110 017087E2 		add	r7, r7, #1
 11389 0114 7F7007E2 		and	r7, r7, #127
 11390 0118 040052E3 		cmp	r2, #4
 11391 011c 02F19F97 		ldrls	pc, [pc, r2, asl #2]
 11392 0120 280000EA 		b	.L481
 11393              	.L483:
 11394 0124 38010000 		.word	.L482
 11395 0128 44010000 		.word	.L484
 11396 012c 7C010000 		.word	.L485
 11397 0130 A8010000 		.word	.L486
 11398 0134 B8010000 		.word	.L487
 11399              	.L482:
 11400 0138 99005CE3 		cmp	ip, #153
 11401 013c 0120A003 		moveq	r2, #1
 11402 0140 230000EA 		b	.L488
 11403              	.L484:
 11404 0144 0121D3E5 		ldrb	r2, [r3, #257]	@ zero_extendqisi2
 11405 0148 FF2012E2 		ands	r2, r2, #255
 11406 014c 01608612 		addne	r6, r6, #1
 11407 0150 FF600612 		andne	r6, r6, #255
 11408 0154 1B00001A 		bne	.L481
 11409 0158 F8149FE5 		ldr	r1, .L545+20
 11410 015c 04004CE2 		sub	r0, ip, #4
 11411 0160 FF0000E2 		and	r0, r0, #255
 11412 0164 0001C1E5 		strb	r0, [r1, #256]
 11413 0168 0C40A0E1 		mov	r4, ip
 11414 016c 0210A0E1 		mov	r1, r2
 11415 0170 0C00A0E1 		mov	r0, ip
 11416 0174 0220A0E3 		mov	r2, #2
 11417 0178 150000EA 		b	.L488
 11418              	.L485:
 11419 017c 01C0C3E7 		strb	ip, [r3, r1]
 11420 0180 00008CE0 		add	r0, ip, r0
 11421 0184 011081E2 		add	r1, r1, #1
 11422 0188 00C1D3E5 		ldrb	ip, [r3, #256]	@ zero_extendqisi2
 11423 018c FF0000E2 		and	r0, r0, #255
 11424 0190 FF1001E2 		and	r1, r1, #255
 11425 0194 044080E0 		add	r4, r0, r4
 11426 0198 0C0051E1 		cmp	r1, ip
 11427 019c FF4004E2 		and	r4, r4, #255
 11428 01a0 0320A003 		moveq	r2, #3
 11429 01a4 0A0000EA 		b	.L488
 11430              	.L486:
 11431 01a8 00005CE1 		cmp	ip, r0
 11432 01ac 0420A003 		moveq	r2, #4
 11433 01b0 0400001A 		bne	.L481
 11434 01b4 060000EA 		b	.L488
 11435              	.L487:
 11436 01b8 04005CE1 		cmp	ip, r4
 11437 01bc 0120A003 		moveq	r2, #1
 11438 01c0 0121C305 		streqb	r2, [r3, #257]
 11439 01c4 0100000A 		beq	.L491
 11440              	.L481:
 11441 01c8 015085E2 		add	r5, r5, #1
 11442 01cc FF5005E2 		and	r5, r5, #255
 11443              	.L491:
 11444 01d0 0020A0E3 		mov	r2, #0
 11445              	.L488:
 11446 01d4 070059E1 		cmp	r9, r7
 11447 01d8 C7FFFF1A 		bne	.L480
 11448 01dc B298C8E1 		strh	r9, [r8, #130]	@ movhi
 11449 01e0 0421C3E5 		strb	r2, [r3, #260]
 11450 01e4 0261C3E5 		strb	r6, [r3, #258]
 11451 01e8 0741C3E5 		strb	r4, [r3, #263]
 11452 01ec 0601C3E5 		strb	r0, [r3, #262]
 11453 01f0 0511C3E5 		strb	r1, [r3, #261]
 11454 01f4 0351C3E5 		strb	r5, [r3, #259]
 11455              	.L496:
 11456 01f8 0121D3E5 		ldrb	r2, [r3, #257]	@ zero_extendqisi2
 11457 01fc 000052E3 		cmp	r2, #0
 11458 0200 1800000A 		beq	.L479
 11459 0204 0020A0E3 		mov	r2, #0
 11460 0208 070000EA 		b	.L497
 11461              	.L543:
 11462 020c B278C8E1 		strh	r7, [r8, #130]	@ movhi
 11463 0210 0421CCE5 		strb	r2, [ip, #260]
 11464 0214 0261CCE5 		strb	r6, [ip, #258]
 11465 0218 0741CCE5 		strb	r4, [ip, #263]
 11466 021c 0601CCE5 		strb	r0, [ip, #262]
 11467 0220 0511CCE5 		strb	r1, [ip, #261]
 11468 0224 0351CCE5 		strb	r5, [ip, #259]
 11469 0228 F2FFFFEA 		b	.L496
 11470              	.L497:
 11471 022c 0001D3E5 		ldrb	r0, [r3, #256]	@ zero_extendqisi2
 11472 0230 000052E1 		cmp	r2, r0
 11473 0234 1C149FE5 		ldr	r1, .L545+20
 11474 0238 0500002A 		bcs	.L544
 11475 023c 0200D1E7 		ldrb	r0, [r1, r2]	@ zero_extendqisi2
 11476 0240 14149FE5 		ldr	r1, .L545+24
 11477 0244 0200C1E7 		strb	r0, [r1, r2]
 11478 0248 012082E2 		add	r2, r2, #1
 11479 024c FF2002E2 		and	r2, r2, #255
 11480 0250 F5FFFFEA 		b	.L497
 11481              	.L544:
 11482 0254 04349FE5 		ldr	r3, .L545+28
 11483 0258 0120A0E3 		mov	r2, #1
 11484 025c 0020C3E5 		strb	r2, [r3]
 11485 0260 0030A0E3 		mov	r3, #0
 11486 0264 0131C1E5 		strb	r3, [r1, #257]
 11487              	.L479:
 11488 0268 F0439FE5 		ldr	r4, .L545+28
 11489 026c 0030D4E5 		ldrb	r3, [r4]	@ zero_extendqisi2
 11490 0270 000053E3 		cmp	r3, #0
 11491 0274 0200000A 		beq	.L499
 11492 0278 FEFFFFEB 		bl	dl_parse_msg
 11493 027c 0030A0E3 		mov	r3, #0
 11494 0280 0030C4E5 		strb	r3, [r4]
 11495              	.L499:
 11496 0284 D8339FE5 		ldr	r3, .L545+32
 11497 0288 0020D3E5 		ldrb	r2, [r3]	@ zero_extendqisi2
 11498 028c 000052E3 		cmp	r2, #0
 11499 0290 E900000A 		beq	.L468
 11500 0294 CC739FE5 		ldr	r7, .L545+36
 11501 0298 001097E5 		ldr	r1, [r7]
 11502 029c 0020A0E3 		mov	r2, #0
 11503 02a0 0020C3E5 		strb	r2, [r3]
 11504 02a4 0B20D1E5 		ldrb	r2, [r1, #11]	@ zero_extendqisi2
 11505 02a8 A200A0E1 		mov	r0, r2, lsr #1
 11506 02ac 010010E2 		ands	r0, r0, #1
 11507 02b0 B4639FE5 		ldr	r6, .L545+40
 11508 02b4 0300000A 		beq	.L502
 11509 02b8 0000D6E5 		ldrb	r0, [r6]	@ zero_extendqisi2
 11510 02bc 010050E3 		cmp	r0, #1
 11511 02c0 0000A083 		movhi	r0, #0
 11512 02c4 0100A093 		movls	r0, #1
 11513              	.L502:
 11514 02c8 0030D6E5 		ldrb	r3, [r6]	@ zero_extendqisi2
 11515 02cc 033043E2 		sub	r3, r3, #3
 11516 02d0 FF3003E2 		and	r3, r3, #255
 11517 02d4 010053E3 		cmp	r3, #1
 11518 02d8 0030A093 		movls	r3, #0
 11519 02dc 0E00009A 		bls	.L503
 11520 02e0 88339FE5 		ldr	r3, .L545+44
 11521 02e4 0030D3E5 		ldrb	r3, [r3]	@ zero_extendqisi2
 11522 02e8 000053E3 		cmp	r3, #0
 11523 02ec 0A00000A 		beq	.L503
 11524 02f0 7C339FE5 		ldr	r3, .L545+48
 11525 02f4 0030D3E5 		ldrb	r3, [r3]	@ zero_extendqisi2
 11526 02f8 000053E3 		cmp	r3, #0
 11527 02fc 68339F15 		ldrne	r3, .L545+40
 11528 0300 03C0A013 		movne	ip, #3
 11529 0304 00C0C315 		strneb	ip, [r3]
 11530 0308 0130A013 		movne	r3, #1
 11531 030c 000050E3 		cmp	r0, #0
 11532 0310 0230A013 		movne	r3, #2
 11533 0314 0030C615 		strneb	r3, [r6]
 11534 0318 0130A013 		movne	r3, #1
 11535              	.L503:
 11536 031c 100012E3 		tst	r2, #16
 11537 0320 1200000A 		beq	.L505
 11538 0324 0000D6E5 		ldrb	r0, [r6]	@ zero_extendqisi2
 11539 0328 03C040E2 		sub	ip, r0, #3
 11540 032c FFC00CE2 		and	ip, ip, #255
 11541 0330 01005CE3 		cmp	ip, #1
 11542 0334 0010A093 		movls	r1, #0
 11543 0338 0B00009A 		bls	.L506
 11544 033c F810D1E1 		ldrsh	r1, [r1, #8]
 11545 0340 4B0D51E3 		cmp	r1, #4800
 11546 0344 0210A0C3 		movgt	r1, #2
 11547 0348 020000CA 		bgt	.L507
 11548 034c 4B0D71E3 		cmn	r1, #4800
 11549 0350 0010A0D3 		movle	r1, #0
 11550 0354 0110A0C3 		movgt	r1, #1
 11551              	.L507:
 11552 0358 010050E1 		cmp	r0, r1
 11553 035c 0010C615 		strneb	r1, [r6]
 11554 0360 0010A003 		moveq	r1, #0
 11555 0364 0110A013 		movne	r1, #1
 11556 0368 FF1001E2 		and	r1, r1, #255
 11557              	.L506:
 11558 036c 033081E1 		orr	r3, r1, r3
 11559              	.L505:
 11560 0370 00839FE5 		ldr	r8, .L545+52
 11561 0374 0010D8E5 		ldrb	r1, [r8]	@ zero_extendqisi2
 11562 0378 020051E1 		cmp	r1, r2
 11563 037c 0020A003 		moveq	r2, #0
 11564 0380 0300000A 		beq	.L509
 11565 0384 021021E0 		eor	r1, r1, r2
 11566 0388 0020C8E5 		strb	r2, [r8]
 11567 038c 0F2011E2 		ands	r2, r1, #15
 11568 0390 0120A013 		movne	r2, #1
 11569              	.L509:
 11570 0394 032092E1 		orrs	r2, r2, r3
 11571 0398 6C00000A 		beq	.L510
 11572 039c B0029FE5 		ldr	r0, .L545+16
 11573 03a0 0C10A0E3 		mov	r1, #12
 11574 03a4 FEFFFFEB 		bl	uart_check_free_space
 11575 03a8 000050E3 		cmp	r0, #0
 11576 03ac 6300000A 		beq	.L511
 11577 03b0 C4329FE5 		ldr	r3, .L545+56
 11578 03b4 B020D3E1 		ldrh	r2, [r3]
 11579 03b8 0C2082E2 		add	r2, r2, #12
 11580 03bc B020C3E1 		strh	r2, [r3]	@ movhi
 11581 03c0 B8329FE5 		ldr	r3, .L545+60
 11582 03c4 B020D3E1 		ldrh	r2, [r3]
 11583 03c8 84029FE5 		ldr	r0, .L545+16
 11584 03cc 012082E2 		add	r2, r2, #1
 11585 03d0 9910A0E3 		mov	r1, #153
 11586 03d4 A8529FE5 		ldr	r5, .L545+64
 11587 03d8 B020C3E1 		strh	r2, [r3]	@ movhi
 11588 03dc FEFFFFEB 		bl	uart_transmit
 11589 03e0 6C029FE5 		ldr	r0, .L545+16
 11590 03e4 0C10A0E3 		mov	r1, #12
 11591 03e8 98429FE5 		ldr	r4, .L545+68
 11592 03ec FEFFFFEB 		bl	uart_transmit
 11593 03f0 0E30A0E3 		mov	r3, #14
 11594 03f4 0030C5E5 		strb	r3, [r5]
 11595 03f8 54029FE5 		ldr	r0, .L545+16
 11596 03fc 1A30A0E3 		mov	r3, #26
 11597 0400 0210A0E3 		mov	r1, #2
 11598 0404 0030C4E5 		strb	r3, [r4]
 11599 0408 FEFFFFEB 		bl	uart_transmit
 11600 040c 0030D5E5 		ldrb	r3, [r5]	@ zero_extendqisi2
 11601 0410 0020D4E5 		ldrb	r2, [r4]	@ zero_extendqisi2
 11602 0414 0B3083E2 		add	r3, r3, #11
 11603 0418 FF3003E2 		and	r3, r3, #255
 11604 041c 0030C5E5 		strb	r3, [r5]
 11605 0420 2C029FE5 		ldr	r0, .L545+16
 11606 0424 023083E0 		add	r3, r3, r2
 11607 0428 0B10A0E3 		mov	r1, #11
 11608 042c 0030C4E5 		strb	r3, [r4]
 11609 0430 FEFFFFEB 		bl	uart_transmit
 11610 0434 0010D6E5 		ldrb	r1, [r6]	@ zero_extendqisi2
 11611 0438 0030D5E5 		ldrb	r3, [r5]	@ zero_extendqisi2
 11612 043c 0020D4E5 		ldrb	r2, [r4]	@ zero_extendqisi2
 11613 0440 033081E0 		add	r3, r1, r3
 11614 0444 FF3003E2 		and	r3, r3, #255
 11615 0448 0030C5E5 		strb	r3, [r5]
 11616 044c 00029FE5 		ldr	r0, .L545+16
 11617 0450 023083E0 		add	r3, r3, r2
 11618 0454 0030C4E5 		strb	r3, [r4]
 11619 0458 FEFFFFEB 		bl	uart_transmit
 11620 045c 28329FE5 		ldr	r3, .L545+72
 11621 0460 0010D3E5 		ldrb	r1, [r3]	@ zero_extendqisi2
 11622 0464 0030D5E5 		ldrb	r3, [r5]	@ zero_extendqisi2
 11623 0468 0020D4E5 		ldrb	r2, [r4]	@ zero_extendqisi2
 11624 046c 033081E0 		add	r3, r1, r3
 11625 0470 FF3003E2 		and	r3, r3, #255
 11626 0474 0030C5E5 		strb	r3, [r5]
 11627 0478 D4019FE5 		ldr	r0, .L545+16
 11628 047c 023083E0 		add	r3, r3, r2
 11629 0480 0030C4E5 		strb	r3, [r4]
 11630 0484 FEFFFFEB 		bl	uart_transmit
 11631 0488 00329FE5 		ldr	r3, .L545+76
 11632 048c 0010D3E5 		ldrb	r1, [r3]	@ zero_extendqisi2
 11633 0490 0030D5E5 		ldrb	r3, [r5]	@ zero_extendqisi2
 11634 0494 0020D4E5 		ldrb	r2, [r4]	@ zero_extendqisi2
 11635 0498 033081E0 		add	r3, r1, r3
 11636 049c FF3003E2 		and	r3, r3, #255
 11637 04a0 0030C5E5 		strb	r3, [r5]
 11638 04a4 A8019FE5 		ldr	r0, .L545+16
 11639 04a8 023083E0 		add	r3, r3, r2
 11640 04ac 0030C4E5 		strb	r3, [r4]
 11641 04b0 FEFFFFEB 		bl	uart_transmit
 11642 04b4 D8319FE5 		ldr	r3, .L545+80
 11643 04b8 0010D3E5 		ldrb	r1, [r3]	@ zero_extendqisi2
 11644 04bc 0030D5E5 		ldrb	r3, [r5]	@ zero_extendqisi2
 11645 04c0 0020D4E5 		ldrb	r2, [r4]	@ zero_extendqisi2
 11646 04c4 033081E0 		add	r3, r1, r3
 11647 04c8 FF3003E2 		and	r3, r3, #255
 11648 04cc 0030C5E5 		strb	r3, [r5]
 11649 04d0 7C019FE5 		ldr	r0, .L545+16
 11650 04d4 023083E0 		add	r3, r3, r2
 11651 04d8 0030C4E5 		strb	r3, [r4]
 11652 04dc FEFFFFEB 		bl	uart_transmit
 11653 04e0 0020D4E5 		ldrb	r2, [r4]	@ zero_extendqisi2
 11654 04e4 0030D5E5 		ldrb	r3, [r5]	@ zero_extendqisi2
 11655 04e8 64019FE5 		ldr	r0, .L545+16
 11656 04ec 033082E0 		add	r3, r2, r3
 11657 04f0 0010A0E3 		mov	r1, #0
 11658 04f4 0030C4E5 		strb	r3, [r4]
 11659 04f8 FEFFFFEB 		bl	uart_transmit
 11660 04fc 0010D8E5 		ldrb	r1, [r8]	@ zero_extendqisi2
 11661 0500 0030D5E5 		ldrb	r3, [r5]	@ zero_extendqisi2
 11662 0504 0020D4E5 		ldrb	r2, [r4]	@ zero_extendqisi2
 11663 0508 033081E0 		add	r3, r1, r3
 11664 050c FF3003E2 		and	r3, r3, #255
 11665 0510 0030C5E5 		strb	r3, [r5]
 11666 0514 38019FE5 		ldr	r0, .L545+16
 11667 0518 023083E0 		add	r3, r3, r2
 11668 051c 0030C4E5 		strb	r3, [r4]
 11669 0520 FEFFFFEB 		bl	uart_transmit
 11670 0524 0010D5E5 		ldrb	r1, [r5]	@ zero_extendqisi2
 11671 0528 24019FE5 		ldr	r0, .L545+16
 11672 052c FEFFFFEB 		bl	uart_transmit
 11673 0530 1C019FE5 		ldr	r0, .L545+16
 11674 0534 0010D4E5 		ldrb	r1, [r4]	@ zero_extendqisi2
 11675 0538 FEFFFFEB 		bl	uart_transmit
 11676 053c 030000EA 		b	.L510
 11677              	.L511:
 11678 0540 50319FE5 		ldr	r3, .L545+84
 11679 0544 0020D3E5 		ldrb	r2, [r3]	@ zero_extendqisi2
 11680 0548 012082E2 		add	r2, r2, #1
 11681 054c 0020C3E5 		strb	r2, [r3]
 11682              	.L510:
 11683 0550 0040D6E5 		ldrb	r4, [r6]	@ zero_extendqisi2
 11684 0554 010054E3 		cmp	r4, #1
 11685 0558 1D00001A 		bne	.L512
 11686 055c 005097E5 		ldr	r5, [r7]
 11687 0560 F000D5E1 		ldrsh	r0, [r5]
 11688 0564 FEFFFFEB 		bl	__aeabi_i2f
 11689 0568 2C119FE5 		ldr	r1, .L545+88
 11690 056c FEFFFFEB 		bl	__aeabi_fdiv
 11691 0570 FEFFFFEB 		bl	__aeabi_f2d
 11692 0574 24219FE5 		ldr	r2, .L545+92
 11693 0578 24319FE5 		ldr	r3, .L545+96
 11694 057c FEFFFFEB 		bl	__aeabi_dmul
 11695 0580 0020A0E3 		mov	r2, #0
 11696 0584 0030A0E3 		mov	r3, #0
 11697 0588 FEFFFFEB 		bl	__aeabi_dadd
 11698 058c FEFFFFEB 		bl	__aeabi_d2f
 11699 0590 10319FE5 		ldr	r3, .L545+100
 11700 0594 000083E5 		str	r0, [r3]	@ float
 11701 0598 F200D5E1 		ldrsh	r0, [r5, #2]
 11702 059c FEFFFFEB 		bl	__aeabi_i2f
 11703 05a0 F4109FE5 		ldr	r1, .L545+88
 11704 05a4 FEFFFFEB 		bl	__aeabi_fdiv
 11705 05a8 FEFFFFEB 		bl	__aeabi_f2d
 11706 05ac F8209FE5 		ldr	r2, .L545+104
 11707 05b0 F8309FE5 		ldr	r3, .L545+108
 11708 05b4 FEFFFFEB 		bl	__aeabi_dmul
 11709 05b8 0030A0E3 		mov	r3, #0
 11710 05bc 0020A0E3 		mov	r2, #0
 11711 05c0 FEFFFFEB 		bl	__aeabi_dadd
 11712 05c4 FEFFFFEB 		bl	__aeabi_d2f
 11713 05c8 E4309FE5 		ldr	r3, .L545+112
 11714 05cc 000083E5 		str	r0, [r3]	@ float
 11715 05d0 000000EA 		b	.L513
 11716              	.L512:
 11717 05d4 0300008A 		bhi	.L514
 11718              	.L513:
 11719 05d8 003097E5 		ldr	r3, [r7]
 11720 05dc B620D3E1 		ldrh	r2, [r3, #6]
 11721 05e0 D0309FE5 		ldr	r3, .L545+116
 11722 05e4 B020C3E1 		strh	r2, [r3]	@ movhi
 11723              	.L514:
 11724 05e8 003097E5 		ldr	r3, [r7]
 11725 05ec C8209FE5 		ldr	r2, .L545+120
 11726 05f0 0A10D3E5 		ldrb	r1, [r3, #10]	@ zero_extendqisi2
 11727 05f4 0010C2E5 		strb	r1, [r2]
 11728 05f8 BE10D3E1 		ldrh	r1, [r3, #14]
 11729 05fc BC209FE5 		ldr	r2, .L545+124
 11730 0600 B010C2E1 		strh	r1, [r2]	@ movhi
 11731 0604 B8209FE5 		ldr	r2, .L545+128
 11732 0608 101093E5 		ldr	r1, [r3, #16]
 11733 060c 001082E5 		str	r1, [r2]
 11734 0610 B0209FE5 		ldr	r2, .L545+132
 11735 0614 B020D2E1 		ldrh	r2, [r2]
 11736 0618 000052E3 		cmp	r2, #0
 11737 061c 0600001A 		bne	.L468
 11738 0620 020054E3 		cmp	r4, #2
 11739 0624 0400001A 		bne	.L468
 11740 0628 F630D3E1 		ldrsh	r3, [r3, #6]
 11741 062c 870D53E3 		cmp	r3, #8640
 11742 0630 38309FC5 		ldrgt	r3, .L545+44
 11743 0634 0120A0C3 		movgt	r2, #1
 11744 0638 0020C3C5 		strgtb	r2, [r3]
 11745              	.L468:
 11746 063c F047BDE8 		ldmfd	sp!, {r4, r5, r6, r7, r8, r9, r10, lr}
 11747 0640 1EFF2FE1 		bx	lr
 11748              	.L546:
 11749              		.align	2
 11750              	.L545:
 11751 0644 00000000 		.word	uart0
 11752 0648 00000000 		.word	gps_ubx
 11753 064c 00000000 		.word	gps
 11754 0650 00000000 		.word	sys_time
 11755 0654 00000000 		.word	uart1
 11756 0658 00000000 		.word	pprz_tp
 11757 065c 00000000 		.word	dl_buffer
 11758 0660 00000000 		.word	dl_msg_available
 11759 0664 00000000 		.word	inter_mcu_received_fbw
 11760 0668 00000000 		.word	fbw_state
 11761 066c 00000000 		.word	.LANCHOR20
 11762 0670 00000000 		.word	.LANCHOR21
 11763 0674 00000000 		.word	too_far_from_home
 11764 0678 00000000 		.word	.LANCHOR23
 11765 067c 00000000 		.word	downlink_nb_bytes
 11766 0680 00000000 		.word	downlink_nb_msgs
 11767 0684 00000000 		.word	ck_a
 11768 0688 00000000 		.word	ck_b
 11769 068c 00000000 		.word	v_ctl_mode
 11770 0690 00000000 		.word	.LANCHOR22
 11771 0694 00000000 		.word	horizontal_mode
 11772 0698 00000000 		.word	downlink_nb_ovrn
 11773 069c 00001646 		.word	1175846912
 11774 06a0 9A999999 		.word	-1717986918
 11775 06a4 9999E93F 		.word	1072273817
 11776 06a8 00000000 		.word	h_ctl_roll_setpoint
 11777 06ac 1F85EB51 		.word	1374389535
 11778 06b0 B81EE93F 		.word	1072242360
 11779 06b4 00000000 		.word	h_ctl_pitch_setpoint
 11780 06b8 00000000 		.word	v_ctl_throttle_setpoint
 11781 06bc 00000000 		.word	.LANCHOR58
 11782 06c0 00000000 		.word	vsupply
 11783 06c4 00000000 		.word	.LANCHOR17
 11784 06c8 00000000 		.word	estimator_flight_time
 11786              		.comm	monitor_tid,1,1
 11787              		.comm	navigation_tid,1,1
 11788              		.comm	attitude_tid,1,1
 11789              		.comm	sensors_tid,1,1
 11790              		.comm	telemetry_tid,1,1
 11791              		.comm	modules_tid,1,1
 11792              		.global	gps_lost
 11793              		.comm	energy,4,4
 11794              		.comm	vsupply,2,2
 11795              		.global	launch
 11796              		.global	kill_throttle
 11797              		.global	lateral_mode
 11798              		.global	pprz_mode
 11799              		.comm	power_switch,1,1
 11800              		.comm	combi_switch_value,4,4
 11801              		.comm	combi_switch_status,1,1
 11802              		.section	.bss.i243.7033,"aw",%nobits
 11803              		.set	.LANCHOR35,. + 0
 11806              	i243.7033:
 11807 0000 00       		.space	1
 11808              		.section	.bss.i183.7030,"aw",%nobits
 11809              		.set	.LANCHOR32,. + 0
 11812              	i183.7030:
 11813 0000 00       		.space	1
 11814              		.section	.bss.last.7444,"aw",%nobits
 11815              		.align	1
 11816              		.set	.LANCHOR55,. + 0
 11819              	last.7444:
 11820 0000 0000     		.space	2
 11821              		.section	.bss.i66.7024,"aw",%nobits
 11822              		.set	.LANCHOR26,. + 0
 11825              	i66.7024:
 11826 0000 00       		.space	1
 11827              		.section	.bss.i240.7032,"aw",%nobits
 11828              		.set	.LANCHOR34,. + 0
 11831              	i240.7032:
 11832 0000 00       		.space	1
 11833              		.section	.bss.i66.6684,"aw",%nobits
 11834              		.set	.LANCHOR6,. + 0
 11837              	i66.6684:
 11838 0000 00       		.space	1
 11839              		.section	.bss.i324.7353,"aw",%nobits
 11840              		.align	1
 11841              		.set	.LANCHOR48,. + 0
 11844              	i324.7353:
 11845 0000 0000     		.space	2
 11846              		.section	.bss.i63.7023,"aw",%nobits
 11847              		.set	.LANCHOR25,. + 0
 11850              	i63.7023:
 11851 0000 00       		.space	1
 11852              		.section	.bss.mcu1_ppm_cpt,"aw",%nobits
 11853              		.set	.LANCHOR58,. + 0
 11856              	mcu1_ppm_cpt:
 11857 0000 00       		.space	1
 11858              		.section	.bss.t.7546,"aw",%nobits
 11859              		.set	.LANCHOR56,. + 0
 11862              	t.7546:
 11863 0000 00       		.space	1
 11864              		.section	.bss.i180.7029,"aw",%nobits
 11865              		.set	.LANCHOR31,. + 0
 11868              	i180.7029:
 11869 0000 00       		.space	1
 11870              		.section	.bss.i.6890,"aw",%nobits
 11871              		.set	.LANCHOR19,. + 0
 11874              	i.6890:
 11875 0000 00       		.space	1
 11876              		.section	.bss.i60.6682,"aw",%nobits
 11877              		.set	.LANCHOR4,. + 0
 11880              	i60.6682:
 11881 0000 00       		.space	1
 11882              		.section	.bss.launch,"aw",%nobits
 11883              		.set	.LANCHOR21,. + 0
 11886              	launch:
 11887 0000 00       		.space	1
 11888              		.section	.bss.i330.7354,"aw",%nobits
 11889              		.align	1
 11890              		.set	.LANCHOR49,. + 0
 11893              	i330.7354:
 11894 0000 0000     		.space	2
 11895              		.section	.bss.i6.6680,"aw",%nobits
 11896              		.set	.LANCHOR2,. + 0
 11899              	i6.6680:
 11900 0000 00       		.space	1
 11901              		.section	.bss.i318.7352,"aw",%nobits
 11902              		.align	1
 11903              		.set	.LANCHOR47,. + 0
 11906              	i318.7352:
 11907 0000 0000     		.space	2
 11908              		.section	.bss.i.7126,"aw",%nobits
 11909              		.set	.LANCHOR43,. + 0
 11912              	i.7126:
 11913 0000 00       		.space	1
 11914              		.section	.bss.i306.7035,"aw",%nobits
 11915              		.align	1
 11916              		.set	.LANCHOR37,. + 0
 11919              	i306.7035:
 11920 0000 0000     		.space	2
 11921              		.section	.data.pprz_mode,"aw",%progbits
 11922              		.set	.LANCHOR20,. + 0
 11925              	pprz_mode:
 11926 0000 02       		.byte	2
 11927              		.section	.bss.i312.7036,"aw",%nobits
 11928              		.align	1
 11929              		.set	.LANCHOR38,. + 0
 11932              	i312.7036:
 11933 0000 0000     		.space	2
 11934              		.section	.bss.lateral_mode,"aw",%nobits
 11935              		.set	.LANCHOR22,. + 0
 11938              	lateral_mode:
 11939 0000 00       		.space	1
 11940              		.section	.bss.mcu1_status,"aw",%nobits
 11941              		.set	.LANCHOR23,. + 0
 11944              	mcu1_status:
 11945 0000 00       		.space	1
 11946              		.section	.rodata.version,"a",%progbits
 11947              		.align	1
 11948              		.set	.LANCHOR1,. + 0
 11951              	version:
 11952 0000 0100     		.short	1
 11953              		.section	.bss.i126.7028,"aw",%nobits
 11954              		.set	.LANCHOR30,. + 0
 11957              	i126.7028:
 11958 0000 00       		.space	1
 11959              		.section	.bss.i192.7031,"aw",%nobits
 11960              		.set	.LANCHOR33,. + 0
 11963              	i192.7031:
 11964 0000 00       		.space	1
 11965              		.section	.bss.gps_lost,"aw",%nobits
 11968              	gps_lost:
 11969 0000 00       		.space	1
 11970              		.section	.bss.i300.7034,"aw",%nobits
 11971              		.align	1
 11972              		.set	.LANCHOR36,. + 0
 11975              	i300.7034:
 11976 0000 0000     		.space	2
 11977              		.section	.bss.i.6693,"aw",%nobits
 11978              		.set	.LANCHOR15,. + 0
 11981              	i.6693:
 11982 0000 00       		.space	1
 11983              		.section	.bss.i90.7027,"aw",%nobits
 11984              		.set	.LANCHOR29,. + 0
 11987              	i90.7027:
 11988 0000 00       		.space	1
 11989              		.section	.bss.i.7039,"aw",%nobits
 11990              		.set	.LANCHOR41,. + 0
 11993              	i.7039:
 11994 0000 00       		.space	1
 11995              		.section	.bss.i90.6686,"aw",%nobits
 11996              		.set	.LANCHOR8,. + 0
 11999              	i90.6686:
 12000 0000 00       		.space	1
 12001              		.section	.bss.i300.6690,"aw",%nobits
 12002              		.align	1
 12003              		.set	.LANCHOR12,. + 0
 12006              	i300.6690:
 12007 0000 0000     		.space	2
 12008              		.section	.bss.i306.6691,"aw",%nobits
 12009              		.align	1
 12010              		.set	.LANCHOR13,. + 0
 12013              	i306.6691:
 12014 0000 0000     		.space	2
 12015              		.section	.data.boot.6676,"aw",%progbits
 12016              		.set	.LANCHOR0,. + 0
 12019              	boot.6676:
 12020 0000 01       		.byte	1
 12021              		.section	.bss.i540.6692,"aw",%nobits
 12022              		.align	1
 12023              		.set	.LANCHOR14,. + 0
 12026              	i540.6692:
 12027 0000 0000     		.space	2
 12028              		.section	.bss.i540.7037,"aw",%nobits
 12029              		.align	1
 12030              		.set	.LANCHOR39,. + 0
 12033              	i540.7037:
 12034 0000 0000     		.space	2
 12035              		.section	.bss.i300.7350,"aw",%nobits
 12036              		.align	1
 12037              		.set	.LANCHOR45,. + 0
 12040              	i300.7350:
 12041 0000 0000     		.space	2
 12042              		.section	.bss.i126.6688,"aw",%nobits
 12043              		.set	.LANCHOR10,. + 0
 12046              	i126.6688:
 12047 0000 00       		.space	1
 12048              		.section	.bss.kill_throttle,"aw",%nobits
 12049              		.set	.LANCHOR18,. + 0
 12052              	kill_throttle:
 12053 0000 00       		.space	1
 12054              		.section	.bss.i.7108,"aw",%nobits
 12055              		.set	.LANCHOR42,. + 0
 12058              	i.7108:
 12059 0000 00       		.space	1
 12060              		.section	.bss.i420.7356,"aw",%nobits
 12061              		.align	1
 12062              		.set	.LANCHOR51,. + 0
 12065              	i420.7356:
 12066 0000 0000     		.space	2
 12067              		.section	.bss.last.7005,"aw",%nobits
 12068              		.align	1
 12069              		.set	.LANCHOR24,. + 0
 12072              	last.7005:
 12073 0000 0000     		.space	2
 12074              		.section	.bss.i84.7026,"aw",%nobits
 12075              		.set	.LANCHOR28,. + 0
 12078              	i84.7026:
 12079 0000 00       		.space	1
 12080              		.section	.bss.i306.7351,"aw",%nobits
 12081              		.align	1
 12082              		.set	.LANCHOR46,. + 0
 12085              	i306.7351:
 12086 0000 0000     		.space	2
 12087              		.section	.bss.i1.6448,"aw",%nobits
 12088              		.set	.LANCHOR57,. + 0
 12091              	i1.6448:
 12092 0000 00       		.space	1
 12093              		.section	.bss.i63.6683,"aw",%nobits
 12094              		.set	.LANCHOR5,. + 0
 12097              	i63.6683:
 12098 0000 00       		.space	1
 12099              		.section	.bss.i120.6687,"aw",%nobits
 12100              		.set	.LANCHOR9,. + 0
 12103              	i120.6687:
 12104 0000 00       		.space	1
 12105              		.section	.bss.last.7321,"aw",%nobits
 12106              		.align	1
 12107              		.set	.LANCHOR44,. + 0
 12110              	last.7321:
 12111 0000 0000     		.space	2
 12112              		.section	.bss.i.6755,"aw",%nobits
 12113              		.set	.LANCHOR16,. + 0
 12116              	i.6755:
 12117 0000 00       		.space	1
 12118              		.section	.bss.i78.7025,"aw",%nobits
 12119              		.set	.LANCHOR27,. + 0
 12122              	i78.7025:
 12123 0000 00       		.space	1
 12124              		.section	.bss.i342.7355,"aw",%nobits
 12125              		.align	1
 12126              		.set	.LANCHOR50,. + 0
 12129              	i342.7355:
 12130 0000 0000     		.space	2
 12131              		.section	.bss.i612.7358,"aw",%nobits
 12132              		.align	1
 12133              		.set	.LANCHOR53,. + 0
 12136              	i612.7358:
 12137 0000 0000     		.space	2
 12138              		.section	.bss.current,"aw",%nobits
 12139              		.align	2
 12140              		.set	.LANCHOR17,. + 0
 12143              	current:
 12144 0000 00000000 		.space	4
 12145              		.section	.bss.i.7365,"aw",%nobits
 12146              		.set	.LANCHOR54,. + 0
 12149              	i.7365:
 12150 0000 00       		.space	1
 12151              		.section	.bss.i150.6689,"aw",%nobits
 12152              		.set	.LANCHOR11,. + 0
 12155              	i150.6689:
 12156 0000 00       		.space	1
 12157              		.section	.bss.i72.6685,"aw",%nobits
 12158              		.set	.LANCHOR7,. + 0
 12161              	i72.6685:
 12162 0000 00       		.space	1
 12163              		.section	.bss.i30.6681,"aw",%nobits
 12164              		.set	.LANCHOR3,. + 0
 12167              	i30.6681:
 12168 0000 00       		.space	1
 12169              		.section	.bss.i606.7038,"aw",%nobits
 12170              		.align	1
 12171              		.set	.LANCHOR40,. + 0
 12174              	i606.7038:
 12175 0000 0000     		.space	2
 12176              		.section	.rodata.str1.1,"aMS",%progbits,1
 12177              	.LC0:
 12178 0000 E39E1066 		.ascii	"\343\236\020fN\230u\270\367*B\262\261f\237\023\000"
 12178      4E9875B8 
 12178      F72A42B2 
 12178      B1669F13 
 12178      00
 12179              		.section	.bss.i606.7357,"aw",%nobits
 12180              		.align	1
 12181              		.set	.LANCHOR52,. + 0
 12184              	i606.7357:
 12185 0000 0000     		.space	2
 12186              		.ident	"GCC: (GNU Tools for ARM Embedded Processors) 4.8.3 20131129 (release) [ARM/embedded-4_8-br
DEFINED SYMBOLS
                            *ABS*:00000000 main_ap.c
     /tmp/ccd3jZfw.s:14     .text.init_ap:00000000 $a
     /tmp/ccd3jZfw.s:17     .text.init_ap:00000000 init_ap
     /tmp/ccd3jZfw.s:77     .text.init_ap:000000d4 $d
                            *COM*:00000001 combi_switch_status
                            *COM*:00000004 combi_switch_value
                            *COM*:00000001 sensors_tid
                            *COM*:00000001 navigation_tid
                            *COM*:00000001 attitude_tid
                            *COM*:00000001 modules_tid
                            *COM*:00000001 telemetry_tid
                            *COM*:00000001 monitor_tid
                            *COM*:00000001 power_switch
     /tmp/ccd3jZfw.s:102    .text.reporting_task:00000000 $a
     /tmp/ccd3jZfw.s:105    .text.reporting_task:00000000 reporting_task
     /tmp/ccd3jZfw.s:1122   .text.reporting_task:00000f9c $d
     /tmp/ccd3jZfw.s:1188   .text.reporting_task:000010a0 $a
     /tmp/ccd3jZfw.s:2846   .text.reporting_task:00002a48 $d
     /tmp/ccd3jZfw.s:2878   .text.reporting_task:00002ac4 $a
     /tmp/ccd3jZfw.s:3252   .text.reporting_task:00002ff4 $d
                            *COM*:00000004 energy
                            *COM*:00000002 vsupply
     /tmp/ccd3jZfw.s:3337   .text.reporting_task:00003144 $a
     /tmp/ccd3jZfw.s:5284   .text.reporting_task:00004f48 $d
     /tmp/ccd3jZfw.s:5373   .text.reporting_task:000050a8 $a
     /tmp/ccd3jZfw.s:5759   .text.reporting_task:00005698 $d
     /tmp/ccd3jZfw.s:5791   .text.reporting_task:00005714 $a
     /tmp/ccd3jZfw.s:7452   .text.reporting_task:00007038 $d
     /tmp/ccd3jZfw.s:7518   .text.reporting_task:0000713c $a
     /tmp/ccd3jZfw.s:9537   .text.reporting_task:0000904c $d
     /tmp/ccd3jZfw.s:9590   .text.reporting_task:0000911c $a
     /tmp/ccd3jZfw.s:10550  .text.navigation_task:00000000 $a
     /tmp/ccd3jZfw.s:10553  .text.navigation_task:00000000 navigation_task
     /tmp/ccd3jZfw.s:10872  .text.navigation_task:000004c4 $d
     /tmp/ccd3jZfw.s:10898  .text.attitude_loop:00000000 $a
     /tmp/ccd3jZfw.s:10901  .text.attitude_loop:00000000 attitude_loop
     /tmp/ccd3jZfw.s:11012  .text.attitude_loop:00000180 $d
     /tmp/ccd3jZfw.s:11036  .text.sensors_task:00000000 $a
     /tmp/ccd3jZfw.s:11039  .text.sensors_task:00000000 sensors_task
     /tmp/ccd3jZfw.s:11048  .text.monitor_task:00000000 $a
     /tmp/ccd3jZfw.s:11051  .text.monitor_task:00000000 monitor_task
     /tmp/ccd3jZfw.s:11192  .text.monitor_task:00000208 $d
     /tmp/ccd3jZfw.s:11212  .text.handle_periodic_tasks_ap:00000000 $a
     /tmp/ccd3jZfw.s:11215  .text.handle_periodic_tasks_ap:00000000 handle_periodic_tasks_ap
     /tmp/ccd3jZfw.s:11293  .text.handle_periodic_tasks_ap:00000108 $d
     /tmp/ccd3jZfw.s:11305  .text.event_task_ap:00000000 $a
     /tmp/ccd3jZfw.s:11308  .text.event_task_ap:00000000 event_task_ap
     /tmp/ccd3jZfw.s:11394  .text.event_task_ap:00000124 $d
     /tmp/ccd3jZfw.s:11400  .text.event_task_ap:00000138 $a
     /tmp/ccd3jZfw.s:11751  .text.event_task_ap:00000644 $d
     /tmp/ccd3jZfw.s:11968  .bss.gps_lost:00000000 gps_lost
     /tmp/ccd3jZfw.s:11886  .bss.launch:00000000 launch
     /tmp/ccd3jZfw.s:12052  .bss.kill_throttle:00000000 kill_throttle
     /tmp/ccd3jZfw.s:11938  .bss.lateral_mode:00000000 lateral_mode
     /tmp/ccd3jZfw.s:11925  .data.pprz_mode:00000000 pprz_mode
     /tmp/ccd3jZfw.s:11806  .bss.i243.7033:00000000 i243.7033
     /tmp/ccd3jZfw.s:11807  .bss.i243.7033:00000000 $d
     /tmp/ccd3jZfw.s:11812  .bss.i183.7030:00000000 i183.7030
     /tmp/ccd3jZfw.s:11813  .bss.i183.7030:00000000 $d
     /tmp/ccd3jZfw.s:11815  .bss.last.7444:00000000 $d
     /tmp/ccd3jZfw.s:11819  .bss.last.7444:00000000 last.7444
     /tmp/ccd3jZfw.s:11825  .bss.i66.7024:00000000 i66.7024
     /tmp/ccd3jZfw.s:11826  .bss.i66.7024:00000000 $d
     /tmp/ccd3jZfw.s:11831  .bss.i240.7032:00000000 i240.7032
     /tmp/ccd3jZfw.s:11832  .bss.i240.7032:00000000 $d
     /tmp/ccd3jZfw.s:11837  .bss.i66.6684:00000000 i66.6684
     /tmp/ccd3jZfw.s:11838  .bss.i66.6684:00000000 $d
     /tmp/ccd3jZfw.s:11840  .bss.i324.7353:00000000 $d
     /tmp/ccd3jZfw.s:11844  .bss.i324.7353:00000000 i324.7353
     /tmp/ccd3jZfw.s:11850  .bss.i63.7023:00000000 i63.7023
     /tmp/ccd3jZfw.s:11851  .bss.i63.7023:00000000 $d
     /tmp/ccd3jZfw.s:11856  .bss.mcu1_ppm_cpt:00000000 mcu1_ppm_cpt
     /tmp/ccd3jZfw.s:11857  .bss.mcu1_ppm_cpt:00000000 $d
     /tmp/ccd3jZfw.s:11862  .bss.t.7546:00000000 t.7546
     /tmp/ccd3jZfw.s:11863  .bss.t.7546:00000000 $d
     /tmp/ccd3jZfw.s:11868  .bss.i180.7029:00000000 i180.7029
     /tmp/ccd3jZfw.s:11869  .bss.i180.7029:00000000 $d
     /tmp/ccd3jZfw.s:11874  .bss.i.6890:00000000 i.6890
     /tmp/ccd3jZfw.s:11875  .bss.i.6890:00000000 $d
     /tmp/ccd3jZfw.s:11880  .bss.i60.6682:00000000 i60.6682
     /tmp/ccd3jZfw.s:11881  .bss.i60.6682:00000000 $d
     /tmp/ccd3jZfw.s:11887  .bss.launch:00000000 $d
     /tmp/ccd3jZfw.s:11889  .bss.i330.7354:00000000 $d
     /tmp/ccd3jZfw.s:11893  .bss.i330.7354:00000000 i330.7354
     /tmp/ccd3jZfw.s:11899  .bss.i6.6680:00000000 i6.6680
     /tmp/ccd3jZfw.s:11900  .bss.i6.6680:00000000 $d
     /tmp/ccd3jZfw.s:11902  .bss.i318.7352:00000000 $d
     /tmp/ccd3jZfw.s:11906  .bss.i318.7352:00000000 i318.7352
     /tmp/ccd3jZfw.s:11912  .bss.i.7126:00000000 i.7126
     /tmp/ccd3jZfw.s:11913  .bss.i.7126:00000000 $d
     /tmp/ccd3jZfw.s:11915  .bss.i306.7035:00000000 $d
     /tmp/ccd3jZfw.s:11919  .bss.i306.7035:00000000 i306.7035
     /tmp/ccd3jZfw.s:11928  .bss.i312.7036:00000000 $d
     /tmp/ccd3jZfw.s:11932  .bss.i312.7036:00000000 i312.7036
     /tmp/ccd3jZfw.s:11939  .bss.lateral_mode:00000000 $d
     /tmp/ccd3jZfw.s:11944  .bss.mcu1_status:00000000 mcu1_status
     /tmp/ccd3jZfw.s:11945  .bss.mcu1_status:00000000 $d
     /tmp/ccd3jZfw.s:11947  .rodata.version:00000000 $d
     /tmp/ccd3jZfw.s:11951  .rodata.version:00000000 version
     /tmp/ccd3jZfw.s:11957  .bss.i126.7028:00000000 i126.7028
     /tmp/ccd3jZfw.s:11958  .bss.i126.7028:00000000 $d
     /tmp/ccd3jZfw.s:11963  .bss.i192.7031:00000000 i192.7031
     /tmp/ccd3jZfw.s:11964  .bss.i192.7031:00000000 $d
     /tmp/ccd3jZfw.s:11969  .bss.gps_lost:00000000 $d
     /tmp/ccd3jZfw.s:11971  .bss.i300.7034:00000000 $d
     /tmp/ccd3jZfw.s:11975  .bss.i300.7034:00000000 i300.7034
     /tmp/ccd3jZfw.s:11981  .bss.i.6693:00000000 i.6693
     /tmp/ccd3jZfw.s:11982  .bss.i.6693:00000000 $d
     /tmp/ccd3jZfw.s:11987  .bss.i90.7027:00000000 i90.7027
     /tmp/ccd3jZfw.s:11988  .bss.i90.7027:00000000 $d
     /tmp/ccd3jZfw.s:11993  .bss.i.7039:00000000 i.7039
     /tmp/ccd3jZfw.s:11994  .bss.i.7039:00000000 $d
     /tmp/ccd3jZfw.s:11999  .bss.i90.6686:00000000 i90.6686
     /tmp/ccd3jZfw.s:12000  .bss.i90.6686:00000000 $d
     /tmp/ccd3jZfw.s:12002  .bss.i300.6690:00000000 $d
     /tmp/ccd3jZfw.s:12006  .bss.i300.6690:00000000 i300.6690
     /tmp/ccd3jZfw.s:12009  .bss.i306.6691:00000000 $d
     /tmp/ccd3jZfw.s:12013  .bss.i306.6691:00000000 i306.6691
     /tmp/ccd3jZfw.s:12019  .data.boot.6676:00000000 boot.6676
     /tmp/ccd3jZfw.s:12022  .bss.i540.6692:00000000 $d
     /tmp/ccd3jZfw.s:12026  .bss.i540.6692:00000000 i540.6692
     /tmp/ccd3jZfw.s:12029  .bss.i540.7037:00000000 $d
     /tmp/ccd3jZfw.s:12033  .bss.i540.7037:00000000 i540.7037
     /tmp/ccd3jZfw.s:12036  .bss.i300.7350:00000000 $d
     /tmp/ccd3jZfw.s:12040  .bss.i300.7350:00000000 i300.7350
     /tmp/ccd3jZfw.s:12046  .bss.i126.6688:00000000 i126.6688
     /tmp/ccd3jZfw.s:12047  .bss.i126.6688:00000000 $d
     /tmp/ccd3jZfw.s:12053  .bss.kill_throttle:00000000 $d
     /tmp/ccd3jZfw.s:12058  .bss.i.7108:00000000 i.7108
     /tmp/ccd3jZfw.s:12059  .bss.i.7108:00000000 $d
     /tmp/ccd3jZfw.s:12061  .bss.i420.7356:00000000 $d
     /tmp/ccd3jZfw.s:12065  .bss.i420.7356:00000000 i420.7356
     /tmp/ccd3jZfw.s:12068  .bss.last.7005:00000000 $d
     /tmp/ccd3jZfw.s:12072  .bss.last.7005:00000000 last.7005
     /tmp/ccd3jZfw.s:12078  .bss.i84.7026:00000000 i84.7026
     /tmp/ccd3jZfw.s:12079  .bss.i84.7026:00000000 $d
     /tmp/ccd3jZfw.s:12081  .bss.i306.7351:00000000 $d
     /tmp/ccd3jZfw.s:12085  .bss.i306.7351:00000000 i306.7351
     /tmp/ccd3jZfw.s:12091  .bss.i1.6448:00000000 i1.6448
     /tmp/ccd3jZfw.s:12092  .bss.i1.6448:00000000 $d
     /tmp/ccd3jZfw.s:12097  .bss.i63.6683:00000000 i63.6683
     /tmp/ccd3jZfw.s:12098  .bss.i63.6683:00000000 $d
     /tmp/ccd3jZfw.s:12103  .bss.i120.6687:00000000 i120.6687
     /tmp/ccd3jZfw.s:12104  .bss.i120.6687:00000000 $d
     /tmp/ccd3jZfw.s:12106  .bss.last.7321:00000000 $d
     /tmp/ccd3jZfw.s:12110  .bss.last.7321:00000000 last.7321
     /tmp/ccd3jZfw.s:12116  .bss.i.6755:00000000 i.6755
     /tmp/ccd3jZfw.s:12117  .bss.i.6755:00000000 $d
     /tmp/ccd3jZfw.s:12122  .bss.i78.7025:00000000 i78.7025
     /tmp/ccd3jZfw.s:12123  .bss.i78.7025:00000000 $d
     /tmp/ccd3jZfw.s:12125  .bss.i342.7355:00000000 $d
     /tmp/ccd3jZfw.s:12129  .bss.i342.7355:00000000 i342.7355
     /tmp/ccd3jZfw.s:12132  .bss.i612.7358:00000000 $d
     /tmp/ccd3jZfw.s:12136  .bss.i612.7358:00000000 i612.7358
     /tmp/ccd3jZfw.s:12139  .bss.current:00000000 $d
     /tmp/ccd3jZfw.s:12143  .bss.current:00000000 current
     /tmp/ccd3jZfw.s:12149  .bss.i.7365:00000000 i.7365
     /tmp/ccd3jZfw.s:12150  .bss.i.7365:00000000 $d
     /tmp/ccd3jZfw.s:12155  .bss.i150.6689:00000000 i150.6689
     /tmp/ccd3jZfw.s:12156  .bss.i150.6689:00000000 $d
     /tmp/ccd3jZfw.s:12161  .bss.i72.6685:00000000 i72.6685
     /tmp/ccd3jZfw.s:12162  .bss.i72.6685:00000000 $d
     /tmp/ccd3jZfw.s:12167  .bss.i30.6681:00000000 i30.6681
     /tmp/ccd3jZfw.s:12168  .bss.i30.6681:00000000 $d
     /tmp/ccd3jZfw.s:12170  .bss.i606.7038:00000000 $d
     /tmp/ccd3jZfw.s:12174  .bss.i606.7038:00000000 i606.7038
     /tmp/ccd3jZfw.s:12180  .bss.i606.7357:00000000 $d
     /tmp/ccd3jZfw.s:12184  .bss.i606.7357:00000000 i606.7357

UNDEFINED SYMBOLS
gps_init
ahrs_init
h_ctl_init
v_ctl_init
estimator_init
alt_kalman_init
nav_init
infrared_adc_init
settings_init
sys_time_register_timer
enableIRQ
traffic_info_init
__aeabi_i2d
__aeabi_dmul
__aeabi_ddiv
__aeabi_d2iz
__aeabi_i2f
__aeabi_fadd
__aeabi_f2d
__aeabi_d2uiz
__aeabi_idiv
__aeabi_f2iz
__aeabi_ui2f
__aeabi_fdiv
__aeabi_fmul
uart_check_free_space
uart_transmit
uart1
downlink_nb_bytes
telemetry_mode_Ap
gps
estimator_z
estimator_z_dot
estimator_phi
estimator_psi
estimator_theta
nb_waypoint
nav_utm_east0
waypoints
nav_utm_north0
downlink_nb_msgs
nav_utm_zone0
nav_circle_radians
ck_a
ck_b
nav_block
nav_stage
estimator_x
estimator_y
dist2_to_wp
dist2_to_home
nav_oval_count
downlink_nb_ovrn
nav_in_circle
nav_circle_x
nav_circle_y
nav_circle_radius
h_ctl_roll_setpoint
h_ctl_pitch_loop_setpoint
h_ctl_course_setpoint
desired_x
desired_y
v_ctl_altitude_setpoint
v_ctl_climb_setpoint
v_ctl_throttle_slewed
electrical
estimator_flight_time
block_time
stage_time
nav_in_segment
nav_segment_x_1
nav_segment_y_1
nav_segment_x_2
nav_segment_y_2
telemetry_mode_Fbw
h_ctl_pitch_pgain
h_ctl_pitch_dgain
h_ctl_elevator_of_roll
h_ctl_roll_attitude_gain
h_ctl_roll_rate_gain
h_ctl_aileron_of_throttle
h_ctl_roll_slew
h_ctl_course_pgain
h_ctl_course_dgain
h_ctl_course_pre_bank_correction
h_ctl_roll_max_setpoint
v_ctl_altitude_pgain
v_ctl_auto_throttle_cruise_throttle
v_ctl_auto_throttle_pgain
v_ctl_auto_throttle_igain
v_ctl_auto_throttle_dgain
v_ctl_auto_throttle_climb_throttle_increment
v_ctl_auto_throttle_pitch_of_vz_pgain
v_ctl_auto_throttle_pitch_of_vz_dgain
flight_altitude
nav_course
nav_shift
nav_radius
route_ap_time
v_ctl_auto_throttle_sum_err
v_ctl_auto_throttle_submode
nav_survey_active
nav_survey_east
nav_survey_north
nav_survey_west
nav_survey_south
v_ctl_mode
horizontal_mode
infrared
common_nav_periodic_task_4Hz
nav_home
nav_without_gps
nav_periodic_task
v_ctl_altitude_loop
h_ctl_course_loop
__aeabi_dcmpgt
__aeabi_dcmplt
ahrs_update_infrared
v_ctl_climb_loop
h_ctl_attitude_loop
v_ctl_throttle_slew
nav_throttle_setpoint
v_ctl_throttle_setpoint
nav_pitch
h_ctl_pitch_setpoint
ap_state
h_ctl_aileron_setpoint
h_ctl_elevator_setpoint
fbw_state
inter_mcu_received_ap
__aeabi_fcmpgt
datalink_time
estimator_hspeed_mod
sys_time
infrared_adc_update
__aeabi_dadd
__aeabi_d2f
gps_ubx_parse
gps_ubx_read_message
estimator_update_state_gps
ahrs_update_gps
dl_parse_msg
uart0
gps_ubx
pprz_tp
dl_buffer
dl_msg_available
inter_mcu_received_fbw
too_far_from_home
