   1              		.cpu arm7tdmi
   2              		.fpu softvfp
   3              		.eabi_attribute 20, 1
   4              		.eabi_attribute 21, 1
   5              		.eabi_attribute 23, 3
   6              		.eabi_attribute 24, 1
   7              		.eabi_attribute 25, 1
   8              		.eabi_attribute 26, 1
   9              		.eabi_attribute 30, 4
  10              		.eabi_attribute 18, 4
  11              		.file	"nav.c"
  12              		.global	__aeabi_fsub
  13              		.global	__aeabi_fcmpgt
  14              		.section	.text.nav_set_altitude,"ax",%progbits
  15              		.align	2
  17              	nav_set_altitude:
  18              		@ Function supports interworking.
  19              		@ args = 0, pretend = 0, frame = 0
  20              		@ frame_needed = 0, uses_anonymous_args = 0
  21 0000 38402DE9 		stmfd	sp!, {r3, r4, r5, lr}
  22 0004 40309FE5 		ldr	r3, .L5
  23 0008 40509FE5 		ldr	r5, .L5+4
  24 000c 004093E5 		ldr	r4, [r3, #0]	@ float
  25 0010 001095E5 		ldr	r1, [r5, #0]	@ float
  26 0014 0400A0E1 		mov	r0, r4
  27 0018 FEFFFFEB 		bl	__aeabi_fsub
  28 001c FE15A0E3 		mov	r1, #1065353216
  29 0020 0201C0E3 		bic	r0, r0, #-2147483648
  30 0024 FEFFFFEB 		bl	__aeabi_fcmpgt
  31 0028 24309FE5 		ldr	r3, .L5+8
  32 002c 000050E3 		cmp	r0, #0
  33 0030 00408315 		strne	r4, [r3, #0]	@ float
  34 0034 002093E5 		ldr	r2, [r3, #0]	@ float
  35 0038 18309FE5 		ldr	r3, .L5+12
  36 003c 00408515 		strne	r4, [r5, #0]	@ float
  37 0040 002083E5 		str	r2, [r3, #0]	@ float
  38 0044 3840BDE8 		ldmfd	sp!, {r3, r4, r5, lr}
  39 0048 1EFF2FE1 		bx	lr
  40              	.L6:
  41              		.align	2
  42              	.L5:
  43 004c 00000000 		.word	.LANCHOR0
  44 0050 00000000 		.word	.LANCHOR1
  45 0054 00000000 		.word	flight_altitude
  46 0058 00000000 		.word	v_ctl_altitude_setpoint
  48              		.section	.text.nav_init_stage,"ax",%progbits
  49              		.align	2
  50              		.global	nav_init_stage
  52              	nav_init_stage:
  53              		@ Function supports interworking.
  54              		@ args = 0, pretend = 0, frame = 0
  55              		@ frame_needed = 0, uses_anonymous_args = 0
  56              		@ link register save eliminated.
  57 0000 54309FE5 		ldr	r3, .L8
  58 0004 002093E5 		ldr	r2, [r3, #0]	@ float
  59 0008 50309FE5 		ldr	r3, .L8+4
  60 000c 002083E5 		str	r2, [r3, #0]	@ float
  61 0010 4C309FE5 		ldr	r3, .L8+8
  62 0014 002093E5 		ldr	r2, [r3, #0]	@ float
  63 0018 48309FE5 		ldr	r3, .L8+12
  64 001c 002083E5 		str	r2, [r3, #0]	@ float
  65 0020 44309FE5 		ldr	r3, .L8+16
  66 0024 0020A0E3 		mov	r2, #0
  67 0028 40109FE5 		ldr	r1, .L8+20
  68 002c B020C3E1 		strh	r2, [r3, #0]	@ movhi
  69 0030 0030A0E3 		mov	r3, #0
  70 0034 003081E5 		str	r3, [r1, #0]	@ float
  71 0038 34109FE5 		ldr	r1, .L8+24
  72 003c 0020C1E5 		strb	r2, [r1, #0]
  73 0040 30109FE5 		ldr	r1, .L8+28
  74 0044 0020C1E5 		strb	r2, [r1, #0]
  75 0048 2C209FE5 		ldr	r2, .L8+32
  76 004c 003082E5 		str	r3, [r2, #0]	@ float
  77 0050 28209FE5 		ldr	r2, .L8+36
  78 0054 003082E5 		str	r3, [r2, #0]	@ float
  79 0058 1EFF2FE1 		bx	lr
  80              	.L9:
  81              		.align	2
  82              	.L8:
  83 005c 00000000 		.word	estimator_x
  84 0060 00000000 		.word	last_x
  85 0064 00000000 		.word	estimator_y
  86 0068 00000000 		.word	last_y
  87 006c 00000000 		.word	stage_time
  88 0070 00000000 		.word	nav_circle_radians
  89 0074 00000000 		.word	.LANCHOR2
  90 0078 00000000 		.word	.LANCHOR3
  91 007c 00000000 		.word	nav_shift
  92 0080 00000000 		.word	nav_pitch
  94              		.global	__aeabi_fmul
  95              		.global	__aeabi_fadd
  96              		.global	__aeabi_fcmplt
  97              		.section	.text.nav_approaching_xy,"ax",%progbits
  98              		.align	2
  99              		.global	nav_approaching_xy
 101              	nav_approaching_xy:
 102              		@ Function supports interworking.
 103              		@ args = 4, pretend = 0, frame = 0
 104              		@ frame_needed = 0, uses_anonymous_args = 0
 105 0000 F0472DE9 		stmfd	sp!, {r4, r5, r6, r7, r8, r9, sl, lr}
 106 0004 0390A0E1 		mov	r9, r3
 107 0008 E4309FE5 		ldr	r3, .L14
 108 000c 0140A0E1 		mov	r4, r1
 109 0010 001093E5 		ldr	r1, [r3, #0]	@ float
 110 0014 0260A0E1 		mov	r6, r2
 111 0018 0050A0E1 		mov	r5, r0
 112 001c FEFFFFEB 		bl	__aeabi_fsub
 113 0020 D0309FE5 		ldr	r3, .L14+4
 114 0024 0080A0E1 		mov	r8, r0
 115 0028 001093E5 		ldr	r1, [r3, #0]	@ float
 116 002c 0400A0E1 		mov	r0, r4
 117 0030 FEFFFFEB 		bl	__aeabi_fsub
 118 0034 0810A0E1 		mov	r1, r8
 119 0038 0070A0E1 		mov	r7, r0
 120 003c 0800A0E1 		mov	r0, r8
 121 0040 FEFFFFEB 		bl	__aeabi_fmul
 122 0044 0710A0E1 		mov	r1, r7
 123 0048 00A0A0E1 		mov	sl, r0
 124 004c 0700A0E1 		mov	r0, r7
 125 0050 FEFFFFEB 		bl	__aeabi_fmul
 126 0054 0010A0E1 		mov	r1, r0
 127 0058 0A00A0E1 		mov	r0, sl
 128 005c FEFFFFEB 		bl	__aeabi_fadd
 129 0060 94309FE5 		ldr	r3, .L14+8
 130 0064 000083E5 		str	r0, [r3, #0]	@ float
 131 0068 90309FE5 		ldr	r3, .L14+12
 132 006c 00A0A0E1 		mov	sl, r0
 133 0070 001093E5 		ldr	r1, [r3, #0]	@ float
 134 0074 20009DE5 		ldr	r0, [sp, #32]	@ float
 135 0078 FEFFFFEB 		bl	__aeabi_fmul
 136 007c 0010A0E1 		mov	r1, r0
 137 0080 FEFFFFEB 		bl	__aeabi_fmul
 138 0084 0010A0E1 		mov	r1, r0
 139 0088 0A00A0E1 		mov	r0, sl
 140 008c FEFFFFEB 		bl	__aeabi_fcmplt
 141 0090 000050E3 		cmp	r0, #0
 142 0094 0100A013 		movne	r0, #1
 143 0098 1300001A 		bne	.L11
 144 009c 0500A0E1 		mov	r0, r5
 145 00a0 0610A0E1 		mov	r1, r6
 146 00a4 FEFFFFEB 		bl	__aeabi_fsub
 147 00a8 0810A0E1 		mov	r1, r8
 148 00ac FEFFFFEB 		bl	__aeabi_fmul
 149 00b0 0910A0E1 		mov	r1, r9
 150 00b4 0050A0E1 		mov	r5, r0
 151 00b8 0400A0E1 		mov	r0, r4
 152 00bc FEFFFFEB 		bl	__aeabi_fsub
 153 00c0 0710A0E1 		mov	r1, r7
 154 00c4 FEFFFFEB 		bl	__aeabi_fmul
 155 00c8 0010A0E1 		mov	r1, r0
 156 00cc 0500A0E1 		mov	r0, r5
 157 00d0 FEFFFFEB 		bl	__aeabi_fadd
 158 00d4 0010A0E3 		mov	r1, #0
 159 00d8 FEFFFFEB 		bl	__aeabi_fcmplt
 160 00dc 000050E3 		cmp	r0, #0
 161 00e0 0140A0E3 		mov	r4, #1
 162 00e4 0040A001 		moveq	r4, r0
 163 00e8 FF0004E2 		and	r0, r4, #255
 164              	.L11:
 165 00ec F047BDE8 		ldmfd	sp!, {r4, r5, r6, r7, r8, r9, sl, lr}
 166 00f0 1EFF2FE1 		bx	lr
 167              	.L15:
 168              		.align	2
 169              	.L14:
 170 00f4 00000000 		.word	estimator_x
 171 00f8 00000000 		.word	estimator_y
 172 00fc 00000000 		.word	dist2_to_wp
 173 0100 00000000 		.word	estimator_hspeed_mod
 175              		.global	__aeabi_f2d
 176              		.global	__aeabi_d2f
 177              		.global	__aeabi_dadd
 178              		.global	__aeabi_dsub
 179              		.global	__aeabi_dcmpgt
 180              		.global	__aeabi_dcmplt
 181              		.global	__aeabi_ddiv
 182              		.section	.text.fly_to_xy,"ax",%progbits
 183              		.align	2
 184              		.global	fly_to_xy
 186              	fly_to_xy:
 187              		@ Function supports interworking.
 188              		@ args = 0, pretend = 0, frame = 0
 189              		@ frame_needed = 0, uses_anonymous_args = 0
 190 0000 F8402DE9 		stmfd	sp!, {r3, r4, r5, r6, r7, lr}
 191 0004 70329FE5 		ldr	r3, .L40
 192 0008 000083E5 		str	r0, [r3, #0]	@ float
 193 000c 6C329FE5 		ldr	r3, .L40+4
 194 0010 001083E5 		str	r1, [r3, #0]	@ float
 195 0014 68329FE5 		ldr	r3, .L40+8
 196 0018 003093E5 		ldr	r3, [r3, #0]
 197 001c 020053E3 		cmp	r3, #2
 198 0020 60329FE5 		ldr	r3, .L40+12
 199 0024 0140A0E1 		mov	r4, r1
 200 0028 5C529FE5 		ldr	r5, .L40+16
 201 002c 001093E5 		ldr	r1, [r3, #0]	@ float
 202 0030 1D00001A 		bne	.L17
 203 0034 FEFFFFEB 		bl	__aeabi_fsub
 204 0038 FEFFFFEB 		bl	__aeabi_f2d
 205 003c 0060A0E1 		mov	r6, r0
 206 0040 0170A0E1 		mov	r7, r1
 207 0044 0400A0E1 		mov	r0, r4
 208 0048 001095E5 		ldr	r1, [r5, #0]	@ float
 209 004c FEFFFFEB 		bl	__aeabi_fsub
 210 0050 FEFFFFEB 		bl	__aeabi_f2d
 211 0054 0020A0E1 		mov	r2, r0
 212 0058 0130A0E1 		mov	r3, r1
 213 005c 0600A0E1 		mov	r0, r6
 214 0060 0710A0E1 		mov	r1, r7
 215 0064 FEFFFFEB 		bl	atan2
 216 0068 FEFFFFEB 		bl	__aeabi_d2f
 217 006c 1C429FE5 		ldr	r4, .L40+20
 218 0070 0010A0E3 		mov	r1, #0
 219 0074 000084E5 		str	r0, [r4, #0]	@ float
 220 0078 0050A0E1 		mov	r5, r0
 221 007c FEFFFFEB 		bl	__aeabi_fcmplt
 222 0080 000050E3 		cmp	r0, #0
 223 0084 0600000A 		beq	.L18
 224 0088 0500A0E1 		mov	r0, r5
 225 008c FEFFFFEB 		bl	__aeabi_f2d
 226 0090 FC219FE5 		ldr	r2, .L40+24
 227 0094 FC319FE5 		ldr	r3, .L40+28
 228 0098 FEFFFFEB 		bl	__aeabi_dadd
 229 009c FEFFFFEB 		bl	__aeabi_d2f
 230 00a0 000084E5 		str	r0, [r4, #0]	@ float
 231              	.L18:
 232 00a4 0320A0E3 		mov	r2, #3
 233 00a8 6F0000EA 		b	.L39
 234              	.L17:
 235 00ac FEFFFFEB 		bl	__aeabi_fsub
 236 00b0 FEFFFFEB 		bl	__aeabi_f2d
 237 00b4 0060A0E1 		mov	r6, r0
 238 00b8 0170A0E1 		mov	r7, r1
 239 00bc 0400A0E1 		mov	r0, r4
 240 00c0 001095E5 		ldr	r1, [r5, #0]	@ float
 241 00c4 FEFFFFEB 		bl	__aeabi_fsub
 242 00c8 FEFFFFEB 		bl	__aeabi_f2d
 243 00cc 0020A0E1 		mov	r2, r0
 244 00d0 0130A0E1 		mov	r3, r1
 245 00d4 0600A0E1 		mov	r0, r6
 246 00d8 0710A0E1 		mov	r1, r7
 247 00dc FEFFFFEB 		bl	atan2
 248 00e0 B4319FE5 		ldr	r3, .L40+32
 249 00e4 0040A0E1 		mov	r4, r0
 250 00e8 000093E5 		ldr	r0, [r3, #0]	@ float
 251 00ec 0150A0E1 		mov	r5, r1
 252 00f0 FEFFFFEB 		bl	__aeabi_f2d
 253 00f4 0020A0E1 		mov	r2, r0
 254 00f8 0130A0E1 		mov	r3, r1
 255 00fc 0400A0E1 		mov	r0, r4
 256 0100 0510A0E1 		mov	r1, r5
 257 0104 030000EA 		b	.L37
 258              	.L22:
 259 0108 84219FE5 		ldr	r2, .L40+24
 260 010c 84319FE5 		ldr	r3, .L40+28
 261 0110 0600A0E1 		mov	r0, r6
 262 0114 0710A0E1 		mov	r1, r7
 263              	.L37:
 264 0118 FEFFFFEB 		bl	__aeabi_dsub
 265 011c FEFFFFEB 		bl	__aeabi_d2f
 266 0120 0040A0E1 		mov	r4, r0
 267 0124 FEFFFFEB 		bl	__aeabi_f2d
 268 0128 64219FE5 		ldr	r2, .L40+24
 269 012c 6C319FE5 		ldr	r3, .L40+36
 270 0130 0060A0E1 		mov	r6, r0
 271 0134 0170A0E1 		mov	r7, r1
 272 0138 FEFFFFEB 		bl	__aeabi_dcmpgt
 273 013c 000050E3 		cmp	r0, #0
 274 0140 F0FFFF1A 		bne	.L22
 275 0144 030000EA 		b	.L35
 276              	.L24:
 277 0148 48319FE5 		ldr	r3, .L40+28
 278 014c FEFFFFEB 		bl	__aeabi_dadd
 279 0150 FEFFFFEB 		bl	__aeabi_d2f
 280 0154 0040A0E1 		mov	r4, r0
 281              	.L35:
 282 0158 0400A0E1 		mov	r0, r4
 283 015c FEFFFFEB 		bl	__aeabi_f2d
 284 0160 2C219FE5 		ldr	r2, .L40+24
 285 0164 38319FE5 		ldr	r3, .L40+40
 286 0168 0060A0E1 		mov	r6, r0
 287 016c 0170A0E1 		mov	r7, r1
 288 0170 FEFFFFEB 		bl	__aeabi_dcmplt
 289 0174 000050E3 		cmp	r0, #0
 290 0178 0710A0E1 		mov	r1, r7
 291 017c 0600A0E1 		mov	r0, r6
 292 0180 0C219FE5 		ldr	r2, .L40+24
 293 0184 EFFFFF1A 		bne	.L24
 294 0188 18319FE5 		ldr	r3, .L40+44
 295 018c FEFFFFEB 		bl	__aeabi_dcmpgt
 296 0190 000050E3 		cmp	r0, #0
 297 0194 10419F15 		ldrne	r4, .L40+48
 298 0198 0600001A 		bne	.L25
 299 019c 0600A0E1 		mov	r0, r6
 300 01a0 0710A0E1 		mov	r1, r7
 301 01a4 E8209FE5 		ldr	r2, .L40+24
 302 01a8 00319FE5 		ldr	r3, .L40+52
 303 01ac FEFFFFEB 		bl	__aeabi_dcmplt
 304 01b0 000050E3 		cmp	r0, #0
 305 01b4 F8409F15 		ldrne	r4, .L40+56
 306              	.L25:
 307 01b8 0400A0E1 		mov	r0, r4
 308 01bc FEFFFFEB 		bl	__aeabi_f2d
 309 01c0 FEFFFFEB 		bl	sin
 310 01c4 EC309FE5 		ldr	r3, .L40+60
 311 01c8 004093E5 		ldr	r4, [r3, #0]	@ float
 312 01cc 0060A0E1 		mov	r6, r0
 313 01d0 0170A0E1 		mov	r7, r1
 314 01d4 0400A0E1 		mov	r0, r4
 315 01d8 0410A0E1 		mov	r1, r4
 316 01dc FEFFFFEB 		bl	__aeabi_fadd
 317 01e0 0410A0E1 		mov	r1, r4
 318 01e4 FEFFFFEB 		bl	__aeabi_fmul
 319 01e8 0710A0E1 		mov	r1, r7
 320 01ec 0040A0E1 		mov	r4, r0
 321 01f0 0600A0E1 		mov	r0, r6
 322 01f4 FEFFFFEB 		bl	__aeabi_d2f
 323 01f8 0010A0E1 		mov	r1, r0
 324 01fc 0400A0E1 		mov	r0, r4
 325 0200 FEFFFFEB 		bl	__aeabi_fmul
 326 0204 B0309FE5 		ldr	r3, .L40+64
 327 0208 001093E5 		ldr	r1, [r3, #0]	@ float
 328 020c FEFFFFEB 		bl	__aeabi_fmul
 329 0210 FEFFFFEB 		bl	__aeabi_f2d
 330 0214 A4209FE5 		ldr	r2, .L40+68
 331 0218 A4309FE5 		ldr	r3, .L40+72
 332 021c FEFFFFEB 		bl	__aeabi_ddiv
 333 0220 FEFFFFEB 		bl	atan
 334 0224 FEFFFFEB 		bl	__aeabi_d2f
 335 0228 98309FE5 		ldr	r3, .L40+76
 336 022c 98409FE5 		ldr	r4, .L40+80
 337 0230 005093E5 		ldr	r5, [r3, #0]	@ float
 338 0234 000084E5 		str	r0, [r4, #0]	@ float
 339 0238 0510A0E1 		mov	r1, r5
 340 023c 0060A0E1 		mov	r6, r0
 341 0240 FEFFFFEB 		bl	__aeabi_fcmpgt
 342 0244 000050E3 		cmp	r0, #0
 343 0248 0500001A 		bne	.L38
 344              	.L36:
 345 024c 025185E2 		add	r5, r5, #-2147483648
 346 0250 0600A0E1 		mov	r0, r6
 347 0254 0510A0E1 		mov	r1, r5
 348 0258 FEFFFFEB 		bl	__aeabi_fcmplt
 349 025c 000050E3 		cmp	r0, #0
 350 0260 0000000A 		beq	.L28
 351              	.L38:
 352 0264 005084E5 		str	r5, [r4, #0]	@ float
 353              	.L28:
 354 0268 0220A0E3 		mov	r2, #2
 355              	.L39:
 356 026c 5C309FE5 		ldr	r3, .L40+84
 357 0270 0020C3E5 		strb	r2, [r3, #0]
 358 0274 F840BDE8 		ldmfd	sp!, {r3, r4, r5, r6, r7, lr}
 359 0278 1EFF2FE1 		bx	lr
 360              	.L41:
 361              		.align	2
 362              	.L40:
 363 027c 00000000 		.word	desired_x
 364 0280 00000000 		.word	desired_y
 365 0284 00000000 		.word	nav_mode
 366 0288 00000000 		.word	estimator_x
 367 028c 00000000 		.word	estimator_y
 368 0290 00000000 		.word	h_ctl_course_setpoint
 369 0294 182D4454 		.word	1413754136
 370 0298 FB211940 		.word	1075388923
 371 029c 00000000 		.word	estimator_hspeed_dir
 372 02a0 FB210940 		.word	1074340347
 373 02a4 FB2109C0 		.word	-1073143301
 374 02a8 FB21F93F 		.word	1073291771
 375 02ac DB0FC93F 		.word	1070141403
 376 02b0 FB21F9BF 		.word	-1074191877
 377 02b4 DB0FC9BF 		.word	-1077342245
 378 02b8 00000000 		.word	estimator_hspeed_mod
 379 02bc 00000000 		.word	h_ctl_course_pgain
 380 02c0 34333333 		.word	858993460
 381 02c4 33978B40 		.word	1082890035
 382 02c8 00000000 		.word	h_ctl_roll_max_setpoint
 383 02cc 00000000 		.word	h_ctl_roll_setpoint
 384 02d0 00000000 		.word	lateral_mode
 386              		.global	__aeabi_dmul
 387              		.global	__aeabi_fdiv
 388              		.section	.text.nav_circle_XY,"ax",%progbits
 389              		.align	2
 390              		.global	nav_circle_XY
 392              	nav_circle_XY:
 393              		@ Function supports interworking.
 394              		@ args = 0, pretend = 0, frame = 24
 395              		@ frame_needed = 0, uses_anonymous_args = 0
 396 0000 F04F2DE9 		stmfd	sp!, {r4, r5, r6, r7, r8, r9, sl, fp, lr}
 397 0004 30349FE5 		ldr	r3, .L64
 398 0008 1CD04DE2 		sub	sp, sp, #28
 399 000c 00B0A0E1 		mov	fp, r0
 400 0010 000093E5 		ldr	r0, [r3, #0]	@ float
 401 0014 0250A0E1 		mov	r5, r2
 402 0018 0C108DE5 		str	r1, [sp, #12]	@ float
 403 001c FEFFFFEB 		bl	__aeabi_fsub
 404 0020 FEFFFFEB 		bl	__aeabi_f2d
 405 0024 14349FE5 		ldr	r3, .L64+4
 406 0028 0080A0E1 		mov	r8, r0
 407 002c 0190A0E1 		mov	r9, r1
 408 0030 000093E5 		ldr	r0, [r3, #0]	@ float
 409 0034 0B10A0E1 		mov	r1, fp
 410 0038 FEFFFFEB 		bl	__aeabi_fsub
 411 003c FEFFFFEB 		bl	__aeabi_f2d
 412 0040 FC439FE5 		ldr	r4, .L64+8
 413 0044 0130A0E1 		mov	r3, r1
 414 0048 0020A0E1 		mov	r2, r0
 415 004c 0910A0E1 		mov	r1, r9
 416 0050 0800A0E1 		mov	r0, r8
 417 0054 006094E5 		ldr	r6, [r4, #0]	@ float
 418 0058 FEFFFFEB 		bl	atan2
 419 005c FEFFFFEB 		bl	__aeabi_d2f
 420 0060 E0339FE5 		ldr	r3, .L64+12
 421 0064 0030D3E5 		ldrb	r3, [r3, #0]	@ zero_extendqisi2
 422 0068 000053E3 		cmp	r3, #0
 423 006c 0070A0E1 		mov	r7, r0
 424 0070 000084E5 		str	r0, [r4, #0]	@ float
 425 0074 2700000A 		beq	.L43
 426 0078 0610A0E1 		mov	r1, r6
 427 007c FEFFFFEB 		bl	__aeabi_fsub
 428 0080 050000EA 		b	.L63
 429              	.L45:
 430 0084 C0239FE5 		ldr	r2, .L64+16
 431 0088 C0339FE5 		ldr	r3, .L64+20
 432 008c 0800A0E1 		mov	r0, r8
 433 0090 0910A0E1 		mov	r1, r9
 434 0094 FEFFFFEB 		bl	__aeabi_dsub
 435 0098 FEFFFFEB 		bl	__aeabi_d2f
 436              	.L63:
 437 009c 0040A0E1 		mov	r4, r0
 438 00a0 FEFFFFEB 		bl	__aeabi_f2d
 439 00a4 A0239FE5 		ldr	r2, .L64+16
 440 00a8 A4339FE5 		ldr	r3, .L64+24
 441 00ac 0080A0E1 		mov	r8, r0
 442 00b0 0190A0E1 		mov	r9, r1
 443 00b4 FEFFFFEB 		bl	__aeabi_dcmpgt
 444 00b8 000050E3 		cmp	r0, #0
 445 00bc F0FFFF1A 		bne	.L45
 446 00c0 060000EA 		b	.L61
 447              	.L47:
 448 00c4 80239FE5 		ldr	r2, .L64+16
 449 00c8 80339FE5 		ldr	r3, .L64+20
 450 00cc 0800A0E1 		mov	r0, r8
 451 00d0 0910A0E1 		mov	r1, r9
 452 00d4 FEFFFFEB 		bl	__aeabi_dadd
 453 00d8 FEFFFFEB 		bl	__aeabi_d2f
 454 00dc 0040A0E1 		mov	r4, r0
 455              	.L61:
 456 00e0 0400A0E1 		mov	r0, r4
 457 00e4 FEFFFFEB 		bl	__aeabi_f2d
 458 00e8 5C239FE5 		ldr	r2, .L64+16
 459 00ec 64339FE5 		ldr	r3, .L64+28
 460 00f0 0080A0E1 		mov	r8, r0
 461 00f4 0190A0E1 		mov	r9, r1
 462 00f8 FEFFFFEB 		bl	__aeabi_dcmplt
 463 00fc 000050E3 		cmp	r0, #0
 464 0100 EFFFFF1A 		bne	.L47
 465 0104 50639FE5 		ldr	r6, .L64+32
 466 0108 0410A0E1 		mov	r1, r4
 467 010c 000096E5 		ldr	r0, [r6, #0]	@ float
 468 0110 FEFFFFEB 		bl	__aeabi_fadd
 469 0114 000086E5 		str	r0, [r6, #0]	@ float
 470              	.L43:
 471 0118 20339FE5 		ldr	r3, .L64+4
 472 011c 0B10A0E1 		mov	r1, fp
 473 0120 000093E5 		ldr	r0, [r3, #0]	@ float
 474 0124 FEFFFFEB 		bl	__aeabi_fsub
 475 0128 0C339FE5 		ldr	r3, .L64
 476 012c 0040A0E1 		mov	r4, r0
 477 0130 0C109DE5 		ldr	r1, [sp, #12]	@ float
 478 0134 000093E5 		ldr	r0, [r3, #0]	@ float
 479 0138 FEFFFFEB 		bl	__aeabi_fsub
 480 013c 0410A0E1 		mov	r1, r4
 481 0140 0060A0E1 		mov	r6, r0
 482 0144 0400A0E1 		mov	r0, r4
 483 0148 FEFFFFEB 		bl	__aeabi_fmul
 484 014c 0610A0E1 		mov	r1, r6
 485 0150 0040A0E1 		mov	r4, r0
 486 0154 0600A0E1 		mov	r0, r6
 487 0158 FEFFFFEB 		bl	__aeabi_fmul
 488 015c 0010A0E1 		mov	r1, r0
 489 0160 0400A0E1 		mov	r0, r4
 490 0164 FEFFFFEB 		bl	__aeabi_fadd
 491 0168 0010A0E3 		mov	r1, #0
 492 016c 0080A0E1 		mov	r8, r0
 493 0170 0500A0E1 		mov	r0, r5
 494 0174 FEFFFFEB 		bl	__aeabi_fcmpgt
 495 0178 E0329FE5 		ldr	r3, .L64+36
 496 017c 000050E3 		cmp	r0, #0
 497 0180 001093E5 		ldr	r1, [r3, #0]	@ float
 498 0184 0500A0E1 		mov	r0, r5
 499 0188 FE65A013 		movne	r6, #1065353216
 500 018c D0629F05 		ldreq	r6, .L64+40
 501 0190 FEFFFFEB 		bl	__aeabi_fsub
 502 0194 0241C0E3 		bic	r4, r0, #-2147483648
 503 0198 C8129FE5 		ldr	r1, .L64+44
 504 019c 00A0A0E1 		mov	sl, r0
 505 01a0 0400A0E1 		mov	r0, r4
 506 01a4 FEFFFFEB 		bl	__aeabi_fadd
 507 01a8 0010A0E1 		mov	r1, r0
 508 01ac FEFFFFEB 		bl	__aeabi_fmul
 509 01b0 0010A0E1 		mov	r1, r0
 510 01b4 0800A0E1 		mov	r0, r8
 511 01b8 FEFFFFEB 		bl	__aeabi_fcmpgt
 512 01bc 000050E3 		cmp	r0, #0
 513 01c0 0190A0E3 		mov	r9, #1
 514 01c4 0090A003 		moveq	r9, #0
 515 01c8 FF9019E2 		ands	r9, r9, #255
 516 01cc 2000001A 		bne	.L58
 517 01d0 90129FE5 		ldr	r1, .L64+44
 518 01d4 0400A0E1 		mov	r0, r4
 519 01d8 FEFFFFEB 		bl	__aeabi_fsub
 520 01dc 0010A0E1 		mov	r1, r0
 521 01e0 FEFFFFEB 		bl	__aeabi_fmul
 522 01e4 0010A0E1 		mov	r1, r0
 523 01e8 0800A0E1 		mov	r0, r8
 524 01ec FEFFFFEB 		bl	__aeabi_fcmplt
 525 01f0 000050E3 		cmp	r0, #0
 526 01f4 0150A0E3 		mov	r5, #1
 527 01f8 0950A001 		moveq	r5, r9
 528 01fc FF0015E3 		tst	r5, #255
 529 0200 1300001A 		bne	.L58
 530 0204 60329FE5 		ldr	r3, .L64+48
 531 0208 000093E5 		ldr	r0, [r3, #0]	@ float
 532 020c 0010A0E1 		mov	r1, r0
 533 0210 FEFFFFEB 		bl	__aeabi_fmul
 534 0214 FEFFFFEB 		bl	__aeabi_f2d
 535 0218 0080A0E1 		mov	r8, r0
 536 021c 0A00A0E1 		mov	r0, sl
 537 0220 0190A0E1 		mov	r9, r1
 538 0224 FEFFFFEB 		bl	__aeabi_f2d
 539 0228 40229FE5 		ldr	r2, .L64+52
 540 022c 40329FE5 		ldr	r3, .L64+56
 541 0230 FEFFFFEB 		bl	__aeabi_dmul
 542 0234 0020A0E1 		mov	r2, r0
 543 0238 0130A0E1 		mov	r3, r1
 544 023c 0800A0E1 		mov	r0, r8
 545 0240 0910A0E1 		mov	r1, r9
 546 0244 FEFFFFEB 		bl	__aeabi_ddiv
 547 0248 FEFFFFEB 		bl	atan
 548 024c FEFFFFEB 		bl	__aeabi_d2f
 549 0250 000000EA 		b	.L50
 550              	.L58:
 551 0254 0000A0E3 		mov	r0, #0
 552              	.L50:
 553 0258 18329FE5 		ldr	r3, .L64+60
 554 025c 0410A0E1 		mov	r1, r4
 555 0260 000083E5 		str	r0, [r3, #0]	@ float
 556 0264 FC019FE5 		ldr	r0, .L64+44
 557 0268 FEFFFFEB 		bl	__aeabi_fdiv
 558 026c 0050A0E1 		mov	r5, r0
 559 0270 FEFFFFEB 		bl	__aeabi_f2d
 560 0274 D0219FE5 		ldr	r2, .L64+16
 561 0278 FC319FE5 		ldr	r3, .L64+64
 562 027c FEFFFFEB 		bl	__aeabi_dcmplt
 563 0280 000050E3 		cmp	r0, #0
 564 0284 F4519F05 		ldreq	r5, .L64+68
 565 0288 0500A0E1 		mov	r0, r5
 566 028c FEFFFFEB 		bl	__aeabi_f2d
 567 0290 B4219FE5 		ldr	r2, .L64+16
 568 0294 E8319FE5 		ldr	r3, .L64+72
 569 0298 FEFFFFEB 		bl	__aeabi_dcmpgt
 570 029c 000050E3 		cmp	r0, #0
 571 02a0 E0519F05 		ldreq	r5, .L64+76
 572 02a4 0600A0E1 		mov	r0, r6
 573 02a8 0510A0E1 		mov	r1, r5
 574 02ac FEFFFFEB 		bl	__aeabi_fmul
 575 02b0 0010A0E1 		mov	r1, r0
 576 02b4 0700A0E1 		mov	r0, r7
 577 02b8 FEFFFFEB 		bl	__aeabi_fsub
 578 02bc C8319FE5 		ldr	r3, .L64+80
 579 02c0 0220A0E3 		mov	r2, #2
 580 02c4 0020C3E5 		strb	r2, [r3, #0]
 581 02c8 C0319FE5 		ldr	r3, .L64+84
 582 02cc 003093E5 		ldr	r3, [r3, #0]
 583 02d0 020053E1 		cmp	r3, r2
 584 02d4 0080A0E1 		mov	r8, r0
 585 02d8 1500001A 		bne	.L55
 586 02dc 0400A0E1 		mov	r0, r4
 587 02e0 FEFFFFEB 		bl	__aeabi_f2d
 588 02e4 0060A0E1 		mov	r6, r0
 589 02e8 0500A0E1 		mov	r0, r5
 590 02ec 0170A0E1 		mov	r7, r1
 591 02f0 FEFFFFEB 		bl	__aeabi_f2d
 592 02f4 FEFFFFEB 		bl	cos
 593 02f8 0020A0E1 		mov	r2, r0
 594 02fc 0130A0E1 		mov	r3, r1
 595 0300 0600A0E1 		mov	r0, r6
 596 0304 0710A0E1 		mov	r1, r7
 597 0308 FEFFFFEB 		bl	__aeabi_ddiv
 598 030c 0620A0E1 		mov	r2, r6
 599 0310 0730A0E1 		mov	r3, r7
 600 0314 FEFFFFEB 		bl	__aeabi_dsub
 601 0318 0020A0E1 		mov	r2, r0
 602 031c 0130A0E1 		mov	r3, r1
 603 0320 0600A0E1 		mov	r0, r6
 604 0324 0710A0E1 		mov	r1, r7
 605 0328 FEFFFFEB 		bl	__aeabi_dadd
 606 032c FEFFFFEB 		bl	__aeabi_d2f
 607 0330 0040A0E1 		mov	r4, r0
 608              	.L55:
 609 0334 0800A0E1 		mov	r0, r8
 610 0338 FEFFFFEB 		bl	__aeabi_f2d
 611 033c 0060A0E1 		mov	r6, r0
 612 0340 0170A0E1 		mov	r7, r1
 613 0344 FEFFFFEB 		bl	cos
 614 0348 0020A0E1 		mov	r2, r0
 615 034c 0400A0E1 		mov	r0, r4
 616 0350 08208DE5 		str	r2, [sp, #8]
 617 0354 04108DE5 		str	r1, [sp, #4]
 618 0358 FEFFFFEB 		bl	__aeabi_f2d
 619 035c 0080A0E1 		mov	r8, r0
 620 0360 0190A0E1 		mov	r9, r1
 621 0364 0600A0E1 		mov	r0, r6
 622 0368 0710A0E1 		mov	r1, r7
 623 036c FEFFFFEB 		bl	sin
 624 0370 10008DE5 		str	r0, [sp, #16]
 625 0374 14108DE5 		str	r1, [sp, #20]
 626 0378 0B00A0E1 		mov	r0, fp
 627 037c FEFFFFEB 		bl	__aeabi_f2d
 628 0380 08209DE5 		ldr	r2, [sp, #8]
 629 0384 04309DE5 		ldr	r3, [sp, #4]
 630 0388 0040A0E1 		mov	r4, r0
 631 038c 0150A0E1 		mov	r5, r1
 632 0390 0200A0E1 		mov	r0, r2
 633 0394 0310A0E1 		mov	r1, r3
 634 0398 0820A0E1 		mov	r2, r8
 635 039c 0930A0E1 		mov	r3, r9
 636 03a0 FEFFFFEB 		bl	__aeabi_dmul
 637 03a4 0020A0E1 		mov	r2, r0
 638 03a8 0130A0E1 		mov	r3, r1
 639 03ac 0400A0E1 		mov	r0, r4
 640 03b0 0510A0E1 		mov	r1, r5
 641 03b4 FEFFFFEB 		bl	__aeabi_dadd
 642 03b8 FEFFFFEB 		bl	__aeabi_d2f
 643 03bc 0040A0E1 		mov	r4, r0
 644 03c0 0C009DE5 		ldr	r0, [sp, #12]	@ float
 645 03c4 FEFFFFEB 		bl	__aeabi_f2d
 646 03c8 0820A0E1 		mov	r2, r8
 647 03cc 0060A0E1 		mov	r6, r0
 648 03d0 0170A0E1 		mov	r7, r1
 649 03d4 0930A0E1 		mov	r3, r9
 650 03d8 10108DE2 		add	r1, sp, #16
 651 03dc 030091E8 		ldmia	r1, {r0-r1}
 652 03e0 FEFFFFEB 		bl	__aeabi_dmul
 653 03e4 0020A0E1 		mov	r2, r0
 654 03e8 0130A0E1 		mov	r3, r1
 655 03ec 0600A0E1 		mov	r0, r6
 656 03f0 0710A0E1 		mov	r1, r7
 657 03f4 FEFFFFEB 		bl	__aeabi_dadd
 658 03f8 FEFFFFEB 		bl	__aeabi_d2f
 659 03fc 0010A0E1 		mov	r1, r0
 660 0400 0400A0E1 		mov	r0, r4
 661 0404 FEFFFFEB 		bl	fly_to_xy
 662 0408 38309FE5 		ldr	r3, .L64+12
 663 040c 0120A0E3 		mov	r2, #1
 664 0410 0020C3E5 		strb	r2, [r3, #0]
 665 0414 78309FE5 		ldr	r3, .L64+88
 666 0418 0C209DE5 		ldr	r2, [sp, #12]	@ float
 667 041c 00B083E5 		str	fp, [r3, #0]	@ float
 668 0420 70309FE5 		ldr	r3, .L64+92
 669 0424 002083E5 		str	r2, [r3, #0]	@ float
 670 0428 6C309FE5 		ldr	r3, .L64+96
 671 042c 00A083E5 		str	sl, [r3, #0]	@ float
 672 0430 1CD08DE2 		add	sp, sp, #28
 673 0434 F04FBDE8 		ldmfd	sp!, {r4, r5, r6, r7, r8, r9, sl, fp, lr}
 674 0438 1EFF2FE1 		bx	lr
 675              	.L65:
 676              		.align	2
 677              	.L64:
 678 043c 00000000 		.word	estimator_y
 679 0440 00000000 		.word	estimator_x
 680 0444 00000000 		.word	nav_circle_trigo_qdr
 681 0448 00000000 		.word	.LANCHOR2
 682 044c 182D4454 		.word	1413754136
 683 0450 FB211940 		.word	1075388923
 684 0454 FB210940 		.word	1074340347
 685 0458 FB2109C0 		.word	-1073143301
 686 045c 00000000 		.word	nav_circle_radians
 687 0460 00000000 		.word	nav_shift
 688 0464 000080BF 		.word	-1082130432
 689 0468 0000B442 		.word	1119092736
 690 046c 00000000 		.word	estimator_hspeed_mod
 691 0470 E9263108 		.word	137438953
 692 0474 AC9C2340 		.word	1076075692
 693 0478 00000000 		.word	.LANCHOR4
 694 047c FB21E93F 		.word	1072243195
 695 0480 DB0F493F 		.word	1061752795
 696 0484 FB21C93F 		.word	1070146043
 697 0488 DB0F493E 		.word	1044975579
 698 048c 00000000 		.word	horizontal_mode
 699 0490 00000000 		.word	nav_mode
 700 0494 00000000 		.word	nav_circle_x
 701 0498 00000000 		.word	nav_circle_y
 702 049c 00000000 		.word	nav_circle_radius
 704              		.section	.text.nav_route_xy,"ax",%progbits
 705              		.align	2
 706              		.global	nav_route_xy
 708              	nav_route_xy:
 709              		@ Function supports interworking.
 710              		@ args = 0, pretend = 0, frame = 8
 711              		@ frame_needed = 0, uses_anonymous_args = 0
 712 0000 F74F2DE9 		stmfd	sp!, {r0, r1, r2, r4, r5, r6, r7, r8, r9, sl, fp, lr}
 713 0004 0060A0E1 		mov	r6, r0
 714 0008 0170A0E1 		mov	r7, r1
 715 000c 0200A0E1 		mov	r0, r2
 716 0010 0610A0E1 		mov	r1, r6
 717 0014 02A0A0E1 		mov	sl, r2
 718 0018 0390A0E1 		mov	r9, r3
 719 001c FEFFFFEB 		bl	__aeabi_fsub
 720 0020 0710A0E1 		mov	r1, r7
 721 0024 0050A0E1 		mov	r5, r0
 722 0028 0900A0E1 		mov	r0, r9
 723 002c FEFFFFEB 		bl	__aeabi_fsub
 724 0030 0510A0E1 		mov	r1, r5
 725 0034 0040A0E1 		mov	r4, r0
 726 0038 0500A0E1 		mov	r0, r5
 727 003c FEFFFFEB 		bl	__aeabi_fmul
 728 0040 0410A0E1 		mov	r1, r4
 729 0044 0080A0E1 		mov	r8, r0
 730 0048 0400A0E1 		mov	r0, r4
 731 004c FEFFFFEB 		bl	__aeabi_fmul
 732 0050 0010A0E1 		mov	r1, r0
 733 0054 0800A0E1 		mov	r0, r8
 734 0058 FEFFFFEB 		bl	__aeabi_fadd
 735 005c FE15A0E3 		mov	r1, #1065353216
 736 0060 0080A0E1 		mov	r8, r0
 737 0064 FEFFFFEB 		bl	__aeabi_fcmpgt
 738 0068 8C319FE5 		ldr	r3, .L73
 739 006c 000050E3 		cmp	r0, #0
 740 0070 0610A0E1 		mov	r1, r6
 741 0074 000093E5 		ldr	r0, [r3, #0]	@ float
 742 0078 FE85A003 		moveq	r8, #1065353216
 743 007c FEFFFFEB 		bl	__aeabi_fsub
 744 0080 0510A0E1 		mov	r1, r5
 745 0084 FEFFFFEB 		bl	__aeabi_fmul
 746 0088 70319FE5 		ldr	r3, .L73+4
 747 008c 00B0A0E1 		mov	fp, r0
 748 0090 0710A0E1 		mov	r1, r7
 749 0094 000093E5 		ldr	r0, [r3, #0]	@ float
 750 0098 FEFFFFEB 		bl	__aeabi_fsub
 751 009c 0410A0E1 		mov	r1, r4
 752 00a0 FEFFFFEB 		bl	__aeabi_fmul
 753 00a4 0010A0E1 		mov	r1, r0
 754 00a8 0B00A0E1 		mov	r0, fp
 755 00ac FEFFFFEB 		bl	__aeabi_fadd
 756 00b0 0810A0E1 		mov	r1, r8
 757 00b4 FEFFFFEB 		bl	__aeabi_fdiv
 758 00b8 00B0A0E1 		mov	fp, r0
 759 00bc 0800A0E1 		mov	r0, r8
 760 00c0 FEFFFFEB 		bl	__aeabi_f2d
 761 00c4 FEFFFFEB 		bl	sqrt
 762 00c8 FEFFFFEB 		bl	__aeabi_d2f
 763 00cc 30319FE5 		ldr	r3, .L73+8
 764 00d0 0080A0E1 		mov	r8, r0
 765 00d4 000083E5 		str	r0, [r3, #0]	@ float
 766 00d8 0B00A0E1 		mov	r0, fp
 767 00dc FEFFFFEB 		bl	__aeabi_f2d
 768 00e0 03008DE8 		stmia	sp, {r0-r1}
 769 00e4 0810A0E1 		mov	r1, r8
 770 00e8 18019FE5 		ldr	r0, .L73+12
 771 00ec FEFFFFEB 		bl	__aeabi_fdiv
 772 00f0 0010A0E3 		mov	r1, #0
 773 00f4 00B0A0E1 		mov	fp, r0
 774 00f8 FEFFFFEB 		bl	__aeabi_fcmpgt
 775 00fc 000050E3 		cmp	r0, #0
 776 0100 0020A003 		moveq	r2, #0
 777 0104 0030A003 		moveq	r3, #0
 778 0108 0300000A 		beq	.L68
 779 010c 0B00A0E1 		mov	r0, fp
 780 0110 FEFFFFEB 		bl	__aeabi_f2d
 781 0114 0020A0E1 		mov	r2, r0
 782 0118 0130A0E1 		mov	r3, r1
 783              	.L68:
 784 011c 03009DE8 		ldmia	sp, {r0-r1}
 785 0120 FEFFFFEB 		bl	__aeabi_dadd
 786 0124 FEFFFFEB 		bl	__aeabi_d2f
 787 0128 DC309FE5 		ldr	r3, .L73+16
 788 012c DC209FE5 		ldr	r2, .L73+20
 789 0130 000083E5 		str	r0, [r3, #0]	@ float
 790 0134 0130A0E3 		mov	r3, #1
 791 0138 0030C2E5 		strb	r3, [r2, #0]
 792 013c D0209FE5 		ldr	r2, .L73+24
 793 0140 006082E5 		str	r6, [r2, #0]	@ float
 794 0144 CC209FE5 		ldr	r2, .L73+28
 795 0148 007082E5 		str	r7, [r2, #0]	@ float
 796 014c C8209FE5 		ldr	r2, .L73+32
 797 0150 00A082E5 		str	sl, [r2, #0]	@ float
 798 0154 C4209FE5 		ldr	r2, .L73+36
 799 0158 009082E5 		str	r9, [r2, #0]	@ float
 800 015c C0209FE5 		ldr	r2, .L73+40
 801 0160 0030C2E5 		strb	r3, [r2, #0]
 802 0164 BC309FE5 		ldr	r3, .L73+44
 803 0168 0510A0E1 		mov	r1, r5
 804 016c 00A093E5 		ldr	sl, [r3, #0]	@ float
 805 0170 00B0A0E1 		mov	fp, r0
 806 0174 FEFFFFEB 		bl	__aeabi_fmul
 807 0178 0010A0E1 		mov	r1, r0
 808 017c 0600A0E1 		mov	r0, r6
 809 0180 FEFFFFEB 		bl	__aeabi_fadd
 810 0184 0410A0E1 		mov	r1, r4
 811 0188 0060A0E1 		mov	r6, r0
 812 018c 0A00A0E1 		mov	r0, sl
 813 0190 FEFFFFEB 		bl	__aeabi_fmul
 814 0194 0810A0E1 		mov	r1, r8
 815 0198 FEFFFFEB 		bl	__aeabi_fdiv
 816 019c 0010A0E1 		mov	r1, r0
 817 01a0 0600A0E1 		mov	r0, r6
 818 01a4 FEFFFFEB 		bl	__aeabi_fadd
 819 01a8 0410A0E1 		mov	r1, r4
 820 01ac 0060A0E1 		mov	r6, r0
 821 01b0 0B00A0E1 		mov	r0, fp
 822 01b4 FEFFFFEB 		bl	__aeabi_fmul
 823 01b8 0010A0E1 		mov	r1, r0
 824 01bc 0700A0E1 		mov	r0, r7
 825 01c0 FEFFFFEB 		bl	__aeabi_fadd
 826 01c4 0510A0E1 		mov	r1, r5
 827 01c8 0040A0E1 		mov	r4, r0
 828 01cc 0A00A0E1 		mov	r0, sl
 829 01d0 FEFFFFEB 		bl	__aeabi_fmul
 830 01d4 0810A0E1 		mov	r1, r8
 831 01d8 FEFFFFEB 		bl	__aeabi_fdiv
 832 01dc 0010A0E1 		mov	r1, r0
 833 01e0 0400A0E1 		mov	r0, r4
 834 01e4 FEFFFFEB 		bl	__aeabi_fsub
 835 01e8 0010A0E1 		mov	r1, r0
 836 01ec 0600A0E1 		mov	r0, r6
 837 01f0 0CD08DE2 		add	sp, sp, #12
 838 01f4 F04FBDE8 		ldmfd	sp!, {r4, r5, r6, r7, r8, r9, sl, fp, lr}
 839 01f8 FEFFFFEA 		b	fly_to_xy
 840              	.L74:
 841              		.align	2
 842              	.L73:
 843 01fc 00000000 		.word	estimator_x
 844 0200 00000000 		.word	estimator_y
 845 0204 00000000 		.word	.LANCHOR5
 846 0208 0000B442 		.word	1119092736
 847 020c 00000000 		.word	.LANCHOR6
 848 0210 00000000 		.word	.LANCHOR3
 849 0214 00000000 		.word	nav_segment_x_1
 850 0218 00000000 		.word	nav_segment_y_1
 851 021c 00000000 		.word	nav_segment_x_2
 852 0220 00000000 		.word	nav_segment_y_2
 853 0224 00000000 		.word	horizontal_mode
 854 0228 00000000 		.word	nav_shift
 856              		.section	.text.compute_dist2_to_home,"ax",%progbits
 857              		.align	2
 858              		.global	compute_dist2_to_home
 860              	compute_dist2_to_home:
 861              		@ Function supports interworking.
 862              		@ args = 0, pretend = 0, frame = 0
 863              		@ frame_needed = 0, uses_anonymous_args = 0
 864 0000 70402DE9 		stmfd	sp!, {r4, r5, r6, lr}
 865 0004 78309FE5 		ldr	r3, .L77
 866 0008 78409FE5 		ldr	r4, .L77+4
 867 000c 001093E5 		ldr	r1, [r3, #0]	@ float
 868 0010 0C0094E5 		ldr	r0, [r4, #12]	@ float
 869 0014 FEFFFFEB 		bl	__aeabi_fsub
 870 0018 6C309FE5 		ldr	r3, .L77+8
 871 001c 0060A0E1 		mov	r6, r0
 872 0020 001093E5 		ldr	r1, [r3, #0]	@ float
 873 0024 100094E5 		ldr	r0, [r4, #16]	@ float
 874 0028 FEFFFFEB 		bl	__aeabi_fsub
 875 002c 0610A0E1 		mov	r1, r6
 876 0030 0050A0E1 		mov	r5, r0
 877 0034 0600A0E1 		mov	r0, r6
 878 0038 FEFFFFEB 		bl	__aeabi_fmul
 879 003c 0510A0E1 		mov	r1, r5
 880 0040 0040A0E1 		mov	r4, r0
 881 0044 0500A0E1 		mov	r0, r5
 882 0048 FEFFFFEB 		bl	__aeabi_fmul
 883 004c 0010A0E1 		mov	r1, r0
 884 0050 0400A0E1 		mov	r0, r4
 885 0054 FEFFFFEB 		bl	__aeabi_fadd
 886 0058 30309FE5 		ldr	r3, .L77+12
 887 005c 30109FE5 		ldr	r1, .L77+16
 888 0060 000083E5 		str	r0, [r3, #0]	@ float
 889 0064 FEFFFFEB 		bl	__aeabi_fcmpgt
 890 0068 28309FE5 		ldr	r3, .L77+20
 891 006c 000050E3 		cmp	r0, #0
 892 0070 0140A0E3 		mov	r4, #1
 893 0074 0040A003 		moveq	r4, #0
 894 0078 0040C3E5 		strb	r4, [r3, #0]
 895 007c 7040BDE8 		ldmfd	sp!, {r4, r5, r6, lr}
 896 0080 1EFF2FE1 		bx	lr
 897              	.L78:
 898              		.align	2
 899              	.L77:
 900 0084 00000000 		.word	estimator_x
 901 0088 00000000 		.word	.LANCHOR7
 902 008c 00000000 		.word	estimator_y
 903 0090 00000000 		.word	dist2_to_home
 904 0094 4054094A 		.word	1242125376
 905 0098 00000000 		.word	too_far_from_home
 907              		.global	__aeabi_i2d
 908              		.global	__aeabi_d2uiz
 909              		.global	__aeabi_f2iz
 910              		.section	.text.nav_reset_reference,"ax",%progbits
 911              		.align	2
 912              		.global	nav_reset_reference
 914              	nav_reset_reference:
 915              		@ Function supports interworking.
 916              		@ args = 0, pretend = 0, frame = 32
 917              		@ frame_needed = 0, uses_anonymous_args = 0
 918 0000 F0402DE9 		stmfd	sp!, {r4, r5, r6, r7, lr}
 919 0004 F4409FE5 		ldr	r4, .L80
 920 0008 24D04DE2 		sub	sp, sp, #36
 921 000c 0C0094E5 		ldr	r0, [r4, #12]
 922 0010 FEFFFFEB 		bl	__aeabi_i2d
 923 0014 0020A0E3 		mov	r2, #0
 924 0018 E4309FE5 		ldr	r3, .L80+4
 925 001c FEFFFFEB 		bl	__aeabi_ddiv
 926 0020 E0209FE5 		ldr	r2, .L80+8
 927 0024 E0309FE5 		ldr	r3, .L80+12
 928 0028 0060A0E1 		mov	r6, r0
 929 002c 0170A0E1 		mov	r7, r1
 930 0030 FEFFFFEB 		bl	__aeabi_dmul
 931 0034 0020A0E3 		mov	r2, #0
 932 0038 D0309FE5 		ldr	r3, .L80+16
 933 003c FEFFFFEB 		bl	__aeabi_dadd
 934 0040 0020A0E3 		mov	r2, #0
 935 0044 C8309FE5 		ldr	r3, .L80+20
 936 0048 FEFFFFEB 		bl	__aeabi_ddiv
 937 004c 0020A0E3 		mov	r2, #0
 938 0050 C0309FE5 		ldr	r3, .L80+24
 939 0054 FEFFFFEB 		bl	__aeabi_dadd
 940 0058 FEFFFFEB 		bl	__aeabi_d2uiz
 941 005c B8309FE5 		ldr	r3, .L80+28
 942 0060 FF5000E2 		and	r5, r0, #255
 943 0064 0050C3E5 		strb	r5, [r3, #0]
 944 0068 100094E5 		ldr	r0, [r4, #16]
 945 006c FEFFFFEB 		bl	__aeabi_i2d
 946 0070 0020A0E3 		mov	r2, #0
 947 0074 88309FE5 		ldr	r3, .L80+4
 948 0078 FEFFFFEB 		bl	__aeabi_ddiv
 949 007c FEFFFFEB 		bl	__aeabi_d2f
 950 0080 0710A0E1 		mov	r1, r7
 951 0084 18008DE5 		str	r0, [sp, #24]	@ float
 952 0088 0600A0E1 		mov	r0, r6
 953 008c FEFFFFEB 		bl	__aeabi_d2f
 954 0090 14108DE2 		add	r1, sp, #20
 955 0094 14008DE5 		str	r0, [sp, #20]	@ float
 956 0098 04008DE2 		add	r0, sp, #4
 957 009c 1050CDE5 		strb	r5, [sp, #16]
 958 00a0 FEFFFFEB 		bl	utm_of_lla_f
 959 00a4 08009DE5 		ldr	r0, [sp, #8]	@ float
 960 00a8 FEFFFFEB 		bl	__aeabi_f2iz
 961 00ac 6C309FE5 		ldr	r3, .L80+32
 962 00b0 000083E5 		str	r0, [r3, #0]
 963 00b4 04009DE5 		ldr	r0, [sp, #4]	@ float
 964 00b8 FEFFFFEB 		bl	__aeabi_f2iz
 965 00bc 60509FE5 		ldr	r5, .L80+36
 966 00c0 60309FE5 		ldr	r3, .L80+40
 967 00c4 002095E5 		ldr	r2, [r5, #0]	@ float
 968 00c8 000083E5 		str	r0, [r3, #0]
 969 00cc 58309FE5 		ldr	r3, .L80+44
 970 00d0 280094E5 		ldr	r0, [r4, #40]
 971 00d4 002083E5 		str	r2, [r3, #0]	@ float
 972 00d8 FEFFFFEB 		bl	__aeabi_i2d
 973 00dc 0020A0E3 		mov	r2, #0
 974 00e0 48309FE5 		ldr	r3, .L80+48
 975 00e4 FEFFFFEB 		bl	__aeabi_ddiv
 976 00e8 FEFFFFEB 		bl	__aeabi_d2f
 977 00ec 000085E5 		str	r0, [r5, #0]	@ float
 978 00f0 0000A0E3 		mov	r0, #0
 979 00f4 24D08DE2 		add	sp, sp, #36
 980 00f8 F040BDE8 		ldmfd	sp!, {r4, r5, r6, r7, lr}
 981 00fc 1EFF2FE1 		bx	lr
 982              	.L81:
 983              		.align	2
 984              	.L80:
 985 0100 00000000 		.word	gps
 986 0104 D0126341 		.word	1097011920
 987 0108 F8C1631A 		.word	442745336
 988 010c DCA54C40 		.word	1078765020
 989 0110 00806640 		.word	1080459264
 990 0114 00001840 		.word	1075314688
 991 0118 0000F03F 		.word	1072693248
 992 011c 00000000 		.word	.LANCHOR8
 993 0120 00000000 		.word	.LANCHOR9
 994 0124 00000000 		.word	ground_alt
 995 0128 00000000 		.word	.LANCHOR10
 996 012c 00000000 		.word	.LANCHOR11
 997 0130 00408F40 		.word	1083129856
 999              		.section	.text.nav_update_waypoints_alt,"ax",%progbits
 1000              		.align	2
 1001              		.global	nav_update_waypoints_alt
 1003              	nav_update_waypoints_alt:
 1004              		@ Function supports interworking.
 1005              		@ args = 0, pretend = 0, frame = 0
 1006              		@ frame_needed = 0, uses_anonymous_args = 0
 1007 0000 38402DE9 		stmfd	sp!, {r3, r4, r5, lr}
 1008 0004 40309FE5 		ldr	r3, .L83
 1009 0008 000093E5 		ldr	r0, [r3, #0]	@ float
 1010 000c 3C309FE5 		ldr	r3, .L83+4
 1011 0010 001093E5 		ldr	r1, [r3, #0]	@ float
 1012 0014 FEFFFFEB 		bl	__aeabi_fsub
 1013 0018 34409FE5 		ldr	r4, .L83+8
 1014 001c 0050A0E1 		mov	r5, r0
 1015 0020 0510A0E1 		mov	r1, r5
 1016 0024 080094E5 		ldr	r0, [r4, #8]	@ float
 1017 0028 FEFFFFEB 		bl	__aeabi_fadd
 1018 002c 0510A0E1 		mov	r1, r5
 1019 0030 080084E5 		str	r0, [r4, #8]	@ float
 1020 0034 140094E5 		ldr	r0, [r4, #20]	@ float
 1021 0038 FEFFFFEB 		bl	__aeabi_fadd
 1022 003c 140084E5 		str	r0, [r4, #20]	@ float
 1023 0040 0000A0E3 		mov	r0, #0
 1024 0044 3840BDE8 		ldmfd	sp!, {r3, r4, r5, lr}
 1025 0048 1EFF2FE1 		bx	lr
 1026              	.L84:
 1027              		.align	2
 1028              	.L83:
 1029 004c 00000000 		.word	ground_alt
 1030 0050 00000000 		.word	.LANCHOR11
 1031 0054 00000000 		.word	.LANCHOR7
 1033              		.section	.text.common_nav_periodic_task_4Hz,"ax",%progbits
 1034              		.align	2
 1035              		.global	common_nav_periodic_task_4Hz
 1037              	common_nav_periodic_task_4Hz:
 1038              		@ Function supports interworking.
 1039              		@ args = 0, pretend = 0, frame = 0
 1040              		@ frame_needed = 0, uses_anonymous_args = 0
 1041              		@ link register save eliminated.
 1042 0000 44309FE5 		ldr	r3, .L87
 1043 0004 B020D3E1 		ldrh	r2, [r3, #0]
 1044 0008 012082E2 		add	r2, r2, #1
 1045 000c 0228A0E1 		mov	r2, r2, asl #16
 1046 0010 2228A0E1 		mov	r2, r2, lsr #16
 1047 0014 030052E3 		cmp	r2, #3
 1048 0018 B020C3E1 		strh	r2, [r3, #0]	@ movhi
 1049 001c 1EFF2F91 		bxls	lr
 1050 0020 0020A0E3 		mov	r2, #0
 1051 0024 B020C3E1 		strh	r2, [r3, #0]	@ movhi
 1052 0028 20309FE5 		ldr	r3, .L87+4
 1053 002c B020D3E1 		ldrh	r2, [r3, #0]
 1054 0030 012082E2 		add	r2, r2, #1
 1055 0034 B020C3E1 		strh	r2, [r3, #0]	@ movhi
 1056 0038 14309FE5 		ldr	r3, .L87+8
 1057 003c B020D3E1 		ldrh	r2, [r3, #0]
 1058 0040 012082E2 		add	r2, r2, #1
 1059 0044 B020C3E1 		strh	r2, [r3, #0]	@ movhi
 1060 0048 1EFF2FE1 		bx	lr
 1061              	.L88:
 1062              		.align	2
 1063              	.L87:
 1064 004c 00000000 		.word	.LANCHOR12
 1065 0050 00000000 		.word	stage_time
 1066 0054 00000000 		.word	block_time
 1068              		.global	__aeabi_i2f
 1069              		.section	.text.nav_move_waypoint,"ax",%progbits
 1070              		.align	2
 1071              		.global	nav_move_waypoint
 1073              	nav_move_waypoint:
 1074              		@ Function supports interworking.
 1075              		@ args = 0, pretend = 0, frame = 0
 1076              		@ frame_needed = 0, uses_anonymous_args = 0
 1077 0000 010050E3 		cmp	r0, #1
 1078 0004 F0472DE9 		stmfd	sp!, {r4, r5, r6, r7, r8, r9, sl, lr}
 1079 0008 0040A0E1 		mov	r4, r0
 1080 000c 0160A0E1 		mov	r6, r1
 1081 0010 0250A0E1 		mov	r5, r2
 1082 0014 0380A0E1 		mov	r8, r3
 1083 0018 3900008A 		bhi	.L89
 1084 001c E8309FE5 		ldr	r3, .L95
 1085 0020 000093E5 		ldr	r0, [r3, #0]
 1086 0024 FEFFFFEB 		bl	__aeabi_i2f
 1087 0028 E0A09FE5 		ldr	sl, .L95+4
 1088 002c 0C709AE5 		ldr	r7, [sl, #12]	@ float
 1089 0030 0010A0E1 		mov	r1, r0
 1090 0034 0600A0E1 		mov	r0, r6
 1091 0038 FEFFFFEB 		bl	__aeabi_fsub
 1092 003c 0710A0E1 		mov	r1, r7
 1093 0040 FEFFFFEB 		bl	__aeabi_fsub
 1094 0044 C8309FE5 		ldr	r3, .L95+8
 1095 0048 0090A0E1 		mov	r9, r0
 1096 004c 000093E5 		ldr	r0, [r3, #0]
 1097 0050 FEFFFFEB 		bl	__aeabi_i2f
 1098 0054 0010A0E1 		mov	r1, r0
 1099 0058 0500A0E1 		mov	r0, r5
 1100 005c FEFFFFEB 		bl	__aeabi_fsub
 1101 0060 10109AE5 		ldr	r1, [sl, #16]	@ float
 1102 0064 FEFFFFEB 		bl	__aeabi_fsub
 1103 0068 A8309FE5 		ldr	r3, .L95+12
 1104 006c 005093E5 		ldr	r5, [r3, #0]	@ float
 1105 0070 00A0A0E1 		mov	sl, r0
 1106 0074 0510A0E1 		mov	r1, r5
 1107 0078 0900A0E1 		mov	r0, r9
 1108 007c FEFFFFEB 		bl	__aeabi_fcmpgt
 1109 0080 000050E3 		cmp	r0, #0
 1110 0084 0560A011 		movne	r6, r5
 1111 0088 0500001A 		bne	.L91
 1112 008c 026185E2 		add	r6, r5, #-2147483648
 1113 0090 0610A0E1 		mov	r1, r6
 1114 0094 0900A0E1 		mov	r0, r9
 1115 0098 FEFFFFEB 		bl	__aeabi_fcmplt
 1116 009c 000050E3 		cmp	r0, #0
 1117 00a0 0960A001 		moveq	r6, r9
 1118              	.L91:
 1119 00a4 0A00A0E1 		mov	r0, sl
 1120 00a8 0510A0E1 		mov	r1, r5
 1121 00ac FEFFFFEB 		bl	__aeabi_fcmpgt
 1122 00b0 000050E3 		cmp	r0, #0
 1123 00b4 0500001A 		bne	.L92
 1124 00b8 025185E2 		add	r5, r5, #-2147483648
 1125 00bc 0510A0E1 		mov	r1, r5
 1126 00c0 0A00A0E1 		mov	r0, sl
 1127 00c4 FEFFFFEB 		bl	__aeabi_fcmplt
 1128 00c8 000050E3 		cmp	r0, #0
 1129 00cc 0A50A001 		moveq	r5, sl
 1130              	.L92:
 1131 00d0 0C30A0E3 		mov	r3, #12
 1132 00d4 0610A0E1 		mov	r1, r6
 1133 00d8 0700A0E1 		mov	r0, r7
 1134 00dc 930404E0 		mul	r4, r3, r4
 1135 00e0 FEFFFFEB 		bl	__aeabi_fadd
 1136 00e4 24A09FE5 		ldr	sl, .L95+4
 1137 00e8 0510A0E1 		mov	r1, r5
 1138 00ec 04008AE7 		str	r0, [sl, r4]	@ float
 1139 00f0 10009AE5 		ldr	r0, [sl, #16]	@ float
 1140 00f4 FEFFFFEB 		bl	__aeabi_fadd
 1141 00f8 04908AE0 		add	r9, sl, r4
 1142 00fc 040089E5 		str	r0, [r9, #4]	@ float
 1143 0100 088089E5 		str	r8, [r9, #8]	@ float
 1144              	.L89:
 1145 0104 F047BDE8 		ldmfd	sp!, {r4, r5, r6, r7, r8, r9, sl, lr}
 1146 0108 1EFF2FE1 		bx	lr
 1147              	.L96:
 1148              		.align	2
 1149              	.L95:
 1150 010c 00000000 		.word	.LANCHOR9
 1151 0110 00000000 		.word	.LANCHOR7
 1152 0114 00000000 		.word	.LANCHOR10
 1153 0118 00000000 		.word	.LANCHOR13
 1155              		.section	.text.nav_home,"ax",%progbits
 1156              		.align	2
 1157              		.global	nav_home
 1159              	nav_home:
 1160              		@ Function supports interworking.
 1161              		@ args = 0, pretend = 0, frame = 0
 1162              		@ frame_needed = 0, uses_anonymous_args = 0
 1163 0000 08402DE9 		stmfd	sp!, {r3, lr}
 1164 0004 58309FE5 		ldr	r3, .L98
 1165 0008 58209FE5 		ldr	r2, .L98+4
 1166 000c 0C0093E5 		ldr	r0, [r3, #12]	@ float
 1167 0010 101093E5 		ldr	r1, [r3, #16]	@ float
 1168 0014 FEFFFFEB 		bl	nav_circle_XY
 1169 0018 4C309FE5 		ldr	r3, .L98+8
 1170 001c 0020A0E3 		mov	r2, #0
 1171 0020 002083E5 		str	r2, [r3, #0]	@ float
 1172 0024 44309FE5 		ldr	r3, .L98+12
 1173 0028 0320A0E3 		mov	r2, #3
 1174 002c 0020C3E5 		strb	r2, [r3, #0]
 1175 0030 3C309FE5 		ldr	r3, .L98+16
 1176 0034 3C109FE5 		ldr	r1, .L98+20
 1177 0038 000093E5 		ldr	r0, [r3, #0]	@ float
 1178 003c FEFFFFEB 		bl	__aeabi_fadd
 1179 0040 34309FE5 		ldr	r3, .L98+24
 1180 0044 000083E5 		str	r0, [r3, #0]	@ float
 1181 0048 FEFFFFEB 		bl	compute_dist2_to_home
 1182 004c 2C309FE5 		ldr	r3, .L98+28
 1183 0050 002093E5 		ldr	r2, [r3, #0]	@ float
 1184 0054 28309FE5 		ldr	r3, .L98+32
 1185 0058 002083E5 		str	r2, [r3, #0]	@ float
 1186 005c 0840BDE8 		ldmfd	sp!, {r3, lr}
 1187 0060 FEFFFFEA 		b	nav_set_altitude
 1188              	.L99:
 1189              		.align	2
 1190              	.L98:
 1191 0064 00000000 		.word	.LANCHOR7
 1192 0068 0000C842 		.word	1120403456
 1193 006c 00000000 		.word	nav_pitch
 1194 0070 00000000 		.word	v_ctl_mode
 1195 0074 00000000 		.word	ground_alt
 1196 0078 00004842 		.word	1112014848
 1197 007c 00000000 		.word	.LANCHOR0
 1198 0080 00000000 		.word	dist2_to_home
 1199 0084 00000000 		.word	dist2_to_wp
 1201              		.section	.text.nav_periodic_task,"ax",%progbits
 1202              		.align	2
 1203              		.global	nav_periodic_task
 1205              	nav_periodic_task:
 1206              		@ Function supports interworking.
 1207              		@ args = 0, pretend = 0, frame = 0
 1208              		@ frame_needed = 0, uses_anonymous_args = 0
 1209 0000 08402DE9 		stmfd	sp!, {r3, lr}
 1210 0004 383E9FE5 		ldr	r3, .L299
 1211 0008 0020A0E3 		mov	r2, #0
 1212 000c 0020C3E5 		strb	r2, [r3, #0]
 1213 0010 FEFFFFEB 		bl	compute_dist2_to_home
 1214 0014 2C3E9FE5 		ldr	r3, .L299+4
 1215 0018 0020A0E3 		mov	r2, #0
 1216 001c 002083E5 		str	r2, [r3, #0]	@ float
 1217 0020 243E9FE5 		ldr	r3, .L299+8
 1218 0024 0020D3E5 		ldrb	r2, [r3, #0]	@ zero_extendqisi2
 1219 0028 1F0052E3 		cmp	r2, #31
 1220 002c 02F19F97 		ldrls	pc, [pc, r2, asl #2]
 1221 0030 730300EA 		b	.L101
 1222              	.L134:
 1223 0034 B4000000 		.word	.L102
 1224 0038 18010000 		.word	.L103
 1225 003c 78010000 		.word	.L104
 1226 0040 D4010000 		.word	.L105
 1227 0044 38020000 		.word	.L106
 1228 0048 9C020000 		.word	.L107
 1229 004c FC020000 		.word	.L108
 1230 0050 5C030000 		.word	.L109
 1231 0054 C0030000 		.word	.L110
 1232 0058 24040000 		.word	.L111
 1233 005c A8040000 		.word	.L112
 1234 0060 2C050000 		.word	.L113
 1235 0064 B0050000 		.word	.L114
 1236 0068 34060000 		.word	.L115
 1237 006c D4060000 		.word	.L116
 1238 0070 38070000 		.word	.L117
 1239 0074 9C070000 		.word	.L118
 1240 0078 00080000 		.word	.L119
 1241 007c 64080000 		.word	.L120
 1242 0080 C8080000 		.word	.L121
 1243 0084 2C090000 		.word	.L122
 1244 0088 90090000 		.word	.L123
 1245 008c F4090000 		.word	.L124
 1246 0090 580A0000 		.word	.L125
 1247 0094 BC0A0000 		.word	.L126
 1248 0098 200B0000 		.word	.L127
 1249 009c 840B0000 		.word	.L128
 1250 00a0 E80B0000 		.word	.L129
 1251 00a4 4C0C0000 		.word	.L130
 1252 00a8 B00C0000 		.word	.L131
 1253 00ac 140D0000 		.word	.L132
 1254 00b0 D80D0000 		.word	.L133
 1255              	.L102:
 1256 00b4 943D9FE5 		ldr	r3, .L299+12
 1257 00b8 0020D3E5 		ldrb	r2, [r3, #0]	@ zero_extendqisi2
 1258 00bc 000052E3 		cmp	r2, #0
 1259 00c0 0200000A 		beq	.L136
 1260 00c4 020052E3 		cmp	r2, #2
 1261 00c8 0B00008A 		bhi	.L135
 1262 00cc 060000EA 		b	.L274
 1263              	.L136:
 1264 00d0 7C2D9FE5 		ldr	r2, .L299+16
 1265 00d4 1E1CA0E3 		mov	r1, #7680
 1266 00d8 BA10C2E1 		strh	r1, [r2, #10]	@ movhi
 1267 00dc 0120A0E3 		mov	r2, #1
 1268 00e0 0020C3E5 		strb	r2, [r3, #0]
 1269 00e4 FEFFFFEB 		bl	nav_init_stage
 1270 00e8 450300EA 		b	.L101
 1271              	.L274:
 1272              	.L137:
 1273 00ec 0220A0E3 		mov	r2, #2
 1274 00f0 0020C3E5 		strb	r2, [r3, #0]
 1275 00f4 FEFFFFEB 		bl	nav_init_stage
 1276 00f8 410300EA 		b	.L101
 1277              	.L135:
 1278 00fc 0320A0E3 		mov	r2, #3
 1279 0100 0020C3E5 		strb	r2, [r3, #0]
 1280 0104 403D9FE5 		ldr	r3, .L299+8
 1281 0108 0120A0E3 		mov	r2, #1
 1282 010c 0020C3E5 		strb	r2, [r3, #0]
 1283 0110 FEFFFFEB 		bl	nav_init_block
 1284 0114 3A0300EA 		b	.L101
 1285              	.L103:
 1286 0118 303D9FE5 		ldr	r3, .L299+12
 1287 011c 0020D3E5 		ldrb	r2, [r3, #0]	@ zero_extendqisi2
 1288 0120 000052E3 		cmp	r2, #0
 1289 0124 0300000A 		beq	.L139
 1290 0128 020052E3 		cmp	r2, #2
 1291 012c 0220A0E3 		mov	r2, #2
 1292 0130 0A00008A 		bhi	.L138
 1293 0134 060000EA 		b	.L275
 1294              	.L139:
 1295 0138 142D9FE5 		ldr	r2, .L299+16
 1296 013c E21CA0E3 		mov	r1, #57856
 1297 0140 BA10C2E1 		strh	r1, [r2, #10]	@ movhi
 1298 0144 0120A0E3 		mov	r2, #1
 1299 0148 0020C3E5 		strb	r2, [r3, #0]
 1300 014c FEFFFFEB 		bl	nav_init_stage
 1301 0150 2B0300EA 		b	.L101
 1302              	.L275:
 1303              	.L140:
 1304 0154 0020C3E5 		strb	r2, [r3, #0]
 1305 0158 FEFFFFEB 		bl	nav_init_stage
 1306 015c 280300EA 		b	.L101
 1307              	.L138:
 1308 0160 0310A0E3 		mov	r1, #3
 1309 0164 0010C3E5 		strb	r1, [r3, #0]
 1310 0168 DC3C9FE5 		ldr	r3, .L299+8
 1311 016c 0020C3E5 		strb	r2, [r3, #0]
 1312 0170 FEFFFFEB 		bl	nav_init_block
 1313 0174 220300EA 		b	.L101
 1314              	.L104:
 1315 0178 D03C9FE5 		ldr	r3, .L299+12
 1316 017c 0020D3E5 		ldrb	r2, [r3, #0]	@ zero_extendqisi2
 1317 0180 000052E3 		cmp	r2, #0
 1318 0184 0200000A 		beq	.L142
 1319 0188 020052E3 		cmp	r2, #2
 1320 018c 0A00008A 		bhi	.L141
 1321 0190 050000EA 		b	.L276
 1322              	.L142:
 1323 0194 B81C9FE5 		ldr	r1, .L299+16
 1324 0198 BA20C1E1 		strh	r2, [r1, #10]	@ movhi
 1325 019c 0120A0E3 		mov	r2, #1
 1326 01a0 0020C3E5 		strb	r2, [r3, #0]
 1327 01a4 FEFFFFEB 		bl	nav_init_stage
 1328 01a8 150300EA 		b	.L101
 1329              	.L276:
 1330              	.L143:
 1331 01ac 0220A0E3 		mov	r2, #2
 1332 01b0 0020C3E5 		strb	r2, [r3, #0]
 1333 01b4 FEFFFFEB 		bl	nav_init_stage
 1334 01b8 110300EA 		b	.L101
 1335              	.L141:
 1336 01bc 0320A0E3 		mov	r2, #3
 1337 01c0 0020C3E5 		strb	r2, [r3, #0]
 1338 01c4 803C9FE5 		ldr	r3, .L299+8
 1339 01c8 0020C3E5 		strb	r2, [r3, #0]
 1340 01cc FEFFFFEB 		bl	nav_init_block
 1341 01d0 0B0300EA 		b	.L101
 1342              	.L105:
 1343 01d4 743C9FE5 		ldr	r3, .L299+12
 1344 01d8 0020D3E5 		ldrb	r2, [r3, #0]	@ zero_extendqisi2
 1345 01dc 000052E3 		cmp	r2, #0
 1346 01e0 0200000A 		beq	.L145
 1347 01e4 020052E3 		cmp	r2, #2
 1348 01e8 0B00008A 		bhi	.L144
 1349 01ec 060000EA 		b	.L277
 1350              	.L145:
 1351 01f0 5C2C9FE5 		ldr	r2, .L299+16
 1352 01f4 E21CA0E3 		mov	r1, #57856
 1353 01f8 BC10C2E1 		strh	r1, [r2, #12]	@ movhi
 1354 01fc 0120A0E3 		mov	r2, #1
 1355 0200 0020C3E5 		strb	r2, [r3, #0]
 1356 0204 FEFFFFEB 		bl	nav_init_stage
 1357 0208 FD0200EA 		b	.L101
 1358              	.L277:
 1359              	.L146:
 1360 020c 0220A0E3 		mov	r2, #2
 1361 0210 0020C3E5 		strb	r2, [r3, #0]
 1362 0214 FEFFFFEB 		bl	nav_init_stage
 1363 0218 F90200EA 		b	.L101
 1364              	.L144:
 1365 021c 0320A0E3 		mov	r2, #3
 1366 0220 0020C3E5 		strb	r2, [r3, #0]
 1367 0224 203C9FE5 		ldr	r3, .L299+8
 1368 0228 0420A0E3 		mov	r2, #4
 1369 022c 0020C3E5 		strb	r2, [r3, #0]
 1370 0230 FEFFFFEB 		bl	nav_init_block
 1371 0234 F20200EA 		b	.L101
 1372              	.L106:
 1373 0238 103C9FE5 		ldr	r3, .L299+12
 1374 023c 0020D3E5 		ldrb	r2, [r3, #0]	@ zero_extendqisi2
 1375 0240 000052E3 		cmp	r2, #0
 1376 0244 0200000A 		beq	.L148
 1377 0248 020052E3 		cmp	r2, #2
 1378 024c 0B00008A 		bhi	.L147
 1379 0250 060000EA 		b	.L278
 1380              	.L148:
 1381 0254 F82B9FE5 		ldr	r2, .L299+16
 1382 0258 1E1CA0E3 		mov	r1, #7680
 1383 025c BC10C2E1 		strh	r1, [r2, #12]	@ movhi
 1384 0260 0120A0E3 		mov	r2, #1
 1385 0264 0020C3E5 		strb	r2, [r3, #0]
 1386 0268 FEFFFFEB 		bl	nav_init_stage
 1387 026c E40200EA 		b	.L101
 1388              	.L278:
 1389              	.L149:
 1390 0270 0220A0E3 		mov	r2, #2
 1391 0274 0020C3E5 		strb	r2, [r3, #0]
 1392 0278 FEFFFFEB 		bl	nav_init_stage
 1393 027c E00200EA 		b	.L101
 1394              	.L147:
 1395 0280 0320A0E3 		mov	r2, #3
 1396 0284 0020C3E5 		strb	r2, [r3, #0]
 1397 0288 BC3B9FE5 		ldr	r3, .L299+8
 1398 028c 0520A0E3 		mov	r2, #5
 1399 0290 0020C3E5 		strb	r2, [r3, #0]
 1400 0294 FEFFFFEB 		bl	nav_init_block
 1401 0298 D90200EA 		b	.L101
 1402              	.L107:
 1403 029c AC3B9FE5 		ldr	r3, .L299+12
 1404 02a0 0020D3E5 		ldrb	r2, [r3, #0]	@ zero_extendqisi2
 1405 02a4 000052E3 		cmp	r2, #0
 1406 02a8 0200000A 		beq	.L151
 1407 02ac 020052E3 		cmp	r2, #2
 1408 02b0 0A00008A 		bhi	.L150
 1409 02b4 050000EA 		b	.L279
 1410              	.L151:
 1411 02b8 941B9FE5 		ldr	r1, .L299+16
 1412 02bc BC20C1E1 		strh	r2, [r1, #12]	@ movhi
 1413 02c0 0120A0E3 		mov	r2, #1
 1414 02c4 0020C3E5 		strb	r2, [r3, #0]
 1415 02c8 FEFFFFEB 		bl	nav_init_stage
 1416 02cc CC0200EA 		b	.L101
 1417              	.L279:
 1418              	.L152:
 1419 02d0 0220A0E3 		mov	r2, #2
 1420 02d4 0020C3E5 		strb	r2, [r3, #0]
 1421 02d8 FEFFFFEB 		bl	nav_init_stage
 1422 02dc C80200EA 		b	.L101
 1423              	.L150:
 1424 02e0 0320A0E3 		mov	r2, #3
 1425 02e4 0020C3E5 		strb	r2, [r3, #0]
 1426 02e8 5C3B9FE5 		ldr	r3, .L299+8
 1427 02ec 0620A0E3 		mov	r2, #6
 1428 02f0 0020C3E5 		strb	r2, [r3, #0]
 1429 02f4 FEFFFFEB 		bl	nav_init_block
 1430 02f8 C10200EA 		b	.L101
 1431              	.L108:
 1432 02fc 4C3B9FE5 		ldr	r3, .L299+12
 1433 0300 0020D3E5 		ldrb	r2, [r3, #0]	@ zero_extendqisi2
 1434 0304 000052E3 		cmp	r2, #0
 1435 0308 0200000A 		beq	.L154
 1436 030c 020052E3 		cmp	r2, #2
 1437 0310 0A00008A 		bhi	.L153
 1438 0314 050000EA 		b	.L280
 1439              	.L154:
 1440 0318 341B9FE5 		ldr	r1, .L299+16
 1441 031c BE20C1E1 		strh	r2, [r1, #14]	@ movhi
 1442 0320 0120A0E3 		mov	r2, #1
 1443 0324 0020C3E5 		strb	r2, [r3, #0]
 1444 0328 FEFFFFEB 		bl	nav_init_stage
 1445 032c B40200EA 		b	.L101
 1446              	.L280:
 1447              	.L155:
 1448 0330 0220A0E3 		mov	r2, #2
 1449 0334 0020C3E5 		strb	r2, [r3, #0]
 1450 0338 FEFFFFEB 		bl	nav_init_stage
 1451 033c B00200EA 		b	.L101
 1452              	.L153:
 1453 0340 0320A0E3 		mov	r2, #3
 1454 0344 0020C3E5 		strb	r2, [r3, #0]
 1455 0348 FC3A9FE5 		ldr	r3, .L299+8
 1456 034c 0720A0E3 		mov	r2, #7
 1457 0350 0020C3E5 		strb	r2, [r3, #0]
 1458 0354 FEFFFFEB 		bl	nav_init_block
 1459 0358 A90200EA 		b	.L101
 1460              	.L109:
 1461 035c EC3A9FE5 		ldr	r3, .L299+12
 1462 0360 0020D3E5 		ldrb	r2, [r3, #0]	@ zero_extendqisi2
 1463 0364 000052E3 		cmp	r2, #0
 1464 0368 0200000A 		beq	.L157
 1465 036c 020052E3 		cmp	r2, #2
 1466 0370 0B00008A 		bhi	.L156
 1467 0374 060000EA 		b	.L281
 1468              	.L157:
 1469 0378 D42A9FE5 		ldr	r2, .L299+16
 1470 037c 1E1CA0E3 		mov	r1, #7680
 1471 0380 BE10C2E1 		strh	r1, [r2, #14]	@ movhi
 1472 0384 0120A0E3 		mov	r2, #1
 1473 0388 0020C3E5 		strb	r2, [r3, #0]
 1474 038c FEFFFFEB 		bl	nav_init_stage
 1475 0390 9B0200EA 		b	.L101
 1476              	.L281:
 1477              	.L158:
 1478 0394 0220A0E3 		mov	r2, #2
 1479 0398 0020C3E5 		strb	r2, [r3, #0]
 1480 039c FEFFFFEB 		bl	nav_init_stage
 1481 03a0 970200EA 		b	.L101
 1482              	.L156:
 1483 03a4 0320A0E3 		mov	r2, #3
 1484 03a8 0020C3E5 		strb	r2, [r3, #0]
 1485 03ac 983A9FE5 		ldr	r3, .L299+8
 1486 03b0 0820A0E3 		mov	r2, #8
 1487 03b4 0020C3E5 		strb	r2, [r3, #0]
 1488 03b8 FEFFFFEB 		bl	nav_init_block
 1489 03bc 900200EA 		b	.L101
 1490              	.L110:
 1491 03c0 883A9FE5 		ldr	r3, .L299+12
 1492 03c4 0020D3E5 		ldrb	r2, [r3, #0]	@ zero_extendqisi2
 1493 03c8 000052E3 		cmp	r2, #0
 1494 03cc 0200000A 		beq	.L160
 1495 03d0 020052E3 		cmp	r2, #2
 1496 03d4 0B00008A 		bhi	.L159
 1497 03d8 060000EA 		b	.L282
 1498              	.L160:
 1499 03dc 702A9FE5 		ldr	r2, .L299+16
 1500 03e0 E21CA0E3 		mov	r1, #57856
 1501 03e4 BE10C2E1 		strh	r1, [r2, #14]	@ movhi
 1502 03e8 0120A0E3 		mov	r2, #1
 1503 03ec 0020C3E5 		strb	r2, [r3, #0]
 1504 03f0 FEFFFFEB 		bl	nav_init_stage
 1505 03f4 820200EA 		b	.L101
 1506              	.L282:
 1507              	.L161:
 1508 03f8 0220A0E3 		mov	r2, #2
 1509 03fc 0020C3E5 		strb	r2, [r3, #0]
 1510 0400 FEFFFFEB 		bl	nav_init_stage
 1511 0404 7E0200EA 		b	.L101
 1512              	.L159:
 1513 0408 0320A0E3 		mov	r2, #3
 1514 040c 0020C3E5 		strb	r2, [r3, #0]
 1515 0410 343A9FE5 		ldr	r3, .L299+8
 1516 0414 0920A0E3 		mov	r2, #9
 1517 0418 0020C3E5 		strb	r2, [r3, #0]
 1518 041c FEFFFFEB 		bl	nav_init_block
 1519 0420 770200EA 		b	.L101
 1520              	.L111:
 1521 0424 242A9FE5 		ldr	r2, .L299+12
 1522 0428 0010D2E5 		ldrb	r1, [r2, #0]	@ zero_extendqisi2
 1523 042c 030051E3 		cmp	r1, #3
 1524 0430 01F19F97 		ldrls	pc, [pc, r1, asl #2]
 1525 0434 150000EA 		b	.L162
 1526              	.L166:
 1527 0438 48040000 		.word	.L163
 1528 043c 64040000 		.word	.L164
 1529 0440 80040000 		.word	.L165
 1530 0444 80040000 		.word	.L165
 1531              	.L163:
 1532 0448 043A9FE5 		ldr	r3, .L299+16
 1533 044c E21CA0E3 		mov	r1, #57856
 1534 0450 BC10C3E1 		strh	r1, [r3, #12]	@ movhi
 1535 0454 0130A0E3 		mov	r3, #1
 1536 0458 0030C2E5 		strb	r3, [r2, #0]
 1537 045c FEFFFFEB 		bl	nav_init_stage
 1538 0460 670200EA 		b	.L101
 1539              	.L164:
 1540 0464 E8399FE5 		ldr	r3, .L299+16
 1541 0468 1E1CA0E3 		mov	r1, #7680
 1542 046c BA10C3E1 		strh	r1, [r3, #10]	@ movhi
 1543 0470 0230A0E3 		mov	r3, #2
 1544 0474 0030C2E5 		strb	r3, [r2, #0]
 1545 0478 FEFFFFEB 		bl	nav_init_stage
 1546 047c 600200EA 		b	.L101
 1547              	.L165:
 1548 0480 0330A0E3 		mov	r3, #3
 1549 0484 0030C2E5 		strb	r3, [r2, #0]
 1550 0488 FEFFFFEB 		bl	nav_init_stage
 1551 048c 5C0200EA 		b	.L101
 1552              	.L162:
 1553 0490 0410A0E3 		mov	r1, #4
 1554 0494 0010C2E5 		strb	r1, [r2, #0]
 1555 0498 0A20A0E3 		mov	r2, #10
 1556 049c 0020C3E5 		strb	r2, [r3, #0]
 1557 04a0 FEFFFFEB 		bl	nav_init_block
 1558 04a4 560200EA 		b	.L101
 1559              	.L112:
 1560 04a8 A0299FE5 		ldr	r2, .L299+12
 1561 04ac 0010D2E5 		ldrb	r1, [r2, #0]	@ zero_extendqisi2
 1562 04b0 030051E3 		cmp	r1, #3
 1563 04b4 01F19F97 		ldrls	pc, [pc, r1, asl #2]
 1564 04b8 150000EA 		b	.L167
 1565              	.L171:
 1566 04bc CC040000 		.word	.L168
 1567 04c0 E8040000 		.word	.L169
 1568 04c4 04050000 		.word	.L170
 1569 04c8 04050000 		.word	.L170
 1570              	.L168:
 1571 04cc 80399FE5 		ldr	r3, .L299+16
 1572 04d0 1E1CA0E3 		mov	r1, #7680
 1573 04d4 BC10C3E1 		strh	r1, [r3, #12]	@ movhi
 1574 04d8 0130A0E3 		mov	r3, #1
 1575 04dc 0030C2E5 		strb	r3, [r2, #0]
 1576 04e0 FEFFFFEB 		bl	nav_init_stage
 1577 04e4 460200EA 		b	.L101
 1578              	.L169:
 1579 04e8 64399FE5 		ldr	r3, .L299+16
 1580 04ec E21CA0E3 		mov	r1, #57856
 1581 04f0 BA10C3E1 		strh	r1, [r3, #10]	@ movhi
 1582 04f4 0230A0E3 		mov	r3, #2
 1583 04f8 0030C2E5 		strb	r3, [r2, #0]
 1584 04fc FEFFFFEB 		bl	nav_init_stage
 1585 0500 3F0200EA 		b	.L101
 1586              	.L170:
 1587 0504 0330A0E3 		mov	r3, #3
 1588 0508 0030C2E5 		strb	r3, [r2, #0]
 1589 050c FEFFFFEB 		bl	nav_init_stage
 1590 0510 3B0200EA 		b	.L101
 1591              	.L167:
 1592 0514 0410A0E3 		mov	r1, #4
 1593 0518 0010C2E5 		strb	r1, [r2, #0]
 1594 051c 0B20A0E3 		mov	r2, #11
 1595 0520 0020C3E5 		strb	r2, [r3, #0]
 1596 0524 FEFFFFEB 		bl	nav_init_block
 1597 0528 350200EA 		b	.L101
 1598              	.L113:
 1599 052c 1C299FE5 		ldr	r2, .L299+12
 1600 0530 0010D2E5 		ldrb	r1, [r2, #0]	@ zero_extendqisi2
 1601 0534 030051E3 		cmp	r1, #3
 1602 0538 01F19F97 		ldrls	pc, [pc, r1, asl #2]
 1603 053c 150000EA 		b	.L172
 1604              	.L176:
 1605 0540 50050000 		.word	.L173
 1606 0544 6C050000 		.word	.L174
 1607 0548 88050000 		.word	.L175
 1608 054c 88050000 		.word	.L175
 1609              	.L173:
 1610 0550 FC389FE5 		ldr	r3, .L299+16
 1611 0554 1E1CA0E3 		mov	r1, #7680
 1612 0558 BC10C3E1 		strh	r1, [r3, #12]	@ movhi
 1613 055c 0130A0E3 		mov	r3, #1
 1614 0560 0030C2E5 		strb	r3, [r2, #0]
 1615 0564 FEFFFFEB 		bl	nav_init_stage
 1616 0568 250200EA 		b	.L101
 1617              	.L174:
 1618 056c E0389FE5 		ldr	r3, .L299+16
 1619 0570 1E1CA0E3 		mov	r1, #7680
 1620 0574 BA10C3E1 		strh	r1, [r3, #10]	@ movhi
 1621 0578 0230A0E3 		mov	r3, #2
 1622 057c 0030C2E5 		strb	r3, [r2, #0]
 1623 0580 FEFFFFEB 		bl	nav_init_stage
 1624 0584 1E0200EA 		b	.L101
 1625              	.L175:
 1626 0588 0330A0E3 		mov	r3, #3
 1627 058c 0030C2E5 		strb	r3, [r2, #0]
 1628 0590 FEFFFFEB 		bl	nav_init_stage
 1629 0594 1A0200EA 		b	.L101
 1630              	.L172:
 1631 0598 0410A0E3 		mov	r1, #4
 1632 059c 0010C2E5 		strb	r1, [r2, #0]
 1633 05a0 0C20A0E3 		mov	r2, #12
 1634 05a4 0020C3E5 		strb	r2, [r3, #0]
 1635 05a8 FEFFFFEB 		bl	nav_init_block
 1636 05ac 140200EA 		b	.L101
 1637              	.L114:
 1638 05b0 98289FE5 		ldr	r2, .L299+12
 1639 05b4 0010D2E5 		ldrb	r1, [r2, #0]	@ zero_extendqisi2
 1640 05b8 030051E3 		cmp	r1, #3
 1641 05bc 01F19F97 		ldrls	pc, [pc, r1, asl #2]
 1642 05c0 150000EA 		b	.L177
 1643              	.L181:
 1644 05c4 D4050000 		.word	.L178
 1645 05c8 F0050000 		.word	.L179
 1646 05cc 0C060000 		.word	.L180
 1647 05d0 0C060000 		.word	.L180
 1648              	.L178:
 1649 05d4 78389FE5 		ldr	r3, .L299+16
 1650 05d8 E21CA0E3 		mov	r1, #57856
 1651 05dc BC10C3E1 		strh	r1, [r3, #12]	@ movhi
 1652 05e0 0130A0E3 		mov	r3, #1
 1653 05e4 0030C2E5 		strb	r3, [r2, #0]
 1654 05e8 FEFFFFEB 		bl	nav_init_stage
 1655 05ec 040200EA 		b	.L101
 1656              	.L179:
 1657 05f0 5C389FE5 		ldr	r3, .L299+16
 1658 05f4 E21CA0E3 		mov	r1, #57856
 1659 05f8 BA10C3E1 		strh	r1, [r3, #10]	@ movhi
 1660 05fc 0230A0E3 		mov	r3, #2
 1661 0600 0030C2E5 		strb	r3, [r2, #0]
 1662 0604 FEFFFFEB 		bl	nav_init_stage
 1663 0608 FD0100EA 		b	.L101
 1664              	.L180:
 1665 060c 0330A0E3 		mov	r3, #3
 1666 0610 0030C2E5 		strb	r3, [r2, #0]
 1667 0614 FEFFFFEB 		bl	nav_init_stage
 1668 0618 F90100EA 		b	.L101
 1669              	.L177:
 1670 061c 0410A0E3 		mov	r1, #4
 1671 0620 0010C2E5 		strb	r1, [r2, #0]
 1672 0624 0D20A0E3 		mov	r2, #13
 1673 0628 0020C3E5 		strb	r2, [r3, #0]
 1674 062c FEFFFFEB 		bl	nav_init_block
 1675 0630 F30100EA 		b	.L101
 1676              	.L115:
 1677 0634 14289FE5 		ldr	r2, .L299+12
 1678 0638 0010D2E5 		ldrb	r1, [r2, #0]	@ zero_extendqisi2
 1679 063c 040051E3 		cmp	r1, #4
 1680 0640 01F19F97 		ldrls	pc, [pc, r1, asl #2]
 1681 0644 1C0000EA 		b	.L182
 1682              	.L187:
 1683 0648 5C060000 		.word	.L183
 1684 064c 74060000 		.word	.L184
 1685 0650 90060000 		.word	.L185
 1686 0654 AC060000 		.word	.L186
 1687 0658 AC060000 		.word	.L186
 1688              	.L183:
 1689 065c F4179FE5 		ldr	r1, .L299+20
 1690 0660 0130A0E3 		mov	r3, #1
 1691 0664 0030C1E5 		strb	r3, [r1, #0]
 1692 0668 0030C2E5 		strb	r3, [r2, #0]
 1693 066c FEFFFFEB 		bl	nav_init_stage
 1694 0670 E30100EA 		b	.L101
 1695              	.L184:
 1696 0674 E0379FE5 		ldr	r3, .L299+24
 1697 0678 0010A0E3 		mov	r1, #0
 1698 067c 0010C3E5 		strb	r1, [r3, #0]
 1699 0680 0230A0E3 		mov	r3, #2
 1700 0684 0030C2E5 		strb	r3, [r2, #0]
 1701 0688 FEFFFFEB 		bl	nav_init_stage
 1702 068c DC0100EA 		b	.L101
 1703              	.L185:
 1704 0690 BC379FE5 		ldr	r3, .L299+16
 1705 0694 0010A0E3 		mov	r1, #0
 1706 0698 B810C3E1 		strh	r1, [r3, #8]	@ movhi
 1707 069c 0330A0E3 		mov	r3, #3
 1708 06a0 0030C2E5 		strb	r3, [r2, #0]
 1709 06a4 FEFFFFEB 		bl	nav_init_stage
 1710 06a8 D50100EA 		b	.L101
 1711              	.L186:
 1712 06ac 0430A0E3 		mov	r3, #4
 1713 06b0 0030C2E5 		strb	r3, [r2, #0]
 1714 06b4 FEFFFFEB 		bl	nav_init_stage
 1715 06b8 D10100EA 		b	.L101
 1716              	.L182:
 1717 06bc 0510A0E3 		mov	r1, #5
 1718 06c0 0010C2E5 		strb	r1, [r2, #0]
 1719 06c4 0E20A0E3 		mov	r2, #14
 1720 06c8 0020C3E5 		strb	r2, [r3, #0]
 1721 06cc FEFFFFEB 		bl	nav_init_block
 1722 06d0 CB0100EA 		b	.L101
 1723              	.L116:
 1724 06d4 74379FE5 		ldr	r3, .L299+12
 1725 06d8 0020D3E5 		ldrb	r2, [r3, #0]	@ zero_extendqisi2
 1726 06dc 000052E3 		cmp	r2, #0
 1727 06e0 0200000A 		beq	.L189
 1728 06e4 020052E3 		cmp	r2, #2
 1729 06e8 0B00008A 		bhi	.L188
 1730 06ec 060000EA 		b	.L283
 1731              	.L189:
 1732 06f0 5C279FE5 		ldr	r2, .L299+16
 1733 06f4 961DA0E3 		mov	r1, #9600
 1734 06f8 B810C2E1 		strh	r1, [r2, #8]	@ movhi
 1735 06fc 0120A0E3 		mov	r2, #1
 1736 0700 0020C3E5 		strb	r2, [r3, #0]
 1737 0704 FEFFFFEB 		bl	nav_init_stage
 1738 0708 BD0100EA 		b	.L101
 1739              	.L283:
 1740              	.L190:
 1741 070c 0220A0E3 		mov	r2, #2
 1742 0710 0020C3E5 		strb	r2, [r3, #0]
 1743 0714 FEFFFFEB 		bl	nav_init_stage
 1744 0718 B90100EA 		b	.L101
 1745              	.L188:
 1746 071c 0320A0E3 		mov	r2, #3
 1747 0720 0020C3E5 		strb	r2, [r3, #0]
 1748 0724 20379FE5 		ldr	r3, .L299+8
 1749 0728 0F20A0E3 		mov	r2, #15
 1750 072c 0020C3E5 		strb	r2, [r3, #0]
 1751 0730 FEFFFFEB 		bl	nav_init_block
 1752 0734 B20100EA 		b	.L101
 1753              	.L117:
 1754 0738 10379FE5 		ldr	r3, .L299+12
 1755 073c 0020D3E5 		ldrb	r2, [r3, #0]	@ zero_extendqisi2
 1756 0740 000052E3 		cmp	r2, #0
 1757 0744 0200000A 		beq	.L192
 1758 0748 020052E3 		cmp	r2, #2
 1759 074c 0B00008A 		bhi	.L191
 1760 0750 060000EA 		b	.L284
 1761              	.L192:
 1762 0754 F8269FE5 		ldr	r2, .L299+16
 1763 0758 1E1EA0E3 		mov	r1, #480
 1764 075c B810C2E1 		strh	r1, [r2, #8]	@ movhi
 1765 0760 0120A0E3 		mov	r2, #1
 1766 0764 0020C3E5 		strb	r2, [r3, #0]
 1767 0768 FEFFFFEB 		bl	nav_init_stage
 1768 076c A40100EA 		b	.L101
 1769              	.L284:
 1770              	.L193:
 1771 0770 0220A0E3 		mov	r2, #2
 1772 0774 0020C3E5 		strb	r2, [r3, #0]
 1773 0778 FEFFFFEB 		bl	nav_init_stage
 1774 077c A00100EA 		b	.L101
 1775              	.L191:
 1776 0780 0320A0E3 		mov	r2, #3
 1777 0784 0020C3E5 		strb	r2, [r3, #0]
 1778 0788 BC369FE5 		ldr	r3, .L299+8
 1779 078c 1020A0E3 		mov	r2, #16
 1780 0790 0020C3E5 		strb	r2, [r3, #0]
 1781 0794 FEFFFFEB 		bl	nav_init_block
 1782 0798 990100EA 		b	.L101
 1783              	.L118:
 1784 079c AC369FE5 		ldr	r3, .L299+12
 1785 07a0 0020D3E5 		ldrb	r2, [r3, #0]	@ zero_extendqisi2
 1786 07a4 000052E3 		cmp	r2, #0
 1787 07a8 0200000A 		beq	.L195
 1788 07ac 020052E3 		cmp	r2, #2
 1789 07b0 0B00008A 		bhi	.L194
 1790 07b4 060000EA 		b	.L285
 1791              	.L195:
 1792 07b8 94269FE5 		ldr	r2, .L299+16
 1793 07bc 5A1EA0E3 		mov	r1, #1440
 1794 07c0 B810C2E1 		strh	r1, [r2, #8]	@ movhi
 1795 07c4 0120A0E3 		mov	r2, #1
 1796 07c8 0020C3E5 		strb	r2, [r3, #0]
 1797 07cc FEFFFFEB 		bl	nav_init_stage
 1798 07d0 8B0100EA 		b	.L101
 1799              	.L285:
 1800              	.L196:
 1801 07d4 0220A0E3 		mov	r2, #2
 1802 07d8 0020C3E5 		strb	r2, [r3, #0]
 1803 07dc FEFFFFEB 		bl	nav_init_stage
 1804 07e0 870100EA 		b	.L101
 1805              	.L194:
 1806 07e4 0320A0E3 		mov	r2, #3
 1807 07e8 0020C3E5 		strb	r2, [r3, #0]
 1808 07ec 58369FE5 		ldr	r3, .L299+8
 1809 07f0 1120A0E3 		mov	r2, #17
 1810 07f4 0020C3E5 		strb	r2, [r3, #0]
 1811 07f8 FEFFFFEB 		bl	nav_init_block
 1812 07fc 800100EA 		b	.L101
 1813              	.L119:
 1814 0800 48369FE5 		ldr	r3, .L299+12
 1815 0804 0020D3E5 		ldrb	r2, [r3, #0]	@ zero_extendqisi2
 1816 0808 000052E3 		cmp	r2, #0
 1817 080c 0200000A 		beq	.L198
 1818 0810 020052E3 		cmp	r2, #2
 1819 0814 0B00008A 		bhi	.L197
 1820 0818 060000EA 		b	.L286
 1821              	.L198:
 1822 081c 30269FE5 		ldr	r2, .L299+16
 1823 0820 1E1DA0E3 		mov	r1, #1920
 1824 0824 B810C2E1 		strh	r1, [r2, #8]	@ movhi
 1825 0828 0120A0E3 		mov	r2, #1
 1826 082c 0020C3E5 		strb	r2, [r3, #0]
 1827 0830 FEFFFFEB 		bl	nav_init_stage
 1828 0834 720100EA 		b	.L101
 1829              	.L286:
 1830              	.L199:
 1831 0838 0220A0E3 		mov	r2, #2
 1832 083c 0020C3E5 		strb	r2, [r3, #0]
 1833 0840 FEFFFFEB 		bl	nav_init_stage
 1834 0844 6E0100EA 		b	.L101
 1835              	.L197:
 1836 0848 0320A0E3 		mov	r2, #3
 1837 084c 0020C3E5 		strb	r2, [r3, #0]
 1838 0850 F4359FE5 		ldr	r3, .L299+8
 1839 0854 1220A0E3 		mov	r2, #18
 1840 0858 0020C3E5 		strb	r2, [r3, #0]
 1841 085c FEFFFFEB 		bl	nav_init_block
 1842 0860 670100EA 		b	.L101
 1843              	.L120:
 1844 0864 E4359FE5 		ldr	r3, .L299+12
 1845 0868 0020D3E5 		ldrb	r2, [r3, #0]	@ zero_extendqisi2
 1846 086c 000052E3 		cmp	r2, #0
 1847 0870 0200000A 		beq	.L201
 1848 0874 020052E3 		cmp	r2, #2
 1849 0878 0B00008A 		bhi	.L200
 1850 087c 060000EA 		b	.L287
 1851              	.L201:
 1852 0880 CC259FE5 		ldr	r2, .L299+16
 1853 0884 961EA0E3 		mov	r1, #2400
 1854 0888 B810C2E1 		strh	r1, [r2, #8]	@ movhi
 1855 088c 0120A0E3 		mov	r2, #1
 1856 0890 0020C3E5 		strb	r2, [r3, #0]
 1857 0894 FEFFFFEB 		bl	nav_init_stage
 1858 0898 590100EA 		b	.L101
 1859              	.L287:
 1860              	.L202:
 1861 089c 0220A0E3 		mov	r2, #2
 1862 08a0 0020C3E5 		strb	r2, [r3, #0]
 1863 08a4 FEFFFFEB 		bl	nav_init_stage
 1864 08a8 550100EA 		b	.L101
 1865              	.L200:
 1866 08ac 0320A0E3 		mov	r2, #3
 1867 08b0 0020C3E5 		strb	r2, [r3, #0]
 1868 08b4 90359FE5 		ldr	r3, .L299+8
 1869 08b8 1320A0E3 		mov	r2, #19
 1870 08bc 0020C3E5 		strb	r2, [r3, #0]
 1871 08c0 FEFFFFEB 		bl	nav_init_block
 1872 08c4 4E0100EA 		b	.L101
 1873              	.L121:
 1874 08c8 80359FE5 		ldr	r3, .L299+12
 1875 08cc 0020D3E5 		ldrb	r2, [r3, #0]	@ zero_extendqisi2
 1876 08d0 000052E3 		cmp	r2, #0
 1877 08d4 0200000A 		beq	.L204
 1878 08d8 020052E3 		cmp	r2, #2
 1879 08dc 0B00008A 		bhi	.L203
 1880 08e0 060000EA 		b	.L288
 1881              	.L204:
 1882 08e4 68259FE5 		ldr	r2, .L299+16
 1883 08e8 2D1DA0E3 		mov	r1, #2880
 1884 08ec B810C2E1 		strh	r1, [r2, #8]	@ movhi
 1885 08f0 0120A0E3 		mov	r2, #1
 1886 08f4 0020C3E5 		strb	r2, [r3, #0]
 1887 08f8 FEFFFFEB 		bl	nav_init_stage
 1888 08fc 400100EA 		b	.L101
 1889              	.L288:
 1890              	.L205:
 1891 0900 0220A0E3 		mov	r2, #2
 1892 0904 0020C3E5 		strb	r2, [r3, #0]
 1893 0908 FEFFFFEB 		bl	nav_init_stage
 1894 090c 3C0100EA 		b	.L101
 1895              	.L203:
 1896 0910 0320A0E3 		mov	r2, #3
 1897 0914 0020C3E5 		strb	r2, [r3, #0]
 1898 0918 2C359FE5 		ldr	r3, .L299+8
 1899 091c 1420A0E3 		mov	r2, #20
 1900 0920 0020C3E5 		strb	r2, [r3, #0]
 1901 0924 FEFFFFEB 		bl	nav_init_block
 1902 0928 350100EA 		b	.L101
 1903              	.L122:
 1904 092c 1C359FE5 		ldr	r3, .L299+12
 1905 0930 0020D3E5 		ldrb	r2, [r3, #0]	@ zero_extendqisi2
 1906 0934 000052E3 		cmp	r2, #0
 1907 0938 0200000A 		beq	.L207
 1908 093c 020052E3 		cmp	r2, #2
 1909 0940 0B00008A 		bhi	.L206
 1910 0944 060000EA 		b	.L289
 1911              	.L207:
 1912 0948 04259FE5 		ldr	r2, .L299+16
 1913 094c D21EA0E3 		mov	r1, #3360
 1914 0950 B810C2E1 		strh	r1, [r2, #8]	@ movhi
 1915 0954 0120A0E3 		mov	r2, #1
 1916 0958 0020C3E5 		strb	r2, [r3, #0]
 1917 095c FEFFFFEB 		bl	nav_init_stage
 1918 0960 270100EA 		b	.L101
 1919              	.L289:
 1920              	.L208:
 1921 0964 0220A0E3 		mov	r2, #2
 1922 0968 0020C3E5 		strb	r2, [r3, #0]
 1923 096c FEFFFFEB 		bl	nav_init_stage
 1924 0970 230100EA 		b	.L101
 1925              	.L206:
 1926 0974 0320A0E3 		mov	r2, #3
 1927 0978 0020C3E5 		strb	r2, [r3, #0]
 1928 097c C8349FE5 		ldr	r3, .L299+8
 1929 0980 1520A0E3 		mov	r2, #21
 1930 0984 0020C3E5 		strb	r2, [r3, #0]
 1931 0988 FEFFFFEB 		bl	nav_init_block
 1932 098c 1C0100EA 		b	.L101
 1933              	.L123:
 1934 0990 B8349FE5 		ldr	r3, .L299+12
 1935 0994 0020D3E5 		ldrb	r2, [r3, #0]	@ zero_extendqisi2
 1936 0998 000052E3 		cmp	r2, #0
 1937 099c 0200000A 		beq	.L210
 1938 09a0 020052E3 		cmp	r2, #2
 1939 09a4 0B00008A 		bhi	.L209
 1940 09a8 060000EA 		b	.L290
 1941              	.L210:
 1942 09ac A0249FE5 		ldr	r2, .L299+16
 1943 09b0 0F1CA0E3 		mov	r1, #3840
 1944 09b4 B810C2E1 		strh	r1, [r2, #8]	@ movhi
 1945 09b8 0120A0E3 		mov	r2, #1
 1946 09bc 0020C3E5 		strb	r2, [r3, #0]
 1947 09c0 FEFFFFEB 		bl	nav_init_stage
 1948 09c4 0E0100EA 		b	.L101
 1949              	.L290:
 1950              	.L211:
 1951 09c8 0220A0E3 		mov	r2, #2
 1952 09cc 0020C3E5 		strb	r2, [r3, #0]
 1953 09d0 FEFFFFEB 		bl	nav_init_stage
 1954 09d4 0A0100EA 		b	.L101
 1955              	.L209:
 1956 09d8 0320A0E3 		mov	r2, #3
 1957 09dc 0020C3E5 		strb	r2, [r3, #0]
 1958 09e0 64349FE5 		ldr	r3, .L299+8
 1959 09e4 1620A0E3 		mov	r2, #22
 1960 09e8 0020C3E5 		strb	r2, [r3, #0]
 1961 09ec FEFFFFEB 		bl	nav_init_block
 1962 09f0 030100EA 		b	.L101
 1963              	.L124:
 1964 09f4 54349FE5 		ldr	r3, .L299+12
 1965 09f8 0020D3E5 		ldrb	r2, [r3, #0]	@ zero_extendqisi2
 1966 09fc 000052E3 		cmp	r2, #0
 1967 0a00 0200000A 		beq	.L213
 1968 0a04 020052E3 		cmp	r2, #2
 1969 0a08 0B00008A 		bhi	.L212
 1970 0a0c 060000EA 		b	.L291
 1971              	.L213:
 1972 0a10 48149FE5 		ldr	r1, .L299+28
 1973 0a14 38249FE5 		ldr	r2, .L299+16
 1974 0a18 B810C2E1 		strh	r1, [r2, #8]	@ movhi
 1975 0a1c 0120A0E3 		mov	r2, #1
 1976 0a20 0020C3E5 		strb	r2, [r3, #0]
 1977 0a24 FEFFFFEB 		bl	nav_init_stage
 1978 0a28 F50000EA 		b	.L101
 1979              	.L291:
 1980              	.L214:
 1981 0a2c 0220A0E3 		mov	r2, #2
 1982 0a30 0020C3E5 		strb	r2, [r3, #0]
 1983 0a34 FEFFFFEB 		bl	nav_init_stage
 1984 0a38 F10000EA 		b	.L101
 1985              	.L212:
 1986 0a3c 0320A0E3 		mov	r2, #3
 1987 0a40 0020C3E5 		strb	r2, [r3, #0]
 1988 0a44 00349FE5 		ldr	r3, .L299+8
 1989 0a48 1720A0E3 		mov	r2, #23
 1990 0a4c 0020C3E5 		strb	r2, [r3, #0]
 1991 0a50 FEFFFFEB 		bl	nav_init_block
 1992 0a54 EA0000EA 		b	.L101
 1993              	.L125:
 1994 0a58 F0339FE5 		ldr	r3, .L299+12
 1995 0a5c 0020D3E5 		ldrb	r2, [r3, #0]	@ zero_extendqisi2
 1996 0a60 000052E3 		cmp	r2, #0
 1997 0a64 0200000A 		beq	.L216
 1998 0a68 020052E3 		cmp	r2, #2
 1999 0a6c 0B00008A 		bhi	.L215
 2000 0a70 060000EA 		b	.L292
 2001              	.L216:
 2002 0a74 D8239FE5 		ldr	r2, .L299+16
 2003 0a78 4B1DA0E3 		mov	r1, #4800
 2004 0a7c B810C2E1 		strh	r1, [r2, #8]	@ movhi
 2005 0a80 0120A0E3 		mov	r2, #1
 2006 0a84 0020C3E5 		strb	r2, [r3, #0]
 2007 0a88 FEFFFFEB 		bl	nav_init_stage
 2008 0a8c DC0000EA 		b	.L101
 2009              	.L292:
 2010              	.L217:
 2011 0a90 0220A0E3 		mov	r2, #2
 2012 0a94 0020C3E5 		strb	r2, [r3, #0]
 2013 0a98 FEFFFFEB 		bl	nav_init_stage
 2014 0a9c D80000EA 		b	.L101
 2015              	.L215:
 2016 0aa0 0320A0E3 		mov	r2, #3
 2017 0aa4 0020C3E5 		strb	r2, [r3, #0]
 2018 0aa8 9C339FE5 		ldr	r3, .L299+8
 2019 0aac 1820A0E3 		mov	r2, #24
 2020 0ab0 0020C3E5 		strb	r2, [r3, #0]
 2021 0ab4 FEFFFFEB 		bl	nav_init_block
 2022 0ab8 D10000EA 		b	.L101
 2023              	.L126:
 2024 0abc 8C339FE5 		ldr	r3, .L299+12
 2025 0ac0 0020D3E5 		ldrb	r2, [r3, #0]	@ zero_extendqisi2
 2026 0ac4 000052E3 		cmp	r2, #0
 2027 0ac8 0200000A 		beq	.L219
 2028 0acc 020052E3 		cmp	r2, #2
 2029 0ad0 0B00008A 		bhi	.L218
 2030 0ad4 060000EA 		b	.L293
 2031              	.L219:
 2032 0ad8 84139FE5 		ldr	r1, .L299+32
 2033 0adc 70239FE5 		ldr	r2, .L299+16
 2034 0ae0 B810C2E1 		strh	r1, [r2, #8]	@ movhi
 2035 0ae4 0120A0E3 		mov	r2, #1
 2036 0ae8 0020C3E5 		strb	r2, [r3, #0]
 2037 0aec FEFFFFEB 		bl	nav_init_stage
 2038 0af0 C30000EA 		b	.L101
 2039              	.L293:
 2040              	.L220:
 2041 0af4 0220A0E3 		mov	r2, #2
 2042 0af8 0020C3E5 		strb	r2, [r3, #0]
 2043 0afc FEFFFFEB 		bl	nav_init_stage
 2044 0b00 BF0000EA 		b	.L101
 2045              	.L218:
 2046 0b04 0320A0E3 		mov	r2, #3
 2047 0b08 0020C3E5 		strb	r2, [r3, #0]
 2048 0b0c 38339FE5 		ldr	r3, .L299+8
 2049 0b10 1920A0E3 		mov	r2, #25
 2050 0b14 0020C3E5 		strb	r2, [r3, #0]
 2051 0b18 FEFFFFEB 		bl	nav_init_block
 2052 0b1c B80000EA 		b	.L101
 2053              	.L127:
 2054 0b20 28339FE5 		ldr	r3, .L299+12
 2055 0b24 0020D3E5 		ldrb	r2, [r3, #0]	@ zero_extendqisi2
 2056 0b28 000052E3 		cmp	r2, #0
 2057 0b2c 0200000A 		beq	.L222
 2058 0b30 020052E3 		cmp	r2, #2
 2059 0b34 0B00008A 		bhi	.L221
 2060 0b38 060000EA 		b	.L294
 2061              	.L222:
 2062 0b3c 10239FE5 		ldr	r2, .L299+16
 2063 0b40 5A1DA0E3 		mov	r1, #5760
 2064 0b44 B810C2E1 		strh	r1, [r2, #8]	@ movhi
 2065 0b48 0120A0E3 		mov	r2, #1
 2066 0b4c 0020C3E5 		strb	r2, [r3, #0]
 2067 0b50 FEFFFFEB 		bl	nav_init_stage
 2068 0b54 AA0000EA 		b	.L101
 2069              	.L294:
 2070              	.L223:
 2071 0b58 0220A0E3 		mov	r2, #2
 2072 0b5c 0020C3E5 		strb	r2, [r3, #0]
 2073 0b60 FEFFFFEB 		bl	nav_init_stage
 2074 0b64 A60000EA 		b	.L101
 2075              	.L221:
 2076 0b68 0320A0E3 		mov	r2, #3
 2077 0b6c 0020C3E5 		strb	r2, [r3, #0]
 2078 0b70 D4329FE5 		ldr	r3, .L299+8
 2079 0b74 1A20A0E3 		mov	r2, #26
 2080 0b78 0020C3E5 		strb	r2, [r3, #0]
 2081 0b7c FEFFFFEB 		bl	nav_init_block
 2082 0b80 9F0000EA 		b	.L101
 2083              	.L128:
 2084 0b84 C4329FE5 		ldr	r3, .L299+12
 2085 0b88 0020D3E5 		ldrb	r2, [r3, #0]	@ zero_extendqisi2
 2086 0b8c 000052E3 		cmp	r2, #0
 2087 0b90 0200000A 		beq	.L225
 2088 0b94 020052E3 		cmp	r2, #2
 2089 0b98 0B00008A 		bhi	.L224
 2090 0b9c 060000EA 		b	.L295
 2091              	.L225:
 2092 0ba0 C0129FE5 		ldr	r1, .L299+36
 2093 0ba4 A8229FE5 		ldr	r2, .L299+16
 2094 0ba8 B810C2E1 		strh	r1, [r2, #8]	@ movhi
 2095 0bac 0120A0E3 		mov	r2, #1
 2096 0bb0 0020C3E5 		strb	r2, [r3, #0]
 2097 0bb4 FEFFFFEB 		bl	nav_init_stage
 2098 0bb8 910000EA 		b	.L101
 2099              	.L295:
 2100              	.L226:
 2101 0bbc 0220A0E3 		mov	r2, #2
 2102 0bc0 0020C3E5 		strb	r2, [r3, #0]
 2103 0bc4 FEFFFFEB 		bl	nav_init_stage
 2104 0bc8 8D0000EA 		b	.L101
 2105              	.L224:
 2106 0bcc 0320A0E3 		mov	r2, #3
 2107 0bd0 0020C3E5 		strb	r2, [r3, #0]
 2108 0bd4 70329FE5 		ldr	r3, .L299+8
 2109 0bd8 1B20A0E3 		mov	r2, #27
 2110 0bdc 0020C3E5 		strb	r2, [r3, #0]
 2111 0be0 FEFFFFEB 		bl	nav_init_block
 2112 0be4 860000EA 		b	.L101
 2113              	.L129:
 2114 0be8 60329FE5 		ldr	r3, .L299+12
 2115 0bec 0020D3E5 		ldrb	r2, [r3, #0]	@ zero_extendqisi2
 2116 0bf0 000052E3 		cmp	r2, #0
 2117 0bf4 0200000A 		beq	.L228
 2118 0bf8 020052E3 		cmp	r2, #2
 2119 0bfc 0B00008A 		bhi	.L227
 2120 0c00 060000EA 		b	.L296
 2121              	.L228:
 2122 0c04 48229FE5 		ldr	r2, .L299+16
 2123 0c08 691DA0E3 		mov	r1, #6720
 2124 0c0c B810C2E1 		strh	r1, [r2, #8]	@ movhi
 2125 0c10 0120A0E3 		mov	r2, #1
 2126 0c14 0020C3E5 		strb	r2, [r3, #0]
 2127 0c18 FEFFFFEB 		bl	nav_init_stage
 2128 0c1c 780000EA 		b	.L101
 2129              	.L296:
 2130              	.L229:
 2131 0c20 0220A0E3 		mov	r2, #2
 2132 0c24 0020C3E5 		strb	r2, [r3, #0]
 2133 0c28 FEFFFFEB 		bl	nav_init_stage
 2134 0c2c 740000EA 		b	.L101
 2135              	.L227:
 2136 0c30 0320A0E3 		mov	r2, #3
 2137 0c34 0020C3E5 		strb	r2, [r3, #0]
 2138 0c38 0C329FE5 		ldr	r3, .L299+8
 2139 0c3c 1C20A0E3 		mov	r2, #28
 2140 0c40 0020C3E5 		strb	r2, [r3, #0]
 2141 0c44 FEFFFFEB 		bl	nav_init_block
 2142 0c48 6D0000EA 		b	.L101
 2143              	.L130:
 2144 0c4c FC319FE5 		ldr	r3, .L299+12
 2145 0c50 0020D3E5 		ldrb	r2, [r3, #0]	@ zero_extendqisi2
 2146 0c54 000052E3 		cmp	r2, #0
 2147 0c58 0200000A 		beq	.L231
 2148 0c5c 020052E3 		cmp	r2, #2
 2149 0c60 0B00008A 		bhi	.L230
 2150 0c64 060000EA 		b	.L297
 2151              	.L231:
 2152 0c68 FC119FE5 		ldr	r1, .L299+40
 2153 0c6c E0219FE5 		ldr	r2, .L299+16
 2154 0c70 B810C2E1 		strh	r1, [r2, #8]	@ movhi
 2155 0c74 0120A0E3 		mov	r2, #1
 2156 0c78 0020C3E5 		strb	r2, [r3, #0]
 2157 0c7c FEFFFFEB 		bl	nav_init_stage
 2158 0c80 5F0000EA 		b	.L101
 2159              	.L297:
 2160              	.L232:
 2161 0c84 0220A0E3 		mov	r2, #2
 2162 0c88 0020C3E5 		strb	r2, [r3, #0]
 2163 0c8c FEFFFFEB 		bl	nav_init_stage
 2164 0c90 5B0000EA 		b	.L101
 2165              	.L230:
 2166 0c94 0320A0E3 		mov	r2, #3
 2167 0c98 0020C3E5 		strb	r2, [r3, #0]
 2168 0c9c A8319FE5 		ldr	r3, .L299+8
 2169 0ca0 1D20A0E3 		mov	r2, #29
 2170 0ca4 0020C3E5 		strb	r2, [r3, #0]
 2171 0ca8 FEFFFFEB 		bl	nav_init_block
 2172 0cac 540000EA 		b	.L101
 2173              	.L131:
 2174 0cb0 98319FE5 		ldr	r3, .L299+12
 2175 0cb4 0020D3E5 		ldrb	r2, [r3, #0]	@ zero_extendqisi2
 2176 0cb8 000052E3 		cmp	r2, #0
 2177 0cbc 0200000A 		beq	.L234
 2178 0cc0 020052E3 		cmp	r2, #2
 2179 0cc4 0B00008A 		bhi	.L233
 2180 0cc8 060000EA 		b	.L298
 2181              	.L234:
 2182 0ccc 80219FE5 		ldr	r2, .L299+16
 2183 0cd0 1E1CA0E3 		mov	r1, #7680
 2184 0cd4 B810C2E1 		strh	r1, [r2, #8]	@ movhi
 2185 0cd8 0120A0E3 		mov	r2, #1
 2186 0cdc 0020C3E5 		strb	r2, [r3, #0]
 2187 0ce0 FEFFFFEB 		bl	nav_init_stage
 2188 0ce4 460000EA 		b	.L101
 2189              	.L298:
 2190              	.L235:
 2191 0ce8 0220A0E3 		mov	r2, #2
 2192 0cec 0020C3E5 		strb	r2, [r3, #0]
 2193 0cf0 FEFFFFEB 		bl	nav_init_stage
 2194 0cf4 420000EA 		b	.L101
 2195              	.L233:
 2196 0cf8 0320A0E3 		mov	r2, #3
 2197 0cfc 0020C3E5 		strb	r2, [r3, #0]
 2198 0d00 44319FE5 		ldr	r3, .L299+8
 2199 0d04 1E20A0E3 		mov	r2, #30
 2200 0d08 0020C3E5 		strb	r2, [r3, #0]
 2201 0d0c FEFFFFEB 		bl	nav_init_block
 2202 0d10 3B0000EA 		b	.L101
 2203              	.L132:
 2204 0d14 34219FE5 		ldr	r2, .L299+12
 2205 0d18 0010D2E5 		ldrb	r1, [r2, #0]	@ zero_extendqisi2
 2206 0d1c 050051E3 		cmp	r1, #5
 2207 0d20 01F19F97 		ldrls	pc, [pc, r1, asl #2]
 2208 0d24 250000EA 		b	.L236
 2209              	.L242:
 2210 0d28 400D0000 		.word	.L237
 2211 0d2c 5C0D0000 		.word	.L238
 2212 0d30 780D0000 		.word	.L239
 2213 0d34 940D0000 		.word	.L240
 2214 0d38 B00D0000 		.word	.L241
 2215 0d3c B00D0000 		.word	.L241
 2216              	.L237:
 2217 0d40 0C319FE5 		ldr	r3, .L299+16
 2218 0d44 0010A0E3 		mov	r1, #0
 2219 0d48 B810C3E1 		strh	r1, [r3, #8]	@ movhi
 2220 0d4c 0130A0E3 		mov	r3, #1
 2221 0d50 0030C2E5 		strb	r3, [r2, #0]
 2222 0d54 FEFFFFEB 		bl	nav_init_stage
 2223 0d58 290000EA 		b	.L101
 2224              	.L238:
 2225 0d5c F0309FE5 		ldr	r3, .L299+16
 2226 0d60 0010A0E3 		mov	r1, #0
 2227 0d64 BA10C3E1 		strh	r1, [r3, #10]	@ movhi
 2228 0d68 0230A0E3 		mov	r3, #2
 2229 0d6c 0030C2E5 		strb	r3, [r2, #0]
 2230 0d70 FEFFFFEB 		bl	nav_init_stage
 2231 0d74 220000EA 		b	.L101
 2232              	.L239:
 2233 0d78 D4309FE5 		ldr	r3, .L299+16
 2234 0d7c 0010A0E3 		mov	r1, #0
 2235 0d80 BC10C3E1 		strh	r1, [r3, #12]	@ movhi
 2236 0d84 0330A0E3 		mov	r3, #3
 2237 0d88 0030C2E5 		strb	r3, [r2, #0]
 2238 0d8c FEFFFFEB 		bl	nav_init_stage
 2239 0d90 1B0000EA 		b	.L101
 2240              	.L240:
 2241 0d94 B8309FE5 		ldr	r3, .L299+16
 2242 0d98 0010A0E3 		mov	r1, #0
 2243 0d9c B810C3E1 		strh	r1, [r3, #8]	@ movhi
 2244 0da0 0430A0E3 		mov	r3, #4
 2245 0da4 0030C2E5 		strb	r3, [r2, #0]
 2246 0da8 FEFFFFEB 		bl	nav_init_stage
 2247 0dac 140000EA 		b	.L101
 2248              	.L241:
 2249 0db0 0530A0E3 		mov	r3, #5
 2250 0db4 0030C2E5 		strb	r3, [r2, #0]
 2251 0db8 FEFFFFEB 		bl	nav_init_stage
 2252 0dbc 100000EA 		b	.L101
 2253              	.L236:
 2254 0dc0 0610A0E3 		mov	r1, #6
 2255 0dc4 0010C2E5 		strb	r1, [r2, #0]
 2256 0dc8 1F20A0E3 		mov	r2, #31
 2257 0dcc 0020C3E5 		strb	r2, [r3, #0]
 2258 0dd0 FEFFFFEB 		bl	nav_init_block
 2259 0dd4 0A0000EA 		b	.L101
 2260              	.L133:
 2261 0dd8 70209FE5 		ldr	r2, .L299+12
 2262 0ddc 0010D2E5 		ldrb	r1, [r2, #0]	@ zero_extendqisi2
 2263 0de0 000051E3 		cmp	r1, #0
 2264 0de4 0100001A 		bne	.L273
 2265 0de8 FEFFFFEB 		bl	nav_home
 2266 0dec 040000EA 		b	.L101
 2267              	.L273:
 2268 0df0 0110A0E3 		mov	r1, #1
 2269 0df4 0010C2E5 		strb	r1, [r2, #0]
 2270 0df8 2020A0E3 		mov	r2, #32
 2271 0dfc 0020C3E5 		strb	r2, [r3, #0]
 2272 0e00 FEFFFFEB 		bl	nav_init_block
 2273              	.L101:
 2274 0e04 64309FE5 		ldr	r3, .L299+44
 2275 0e08 0030D3E5 		ldrb	r3, [r3, #0]	@ zero_extendqisi2
 2276 0e0c 000053E3 		cmp	r3, #0
 2277 0e10 5C309F15 		ldrne	r3, .L299+48
 2278 0e14 5C209FE5 		ldr	r2, .L299+52
 2279 0e18 00309315 		ldrne	r3, [r3, #0]	@ float
 2280 0e1c 0030A003 		moveq	r3, #0
 2281 0e20 003082E5 		str	r3, [r2, #0]	@ float
 2282 0e24 50309FE5 		ldr	r3, .L299+56
 2283 0e28 0030D3E5 		ldrb	r3, [r3, #0]	@ zero_extendqisi2
 2284 0e2c 020053E3 		cmp	r3, #2
 2285 0e30 48309F05 		ldreq	r3, .L299+60
 2286 0e34 0020A003 		moveq	r2, #0
 2287 0e38 0020C305 		streqb	r2, [r3, #0]
 2288 0e3c 0840BDE8 		ldmfd	sp!, {r3, lr}
 2289 0e40 FEFFFFEA 		b	nav_set_altitude
 2290              	.L300:
 2291              		.align	2
 2292              	.L299:
 2293 0e44 00000000 		.word	nav_survey_active
 2294 0e48 00000000 		.word	dist2_to_wp
 2295 0e4c 00000000 		.word	nav_block
 2296 0e50 00000000 		.word	nav_stage
 2297 0e54 00000000 		.word	radio_control
 2298 0e58 00000000 		.word	launch
 2299 0e5c 00000000 		.word	fbw_mode
 2300 0e60 E0100000 		.word	4320
 2301 0e64 A0140000 		.word	5280
 2302 0e68 60180000 		.word	6240
 2303 0e6c 201C0000 		.word	7200
 2304 0e70 00000000 		.word	.LANCHOR2
 2305 0e74 00000000 		.word	.LANCHOR4
 2306 0e78 00000000 		.word	h_ctl_course_pre_bank
 2307 0e7c 00000000 		.word	v_ctl_mode
 2308 0e80 00000000 		.word	v_ctl_auto_throttle_submode
 2310              		.section	.text.nav_init,"ax",%progbits
 2311              		.align	2
 2312              		.global	nav_init
 2314              	nav_init:
 2315              		@ Function supports interworking.
 2316              		@ args = 0, pretend = 0, frame = 0
 2317              		@ frame_needed = 0, uses_anonymous_args = 0
 2318              		@ link register save eliminated.
 2319 0000 48209FE5 		ldr	r2, .L302
 2320 0004 0030A0E3 		mov	r3, #0
 2321 0008 0030C2E5 		strb	r3, [r2, #0]
 2322 000c 40209FE5 		ldr	r2, .L302+4
 2323 0010 0030C2E5 		strb	r3, [r2, #0]
 2324 0014 3C209FE5 		ldr	r2, .L302+8
 2325 0018 0030A0E3 		mov	r3, #0
 2326 001c 003082E5 		str	r3, [r2, #0]	@ float
 2327 0020 34209FE5 		ldr	r2, .L302+12
 2328 0024 003082E5 		str	r3, [r2, #0]	@ float
 2329 0028 30209FE5 		ldr	r2, .L302+16
 2330 002c 30309FE5 		ldr	r3, .L302+20
 2331 0030 002083E5 		str	r2, [r3, #0]	@ float
 2332 0034 2C209FE5 		ldr	r2, .L302+24
 2333 0038 2C309FE5 		ldr	r3, .L302+28
 2334 003c 002083E5 		str	r2, [r3, #0]	@ float
 2335 0040 28309FE5 		ldr	r3, .L302+32
 2336 0044 0220A0E3 		mov	r2, #2
 2337 0048 002083E5 		str	r2, [r3, #0]
 2338 004c 1EFF2FE1 		bx	lr
 2339              	.L303:
 2340              		.align	2
 2341              	.L302:
 2342 0050 00000000 		.word	nav_block
 2343 0054 00000000 		.word	nav_stage
 2344 0058 00000000 		.word	ground_alt
 2345 005c 00000000 		.word	nav_glide_pitch_trim
 2346 0060 0000C842 		.word	1120403456
 2347 0064 00000000 		.word	nav_radius
 2348 0068 00004843 		.word	1128792064
 2349 006c 00000000 		.word	nav_survey_shift
 2350 0070 00000000 		.word	nav_mode
 2352              		.section	.text.nav_without_gps,"ax",%progbits
 2353              		.align	2
 2354              		.global	nav_without_gps
 2356              	nav_without_gps:
 2357              		@ Function supports interworking.
 2358              		@ args = 0, pretend = 0, frame = 0
 2359              		@ frame_needed = 0, uses_anonymous_args = 0
 2360              		@ link register save eliminated.
 2361 0000 34309FE5 		ldr	r3, .L305
 2362 0004 0220A0E3 		mov	r2, #2
 2363 0008 0020C3E5 		strb	r2, [r3, #0]
 2364 000c 2C309FE5 		ldr	r3, .L305+4
 2365 0010 0120A0E3 		mov	r2, #1
 2366 0014 0020C3E5 		strb	r2, [r3, #0]
 2367 0018 24209FE5 		ldr	r2, .L305+8
 2368 001c 0030A0E3 		mov	r3, #0
 2369 0020 003082E5 		str	r3, [r2, #0]	@ float
 2370 0024 1C209FE5 		ldr	r2, .L305+12
 2371 0028 003082E5 		str	r3, [r2, #0]	@ float
 2372 002c 18309FE5 		ldr	r3, .L305+16
 2373 0030 0F2CA0E3 		mov	r2, #3840
 2374 0034 B020C3E1 		strh	r2, [r3, #0]	@ movhi
 2375 0038 1EFF2FE1 		bx	lr
 2376              	.L306:
 2377              		.align	2
 2378              	.L305:
 2379 003c 00000000 		.word	lateral_mode
 2380 0040 00000000 		.word	v_ctl_mode
 2381 0044 00000000 		.word	h_ctl_roll_setpoint
 2382 0048 00000000 		.word	nav_pitch
 2383 004c 00000000 		.word	nav_throttle_setpoint
 2385              		.section	.text.nav_eight_init,"ax",%progbits
 2386              		.align	2
 2387              		.global	nav_eight_init
 2389              	nav_eight_init:
 2390              		@ Function supports interworking.
 2391              		@ args = 0, pretend = 0, frame = 0
 2392              		@ frame_needed = 0, uses_anonymous_args = 0
 2393              		@ link register save eliminated.
 2394 0000 08309FE5 		ldr	r3, .L308
 2395 0004 0520A0E3 		mov	r2, #5
 2396 0008 0020C3E5 		strb	r2, [r3, #0]
 2397 000c 1EFF2FE1 		bx	lr
 2398              	.L309:
 2399              		.align	2
 2400              	.L308:
 2401 0010 00000000 		.word	.LANCHOR14
 2403              		.global	__aeabi_fcmpge
 2404              		.section	.text.nav_eight,"ax",%progbits
 2405              		.align	2
 2406              		.global	nav_eight
 2408              	nav_eight:
 2409              		@ Function supports interworking.
 2410              		@ args = 0, pretend = 0, frame = 40
 2411              		@ frame_needed = 0, uses_anonymous_args = 0
 2412 0000 F04F2DE9 		stmfd	sp!, {r4, r5, r6, r7, r8, r9, sl, fp, lr}
 2413 0004 34D04DE2 		sub	sp, sp, #52
 2414 0008 10108DE5 		str	r1, [sp, #16]
 2415 000c 0271C2E3 		bic	r7, r2, #-2147483648
 2416 0010 0C10A0E3 		mov	r1, #12
 2417 0014 0240A0E1 		mov	r4, r2
 2418 0018 0020A0E1 		mov	r2, r0
 2419 001c 910202E0 		mul	r2, r1, r2
 2420 0020 10C09DE5 		ldr	ip, [sp, #16]
 2421 0024 9C0101E0 		mul	r1, ip, r1
 2422 0028 70379FE5 		ldr	r3, .L376
 2423 002c 025083E0 		add	r5, r3, r2
 2424 0030 0C008DE5 		str	r0, [sp, #12]
 2425 0034 080095E5 		ldr	r0, [r5, #8]	@ float
 2426 0038 016083E0 		add	r6, r3, r1
 2427 003c 080086E5 		str	r0, [r6, #8]	@ float
 2428 0040 010093E7 		ldr	r0, [r3, r1]	@ float
 2429 0044 021093E7 		ldr	r1, [r3, r2]	@ float
 2430 0048 FEFFFFEB 		bl	__aeabi_fsub
 2431 004c 041095E5 		ldr	r1, [r5, #4]	@ float
 2432 0050 0080A0E1 		mov	r8, r0
 2433 0054 040096E5 		ldr	r0, [r6, #4]	@ float
 2434 0058 FEFFFFEB 		bl	__aeabi_fsub
 2435 005c 0810A0E1 		mov	r1, r8
 2436 0060 0060A0E1 		mov	r6, r0
 2437 0064 0800A0E1 		mov	r0, r8
 2438 0068 FEFFFFEB 		bl	__aeabi_fmul
 2439 006c 0610A0E1 		mov	r1, r6
 2440 0070 0050A0E1 		mov	r5, r0
 2441 0074 0600A0E1 		mov	r0, r6
 2442 0078 FEFFFFEB 		bl	__aeabi_fmul
 2443 007c 0010A0E1 		mov	r1, r0
 2444 0080 0500A0E1 		mov	r0, r5
 2445 0084 FEFFFFEB 		bl	__aeabi_fadd
 2446 0088 FEFFFFEB 		bl	__aeabi_f2d
 2447 008c FEFFFFEB 		bl	sqrt
 2448 0090 FEFFFFEB 		bl	__aeabi_d2f
 2449 0094 FE15A0E3 		mov	r1, #1065353216
 2450 0098 0050A0E1 		mov	r5, r0
 2451 009c FEFFFFEB 		bl	__aeabi_fcmpgt
 2452 00a0 000050E3 		cmp	r0, #0
 2453 00a4 FE55A003 		moveq	r5, #1065353216
 2454 00a8 0510A0E1 		mov	r1, r5
 2455 00ac 0800A0E1 		mov	r0, r8
 2456 00b0 FEFFFFEB 		bl	__aeabi_fdiv
 2457 00b4 0510A0E1 		mov	r1, r5
 2458 00b8 00A0A0E1 		mov	sl, r0
 2459 00bc 0600A0E1 		mov	r0, r6
 2460 00c0 FEFFFFEB 		bl	__aeabi_fdiv
 2461 00c4 0710A0E1 		mov	r1, r7
 2462 00c8 00B0A0E1 		mov	fp, r0
 2463 00cc 0700A0E1 		mov	r0, r7
 2464 00d0 FEFFFFEB 		bl	__aeabi_fadd
 2465 00d4 0060A0E1 		mov	r6, r0
 2466 00d8 0610A0E1 		mov	r1, r6
 2467 00dc 0500A0E1 		mov	r0, r5
 2468 00e0 FEFFFFEB 		bl	__aeabi_fcmpgt
 2469 00e4 000050E3 		cmp	r0, #0
 2470 00e8 1800000A 		beq	.L312
 2471 00ec 10709DE5 		ldr	r7, [sp, #16]
 2472 00f0 0C80A0E3 		mov	r8, #12
 2473 00f4 980707E0 		mul	r7, r8, r7
 2474 00f8 A0569FE5 		ldr	r5, .L376
 2475 00fc 0CC09DE5 		ldr	ip, [sp, #12]
 2476 0100 073085E0 		add	r3, r5, r7
 2477 0104 0A10A0E1 		mov	r1, sl
 2478 0108 0600A0E1 		mov	r0, r6
 2479 010c 9C0808E0 		mul	r8, ip, r8
 2480 0110 08308DE5 		str	r3, [sp, #8]
 2481 0114 FEFFFFEB 		bl	__aeabi_fmul
 2482 0118 0010A0E1 		mov	r1, r0
 2483 011c 080095E7 		ldr	r0, [r5, r8]	@ float
 2484 0120 FEFFFFEB 		bl	__aeabi_fadd
 2485 0124 0B10A0E1 		mov	r1, fp
 2486 0128 070085E7 		str	r0, [r5, r7]	@ float
 2487 012c 0600A0E1 		mov	r0, r6
 2488 0130 FEFFFFEB 		bl	__aeabi_fmul
 2489 0134 089085E0 		add	r9, r5, r8
 2490 0138 0010A0E1 		mov	r1, r0
 2491 013c 040099E5 		ldr	r0, [r9, #4]	@ float
 2492 0140 FEFFFFEB 		bl	__aeabi_fadd
 2493 0144 08309DE5 		ldr	r3, [sp, #8]
 2494 0148 040083E5 		str	r0, [r3, #4]	@ float
 2495 014c 0650A0E1 		mov	r5, r6
 2496              	.L312:
 2497 0150 0A10A0E1 		mov	r1, sl
 2498 0154 0500A0E1 		mov	r0, r5
 2499 0158 FEFFFFEB 		bl	__aeabi_fmul
 2500 015c 0C809DE5 		ldr	r8, [sp, #12]
 2501 0160 0C70A0E3 		mov	r7, #12
 2502 0164 970808E0 		mul	r8, r7, r8
 2503 0168 30669FE5 		ldr	r6, .L376
 2504 016c 0010A0E1 		mov	r1, r0
 2505 0170 080096E7 		ldr	r0, [r6, r8]	@ float
 2506 0174 FEFFFFEB 		bl	__aeabi_fsub
 2507 0178 0B10A0E1 		mov	r1, fp
 2508 017c 14008DE5 		str	r0, [sp, #20]	@ float
 2509 0180 0500A0E1 		mov	r0, r5
 2510 0184 FEFFFFEB 		bl	__aeabi_fmul
 2511 0188 089086E0 		add	r9, r6, r8
 2512 018c 0010A0E1 		mov	r1, r0
 2513 0190 040099E5 		ldr	r0, [r9, #4]	@ float
 2514 0194 FEFFFFEB 		bl	__aeabi_fsub
 2515 0198 10C09DE5 		ldr	ip, [sp, #16]
 2516 019c 18008DE5 		str	r0, [sp, #24]	@ float
 2517 01a0 02118BE2 		add	r1, fp, #-2147483648
 2518 01a4 0400A0E1 		mov	r0, r4
 2519 01a8 9C0707E0 		mul	r7, ip, r7
 2520 01ac FEFFFFEB 		bl	__aeabi_fmul
 2521 01b0 075096E7 		ldr	r5, [r6, r7]	@ float
 2522 01b4 0090A0E1 		mov	r9, r0
 2523 01b8 0910A0E1 		mov	r1, r9
 2524 01bc 0500A0E1 		mov	r0, r5
 2525 01c0 FEFFFFEB 		bl	__aeabi_fadd
 2526 01c4 0A10A0E1 		mov	r1, sl
 2527 01c8 1C008DE5 		str	r0, [sp, #28]	@ float
 2528 01cc 0400A0E1 		mov	r0, r4
 2529 01d0 FEFFFFEB 		bl	__aeabi_fmul
 2530 01d4 078086E0 		add	r8, r6, r7
 2531 01d8 046098E5 		ldr	r6, [r8, #4]	@ float
 2532 01dc 0080A0E1 		mov	r8, r0
 2533 01e0 0810A0E1 		mov	r1, r8
 2534 01e4 0600A0E1 		mov	r0, r6
 2535 01e8 FEFFFFEB 		bl	__aeabi_fadd
 2536 01ec 0B10A0E1 		mov	r1, fp
 2537 01f0 20008DE5 		str	r0, [sp, #32]	@ float
 2538 01f4 0400A0E1 		mov	r0, r4
 2539 01f8 FEFFFFEB 		bl	__aeabi_fmul
 2540 01fc 0070A0E1 		mov	r7, r0
 2541 0200 0710A0E1 		mov	r1, r7
 2542 0204 0500A0E1 		mov	r0, r5
 2543 0208 FEFFFFEB 		bl	__aeabi_fadd
 2544 020c 0810A0E1 		mov	r1, r8
 2545 0210 0050A0E1 		mov	r5, r0
 2546 0214 0600A0E1 		mov	r0, r6
 2547 0218 FEFFFFEB 		bl	__aeabi_fsub
 2548 021c 0910A0E1 		mov	r1, r9
 2549 0220 0060A0E1 		mov	r6, r0
 2550 0224 14009DE5 		ldr	r0, [sp, #20]	@ float
 2551 0228 FEFFFFEB 		bl	__aeabi_fadd
 2552 022c 0810A0E1 		mov	r1, r8
 2553 0230 0090A0E1 		mov	r9, r0
 2554 0234 18009DE5 		ldr	r0, [sp, #24]	@ float
 2555 0238 FEFFFFEB 		bl	__aeabi_fadd
 2556 023c 0710A0E1 		mov	r1, r7
 2557 0240 24008DE5 		str	r0, [sp, #36]	@ float
 2558 0244 14009DE5 		ldr	r0, [sp, #20]	@ float
 2559 0248 FEFFFFEB 		bl	__aeabi_fadd
 2560 024c 0810A0E1 		mov	r1, r8
 2561 0250 0070A0E1 		mov	r7, r0
 2562 0254 18009DE5 		ldr	r0, [sp, #24]	@ float
 2563 0258 FEFFFFEB 		bl	__aeabi_fsub
 2564 025c 0080A0E1 		mov	r8, r0
 2565 0260 0B00A0E1 		mov	r0, fp
 2566 0264 FEFFFFEB 		bl	__aeabi_f2d
 2567 0268 28008DE5 		str	r0, [sp, #40]
 2568 026c 2C108DE5 		str	r1, [sp, #44]
 2569 0270 0A00A0E1 		mov	r0, sl
 2570 0274 FEFFFFEB 		bl	__aeabi_f2d
 2571 0278 0020A0E1 		mov	r2, r0
 2572 027c 0130A0E1 		mov	r3, r1
 2573 0280 28108DE2 		add	r1, sp, #40
 2574 0284 030091E8 		ldmia	r1, {r0-r1}
 2575 0288 FEFFFFEB 		bl	atan2
 2576 028c 0020A0E1 		mov	r2, r0
 2577 0290 0130A0E1 		mov	r3, r1
 2578 0294 08059FE5 		ldr	r0, .L376+4
 2579 0298 08159FE5 		ldr	r1, .L376+8
 2580 029c FEFFFFEB 		bl	__aeabi_dsub
 2581 02a0 FEFFFFEB 		bl	__aeabi_d2f
 2582 02a4 0010A0E3 		mov	r1, #0
 2583 02a8 00A0A0E1 		mov	sl, r0
 2584 02ac 0400A0E1 		mov	r0, r4
 2585 02b0 FEFFFFEB 		bl	__aeabi_fcmplt
 2586 02b4 000050E3 		cmp	r0, #0
 2587 02b8 0600000A 		beq	.L314
 2588 02bc 0A00A0E1 		mov	r0, sl
 2589 02c0 FEFFFFEB 		bl	__aeabi_f2d
 2590 02c4 D8249FE5 		ldr	r2, .L376+4
 2591 02c8 D8349FE5 		ldr	r3, .L376+8
 2592 02cc FEFFFFEB 		bl	__aeabi_dadd
 2593 02d0 FEFFFFEB 		bl	__aeabi_d2f
 2594 02d4 00A0A0E1 		mov	sl, r0
 2595              	.L314:
 2596 02d8 CC349FE5 		ldr	r3, .L376+12
 2597 02dc 0030D3E5 		ldrb	r3, [r3, #0]	@ zero_extendqisi2
 2598 02e0 050053E3 		cmp	r3, #5
 2599 02e4 03F19F97 		ldrls	pc, [pc, r3, asl #2]
 2600 02e8 290100EA 		b	.L310
 2601              	.L323:
 2602 02ec B8040000 		.word	.L317
 2603 02f0 0C050000 		.word	.L318
 2604 02f4 4C050000 		.word	.L319
 2605 02f8 EC060000 		.word	.L320
 2606 02fc 44070000 		.word	.L321
 2607 0300 04030000 		.word	.L322
 2608              	.L322:
 2609 0304 10C09DE5 		ldr	ip, [sp, #16]
 2610 0308 0C20A0E3 		mov	r2, #12
 2611 030c 9C0202E0 		mul	r2, ip, r2
 2612 0310 88149FE5 		ldr	r1, .L376
 2613 0314 023081E0 		add	r3, r1, r2
 2614 0318 020091E7 		ldr	r0, [r1, r2]	@ float
 2615 031c 0420A0E1 		mov	r2, r4
 2616 0320 041093E5 		ldr	r1, [r3, #4]	@ float
 2617 0324 FEFFFFEB 		bl	nav_circle_XY
 2618 0328 0A00A0E1 		mov	r0, sl
 2619 032c FEFFFFEB 		bl	__aeabi_f2d
 2620 0330 78249FE5 		ldr	r2, .L376+16
 2621 0334 78349FE5 		ldr	r3, .L376+20
 2622 0338 FEFFFFEB 		bl	__aeabi_dmul
 2623 033c 0020A0E3 		mov	r2, #0
 2624 0340 70349FE5 		ldr	r3, .L376+24
 2625 0344 FEFFFFEB 		bl	__aeabi_dsub
 2626 0348 6C349FE5 		ldr	r3, .L376+28
 2627 034c 0040A0E1 		mov	r4, r0
 2628 0350 000093E5 		ldr	r0, [r3, #0]	@ float
 2629 0354 0150A0E1 		mov	r5, r1
 2630 0358 FEFFFFEB 		bl	__aeabi_f2d
 2631 035c 0020A0E1 		mov	r2, r0
 2632 0360 0130A0E1 		mov	r3, r1
 2633 0364 38049FE5 		ldr	r0, .L376+4
 2634 0368 50149FE5 		ldr	r1, .L376+32
 2635 036c FEFFFFEB 		bl	__aeabi_dsub
 2636 0370 38249FE5 		ldr	r2, .L376+16
 2637 0374 38349FE5 		ldr	r3, .L376+20
 2638 0378 FEFFFFEB 		bl	__aeabi_dmul
 2639 037c FEFFFFEB 		bl	__aeabi_d2f
 2640 0380 0070A0E3 		mov	r7, #0
 2641 0384 0060A0E1 		mov	r6, r0
 2642 0388 030000EA 		b	.L324
 2643              	.L327:
 2644 038c 0600A0E1 		mov	r0, r6
 2645 0390 2C149FE5 		ldr	r1, .L376+36
 2646 0394 FEFFFFEB 		bl	__aeabi_fadd
 2647 0398 0060A0E1 		mov	r6, r0
 2648              	.L324:
 2649 039c 0600A0E1 		mov	r0, r6
 2650 03a0 0010A0E3 		mov	r1, #0
 2651 03a4 FEFFFFEB 		bl	__aeabi_fcmplt
 2652 03a8 000050E3 		cmp	r0, #0
 2653 03ac FF8007E2 		and	r8, r7, #255
 2654 03b0 0700000A 		beq	.L366
 2655 03b4 017087E2 		add	r7, r7, #1
 2656 03b8 010C57E3 		cmp	r7, #256
 2657 03bc F2FFFF1A 		bne	.L327
 2658 03c0 0080A0E3 		mov	r8, #0
 2659 03c4 020000EA 		b	.L366
 2660              	.L331:
 2661 03c8 F4139FE5 		ldr	r1, .L376+36
 2662 03cc FEFFFFEB 		bl	__aeabi_fsub
 2663 03d0 0060A0E1 		mov	r6, r0
 2664              	.L366:
 2665 03d4 0600A0E1 		mov	r0, r6
 2666 03d8 E4139FE5 		ldr	r1, .L376+36
 2667 03dc FEFFFFEB 		bl	__aeabi_fcmpge
 2668 03e0 000050E3 		cmp	r0, #0
 2669 03e4 0600A0E1 		mov	r0, r6
 2670 03e8 0200000A 		beq	.L329
 2671 03ec 018088E2 		add	r8, r8, #1
 2672 03f0 FF8018E2 		ands	r8, r8, #255
 2673 03f4 F3FFFF1A 		bne	.L331
 2674              	.L329:
 2675 03f8 FEFFFFEB 		bl	__aeabi_f2d
 2676 03fc 0020A0E1 		mov	r2, r0
 2677 0400 0130A0E1 		mov	r3, r1
 2678 0404 0400A0E1 		mov	r0, r4
 2679 0408 0510A0E1 		mov	r1, r5
 2680 040c FEFFFFEB 		bl	__aeabi_dsub
 2681 0410 FEFFFFEB 		bl	__aeabi_d2f
 2682 0414 0050A0E3 		mov	r5, #0
 2683 0418 0040A0E1 		mov	r4, r0
 2684 041c 030000EA 		b	.L332
 2685              	.L335:
 2686 0420 0400A0E1 		mov	r0, r4
 2687 0424 98139FE5 		ldr	r1, .L376+36
 2688 0428 FEFFFFEB 		bl	__aeabi_fadd
 2689 042c 0040A0E1 		mov	r4, r0
 2690              	.L332:
 2691 0430 0400A0E1 		mov	r0, r4
 2692 0434 0010A0E3 		mov	r1, #0
 2693 0438 FEFFFFEB 		bl	__aeabi_fcmplt
 2694 043c 000050E3 		cmp	r0, #0
 2695 0440 FF6005E2 		and	r6, r5, #255
 2696 0444 0700000A 		beq	.L367
 2697 0448 015085E2 		add	r5, r5, #1
 2698 044c 010C55E3 		cmp	r5, #256
 2699 0450 F2FFFF1A 		bne	.L335
 2700 0454 0060A0E3 		mov	r6, #0
 2701 0458 020000EA 		b	.L367
 2702              	.L339:
 2703 045c 60139FE5 		ldr	r1, .L376+36
 2704 0460 FEFFFFEB 		bl	__aeabi_fsub
 2705 0464 0040A0E1 		mov	r4, r0
 2706              	.L367:
 2707 0468 0400A0E1 		mov	r0, r4
 2708 046c 50139FE5 		ldr	r1, .L376+36
 2709 0470 FEFFFFEB 		bl	__aeabi_fcmpge
 2710 0474 000050E3 		cmp	r0, #0
 2711 0478 0400A0E1 		mov	r0, r4
 2712 047c 0200000A 		beq	.L337
 2713 0480 016086E2 		add	r6, r6, #1
 2714 0484 FF6016E2 		ands	r6, r6, #255
 2715 0488 F3FFFF1A 		bne	.L339
 2716              	.L337:
 2717 048c 34139FE5 		ldr	r1, .L376+40
 2718 0490 FEFFFFEB 		bl	__aeabi_fcmpgt
 2719 0494 000050E3 		cmp	r0, #0
 2720 0498 0400001A 		bne	.L340
 2721 049c 0400A0E1 		mov	r0, r4
 2722 04a0 24139FE5 		ldr	r1, .L376+44
 2723 04a4 FEFFFFEB 		bl	__aeabi_fcmplt
 2724 04a8 000050E3 		cmp	r0, #0
 2725 04ac B800000A 		beq	.L310
 2726              	.L340:
 2727 04b0 0020A0E3 		mov	r2, #0
 2728 04b4 B10000EA 		b	.L374
 2729              	.L317:
 2730 04b8 0500A0E1 		mov	r0, r5
 2731 04bc 0610A0E1 		mov	r1, r6
 2732 04c0 0920A0E1 		mov	r2, r9
 2733 04c4 24309DE5 		ldr	r3, [sp, #36]	@ float
 2734 04c8 FEFFFFEB 		bl	nav_route_xy
 2735 04cc 0CC09DE5 		ldr	ip, [sp, #12]
 2736 04d0 0C20A0E3 		mov	r2, #12
 2737 04d4 9C0202E0 		mul	r2, ip, r2
 2738 04d8 C0129FE5 		ldr	r1, .L376
 2739 04dc 0000A0E3 		mov	r0, #0
 2740 04e0 00008DE5 		str	r0, [sp, #0]	@ float
 2741 04e4 023081E0 		add	r3, r1, r2
 2742 04e8 020091E7 		ldr	r0, [r1, r2]	@ float
 2743 04ec 041093E5 		ldr	r1, [r3, #4]	@ float
 2744 04f0 0520A0E1 		mov	r2, r5
 2745 04f4 0630A0E1 		mov	r3, r6
 2746 04f8 FEFFFFEB 		bl	nav_approaching_xy
 2747 04fc 000050E3 		cmp	r0, #0
 2748 0500 0120A013 		movne	r2, #1
 2749 0504 A200000A 		beq	.L310
 2750 0508 9C0000EA 		b	.L374
 2751              	.L318:
 2752 050c 0500A0E1 		mov	r0, r5
 2753 0510 0610A0E1 		mov	r1, r6
 2754 0514 0920A0E1 		mov	r2, r9
 2755 0518 24309DE5 		ldr	r3, [sp, #36]	@ float
 2756 051c FEFFFFEB 		bl	nav_route_xy
 2757 0520 A8329FE5 		ldr	r3, .L376+48
 2758 0524 0520A0E1 		mov	r2, r5
 2759 0528 00308DE5 		str	r3, [sp, #0]	@ float
 2760 052c 0900A0E1 		mov	r0, r9
 2761 0530 24109DE5 		ldr	r1, [sp, #36]	@ float
 2762 0534 0630A0E1 		mov	r3, r6
 2763 0538 FEFFFFEB 		bl	nav_approaching_xy
 2764 053c 000050E3 		cmp	r0, #0
 2765 0540 0220A013 		movne	r2, #2
 2766 0544 9200000A 		beq	.L310
 2767 0548 8C0000EA 		b	.L374
 2768              	.L319:
 2769 054c 022184E2 		add	r2, r4, #-2147483648
 2770 0550 14009DE5 		ldr	r0, [sp, #20]	@ float
 2771 0554 18109DE5 		ldr	r1, [sp, #24]	@ float
 2772 0558 FEFFFFEB 		bl	nav_circle_XY
 2773 055c 0A00A0E1 		mov	r0, sl
 2774 0560 FEFFFFEB 		bl	__aeabi_f2d
 2775 0564 44229FE5 		ldr	r2, .L376+16
 2776 0568 44329FE5 		ldr	r3, .L376+20
 2777 056c FEFFFFEB 		bl	__aeabi_dmul
 2778 0570 0020A0E3 		mov	r2, #0
 2779 0574 3C329FE5 		ldr	r3, .L376+24
 2780 0578 FEFFFFEB 		bl	__aeabi_dadd
 2781 057c 38329FE5 		ldr	r3, .L376+28
 2782 0580 0040A0E1 		mov	r4, r0
 2783 0584 000093E5 		ldr	r0, [r3, #0]	@ float
 2784 0588 0150A0E1 		mov	r5, r1
 2785 058c FEFFFFEB 		bl	__aeabi_f2d
 2786 0590 0020A0E1 		mov	r2, r0
 2787 0594 0130A0E1 		mov	r3, r1
 2788 0598 04029FE5 		ldr	r0, .L376+4
 2789 059c 1C129FE5 		ldr	r1, .L376+32
 2790 05a0 FEFFFFEB 		bl	__aeabi_dsub
 2791 05a4 04229FE5 		ldr	r2, .L376+16
 2792 05a8 04329FE5 		ldr	r3, .L376+20
 2793 05ac FEFFFFEB 		bl	__aeabi_dmul
 2794 05b0 FEFFFFEB 		bl	__aeabi_d2f
 2795 05b4 0070A0E3 		mov	r7, #0
 2796 05b8 0060A0E1 		mov	r6, r0
 2797 05bc 030000EA 		b	.L342
 2798              	.L345:
 2799 05c0 0600A0E1 		mov	r0, r6
 2800 05c4 F8119FE5 		ldr	r1, .L376+36
 2801 05c8 FEFFFFEB 		bl	__aeabi_fadd
 2802 05cc 0060A0E1 		mov	r6, r0
 2803              	.L342:
 2804 05d0 0600A0E1 		mov	r0, r6
 2805 05d4 0010A0E3 		mov	r1, #0
 2806 05d8 FEFFFFEB 		bl	__aeabi_fcmplt
 2807 05dc 000050E3 		cmp	r0, #0
 2808 05e0 FF8007E2 		and	r8, r7, #255
 2809 05e4 0700000A 		beq	.L368
 2810 05e8 017087E2 		add	r7, r7, #1
 2811 05ec 010C57E3 		cmp	r7, #256
 2812 05f0 F2FFFF1A 		bne	.L345
 2813 05f4 0080A0E3 		mov	r8, #0
 2814 05f8 020000EA 		b	.L368
 2815              	.L349:
 2816 05fc C0119FE5 		ldr	r1, .L376+36
 2817 0600 FEFFFFEB 		bl	__aeabi_fsub
 2818 0604 0060A0E1 		mov	r6, r0
 2819              	.L368:
 2820 0608 0600A0E1 		mov	r0, r6
 2821 060c B0119FE5 		ldr	r1, .L376+36
 2822 0610 FEFFFFEB 		bl	__aeabi_fcmpge
 2823 0614 000050E3 		cmp	r0, #0
 2824 0618 0600A0E1 		mov	r0, r6
 2825 061c 0200000A 		beq	.L347
 2826 0620 018088E2 		add	r8, r8, #1
 2827 0624 FF8018E2 		ands	r8, r8, #255
 2828 0628 F3FFFF1A 		bne	.L349
 2829              	.L347:
 2830 062c FEFFFFEB 		bl	__aeabi_f2d
 2831 0630 0020A0E1 		mov	r2, r0
 2832 0634 0130A0E1 		mov	r3, r1
 2833 0638 0400A0E1 		mov	r0, r4
 2834 063c 0510A0E1 		mov	r1, r5
 2835 0640 FEFFFFEB 		bl	__aeabi_dsub
 2836 0644 FEFFFFEB 		bl	__aeabi_d2f
 2837 0648 0050A0E3 		mov	r5, #0
 2838 064c 0040A0E1 		mov	r4, r0
 2839 0650 030000EA 		b	.L350
 2840              	.L353:
 2841 0654 0400A0E1 		mov	r0, r4
 2842 0658 64119FE5 		ldr	r1, .L376+36
 2843 065c FEFFFFEB 		bl	__aeabi_fadd
 2844 0660 0040A0E1 		mov	r4, r0
 2845              	.L350:
 2846 0664 0400A0E1 		mov	r0, r4
 2847 0668 0010A0E3 		mov	r1, #0
 2848 066c FEFFFFEB 		bl	__aeabi_fcmplt
 2849 0670 000050E3 		cmp	r0, #0
 2850 0674 FF6005E2 		and	r6, r5, #255
 2851 0678 0700000A 		beq	.L369
 2852 067c 015085E2 		add	r5, r5, #1
 2853 0680 010C55E3 		cmp	r5, #256
 2854 0684 F2FFFF1A 		bne	.L353
 2855 0688 0060A0E3 		mov	r6, #0
 2856 068c 020000EA 		b	.L369
 2857              	.L357:
 2858 0690 2C119FE5 		ldr	r1, .L376+36
 2859 0694 FEFFFFEB 		bl	__aeabi_fsub
 2860 0698 0040A0E1 		mov	r4, r0
 2861              	.L369:
 2862 069c 0400A0E1 		mov	r0, r4
 2863 06a0 1C119FE5 		ldr	r1, .L376+36
 2864 06a4 FEFFFFEB 		bl	__aeabi_fcmpge
 2865 06a8 000050E3 		cmp	r0, #0
 2866 06ac 0400A0E1 		mov	r0, r4
 2867 06b0 0200000A 		beq	.L355
 2868 06b4 016086E2 		add	r6, r6, #1
 2869 06b8 FF6016E2 		ands	r6, r6, #255
 2870 06bc F3FFFF1A 		bne	.L357
 2871              	.L355:
 2872 06c0 00119FE5 		ldr	r1, .L376+40
 2873 06c4 FEFFFFEB 		bl	__aeabi_fcmpgt
 2874 06c8 000050E3 		cmp	r0, #0
 2875 06cc 0400001A 		bne	.L358
 2876 06d0 0400A0E1 		mov	r0, r4
 2877 06d4 F0109FE5 		ldr	r1, .L376+44
 2878 06d8 FEFFFFEB 		bl	__aeabi_fcmplt
 2879 06dc 000050E3 		cmp	r0, #0
 2880 06e0 2B00000A 		beq	.L310
 2881              	.L358:
 2882 06e4 0320A0E3 		mov	r2, #3
 2883 06e8 240000EA 		b	.L374
 2884              	.L320:
 2885 06ec 0700A0E1 		mov	r0, r7
 2886 06f0 0810A0E1 		mov	r1, r8
 2887 06f4 1C209DE5 		ldr	r2, [sp, #28]	@ float
 2888 06f8 20309DE5 		ldr	r3, [sp, #32]	@ float
 2889 06fc FEFFFFEB 		bl	nav_route_xy
 2890 0700 0CC09DE5 		ldr	ip, [sp, #12]
 2891 0704 0C20A0E3 		mov	r2, #12
 2892 0708 9C0202E0 		mul	r2, ip, r2
 2893 070c 8C109FE5 		ldr	r1, .L376
 2894 0710 0000A0E3 		mov	r0, #0
 2895 0714 00008DE5 		str	r0, [sp, #0]	@ float
 2896 0718 023081E0 		add	r3, r1, r2
 2897 071c 020091E7 		ldr	r0, [r1, r2]	@ float
 2898 0720 041093E5 		ldr	r1, [r3, #4]	@ float
 2899 0724 0720A0E1 		mov	r2, r7
 2900 0728 0830A0E1 		mov	r3, r8
 2901 072c FEFFFFEB 		bl	nav_approaching_xy
 2902 0730 000050E3 		cmp	r0, #0
 2903 0734 70309F15 		ldrne	r3, .L376+12
 2904 0738 0420A013 		movne	r2, #4
 2905 073c 1400000A 		beq	.L310
 2906 0740 0F0000EA 		b	.L375
 2907              	.L321:
 2908 0744 0700A0E1 		mov	r0, r7
 2909 0748 0810A0E1 		mov	r1, r8
 2910 074c 1C209DE5 		ldr	r2, [sp, #28]	@ float
 2911 0750 20309DE5 		ldr	r3, [sp, #32]	@ float
 2912 0754 FEFFFFEB 		bl	nav_route_xy
 2913 0758 70309FE5 		ldr	r3, .L376+48
 2914 075c 1C009DE5 		ldr	r0, [sp, #28]	@ float
 2915 0760 00308DE5 		str	r3, [sp, #0]	@ float
 2916 0764 20109DE5 		ldr	r1, [sp, #32]	@ float
 2917 0768 0720A0E1 		mov	r2, r7
 2918 076c 0830A0E1 		mov	r3, r8
 2919 0770 FEFFFFEB 		bl	nav_approaching_xy
 2920 0774 000050E3 		cmp	r0, #0
 2921 0778 0500000A 		beq	.L310
 2922 077c 0520A0E3 		mov	r2, #5
 2923              	.L374:
 2924 0780 24309FE5 		ldr	r3, .L376+12
 2925              	.L375:
 2926 0784 0020C3E5 		strb	r2, [r3, #0]
 2927 0788 34D08DE2 		add	sp, sp, #52
 2928 078c F04FBDE8 		ldmfd	sp!, {r4, r5, r6, r7, r8, r9, sl, fp, lr}
 2929 0790 FEFFFFEA 		b	nav_init_stage
 2930              	.L310:
 2931 0794 34D08DE2 		add	sp, sp, #52
 2932 0798 F04FBDE8 		ldmfd	sp!, {r4, r5, r6, r7, r8, r9, sl, fp, lr}
 2933 079c 1EFF2FE1 		bx	lr
 2934              	.L377:
 2935              		.align	2
 2936              	.L376:
 2937 07a0 00000000 		.word	.LANCHOR7
 2938 07a4 182D4454 		.word	1413754136
 2939 07a8 FB210940 		.word	1074340347
 2940 07ac 00000000 		.word	.LANCHOR14
 2941 07b0 F8C1631A 		.word	442745336
 2942 07b4 DCA54C40 		.word	1078765020
 2943 07b8 00002440 		.word	1076101120
 2944 07bc 00000000 		.word	nav_circle_trigo_qdr
 2945 07c0 FB21F93F 		.word	1073291771
 2946 07c4 0000B443 		.word	1135869952
 2947 07c8 0000AF43 		.word	1135542272
 2948 07cc 00002041 		.word	1092616192
 2949 07d0 0000A040 		.word	1084227584
 2951              		.section	.text.nav_oval_init,"ax",%progbits
 2952              		.align	2
 2953              		.global	nav_oval_init
 2955              	nav_oval_init:
 2956              		@ Function supports interworking.
 2957              		@ args = 0, pretend = 0, frame = 0
 2958              		@ frame_needed = 0, uses_anonymous_args = 0
 2959              		@ link register save eliminated.
 2960 0000 14309FE5 		ldr	r3, .L379
 2961 0004 0120A0E3 		mov	r2, #1
 2962 0008 0020C3E5 		strb	r2, [r3, #0]
 2963 000c 0C309FE5 		ldr	r3, .L379+4
 2964 0010 0020A0E3 		mov	r2, #0
 2965 0014 0020C3E5 		strb	r2, [r3, #0]
 2966 0018 1EFF2FE1 		bx	lr
 2967              	.L380:
 2968              		.align	2
 2969              	.L379:
 2970 001c 00000000 		.word	oval_status
 2971 0020 00000000 		.word	nav_oval_count
 2973              		.section	.text.nav_oval,"ax",%progbits
 2974              		.align	2
 2975              		.global	nav_oval
 2977              	nav_oval:
 2978              		@ Function supports interworking.
 2979              		@ args = 0, pretend = 0, frame = 40
 2980              		@ frame_needed = 0, uses_anonymous_args = 0
 2981 0000 F04F2DE9 		stmfd	sp!, {r4, r5, r6, r7, r8, r9, sl, fp, lr}
 2982 0004 0C70A0E3 		mov	r7, #12
 2983 0008 00A0A0E1 		mov	sl, r0
 2984 000c 970A0AE0 		mul	sl, r7, sl
 2985 0010 910707E0 		mul	r7, r1, r7
 2986 0014 9C569FE5 		ldr	r5, .L446
 2987 0018 0A8085E0 		add	r8, r5, sl
 2988 001c 083098E5 		ldr	r3, [r8, #8]	@ float
 2989 0020 34D04DE2 		sub	sp, sp, #52
 2990 0024 076085E0 		add	r6, r5, r7
 2991 0028 083086E5 		str	r3, [r6, #8]	@ float
 2992 002c 28008DE5 		str	r0, [sp, #40]
 2993 0030 2C108DE5 		str	r1, [sp, #44]
 2994 0034 0A0095E7 		ldr	r0, [r5, sl]	@ float
 2995 0038 071095E7 		ldr	r1, [r5, r7]	@ float
 2996 003c 024182E2 		add	r4, r2, #-2147483648
 2997 0040 10208DE5 		str	r2, [sp, #16]	@ float
 2998 0044 FEFFFFEB 		bl	__aeabi_fsub
 2999 0048 041096E5 		ldr	r1, [r6, #4]	@ float
 3000 004c 00B0A0E1 		mov	fp, r0
 3001 0050 040098E5 		ldr	r0, [r8, #4]	@ float
 3002 0054 FEFFFFEB 		bl	__aeabi_fsub
 3003 0058 0B10A0E1 		mov	r1, fp
 3004 005c 0090A0E1 		mov	r9, r0
 3005 0060 0B00A0E1 		mov	r0, fp
 3006 0064 FEFFFFEB 		bl	__aeabi_fmul
 3007 0068 0910A0E1 		mov	r1, r9
 3008 006c 0030A0E1 		mov	r3, r0
 3009 0070 0900A0E1 		mov	r0, r9
 3010 0074 0C308DE5 		str	r3, [sp, #12]
 3011 0078 FEFFFFEB 		bl	__aeabi_fmul
 3012 007c 0C309DE5 		ldr	r3, [sp, #12]
 3013 0080 0010A0E1 		mov	r1, r0
 3014 0084 0300A0E1 		mov	r0, r3
 3015 0088 FEFFFFEB 		bl	__aeabi_fadd
 3016 008c FEFFFFEB 		bl	__aeabi_f2d
 3017 0090 FEFFFFEB 		bl	sqrt
 3018 0094 FEFFFFEB 		bl	__aeabi_d2f
 3019 0098 0030A0E1 		mov	r3, r0
 3020 009c 0310A0E1 		mov	r1, r3
 3021 00a0 0B00A0E1 		mov	r0, fp
 3022 00a4 0C308DE5 		str	r3, [sp, #12]
 3023 00a8 FEFFFFEB 		bl	__aeabi_fdiv
 3024 00ac 0C309DE5 		ldr	r3, [sp, #12]
 3025 00b0 00B0A0E1 		mov	fp, r0
 3026 00b4 0310A0E1 		mov	r1, r3
 3027 00b8 0900A0E1 		mov	r0, r9
 3028 00bc FEFFFFEB 		bl	__aeabi_fdiv
 3029 00c0 022180E2 		add	r2, r0, #-2147483648
 3030 00c4 18208DE5 		str	r2, [sp, #24]
 3031 00c8 0AA095E7 		ldr	sl, [r5, sl]	@ float
 3032 00cc 18109DE5 		ldr	r1, [sp, #24]	@ float
 3033 00d0 0090A0E1 		mov	r9, r0
 3034 00d4 0400A0E1 		mov	r0, r4
 3035 00d8 14A08DE5 		str	sl, [sp, #20]	@ float
 3036 00dc FEFFFFEB 		bl	__aeabi_fmul
 3037 00e0 048098E5 		ldr	r8, [r8, #4]	@ float
 3038 00e4 1C008DE5 		str	r0, [sp, #28]	@ float
 3039 00e8 0B10A0E1 		mov	r1, fp
 3040 00ec 0400A0E1 		mov	r0, r4
 3041 00f0 20808DE5 		str	r8, [sp, #32]	@ float
 3042 00f4 FEFFFFEB 		bl	__aeabi_fmul
 3043 00f8 24008DE5 		str	r0, [sp, #36]	@ float
 3044 00fc 0900A0E1 		mov	r0, r9
 3045 0100 FEFFFFEB 		bl	__aeabi_f2d
 3046 0104 048096E5 		ldr	r8, [r6, #4]	@ float
 3047 0108 0060A0E1 		mov	r6, r0
 3048 010c 0B00A0E1 		mov	r0, fp
 3049 0110 07A095E7 		ldr	sl, [r5, r7]	@ float
 3050 0114 0170A0E1 		mov	r7, r1
 3051 0118 FEFFFFEB 		bl	__aeabi_f2d
 3052 011c 0020A0E1 		mov	r2, r0
 3053 0120 0130A0E1 		mov	r3, r1
 3054 0124 0600A0E1 		mov	r0, r6
 3055 0128 0710A0E1 		mov	r1, r7
 3056 012c FEFFFFEB 		bl	atan2
 3057 0130 0020A0E1 		mov	r2, r0
 3058 0134 0130A0E1 		mov	r3, r1
 3059 0138 7C059FE5 		ldr	r0, .L446+4
 3060 013c 7C159FE5 		ldr	r1, .L446+8
 3061 0140 FEFFFFEB 		bl	__aeabi_dsub
 3062 0144 FEFFFFEB 		bl	__aeabi_d2f
 3063 0148 0070A0E1 		mov	r7, r0
 3064 014c FEFFFFEB 		bl	__aeabi_f2d
 3065 0150 64259FE5 		ldr	r2, .L446+4
 3066 0154 64359FE5 		ldr	r3, .L446+8
 3067 0158 FEFFFFEB 		bl	__aeabi_dadd
 3068 015c FEFFFFEB 		bl	__aeabi_d2f
 3069 0160 0010A0E3 		mov	r1, #0
 3070 0164 0060A0E1 		mov	r6, r0
 3071 0168 0400A0E1 		mov	r0, r4
 3072 016c FEFFFFEB 		bl	__aeabi_fcmplt
 3073 0170 000050E3 		cmp	r0, #0
 3074 0174 0700000A 		beq	.L382
 3075 0178 0600A0E1 		mov	r0, r6
 3076 017c FEFFFFEB 		bl	__aeabi_f2d
 3077 0180 34259FE5 		ldr	r2, .L446+4
 3078 0184 34359FE5 		ldr	r3, .L446+8
 3079 0188 FEFFFFEB 		bl	__aeabi_dadd
 3080 018c FEFFFFEB 		bl	__aeabi_d2f
 3081 0190 0670A0E1 		mov	r7, r6
 3082 0194 0060A0E1 		mov	r6, r0
 3083              	.L382:
 3084 0198 0400A0E1 		mov	r0, r4
 3085 019c 0010A0E3 		mov	r1, #0
 3086 01a0 FEFFFFEB 		bl	__aeabi_fcmpgt
 3087 01a4 18359FE5 		ldr	r3, .L446+12
 3088 01a8 0030D3E5 		ldrb	r3, [r3, #0]	@ zero_extendqisi2
 3089 01ac 000050E3 		cmp	r0, #0
 3090 01b0 10559F15 		ldrne	r5, .L446+16
 3091 01b4 10559F05 		ldreq	r5, .L446+20
 3092 01b8 030053E3 		cmp	r3, #3
 3093 01bc 03F19F97 		ldrls	pc, [pc, r3, asl #2]
 3094 01c0 390100EA 		b	.L381
 3095              	.L391:
 3096 01c4 A8030000 		.word	.L387
 3097 01c8 68040000 		.word	.L388
 3098 01cc 3C060000 		.word	.L389
 3099 01d0 D4010000 		.word	.L390
 3100              	.L390:
 3101 01d4 1C109DE5 		ldr	r1, [sp, #28]	@ float
 3102 01d8 14009DE5 		ldr	r0, [sp, #20]	@ float
 3103 01dc FEFFFFEB 		bl	__aeabi_fadd
 3104 01e0 24109DE5 		ldr	r1, [sp, #36]	@ float
 3105 01e4 0040A0E1 		mov	r4, r0
 3106 01e8 20009DE5 		ldr	r0, [sp, #32]	@ float
 3107 01ec FEFFFFEB 		bl	__aeabi_fadd
 3108 01f0 10209DE5 		ldr	r2, [sp, #16]	@ float
 3109 01f4 0010A0E1 		mov	r1, r0
 3110 01f8 0400A0E1 		mov	r0, r4
 3111 01fc FEFFFFEB 		bl	nav_circle_XY
 3112 0200 0600A0E1 		mov	r0, r6
 3113 0204 FEFFFFEB 		bl	__aeabi_f2d
 3114 0208 C0249FE5 		ldr	r2, .L446+24
 3115 020c C0349FE5 		ldr	r3, .L446+28
 3116 0210 FEFFFFEB 		bl	__aeabi_dmul
 3117 0214 0060A0E1 		mov	r6, r0
 3118 0218 0500A0E1 		mov	r0, r5
 3119 021c 0170A0E1 		mov	r7, r1
 3120 0220 FEFFFFEB 		bl	__aeabi_f2d
 3121 0224 0020A0E1 		mov	r2, r0
 3122 0228 0130A0E1 		mov	r3, r1
 3123 022c 0600A0E1 		mov	r0, r6
 3124 0230 0710A0E1 		mov	r1, r7
 3125 0234 FEFFFFEB 		bl	__aeabi_dsub
 3126 0238 98349FE5 		ldr	r3, .L446+32
 3127 023c 0040A0E1 		mov	r4, r0
 3128 0240 000093E5 		ldr	r0, [r3, #0]	@ float
 3129 0244 0150A0E1 		mov	r5, r1
 3130 0248 FEFFFFEB 		bl	__aeabi_f2d
 3131 024c 0020A0E1 		mov	r2, r0
 3132 0250 0130A0E1 		mov	r3, r1
 3133 0254 60049FE5 		ldr	r0, .L446+4
 3134 0258 7C149FE5 		ldr	r1, .L446+36
 3135 025c FEFFFFEB 		bl	__aeabi_dsub
 3136 0260 68249FE5 		ldr	r2, .L446+24
 3137 0264 68349FE5 		ldr	r3, .L446+28
 3138 0268 FEFFFFEB 		bl	__aeabi_dmul
 3139 026c FEFFFFEB 		bl	__aeabi_d2f
 3140 0270 0070A0E3 		mov	r7, #0
 3141 0274 0060A0E1 		mov	r6, r0
 3142 0278 030000EA 		b	.L392
 3143              	.L395:
 3144 027c 0600A0E1 		mov	r0, r6
 3145 0280 58149FE5 		ldr	r1, .L446+40
 3146 0284 FEFFFFEB 		bl	__aeabi_fadd
 3147 0288 0060A0E1 		mov	r6, r0
 3148              	.L392:
 3149 028c 0600A0E1 		mov	r0, r6
 3150 0290 0010A0E3 		mov	r1, #0
 3151 0294 FEFFFFEB 		bl	__aeabi_fcmplt
 3152 0298 000050E3 		cmp	r0, #0
 3153 029c FF8007E2 		and	r8, r7, #255
 3154 02a0 0700000A 		beq	.L436
 3155 02a4 017087E2 		add	r7, r7, #1
 3156 02a8 010C57E3 		cmp	r7, #256
 3157 02ac F2FFFF1A 		bne	.L395
 3158 02b0 0080A0E3 		mov	r8, #0
 3159 02b4 020000EA 		b	.L436
 3160              	.L399:
 3161 02b8 20149FE5 		ldr	r1, .L446+40
 3162 02bc FEFFFFEB 		bl	__aeabi_fsub
 3163 02c0 0060A0E1 		mov	r6, r0
 3164              	.L436:
 3165 02c4 0600A0E1 		mov	r0, r6
 3166 02c8 10149FE5 		ldr	r1, .L446+40
 3167 02cc FEFFFFEB 		bl	__aeabi_fcmpge
 3168 02d0 000050E3 		cmp	r0, #0
 3169 02d4 0600A0E1 		mov	r0, r6
 3170 02d8 0200000A 		beq	.L397
 3171 02dc 018088E2 		add	r8, r8, #1
 3172 02e0 FF8018E2 		ands	r8, r8, #255
 3173 02e4 F3FFFF1A 		bne	.L399
 3174              	.L397:
 3175 02e8 FEFFFFEB 		bl	__aeabi_f2d
 3176 02ec 0020A0E1 		mov	r2, r0
 3177 02f0 0130A0E1 		mov	r3, r1
 3178 02f4 0400A0E1 		mov	r0, r4
 3179 02f8 0510A0E1 		mov	r1, r5
 3180 02fc FEFFFFEB 		bl	__aeabi_dsub
 3181 0300 FEFFFFEB 		bl	__aeabi_d2f
 3182 0304 0050A0E3 		mov	r5, #0
 3183 0308 0040A0E1 		mov	r4, r0
 3184 030c 030000EA 		b	.L400
 3185              	.L403:
 3186 0310 0400A0E1 		mov	r0, r4
 3187 0314 C4139FE5 		ldr	r1, .L446+40
 3188 0318 FEFFFFEB 		bl	__aeabi_fadd
 3189 031c 0040A0E1 		mov	r4, r0
 3190              	.L400:
 3191 0320 0400A0E1 		mov	r0, r4
 3192 0324 0010A0E3 		mov	r1, #0
 3193 0328 FEFFFFEB 		bl	__aeabi_fcmplt
 3194 032c 000050E3 		cmp	r0, #0
 3195 0330 FF6005E2 		and	r6, r5, #255
 3196 0334 0700000A 		beq	.L437
 3197 0338 015085E2 		add	r5, r5, #1
 3198 033c 010C55E3 		cmp	r5, #256
 3199 0340 F2FFFF1A 		bne	.L403
 3200 0344 0060A0E3 		mov	r6, #0
 3201 0348 020000EA 		b	.L437
 3202              	.L407:
 3203 034c 8C139FE5 		ldr	r1, .L446+40
 3204 0350 FEFFFFEB 		bl	__aeabi_fsub
 3205 0354 0040A0E1 		mov	r4, r0
 3206              	.L437:
 3207 0358 0400A0E1 		mov	r0, r4
 3208 035c 7C139FE5 		ldr	r1, .L446+40
 3209 0360 FEFFFFEB 		bl	__aeabi_fcmpge
 3210 0364 000050E3 		cmp	r0, #0
 3211 0368 0400A0E1 		mov	r0, r4
 3212 036c 0200000A 		beq	.L405
 3213 0370 016086E2 		add	r6, r6, #1
 3214 0374 FF6016E2 		ands	r6, r6, #255
 3215 0378 F3FFFF1A 		bne	.L407
 3216              	.L405:
 3217 037c 60139FE5 		ldr	r1, .L446+44
 3218 0380 FEFFFFEB 		bl	__aeabi_fcmpgt
 3219 0384 000050E3 		cmp	r0, #0
 3220 0388 0400001A 		bne	.L408
 3221 038c 0400A0E1 		mov	r0, r4
 3222 0390 50139FE5 		ldr	r1, .L446+48
 3223 0394 FEFFFFEB 		bl	__aeabi_fcmplt
 3224 0398 000050E3 		cmp	r0, #0
 3225 039c C200000A 		beq	.L381
 3226              	.L408:
 3227 03a0 0020A0E3 		mov	r2, #0
 3228 03a4 BB0000EA 		b	.L444
 3229              	.L387:
 3230 03a8 0410A0E1 		mov	r1, r4
 3231 03ac 0400A0E1 		mov	r0, r4
 3232 03b0 FEFFFFEB 		bl	__aeabi_fadd
 3233 03b4 18109DE5 		ldr	r1, [sp, #24]	@ float
 3234 03b8 0050A0E1 		mov	r5, r0
 3235 03bc FEFFFFEB 		bl	__aeabi_fmul
 3236 03c0 0060A0E1 		mov	r6, r0
 3237 03c4 0610A0E1 		mov	r1, r6
 3238 03c8 14009DE5 		ldr	r0, [sp, #20]	@ float
 3239 03cc FEFFFFEB 		bl	__aeabi_fadd
 3240 03d0 0B10A0E1 		mov	r1, fp
 3241 03d4 0040A0E1 		mov	r4, r0
 3242 03d8 0500A0E1 		mov	r0, r5
 3243 03dc FEFFFFEB 		bl	__aeabi_fmul
 3244 03e0 0070A0E1 		mov	r7, r0
 3245 03e4 0710A0E1 		mov	r1, r7
 3246 03e8 20009DE5 		ldr	r0, [sp, #32]	@ float
 3247 03ec FEFFFFEB 		bl	__aeabi_fadd
 3248 03f0 0610A0E1 		mov	r1, r6
 3249 03f4 0050A0E1 		mov	r5, r0
 3250 03f8 0A00A0E1 		mov	r0, sl
 3251 03fc FEFFFFEB 		bl	__aeabi_fadd
 3252 0400 0710A0E1 		mov	r1, r7
 3253 0404 0060A0E1 		mov	r6, r0
 3254 0408 0800A0E1 		mov	r0, r8
 3255 040c FEFFFFEB 		bl	__aeabi_fadd
 3256 0410 0070A0E1 		mov	r7, r0
 3257 0414 0510A0E1 		mov	r1, r5
 3258 0418 0400A0E1 		mov	r0, r4
 3259 041c 0620A0E1 		mov	r2, r6
 3260 0420 0730A0E1 		mov	r3, r7
 3261 0424 FEFFFFEB 		bl	nav_route_xy
 3262 0428 BC329FE5 		ldr	r3, .L446+52
 3263 042c 0600A0E1 		mov	r0, r6
 3264 0430 00308DE5 		str	r3, [sp, #0]	@ float
 3265 0434 0710A0E1 		mov	r1, r7
 3266 0438 0420A0E1 		mov	r2, r4
 3267 043c 0530A0E1 		mov	r3, r5
 3268 0440 FEFFFFEB 		bl	nav_approaching_xy
 3269 0444 000050E3 		cmp	r0, #0
 3270 0448 9700000A 		beq	.L381
 3271 044c 70329FE5 		ldr	r3, .L446+12
 3272 0450 0120A0E3 		mov	r2, #1
 3273 0454 0020C3E5 		strb	r2, [r3, #0]
 3274 0458 90329FE5 		ldr	r3, .L446+56
 3275 045c 0020D3E5 		ldrb	r2, [r3, #0]	@ zero_extendqisi2
 3276 0460 012082E2 		add	r2, r2, #1
 3277 0464 8C0000EA 		b	.L445
 3278              	.L388:
 3279 0468 1C109DE5 		ldr	r1, [sp, #28]	@ float
 3280 046c 0A00A0E1 		mov	r0, sl
 3281 0470 FEFFFFEB 		bl	__aeabi_fadd
 3282 0474 24109DE5 		ldr	r1, [sp, #36]	@ float
 3283 0478 0040A0E1 		mov	r4, r0
 3284 047c 0800A0E1 		mov	r0, r8
 3285 0480 FEFFFFEB 		bl	__aeabi_fadd
 3286 0484 10209DE5 		ldr	r2, [sp, #16]	@ float
 3287 0488 0010A0E1 		mov	r1, r0
 3288 048c 0400A0E1 		mov	r0, r4
 3289 0490 FEFFFFEB 		bl	nav_circle_XY
 3290 0494 0700A0E1 		mov	r0, r7
 3291 0498 FEFFFFEB 		bl	__aeabi_f2d
 3292 049c 2C229FE5 		ldr	r2, .L446+24
 3293 04a0 2C329FE5 		ldr	r3, .L446+28
 3294 04a4 FEFFFFEB 		bl	__aeabi_dmul
 3295 04a8 0060A0E1 		mov	r6, r0
 3296 04ac 0500A0E1 		mov	r0, r5
 3297 04b0 0170A0E1 		mov	r7, r1
 3298 04b4 FEFFFFEB 		bl	__aeabi_f2d
 3299 04b8 0020A0E1 		mov	r2, r0
 3300 04bc 0130A0E1 		mov	r3, r1
 3301 04c0 0600A0E1 		mov	r0, r6
 3302 04c4 0710A0E1 		mov	r1, r7
 3303 04c8 FEFFFFEB 		bl	__aeabi_dsub
 3304 04cc 04329FE5 		ldr	r3, .L446+32
 3305 04d0 0040A0E1 		mov	r4, r0
 3306 04d4 000093E5 		ldr	r0, [r3, #0]	@ float
 3307 04d8 0150A0E1 		mov	r5, r1
 3308 04dc FEFFFFEB 		bl	__aeabi_f2d
 3309 04e0 0020A0E1 		mov	r2, r0
 3310 04e4 0130A0E1 		mov	r3, r1
 3311 04e8 CC019FE5 		ldr	r0, .L446+4
 3312 04ec E8119FE5 		ldr	r1, .L446+36
 3313 04f0 FEFFFFEB 		bl	__aeabi_dsub
 3314 04f4 D4219FE5 		ldr	r2, .L446+24
 3315 04f8 D4319FE5 		ldr	r3, .L446+28
 3316 04fc FEFFFFEB 		bl	__aeabi_dmul
 3317 0500 FEFFFFEB 		bl	__aeabi_d2f
 3318 0504 0070A0E3 		mov	r7, #0
 3319 0508 0060A0E1 		mov	r6, r0
 3320 050c 030000EA 		b	.L410
 3321              	.L413:
 3322 0510 0600A0E1 		mov	r0, r6
 3323 0514 C4119FE5 		ldr	r1, .L446+40
 3324 0518 FEFFFFEB 		bl	__aeabi_fadd
 3325 051c 0060A0E1 		mov	r6, r0
 3326              	.L410:
 3327 0520 0600A0E1 		mov	r0, r6
 3328 0524 0010A0E3 		mov	r1, #0
 3329 0528 FEFFFFEB 		bl	__aeabi_fcmplt
 3330 052c 000050E3 		cmp	r0, #0
 3331 0530 FF8007E2 		and	r8, r7, #255
 3332 0534 0700000A 		beq	.L438
 3333 0538 017087E2 		add	r7, r7, #1
 3334 053c 010C57E3 		cmp	r7, #256
 3335 0540 F2FFFF1A 		bne	.L413
 3336 0544 0080A0E3 		mov	r8, #0
 3337 0548 020000EA 		b	.L438
 3338              	.L417:
 3339 054c 8C119FE5 		ldr	r1, .L446+40
 3340 0550 FEFFFFEB 		bl	__aeabi_fsub
 3341 0554 0060A0E1 		mov	r6, r0
 3342              	.L438:
 3343 0558 0600A0E1 		mov	r0, r6
 3344 055c 7C119FE5 		ldr	r1, .L446+40
 3345 0560 FEFFFFEB 		bl	__aeabi_fcmpge
 3346 0564 000050E3 		cmp	r0, #0
 3347 0568 0600A0E1 		mov	r0, r6
 3348 056c 0200000A 		beq	.L415
 3349 0570 018088E2 		add	r8, r8, #1
 3350 0574 FF8018E2 		ands	r8, r8, #255
 3351 0578 F3FFFF1A 		bne	.L417
 3352              	.L415:
 3353 057c FEFFFFEB 		bl	__aeabi_f2d
 3354 0580 0020A0E1 		mov	r2, r0
 3355 0584 0130A0E1 		mov	r3, r1
 3356 0588 0400A0E1 		mov	r0, r4
 3357 058c 0510A0E1 		mov	r1, r5
 3358 0590 FEFFFFEB 		bl	__aeabi_dsub
 3359 0594 FEFFFFEB 		bl	__aeabi_d2f
 3360 0598 0050A0E3 		mov	r5, #0
 3361 059c 0040A0E1 		mov	r4, r0
 3362 05a0 030000EA 		b	.L418
 3363              	.L421:
 3364 05a4 0400A0E1 		mov	r0, r4
 3365 05a8 30119FE5 		ldr	r1, .L446+40
 3366 05ac FEFFFFEB 		bl	__aeabi_fadd
 3367 05b0 0040A0E1 		mov	r4, r0
 3368              	.L418:
 3369 05b4 0400A0E1 		mov	r0, r4
 3370 05b8 0010A0E3 		mov	r1, #0
 3371 05bc FEFFFFEB 		bl	__aeabi_fcmplt
 3372 05c0 000050E3 		cmp	r0, #0
 3373 05c4 FF6005E2 		and	r6, r5, #255
 3374 05c8 0700000A 		beq	.L439
 3375 05cc 015085E2 		add	r5, r5, #1
 3376 05d0 010C55E3 		cmp	r5, #256
 3377 05d4 F2FFFF1A 		bne	.L421
 3378 05d8 0060A0E3 		mov	r6, #0
 3379 05dc 020000EA 		b	.L439
 3380              	.L425:
 3381 05e0 F8109FE5 		ldr	r1, .L446+40
 3382 05e4 FEFFFFEB 		bl	__aeabi_fsub
 3383 05e8 0040A0E1 		mov	r4, r0
 3384              	.L439:
 3385 05ec 0400A0E1 		mov	r0, r4
 3386 05f0 E8109FE5 		ldr	r1, .L446+40
 3387 05f4 FEFFFFEB 		bl	__aeabi_fcmpge
 3388 05f8 000050E3 		cmp	r0, #0
 3389 05fc 0400A0E1 		mov	r0, r4
 3390 0600 0200000A 		beq	.L423
 3391 0604 016086E2 		add	r6, r6, #1
 3392 0608 FF6016E2 		ands	r6, r6, #255
 3393 060c F3FFFF1A 		bne	.L425
 3394              	.L423:
 3395 0610 CC109FE5 		ldr	r1, .L446+44
 3396 0614 FEFFFFEB 		bl	__aeabi_fcmpgt
 3397 0618 000050E3 		cmp	r0, #0
 3398 061c 0400001A 		bne	.L426
 3399 0620 0400A0E1 		mov	r0, r4
 3400 0624 BC109FE5 		ldr	r1, .L446+48
 3401 0628 FEFFFFEB 		bl	__aeabi_fcmplt
 3402 062c 000050E3 		cmp	r0, #0
 3403 0630 1D00000A 		beq	.L381
 3404              	.L426:
 3405 0634 0220A0E3 		mov	r2, #2
 3406 0638 160000EA 		b	.L444
 3407              	.L389:
 3408 063c 28309DE5 		ldr	r3, [sp, #40]
 3409 0640 2C509DE5 		ldr	r5, [sp, #44]
 3410 0644 0C60A0E3 		mov	r6, #12
 3411 0648 960505E0 		mul	r5, r6, r5
 3412 064c 930606E0 		mul	r6, r3, r6
 3413 0650 60409FE5 		ldr	r4, .L446
 3414 0654 058084E0 		add	r8, r4, r5
 3415 0658 067084E0 		add	r7, r4, r6
 3416 065c 050094E7 		ldr	r0, [r4, r5]	@ float
 3417 0660 041098E5 		ldr	r1, [r8, #4]	@ float
 3418 0664 062094E7 		ldr	r2, [r4, r6]	@ float
 3419 0668 043097E5 		ldr	r3, [r7, #4]	@ float
 3420 066c FEFFFFEB 		bl	nav_route_xy
 3421 0670 74309FE5 		ldr	r3, .L446+52
 3422 0674 00308DE5 		str	r3, [sp, #0]	@ float
 3423 0678 060094E7 		ldr	r0, [r4, r6]	@ float
 3424 067c 041097E5 		ldr	r1, [r7, #4]	@ float
 3425 0680 052094E7 		ldr	r2, [r4, r5]	@ float
 3426 0684 043098E5 		ldr	r3, [r8, #4]	@ float
 3427 0688 FEFFFFEB 		bl	nav_approaching_xy
 3428 068c 000050E3 		cmp	r0, #0
 3429 0690 0500000A 		beq	.L381
 3430 0694 0320A0E3 		mov	r2, #3
 3431              	.L444:
 3432 0698 24309FE5 		ldr	r3, .L446+12
 3433              	.L445:
 3434 069c 0020C3E5 		strb	r2, [r3, #0]
 3435 06a0 34D08DE2 		add	sp, sp, #52
 3436 06a4 F04FBDE8 		ldmfd	sp!, {r4, r5, r6, r7, r8, r9, sl, fp, lr}
 3437 06a8 FEFFFFEA 		b	nav_init_stage
 3438              	.L381:
 3439 06ac 34D08DE2 		add	sp, sp, #52
 3440 06b0 F04FBDE8 		ldmfd	sp!, {r4, r5, r6, r7, r8, r9, sl, fp, lr}
 3441 06b4 1EFF2FE1 		bx	lr
 3442              	.L447:
 3443              		.align	2
 3444              	.L446:
 3445 06b8 00000000 		.word	.LANCHOR7
 3446 06bc 182D4454 		.word	1413754136
 3447 06c0 FB210940 		.word	1074340347
 3448 06c4 00000000 		.word	oval_status
 3449 06c8 000070C1 		.word	-1049624576
 3450 06cc 00007041 		.word	1097859072
 3451 06d0 F8C1631A 		.word	442745336
 3452 06d4 DCA54C40 		.word	1078765020
 3453 06d8 00000000 		.word	nav_circle_trigo_qdr
 3454 06dc FB21F93F 		.word	1073291771
 3455 06e0 0000B443 		.word	1135869952
 3456 06e4 0000AF43 		.word	1135542272
 3457 06e8 00002041 		.word	1092616192
 3458 06ec 0000A040 		.word	1084227584
 3459 06f0 00000000 		.word	nav_oval_count
 3461              		.comm	nav_oval_count,1,1
 3462              		.global	max_dist_from_home
 3463              		.global	nav_utm_zone0
 3464              		.global	nav_utm_north0
 3465              		.global	nav_utm_east0
 3466              		.comm	ground_alt,4,4
 3467              		.global	waypoints
 3468              		.global	nb_waypoint
 3469              		.comm	too_far_from_home,1,1
 3470              		.comm	dist2_to_wp,4,4
 3471              		.comm	dist2_to_home,4,4
 3472              		.comm	fp_pitch,4,4
 3473              		.comm	nav_pitch,4,4
 3474              		.comm	nav_throttle_setpoint,2,2
 3475              		.comm	desired_y,4,4
 3476              		.comm	desired_x,4,4
 3477              		.global	nav_altitude
 3478              		.comm	nav_mode,4,4
 3479              		.comm	nav_survey_active,1,1
 3480              		.comm	nav_survey_south,4,4
 3481              		.comm	nav_survey_north,4,4
 3482              		.comm	nav_survey_east,4,4
 3483              		.comm	nav_survey_west,4,4
 3484              		.comm	nav_survey_shift,4,4
 3485              		.comm	nav_ground_speed_pgain,4,4
 3486              		.comm	nav_ground_speed_setpoint,4,4
 3487              		.comm	nav_glide_pitch_trim,4,4
 3488              		.comm	flight_altitude,4,4
 3489              		.global	circle_bank
 3490              		.comm	horizontal_mode,1,1
 3491              		.comm	nav_segment_y_2,4,4
 3492              		.comm	nav_segment_x_2,4,4
 3493              		.comm	nav_segment_y_1,4,4
 3494              		.comm	nav_segment_x_1,4,4
 3495              		.comm	nav_circle_radius,4,4
 3496              		.comm	nav_circle_y,4,4
 3497              		.comm	nav_circle_x,4,4
 3498              		.global	nav_in_segment
 3499              		.global	nav_in_circle
 3500              		.comm	nav_shift,4,4
 3501              		.comm	nav_climb,4,4
 3502              		.comm	nav_course,4,4
 3503              		.comm	nav_radius,4,4
 3504              		.comm	nav_circle_trigo_qdr,4,4
 3505              		.comm	nav_circle_radians,4,4
 3506              		.comm	carrot_y,4,4
 3507              		.comm	carrot_x,4,4
 3508              		.comm	rc_pitch,4,4
 3509              		.comm	last_y,4,4
 3510              		.comm	last_x,4,4
 3511              		.comm	oval_status,1,1
 3512              		.section	.bss.last_nav_altitude.4113,"aw",%nobits
 3513              		.align	2
 3514              		.set	.LANCHOR1,. + 0
 3517              	last_nav_altitude.4113:
 3518 0000 00000000 		.space	4
 3519              		.section	.bss.previous_ground_alt,"aw",%nobits
 3520              		.align	2
 3521              		.set	.LANCHOR11,. + 0
 3524              	previous_ground_alt:
 3525 0000 00000000 		.space	4
 3526              		.section	.data.max_dist_from_home,"aw",%progbits
 3527              		.align	2
 3528              		.set	.LANCHOR13,. + 0
 3531              	max_dist_from_home:
 3532 0000 0080BB44 		.word	1153138688
 3533              		.section	.data.nav_utm_zone0,"aw",%progbits
 3534              		.set	.LANCHOR8,. + 0
 3537              	nav_utm_zone0:
 3538 0000 12       		.byte	18
 3539              		.section	.data.nav_utm_north0,"aw",%progbits
 3540              		.align	2
 3541              		.set	.LANCHOR10,. + 0
 3544              	nav_utm_north0:
 3545 0000 52704000 		.word	4223058
 3546              		.section	.data.nav_altitude,"aw",%progbits
 3547              		.align	2
 3548              		.set	.LANCHOR0,. + 0
 3551              	nav_altitude:
 3552 0000 00004842 		.word	1112014848
 3553              		.section	.bss.nav_in_segment,"aw",%nobits
 3554              		.set	.LANCHOR3,. + 0
 3557              	nav_in_segment:
 3558 0000 00       		.space	1
 3559              		.section	.bss.prescaler.4101,"aw",%nobits
 3560              		.align	1
 3561              		.set	.LANCHOR12,. + 0
 3564              	prescaler.4101:
 3565 0000 0000     		.space	2
 3566              		.section	.data.waypoints,"aw",%progbits
 3567              		.align	2
 3568              		.set	.LANCHOR7,. + 0
 3571              	waypoints:
 3572 0000 00002842 		.word	1109917696
 3573 0004 00002842 		.word	1109917696
 3574 0008 00009642 		.word	1117126656
 3575 000c 00000000 		.word	0
 3576 0010 00000000 		.word	0
 3577 0014 00009642 		.word	1117126656
 3578              		.section	.rodata.nb_waypoint,"a",%progbits
 3581              	nb_waypoint:
 3582 0000 02       		.byte	2
 3583              		.section	.bss.nav_in_circle,"aw",%nobits
 3584              		.set	.LANCHOR2,. + 0
 3587              	nav_in_circle:
 3588 0000 00       		.space	1
 3589              		.section	.bss.nav_leg_length,"aw",%nobits
 3590              		.align	2
 3591              		.set	.LANCHOR5,. + 0
 3594              	nav_leg_length:
 3595 0000 00000000 		.space	4
 3596              		.section	.bss.eight_status,"aw",%nobits
 3597              		.set	.LANCHOR14,. + 0
 3600              	eight_status:
 3601 0000 00       		.space	1
 3602              		.section	.data.nav_utm_east0,"aw",%progbits
 3603              		.align	2
 3604              		.set	.LANCHOR9,. + 0
 3607              	nav_utm_east0:
 3608 0000 69B80500 		.word	374889
 3609              		.section	.bss.circle_bank,"aw",%nobits
 3610              		.align	2
 3611              		.set	.LANCHOR4,. + 0
 3614              	circle_bank:
 3615 0000 00000000 		.space	4
 3616              		.section	.bss.nav_leg_progress,"aw",%nobits
 3617              		.align	2
 3618              		.set	.LANCHOR6,. + 0
 3621              	nav_leg_progress:
 3622 0000 00000000 		.space	4
 3623              		.ident	"GCC: (Linaro GCC 4.6-2011.09-1) 4.6.2 20110908 (prerelease)"
DEFINED SYMBOLS
                            *ABS*:00000000 nav.c
     /tmp/ccqsFNau.s:15     .text.nav_set_altitude:00000000 $a
     /tmp/ccqsFNau.s:17     .text.nav_set_altitude:00000000 nav_set_altitude
     /tmp/ccqsFNau.s:43     .text.nav_set_altitude:0000004c $d
                            *COM*:00000004 flight_altitude
     /tmp/ccqsFNau.s:49     .text.nav_init_stage:00000000 $a
     /tmp/ccqsFNau.s:52     .text.nav_init_stage:00000000 nav_init_stage
     /tmp/ccqsFNau.s:83     .text.nav_init_stage:0000005c $d
                            *COM*:00000004 last_x
                            *COM*:00000004 last_y
                            *COM*:00000004 nav_circle_radians
                            *COM*:00000004 nav_shift
                            *COM*:00000004 nav_pitch
     /tmp/ccqsFNau.s:98     .text.nav_approaching_xy:00000000 $a
     /tmp/ccqsFNau.s:101    .text.nav_approaching_xy:00000000 nav_approaching_xy
     /tmp/ccqsFNau.s:170    .text.nav_approaching_xy:000000f4 $d
                            *COM*:00000004 dist2_to_wp
     /tmp/ccqsFNau.s:183    .text.fly_to_xy:00000000 $a
     /tmp/ccqsFNau.s:186    .text.fly_to_xy:00000000 fly_to_xy
     /tmp/ccqsFNau.s:363    .text.fly_to_xy:0000027c $d
                            *COM*:00000004 desired_x
                            *COM*:00000004 desired_y
                            *COM*:00000004 nav_mode
     /tmp/ccqsFNau.s:389    .text.nav_circle_XY:00000000 $a
     /tmp/ccqsFNau.s:392    .text.nav_circle_XY:00000000 nav_circle_XY
     /tmp/ccqsFNau.s:678    .text.nav_circle_XY:0000043c $d
                            *COM*:00000004 nav_circle_trigo_qdr
                            *COM*:00000001 horizontal_mode
                            *COM*:00000004 nav_circle_x
                            *COM*:00000004 nav_circle_y
                            *COM*:00000004 nav_circle_radius
     /tmp/ccqsFNau.s:705    .text.nav_route_xy:00000000 $a
     /tmp/ccqsFNau.s:708    .text.nav_route_xy:00000000 nav_route_xy
     /tmp/ccqsFNau.s:843    .text.nav_route_xy:000001fc $d
                            *COM*:00000004 nav_segment_x_1
                            *COM*:00000004 nav_segment_y_1
                            *COM*:00000004 nav_segment_x_2
                            *COM*:00000004 nav_segment_y_2
     /tmp/ccqsFNau.s:857    .text.compute_dist2_to_home:00000000 $a
     /tmp/ccqsFNau.s:860    .text.compute_dist2_to_home:00000000 compute_dist2_to_home
     /tmp/ccqsFNau.s:900    .text.compute_dist2_to_home:00000084 $d
                            *COM*:00000004 dist2_to_home
                            *COM*:00000001 too_far_from_home
     /tmp/ccqsFNau.s:911    .text.nav_reset_reference:00000000 $a
     /tmp/ccqsFNau.s:914    .text.nav_reset_reference:00000000 nav_reset_reference
     /tmp/ccqsFNau.s:985    .text.nav_reset_reference:00000100 $d
                            *COM*:00000004 ground_alt
     /tmp/ccqsFNau.s:1000   .text.nav_update_waypoints_alt:00000000 $a
     /tmp/ccqsFNau.s:1003   .text.nav_update_waypoints_alt:00000000 nav_update_waypoints_alt
     /tmp/ccqsFNau.s:1029   .text.nav_update_waypoints_alt:0000004c $d
     /tmp/ccqsFNau.s:1034   .text.common_nav_periodic_task_4Hz:00000000 $a
     /tmp/ccqsFNau.s:1037   .text.common_nav_periodic_task_4Hz:00000000 common_nav_periodic_task_4Hz
     /tmp/ccqsFNau.s:1064   .text.common_nav_periodic_task_4Hz:0000004c $d
     /tmp/ccqsFNau.s:1070   .text.nav_move_waypoint:00000000 $a
     /tmp/ccqsFNau.s:1073   .text.nav_move_waypoint:00000000 nav_move_waypoint
     /tmp/ccqsFNau.s:1150   .text.nav_move_waypoint:0000010c $d
     /tmp/ccqsFNau.s:1156   .text.nav_home:00000000 $a
     /tmp/ccqsFNau.s:1159   .text.nav_home:00000000 nav_home
     /tmp/ccqsFNau.s:1191   .text.nav_home:00000064 $d
     /tmp/ccqsFNau.s:1202   .text.nav_periodic_task:00000000 $a
     /tmp/ccqsFNau.s:1205   .text.nav_periodic_task:00000000 nav_periodic_task
     /tmp/ccqsFNau.s:1223   .text.nav_periodic_task:00000034 $d
     /tmp/ccqsFNau.s:1256   .text.nav_periodic_task:000000b4 $a
     /tmp/ccqsFNau.s:1527   .text.nav_periodic_task:00000438 $d
     /tmp/ccqsFNau.s:1532   .text.nav_periodic_task:00000448 $a
     /tmp/ccqsFNau.s:1566   .text.nav_periodic_task:000004bc $d
     /tmp/ccqsFNau.s:1571   .text.nav_periodic_task:000004cc $a
     /tmp/ccqsFNau.s:1605   .text.nav_periodic_task:00000540 $d
     /tmp/ccqsFNau.s:1610   .text.nav_periodic_task:00000550 $a
     /tmp/ccqsFNau.s:1644   .text.nav_periodic_task:000005c4 $d
     /tmp/ccqsFNau.s:1649   .text.nav_periodic_task:000005d4 $a
     /tmp/ccqsFNau.s:1683   .text.nav_periodic_task:00000648 $d
     /tmp/ccqsFNau.s:1689   .text.nav_periodic_task:0000065c $a
     /tmp/ccqsFNau.s:2210   .text.nav_periodic_task:00000d28 $d
     /tmp/ccqsFNau.s:2217   .text.nav_periodic_task:00000d40 $a
     /tmp/ccqsFNau.s:2293   .text.nav_periodic_task:00000e44 $d
                            *COM*:00000001 nav_survey_active
     /tmp/ccqsFNau.s:2311   .text.nav_init:00000000 $a
     /tmp/ccqsFNau.s:2314   .text.nav_init:00000000 nav_init
     /tmp/ccqsFNau.s:2342   .text.nav_init:00000050 $d
                            *COM*:00000004 nav_glide_pitch_trim
                            *COM*:00000004 nav_radius
                            *COM*:00000004 nav_survey_shift
     /tmp/ccqsFNau.s:2353   .text.nav_without_gps:00000000 $a
     /tmp/ccqsFNau.s:2356   .text.nav_without_gps:00000000 nav_without_gps
     /tmp/ccqsFNau.s:2379   .text.nav_without_gps:0000003c $d
                            *COM*:00000002 nav_throttle_setpoint
     /tmp/ccqsFNau.s:2386   .text.nav_eight_init:00000000 $a
     /tmp/ccqsFNau.s:2389   .text.nav_eight_init:00000000 nav_eight_init
     /tmp/ccqsFNau.s:2401   .text.nav_eight_init:00000010 $d
     /tmp/ccqsFNau.s:2405   .text.nav_eight:00000000 $a
     /tmp/ccqsFNau.s:2408   .text.nav_eight:00000000 nav_eight
     /tmp/ccqsFNau.s:2602   .text.nav_eight:000002ec $d
     /tmp/ccqsFNau.s:2609   .text.nav_eight:00000304 $a
     /tmp/ccqsFNau.s:2937   .text.nav_eight:000007a0 $d
     /tmp/ccqsFNau.s:2952   .text.nav_oval_init:00000000 $a
     /tmp/ccqsFNau.s:2955   .text.nav_oval_init:00000000 nav_oval_init
     /tmp/ccqsFNau.s:2970   .text.nav_oval_init:0000001c $d
                            *COM*:00000001 oval_status
                            *COM*:00000001 nav_oval_count
     /tmp/ccqsFNau.s:2974   .text.nav_oval:00000000 $a
     /tmp/ccqsFNau.s:2977   .text.nav_oval:00000000 nav_oval
     /tmp/ccqsFNau.s:3096   .text.nav_oval:000001c4 $d
     /tmp/ccqsFNau.s:3101   .text.nav_oval:000001d4 $a
     /tmp/ccqsFNau.s:3445   .text.nav_oval:000006b8 $d
     /tmp/ccqsFNau.s:3531   .data.max_dist_from_home:00000000 max_dist_from_home
     /tmp/ccqsFNau.s:3537   .data.nav_utm_zone0:00000000 nav_utm_zone0
     /tmp/ccqsFNau.s:3544   .data.nav_utm_north0:00000000 nav_utm_north0
     /tmp/ccqsFNau.s:3607   .data.nav_utm_east0:00000000 nav_utm_east0
     /tmp/ccqsFNau.s:3571   .data.waypoints:00000000 waypoints
     /tmp/ccqsFNau.s:3581   .rodata.nb_waypoint:00000000 nb_waypoint
                            *COM*:00000004 fp_pitch
     /tmp/ccqsFNau.s:3551   .data.nav_altitude:00000000 nav_altitude
                            *COM*:00000004 nav_survey_south
                            *COM*:00000004 nav_survey_north
                            *COM*:00000004 nav_survey_east
                            *COM*:00000004 nav_survey_west
                            *COM*:00000004 nav_ground_speed_pgain
                            *COM*:00000004 nav_ground_speed_setpoint
     /tmp/ccqsFNau.s:3614   .bss.circle_bank:00000000 circle_bank
     /tmp/ccqsFNau.s:3557   .bss.nav_in_segment:00000000 nav_in_segment
     /tmp/ccqsFNau.s:3587   .bss.nav_in_circle:00000000 nav_in_circle
                            *COM*:00000004 nav_climb
                            *COM*:00000004 nav_course
                            *COM*:00000004 carrot_y
                            *COM*:00000004 carrot_x
                            *COM*:00000004 rc_pitch
     /tmp/ccqsFNau.s:3513   .bss.last_nav_altitude.4113:00000000 $d
     /tmp/ccqsFNau.s:3517   .bss.last_nav_altitude.4113:00000000 last_nav_altitude.4113
     /tmp/ccqsFNau.s:3520   .bss.previous_ground_alt:00000000 $d
     /tmp/ccqsFNau.s:3524   .bss.previous_ground_alt:00000000 previous_ground_alt
     /tmp/ccqsFNau.s:3527   .data.max_dist_from_home:00000000 $d
     /tmp/ccqsFNau.s:3540   .data.nav_utm_north0:00000000 $d
     /tmp/ccqsFNau.s:3547   .data.nav_altitude:00000000 $d
     /tmp/ccqsFNau.s:3558   .bss.nav_in_segment:00000000 $d
     /tmp/ccqsFNau.s:3560   .bss.prescaler.4101:00000000 $d
     /tmp/ccqsFNau.s:3564   .bss.prescaler.4101:00000000 prescaler.4101
     /tmp/ccqsFNau.s:3567   .data.waypoints:00000000 $d
     /tmp/ccqsFNau.s:3588   .bss.nav_in_circle:00000000 $d
     /tmp/ccqsFNau.s:3590   .bss.nav_leg_length:00000000 $d
     /tmp/ccqsFNau.s:3594   .bss.nav_leg_length:00000000 nav_leg_length
     /tmp/ccqsFNau.s:3600   .bss.eight_status:00000000 eight_status
     /tmp/ccqsFNau.s:3601   .bss.eight_status:00000000 $d
     /tmp/ccqsFNau.s:3603   .data.nav_utm_east0:00000000 $d
     /tmp/ccqsFNau.s:3610   .bss.circle_bank:00000000 $d
     /tmp/ccqsFNau.s:3617   .bss.nav_leg_progress:00000000 $d
     /tmp/ccqsFNau.s:3621   .bss.nav_leg_progress:00000000 nav_leg_progress

UNDEFINED SYMBOLS
__aeabi_fsub
__aeabi_fcmpgt
v_ctl_altitude_setpoint
estimator_x
estimator_y
stage_time
__aeabi_fmul
__aeabi_fadd
__aeabi_fcmplt
estimator_hspeed_mod
__aeabi_f2d
__aeabi_d2f
__aeabi_dadd
__aeabi_dsub
__aeabi_dcmpgt
__aeabi_dcmplt
__aeabi_ddiv
atan2
sin
atan
h_ctl_course_setpoint
estimator_hspeed_dir
h_ctl_course_pgain
h_ctl_roll_max_setpoint
h_ctl_roll_setpoint
lateral_mode
__aeabi_dmul
__aeabi_fdiv
cos
sqrt
__aeabi_i2d
__aeabi_d2uiz
__aeabi_f2iz
utm_of_lla_f
gps
block_time
__aeabi_i2f
v_ctl_mode
nav_init_block
nav_block
nav_stage
radio_control
launch
fbw_mode
h_ctl_course_pre_bank
v_ctl_auto_throttle_submode
__aeabi_fcmpge
