   1              		.cpu arm7tdmi
   2              		.fpu softvfp
   3              		.eabi_attribute 20, 1
   4              		.eabi_attribute 21, 1
   5              		.eabi_attribute 23, 3
   6              		.eabi_attribute 24, 1
   7              		.eabi_attribute 25, 1
   8              		.eabi_attribute 26, 1
   9              		.eabi_attribute 30, 4
  10              		.eabi_attribute 18, 4
  11              		.file	"nav.c"
  12              		.global	__aeabi_fsub
  13              		.global	__aeabi_fcmpgt
  14              		.section	.text.nav_set_altitude,"ax",%progbits
  15              		.align	2
  17              	nav_set_altitude:
  18              		@ Function supports interworking.
  19              		@ args = 0, pretend = 0, frame = 0
  20              		@ frame_needed = 0, uses_anonymous_args = 0
  21 0000 38402DE9 		stmfd	sp!, {r3, r4, r5, lr}
  22 0004 40309FE5 		ldr	r3, .L5
  23 0008 40509FE5 		ldr	r5, .L5+4
  24 000c 004093E5 		ldr	r4, [r3, #0]	@ float
  25 0010 001095E5 		ldr	r1, [r5, #0]	@ float
  26 0014 0400A0E1 		mov	r0, r4
  27 0018 FEFFFFEB 		bl	__aeabi_fsub
  28 001c FE15A0E3 		mov	r1, #1065353216
  29 0020 0201C0E3 		bic	r0, r0, #-2147483648
  30 0024 FEFFFFEB 		bl	__aeabi_fcmpgt
  31 0028 24309FE5 		ldr	r3, .L5+8
  32 002c 000050E3 		cmp	r0, #0
  33 0030 00408315 		strne	r4, [r3, #0]	@ float
  34 0034 002093E5 		ldr	r2, [r3, #0]	@ float
  35 0038 18309FE5 		ldr	r3, .L5+12
  36 003c 00408515 		strne	r4, [r5, #0]	@ float
  37 0040 002083E5 		str	r2, [r3, #0]	@ float
  38 0044 3840BDE8 		ldmfd	sp!, {r3, r4, r5, lr}
  39 0048 1EFF2FE1 		bx	lr
  40              	.L6:
  41              		.align	2
  42              	.L5:
  43 004c 00000000 		.word	.LANCHOR0
  44 0050 00000000 		.word	.LANCHOR1
  45 0054 00000000 		.word	flight_altitude
  46 0058 00000000 		.word	v_ctl_altitude_setpoint
  48              		.section	.text.nav_init_stage,"ax",%progbits
  49              		.align	2
  50              		.global	nav_init_stage
  52              	nav_init_stage:
  53              		@ Function supports interworking.
  54              		@ args = 0, pretend = 0, frame = 0
  55              		@ frame_needed = 0, uses_anonymous_args = 0
  56              		@ link register save eliminated.
  57 0000 54309FE5 		ldr	r3, .L8
  58 0004 002093E5 		ldr	r2, [r3, #0]	@ float
  59 0008 50309FE5 		ldr	r3, .L8+4
  60 000c 002083E5 		str	r2, [r3, #0]	@ float
  61 0010 4C309FE5 		ldr	r3, .L8+8
  62 0014 002093E5 		ldr	r2, [r3, #0]	@ float
  63 0018 48309FE5 		ldr	r3, .L8+12
  64 001c 002083E5 		str	r2, [r3, #0]	@ float
  65 0020 44309FE5 		ldr	r3, .L8+16
  66 0024 0020A0E3 		mov	r2, #0
  67 0028 40109FE5 		ldr	r1, .L8+20
  68 002c B020C3E1 		strh	r2, [r3, #0]	@ movhi
  69 0030 0030A0E3 		mov	r3, #0
  70 0034 003081E5 		str	r3, [r1, #0]	@ float
  71 0038 34109FE5 		ldr	r1, .L8+24
  72 003c 0020C1E5 		strb	r2, [r1, #0]
  73 0040 30109FE5 		ldr	r1, .L8+28
  74 0044 0020C1E5 		strb	r2, [r1, #0]
  75 0048 2C209FE5 		ldr	r2, .L8+32
  76 004c 003082E5 		str	r3, [r2, #0]	@ float
  77 0050 28209FE5 		ldr	r2, .L8+36
  78 0054 003082E5 		str	r3, [r2, #0]	@ float
  79 0058 1EFF2FE1 		bx	lr
  80              	.L9:
  81              		.align	2
  82              	.L8:
  83 005c 00000000 		.word	estimator_x
  84 0060 00000000 		.word	last_x
  85 0064 00000000 		.word	estimator_y
  86 0068 00000000 		.word	last_y
  87 006c 00000000 		.word	stage_time
  88 0070 00000000 		.word	nav_circle_radians
  89 0074 00000000 		.word	.LANCHOR2
  90 0078 00000000 		.word	.LANCHOR3
  91 007c 00000000 		.word	nav_shift
  92 0080 00000000 		.word	nav_pitch
  94              		.global	__aeabi_fmul
  95              		.global	__aeabi_fadd
  96              		.global	__aeabi_fcmplt
  97              		.section	.text.nav_approaching_xy,"ax",%progbits
  98              		.align	2
  99              		.global	nav_approaching_xy
 101              	nav_approaching_xy:
 102              		@ Function supports interworking.
 103              		@ args = 4, pretend = 0, frame = 0
 104              		@ frame_needed = 0, uses_anonymous_args = 0
 105 0000 F0472DE9 		stmfd	sp!, {r4, r5, r6, r7, r8, r9, sl, lr}
 106 0004 0390A0E1 		mov	r9, r3
 107 0008 E4309FE5 		ldr	r3, .L14
 108 000c 0140A0E1 		mov	r4, r1
 109 0010 001093E5 		ldr	r1, [r3, #0]	@ float
 110 0014 0260A0E1 		mov	r6, r2
 111 0018 0050A0E1 		mov	r5, r0
 112 001c FEFFFFEB 		bl	__aeabi_fsub
 113 0020 D0309FE5 		ldr	r3, .L14+4
 114 0024 0080A0E1 		mov	r8, r0
 115 0028 001093E5 		ldr	r1, [r3, #0]	@ float
 116 002c 0400A0E1 		mov	r0, r4
 117 0030 FEFFFFEB 		bl	__aeabi_fsub
 118 0034 0810A0E1 		mov	r1, r8
 119 0038 0070A0E1 		mov	r7, r0
 120 003c 0800A0E1 		mov	r0, r8
 121 0040 FEFFFFEB 		bl	__aeabi_fmul
 122 0044 0710A0E1 		mov	r1, r7
 123 0048 00A0A0E1 		mov	sl, r0
 124 004c 0700A0E1 		mov	r0, r7
 125 0050 FEFFFFEB 		bl	__aeabi_fmul
 126 0054 0010A0E1 		mov	r1, r0
 127 0058 0A00A0E1 		mov	r0, sl
 128 005c FEFFFFEB 		bl	__aeabi_fadd
 129 0060 94309FE5 		ldr	r3, .L14+8
 130 0064 000083E5 		str	r0, [r3, #0]	@ float
 131 0068 90309FE5 		ldr	r3, .L14+12
 132 006c 00A0A0E1 		mov	sl, r0
 133 0070 001093E5 		ldr	r1, [r3, #0]	@ float
 134 0074 20009DE5 		ldr	r0, [sp, #32]	@ float
 135 0078 FEFFFFEB 		bl	__aeabi_fmul
 136 007c 0010A0E1 		mov	r1, r0
 137 0080 FEFFFFEB 		bl	__aeabi_fmul
 138 0084 0010A0E1 		mov	r1, r0
 139 0088 0A00A0E1 		mov	r0, sl
 140 008c FEFFFFEB 		bl	__aeabi_fcmplt
 141 0090 000050E3 		cmp	r0, #0
 142 0094 0100A013 		movne	r0, #1
 143 0098 1300001A 		bne	.L11
 144 009c 0500A0E1 		mov	r0, r5
 145 00a0 0610A0E1 		mov	r1, r6
 146 00a4 FEFFFFEB 		bl	__aeabi_fsub
 147 00a8 0810A0E1 		mov	r1, r8
 148 00ac FEFFFFEB 		bl	__aeabi_fmul
 149 00b0 0910A0E1 		mov	r1, r9
 150 00b4 0050A0E1 		mov	r5, r0
 151 00b8 0400A0E1 		mov	r0, r4
 152 00bc FEFFFFEB 		bl	__aeabi_fsub
 153 00c0 0710A0E1 		mov	r1, r7
 154 00c4 FEFFFFEB 		bl	__aeabi_fmul
 155 00c8 0010A0E1 		mov	r1, r0
 156 00cc 0500A0E1 		mov	r0, r5
 157 00d0 FEFFFFEB 		bl	__aeabi_fadd
 158 00d4 0010A0E3 		mov	r1, #0
 159 00d8 FEFFFFEB 		bl	__aeabi_fcmplt
 160 00dc 000050E3 		cmp	r0, #0
 161 00e0 0140A0E3 		mov	r4, #1
 162 00e4 0040A001 		moveq	r4, r0
 163 00e8 FF0004E2 		and	r0, r4, #255
 164              	.L11:
 165 00ec F047BDE8 		ldmfd	sp!, {r4, r5, r6, r7, r8, r9, sl, lr}
 166 00f0 1EFF2FE1 		bx	lr
 167              	.L15:
 168              		.align	2
 169              	.L14:
 170 00f4 00000000 		.word	estimator_x
 171 00f8 00000000 		.word	estimator_y
 172 00fc 00000000 		.word	dist2_to_wp
 173 0100 00000000 		.word	estimator_hspeed_mod
 175              		.global	__aeabi_f2d
 176              		.global	__aeabi_d2f
 177              		.global	__aeabi_dadd
 178              		.global	__aeabi_dsub
 179              		.global	__aeabi_dcmpgt
 180              		.global	__aeabi_dcmplt
 181              		.global	__aeabi_ddiv
 182              		.section	.text.fly_to_xy,"ax",%progbits
 183              		.align	2
 184              		.global	fly_to_xy
 186              	fly_to_xy:
 187              		@ Function supports interworking.
 188              		@ args = 0, pretend = 0, frame = 0
 189              		@ frame_needed = 0, uses_anonymous_args = 0
 190 0000 F8402DE9 		stmfd	sp!, {r3, r4, r5, r6, r7, lr}
 191 0004 70329FE5 		ldr	r3, .L40
 192 0008 000083E5 		str	r0, [r3, #0]	@ float
 193 000c 6C329FE5 		ldr	r3, .L40+4
 194 0010 001083E5 		str	r1, [r3, #0]	@ float
 195 0014 68329FE5 		ldr	r3, .L40+8
 196 0018 003093E5 		ldr	r3, [r3, #0]
 197 001c 020053E3 		cmp	r3, #2
 198 0020 60329FE5 		ldr	r3, .L40+12
 199 0024 0140A0E1 		mov	r4, r1
 200 0028 5C529FE5 		ldr	r5, .L40+16
 201 002c 001093E5 		ldr	r1, [r3, #0]	@ float
 202 0030 1D00001A 		bne	.L17
 203 0034 FEFFFFEB 		bl	__aeabi_fsub
 204 0038 FEFFFFEB 		bl	__aeabi_f2d
 205 003c 0060A0E1 		mov	r6, r0
 206 0040 0170A0E1 		mov	r7, r1
 207 0044 0400A0E1 		mov	r0, r4
 208 0048 001095E5 		ldr	r1, [r5, #0]	@ float
 209 004c FEFFFFEB 		bl	__aeabi_fsub
 210 0050 FEFFFFEB 		bl	__aeabi_f2d
 211 0054 0020A0E1 		mov	r2, r0
 212 0058 0130A0E1 		mov	r3, r1
 213 005c 0600A0E1 		mov	r0, r6
 214 0060 0710A0E1 		mov	r1, r7
 215 0064 FEFFFFEB 		bl	atan2
 216 0068 FEFFFFEB 		bl	__aeabi_d2f
 217 006c 1C429FE5 		ldr	r4, .L40+20
 218 0070 0010A0E3 		mov	r1, #0
 219 0074 000084E5 		str	r0, [r4, #0]	@ float
 220 0078 0050A0E1 		mov	r5, r0
 221 007c FEFFFFEB 		bl	__aeabi_fcmplt
 222 0080 000050E3 		cmp	r0, #0
 223 0084 0600000A 		beq	.L18
 224 0088 0500A0E1 		mov	r0, r5
 225 008c FEFFFFEB 		bl	__aeabi_f2d
 226 0090 FC219FE5 		ldr	r2, .L40+24
 227 0094 FC319FE5 		ldr	r3, .L40+28
 228 0098 FEFFFFEB 		bl	__aeabi_dadd
 229 009c FEFFFFEB 		bl	__aeabi_d2f
 230 00a0 000084E5 		str	r0, [r4, #0]	@ float
 231              	.L18:
 232 00a4 0320A0E3 		mov	r2, #3
 233 00a8 6F0000EA 		b	.L39
 234              	.L17:
 235 00ac FEFFFFEB 		bl	__aeabi_fsub
 236 00b0 FEFFFFEB 		bl	__aeabi_f2d
 237 00b4 0060A0E1 		mov	r6, r0
 238 00b8 0170A0E1 		mov	r7, r1
 239 00bc 0400A0E1 		mov	r0, r4
 240 00c0 001095E5 		ldr	r1, [r5, #0]	@ float
 241 00c4 FEFFFFEB 		bl	__aeabi_fsub
 242 00c8 FEFFFFEB 		bl	__aeabi_f2d
 243 00cc 0020A0E1 		mov	r2, r0
 244 00d0 0130A0E1 		mov	r3, r1
 245 00d4 0600A0E1 		mov	r0, r6
 246 00d8 0710A0E1 		mov	r1, r7
 247 00dc FEFFFFEB 		bl	atan2
 248 00e0 B4319FE5 		ldr	r3, .L40+32
 249 00e4 0040A0E1 		mov	r4, r0
 250 00e8 000093E5 		ldr	r0, [r3, #0]	@ float
 251 00ec 0150A0E1 		mov	r5, r1
 252 00f0 FEFFFFEB 		bl	__aeabi_f2d
 253 00f4 0020A0E1 		mov	r2, r0
 254 00f8 0130A0E1 		mov	r3, r1
 255 00fc 0400A0E1 		mov	r0, r4
 256 0100 0510A0E1 		mov	r1, r5
 257 0104 030000EA 		b	.L37
 258              	.L22:
 259 0108 84219FE5 		ldr	r2, .L40+24
 260 010c 84319FE5 		ldr	r3, .L40+28
 261 0110 0600A0E1 		mov	r0, r6
 262 0114 0710A0E1 		mov	r1, r7
 263              	.L37:
 264 0118 FEFFFFEB 		bl	__aeabi_dsub
 265 011c FEFFFFEB 		bl	__aeabi_d2f
 266 0120 0040A0E1 		mov	r4, r0
 267 0124 FEFFFFEB 		bl	__aeabi_f2d
 268 0128 64219FE5 		ldr	r2, .L40+24
 269 012c 6C319FE5 		ldr	r3, .L40+36
 270 0130 0060A0E1 		mov	r6, r0
 271 0134 0170A0E1 		mov	r7, r1
 272 0138 FEFFFFEB 		bl	__aeabi_dcmpgt
 273 013c 000050E3 		cmp	r0, #0
 274 0140 F0FFFF1A 		bne	.L22
 275 0144 030000EA 		b	.L35
 276              	.L24:
 277 0148 48319FE5 		ldr	r3, .L40+28
 278 014c FEFFFFEB 		bl	__aeabi_dadd
 279 0150 FEFFFFEB 		bl	__aeabi_d2f
 280 0154 0040A0E1 		mov	r4, r0
 281              	.L35:
 282 0158 0400A0E1 		mov	r0, r4
 283 015c FEFFFFEB 		bl	__aeabi_f2d
 284 0160 2C219FE5 		ldr	r2, .L40+24
 285 0164 38319FE5 		ldr	r3, .L40+40
 286 0168 0060A0E1 		mov	r6, r0
 287 016c 0170A0E1 		mov	r7, r1
 288 0170 FEFFFFEB 		bl	__aeabi_dcmplt
 289 0174 000050E3 		cmp	r0, #0
 290 0178 0710A0E1 		mov	r1, r7
 291 017c 0600A0E1 		mov	r0, r6
 292 0180 0C219FE5 		ldr	r2, .L40+24
 293 0184 EFFFFF1A 		bne	.L24
 294 0188 18319FE5 		ldr	r3, .L40+44
 295 018c FEFFFFEB 		bl	__aeabi_dcmpgt
 296 0190 000050E3 		cmp	r0, #0
 297 0194 10419F15 		ldrne	r4, .L40+48
 298 0198 0600001A 		bne	.L25
 299 019c 0600A0E1 		mov	r0, r6
 300 01a0 0710A0E1 		mov	r1, r7
 301 01a4 E8209FE5 		ldr	r2, .L40+24
 302 01a8 00319FE5 		ldr	r3, .L40+52
 303 01ac FEFFFFEB 		bl	__aeabi_dcmplt
 304 01b0 000050E3 		cmp	r0, #0
 305 01b4 F8409F15 		ldrne	r4, .L40+56
 306              	.L25:
 307 01b8 0400A0E1 		mov	r0, r4
 308 01bc FEFFFFEB 		bl	__aeabi_f2d
 309 01c0 FEFFFFEB 		bl	sin
 310 01c4 EC309FE5 		ldr	r3, .L40+60
 311 01c8 004093E5 		ldr	r4, [r3, #0]	@ float
 312 01cc 0060A0E1 		mov	r6, r0
 313 01d0 0170A0E1 		mov	r7, r1
 314 01d4 0400A0E1 		mov	r0, r4
 315 01d8 0410A0E1 		mov	r1, r4
 316 01dc FEFFFFEB 		bl	__aeabi_fadd
 317 01e0 0410A0E1 		mov	r1, r4
 318 01e4 FEFFFFEB 		bl	__aeabi_fmul
 319 01e8 0710A0E1 		mov	r1, r7
 320 01ec 0040A0E1 		mov	r4, r0
 321 01f0 0600A0E1 		mov	r0, r6
 322 01f4 FEFFFFEB 		bl	__aeabi_d2f
 323 01f8 0010A0E1 		mov	r1, r0
 324 01fc 0400A0E1 		mov	r0, r4
 325 0200 FEFFFFEB 		bl	__aeabi_fmul
 326 0204 B0309FE5 		ldr	r3, .L40+64
 327 0208 001093E5 		ldr	r1, [r3, #0]	@ float
 328 020c FEFFFFEB 		bl	__aeabi_fmul
 329 0210 FEFFFFEB 		bl	__aeabi_f2d
 330 0214 A4209FE5 		ldr	r2, .L40+68
 331 0218 A4309FE5 		ldr	r3, .L40+72
 332 021c FEFFFFEB 		bl	__aeabi_ddiv
 333 0220 FEFFFFEB 		bl	atan
 334 0224 FEFFFFEB 		bl	__aeabi_d2f
 335 0228 98309FE5 		ldr	r3, .L40+76
 336 022c 98409FE5 		ldr	r4, .L40+80
 337 0230 005093E5 		ldr	r5, [r3, #0]	@ float
 338 0234 000084E5 		str	r0, [r4, #0]	@ float
 339 0238 0510A0E1 		mov	r1, r5
 340 023c 0060A0E1 		mov	r6, r0
 341 0240 FEFFFFEB 		bl	__aeabi_fcmpgt
 342 0244 000050E3 		cmp	r0, #0
 343 0248 0500001A 		bne	.L38
 344              	.L36:
 345 024c 025185E2 		add	r5, r5, #-2147483648
 346 0250 0600A0E1 		mov	r0, r6
 347 0254 0510A0E1 		mov	r1, r5
 348 0258 FEFFFFEB 		bl	__aeabi_fcmplt
 349 025c 000050E3 		cmp	r0, #0
 350 0260 0000000A 		beq	.L28
 351              	.L38:
 352 0264 005084E5 		str	r5, [r4, #0]	@ float
 353              	.L28:
 354 0268 0220A0E3 		mov	r2, #2
 355              	.L39:
 356 026c 5C309FE5 		ldr	r3, .L40+84
 357 0270 0020C3E5 		strb	r2, [r3, #0]
 358 0274 F840BDE8 		ldmfd	sp!, {r3, r4, r5, r6, r7, lr}
 359 0278 1EFF2FE1 		bx	lr
 360              	.L41:
 361              		.align	2
 362              	.L40:
 363 027c 00000000 		.word	desired_x
 364 0280 00000000 		.word	desired_y
 365 0284 00000000 		.word	nav_mode
 366 0288 00000000 		.word	estimator_x
 367 028c 00000000 		.word	estimator_y
 368 0290 00000000 		.word	h_ctl_course_setpoint
 369 0294 182D4454 		.word	1413754136
 370 0298 FB211940 		.word	1075388923
 371 029c 00000000 		.word	estimator_hspeed_dir
 372 02a0 FB210940 		.word	1074340347
 373 02a4 FB2109C0 		.word	-1073143301
 374 02a8 FB21F93F 		.word	1073291771
 375 02ac DB0FC93F 		.word	1070141403
 376 02b0 FB21F9BF 		.word	-1074191877
 377 02b4 DB0FC9BF 		.word	-1077342245
 378 02b8 00000000 		.word	estimator_hspeed_mod
 379 02bc 00000000 		.word	h_ctl_course_pgain
 380 02c0 34333333 		.word	858993460
 381 02c4 33978B40 		.word	1082890035
 382 02c8 00000000 		.word	h_ctl_roll_max_setpoint
 383 02cc 00000000 		.word	h_ctl_roll_setpoint
 384 02d0 00000000 		.word	lateral_mode
 386              		.global	__aeabi_dmul
 387              		.global	__aeabi_fdiv
 388              		.section	.text.nav_circle_XY,"ax",%progbits
 389              		.align	2
 390              		.global	nav_circle_XY
 392              	nav_circle_XY:
 393              		@ Function supports interworking.
 394              		@ args = 0, pretend = 0, frame = 24
 395              		@ frame_needed = 0, uses_anonymous_args = 0
 396 0000 F04F2DE9 		stmfd	sp!, {r4, r5, r6, r7, r8, r9, sl, fp, lr}
 397 0004 30349FE5 		ldr	r3, .L64
 398 0008 1CD04DE2 		sub	sp, sp, #28
 399 000c 00B0A0E1 		mov	fp, r0
 400 0010 000093E5 		ldr	r0, [r3, #0]	@ float
 401 0014 0250A0E1 		mov	r5, r2
 402 0018 0C108DE5 		str	r1, [sp, #12]	@ float
 403 001c FEFFFFEB 		bl	__aeabi_fsub
 404 0020 FEFFFFEB 		bl	__aeabi_f2d
 405 0024 14349FE5 		ldr	r3, .L64+4
 406 0028 0080A0E1 		mov	r8, r0
 407 002c 0190A0E1 		mov	r9, r1
 408 0030 000093E5 		ldr	r0, [r3, #0]	@ float
 409 0034 0B10A0E1 		mov	r1, fp
 410 0038 FEFFFFEB 		bl	__aeabi_fsub
 411 003c FEFFFFEB 		bl	__aeabi_f2d
 412 0040 FC439FE5 		ldr	r4, .L64+8
 413 0044 0130A0E1 		mov	r3, r1
 414 0048 0020A0E1 		mov	r2, r0
 415 004c 0910A0E1 		mov	r1, r9
 416 0050 0800A0E1 		mov	r0, r8
 417 0054 006094E5 		ldr	r6, [r4, #0]	@ float
 418 0058 FEFFFFEB 		bl	atan2
 419 005c FEFFFFEB 		bl	__aeabi_d2f
 420 0060 E0339FE5 		ldr	r3, .L64+12
 421 0064 0030D3E5 		ldrb	r3, [r3, #0]	@ zero_extendqisi2
 422 0068 000053E3 		cmp	r3, #0
 423 006c 0070A0E1 		mov	r7, r0
 424 0070 000084E5 		str	r0, [r4, #0]	@ float
 425 0074 2700000A 		beq	.L43
 426 0078 0610A0E1 		mov	r1, r6
 427 007c FEFFFFEB 		bl	__aeabi_fsub
 428 0080 050000EA 		b	.L63
 429              	.L45:
 430 0084 C0239FE5 		ldr	r2, .L64+16
 431 0088 C0339FE5 		ldr	r3, .L64+20
 432 008c 0800A0E1 		mov	r0, r8
 433 0090 0910A0E1 		mov	r1, r9
 434 0094 FEFFFFEB 		bl	__aeabi_dsub
 435 0098 FEFFFFEB 		bl	__aeabi_d2f
 436              	.L63:
 437 009c 0040A0E1 		mov	r4, r0
 438 00a0 FEFFFFEB 		bl	__aeabi_f2d
 439 00a4 A0239FE5 		ldr	r2, .L64+16
 440 00a8 A4339FE5 		ldr	r3, .L64+24
 441 00ac 0080A0E1 		mov	r8, r0
 442 00b0 0190A0E1 		mov	r9, r1
 443 00b4 FEFFFFEB 		bl	__aeabi_dcmpgt
 444 00b8 000050E3 		cmp	r0, #0
 445 00bc F0FFFF1A 		bne	.L45
 446 00c0 060000EA 		b	.L61
 447              	.L47:
 448 00c4 80239FE5 		ldr	r2, .L64+16
 449 00c8 80339FE5 		ldr	r3, .L64+20
 450 00cc 0800A0E1 		mov	r0, r8
 451 00d0 0910A0E1 		mov	r1, r9
 452 00d4 FEFFFFEB 		bl	__aeabi_dadd
 453 00d8 FEFFFFEB 		bl	__aeabi_d2f
 454 00dc 0040A0E1 		mov	r4, r0
 455              	.L61:
 456 00e0 0400A0E1 		mov	r0, r4
 457 00e4 FEFFFFEB 		bl	__aeabi_f2d
 458 00e8 5C239FE5 		ldr	r2, .L64+16
 459 00ec 64339FE5 		ldr	r3, .L64+28
 460 00f0 0080A0E1 		mov	r8, r0
 461 00f4 0190A0E1 		mov	r9, r1
 462 00f8 FEFFFFEB 		bl	__aeabi_dcmplt
 463 00fc 000050E3 		cmp	r0, #0
 464 0100 EFFFFF1A 		bne	.L47
 465 0104 50639FE5 		ldr	r6, .L64+32
 466 0108 0410A0E1 		mov	r1, r4
 467 010c 000096E5 		ldr	r0, [r6, #0]	@ float
 468 0110 FEFFFFEB 		bl	__aeabi_fadd
 469 0114 000086E5 		str	r0, [r6, #0]	@ float
 470              	.L43:
 471 0118 20339FE5 		ldr	r3, .L64+4
 472 011c 0B10A0E1 		mov	r1, fp
 473 0120 000093E5 		ldr	r0, [r3, #0]	@ float
 474 0124 FEFFFFEB 		bl	__aeabi_fsub
 475 0128 0C339FE5 		ldr	r3, .L64
 476 012c 0040A0E1 		mov	r4, r0
 477 0130 0C109DE5 		ldr	r1, [sp, #12]	@ float
 478 0134 000093E5 		ldr	r0, [r3, #0]	@ float
 479 0138 FEFFFFEB 		bl	__aeabi_fsub
 480 013c 0410A0E1 		mov	r1, r4
 481 0140 0060A0E1 		mov	r6, r0
 482 0144 0400A0E1 		mov	r0, r4
 483 0148 FEFFFFEB 		bl	__aeabi_fmul
 484 014c 0610A0E1 		mov	r1, r6
 485 0150 0040A0E1 		mov	r4, r0
 486 0154 0600A0E1 		mov	r0, r6
 487 0158 FEFFFFEB 		bl	__aeabi_fmul
 488 015c 0010A0E1 		mov	r1, r0
 489 0160 0400A0E1 		mov	r0, r4
 490 0164 FEFFFFEB 		bl	__aeabi_fadd
 491 0168 0010A0E3 		mov	r1, #0
 492 016c 0080A0E1 		mov	r8, r0
 493 0170 0500A0E1 		mov	r0, r5
 494 0174 FEFFFFEB 		bl	__aeabi_fcmpgt
 495 0178 E0329FE5 		ldr	r3, .L64+36
 496 017c 000050E3 		cmp	r0, #0
 497 0180 001093E5 		ldr	r1, [r3, #0]	@ float
 498 0184 0500A0E1 		mov	r0, r5
 499 0188 FE65A013 		movne	r6, #1065353216
 500 018c D0629F05 		ldreq	r6, .L64+40
 501 0190 FEFFFFEB 		bl	__aeabi_fsub
 502 0194 0241C0E3 		bic	r4, r0, #-2147483648
 503 0198 C8129FE5 		ldr	r1, .L64+44
 504 019c 00A0A0E1 		mov	sl, r0
 505 01a0 0400A0E1 		mov	r0, r4
 506 01a4 FEFFFFEB 		bl	__aeabi_fadd
 507 01a8 0010A0E1 		mov	r1, r0
 508 01ac FEFFFFEB 		bl	__aeabi_fmul
 509 01b0 0010A0E1 		mov	r1, r0
 510 01b4 0800A0E1 		mov	r0, r8
 511 01b8 FEFFFFEB 		bl	__aeabi_fcmpgt
 512 01bc 000050E3 		cmp	r0, #0
 513 01c0 0190A0E3 		mov	r9, #1
 514 01c4 0090A003 		moveq	r9, #0
 515 01c8 FF9019E2 		ands	r9, r9, #255
 516 01cc 2000001A 		bne	.L58
 517 01d0 90129FE5 		ldr	r1, .L64+44
 518 01d4 0400A0E1 		mov	r0, r4
 519 01d8 FEFFFFEB 		bl	__aeabi_fsub
 520 01dc 0010A0E1 		mov	r1, r0
 521 01e0 FEFFFFEB 		bl	__aeabi_fmul
 522 01e4 0010A0E1 		mov	r1, r0
 523 01e8 0800A0E1 		mov	r0, r8
 524 01ec FEFFFFEB 		bl	__aeabi_fcmplt
 525 01f0 000050E3 		cmp	r0, #0
 526 01f4 0150A0E3 		mov	r5, #1
 527 01f8 0950A001 		moveq	r5, r9
 528 01fc FF0015E3 		tst	r5, #255
 529 0200 1300001A 		bne	.L58
 530 0204 60329FE5 		ldr	r3, .L64+48
 531 0208 000093E5 		ldr	r0, [r3, #0]	@ float
 532 020c 0010A0E1 		mov	r1, r0
 533 0210 FEFFFFEB 		bl	__aeabi_fmul
 534 0214 FEFFFFEB 		bl	__aeabi_f2d
 535 0218 0080A0E1 		mov	r8, r0
 536 021c 0A00A0E1 		mov	r0, sl
 537 0220 0190A0E1 		mov	r9, r1
 538 0224 FEFFFFEB 		bl	__aeabi_f2d
 539 0228 40229FE5 		ldr	r2, .L64+52
 540 022c 40329FE5 		ldr	r3, .L64+56
 541 0230 FEFFFFEB 		bl	__aeabi_dmul
 542 0234 0020A0E1 		mov	r2, r0
 543 0238 0130A0E1 		mov	r3, r1
 544 023c 0800A0E1 		mov	r0, r8
 545 0240 0910A0E1 		mov	r1, r9
 546 0244 FEFFFFEB 		bl	__aeabi_ddiv
 547 0248 FEFFFFEB 		bl	atan
 548 024c FEFFFFEB 		bl	__aeabi_d2f
 549 0250 000000EA 		b	.L50
 550              	.L58:
 551 0254 0000A0E3 		mov	r0, #0
 552              	.L50:
 553 0258 18329FE5 		ldr	r3, .L64+60
 554 025c 0410A0E1 		mov	r1, r4
 555 0260 000083E5 		str	r0, [r3, #0]	@ float
 556 0264 FC019FE5 		ldr	r0, .L64+44
 557 0268 FEFFFFEB 		bl	__aeabi_fdiv
 558 026c 0050A0E1 		mov	r5, r0
 559 0270 FEFFFFEB 		bl	__aeabi_f2d
 560 0274 D0219FE5 		ldr	r2, .L64+16
 561 0278 FC319FE5 		ldr	r3, .L64+64
 562 027c FEFFFFEB 		bl	__aeabi_dcmplt
 563 0280 000050E3 		cmp	r0, #0
 564 0284 F4519F05 		ldreq	r5, .L64+68
 565 0288 0500A0E1 		mov	r0, r5
 566 028c FEFFFFEB 		bl	__aeabi_f2d
 567 0290 B4219FE5 		ldr	r2, .L64+16
 568 0294 E8319FE5 		ldr	r3, .L64+72
 569 0298 FEFFFFEB 		bl	__aeabi_dcmpgt
 570 029c 000050E3 		cmp	r0, #0
 571 02a0 E0519F05 		ldreq	r5, .L64+76
 572 02a4 0600A0E1 		mov	r0, r6
 573 02a8 0510A0E1 		mov	r1, r5
 574 02ac FEFFFFEB 		bl	__aeabi_fmul
 575 02b0 0010A0E1 		mov	r1, r0
 576 02b4 0700A0E1 		mov	r0, r7
 577 02b8 FEFFFFEB 		bl	__aeabi_fsub
 578 02bc C8319FE5 		ldr	r3, .L64+80
 579 02c0 0220A0E3 		mov	r2, #2
 580 02c4 0020C3E5 		strb	r2, [r3, #0]
 581 02c8 C0319FE5 		ldr	r3, .L64+84
 582 02cc 003093E5 		ldr	r3, [r3, #0]
 583 02d0 020053E1 		cmp	r3, r2
 584 02d4 0080A0E1 		mov	r8, r0
 585 02d8 1500001A 		bne	.L55
 586 02dc 0400A0E1 		mov	r0, r4
 587 02e0 FEFFFFEB 		bl	__aeabi_f2d
 588 02e4 0060A0E1 		mov	r6, r0
 589 02e8 0500A0E1 		mov	r0, r5
 590 02ec 0170A0E1 		mov	r7, r1
 591 02f0 FEFFFFEB 		bl	__aeabi_f2d
 592 02f4 FEFFFFEB 		bl	cos
 593 02f8 0020A0E1 		mov	r2, r0
 594 02fc 0130A0E1 		mov	r3, r1
 595 0300 0600A0E1 		mov	r0, r6
 596 0304 0710A0E1 		mov	r1, r7
 597 0308 FEFFFFEB 		bl	__aeabi_ddiv
 598 030c 0620A0E1 		mov	r2, r6
 599 0310 0730A0E1 		mov	r3, r7
 600 0314 FEFFFFEB 		bl	__aeabi_dsub
 601 0318 0020A0E1 		mov	r2, r0
 602 031c 0130A0E1 		mov	r3, r1
 603 0320 0600A0E1 		mov	r0, r6
 604 0324 0710A0E1 		mov	r1, r7
 605 0328 FEFFFFEB 		bl	__aeabi_dadd
 606 032c FEFFFFEB 		bl	__aeabi_d2f
 607 0330 0040A0E1 		mov	r4, r0
 608              	.L55:
 609 0334 0800A0E1 		mov	r0, r8
 610 0338 FEFFFFEB 		bl	__aeabi_f2d
 611 033c 0060A0E1 		mov	r6, r0
 612 0340 0170A0E1 		mov	r7, r1
 613 0344 FEFFFFEB 		bl	cos
 614 0348 0020A0E1 		mov	r2, r0
 615 034c 0400A0E1 		mov	r0, r4
 616 0350 08208DE5 		str	r2, [sp, #8]
 617 0354 04108DE5 		str	r1, [sp, #4]
 618 0358 FEFFFFEB 		bl	__aeabi_f2d
 619 035c 0080A0E1 		mov	r8, r0
 620 0360 0190A0E1 		mov	r9, r1
 621 0364 0600A0E1 		mov	r0, r6
 622 0368 0710A0E1 		mov	r1, r7
 623 036c FEFFFFEB 		bl	sin
 624 0370 10008DE5 		str	r0, [sp, #16]
 625 0374 14108DE5 		str	r1, [sp, #20]
 626 0378 0B00A0E1 		mov	r0, fp
 627 037c FEFFFFEB 		bl	__aeabi_f2d
 628 0380 08209DE5 		ldr	r2, [sp, #8]
 629 0384 04309DE5 		ldr	r3, [sp, #4]
 630 0388 0040A0E1 		mov	r4, r0
 631 038c 0150A0E1 		mov	r5, r1
 632 0390 0200A0E1 		mov	r0, r2
 633 0394 0310A0E1 		mov	r1, r3
 634 0398 0820A0E1 		mov	r2, r8
 635 039c 0930A0E1 		mov	r3, r9
 636 03a0 FEFFFFEB 		bl	__aeabi_dmul
 637 03a4 0020A0E1 		mov	r2, r0
 638 03a8 0130A0E1 		mov	r3, r1
 639 03ac 0400A0E1 		mov	r0, r4
 640 03b0 0510A0E1 		mov	r1, r5
 641 03b4 FEFFFFEB 		bl	__aeabi_dadd
 642 03b8 FEFFFFEB 		bl	__aeabi_d2f
 643 03bc 0040A0E1 		mov	r4, r0
 644 03c0 0C009DE5 		ldr	r0, [sp, #12]	@ float
 645 03c4 FEFFFFEB 		bl	__aeabi_f2d
 646 03c8 0820A0E1 		mov	r2, r8
 647 03cc 0060A0E1 		mov	r6, r0
 648 03d0 0170A0E1 		mov	r7, r1
 649 03d4 0930A0E1 		mov	r3, r9
 650 03d8 10108DE2 		add	r1, sp, #16
 651 03dc 030091E8 		ldmia	r1, {r0-r1}
 652 03e0 FEFFFFEB 		bl	__aeabi_dmul
 653 03e4 0020A0E1 		mov	r2, r0
 654 03e8 0130A0E1 		mov	r3, r1
 655 03ec 0600A0E1 		mov	r0, r6
 656 03f0 0710A0E1 		mov	r1, r7
 657 03f4 FEFFFFEB 		bl	__aeabi_dadd
 658 03f8 FEFFFFEB 		bl	__aeabi_d2f
 659 03fc 0010A0E1 		mov	r1, r0
 660 0400 0400A0E1 		mov	r0, r4
 661 0404 FEFFFFEB 		bl	fly_to_xy
 662 0408 38309FE5 		ldr	r3, .L64+12
 663 040c 0120A0E3 		mov	r2, #1
 664 0410 0020C3E5 		strb	r2, [r3, #0]
 665 0414 78309FE5 		ldr	r3, .L64+88
 666 0418 0C209DE5 		ldr	r2, [sp, #12]	@ float
 667 041c 00B083E5 		str	fp, [r3, #0]	@ float
 668 0420 70309FE5 		ldr	r3, .L64+92
 669 0424 002083E5 		str	r2, [r3, #0]	@ float
 670 0428 6C309FE5 		ldr	r3, .L64+96
 671 042c 00A083E5 		str	sl, [r3, #0]	@ float
 672 0430 1CD08DE2 		add	sp, sp, #28
 673 0434 F04FBDE8 		ldmfd	sp!, {r4, r5, r6, r7, r8, r9, sl, fp, lr}
 674 0438 1EFF2FE1 		bx	lr
 675              	.L65:
 676              		.align	2
 677              	.L64:
 678 043c 00000000 		.word	estimator_y
 679 0440 00000000 		.word	estimator_x
 680 0444 00000000 		.word	nav_circle_trigo_qdr
 681 0448 00000000 		.word	.LANCHOR2
 682 044c 182D4454 		.word	1413754136
 683 0450 FB211940 		.word	1075388923
 684 0454 FB210940 		.word	1074340347
 685 0458 FB2109C0 		.word	-1073143301
 686 045c 00000000 		.word	nav_circle_radians
 687 0460 00000000 		.word	nav_shift
 688 0464 000080BF 		.word	-1082130432
 689 0468 0000B442 		.word	1119092736
 690 046c 00000000 		.word	estimator_hspeed_mod
 691 0470 E9263108 		.word	137438953
 692 0474 AC9C2340 		.word	1076075692
 693 0478 00000000 		.word	.LANCHOR4
 694 047c FB21E93F 		.word	1072243195
 695 0480 DB0F493F 		.word	1061752795
 696 0484 FB21C93F 		.word	1070146043
 697 0488 DB0F493E 		.word	1044975579
 698 048c 00000000 		.word	horizontal_mode
 699 0490 00000000 		.word	nav_mode
 700 0494 00000000 		.word	nav_circle_x
 701 0498 00000000 		.word	nav_circle_y
 702 049c 00000000 		.word	nav_circle_radius
 704              		.section	.text.nav_route_xy,"ax",%progbits
 705              		.align	2
 706              		.global	nav_route_xy
 708              	nav_route_xy:
 709              		@ Function supports interworking.
 710              		@ args = 0, pretend = 0, frame = 8
 711              		@ frame_needed = 0, uses_anonymous_args = 0
 712 0000 F74F2DE9 		stmfd	sp!, {r0, r1, r2, r4, r5, r6, r7, r8, r9, sl, fp, lr}
 713 0004 0060A0E1 		mov	r6, r0
 714 0008 0170A0E1 		mov	r7, r1
 715 000c 0200A0E1 		mov	r0, r2
 716 0010 0610A0E1 		mov	r1, r6
 717 0014 02A0A0E1 		mov	sl, r2
 718 0018 0390A0E1 		mov	r9, r3
 719 001c FEFFFFEB 		bl	__aeabi_fsub
 720 0020 0710A0E1 		mov	r1, r7
 721 0024 0050A0E1 		mov	r5, r0
 722 0028 0900A0E1 		mov	r0, r9
 723 002c FEFFFFEB 		bl	__aeabi_fsub
 724 0030 0510A0E1 		mov	r1, r5
 725 0034 0040A0E1 		mov	r4, r0
 726 0038 0500A0E1 		mov	r0, r5
 727 003c FEFFFFEB 		bl	__aeabi_fmul
 728 0040 0410A0E1 		mov	r1, r4
 729 0044 0080A0E1 		mov	r8, r0
 730 0048 0400A0E1 		mov	r0, r4
 731 004c FEFFFFEB 		bl	__aeabi_fmul
 732 0050 0010A0E1 		mov	r1, r0
 733 0054 0800A0E1 		mov	r0, r8
 734 0058 FEFFFFEB 		bl	__aeabi_fadd
 735 005c FE15A0E3 		mov	r1, #1065353216
 736 0060 0080A0E1 		mov	r8, r0
 737 0064 FEFFFFEB 		bl	__aeabi_fcmpgt
 738 0068 8C319FE5 		ldr	r3, .L73
 739 006c 000050E3 		cmp	r0, #0
 740 0070 0610A0E1 		mov	r1, r6
 741 0074 000093E5 		ldr	r0, [r3, #0]	@ float
 742 0078 FE85A003 		moveq	r8, #1065353216
 743 007c FEFFFFEB 		bl	__aeabi_fsub
 744 0080 0510A0E1 		mov	r1, r5
 745 0084 FEFFFFEB 		bl	__aeabi_fmul
 746 0088 70319FE5 		ldr	r3, .L73+4
 747 008c 00B0A0E1 		mov	fp, r0
 748 0090 0710A0E1 		mov	r1, r7
 749 0094 000093E5 		ldr	r0, [r3, #0]	@ float
 750 0098 FEFFFFEB 		bl	__aeabi_fsub
 751 009c 0410A0E1 		mov	r1, r4
 752 00a0 FEFFFFEB 		bl	__aeabi_fmul
 753 00a4 0010A0E1 		mov	r1, r0
 754 00a8 0B00A0E1 		mov	r0, fp
 755 00ac FEFFFFEB 		bl	__aeabi_fadd
 756 00b0 0810A0E1 		mov	r1, r8
 757 00b4 FEFFFFEB 		bl	__aeabi_fdiv
 758 00b8 00B0A0E1 		mov	fp, r0
 759 00bc 0800A0E1 		mov	r0, r8
 760 00c0 FEFFFFEB 		bl	__aeabi_f2d
 761 00c4 FEFFFFEB 		bl	sqrt
 762 00c8 FEFFFFEB 		bl	__aeabi_d2f
 763 00cc 30319FE5 		ldr	r3, .L73+8
 764 00d0 0080A0E1 		mov	r8, r0
 765 00d4 000083E5 		str	r0, [r3, #0]	@ float
 766 00d8 0B00A0E1 		mov	r0, fp
 767 00dc FEFFFFEB 		bl	__aeabi_f2d
 768 00e0 03008DE8 		stmia	sp, {r0-r1}
 769 00e4 0810A0E1 		mov	r1, r8
 770 00e8 18019FE5 		ldr	r0, .L73+12
 771 00ec FEFFFFEB 		bl	__aeabi_fdiv
 772 00f0 0010A0E3 		mov	r1, #0
 773 00f4 00B0A0E1 		mov	fp, r0
 774 00f8 FEFFFFEB 		bl	__aeabi_fcmpgt
 775 00fc 000050E3 		cmp	r0, #0
 776 0100 0020A003 		moveq	r2, #0
 777 0104 0030A003 		moveq	r3, #0
 778 0108 0300000A 		beq	.L68
 779 010c 0B00A0E1 		mov	r0, fp
 780 0110 FEFFFFEB 		bl	__aeabi_f2d
 781 0114 0020A0E1 		mov	r2, r0
 782 0118 0130A0E1 		mov	r3, r1
 783              	.L68:
 784 011c 03009DE8 		ldmia	sp, {r0-r1}
 785 0120 FEFFFFEB 		bl	__aeabi_dadd
 786 0124 FEFFFFEB 		bl	__aeabi_d2f
 787 0128 DC309FE5 		ldr	r3, .L73+16
 788 012c DC209FE5 		ldr	r2, .L73+20
 789 0130 000083E5 		str	r0, [r3, #0]	@ float
 790 0134 0130A0E3 		mov	r3, #1
 791 0138 0030C2E5 		strb	r3, [r2, #0]
 792 013c D0209FE5 		ldr	r2, .L73+24
 793 0140 006082E5 		str	r6, [r2, #0]	@ float
 794 0144 CC209FE5 		ldr	r2, .L73+28
 795 0148 007082E5 		str	r7, [r2, #0]	@ float
 796 014c C8209FE5 		ldr	r2, .L73+32
 797 0150 00A082E5 		str	sl, [r2, #0]	@ float
 798 0154 C4209FE5 		ldr	r2, .L73+36
 799 0158 009082E5 		str	r9, [r2, #0]	@ float
 800 015c C0209FE5 		ldr	r2, .L73+40
 801 0160 0030C2E5 		strb	r3, [r2, #0]
 802 0164 BC309FE5 		ldr	r3, .L73+44
 803 0168 0510A0E1 		mov	r1, r5
 804 016c 00A093E5 		ldr	sl, [r3, #0]	@ float
 805 0170 00B0A0E1 		mov	fp, r0
 806 0174 FEFFFFEB 		bl	__aeabi_fmul
 807 0178 0010A0E1 		mov	r1, r0
 808 017c 0600A0E1 		mov	r0, r6
 809 0180 FEFFFFEB 		bl	__aeabi_fadd
 810 0184 0410A0E1 		mov	r1, r4
 811 0188 0060A0E1 		mov	r6, r0
 812 018c 0A00A0E1 		mov	r0, sl
 813 0190 FEFFFFEB 		bl	__aeabi_fmul
 814 0194 0810A0E1 		mov	r1, r8
 815 0198 FEFFFFEB 		bl	__aeabi_fdiv
 816 019c 0010A0E1 		mov	r1, r0
 817 01a0 0600A0E1 		mov	r0, r6
 818 01a4 FEFFFFEB 		bl	__aeabi_fadd
 819 01a8 0410A0E1 		mov	r1, r4
 820 01ac 0060A0E1 		mov	r6, r0
 821 01b0 0B00A0E1 		mov	r0, fp
 822 01b4 FEFFFFEB 		bl	__aeabi_fmul
 823 01b8 0010A0E1 		mov	r1, r0
 824 01bc 0700A0E1 		mov	r0, r7
 825 01c0 FEFFFFEB 		bl	__aeabi_fadd
 826 01c4 0510A0E1 		mov	r1, r5
 827 01c8 0040A0E1 		mov	r4, r0
 828 01cc 0A00A0E1 		mov	r0, sl
 829 01d0 FEFFFFEB 		bl	__aeabi_fmul
 830 01d4 0810A0E1 		mov	r1, r8
 831 01d8 FEFFFFEB 		bl	__aeabi_fdiv
 832 01dc 0010A0E1 		mov	r1, r0
 833 01e0 0400A0E1 		mov	r0, r4
 834 01e4 FEFFFFEB 		bl	__aeabi_fsub
 835 01e8 0010A0E1 		mov	r1, r0
 836 01ec 0600A0E1 		mov	r0, r6
 837 01f0 0CD08DE2 		add	sp, sp, #12
 838 01f4 F04FBDE8 		ldmfd	sp!, {r4, r5, r6, r7, r8, r9, sl, fp, lr}
 839 01f8 FEFFFFEA 		b	fly_to_xy
 840              	.L74:
 841              		.align	2
 842              	.L73:
 843 01fc 00000000 		.word	estimator_x
 844 0200 00000000 		.word	estimator_y
 845 0204 00000000 		.word	.LANCHOR5
 846 0208 0000B442 		.word	1119092736
 847 020c 00000000 		.word	.LANCHOR6
 848 0210 00000000 		.word	.LANCHOR3
 849 0214 00000000 		.word	nav_segment_x_1
 850 0218 00000000 		.word	nav_segment_y_1
 851 021c 00000000 		.word	nav_segment_x_2
 852 0220 00000000 		.word	nav_segment_y_2
 853 0224 00000000 		.word	horizontal_mode
 854 0228 00000000 		.word	nav_shift
 856              		.section	.text.compute_dist2_to_home,"ax",%progbits
 857              		.align	2
 858              		.global	compute_dist2_to_home
 860              	compute_dist2_to_home:
 861              		@ Function supports interworking.
 862              		@ args = 0, pretend = 0, frame = 0
 863              		@ frame_needed = 0, uses_anonymous_args = 0
 864 0000 70402DE9 		stmfd	sp!, {r4, r5, r6, lr}
 865 0004 78309FE5 		ldr	r3, .L77
 866 0008 78409FE5 		ldr	r4, .L77+4
 867 000c 001093E5 		ldr	r1, [r3, #0]	@ float
 868 0010 0C0094E5 		ldr	r0, [r4, #12]	@ float
 869 0014 FEFFFFEB 		bl	__aeabi_fsub
 870 0018 6C309FE5 		ldr	r3, .L77+8
 871 001c 0060A0E1 		mov	r6, r0
 872 0020 001093E5 		ldr	r1, [r3, #0]	@ float
 873 0024 100094E5 		ldr	r0, [r4, #16]	@ float
 874 0028 FEFFFFEB 		bl	__aeabi_fsub
 875 002c 0610A0E1 		mov	r1, r6
 876 0030 0050A0E1 		mov	r5, r0
 877 0034 0600A0E1 		mov	r0, r6
 878 0038 FEFFFFEB 		bl	__aeabi_fmul
 879 003c 0510A0E1 		mov	r1, r5
 880 0040 0040A0E1 		mov	r4, r0
 881 0044 0500A0E1 		mov	r0, r5
 882 0048 FEFFFFEB 		bl	__aeabi_fmul
 883 004c 0010A0E1 		mov	r1, r0
 884 0050 0400A0E1 		mov	r0, r4
 885 0054 FEFFFFEB 		bl	__aeabi_fadd
 886 0058 30309FE5 		ldr	r3, .L77+12
 887 005c 30109FE5 		ldr	r1, .L77+16
 888 0060 000083E5 		str	r0, [r3, #0]	@ float
 889 0064 FEFFFFEB 		bl	__aeabi_fcmpgt
 890 0068 28309FE5 		ldr	r3, .L77+20
 891 006c 000050E3 		cmp	r0, #0
 892 0070 0140A0E3 		mov	r4, #1
 893 0074 0040A003 		moveq	r4, #0
 894 0078 0040C3E5 		strb	r4, [r3, #0]
 895 007c 7040BDE8 		ldmfd	sp!, {r4, r5, r6, lr}
 896 0080 1EFF2FE1 		bx	lr
 897              	.L78:
 898              		.align	2
 899              	.L77:
 900 0084 00000000 		.word	estimator_x
 901 0088 00000000 		.word	.LANCHOR7
 902 008c 00000000 		.word	estimator_y
 903 0090 00000000 		.word	dist2_to_home
 904 0094 4054094A 		.word	1242125376
 905 0098 00000000 		.word	too_far_from_home
 907              		.global	__aeabi_i2d
 908              		.global	__aeabi_d2uiz
 909              		.global	__aeabi_f2iz
 910              		.section	.text.nav_reset_reference,"ax",%progbits
 911              		.align	2
 912              		.global	nav_reset_reference
 914              	nav_reset_reference:
 915              		@ Function supports interworking.
 916              		@ args = 0, pretend = 0, frame = 32
 917              		@ frame_needed = 0, uses_anonymous_args = 0
 918 0000 F0402DE9 		stmfd	sp!, {r4, r5, r6, r7, lr}
 919 0004 F4409FE5 		ldr	r4, .L80
 920 0008 24D04DE2 		sub	sp, sp, #36
 921 000c 0C0094E5 		ldr	r0, [r4, #12]
 922 0010 FEFFFFEB 		bl	__aeabi_i2d
 923 0014 0020A0E3 		mov	r2, #0
 924 0018 E4309FE5 		ldr	r3, .L80+4
 925 001c FEFFFFEB 		bl	__aeabi_ddiv
 926 0020 E0209FE5 		ldr	r2, .L80+8
 927 0024 E0309FE5 		ldr	r3, .L80+12
 928 0028 0060A0E1 		mov	r6, r0
 929 002c 0170A0E1 		mov	r7, r1
 930 0030 FEFFFFEB 		bl	__aeabi_dmul
 931 0034 0020A0E3 		mov	r2, #0
 932 0038 D0309FE5 		ldr	r3, .L80+16
 933 003c FEFFFFEB 		bl	__aeabi_dadd
 934 0040 0020A0E3 		mov	r2, #0
 935 0044 C8309FE5 		ldr	r3, .L80+20
 936 0048 FEFFFFEB 		bl	__aeabi_ddiv
 937 004c 0020A0E3 		mov	r2, #0
 938 0050 C0309FE5 		ldr	r3, .L80+24
 939 0054 FEFFFFEB 		bl	__aeabi_dadd
 940 0058 FEFFFFEB 		bl	__aeabi_d2uiz
 941 005c B8309FE5 		ldr	r3, .L80+28
 942 0060 FF5000E2 		and	r5, r0, #255
 943 0064 0050C3E5 		strb	r5, [r3, #0]
 944 0068 100094E5 		ldr	r0, [r4, #16]
 945 006c FEFFFFEB 		bl	__aeabi_i2d
 946 0070 0020A0E3 		mov	r2, #0
 947 0074 88309FE5 		ldr	r3, .L80+4
 948 0078 FEFFFFEB 		bl	__aeabi_ddiv
 949 007c FEFFFFEB 		bl	__aeabi_d2f
 950 0080 0710A0E1 		mov	r1, r7
 951 0084 18008DE5 		str	r0, [sp, #24]	@ float
 952 0088 0600A0E1 		mov	r0, r6
 953 008c FEFFFFEB 		bl	__aeabi_d2f
 954 0090 14108DE2 		add	r1, sp, #20
 955 0094 14008DE5 		str	r0, [sp, #20]	@ float
 956 0098 04008DE2 		add	r0, sp, #4
 957 009c 1050CDE5 		strb	r5, [sp, #16]
 958 00a0 FEFFFFEB 		bl	utm_of_lla_f
 959 00a4 08009DE5 		ldr	r0, [sp, #8]	@ float
 960 00a8 FEFFFFEB 		bl	__aeabi_f2iz
 961 00ac 6C309FE5 		ldr	r3, .L80+32
 962 00b0 000083E5 		str	r0, [r3, #0]
 963 00b4 04009DE5 		ldr	r0, [sp, #4]	@ float
 964 00b8 FEFFFFEB 		bl	__aeabi_f2iz
 965 00bc 60509FE5 		ldr	r5, .L80+36
 966 00c0 60309FE5 		ldr	r3, .L80+40
 967 00c4 002095E5 		ldr	r2, [r5, #0]	@ float
 968 00c8 000083E5 		str	r0, [r3, #0]
 969 00cc 58309FE5 		ldr	r3, .L80+44
 970 00d0 280094E5 		ldr	r0, [r4, #40]
 971 00d4 002083E5 		str	r2, [r3, #0]	@ float
 972 00d8 FEFFFFEB 		bl	__aeabi_i2d
 973 00dc 0020A0E3 		mov	r2, #0
 974 00e0 48309FE5 		ldr	r3, .L80+48
 975 00e4 FEFFFFEB 		bl	__aeabi_ddiv
 976 00e8 FEFFFFEB 		bl	__aeabi_d2f
 977 00ec 000085E5 		str	r0, [r5, #0]	@ float
 978 00f0 0000A0E3 		mov	r0, #0
 979 00f4 24D08DE2 		add	sp, sp, #36
 980 00f8 F040BDE8 		ldmfd	sp!, {r4, r5, r6, r7, lr}
 981 00fc 1EFF2FE1 		bx	lr
 982              	.L81:
 983              		.align	2
 984              	.L80:
 985 0100 00000000 		.word	gps
 986 0104 D0126341 		.word	1097011920
 987 0108 F8C1631A 		.word	442745336
 988 010c DCA54C40 		.word	1078765020
 989 0110 00806640 		.word	1080459264
 990 0114 00001840 		.word	1075314688
 991 0118 0000F03F 		.word	1072693248
 992 011c 00000000 		.word	.LANCHOR8
 993 0120 00000000 		.word	.LANCHOR9
 994 0124 00000000 		.word	ground_alt
 995 0128 00000000 		.word	.LANCHOR10
 996 012c 00000000 		.word	.LANCHOR11
 997 0130 00408F40 		.word	1083129856
 999              		.section	.text.nav_update_waypoints_alt,"ax",%progbits
 1000              		.align	2
 1001              		.global	nav_update_waypoints_alt
 1003              	nav_update_waypoints_alt:
 1004              		@ Function supports interworking.
 1005              		@ args = 0, pretend = 0, frame = 0
 1006              		@ frame_needed = 0, uses_anonymous_args = 0
 1007 0000 38402DE9 		stmfd	sp!, {r3, r4, r5, lr}
 1008 0004 40309FE5 		ldr	r3, .L83
 1009 0008 000093E5 		ldr	r0, [r3, #0]	@ float
 1010 000c 3C309FE5 		ldr	r3, .L83+4
 1011 0010 001093E5 		ldr	r1, [r3, #0]	@ float
 1012 0014 FEFFFFEB 		bl	__aeabi_fsub
 1013 0018 34409FE5 		ldr	r4, .L83+8
 1014 001c 0050A0E1 		mov	r5, r0
 1015 0020 0510A0E1 		mov	r1, r5
 1016 0024 080094E5 		ldr	r0, [r4, #8]	@ float
 1017 0028 FEFFFFEB 		bl	__aeabi_fadd
 1018 002c 0510A0E1 		mov	r1, r5
 1019 0030 080084E5 		str	r0, [r4, #8]	@ float
 1020 0034 140094E5 		ldr	r0, [r4, #20]	@ float
 1021 0038 FEFFFFEB 		bl	__aeabi_fadd
 1022 003c 140084E5 		str	r0, [r4, #20]	@ float
 1023 0040 0000A0E3 		mov	r0, #0
 1024 0044 3840BDE8 		ldmfd	sp!, {r3, r4, r5, lr}
 1025 0048 1EFF2FE1 		bx	lr
 1026              	.L84:
 1027              		.align	2
 1028              	.L83:
 1029 004c 00000000 		.word	ground_alt
 1030 0050 00000000 		.word	.LANCHOR11
 1031 0054 00000000 		.word	.LANCHOR7
 1033              		.section	.text.common_nav_periodic_task_4Hz,"ax",%progbits
 1034              		.align	2
 1035              		.global	common_nav_periodic_task_4Hz
 1037              	common_nav_periodic_task_4Hz:
 1038              		@ Function supports interworking.
 1039              		@ args = 0, pretend = 0, frame = 0
 1040              		@ frame_needed = 0, uses_anonymous_args = 0
 1041              		@ link register save eliminated.
 1042 0000 44309FE5 		ldr	r3, .L87
 1043 0004 B020D3E1 		ldrh	r2, [r3, #0]
 1044 0008 012082E2 		add	r2, r2, #1
 1045 000c 0228A0E1 		mov	r2, r2, asl #16
 1046 0010 2228A0E1 		mov	r2, r2, lsr #16
 1047 0014 030052E3 		cmp	r2, #3
 1048 0018 B020C3E1 		strh	r2, [r3, #0]	@ movhi
 1049 001c 1EFF2F91 		bxls	lr
 1050 0020 0020A0E3 		mov	r2, #0
 1051 0024 B020C3E1 		strh	r2, [r3, #0]	@ movhi
 1052 0028 20309FE5 		ldr	r3, .L87+4
 1053 002c B020D3E1 		ldrh	r2, [r3, #0]
 1054 0030 012082E2 		add	r2, r2, #1
 1055 0034 B020C3E1 		strh	r2, [r3, #0]	@ movhi
 1056 0038 14309FE5 		ldr	r3, .L87+8
 1057 003c B020D3E1 		ldrh	r2, [r3, #0]
 1058 0040 012082E2 		add	r2, r2, #1
 1059 0044 B020C3E1 		strh	r2, [r3, #0]	@ movhi
 1060 0048 1EFF2FE1 		bx	lr
 1061              	.L88:
 1062              		.align	2
 1063              	.L87:
 1064 004c 00000000 		.word	.LANCHOR12
 1065 0050 00000000 		.word	stage_time
 1066 0054 00000000 		.word	block_time
 1068              		.global	__aeabi_i2f
 1069              		.section	.text.nav_move_waypoint,"ax",%progbits
 1070              		.align	2
 1071              		.global	nav_move_waypoint
 1073              	nav_move_waypoint:
 1074              		@ Function supports interworking.
 1075              		@ args = 0, pretend = 0, frame = 0
 1076              		@ frame_needed = 0, uses_anonymous_args = 0
 1077 0000 010050E3 		cmp	r0, #1
 1078 0004 F0472DE9 		stmfd	sp!, {r4, r5, r6, r7, r8, r9, sl, lr}
 1079 0008 0040A0E1 		mov	r4, r0
 1080 000c 0160A0E1 		mov	r6, r1
 1081 0010 0250A0E1 		mov	r5, r2
 1082 0014 0380A0E1 		mov	r8, r3
 1083 0018 3900008A 		bhi	.L89
 1084 001c E8309FE5 		ldr	r3, .L95
 1085 0020 000093E5 		ldr	r0, [r3, #0]
 1086 0024 FEFFFFEB 		bl	__aeabi_i2f
 1087 0028 E0A09FE5 		ldr	sl, .L95+4
 1088 002c 0C709AE5 		ldr	r7, [sl, #12]	@ float
 1089 0030 0010A0E1 		mov	r1, r0
 1090 0034 0600A0E1 		mov	r0, r6
 1091 0038 FEFFFFEB 		bl	__aeabi_fsub
 1092 003c 0710A0E1 		mov	r1, r7
 1093 0040 FEFFFFEB 		bl	__aeabi_fsub
 1094 0044 C8309FE5 		ldr	r3, .L95+8
 1095 0048 0090A0E1 		mov	r9, r0
 1096 004c 000093E5 		ldr	r0, [r3, #0]
 1097 0050 FEFFFFEB 		bl	__aeabi_i2f
 1098 0054 0010A0E1 		mov	r1, r0
 1099 0058 0500A0E1 		mov	r0, r5
 1100 005c FEFFFFEB 		bl	__aeabi_fsub
 1101 0060 10109AE5 		ldr	r1, [sl, #16]	@ float
 1102 0064 FEFFFFEB 		bl	__aeabi_fsub
 1103 0068 A8309FE5 		ldr	r3, .L95+12
 1104 006c 005093E5 		ldr	r5, [r3, #0]	@ float
 1105 0070 00A0A0E1 		mov	sl, r0
 1106 0074 0510A0E1 		mov	r1, r5
 1107 0078 0900A0E1 		mov	r0, r9
 1108 007c FEFFFFEB 		bl	__aeabi_fcmpgt
 1109 0080 000050E3 		cmp	r0, #0
 1110 0084 0560A011 		movne	r6, r5
 1111 0088 0500001A 		bne	.L91
 1112 008c 026185E2 		add	r6, r5, #-2147483648
 1113 0090 0610A0E1 		mov	r1, r6
 1114 0094 0900A0E1 		mov	r0, r9
 1115 0098 FEFFFFEB 		bl	__aeabi_fcmplt
 1116 009c 000050E3 		cmp	r0, #0
 1117 00a0 0960A001 		moveq	r6, r9
 1118              	.L91:
 1119 00a4 0A00A0E1 		mov	r0, sl
 1120 00a8 0510A0E1 		mov	r1, r5
 1121 00ac FEFFFFEB 		bl	__aeabi_fcmpgt
 1122 00b0 000050E3 		cmp	r0, #0
 1123 00b4 0500001A 		bne	.L92
 1124 00b8 025185E2 		add	r5, r5, #-2147483648
 1125 00bc 0510A0E1 		mov	r1, r5
 1126 00c0 0A00A0E1 		mov	r0, sl
 1127 00c4 FEFFFFEB 		bl	__aeabi_fcmplt
 1128 00c8 000050E3 		cmp	r0, #0
 1129 00cc 0A50A001 		moveq	r5, sl
 1130              	.L92:
 1131 00d0 0C30A0E3 		mov	r3, #12
 1132 00d4 0610A0E1 		mov	r1, r6
 1133 00d8 0700A0E1 		mov	r0, r7
 1134 00dc 930404E0 		mul	r4, r3, r4
 1135 00e0 FEFFFFEB 		bl	__aeabi_fadd
 1136 00e4 24A09FE5 		ldr	sl, .L95+4
 1137 00e8 0510A0E1 		mov	r1, r5
 1138 00ec 04008AE7 		str	r0, [sl, r4]	@ float
 1139 00f0 10009AE5 		ldr	r0, [sl, #16]	@ float
 1140 00f4 FEFFFFEB 		bl	__aeabi_fadd
 1141 00f8 04908AE0 		add	r9, sl, r4
 1142 00fc 040089E5 		str	r0, [r9, #4]	@ float
 1143 0100 088089E5 		str	r8, [r9, #8]	@ float
 1144              	.L89:
 1145 0104 F047BDE8 		ldmfd	sp!, {r4, r5, r6, r7, r8, r9, sl, lr}
 1146 0108 1EFF2FE1 		bx	lr
 1147              	.L96:
 1148              		.align	2
 1149              	.L95:
 1150 010c 00000000 		.word	.LANCHOR9
 1151 0110 00000000 		.word	.LANCHOR7
 1152 0114 00000000 		.word	.LANCHOR10
 1153 0118 00000000 		.word	.LANCHOR13
 1155              		.section	.text.nav_home,"ax",%progbits
 1156              		.align	2
 1157              		.global	nav_home
 1159              	nav_home:
 1160              		@ Function supports interworking.
 1161              		@ args = 0, pretend = 0, frame = 0
 1162              		@ frame_needed = 0, uses_anonymous_args = 0
 1163 0000 08402DE9 		stmfd	sp!, {r3, lr}
 1164 0004 58309FE5 		ldr	r3, .L98
 1165 0008 58209FE5 		ldr	r2, .L98+4
 1166 000c 0C0093E5 		ldr	r0, [r3, #12]	@ float
 1167 0010 101093E5 		ldr	r1, [r3, #16]	@ float
 1168 0014 FEFFFFEB 		bl	nav_circle_XY
 1169 0018 4C309FE5 		ldr	r3, .L98+8
 1170 001c 0020A0E3 		mov	r2, #0
 1171 0020 002083E5 		str	r2, [r3, #0]	@ float
 1172 0024 44309FE5 		ldr	r3, .L98+12
 1173 0028 0320A0E3 		mov	r2, #3
 1174 002c 0020C3E5 		strb	r2, [r3, #0]
 1175 0030 3C309FE5 		ldr	r3, .L98+16
 1176 0034 3C109FE5 		ldr	r1, .L98+20
 1177 0038 000093E5 		ldr	r0, [r3, #0]	@ float
 1178 003c FEFFFFEB 		bl	__aeabi_fadd
 1179 0040 34309FE5 		ldr	r3, .L98+24
 1180 0044 000083E5 		str	r0, [r3, #0]	@ float
 1181 0048 FEFFFFEB 		bl	compute_dist2_to_home
 1182 004c 2C309FE5 		ldr	r3, .L98+28
 1183 0050 002093E5 		ldr	r2, [r3, #0]	@ float
 1184 0054 28309FE5 		ldr	r3, .L98+32
 1185 0058 002083E5 		str	r2, [r3, #0]	@ float
 1186 005c 0840BDE8 		ldmfd	sp!, {r3, lr}
 1187 0060 FEFFFFEA 		b	nav_set_altitude
 1188              	.L99:
 1189              		.align	2
 1190              	.L98:
 1191 0064 00000000 		.word	.LANCHOR7
 1192 0068 0000C842 		.word	1120403456
 1193 006c 00000000 		.word	nav_pitch
 1194 0070 00000000 		.word	v_ctl_mode
 1195 0074 00000000 		.word	ground_alt
 1196 0078 00004842 		.word	1112014848
 1197 007c 00000000 		.word	.LANCHOR0
 1198 0080 00000000 		.word	dist2_to_home
 1199 0084 00000000 		.word	dist2_to_wp
 1201              		.section	.text.nav_periodic_task,"ax",%progbits
 1202              		.align	2
 1203              		.global	nav_periodic_task
 1205              	nav_periodic_task:
 1206              		@ Function supports interworking.
 1207              		@ args = 0, pretend = 0, frame = 0
 1208              		@ frame_needed = 0, uses_anonymous_args = 0
 1209 0000 08402DE9 		stmfd	sp!, {r3, lr}
 1210 0004 38359FE5 		ldr	r3, .L222
 1211 0008 0020A0E3 		mov	r2, #0
 1212 000c 0020C3E5 		strb	r2, [r3, #0]
 1213 0010 FEFFFFEB 		bl	compute_dist2_to_home
 1214 0014 2C359FE5 		ldr	r3, .L222+4
 1215 0018 0020A0E3 		mov	r2, #0
 1216 001c 002083E5 		str	r2, [r3, #0]	@ float
 1217 0020 24359FE5 		ldr	r3, .L222+8
 1218 0024 0020D3E5 		ldrb	r2, [r3, #0]	@ zero_extendqisi2
 1219 0028 130052E3 		cmp	r2, #19
 1220 002c 02F19F97 		ldrls	pc, [pc, r2, asl #2]
 1221 0030 330100EA 		b	.L101
 1222              	.L122:
 1223 0034 84000000 		.word	.L102
 1224 0038 34010000 		.word	.L103
 1225 003c 60010000 		.word	.L104
 1226 0040 8C010000 		.word	.L105
 1227 0044 B8010000 		.word	.L106
 1228 0048 E4010000 		.word	.L107
 1229 004c 10020000 		.word	.L108
 1230 0050 3C020000 		.word	.L109
 1231 0054 68020000 		.word	.L110
 1232 0058 94020000 		.word	.L111
 1233 005c C0020000 		.word	.L112
 1234 0060 EC020000 		.word	.L113
 1235 0064 18030000 		.word	.L114
 1236 0068 44030000 		.word	.L115
 1237 006c 70030000 		.word	.L116
 1238 0070 9C030000 		.word	.L117
 1239 0074 C8030000 		.word	.L118
 1240 0078 F4030000 		.word	.L119
 1241 007c 3C040000 		.word	.L120
 1242 0080 D8040000 		.word	.L121
 1243              	.L102:
 1244 0084 C4249FE5 		ldr	r2, .L222+12
 1245 0088 0010D2E5 		ldrb	r1, [r2, #0]	@ zero_extendqisi2
 1246 008c 070051E3 		cmp	r1, #7
 1247 0090 01F19F97 		ldrls	pc, [pc, r1, asl #2]
 1248 0094 220000EA 		b	.L123
 1249              	.L131:
 1250 0098 B8000000 		.word	.L124
 1251 009c C8000000 		.word	.L125
 1252 00a0 D8000000 		.word	.L126
 1253 00a4 E8000000 		.word	.L127
 1254 00a8 F8000000 		.word	.L128
 1255 00ac 08010000 		.word	.L129
 1256 00b0 1C010000 		.word	.L130
 1257 00b4 1C010000 		.word	.L130
 1258              	.L124:
 1259 00b8 94149FE5 		ldr	r1, .L222+16
 1260 00bc 0130A0E3 		mov	r3, #1
 1261 00c0 0030C1E5 		strb	r3, [r1, #0]
 1262 00c4 FC0000EA 		b	.L213
 1263              	.L125:
 1264 00c8 88349FE5 		ldr	r3, .L222+20
 1265 00cc 0010A0E3 		mov	r1, #0
 1266 00d0 0010C3E5 		strb	r1, [r3, #0]
 1267 00d4 EB0000EA 		b	.L219
 1268              	.L126:
 1269 00d8 7C349FE5 		ldr	r3, .L222+24
 1270 00dc 0010A0E3 		mov	r1, #0
 1271 00e0 B810C3E1 		strh	r1, [r3, #8]	@ movhi
 1272 00e4 EC0000EA 		b	.L220
 1273              	.L127:
 1274 00e8 6C349FE5 		ldr	r3, .L222+24
 1275 00ec 0010A0E3 		mov	r1, #0
 1276 00f0 BA10C3E1 		strh	r1, [r3, #10]	@ movhi
 1277 00f4 ED0000EA 		b	.L221
 1278              	.L128:
 1279 00f8 5C349FE5 		ldr	r3, .L222+24
 1280 00fc 0010A0E3 		mov	r1, #0
 1281 0100 BC10C3E1 		strh	r1, [r3, #12]	@ movhi
 1282 0104 EB0000EA 		b	.L188
 1283              	.L129:
 1284 0108 4C349FE5 		ldr	r3, .L222+24
 1285 010c 0010A0E3 		mov	r1, #0
 1286 0110 BE10C3E1 		strh	r1, [r3, #14]	@ movhi
 1287 0114 0630A0E3 		mov	r3, #6
 1288 0118 E70000EA 		b	.L213
 1289              	.L130:
 1290 011c 0730A0E3 		mov	r3, #7
 1291 0120 E50000EA 		b	.L213
 1292              	.L123:
 1293 0124 0810A0E3 		mov	r1, #8
 1294 0128 0010C2E5 		strb	r1, [r2, #0]
 1295 012c 0120A0E3 		mov	r2, #1
 1296 0130 F10000EA 		b	.L214
 1297              	.L103:
 1298 0134 14349FE5 		ldr	r3, .L222+12
 1299 0138 0020D3E5 		ldrb	r2, [r3, #0]	@ zero_extendqisi2
 1300 013c 000052E3 		cmp	r2, #0
 1301 0140 961DA003 		moveq	r1, #9600
 1302 0144 B500000A 		beq	.L218
 1303 0148 020052E3 		cmp	r2, #2
 1304 014c 0310A083 		movhi	r1, #3
 1305 0150 0220A0E3 		mov	r2, #2
 1306 0154 0010C385 		strhib	r1, [r3, #0]
 1307 0158 0900008A 		bhi	.L217
 1308 015c B40000EA 		b	.L216
 1309              	.L134:
 1310              	.L132:
 1311              	.L104:
 1312 0160 E8339FE5 		ldr	r3, .L222+12
 1313 0164 0020D3E5 		ldrb	r2, [r3, #0]	@ zero_extendqisi2
 1314 0168 000052E3 		cmp	r2, #0
 1315 016c 1E1EA003 		moveq	r1, #480
 1316 0170 AA00000A 		beq	.L218
 1317 0174 020052E3 		cmp	r2, #2
 1318 0178 0320A083 		movhi	r2, #3
 1319 017c 0020C385 		strhib	r2, [r3, #0]
 1320 0180 AA00009A 		bls	.L211
 1321              	.L137:
 1322              	.L135:
 1323              	.L217:
 1324 0184 C0339FE5 		ldr	r3, .L222+8
 1325 0188 DB0000EA 		b	.L214
 1326              	.L105:
 1327 018c BC339FE5 		ldr	r3, .L222+12
 1328 0190 0020D3E5 		ldrb	r2, [r3, #0]	@ zero_extendqisi2
 1329 0194 000052E3 		cmp	r2, #0
 1330 0198 0F1DA003 		moveq	r1, #960
 1331 019c 9F00000A 		beq	.L218
 1332 01a0 020052E3 		cmp	r2, #2
 1333 01a4 0320A083 		movhi	r2, #3
 1334 01a8 0020C385 		strhib	r2, [r3, #0]
 1335 01ac 0420A083 		movhi	r2, #4
 1336 01b0 F3FFFF8A 		bhi	.L217
 1337 01b4 9D0000EA 		b	.L211
 1338              	.L140:
 1339              	.L138:
 1340              	.L106:
 1341 01b8 90339FE5 		ldr	r3, .L222+12
 1342 01bc 0020D3E5 		ldrb	r2, [r3, #0]	@ zero_extendqisi2
 1343 01c0 000052E3 		cmp	r2, #0
 1344 01c4 5A1EA003 		moveq	r1, #1440
 1345 01c8 9400000A 		beq	.L218
 1346 01cc 020052E3 		cmp	r2, #2
 1347 01d0 0320A083 		movhi	r2, #3
 1348 01d4 0020C385 		strhib	r2, [r3, #0]
 1349 01d8 0520A083 		movhi	r2, #5
 1350 01dc E8FFFF8A 		bhi	.L217
 1351 01e0 920000EA 		b	.L211
 1352              	.L143:
 1353              	.L141:
 1354              	.L107:
 1355 01e4 64339FE5 		ldr	r3, .L222+12
 1356 01e8 0020D3E5 		ldrb	r2, [r3, #0]	@ zero_extendqisi2
 1357 01ec 000052E3 		cmp	r2, #0
 1358 01f0 1E1DA003 		moveq	r1, #1920
 1359 01f4 8900000A 		beq	.L218
 1360 01f8 020052E3 		cmp	r2, #2
 1361 01fc 0320A083 		movhi	r2, #3
 1362 0200 0020C385 		strhib	r2, [r3, #0]
 1363 0204 0620A083 		movhi	r2, #6
 1364 0208 DDFFFF8A 		bhi	.L217
 1365 020c 870000EA 		b	.L211
 1366              	.L146:
 1367              	.L144:
 1368              	.L108:
 1369 0210 38339FE5 		ldr	r3, .L222+12
 1370 0214 0020D3E5 		ldrb	r2, [r3, #0]	@ zero_extendqisi2
 1371 0218 000052E3 		cmp	r2, #0
 1372 021c 961EA003 		moveq	r1, #2400
 1373 0220 7E00000A 		beq	.L218
 1374 0224 020052E3 		cmp	r2, #2
 1375 0228 0320A083 		movhi	r2, #3
 1376 022c 0020C385 		strhib	r2, [r3, #0]
 1377 0230 0720A083 		movhi	r2, #7
 1378 0234 D2FFFF8A 		bhi	.L217
 1379 0238 7C0000EA 		b	.L211
 1380              	.L149:
 1381              	.L147:
 1382              	.L109:
 1383 023c 0C339FE5 		ldr	r3, .L222+12
 1384 0240 0020D3E5 		ldrb	r2, [r3, #0]	@ zero_extendqisi2
 1385 0244 000052E3 		cmp	r2, #0
 1386 0248 2D1DA003 		moveq	r1, #2880
 1387 024c 7300000A 		beq	.L218
 1388 0250 020052E3 		cmp	r2, #2
 1389 0254 0320A083 		movhi	r2, #3
 1390 0258 0020C385 		strhib	r2, [r3, #0]
 1391 025c 0820A083 		movhi	r2, #8
 1392 0260 C7FFFF8A 		bhi	.L217
 1393 0264 710000EA 		b	.L211
 1394              	.L152:
 1395              	.L150:
 1396              	.L110:
 1397 0268 E0329FE5 		ldr	r3, .L222+12
 1398 026c 0020D3E5 		ldrb	r2, [r3, #0]	@ zero_extendqisi2
 1399 0270 000052E3 		cmp	r2, #0
 1400 0274 D21EA003 		moveq	r1, #3360
 1401 0278 6800000A 		beq	.L218
 1402 027c 020052E3 		cmp	r2, #2
 1403 0280 0320A083 		movhi	r2, #3
 1404 0284 0020C385 		strhib	r2, [r3, #0]
 1405 0288 0920A083 		movhi	r2, #9
 1406 028c BCFFFF8A 		bhi	.L217
 1407 0290 660000EA 		b	.L211
 1408              	.L155:
 1409              	.L153:
 1410              	.L111:
 1411 0294 B4329FE5 		ldr	r3, .L222+12
 1412 0298 0020D3E5 		ldrb	r2, [r3, #0]	@ zero_extendqisi2
 1413 029c 000052E3 		cmp	r2, #0
 1414 02a0 0F1CA003 		moveq	r1, #3840
 1415 02a4 5D00000A 		beq	.L218
 1416 02a8 020052E3 		cmp	r2, #2
 1417 02ac 0320A083 		movhi	r2, #3
 1418 02b0 0020C385 		strhib	r2, [r3, #0]
 1419 02b4 0A20A083 		movhi	r2, #10
 1420 02b8 B1FFFF8A 		bhi	.L217
 1421 02bc 5B0000EA 		b	.L211
 1422              	.L158:
 1423              	.L156:
 1424              	.L112:
 1425 02c0 88329FE5 		ldr	r3, .L222+12
 1426 02c4 0020D3E5 		ldrb	r2, [r3, #0]	@ zero_extendqisi2
 1427 02c8 000052E3 		cmp	r2, #0
 1428 02cc 8C129F05 		ldreq	r1, .L222+28
 1429 02d0 5200000A 		beq	.L218
 1430 02d4 020052E3 		cmp	r2, #2
 1431 02d8 0320A083 		movhi	r2, #3
 1432 02dc 0020C385 		strhib	r2, [r3, #0]
 1433 02e0 0B20A083 		movhi	r2, #11
 1434 02e4 A6FFFF8A 		bhi	.L217
 1435 02e8 500000EA 		b	.L211
 1436              	.L161:
 1437              	.L159:
 1438              	.L113:
 1439 02ec 5C329FE5 		ldr	r3, .L222+12
 1440 02f0 0020D3E5 		ldrb	r2, [r3, #0]	@ zero_extendqisi2
 1441 02f4 000052E3 		cmp	r2, #0
 1442 02f8 4B1DA003 		moveq	r1, #4800
 1443 02fc 4700000A 		beq	.L218
 1444 0300 020052E3 		cmp	r2, #2
 1445 0304 0320A083 		movhi	r2, #3
 1446 0308 0020C385 		strhib	r2, [r3, #0]
 1447 030c 0C20A083 		movhi	r2, #12
 1448 0310 9BFFFF8A 		bhi	.L217
 1449 0314 450000EA 		b	.L211
 1450              	.L164:
 1451              	.L162:
 1452              	.L114:
 1453 0318 30329FE5 		ldr	r3, .L222+12
 1454 031c 0020D3E5 		ldrb	r2, [r3, #0]	@ zero_extendqisi2
 1455 0320 000052E3 		cmp	r2, #0
 1456 0324 38129F05 		ldreq	r1, .L222+32
 1457 0328 3C00000A 		beq	.L218
 1458 032c 020052E3 		cmp	r2, #2
 1459 0330 0320A083 		movhi	r2, #3
 1460 0334 0020C385 		strhib	r2, [r3, #0]
 1461 0338 0D20A083 		movhi	r2, #13
 1462 033c 90FFFF8A 		bhi	.L217
 1463 0340 3A0000EA 		b	.L211
 1464              	.L167:
 1465              	.L165:
 1466              	.L115:
 1467 0344 04329FE5 		ldr	r3, .L222+12
 1468 0348 0020D3E5 		ldrb	r2, [r3, #0]	@ zero_extendqisi2
 1469 034c 000052E3 		cmp	r2, #0
 1470 0350 5A1DA003 		moveq	r1, #5760
 1471 0354 3100000A 		beq	.L218
 1472 0358 020052E3 		cmp	r2, #2
 1473 035c 0320A083 		movhi	r2, #3
 1474 0360 0020C385 		strhib	r2, [r3, #0]
 1475 0364 0E20A083 		movhi	r2, #14
 1476 0368 85FFFF8A 		bhi	.L217
 1477 036c 2F0000EA 		b	.L211
 1478              	.L170:
 1479              	.L168:
 1480              	.L116:
 1481 0370 D8319FE5 		ldr	r3, .L222+12
 1482 0374 0020D3E5 		ldrb	r2, [r3, #0]	@ zero_extendqisi2
 1483 0378 000052E3 		cmp	r2, #0
 1484 037c E4119F05 		ldreq	r1, .L222+36
 1485 0380 2600000A 		beq	.L218
 1486 0384 020052E3 		cmp	r2, #2
 1487 0388 0320A083 		movhi	r2, #3
 1488 038c 0020C385 		strhib	r2, [r3, #0]
 1489 0390 0F20A083 		movhi	r2, #15
 1490 0394 7AFFFF8A 		bhi	.L217
 1491 0398 240000EA 		b	.L211
 1492              	.L173:
 1493              	.L171:
 1494              	.L117:
 1495 039c AC319FE5 		ldr	r3, .L222+12
 1496 03a0 0020D3E5 		ldrb	r2, [r3, #0]	@ zero_extendqisi2
 1497 03a4 000052E3 		cmp	r2, #0
 1498 03a8 691DA003 		moveq	r1, #6720
 1499 03ac 1B00000A 		beq	.L218
 1500 03b0 020052E3 		cmp	r2, #2
 1501 03b4 0320A083 		movhi	r2, #3
 1502 03b8 0020C385 		strhib	r2, [r3, #0]
 1503 03bc 1020A083 		movhi	r2, #16
 1504 03c0 6FFFFF8A 		bhi	.L217
 1505 03c4 190000EA 		b	.L211
 1506              	.L176:
 1507              	.L174:
 1508              	.L118:
 1509 03c8 80319FE5 		ldr	r3, .L222+12
 1510 03cc 0020D3E5 		ldrb	r2, [r3, #0]	@ zero_extendqisi2
 1511 03d0 000052E3 		cmp	r2, #0
 1512 03d4 90119F05 		ldreq	r1, .L222+40
 1513 03d8 1000000A 		beq	.L218
 1514 03dc 020052E3 		cmp	r2, #2
 1515 03e0 0320A083 		movhi	r2, #3
 1516 03e4 0020C385 		strhib	r2, [r3, #0]
 1517 03e8 1120A083 		movhi	r2, #17
 1518 03ec 64FFFF8A 		bhi	.L217
 1519 03f0 0E0000EA 		b	.L211
 1520              	.L179:
 1521              	.L177:
 1522              	.L119:
 1523 03f4 54319FE5 		ldr	r3, .L222+12
 1524 03f8 0020D3E5 		ldrb	r2, [r3, #0]	@ zero_extendqisi2
 1525 03fc 000052E3 		cmp	r2, #0
 1526 0400 1E1CA003 		moveq	r1, #7680
 1527 0404 0500000A 		beq	.L218
 1528 0408 020052E3 		cmp	r2, #2
 1529 040c 0320A083 		movhi	r2, #3
 1530 0410 0020C385 		strhib	r2, [r3, #0]
 1531 0414 1220A083 		movhi	r2, #18
 1532 0418 59FFFF8A 		bhi	.L217
 1533 041c 030000EA 		b	.L211
 1534              	.L218:
 1535 0420 34219FE5 		ldr	r2, .L222+24
 1536 0424 B810C2E1 		strh	r1, [r2, #8]	@ movhi
 1537 0428 0120A0E3 		mov	r2, #1
 1538 042c 000000EA 		b	.L216
 1539              	.L211:
 1540              	.L182:
 1541 0430 0220A0E3 		mov	r2, #2
 1542              	.L216:
 1543 0434 0020C3E5 		strb	r2, [r3, #0]
 1544 0438 200000EA 		b	.L215
 1545              	.L180:
 1546              	.L120:
 1547 043c 0C219FE5 		ldr	r2, .L222+12
 1548 0440 0010D2E5 		ldrb	r1, [r2, #0]	@ zero_extendqisi2
 1549 0444 050051E3 		cmp	r1, #5
 1550 0448 01F19F97 		ldrls	pc, [pc, r1, asl #2]
 1551 044c 1D0000EA 		b	.L183
 1552              	.L189:
 1553 0450 68040000 		.word	.L184
 1554 0454 7C040000 		.word	.L185
 1555 0458 90040000 		.word	.L186
 1556 045c A4040000 		.word	.L187
 1557 0460 B8040000 		.word	.L188
 1558 0464 B8040000 		.word	.L188
 1559              	.L184:
 1560 0468 EC309FE5 		ldr	r3, .L222+24
 1561 046c 0010A0E3 		mov	r1, #0
 1562 0470 B810C3E1 		strh	r1, [r3, #8]	@ movhi
 1563 0474 0130A0E3 		mov	r3, #1
 1564 0478 0F0000EA 		b	.L213
 1565              	.L185:
 1566 047c D8309FE5 		ldr	r3, .L222+24
 1567 0480 0010A0E3 		mov	r1, #0
 1568 0484 BA10C3E1 		strh	r1, [r3, #10]	@ movhi
 1569              	.L219:
 1570 0488 0230A0E3 		mov	r3, #2
 1571 048c 0A0000EA 		b	.L213
 1572              	.L186:
 1573 0490 C4309FE5 		ldr	r3, .L222+24
 1574 0494 0010A0E3 		mov	r1, #0
 1575 0498 BC10C3E1 		strh	r1, [r3, #12]	@ movhi
 1576              	.L220:
 1577 049c 0330A0E3 		mov	r3, #3
 1578 04a0 050000EA 		b	.L213
 1579              	.L187:
 1580 04a4 B0309FE5 		ldr	r3, .L222+24
 1581 04a8 0010A0E3 		mov	r1, #0
 1582 04ac B810C3E1 		strh	r1, [r3, #8]	@ movhi
 1583              	.L221:
 1584 04b0 0430A0E3 		mov	r3, #4
 1585 04b4 000000EA 		b	.L213
 1586              	.L188:
 1587 04b8 0530A0E3 		mov	r3, #5
 1588              	.L213:
 1589 04bc 0030C2E5 		strb	r3, [r2, #0]
 1590              	.L215:
 1591 04c0 FEFFFFEB 		bl	nav_init_stage
 1592 04c4 0E0000EA 		b	.L101
 1593              	.L183:
 1594 04c8 0610A0E3 		mov	r1, #6
 1595 04cc 0010C2E5 		strb	r1, [r2, #0]
 1596 04d0 1320A0E3 		mov	r2, #19
 1597 04d4 080000EA 		b	.L214
 1598              	.L121:
 1599 04d8 70209FE5 		ldr	r2, .L222+12
 1600 04dc 0010D2E5 		ldrb	r1, [r2, #0]	@ zero_extendqisi2
 1601 04e0 000051E3 		cmp	r1, #0
 1602 04e4 0110A013 		movne	r1, #1
 1603 04e8 0010C215 		strneb	r1, [r2, #0]
 1604 04ec 1420A013 		movne	r2, #20
 1605 04f0 0100001A 		bne	.L214
 1606 04f4 FEFFFFEB 		bl	nav_home
 1607 04f8 010000EA 		b	.L101
 1608              	.L214:
 1609 04fc 0020C3E5 		strb	r2, [r3, #0]
 1610 0500 FEFFFFEB 		bl	nav_init_block
 1611              	.L101:
 1612 0504 64309FE5 		ldr	r3, .L222+44
 1613 0508 0030D3E5 		ldrb	r3, [r3, #0]	@ zero_extendqisi2
 1614 050c 000053E3 		cmp	r3, #0
 1615 0510 5C309F15 		ldrne	r3, .L222+48
 1616 0514 5C209FE5 		ldr	r2, .L222+52
 1617 0518 00309315 		ldrne	r3, [r3, #0]	@ float
 1618 051c 0030A003 		moveq	r3, #0
 1619 0520 003082E5 		str	r3, [r2, #0]	@ float
 1620 0524 50309FE5 		ldr	r3, .L222+56
 1621 0528 0030D3E5 		ldrb	r3, [r3, #0]	@ zero_extendqisi2
 1622 052c 020053E3 		cmp	r3, #2
 1623 0530 48309F05 		ldreq	r3, .L222+60
 1624 0534 0020A003 		moveq	r2, #0
 1625 0538 0020C305 		streqb	r2, [r3, #0]
 1626 053c 0840BDE8 		ldmfd	sp!, {r3, lr}
 1627 0540 FEFFFFEA 		b	nav_set_altitude
 1628              	.L223:
 1629              		.align	2
 1630              	.L222:
 1631 0544 00000000 		.word	nav_survey_active
 1632 0548 00000000 		.word	dist2_to_wp
 1633 054c 00000000 		.word	nav_block
 1634 0550 00000000 		.word	nav_stage
 1635 0554 00000000 		.word	launch
 1636 0558 00000000 		.word	fbw_mode
 1637 055c 00000000 		.word	radio_control
 1638 0560 E0100000 		.word	4320
 1639 0564 A0140000 		.word	5280
 1640 0568 60180000 		.word	6240
 1641 056c 201C0000 		.word	7200
 1642 0570 00000000 		.word	.LANCHOR2
 1643 0574 00000000 		.word	.LANCHOR4
 1644 0578 00000000 		.word	h_ctl_course_pre_bank
 1645 057c 00000000 		.word	v_ctl_mode
 1646 0580 00000000 		.word	v_ctl_auto_throttle_submode
 1648              		.section	.text.nav_init,"ax",%progbits
 1649              		.align	2
 1650              		.global	nav_init
 1652              	nav_init:
 1653              		@ Function supports interworking.
 1654              		@ args = 0, pretend = 0, frame = 0
 1655              		@ frame_needed = 0, uses_anonymous_args = 0
 1656              		@ link register save eliminated.
 1657 0000 48209FE5 		ldr	r2, .L225
 1658 0004 0030A0E3 		mov	r3, #0
 1659 0008 0030C2E5 		strb	r3, [r2, #0]
 1660 000c 40209FE5 		ldr	r2, .L225+4
 1661 0010 0030C2E5 		strb	r3, [r2, #0]
 1662 0014 3C209FE5 		ldr	r2, .L225+8
 1663 0018 0030A0E3 		mov	r3, #0
 1664 001c 003082E5 		str	r3, [r2, #0]	@ float
 1665 0020 34209FE5 		ldr	r2, .L225+12
 1666 0024 003082E5 		str	r3, [r2, #0]	@ float
 1667 0028 30209FE5 		ldr	r2, .L225+16
 1668 002c 30309FE5 		ldr	r3, .L225+20
 1669 0030 002083E5 		str	r2, [r3, #0]	@ float
 1670 0034 2C209FE5 		ldr	r2, .L225+24
 1671 0038 2C309FE5 		ldr	r3, .L225+28
 1672 003c 002083E5 		str	r2, [r3, #0]	@ float
 1673 0040 28309FE5 		ldr	r3, .L225+32
 1674 0044 0220A0E3 		mov	r2, #2
 1675 0048 002083E5 		str	r2, [r3, #0]
 1676 004c 1EFF2FE1 		bx	lr
 1677              	.L226:
 1678              		.align	2
 1679              	.L225:
 1680 0050 00000000 		.word	nav_block
 1681 0054 00000000 		.word	nav_stage
 1682 0058 00000000 		.word	ground_alt
 1683 005c 00000000 		.word	nav_glide_pitch_trim
 1684 0060 0000C842 		.word	1120403456
 1685 0064 00000000 		.word	nav_radius
 1686 0068 00004843 		.word	1128792064
 1687 006c 00000000 		.word	nav_survey_shift
 1688 0070 00000000 		.word	nav_mode
 1690              		.section	.text.nav_without_gps,"ax",%progbits
 1691              		.align	2
 1692              		.global	nav_without_gps
 1694              	nav_without_gps:
 1695              		@ Function supports interworking.
 1696              		@ args = 0, pretend = 0, frame = 0
 1697              		@ frame_needed = 0, uses_anonymous_args = 0
 1698              		@ link register save eliminated.
 1699 0000 34309FE5 		ldr	r3, .L228
 1700 0004 0220A0E3 		mov	r2, #2
 1701 0008 0020C3E5 		strb	r2, [r3, #0]
 1702 000c 2C309FE5 		ldr	r3, .L228+4
 1703 0010 0120A0E3 		mov	r2, #1
 1704 0014 0020C3E5 		strb	r2, [r3, #0]
 1705 0018 24209FE5 		ldr	r2, .L228+8
 1706 001c 0030A0E3 		mov	r3, #0
 1707 0020 003082E5 		str	r3, [r2, #0]	@ float
 1708 0024 1C209FE5 		ldr	r2, .L228+12
 1709 0028 003082E5 		str	r3, [r2, #0]	@ float
 1710 002c 18309FE5 		ldr	r3, .L228+16
 1711 0030 0F2CA0E3 		mov	r2, #3840
 1712 0034 B020C3E1 		strh	r2, [r3, #0]	@ movhi
 1713 0038 1EFF2FE1 		bx	lr
 1714              	.L229:
 1715              		.align	2
 1716              	.L228:
 1717 003c 00000000 		.word	lateral_mode
 1718 0040 00000000 		.word	v_ctl_mode
 1719 0044 00000000 		.word	h_ctl_roll_setpoint
 1720 0048 00000000 		.word	nav_pitch
 1721 004c 00000000 		.word	nav_throttle_setpoint
 1723              		.section	.text.nav_eight_init,"ax",%progbits
 1724              		.align	2
 1725              		.global	nav_eight_init
 1727              	nav_eight_init:
 1728              		@ Function supports interworking.
 1729              		@ args = 0, pretend = 0, frame = 0
 1730              		@ frame_needed = 0, uses_anonymous_args = 0
 1731              		@ link register save eliminated.
 1732 0000 08309FE5 		ldr	r3, .L231
 1733 0004 0520A0E3 		mov	r2, #5
 1734 0008 0020C3E5 		strb	r2, [r3, #0]
 1735 000c 1EFF2FE1 		bx	lr
 1736              	.L232:
 1737              		.align	2
 1738              	.L231:
 1739 0010 00000000 		.word	.LANCHOR14
 1741              		.global	__aeabi_fcmpge
 1742              		.section	.text.nav_eight,"ax",%progbits
 1743              		.align	2
 1744              		.global	nav_eight
 1746              	nav_eight:
 1747              		@ Function supports interworking.
 1748              		@ args = 0, pretend = 0, frame = 40
 1749              		@ frame_needed = 0, uses_anonymous_args = 0
 1750 0000 F04F2DE9 		stmfd	sp!, {r4, r5, r6, r7, r8, r9, sl, fp, lr}
 1751 0004 34D04DE2 		sub	sp, sp, #52
 1752 0008 10108DE5 		str	r1, [sp, #16]
 1753 000c 0271C2E3 		bic	r7, r2, #-2147483648
 1754 0010 0C10A0E3 		mov	r1, #12
 1755 0014 0240A0E1 		mov	r4, r2
 1756 0018 0020A0E1 		mov	r2, r0
 1757 001c 910202E0 		mul	r2, r1, r2
 1758 0020 10C09DE5 		ldr	ip, [sp, #16]
 1759 0024 9C0101E0 		mul	r1, ip, r1
 1760 0028 70379FE5 		ldr	r3, .L299
 1761 002c 025083E0 		add	r5, r3, r2
 1762 0030 0C008DE5 		str	r0, [sp, #12]
 1763 0034 080095E5 		ldr	r0, [r5, #8]	@ float
 1764 0038 016083E0 		add	r6, r3, r1
 1765 003c 080086E5 		str	r0, [r6, #8]	@ float
 1766 0040 010093E7 		ldr	r0, [r3, r1]	@ float
 1767 0044 021093E7 		ldr	r1, [r3, r2]	@ float
 1768 0048 FEFFFFEB 		bl	__aeabi_fsub
 1769 004c 041095E5 		ldr	r1, [r5, #4]	@ float
 1770 0050 0080A0E1 		mov	r8, r0
 1771 0054 040096E5 		ldr	r0, [r6, #4]	@ float
 1772 0058 FEFFFFEB 		bl	__aeabi_fsub
 1773 005c 0810A0E1 		mov	r1, r8
 1774 0060 0060A0E1 		mov	r6, r0
 1775 0064 0800A0E1 		mov	r0, r8
 1776 0068 FEFFFFEB 		bl	__aeabi_fmul
 1777 006c 0610A0E1 		mov	r1, r6
 1778 0070 0050A0E1 		mov	r5, r0
 1779 0074 0600A0E1 		mov	r0, r6
 1780 0078 FEFFFFEB 		bl	__aeabi_fmul
 1781 007c 0010A0E1 		mov	r1, r0
 1782 0080 0500A0E1 		mov	r0, r5
 1783 0084 FEFFFFEB 		bl	__aeabi_fadd
 1784 0088 FEFFFFEB 		bl	__aeabi_f2d
 1785 008c FEFFFFEB 		bl	sqrt
 1786 0090 FEFFFFEB 		bl	__aeabi_d2f
 1787 0094 FE15A0E3 		mov	r1, #1065353216
 1788 0098 0050A0E1 		mov	r5, r0
 1789 009c FEFFFFEB 		bl	__aeabi_fcmpgt
 1790 00a0 000050E3 		cmp	r0, #0
 1791 00a4 FE55A003 		moveq	r5, #1065353216
 1792 00a8 0510A0E1 		mov	r1, r5
 1793 00ac 0800A0E1 		mov	r0, r8
 1794 00b0 FEFFFFEB 		bl	__aeabi_fdiv
 1795 00b4 0510A0E1 		mov	r1, r5
 1796 00b8 00A0A0E1 		mov	sl, r0
 1797 00bc 0600A0E1 		mov	r0, r6
 1798 00c0 FEFFFFEB 		bl	__aeabi_fdiv
 1799 00c4 0710A0E1 		mov	r1, r7
 1800 00c8 00B0A0E1 		mov	fp, r0
 1801 00cc 0700A0E1 		mov	r0, r7
 1802 00d0 FEFFFFEB 		bl	__aeabi_fadd
 1803 00d4 0060A0E1 		mov	r6, r0
 1804 00d8 0610A0E1 		mov	r1, r6
 1805 00dc 0500A0E1 		mov	r0, r5
 1806 00e0 FEFFFFEB 		bl	__aeabi_fcmpgt
 1807 00e4 000050E3 		cmp	r0, #0
 1808 00e8 1800000A 		beq	.L235
 1809 00ec 10709DE5 		ldr	r7, [sp, #16]
 1810 00f0 0C80A0E3 		mov	r8, #12
 1811 00f4 980707E0 		mul	r7, r8, r7
 1812 00f8 A0569FE5 		ldr	r5, .L299
 1813 00fc 0CC09DE5 		ldr	ip, [sp, #12]
 1814 0100 073085E0 		add	r3, r5, r7
 1815 0104 0A10A0E1 		mov	r1, sl
 1816 0108 0600A0E1 		mov	r0, r6
 1817 010c 9C0808E0 		mul	r8, ip, r8
 1818 0110 08308DE5 		str	r3, [sp, #8]
 1819 0114 FEFFFFEB 		bl	__aeabi_fmul
 1820 0118 0010A0E1 		mov	r1, r0
 1821 011c 080095E7 		ldr	r0, [r5, r8]	@ float
 1822 0120 FEFFFFEB 		bl	__aeabi_fadd
 1823 0124 0B10A0E1 		mov	r1, fp
 1824 0128 070085E7 		str	r0, [r5, r7]	@ float
 1825 012c 0600A0E1 		mov	r0, r6
 1826 0130 FEFFFFEB 		bl	__aeabi_fmul
 1827 0134 089085E0 		add	r9, r5, r8
 1828 0138 0010A0E1 		mov	r1, r0
 1829 013c 040099E5 		ldr	r0, [r9, #4]	@ float
 1830 0140 FEFFFFEB 		bl	__aeabi_fadd
 1831 0144 08309DE5 		ldr	r3, [sp, #8]
 1832 0148 040083E5 		str	r0, [r3, #4]	@ float
 1833 014c 0650A0E1 		mov	r5, r6
 1834              	.L235:
 1835 0150 0A10A0E1 		mov	r1, sl
 1836 0154 0500A0E1 		mov	r0, r5
 1837 0158 FEFFFFEB 		bl	__aeabi_fmul
 1838 015c 0C809DE5 		ldr	r8, [sp, #12]
 1839 0160 0C70A0E3 		mov	r7, #12
 1840 0164 970808E0 		mul	r8, r7, r8
 1841 0168 30669FE5 		ldr	r6, .L299
 1842 016c 0010A0E1 		mov	r1, r0
 1843 0170 080096E7 		ldr	r0, [r6, r8]	@ float
 1844 0174 FEFFFFEB 		bl	__aeabi_fsub
 1845 0178 0B10A0E1 		mov	r1, fp
 1846 017c 14008DE5 		str	r0, [sp, #20]	@ float
 1847 0180 0500A0E1 		mov	r0, r5
 1848 0184 FEFFFFEB 		bl	__aeabi_fmul
 1849 0188 089086E0 		add	r9, r6, r8
 1850 018c 0010A0E1 		mov	r1, r0
 1851 0190 040099E5 		ldr	r0, [r9, #4]	@ float
 1852 0194 FEFFFFEB 		bl	__aeabi_fsub
 1853 0198 10C09DE5 		ldr	ip, [sp, #16]
 1854 019c 18008DE5 		str	r0, [sp, #24]	@ float
 1855 01a0 02118BE2 		add	r1, fp, #-2147483648
 1856 01a4 0400A0E1 		mov	r0, r4
 1857 01a8 9C0707E0 		mul	r7, ip, r7
 1858 01ac FEFFFFEB 		bl	__aeabi_fmul
 1859 01b0 075096E7 		ldr	r5, [r6, r7]	@ float
 1860 01b4 0090A0E1 		mov	r9, r0
 1861 01b8 0910A0E1 		mov	r1, r9
 1862 01bc 0500A0E1 		mov	r0, r5
 1863 01c0 FEFFFFEB 		bl	__aeabi_fadd
 1864 01c4 0A10A0E1 		mov	r1, sl
 1865 01c8 1C008DE5 		str	r0, [sp, #28]	@ float
 1866 01cc 0400A0E1 		mov	r0, r4
 1867 01d0 FEFFFFEB 		bl	__aeabi_fmul
 1868 01d4 078086E0 		add	r8, r6, r7
 1869 01d8 046098E5 		ldr	r6, [r8, #4]	@ float
 1870 01dc 0080A0E1 		mov	r8, r0
 1871 01e0 0810A0E1 		mov	r1, r8
 1872 01e4 0600A0E1 		mov	r0, r6
 1873 01e8 FEFFFFEB 		bl	__aeabi_fadd
 1874 01ec 0B10A0E1 		mov	r1, fp
 1875 01f0 20008DE5 		str	r0, [sp, #32]	@ float
 1876 01f4 0400A0E1 		mov	r0, r4
 1877 01f8 FEFFFFEB 		bl	__aeabi_fmul
 1878 01fc 0070A0E1 		mov	r7, r0
 1879 0200 0710A0E1 		mov	r1, r7
 1880 0204 0500A0E1 		mov	r0, r5
 1881 0208 FEFFFFEB 		bl	__aeabi_fadd
 1882 020c 0810A0E1 		mov	r1, r8
 1883 0210 0050A0E1 		mov	r5, r0
 1884 0214 0600A0E1 		mov	r0, r6
 1885 0218 FEFFFFEB 		bl	__aeabi_fsub
 1886 021c 0910A0E1 		mov	r1, r9
 1887 0220 0060A0E1 		mov	r6, r0
 1888 0224 14009DE5 		ldr	r0, [sp, #20]	@ float
 1889 0228 FEFFFFEB 		bl	__aeabi_fadd
 1890 022c 0810A0E1 		mov	r1, r8
 1891 0230 0090A0E1 		mov	r9, r0
 1892 0234 18009DE5 		ldr	r0, [sp, #24]	@ float
 1893 0238 FEFFFFEB 		bl	__aeabi_fadd
 1894 023c 0710A0E1 		mov	r1, r7
 1895 0240 24008DE5 		str	r0, [sp, #36]	@ float
 1896 0244 14009DE5 		ldr	r0, [sp, #20]	@ float
 1897 0248 FEFFFFEB 		bl	__aeabi_fadd
 1898 024c 0810A0E1 		mov	r1, r8
 1899 0250 0070A0E1 		mov	r7, r0
 1900 0254 18009DE5 		ldr	r0, [sp, #24]	@ float
 1901 0258 FEFFFFEB 		bl	__aeabi_fsub
 1902 025c 0080A0E1 		mov	r8, r0
 1903 0260 0B00A0E1 		mov	r0, fp
 1904 0264 FEFFFFEB 		bl	__aeabi_f2d
 1905 0268 28008DE5 		str	r0, [sp, #40]
 1906 026c 2C108DE5 		str	r1, [sp, #44]
 1907 0270 0A00A0E1 		mov	r0, sl
 1908 0274 FEFFFFEB 		bl	__aeabi_f2d
 1909 0278 0020A0E1 		mov	r2, r0
 1910 027c 0130A0E1 		mov	r3, r1
 1911 0280 28108DE2 		add	r1, sp, #40
 1912 0284 030091E8 		ldmia	r1, {r0-r1}
 1913 0288 FEFFFFEB 		bl	atan2
 1914 028c 0020A0E1 		mov	r2, r0
 1915 0290 0130A0E1 		mov	r3, r1
 1916 0294 08059FE5 		ldr	r0, .L299+4
 1917 0298 08159FE5 		ldr	r1, .L299+8
 1918 029c FEFFFFEB 		bl	__aeabi_dsub
 1919 02a0 FEFFFFEB 		bl	__aeabi_d2f
 1920 02a4 0010A0E3 		mov	r1, #0
 1921 02a8 00A0A0E1 		mov	sl, r0
 1922 02ac 0400A0E1 		mov	r0, r4
 1923 02b0 FEFFFFEB 		bl	__aeabi_fcmplt
 1924 02b4 000050E3 		cmp	r0, #0
 1925 02b8 0600000A 		beq	.L237
 1926 02bc 0A00A0E1 		mov	r0, sl
 1927 02c0 FEFFFFEB 		bl	__aeabi_f2d
 1928 02c4 D8249FE5 		ldr	r2, .L299+4
 1929 02c8 D8349FE5 		ldr	r3, .L299+8
 1930 02cc FEFFFFEB 		bl	__aeabi_dadd
 1931 02d0 FEFFFFEB 		bl	__aeabi_d2f
 1932 02d4 00A0A0E1 		mov	sl, r0
 1933              	.L237:
 1934 02d8 CC349FE5 		ldr	r3, .L299+12
 1935 02dc 0030D3E5 		ldrb	r3, [r3, #0]	@ zero_extendqisi2
 1936 02e0 050053E3 		cmp	r3, #5
 1937 02e4 03F19F97 		ldrls	pc, [pc, r3, asl #2]
 1938 02e8 290100EA 		b	.L233
 1939              	.L246:
 1940 02ec B8040000 		.word	.L240
 1941 02f0 0C050000 		.word	.L241
 1942 02f4 4C050000 		.word	.L242
 1943 02f8 EC060000 		.word	.L243
 1944 02fc 44070000 		.word	.L244
 1945 0300 04030000 		.word	.L245
 1946              	.L245:
 1947 0304 10C09DE5 		ldr	ip, [sp, #16]
 1948 0308 0C20A0E3 		mov	r2, #12
 1949 030c 9C0202E0 		mul	r2, ip, r2
 1950 0310 88149FE5 		ldr	r1, .L299
 1951 0314 023081E0 		add	r3, r1, r2
 1952 0318 020091E7 		ldr	r0, [r1, r2]	@ float
 1953 031c 0420A0E1 		mov	r2, r4
 1954 0320 041093E5 		ldr	r1, [r3, #4]	@ float
 1955 0324 FEFFFFEB 		bl	nav_circle_XY
 1956 0328 0A00A0E1 		mov	r0, sl
 1957 032c FEFFFFEB 		bl	__aeabi_f2d
 1958 0330 78249FE5 		ldr	r2, .L299+16
 1959 0334 78349FE5 		ldr	r3, .L299+20
 1960 0338 FEFFFFEB 		bl	__aeabi_dmul
 1961 033c 0020A0E3 		mov	r2, #0
 1962 0340 70349FE5 		ldr	r3, .L299+24
 1963 0344 FEFFFFEB 		bl	__aeabi_dsub
 1964 0348 6C349FE5 		ldr	r3, .L299+28
 1965 034c 0040A0E1 		mov	r4, r0
 1966 0350 000093E5 		ldr	r0, [r3, #0]	@ float
 1967 0354 0150A0E1 		mov	r5, r1
 1968 0358 FEFFFFEB 		bl	__aeabi_f2d
 1969 035c 0020A0E1 		mov	r2, r0
 1970 0360 0130A0E1 		mov	r3, r1
 1971 0364 38049FE5 		ldr	r0, .L299+4
 1972 0368 50149FE5 		ldr	r1, .L299+32
 1973 036c FEFFFFEB 		bl	__aeabi_dsub
 1974 0370 38249FE5 		ldr	r2, .L299+16
 1975 0374 38349FE5 		ldr	r3, .L299+20
 1976 0378 FEFFFFEB 		bl	__aeabi_dmul
 1977 037c FEFFFFEB 		bl	__aeabi_d2f
 1978 0380 0070A0E3 		mov	r7, #0
 1979 0384 0060A0E1 		mov	r6, r0
 1980 0388 030000EA 		b	.L247
 1981              	.L250:
 1982 038c 0600A0E1 		mov	r0, r6
 1983 0390 2C149FE5 		ldr	r1, .L299+36
 1984 0394 FEFFFFEB 		bl	__aeabi_fadd
 1985 0398 0060A0E1 		mov	r6, r0
 1986              	.L247:
 1987 039c 0600A0E1 		mov	r0, r6
 1988 03a0 0010A0E3 		mov	r1, #0
 1989 03a4 FEFFFFEB 		bl	__aeabi_fcmplt
 1990 03a8 000050E3 		cmp	r0, #0
 1991 03ac FF8007E2 		and	r8, r7, #255
 1992 03b0 0700000A 		beq	.L289
 1993 03b4 017087E2 		add	r7, r7, #1
 1994 03b8 010C57E3 		cmp	r7, #256
 1995 03bc F2FFFF1A 		bne	.L250
 1996 03c0 0080A0E3 		mov	r8, #0
 1997 03c4 020000EA 		b	.L289
 1998              	.L254:
 1999 03c8 F4139FE5 		ldr	r1, .L299+36
 2000 03cc FEFFFFEB 		bl	__aeabi_fsub
 2001 03d0 0060A0E1 		mov	r6, r0
 2002              	.L289:
 2003 03d4 0600A0E1 		mov	r0, r6
 2004 03d8 E4139FE5 		ldr	r1, .L299+36
 2005 03dc FEFFFFEB 		bl	__aeabi_fcmpge
 2006 03e0 000050E3 		cmp	r0, #0
 2007 03e4 0600A0E1 		mov	r0, r6
 2008 03e8 0200000A 		beq	.L252
 2009 03ec 018088E2 		add	r8, r8, #1
 2010 03f0 FF8018E2 		ands	r8, r8, #255
 2011 03f4 F3FFFF1A 		bne	.L254
 2012              	.L252:
 2013 03f8 FEFFFFEB 		bl	__aeabi_f2d
 2014 03fc 0020A0E1 		mov	r2, r0
 2015 0400 0130A0E1 		mov	r3, r1
 2016 0404 0400A0E1 		mov	r0, r4
 2017 0408 0510A0E1 		mov	r1, r5
 2018 040c FEFFFFEB 		bl	__aeabi_dsub
 2019 0410 FEFFFFEB 		bl	__aeabi_d2f
 2020 0414 0050A0E3 		mov	r5, #0
 2021 0418 0040A0E1 		mov	r4, r0
 2022 041c 030000EA 		b	.L255
 2023              	.L258:
 2024 0420 0400A0E1 		mov	r0, r4
 2025 0424 98139FE5 		ldr	r1, .L299+36
 2026 0428 FEFFFFEB 		bl	__aeabi_fadd
 2027 042c 0040A0E1 		mov	r4, r0
 2028              	.L255:
 2029 0430 0400A0E1 		mov	r0, r4
 2030 0434 0010A0E3 		mov	r1, #0
 2031 0438 FEFFFFEB 		bl	__aeabi_fcmplt
 2032 043c 000050E3 		cmp	r0, #0
 2033 0440 FF6005E2 		and	r6, r5, #255
 2034 0444 0700000A 		beq	.L290
 2035 0448 015085E2 		add	r5, r5, #1
 2036 044c 010C55E3 		cmp	r5, #256
 2037 0450 F2FFFF1A 		bne	.L258
 2038 0454 0060A0E3 		mov	r6, #0
 2039 0458 020000EA 		b	.L290
 2040              	.L262:
 2041 045c 60139FE5 		ldr	r1, .L299+36
 2042 0460 FEFFFFEB 		bl	__aeabi_fsub
 2043 0464 0040A0E1 		mov	r4, r0
 2044              	.L290:
 2045 0468 0400A0E1 		mov	r0, r4
 2046 046c 50139FE5 		ldr	r1, .L299+36
 2047 0470 FEFFFFEB 		bl	__aeabi_fcmpge
 2048 0474 000050E3 		cmp	r0, #0
 2049 0478 0400A0E1 		mov	r0, r4
 2050 047c 0200000A 		beq	.L260
 2051 0480 016086E2 		add	r6, r6, #1
 2052 0484 FF6016E2 		ands	r6, r6, #255
 2053 0488 F3FFFF1A 		bne	.L262
 2054              	.L260:
 2055 048c 34139FE5 		ldr	r1, .L299+40
 2056 0490 FEFFFFEB 		bl	__aeabi_fcmpgt
 2057 0494 000050E3 		cmp	r0, #0
 2058 0498 0400001A 		bne	.L263
 2059 049c 0400A0E1 		mov	r0, r4
 2060 04a0 24139FE5 		ldr	r1, .L299+44
 2061 04a4 FEFFFFEB 		bl	__aeabi_fcmplt
 2062 04a8 000050E3 		cmp	r0, #0
 2063 04ac B800000A 		beq	.L233
 2064              	.L263:
 2065 04b0 0020A0E3 		mov	r2, #0
 2066 04b4 B10000EA 		b	.L297
 2067              	.L240:
 2068 04b8 0500A0E1 		mov	r0, r5
 2069 04bc 0610A0E1 		mov	r1, r6
 2070 04c0 0920A0E1 		mov	r2, r9
 2071 04c4 24309DE5 		ldr	r3, [sp, #36]	@ float
 2072 04c8 FEFFFFEB 		bl	nav_route_xy
 2073 04cc 0CC09DE5 		ldr	ip, [sp, #12]
 2074 04d0 0C20A0E3 		mov	r2, #12
 2075 04d4 9C0202E0 		mul	r2, ip, r2
 2076 04d8 C0129FE5 		ldr	r1, .L299
 2077 04dc 0000A0E3 		mov	r0, #0
 2078 04e0 00008DE5 		str	r0, [sp, #0]	@ float
 2079 04e4 023081E0 		add	r3, r1, r2
 2080 04e8 020091E7 		ldr	r0, [r1, r2]	@ float
 2081 04ec 041093E5 		ldr	r1, [r3, #4]	@ float
 2082 04f0 0520A0E1 		mov	r2, r5
 2083 04f4 0630A0E1 		mov	r3, r6
 2084 04f8 FEFFFFEB 		bl	nav_approaching_xy
 2085 04fc 000050E3 		cmp	r0, #0
 2086 0500 0120A013 		movne	r2, #1
 2087 0504 A200000A 		beq	.L233
 2088 0508 9C0000EA 		b	.L297
 2089              	.L241:
 2090 050c 0500A0E1 		mov	r0, r5
 2091 0510 0610A0E1 		mov	r1, r6
 2092 0514 0920A0E1 		mov	r2, r9
 2093 0518 24309DE5 		ldr	r3, [sp, #36]	@ float
 2094 051c FEFFFFEB 		bl	nav_route_xy
 2095 0520 A8329FE5 		ldr	r3, .L299+48
 2096 0524 0520A0E1 		mov	r2, r5
 2097 0528 00308DE5 		str	r3, [sp, #0]	@ float
 2098 052c 0900A0E1 		mov	r0, r9
 2099 0530 24109DE5 		ldr	r1, [sp, #36]	@ float
 2100 0534 0630A0E1 		mov	r3, r6
 2101 0538 FEFFFFEB 		bl	nav_approaching_xy
 2102 053c 000050E3 		cmp	r0, #0
 2103 0540 0220A013 		movne	r2, #2
 2104 0544 9200000A 		beq	.L233
 2105 0548 8C0000EA 		b	.L297
 2106              	.L242:
 2107 054c 022184E2 		add	r2, r4, #-2147483648
 2108 0550 14009DE5 		ldr	r0, [sp, #20]	@ float
 2109 0554 18109DE5 		ldr	r1, [sp, #24]	@ float
 2110 0558 FEFFFFEB 		bl	nav_circle_XY
 2111 055c 0A00A0E1 		mov	r0, sl
 2112 0560 FEFFFFEB 		bl	__aeabi_f2d
 2113 0564 44229FE5 		ldr	r2, .L299+16
 2114 0568 44329FE5 		ldr	r3, .L299+20
 2115 056c FEFFFFEB 		bl	__aeabi_dmul
 2116 0570 0020A0E3 		mov	r2, #0
 2117 0574 3C329FE5 		ldr	r3, .L299+24
 2118 0578 FEFFFFEB 		bl	__aeabi_dadd
 2119 057c 38329FE5 		ldr	r3, .L299+28
 2120 0580 0040A0E1 		mov	r4, r0
 2121 0584 000093E5 		ldr	r0, [r3, #0]	@ float
 2122 0588 0150A0E1 		mov	r5, r1
 2123 058c FEFFFFEB 		bl	__aeabi_f2d
 2124 0590 0020A0E1 		mov	r2, r0
 2125 0594 0130A0E1 		mov	r3, r1
 2126 0598 04029FE5 		ldr	r0, .L299+4
 2127 059c 1C129FE5 		ldr	r1, .L299+32
 2128 05a0 FEFFFFEB 		bl	__aeabi_dsub
 2129 05a4 04229FE5 		ldr	r2, .L299+16
 2130 05a8 04329FE5 		ldr	r3, .L299+20
 2131 05ac FEFFFFEB 		bl	__aeabi_dmul
 2132 05b0 FEFFFFEB 		bl	__aeabi_d2f
 2133 05b4 0070A0E3 		mov	r7, #0
 2134 05b8 0060A0E1 		mov	r6, r0
 2135 05bc 030000EA 		b	.L265
 2136              	.L268:
 2137 05c0 0600A0E1 		mov	r0, r6
 2138 05c4 F8119FE5 		ldr	r1, .L299+36
 2139 05c8 FEFFFFEB 		bl	__aeabi_fadd
 2140 05cc 0060A0E1 		mov	r6, r0
 2141              	.L265:
 2142 05d0 0600A0E1 		mov	r0, r6
 2143 05d4 0010A0E3 		mov	r1, #0
 2144 05d8 FEFFFFEB 		bl	__aeabi_fcmplt
 2145 05dc 000050E3 		cmp	r0, #0
 2146 05e0 FF8007E2 		and	r8, r7, #255
 2147 05e4 0700000A 		beq	.L291
 2148 05e8 017087E2 		add	r7, r7, #1
 2149 05ec 010C57E3 		cmp	r7, #256
 2150 05f0 F2FFFF1A 		bne	.L268
 2151 05f4 0080A0E3 		mov	r8, #0
 2152 05f8 020000EA 		b	.L291
 2153              	.L272:
 2154 05fc C0119FE5 		ldr	r1, .L299+36
 2155 0600 FEFFFFEB 		bl	__aeabi_fsub
 2156 0604 0060A0E1 		mov	r6, r0
 2157              	.L291:
 2158 0608 0600A0E1 		mov	r0, r6
 2159 060c B0119FE5 		ldr	r1, .L299+36
 2160 0610 FEFFFFEB 		bl	__aeabi_fcmpge
 2161 0614 000050E3 		cmp	r0, #0
 2162 0618 0600A0E1 		mov	r0, r6
 2163 061c 0200000A 		beq	.L270
 2164 0620 018088E2 		add	r8, r8, #1
 2165 0624 FF8018E2 		ands	r8, r8, #255
 2166 0628 F3FFFF1A 		bne	.L272
 2167              	.L270:
 2168 062c FEFFFFEB 		bl	__aeabi_f2d
 2169 0630 0020A0E1 		mov	r2, r0
 2170 0634 0130A0E1 		mov	r3, r1
 2171 0638 0400A0E1 		mov	r0, r4
 2172 063c 0510A0E1 		mov	r1, r5
 2173 0640 FEFFFFEB 		bl	__aeabi_dsub
 2174 0644 FEFFFFEB 		bl	__aeabi_d2f
 2175 0648 0050A0E3 		mov	r5, #0
 2176 064c 0040A0E1 		mov	r4, r0
 2177 0650 030000EA 		b	.L273
 2178              	.L276:
 2179 0654 0400A0E1 		mov	r0, r4
 2180 0658 64119FE5 		ldr	r1, .L299+36
 2181 065c FEFFFFEB 		bl	__aeabi_fadd
 2182 0660 0040A0E1 		mov	r4, r0
 2183              	.L273:
 2184 0664 0400A0E1 		mov	r0, r4
 2185 0668 0010A0E3 		mov	r1, #0
 2186 066c FEFFFFEB 		bl	__aeabi_fcmplt
 2187 0670 000050E3 		cmp	r0, #0
 2188 0674 FF6005E2 		and	r6, r5, #255
 2189 0678 0700000A 		beq	.L292
 2190 067c 015085E2 		add	r5, r5, #1
 2191 0680 010C55E3 		cmp	r5, #256
 2192 0684 F2FFFF1A 		bne	.L276
 2193 0688 0060A0E3 		mov	r6, #0
 2194 068c 020000EA 		b	.L292
 2195              	.L280:
 2196 0690 2C119FE5 		ldr	r1, .L299+36
 2197 0694 FEFFFFEB 		bl	__aeabi_fsub
 2198 0698 0040A0E1 		mov	r4, r0
 2199              	.L292:
 2200 069c 0400A0E1 		mov	r0, r4
 2201 06a0 1C119FE5 		ldr	r1, .L299+36
 2202 06a4 FEFFFFEB 		bl	__aeabi_fcmpge
 2203 06a8 000050E3 		cmp	r0, #0
 2204 06ac 0400A0E1 		mov	r0, r4
 2205 06b0 0200000A 		beq	.L278
 2206 06b4 016086E2 		add	r6, r6, #1
 2207 06b8 FF6016E2 		ands	r6, r6, #255
 2208 06bc F3FFFF1A 		bne	.L280
 2209              	.L278:
 2210 06c0 00119FE5 		ldr	r1, .L299+40
 2211 06c4 FEFFFFEB 		bl	__aeabi_fcmpgt
 2212 06c8 000050E3 		cmp	r0, #0
 2213 06cc 0400001A 		bne	.L281
 2214 06d0 0400A0E1 		mov	r0, r4
 2215 06d4 F0109FE5 		ldr	r1, .L299+44
 2216 06d8 FEFFFFEB 		bl	__aeabi_fcmplt
 2217 06dc 000050E3 		cmp	r0, #0
 2218 06e0 2B00000A 		beq	.L233
 2219              	.L281:
 2220 06e4 0320A0E3 		mov	r2, #3
 2221 06e8 240000EA 		b	.L297
 2222              	.L243:
 2223 06ec 0700A0E1 		mov	r0, r7
 2224 06f0 0810A0E1 		mov	r1, r8
 2225 06f4 1C209DE5 		ldr	r2, [sp, #28]	@ float
 2226 06f8 20309DE5 		ldr	r3, [sp, #32]	@ float
 2227 06fc FEFFFFEB 		bl	nav_route_xy
 2228 0700 0CC09DE5 		ldr	ip, [sp, #12]
 2229 0704 0C20A0E3 		mov	r2, #12
 2230 0708 9C0202E0 		mul	r2, ip, r2
 2231 070c 8C109FE5 		ldr	r1, .L299
 2232 0710 0000A0E3 		mov	r0, #0
 2233 0714 00008DE5 		str	r0, [sp, #0]	@ float
 2234 0718 023081E0 		add	r3, r1, r2
 2235 071c 020091E7 		ldr	r0, [r1, r2]	@ float
 2236 0720 041093E5 		ldr	r1, [r3, #4]	@ float
 2237 0724 0720A0E1 		mov	r2, r7
 2238 0728 0830A0E1 		mov	r3, r8
 2239 072c FEFFFFEB 		bl	nav_approaching_xy
 2240 0730 000050E3 		cmp	r0, #0
 2241 0734 70309F15 		ldrne	r3, .L299+12
 2242 0738 0420A013 		movne	r2, #4
 2243 073c 1400000A 		beq	.L233
 2244 0740 0F0000EA 		b	.L298
 2245              	.L244:
 2246 0744 0700A0E1 		mov	r0, r7
 2247 0748 0810A0E1 		mov	r1, r8
 2248 074c 1C209DE5 		ldr	r2, [sp, #28]	@ float
 2249 0750 20309DE5 		ldr	r3, [sp, #32]	@ float
 2250 0754 FEFFFFEB 		bl	nav_route_xy
 2251 0758 70309FE5 		ldr	r3, .L299+48
 2252 075c 1C009DE5 		ldr	r0, [sp, #28]	@ float
 2253 0760 00308DE5 		str	r3, [sp, #0]	@ float
 2254 0764 20109DE5 		ldr	r1, [sp, #32]	@ float
 2255 0768 0720A0E1 		mov	r2, r7
 2256 076c 0830A0E1 		mov	r3, r8
 2257 0770 FEFFFFEB 		bl	nav_approaching_xy
 2258 0774 000050E3 		cmp	r0, #0
 2259 0778 0500000A 		beq	.L233
 2260 077c 0520A0E3 		mov	r2, #5
 2261              	.L297:
 2262 0780 24309FE5 		ldr	r3, .L299+12
 2263              	.L298:
 2264 0784 0020C3E5 		strb	r2, [r3, #0]
 2265 0788 34D08DE2 		add	sp, sp, #52
 2266 078c F04FBDE8 		ldmfd	sp!, {r4, r5, r6, r7, r8, r9, sl, fp, lr}
 2267 0790 FEFFFFEA 		b	nav_init_stage
 2268              	.L233:
 2269 0794 34D08DE2 		add	sp, sp, #52
 2270 0798 F04FBDE8 		ldmfd	sp!, {r4, r5, r6, r7, r8, r9, sl, fp, lr}
 2271 079c 1EFF2FE1 		bx	lr
 2272              	.L300:
 2273              		.align	2
 2274              	.L299:
 2275 07a0 00000000 		.word	.LANCHOR7
 2276 07a4 182D4454 		.word	1413754136
 2277 07a8 FB210940 		.word	1074340347
 2278 07ac 00000000 		.word	.LANCHOR14
 2279 07b0 F8C1631A 		.word	442745336
 2280 07b4 DCA54C40 		.word	1078765020
 2281 07b8 00002440 		.word	1076101120
 2282 07bc 00000000 		.word	nav_circle_trigo_qdr
 2283 07c0 FB21F93F 		.word	1073291771
 2284 07c4 0000B443 		.word	1135869952
 2285 07c8 0000AF43 		.word	1135542272
 2286 07cc 00002041 		.word	1092616192
 2287 07d0 0000A040 		.word	1084227584
 2289              		.section	.text.nav_oval_init,"ax",%progbits
 2290              		.align	2
 2291              		.global	nav_oval_init
 2293              	nav_oval_init:
 2294              		@ Function supports interworking.
 2295              		@ args = 0, pretend = 0, frame = 0
 2296              		@ frame_needed = 0, uses_anonymous_args = 0
 2297              		@ link register save eliminated.
 2298 0000 14309FE5 		ldr	r3, .L302
 2299 0004 0120A0E3 		mov	r2, #1
 2300 0008 0020C3E5 		strb	r2, [r3, #0]
 2301 000c 0C309FE5 		ldr	r3, .L302+4
 2302 0010 0020A0E3 		mov	r2, #0
 2303 0014 0020C3E5 		strb	r2, [r3, #0]
 2304 0018 1EFF2FE1 		bx	lr
 2305              	.L303:
 2306              		.align	2
 2307              	.L302:
 2308 001c 00000000 		.word	oval_status
 2309 0020 00000000 		.word	nav_oval_count
 2311              		.section	.text.nav_oval,"ax",%progbits
 2312              		.align	2
 2313              		.global	nav_oval
 2315              	nav_oval:
 2316              		@ Function supports interworking.
 2317              		@ args = 0, pretend = 0, frame = 40
 2318              		@ frame_needed = 0, uses_anonymous_args = 0
 2319 0000 F04F2DE9 		stmfd	sp!, {r4, r5, r6, r7, r8, r9, sl, fp, lr}
 2320 0004 0C70A0E3 		mov	r7, #12
 2321 0008 00A0A0E1 		mov	sl, r0
 2322 000c 970A0AE0 		mul	sl, r7, sl
 2323 0010 910707E0 		mul	r7, r1, r7
 2324 0014 9C569FE5 		ldr	r5, .L369
 2325 0018 0A8085E0 		add	r8, r5, sl
 2326 001c 083098E5 		ldr	r3, [r8, #8]	@ float
 2327 0020 34D04DE2 		sub	sp, sp, #52
 2328 0024 076085E0 		add	r6, r5, r7
 2329 0028 083086E5 		str	r3, [r6, #8]	@ float
 2330 002c 28008DE5 		str	r0, [sp, #40]
 2331 0030 2C108DE5 		str	r1, [sp, #44]
 2332 0034 0A0095E7 		ldr	r0, [r5, sl]	@ float
 2333 0038 071095E7 		ldr	r1, [r5, r7]	@ float
 2334 003c 024182E2 		add	r4, r2, #-2147483648
 2335 0040 10208DE5 		str	r2, [sp, #16]	@ float
 2336 0044 FEFFFFEB 		bl	__aeabi_fsub
 2337 0048 041096E5 		ldr	r1, [r6, #4]	@ float
 2338 004c 00B0A0E1 		mov	fp, r0
 2339 0050 040098E5 		ldr	r0, [r8, #4]	@ float
 2340 0054 FEFFFFEB 		bl	__aeabi_fsub
 2341 0058 0B10A0E1 		mov	r1, fp
 2342 005c 0090A0E1 		mov	r9, r0
 2343 0060 0B00A0E1 		mov	r0, fp
 2344 0064 FEFFFFEB 		bl	__aeabi_fmul
 2345 0068 0910A0E1 		mov	r1, r9
 2346 006c 0030A0E1 		mov	r3, r0
 2347 0070 0900A0E1 		mov	r0, r9
 2348 0074 0C308DE5 		str	r3, [sp, #12]
 2349 0078 FEFFFFEB 		bl	__aeabi_fmul
 2350 007c 0C309DE5 		ldr	r3, [sp, #12]
 2351 0080 0010A0E1 		mov	r1, r0
 2352 0084 0300A0E1 		mov	r0, r3
 2353 0088 FEFFFFEB 		bl	__aeabi_fadd
 2354 008c FEFFFFEB 		bl	__aeabi_f2d
 2355 0090 FEFFFFEB 		bl	sqrt
 2356 0094 FEFFFFEB 		bl	__aeabi_d2f
 2357 0098 0030A0E1 		mov	r3, r0
 2358 009c 0310A0E1 		mov	r1, r3
 2359 00a0 0B00A0E1 		mov	r0, fp
 2360 00a4 0C308DE5 		str	r3, [sp, #12]
 2361 00a8 FEFFFFEB 		bl	__aeabi_fdiv
 2362 00ac 0C309DE5 		ldr	r3, [sp, #12]
 2363 00b0 00B0A0E1 		mov	fp, r0
 2364 00b4 0310A0E1 		mov	r1, r3
 2365 00b8 0900A0E1 		mov	r0, r9
 2366 00bc FEFFFFEB 		bl	__aeabi_fdiv
 2367 00c0 022180E2 		add	r2, r0, #-2147483648
 2368 00c4 18208DE5 		str	r2, [sp, #24]
 2369 00c8 0AA095E7 		ldr	sl, [r5, sl]	@ float
 2370 00cc 18109DE5 		ldr	r1, [sp, #24]	@ float
 2371 00d0 0090A0E1 		mov	r9, r0
 2372 00d4 0400A0E1 		mov	r0, r4
 2373 00d8 14A08DE5 		str	sl, [sp, #20]	@ float
 2374 00dc FEFFFFEB 		bl	__aeabi_fmul
 2375 00e0 048098E5 		ldr	r8, [r8, #4]	@ float
 2376 00e4 1C008DE5 		str	r0, [sp, #28]	@ float
 2377 00e8 0B10A0E1 		mov	r1, fp
 2378 00ec 0400A0E1 		mov	r0, r4
 2379 00f0 20808DE5 		str	r8, [sp, #32]	@ float
 2380 00f4 FEFFFFEB 		bl	__aeabi_fmul
 2381 00f8 24008DE5 		str	r0, [sp, #36]	@ float
 2382 00fc 0900A0E1 		mov	r0, r9
 2383 0100 FEFFFFEB 		bl	__aeabi_f2d
 2384 0104 048096E5 		ldr	r8, [r6, #4]	@ float
 2385 0108 0060A0E1 		mov	r6, r0
 2386 010c 0B00A0E1 		mov	r0, fp
 2387 0110 07A095E7 		ldr	sl, [r5, r7]	@ float
 2388 0114 0170A0E1 		mov	r7, r1
 2389 0118 FEFFFFEB 		bl	__aeabi_f2d
 2390 011c 0020A0E1 		mov	r2, r0
 2391 0120 0130A0E1 		mov	r3, r1
 2392 0124 0600A0E1 		mov	r0, r6
 2393 0128 0710A0E1 		mov	r1, r7
 2394 012c FEFFFFEB 		bl	atan2
 2395 0130 0020A0E1 		mov	r2, r0
 2396 0134 0130A0E1 		mov	r3, r1
 2397 0138 7C059FE5 		ldr	r0, .L369+4
 2398 013c 7C159FE5 		ldr	r1, .L369+8
 2399 0140 FEFFFFEB 		bl	__aeabi_dsub
 2400 0144 FEFFFFEB 		bl	__aeabi_d2f
 2401 0148 0070A0E1 		mov	r7, r0
 2402 014c FEFFFFEB 		bl	__aeabi_f2d
 2403 0150 64259FE5 		ldr	r2, .L369+4
 2404 0154 64359FE5 		ldr	r3, .L369+8
 2405 0158 FEFFFFEB 		bl	__aeabi_dadd
 2406 015c FEFFFFEB 		bl	__aeabi_d2f
 2407 0160 0010A0E3 		mov	r1, #0
 2408 0164 0060A0E1 		mov	r6, r0
 2409 0168 0400A0E1 		mov	r0, r4
 2410 016c FEFFFFEB 		bl	__aeabi_fcmplt
 2411 0170 000050E3 		cmp	r0, #0
 2412 0174 0700000A 		beq	.L305
 2413 0178 0600A0E1 		mov	r0, r6
 2414 017c FEFFFFEB 		bl	__aeabi_f2d
 2415 0180 34259FE5 		ldr	r2, .L369+4
 2416 0184 34359FE5 		ldr	r3, .L369+8
 2417 0188 FEFFFFEB 		bl	__aeabi_dadd
 2418 018c FEFFFFEB 		bl	__aeabi_d2f
 2419 0190 0670A0E1 		mov	r7, r6
 2420 0194 0060A0E1 		mov	r6, r0
 2421              	.L305:
 2422 0198 0400A0E1 		mov	r0, r4
 2423 019c 0010A0E3 		mov	r1, #0
 2424 01a0 FEFFFFEB 		bl	__aeabi_fcmpgt
 2425 01a4 18359FE5 		ldr	r3, .L369+12
 2426 01a8 0030D3E5 		ldrb	r3, [r3, #0]	@ zero_extendqisi2
 2427 01ac 000050E3 		cmp	r0, #0
 2428 01b0 10559F15 		ldrne	r5, .L369+16
 2429 01b4 10559F05 		ldreq	r5, .L369+20
 2430 01b8 030053E3 		cmp	r3, #3
 2431 01bc 03F19F97 		ldrls	pc, [pc, r3, asl #2]
 2432 01c0 390100EA 		b	.L304
 2433              	.L314:
 2434 01c4 A8030000 		.word	.L310
 2435 01c8 68040000 		.word	.L311
 2436 01cc 3C060000 		.word	.L312
 2437 01d0 D4010000 		.word	.L313
 2438              	.L313:
 2439 01d4 1C109DE5 		ldr	r1, [sp, #28]	@ float
 2440 01d8 14009DE5 		ldr	r0, [sp, #20]	@ float
 2441 01dc FEFFFFEB 		bl	__aeabi_fadd
 2442 01e0 24109DE5 		ldr	r1, [sp, #36]	@ float
 2443 01e4 0040A0E1 		mov	r4, r0
 2444 01e8 20009DE5 		ldr	r0, [sp, #32]	@ float
 2445 01ec FEFFFFEB 		bl	__aeabi_fadd
 2446 01f0 10209DE5 		ldr	r2, [sp, #16]	@ float
 2447 01f4 0010A0E1 		mov	r1, r0
 2448 01f8 0400A0E1 		mov	r0, r4
 2449 01fc FEFFFFEB 		bl	nav_circle_XY
 2450 0200 0600A0E1 		mov	r0, r6
 2451 0204 FEFFFFEB 		bl	__aeabi_f2d
 2452 0208 C0249FE5 		ldr	r2, .L369+24
 2453 020c C0349FE5 		ldr	r3, .L369+28
 2454 0210 FEFFFFEB 		bl	__aeabi_dmul
 2455 0214 0060A0E1 		mov	r6, r0
 2456 0218 0500A0E1 		mov	r0, r5
 2457 021c 0170A0E1 		mov	r7, r1
 2458 0220 FEFFFFEB 		bl	__aeabi_f2d
 2459 0224 0020A0E1 		mov	r2, r0
 2460 0228 0130A0E1 		mov	r3, r1
 2461 022c 0600A0E1 		mov	r0, r6
 2462 0230 0710A0E1 		mov	r1, r7
 2463 0234 FEFFFFEB 		bl	__aeabi_dsub
 2464 0238 98349FE5 		ldr	r3, .L369+32
 2465 023c 0040A0E1 		mov	r4, r0
 2466 0240 000093E5 		ldr	r0, [r3, #0]	@ float
 2467 0244 0150A0E1 		mov	r5, r1
 2468 0248 FEFFFFEB 		bl	__aeabi_f2d
 2469 024c 0020A0E1 		mov	r2, r0
 2470 0250 0130A0E1 		mov	r3, r1
 2471 0254 60049FE5 		ldr	r0, .L369+4
 2472 0258 7C149FE5 		ldr	r1, .L369+36
 2473 025c FEFFFFEB 		bl	__aeabi_dsub
 2474 0260 68249FE5 		ldr	r2, .L369+24
 2475 0264 68349FE5 		ldr	r3, .L369+28
 2476 0268 FEFFFFEB 		bl	__aeabi_dmul
 2477 026c FEFFFFEB 		bl	__aeabi_d2f
 2478 0270 0070A0E3 		mov	r7, #0
 2479 0274 0060A0E1 		mov	r6, r0
 2480 0278 030000EA 		b	.L315
 2481              	.L318:
 2482 027c 0600A0E1 		mov	r0, r6
 2483 0280 58149FE5 		ldr	r1, .L369+40
 2484 0284 FEFFFFEB 		bl	__aeabi_fadd
 2485 0288 0060A0E1 		mov	r6, r0
 2486              	.L315:
 2487 028c 0600A0E1 		mov	r0, r6
 2488 0290 0010A0E3 		mov	r1, #0
 2489 0294 FEFFFFEB 		bl	__aeabi_fcmplt
 2490 0298 000050E3 		cmp	r0, #0
 2491 029c FF8007E2 		and	r8, r7, #255
 2492 02a0 0700000A 		beq	.L359
 2493 02a4 017087E2 		add	r7, r7, #1
 2494 02a8 010C57E3 		cmp	r7, #256
 2495 02ac F2FFFF1A 		bne	.L318
 2496 02b0 0080A0E3 		mov	r8, #0
 2497 02b4 020000EA 		b	.L359
 2498              	.L322:
 2499 02b8 20149FE5 		ldr	r1, .L369+40
 2500 02bc FEFFFFEB 		bl	__aeabi_fsub
 2501 02c0 0060A0E1 		mov	r6, r0
 2502              	.L359:
 2503 02c4 0600A0E1 		mov	r0, r6
 2504 02c8 10149FE5 		ldr	r1, .L369+40
 2505 02cc FEFFFFEB 		bl	__aeabi_fcmpge
 2506 02d0 000050E3 		cmp	r0, #0
 2507 02d4 0600A0E1 		mov	r0, r6
 2508 02d8 0200000A 		beq	.L320
 2509 02dc 018088E2 		add	r8, r8, #1
 2510 02e0 FF8018E2 		ands	r8, r8, #255
 2511 02e4 F3FFFF1A 		bne	.L322
 2512              	.L320:
 2513 02e8 FEFFFFEB 		bl	__aeabi_f2d
 2514 02ec 0020A0E1 		mov	r2, r0
 2515 02f0 0130A0E1 		mov	r3, r1
 2516 02f4 0400A0E1 		mov	r0, r4
 2517 02f8 0510A0E1 		mov	r1, r5
 2518 02fc FEFFFFEB 		bl	__aeabi_dsub
 2519 0300 FEFFFFEB 		bl	__aeabi_d2f
 2520 0304 0050A0E3 		mov	r5, #0
 2521 0308 0040A0E1 		mov	r4, r0
 2522 030c 030000EA 		b	.L323
 2523              	.L326:
 2524 0310 0400A0E1 		mov	r0, r4
 2525 0314 C4139FE5 		ldr	r1, .L369+40
 2526 0318 FEFFFFEB 		bl	__aeabi_fadd
 2527 031c 0040A0E1 		mov	r4, r0
 2528              	.L323:
 2529 0320 0400A0E1 		mov	r0, r4
 2530 0324 0010A0E3 		mov	r1, #0
 2531 0328 FEFFFFEB 		bl	__aeabi_fcmplt
 2532 032c 000050E3 		cmp	r0, #0
 2533 0330 FF6005E2 		and	r6, r5, #255
 2534 0334 0700000A 		beq	.L360
 2535 0338 015085E2 		add	r5, r5, #1
 2536 033c 010C55E3 		cmp	r5, #256
 2537 0340 F2FFFF1A 		bne	.L326
 2538 0344 0060A0E3 		mov	r6, #0
 2539 0348 020000EA 		b	.L360
 2540              	.L330:
 2541 034c 8C139FE5 		ldr	r1, .L369+40
 2542 0350 FEFFFFEB 		bl	__aeabi_fsub
 2543 0354 0040A0E1 		mov	r4, r0
 2544              	.L360:
 2545 0358 0400A0E1 		mov	r0, r4
 2546 035c 7C139FE5 		ldr	r1, .L369+40
 2547 0360 FEFFFFEB 		bl	__aeabi_fcmpge
 2548 0364 000050E3 		cmp	r0, #0
 2549 0368 0400A0E1 		mov	r0, r4
 2550 036c 0200000A 		beq	.L328
 2551 0370 016086E2 		add	r6, r6, #1
 2552 0374 FF6016E2 		ands	r6, r6, #255
 2553 0378 F3FFFF1A 		bne	.L330
 2554              	.L328:
 2555 037c 60139FE5 		ldr	r1, .L369+44
 2556 0380 FEFFFFEB 		bl	__aeabi_fcmpgt
 2557 0384 000050E3 		cmp	r0, #0
 2558 0388 0400001A 		bne	.L331
 2559 038c 0400A0E1 		mov	r0, r4
 2560 0390 50139FE5 		ldr	r1, .L369+48
 2561 0394 FEFFFFEB 		bl	__aeabi_fcmplt
 2562 0398 000050E3 		cmp	r0, #0
 2563 039c C200000A 		beq	.L304
 2564              	.L331:
 2565 03a0 0020A0E3 		mov	r2, #0
 2566 03a4 BB0000EA 		b	.L367
 2567              	.L310:
 2568 03a8 0410A0E1 		mov	r1, r4
 2569 03ac 0400A0E1 		mov	r0, r4
 2570 03b0 FEFFFFEB 		bl	__aeabi_fadd
 2571 03b4 18109DE5 		ldr	r1, [sp, #24]	@ float
 2572 03b8 0050A0E1 		mov	r5, r0
 2573 03bc FEFFFFEB 		bl	__aeabi_fmul
 2574 03c0 0060A0E1 		mov	r6, r0
 2575 03c4 0610A0E1 		mov	r1, r6
 2576 03c8 14009DE5 		ldr	r0, [sp, #20]	@ float
 2577 03cc FEFFFFEB 		bl	__aeabi_fadd
 2578 03d0 0B10A0E1 		mov	r1, fp
 2579 03d4 0040A0E1 		mov	r4, r0
 2580 03d8 0500A0E1 		mov	r0, r5
 2581 03dc FEFFFFEB 		bl	__aeabi_fmul
 2582 03e0 0070A0E1 		mov	r7, r0
 2583 03e4 0710A0E1 		mov	r1, r7
 2584 03e8 20009DE5 		ldr	r0, [sp, #32]	@ float
 2585 03ec FEFFFFEB 		bl	__aeabi_fadd
 2586 03f0 0610A0E1 		mov	r1, r6
 2587 03f4 0050A0E1 		mov	r5, r0
 2588 03f8 0A00A0E1 		mov	r0, sl
 2589 03fc FEFFFFEB 		bl	__aeabi_fadd
 2590 0400 0710A0E1 		mov	r1, r7
 2591 0404 0060A0E1 		mov	r6, r0
 2592 0408 0800A0E1 		mov	r0, r8
 2593 040c FEFFFFEB 		bl	__aeabi_fadd
 2594 0410 0070A0E1 		mov	r7, r0
 2595 0414 0510A0E1 		mov	r1, r5
 2596 0418 0400A0E1 		mov	r0, r4
 2597 041c 0620A0E1 		mov	r2, r6
 2598 0420 0730A0E1 		mov	r3, r7
 2599 0424 FEFFFFEB 		bl	nav_route_xy
 2600 0428 BC329FE5 		ldr	r3, .L369+52
 2601 042c 0600A0E1 		mov	r0, r6
 2602 0430 00308DE5 		str	r3, [sp, #0]	@ float
 2603 0434 0710A0E1 		mov	r1, r7
 2604 0438 0420A0E1 		mov	r2, r4
 2605 043c 0530A0E1 		mov	r3, r5
 2606 0440 FEFFFFEB 		bl	nav_approaching_xy
 2607 0444 000050E3 		cmp	r0, #0
 2608 0448 9700000A 		beq	.L304
 2609 044c 70329FE5 		ldr	r3, .L369+12
 2610 0450 0120A0E3 		mov	r2, #1
 2611 0454 0020C3E5 		strb	r2, [r3, #0]
 2612 0458 90329FE5 		ldr	r3, .L369+56
 2613 045c 0020D3E5 		ldrb	r2, [r3, #0]	@ zero_extendqisi2
 2614 0460 012082E2 		add	r2, r2, #1
 2615 0464 8C0000EA 		b	.L368
 2616              	.L311:
 2617 0468 1C109DE5 		ldr	r1, [sp, #28]	@ float
 2618 046c 0A00A0E1 		mov	r0, sl
 2619 0470 FEFFFFEB 		bl	__aeabi_fadd
 2620 0474 24109DE5 		ldr	r1, [sp, #36]	@ float
 2621 0478 0040A0E1 		mov	r4, r0
 2622 047c 0800A0E1 		mov	r0, r8
 2623 0480 FEFFFFEB 		bl	__aeabi_fadd
 2624 0484 10209DE5 		ldr	r2, [sp, #16]	@ float
 2625 0488 0010A0E1 		mov	r1, r0
 2626 048c 0400A0E1 		mov	r0, r4
 2627 0490 FEFFFFEB 		bl	nav_circle_XY
 2628 0494 0700A0E1 		mov	r0, r7
 2629 0498 FEFFFFEB 		bl	__aeabi_f2d
 2630 049c 2C229FE5 		ldr	r2, .L369+24
 2631 04a0 2C329FE5 		ldr	r3, .L369+28
 2632 04a4 FEFFFFEB 		bl	__aeabi_dmul
 2633 04a8 0060A0E1 		mov	r6, r0
 2634 04ac 0500A0E1 		mov	r0, r5
 2635 04b0 0170A0E1 		mov	r7, r1
 2636 04b4 FEFFFFEB 		bl	__aeabi_f2d
 2637 04b8 0020A0E1 		mov	r2, r0
 2638 04bc 0130A0E1 		mov	r3, r1
 2639 04c0 0600A0E1 		mov	r0, r6
 2640 04c4 0710A0E1 		mov	r1, r7
 2641 04c8 FEFFFFEB 		bl	__aeabi_dsub
 2642 04cc 04329FE5 		ldr	r3, .L369+32
 2643 04d0 0040A0E1 		mov	r4, r0
 2644 04d4 000093E5 		ldr	r0, [r3, #0]	@ float
 2645 04d8 0150A0E1 		mov	r5, r1
 2646 04dc FEFFFFEB 		bl	__aeabi_f2d
 2647 04e0 0020A0E1 		mov	r2, r0
 2648 04e4 0130A0E1 		mov	r3, r1
 2649 04e8 CC019FE5 		ldr	r0, .L369+4
 2650 04ec E8119FE5 		ldr	r1, .L369+36
 2651 04f0 FEFFFFEB 		bl	__aeabi_dsub
 2652 04f4 D4219FE5 		ldr	r2, .L369+24
 2653 04f8 D4319FE5 		ldr	r3, .L369+28
 2654 04fc FEFFFFEB 		bl	__aeabi_dmul
 2655 0500 FEFFFFEB 		bl	__aeabi_d2f
 2656 0504 0070A0E3 		mov	r7, #0
 2657 0508 0060A0E1 		mov	r6, r0
 2658 050c 030000EA 		b	.L333
 2659              	.L336:
 2660 0510 0600A0E1 		mov	r0, r6
 2661 0514 C4119FE5 		ldr	r1, .L369+40
 2662 0518 FEFFFFEB 		bl	__aeabi_fadd
 2663 051c 0060A0E1 		mov	r6, r0
 2664              	.L333:
 2665 0520 0600A0E1 		mov	r0, r6
 2666 0524 0010A0E3 		mov	r1, #0
 2667 0528 FEFFFFEB 		bl	__aeabi_fcmplt
 2668 052c 000050E3 		cmp	r0, #0
 2669 0530 FF8007E2 		and	r8, r7, #255
 2670 0534 0700000A 		beq	.L361
 2671 0538 017087E2 		add	r7, r7, #1
 2672 053c 010C57E3 		cmp	r7, #256
 2673 0540 F2FFFF1A 		bne	.L336
 2674 0544 0080A0E3 		mov	r8, #0
 2675 0548 020000EA 		b	.L361
 2676              	.L340:
 2677 054c 8C119FE5 		ldr	r1, .L369+40
 2678 0550 FEFFFFEB 		bl	__aeabi_fsub
 2679 0554 0060A0E1 		mov	r6, r0
 2680              	.L361:
 2681 0558 0600A0E1 		mov	r0, r6
 2682 055c 7C119FE5 		ldr	r1, .L369+40
 2683 0560 FEFFFFEB 		bl	__aeabi_fcmpge
 2684 0564 000050E3 		cmp	r0, #0
 2685 0568 0600A0E1 		mov	r0, r6
 2686 056c 0200000A 		beq	.L338
 2687 0570 018088E2 		add	r8, r8, #1
 2688 0574 FF8018E2 		ands	r8, r8, #255
 2689 0578 F3FFFF1A 		bne	.L340
 2690              	.L338:
 2691 057c FEFFFFEB 		bl	__aeabi_f2d
 2692 0580 0020A0E1 		mov	r2, r0
 2693 0584 0130A0E1 		mov	r3, r1
 2694 0588 0400A0E1 		mov	r0, r4
 2695 058c 0510A0E1 		mov	r1, r5
 2696 0590 FEFFFFEB 		bl	__aeabi_dsub
 2697 0594 FEFFFFEB 		bl	__aeabi_d2f
 2698 0598 0050A0E3 		mov	r5, #0
 2699 059c 0040A0E1 		mov	r4, r0
 2700 05a0 030000EA 		b	.L341
 2701              	.L344:
 2702 05a4 0400A0E1 		mov	r0, r4
 2703 05a8 30119FE5 		ldr	r1, .L369+40
 2704 05ac FEFFFFEB 		bl	__aeabi_fadd
 2705 05b0 0040A0E1 		mov	r4, r0
 2706              	.L341:
 2707 05b4 0400A0E1 		mov	r0, r4
 2708 05b8 0010A0E3 		mov	r1, #0
 2709 05bc FEFFFFEB 		bl	__aeabi_fcmplt
 2710 05c0 000050E3 		cmp	r0, #0
 2711 05c4 FF6005E2 		and	r6, r5, #255
 2712 05c8 0700000A 		beq	.L362
 2713 05cc 015085E2 		add	r5, r5, #1
 2714 05d0 010C55E3 		cmp	r5, #256
 2715 05d4 F2FFFF1A 		bne	.L344
 2716 05d8 0060A0E3 		mov	r6, #0
 2717 05dc 020000EA 		b	.L362
 2718              	.L348:
 2719 05e0 F8109FE5 		ldr	r1, .L369+40
 2720 05e4 FEFFFFEB 		bl	__aeabi_fsub
 2721 05e8 0040A0E1 		mov	r4, r0
 2722              	.L362:
 2723 05ec 0400A0E1 		mov	r0, r4
 2724 05f0 E8109FE5 		ldr	r1, .L369+40
 2725 05f4 FEFFFFEB 		bl	__aeabi_fcmpge
 2726 05f8 000050E3 		cmp	r0, #0
 2727 05fc 0400A0E1 		mov	r0, r4
 2728 0600 0200000A 		beq	.L346
 2729 0604 016086E2 		add	r6, r6, #1
 2730 0608 FF6016E2 		ands	r6, r6, #255
 2731 060c F3FFFF1A 		bne	.L348
 2732              	.L346:
 2733 0610 CC109FE5 		ldr	r1, .L369+44
 2734 0614 FEFFFFEB 		bl	__aeabi_fcmpgt
 2735 0618 000050E3 		cmp	r0, #0
 2736 061c 0400001A 		bne	.L349
 2737 0620 0400A0E1 		mov	r0, r4
 2738 0624 BC109FE5 		ldr	r1, .L369+48
 2739 0628 FEFFFFEB 		bl	__aeabi_fcmplt
 2740 062c 000050E3 		cmp	r0, #0
 2741 0630 1D00000A 		beq	.L304
 2742              	.L349:
 2743 0634 0220A0E3 		mov	r2, #2
 2744 0638 160000EA 		b	.L367
 2745              	.L312:
 2746 063c 28309DE5 		ldr	r3, [sp, #40]
 2747 0640 2C509DE5 		ldr	r5, [sp, #44]
 2748 0644 0C60A0E3 		mov	r6, #12
 2749 0648 960505E0 		mul	r5, r6, r5
 2750 064c 930606E0 		mul	r6, r3, r6
 2751 0650 60409FE5 		ldr	r4, .L369
 2752 0654 058084E0 		add	r8, r4, r5
 2753 0658 067084E0 		add	r7, r4, r6
 2754 065c 050094E7 		ldr	r0, [r4, r5]	@ float
 2755 0660 041098E5 		ldr	r1, [r8, #4]	@ float
 2756 0664 062094E7 		ldr	r2, [r4, r6]	@ float
 2757 0668 043097E5 		ldr	r3, [r7, #4]	@ float
 2758 066c FEFFFFEB 		bl	nav_route_xy
 2759 0670 74309FE5 		ldr	r3, .L369+52
 2760 0674 00308DE5 		str	r3, [sp, #0]	@ float
 2761 0678 060094E7 		ldr	r0, [r4, r6]	@ float
 2762 067c 041097E5 		ldr	r1, [r7, #4]	@ float
 2763 0680 052094E7 		ldr	r2, [r4, r5]	@ float
 2764 0684 043098E5 		ldr	r3, [r8, #4]	@ float
 2765 0688 FEFFFFEB 		bl	nav_approaching_xy
 2766 068c 000050E3 		cmp	r0, #0
 2767 0690 0500000A 		beq	.L304
 2768 0694 0320A0E3 		mov	r2, #3
 2769              	.L367:
 2770 0698 24309FE5 		ldr	r3, .L369+12
 2771              	.L368:
 2772 069c 0020C3E5 		strb	r2, [r3, #0]
 2773 06a0 34D08DE2 		add	sp, sp, #52
 2774 06a4 F04FBDE8 		ldmfd	sp!, {r4, r5, r6, r7, r8, r9, sl, fp, lr}
 2775 06a8 FEFFFFEA 		b	nav_init_stage
 2776              	.L304:
 2777 06ac 34D08DE2 		add	sp, sp, #52
 2778 06b0 F04FBDE8 		ldmfd	sp!, {r4, r5, r6, r7, r8, r9, sl, fp, lr}
 2779 06b4 1EFF2FE1 		bx	lr
 2780              	.L370:
 2781              		.align	2
 2782              	.L369:
 2783 06b8 00000000 		.word	.LANCHOR7
 2784 06bc 182D4454 		.word	1413754136
 2785 06c0 FB210940 		.word	1074340347
 2786 06c4 00000000 		.word	oval_status
 2787 06c8 000070C1 		.word	-1049624576
 2788 06cc 00007041 		.word	1097859072
 2789 06d0 F8C1631A 		.word	442745336
 2790 06d4 DCA54C40 		.word	1078765020
 2791 06d8 00000000 		.word	nav_circle_trigo_qdr
 2792 06dc FB21F93F 		.word	1073291771
 2793 06e0 0000B443 		.word	1135869952
 2794 06e4 0000AF43 		.word	1135542272
 2795 06e8 00002041 		.word	1092616192
 2796 06ec 0000A040 		.word	1084227584
 2797 06f0 00000000 		.word	nav_oval_count
 2799              		.comm	nav_oval_count,1,1
 2800              		.global	max_dist_from_home
 2801              		.global	nav_utm_zone0
 2802              		.global	nav_utm_north0
 2803              		.global	nav_utm_east0
 2804              		.comm	ground_alt,4,4
 2805              		.global	waypoints
 2806              		.global	nb_waypoint
 2807              		.comm	too_far_from_home,1,1
 2808              		.comm	dist2_to_wp,4,4
 2809              		.comm	dist2_to_home,4,4
 2810              		.comm	fp_pitch,4,4
 2811              		.comm	nav_pitch,4,4
 2812              		.comm	nav_throttle_setpoint,2,2
 2813              		.comm	desired_y,4,4
 2814              		.comm	desired_x,4,4
 2815              		.global	nav_altitude
 2816              		.comm	nav_mode,4,4
 2817              		.comm	nav_survey_active,1,1
 2818              		.comm	nav_survey_south,4,4
 2819              		.comm	nav_survey_north,4,4
 2820              		.comm	nav_survey_east,4,4
 2821              		.comm	nav_survey_west,4,4
 2822              		.comm	nav_survey_shift,4,4
 2823              		.comm	nav_ground_speed_pgain,4,4
 2824              		.comm	nav_ground_speed_setpoint,4,4
 2825              		.comm	nav_glide_pitch_trim,4,4
 2826              		.comm	flight_altitude,4,4
 2827              		.global	circle_bank
 2828              		.comm	horizontal_mode,1,1
 2829              		.comm	nav_segment_y_2,4,4
 2830              		.comm	nav_segment_x_2,4,4
 2831              		.comm	nav_segment_y_1,4,4
 2832              		.comm	nav_segment_x_1,4,4
 2833              		.comm	nav_circle_radius,4,4
 2834              		.comm	nav_circle_y,4,4
 2835              		.comm	nav_circle_x,4,4
 2836              		.global	nav_in_segment
 2837              		.global	nav_in_circle
 2838              		.comm	nav_shift,4,4
 2839              		.comm	nav_climb,4,4
 2840              		.comm	nav_course,4,4
 2841              		.comm	nav_radius,4,4
 2842              		.comm	nav_circle_trigo_qdr,4,4
 2843              		.comm	nav_circle_radians,4,4
 2844              		.comm	carrot_y,4,4
 2845              		.comm	carrot_x,4,4
 2846              		.comm	rc_pitch,4,4
 2847              		.comm	last_y,4,4
 2848              		.comm	last_x,4,4
 2849              		.comm	oval_status,1,1
 2850              		.section	.bss.previous_ground_alt,"aw",%nobits
 2851              		.align	2
 2852              		.set	.LANCHOR11,. + 0
 2855              	previous_ground_alt:
 2856 0000 00000000 		.space	4
 2857              		.section	.bss.last_nav_altitude.4004,"aw",%nobits
 2858              		.align	2
 2859              		.set	.LANCHOR1,. + 0
 2862              	last_nav_altitude.4004:
 2863 0000 00000000 		.space	4
 2864              		.section	.data.max_dist_from_home,"aw",%progbits
 2865              		.align	2
 2866              		.set	.LANCHOR13,. + 0
 2869              	max_dist_from_home:
 2870 0000 0080BB44 		.word	1153138688
 2871              		.section	.data.nav_utm_zone0,"aw",%progbits
 2872              		.set	.LANCHOR8,. + 0
 2875              	nav_utm_zone0:
 2876 0000 12       		.byte	18
 2877              		.section	.data.nav_utm_north0,"aw",%progbits
 2878              		.align	2
 2879              		.set	.LANCHOR10,. + 0
 2882              	nav_utm_north0:
 2883 0000 52704000 		.word	4223058
 2884              		.section	.data.nav_altitude,"aw",%progbits
 2885              		.align	2
 2886              		.set	.LANCHOR0,. + 0
 2889              	nav_altitude:
 2890 0000 00004842 		.word	1112014848
 2891              		.section	.bss.nav_in_segment,"aw",%nobits
 2892              		.set	.LANCHOR3,. + 0
 2895              	nav_in_segment:
 2896 0000 00       		.space	1
 2897              		.section	.bss.prescaler.3992,"aw",%nobits
 2898              		.align	1
 2899              		.set	.LANCHOR12,. + 0
 2902              	prescaler.3992:
 2903 0000 0000     		.space	2
 2904              		.section	.data.waypoints,"aw",%progbits
 2905              		.align	2
 2906              		.set	.LANCHOR7,. + 0
 2909              	waypoints:
 2910 0000 00002842 		.word	1109917696
 2911 0004 00002842 		.word	1109917696
 2912 0008 00009642 		.word	1117126656
 2913 000c 00000000 		.word	0
 2914 0010 00000000 		.word	0
 2915 0014 00009642 		.word	1117126656
 2916              		.section	.rodata.nb_waypoint,"a",%progbits
 2919              	nb_waypoint:
 2920 0000 02       		.byte	2
 2921              		.section	.bss.nav_in_circle,"aw",%nobits
 2922              		.set	.LANCHOR2,. + 0
 2925              	nav_in_circle:
 2926 0000 00       		.space	1
 2927              		.section	.bss.nav_leg_length,"aw",%nobits
 2928              		.align	2
 2929              		.set	.LANCHOR5,. + 0
 2932              	nav_leg_length:
 2933 0000 00000000 		.space	4
 2934              		.section	.bss.eight_status,"aw",%nobits
 2935              		.set	.LANCHOR14,. + 0
 2938              	eight_status:
 2939 0000 00       		.space	1
 2940              		.section	.data.nav_utm_east0,"aw",%progbits
 2941              		.align	2
 2942              		.set	.LANCHOR9,. + 0
 2945              	nav_utm_east0:
 2946 0000 69B80500 		.word	374889
 2947              		.section	.bss.circle_bank,"aw",%nobits
 2948              		.align	2
 2949              		.set	.LANCHOR4,. + 0
 2952              	circle_bank:
 2953 0000 00000000 		.space	4
 2954              		.section	.bss.nav_leg_progress,"aw",%nobits
 2955              		.align	2
 2956              		.set	.LANCHOR6,. + 0
 2959              	nav_leg_progress:
 2960 0000 00000000 		.space	4
 2961              		.ident	"GCC: (Linaro GCC 4.6-2011.09-1) 4.6.2 20110908 (prerelease)"