   1              		.cpu arm7tdmi
   2              		.fpu softvfp
   3              		.eabi_attribute 20, 1
   4              		.eabi_attribute 21, 1
   5              		.eabi_attribute 23, 3
   6              		.eabi_attribute 24, 1
   7              		.eabi_attribute 25, 1
   8              		.eabi_attribute 26, 1
   9              		.eabi_attribute 30, 4
  10              		.eabi_attribute 18, 4
  11              		.file	"nav.c"
  12              		.global	__aeabi_fsub
  13              		.global	__aeabi_fcmpgt
  14              		.section	.text.nav_set_altitude,"ax",%progbits
  15              		.align	2
  17              	nav_set_altitude:
  18              		@ Function supports interworking.
  19              		@ args = 0, pretend = 0, frame = 0
  20              		@ frame_needed = 0, uses_anonymous_args = 0
  21 0000 38402DE9 		stmfd	sp!, {r3, r4, r5, lr}
  22 0004 40309FE5 		ldr	r3, .L5
  23 0008 40509FE5 		ldr	r5, .L5+4
  24 000c 004093E5 		ldr	r4, [r3, #0]	@ float
  25 0010 001095E5 		ldr	r1, [r5, #0]	@ float
  26 0014 0400A0E1 		mov	r0, r4
  27 0018 FEFFFFEB 		bl	__aeabi_fsub
  28 001c FE15A0E3 		mov	r1, #1065353216
  29 0020 0201C0E3 		bic	r0, r0, #-2147483648
  30 0024 FEFFFFEB 		bl	__aeabi_fcmpgt
  31 0028 24309FE5 		ldr	r3, .L5+8
  32 002c 000050E3 		cmp	r0, #0
  33 0030 00408315 		strne	r4, [r3, #0]	@ float
  34 0034 002093E5 		ldr	r2, [r3, #0]	@ float
  35 0038 18309FE5 		ldr	r3, .L5+12
  36 003c 00408515 		strne	r4, [r5, #0]	@ float
  37 0040 002083E5 		str	r2, [r3, #0]	@ float
  38 0044 3840BDE8 		ldmfd	sp!, {r3, r4, r5, lr}
  39 0048 1EFF2FE1 		bx	lr
  40              	.L6:
  41              		.align	2
  42              	.L5:
  43 004c 00000000 		.word	.LANCHOR0
  44 0050 00000000 		.word	.LANCHOR1
  45 0054 00000000 		.word	flight_altitude
  46 0058 00000000 		.word	v_ctl_altitude_setpoint
  48              		.section	.text.nav_init_stage,"ax",%progbits
  49              		.align	2
  50              		.global	nav_init_stage
  52              	nav_init_stage:
  53              		@ Function supports interworking.
  54              		@ args = 0, pretend = 0, frame = 0
  55              		@ frame_needed = 0, uses_anonymous_args = 0
  56              		@ link register save eliminated.
  57 0000 54309FE5 		ldr	r3, .L8
  58 0004 002093E5 		ldr	r2, [r3, #0]	@ float
  59 0008 50309FE5 		ldr	r3, .L8+4
  60 000c 002083E5 		str	r2, [r3, #0]	@ float
  61 0010 4C309FE5 		ldr	r3, .L8+8
  62 0014 002093E5 		ldr	r2, [r3, #0]	@ float
  63 0018 48309FE5 		ldr	r3, .L8+12
  64 001c 002083E5 		str	r2, [r3, #0]	@ float
  65 0020 44309FE5 		ldr	r3, .L8+16
  66 0024 0020A0E3 		mov	r2, #0
  67 0028 40109FE5 		ldr	r1, .L8+20
  68 002c B020C3E1 		strh	r2, [r3, #0]	@ movhi
  69 0030 0030A0E3 		mov	r3, #0
  70 0034 003081E5 		str	r3, [r1, #0]	@ float
  71 0038 34109FE5 		ldr	r1, .L8+24
  72 003c 0020C1E5 		strb	r2, [r1, #0]
  73 0040 30109FE5 		ldr	r1, .L8+28
  74 0044 0020C1E5 		strb	r2, [r1, #0]
  75 0048 2C209FE5 		ldr	r2, .L8+32
  76 004c 003082E5 		str	r3, [r2, #0]	@ float
  77 0050 28209FE5 		ldr	r2, .L8+36
  78 0054 003082E5 		str	r3, [r2, #0]	@ float
  79 0058 1EFF2FE1 		bx	lr
  80              	.L9:
  81              		.align	2
  82              	.L8:
  83 005c 00000000 		.word	estimator_x
  84 0060 00000000 		.word	last_x
  85 0064 00000000 		.word	estimator_y
  86 0068 00000000 		.word	last_y
  87 006c 00000000 		.word	stage_time
  88 0070 00000000 		.word	nav_circle_radians
  89 0074 00000000 		.word	.LANCHOR2
  90 0078 00000000 		.word	.LANCHOR3
  91 007c 00000000 		.word	nav_shift
  92 0080 00000000 		.word	nav_pitch
  94              		.global	__aeabi_fmul
  95              		.global	__aeabi_fadd
  96              		.global	__aeabi_fcmplt
  97              		.section	.text.nav_approaching_xy,"ax",%progbits
  98              		.align	2
  99              		.global	nav_approaching_xy
 101              	nav_approaching_xy:
 102              		@ Function supports interworking.
 103              		@ args = 4, pretend = 0, frame = 0
 104              		@ frame_needed = 0, uses_anonymous_args = 0
 105 0000 F0472DE9 		stmfd	sp!, {r4, r5, r6, r7, r8, r9, sl, lr}
 106 0004 0390A0E1 		mov	r9, r3
 107 0008 E4309FE5 		ldr	r3, .L14
 108 000c 0140A0E1 		mov	r4, r1
 109 0010 001093E5 		ldr	r1, [r3, #0]	@ float
 110 0014 0260A0E1 		mov	r6, r2
 111 0018 0050A0E1 		mov	r5, r0
 112 001c FEFFFFEB 		bl	__aeabi_fsub
 113 0020 D0309FE5 		ldr	r3, .L14+4
 114 0024 0080A0E1 		mov	r8, r0
 115 0028 001093E5 		ldr	r1, [r3, #0]	@ float
 116 002c 0400A0E1 		mov	r0, r4
 117 0030 FEFFFFEB 		bl	__aeabi_fsub
 118 0034 0810A0E1 		mov	r1, r8
 119 0038 0070A0E1 		mov	r7, r0
 120 003c 0800A0E1 		mov	r0, r8
 121 0040 FEFFFFEB 		bl	__aeabi_fmul
 122 0044 0710A0E1 		mov	r1, r7
 123 0048 00A0A0E1 		mov	sl, r0
 124 004c 0700A0E1 		mov	r0, r7
 125 0050 FEFFFFEB 		bl	__aeabi_fmul
 126 0054 0010A0E1 		mov	r1, r0
 127 0058 0A00A0E1 		mov	r0, sl
 128 005c FEFFFFEB 		bl	__aeabi_fadd
 129 0060 94309FE5 		ldr	r3, .L14+8
 130 0064 000083E5 		str	r0, [r3, #0]	@ float
 131 0068 90309FE5 		ldr	r3, .L14+12
 132 006c 00A0A0E1 		mov	sl, r0
 133 0070 001093E5 		ldr	r1, [r3, #0]	@ float
 134 0074 20009DE5 		ldr	r0, [sp, #32]	@ float
 135 0078 FEFFFFEB 		bl	__aeabi_fmul
 136 007c 0010A0E1 		mov	r1, r0
 137 0080 FEFFFFEB 		bl	__aeabi_fmul
 138 0084 0010A0E1 		mov	r1, r0
 139 0088 0A00A0E1 		mov	r0, sl
 140 008c FEFFFFEB 		bl	__aeabi_fcmplt
 141 0090 000050E3 		cmp	r0, #0
 142 0094 0100A013 		movne	r0, #1
 143 0098 1300001A 		bne	.L11
 144 009c 0500A0E1 		mov	r0, r5
 145 00a0 0610A0E1 		mov	r1, r6
 146 00a4 FEFFFFEB 		bl	__aeabi_fsub
 147 00a8 0810A0E1 		mov	r1, r8
 148 00ac FEFFFFEB 		bl	__aeabi_fmul
 149 00b0 0910A0E1 		mov	r1, r9
 150 00b4 0050A0E1 		mov	r5, r0
 151 00b8 0400A0E1 		mov	r0, r4
 152 00bc FEFFFFEB 		bl	__aeabi_fsub
 153 00c0 0710A0E1 		mov	r1, r7
 154 00c4 FEFFFFEB 		bl	__aeabi_fmul
 155 00c8 0010A0E1 		mov	r1, r0
 156 00cc 0500A0E1 		mov	r0, r5
 157 00d0 FEFFFFEB 		bl	__aeabi_fadd
 158 00d4 0010A0E3 		mov	r1, #0
 159 00d8 FEFFFFEB 		bl	__aeabi_fcmplt
 160 00dc 000050E3 		cmp	r0, #0
 161 00e0 0140A0E3 		mov	r4, #1
 162 00e4 0040A001 		moveq	r4, r0
 163 00e8 FF0004E2 		and	r0, r4, #255
 164              	.L11:
 165 00ec F047BDE8 		ldmfd	sp!, {r4, r5, r6, r7, r8, r9, sl, lr}
 166 00f0 1EFF2FE1 		bx	lr
 167              	.L15:
 168              		.align	2
 169              	.L14:
 170 00f4 00000000 		.word	estimator_x
 171 00f8 00000000 		.word	estimator_y
 172 00fc 00000000 		.word	dist2_to_wp
 173 0100 00000000 		.word	estimator_hspeed_mod
 175              		.global	__aeabi_f2d
 176              		.global	__aeabi_d2f
 177              		.global	__aeabi_dadd
 178              		.global	__aeabi_dsub
 179              		.global	__aeabi_dcmpgt
 180              		.global	__aeabi_dcmplt
 181              		.global	__aeabi_ddiv
 182              		.section	.text.fly_to_xy,"ax",%progbits
 183              		.align	2
 184              		.global	fly_to_xy
 186              	fly_to_xy:
 187              		@ Function supports interworking.
 188              		@ args = 0, pretend = 0, frame = 0
 189              		@ frame_needed = 0, uses_anonymous_args = 0
 190 0000 F8402DE9 		stmfd	sp!, {r3, r4, r5, r6, r7, lr}
 191 0004 70329FE5 		ldr	r3, .L40
 192 0008 000083E5 		str	r0, [r3, #0]	@ float
 193 000c 6C329FE5 		ldr	r3, .L40+4
 194 0010 001083E5 		str	r1, [r3, #0]	@ float
 195 0014 68329FE5 		ldr	r3, .L40+8
 196 0018 003093E5 		ldr	r3, [r3, #0]
 197 001c 020053E3 		cmp	r3, #2
 198 0020 60329FE5 		ldr	r3, .L40+12
 199 0024 0140A0E1 		mov	r4, r1
 200 0028 5C529FE5 		ldr	r5, .L40+16
 201 002c 001093E5 		ldr	r1, [r3, #0]	@ float
 202 0030 1D00001A 		bne	.L17
 203 0034 FEFFFFEB 		bl	__aeabi_fsub
 204 0038 FEFFFFEB 		bl	__aeabi_f2d
 205 003c 0060A0E1 		mov	r6, r0
 206 0040 0170A0E1 		mov	r7, r1
 207 0044 0400A0E1 		mov	r0, r4
 208 0048 001095E5 		ldr	r1, [r5, #0]	@ float
 209 004c FEFFFFEB 		bl	__aeabi_fsub
 210 0050 FEFFFFEB 		bl	__aeabi_f2d
 211 0054 0020A0E1 		mov	r2, r0
 212 0058 0130A0E1 		mov	r3, r1
 213 005c 0600A0E1 		mov	r0, r6
 214 0060 0710A0E1 		mov	r1, r7
 215 0064 FEFFFFEB 		bl	atan2
 216 0068 FEFFFFEB 		bl	__aeabi_d2f
 217 006c 1C429FE5 		ldr	r4, .L40+20
 218 0070 0010A0E3 		mov	r1, #0
 219 0074 000084E5 		str	r0, [r4, #0]	@ float
 220 0078 0050A0E1 		mov	r5, r0
 221 007c FEFFFFEB 		bl	__aeabi_fcmplt
 222 0080 000050E3 		cmp	r0, #0
 223 0084 0600000A 		beq	.L18
 224 0088 0500A0E1 		mov	r0, r5
 225 008c FEFFFFEB 		bl	__aeabi_f2d
 226 0090 FC219FE5 		ldr	r2, .L40+24
 227 0094 FC319FE5 		ldr	r3, .L40+28
 228 0098 FEFFFFEB 		bl	__aeabi_dadd
 229 009c FEFFFFEB 		bl	__aeabi_d2f
 230 00a0 000084E5 		str	r0, [r4, #0]	@ float
 231              	.L18:
 232 00a4 0320A0E3 		mov	r2, #3
 233 00a8 6F0000EA 		b	.L39
 234              	.L17:
 235 00ac FEFFFFEB 		bl	__aeabi_fsub
 236 00b0 FEFFFFEB 		bl	__aeabi_f2d
 237 00b4 0060A0E1 		mov	r6, r0
 238 00b8 0170A0E1 		mov	r7, r1
 239 00bc 0400A0E1 		mov	r0, r4
 240 00c0 001095E5 		ldr	r1, [r5, #0]	@ float
 241 00c4 FEFFFFEB 		bl	__aeabi_fsub
 242 00c8 FEFFFFEB 		bl	__aeabi_f2d
 243 00cc 0020A0E1 		mov	r2, r0
 244 00d0 0130A0E1 		mov	r3, r1
 245 00d4 0600A0E1 		mov	r0, r6
 246 00d8 0710A0E1 		mov	r1, r7
 247 00dc FEFFFFEB 		bl	atan2
 248 00e0 B4319FE5 		ldr	r3, .L40+32
 249 00e4 0040A0E1 		mov	r4, r0
 250 00e8 000093E5 		ldr	r0, [r3, #0]	@ float
 251 00ec 0150A0E1 		mov	r5, r1
 252 00f0 FEFFFFEB 		bl	__aeabi_f2d
 253 00f4 0020A0E1 		mov	r2, r0
 254 00f8 0130A0E1 		mov	r3, r1
 255 00fc 0400A0E1 		mov	r0, r4
 256 0100 0510A0E1 		mov	r1, r5
 257 0104 030000EA 		b	.L37
 258              	.L22:
 259 0108 84219FE5 		ldr	r2, .L40+24
 260 010c 84319FE5 		ldr	r3, .L40+28
 261 0110 0600A0E1 		mov	r0, r6
 262 0114 0710A0E1 		mov	r1, r7
 263              	.L37:
 264 0118 FEFFFFEB 		bl	__aeabi_dsub
 265 011c FEFFFFEB 		bl	__aeabi_d2f
 266 0120 0040A0E1 		mov	r4, r0
 267 0124 FEFFFFEB 		bl	__aeabi_f2d
 268 0128 64219FE5 		ldr	r2, .L40+24
 269 012c 6C319FE5 		ldr	r3, .L40+36
 270 0130 0060A0E1 		mov	r6, r0
 271 0134 0170A0E1 		mov	r7, r1
 272 0138 FEFFFFEB 		bl	__aeabi_dcmpgt
 273 013c 000050E3 		cmp	r0, #0
 274 0140 F0FFFF1A 		bne	.L22
 275 0144 030000EA 		b	.L35
 276              	.L24:
 277 0148 48319FE5 		ldr	r3, .L40+28
 278 014c FEFFFFEB 		bl	__aeabi_dadd
 279 0150 FEFFFFEB 		bl	__aeabi_d2f
 280 0154 0040A0E1 		mov	r4, r0
 281              	.L35:
 282 0158 0400A0E1 		mov	r0, r4
 283 015c FEFFFFEB 		bl	__aeabi_f2d
 284 0160 2C219FE5 		ldr	r2, .L40+24
 285 0164 38319FE5 		ldr	r3, .L40+40
 286 0168 0060A0E1 		mov	r6, r0
 287 016c 0170A0E1 		mov	r7, r1
 288 0170 FEFFFFEB 		bl	__aeabi_dcmplt
 289 0174 000050E3 		cmp	r0, #0
 290 0178 0710A0E1 		mov	r1, r7
 291 017c 0600A0E1 		mov	r0, r6
 292 0180 0C219FE5 		ldr	r2, .L40+24
 293 0184 EFFFFF1A 		bne	.L24
 294 0188 18319FE5 		ldr	r3, .L40+44
 295 018c FEFFFFEB 		bl	__aeabi_dcmpgt
 296 0190 000050E3 		cmp	r0, #0
 297 0194 10419F15 		ldrne	r4, .L40+48
 298 0198 0600001A 		bne	.L25
 299 019c 0600A0E1 		mov	r0, r6
 300 01a0 0710A0E1 		mov	r1, r7
 301 01a4 E8209FE5 		ldr	r2, .L40+24
 302 01a8 00319FE5 		ldr	r3, .L40+52
 303 01ac FEFFFFEB 		bl	__aeabi_dcmplt
 304 01b0 000050E3 		cmp	r0, #0
 305 01b4 F8409F15 		ldrne	r4, .L40+56
 306              	.L25:
 307 01b8 0400A0E1 		mov	r0, r4
 308 01bc FEFFFFEB 		bl	__aeabi_f2d
 309 01c0 FEFFFFEB 		bl	sin
 310 01c4 EC309FE5 		ldr	r3, .L40+60
 311 01c8 004093E5 		ldr	r4, [r3, #0]	@ float
 312 01cc 0060A0E1 		mov	r6, r0
 313 01d0 0170A0E1 		mov	r7, r1
 314 01d4 0400A0E1 		mov	r0, r4
 315 01d8 0410A0E1 		mov	r1, r4
 316 01dc FEFFFFEB 		bl	__aeabi_fadd
 317 01e0 0410A0E1 		mov	r1, r4
 318 01e4 FEFFFFEB 		bl	__aeabi_fmul
 319 01e8 0710A0E1 		mov	r1, r7
 320 01ec 0040A0E1 		mov	r4, r0
 321 01f0 0600A0E1 		mov	r0, r6
 322 01f4 FEFFFFEB 		bl	__aeabi_d2f
 323 01f8 0010A0E1 		mov	r1, r0
 324 01fc 0400A0E1 		mov	r0, r4
 325 0200 FEFFFFEB 		bl	__aeabi_fmul
 326 0204 B0309FE5 		ldr	r3, .L40+64
 327 0208 001093E5 		ldr	r1, [r3, #0]	@ float
 328 020c FEFFFFEB 		bl	__aeabi_fmul
 329 0210 FEFFFFEB 		bl	__aeabi_f2d
 330 0214 A4209FE5 		ldr	r2, .L40+68
 331 0218 A4309FE5 		ldr	r3, .L40+72
 332 021c FEFFFFEB 		bl	__aeabi_ddiv
 333 0220 FEFFFFEB 		bl	atan
 334 0224 FEFFFFEB 		bl	__aeabi_d2f
 335 0228 98309FE5 		ldr	r3, .L40+76
 336 022c 98409FE5 		ldr	r4, .L40+80
 337 0230 005093E5 		ldr	r5, [r3, #0]	@ float
 338 0234 000084E5 		str	r0, [r4, #0]	@ float
 339 0238 0510A0E1 		mov	r1, r5
 340 023c 0060A0E1 		mov	r6, r0
 341 0240 FEFFFFEB 		bl	__aeabi_fcmpgt
 342 0244 000050E3 		cmp	r0, #0
 343 0248 0500001A 		bne	.L38
 344              	.L36:
 345 024c 025185E2 		add	r5, r5, #-2147483648
 346 0250 0600A0E1 		mov	r0, r6
 347 0254 0510A0E1 		mov	r1, r5
 348 0258 FEFFFFEB 		bl	__aeabi_fcmplt
 349 025c 000050E3 		cmp	r0, #0
 350 0260 0000000A 		beq	.L28
 351              	.L38:
 352 0264 005084E5 		str	r5, [r4, #0]	@ float
 353              	.L28:
 354 0268 0220A0E3 		mov	r2, #2
 355              	.L39:
 356 026c 5C309FE5 		ldr	r3, .L40+84
 357 0270 0020C3E5 		strb	r2, [r3, #0]
 358 0274 F840BDE8 		ldmfd	sp!, {r3, r4, r5, r6, r7, lr}
 359 0278 1EFF2FE1 		bx	lr
 360              	.L41:
 361              		.align	2
 362              	.L40:
 363 027c 00000000 		.word	desired_x
 364 0280 00000000 		.word	desired_y
 365 0284 00000000 		.word	nav_mode
 366 0288 00000000 		.word	estimator_x
 367 028c 00000000 		.word	estimator_y
 368 0290 00000000 		.word	h_ctl_course_setpoint
 369 0294 182D4454 		.word	1413754136
 370 0298 FB211940 		.word	1075388923
 371 029c 00000000 		.word	estimator_hspeed_dir
 372 02a0 FB210940 		.word	1074340347
 373 02a4 FB2109C0 		.word	-1073143301
 374 02a8 FB21F93F 		.word	1073291771
 375 02ac DB0FC93F 		.word	1070141403
 376 02b0 FB21F9BF 		.word	-1074191877
 377 02b4 DB0FC9BF 		.word	-1077342245
 378 02b8 00000000 		.word	estimator_hspeed_mod
 379 02bc 00000000 		.word	h_ctl_course_pgain
 380 02c0 34333333 		.word	858993460
 381 02c4 33978B40 		.word	1082890035
 382 02c8 00000000 		.word	h_ctl_roll_max_setpoint
 383 02cc 00000000 		.word	h_ctl_roll_setpoint
 384 02d0 00000000 		.word	lateral_mode
 386              		.global	__aeabi_dmul
 387              		.global	__aeabi_fdiv
 388              		.section	.text.nav_circle_XY,"ax",%progbits
 389              		.align	2
 390              		.global	nav_circle_XY
 392              	nav_circle_XY:
 393              		@ Function supports interworking.
 394              		@ args = 0, pretend = 0, frame = 24
 395              		@ frame_needed = 0, uses_anonymous_args = 0
 396 0000 F04F2DE9 		stmfd	sp!, {r4, r5, r6, r7, r8, r9, sl, fp, lr}
 397 0004 30349FE5 		ldr	r3, .L64
 398 0008 1CD04DE2 		sub	sp, sp, #28
 399 000c 00B0A0E1 		mov	fp, r0
 400 0010 000093E5 		ldr	r0, [r3, #0]	@ float
 401 0014 0250A0E1 		mov	r5, r2
 402 0018 0C108DE5 		str	r1, [sp, #12]	@ float
 403 001c FEFFFFEB 		bl	__aeabi_fsub
 404 0020 FEFFFFEB 		bl	__aeabi_f2d
 405 0024 14349FE5 		ldr	r3, .L64+4
 406 0028 0080A0E1 		mov	r8, r0
 407 002c 0190A0E1 		mov	r9, r1
 408 0030 000093E5 		ldr	r0, [r3, #0]	@ float
 409 0034 0B10A0E1 		mov	r1, fp
 410 0038 FEFFFFEB 		bl	__aeabi_fsub
 411 003c FEFFFFEB 		bl	__aeabi_f2d
 412 0040 FC439FE5 		ldr	r4, .L64+8
 413 0044 0130A0E1 		mov	r3, r1
 414 0048 0020A0E1 		mov	r2, r0
 415 004c 0910A0E1 		mov	r1, r9
 416 0050 0800A0E1 		mov	r0, r8
 417 0054 006094E5 		ldr	r6, [r4, #0]	@ float
 418 0058 FEFFFFEB 		bl	atan2
 419 005c FEFFFFEB 		bl	__aeabi_d2f
 420 0060 E0339FE5 		ldr	r3, .L64+12
 421 0064 0030D3E5 		ldrb	r3, [r3, #0]	@ zero_extendqisi2
 422 0068 000053E3 		cmp	r3, #0
 423 006c 0070A0E1 		mov	r7, r0
 424 0070 000084E5 		str	r0, [r4, #0]	@ float
 425 0074 2700000A 		beq	.L43
 426 0078 0610A0E1 		mov	r1, r6
 427 007c FEFFFFEB 		bl	__aeabi_fsub
 428 0080 050000EA 		b	.L63
 429              	.L45:
 430 0084 C0239FE5 		ldr	r2, .L64+16
 431 0088 C0339FE5 		ldr	r3, .L64+20
 432 008c 0800A0E1 		mov	r0, r8
 433 0090 0910A0E1 		mov	r1, r9
 434 0094 FEFFFFEB 		bl	__aeabi_dsub
 435 0098 FEFFFFEB 		bl	__aeabi_d2f
 436              	.L63:
 437 009c 0040A0E1 		mov	r4, r0
 438 00a0 FEFFFFEB 		bl	__aeabi_f2d
 439 00a4 A0239FE5 		ldr	r2, .L64+16
 440 00a8 A4339FE5 		ldr	r3, .L64+24
 441 00ac 0080A0E1 		mov	r8, r0
 442 00b0 0190A0E1 		mov	r9, r1
 443 00b4 FEFFFFEB 		bl	__aeabi_dcmpgt
 444 00b8 000050E3 		cmp	r0, #0
 445 00bc F0FFFF1A 		bne	.L45
 446 00c0 060000EA 		b	.L61
 447              	.L47:
 448 00c4 80239FE5 		ldr	r2, .L64+16
 449 00c8 80339FE5 		ldr	r3, .L64+20
 450 00cc 0800A0E1 		mov	r0, r8
 451 00d0 0910A0E1 		mov	r1, r9
 452 00d4 FEFFFFEB 		bl	__aeabi_dadd
 453 00d8 FEFFFFEB 		bl	__aeabi_d2f
 454 00dc 0040A0E1 		mov	r4, r0
 455              	.L61:
 456 00e0 0400A0E1 		mov	r0, r4
 457 00e4 FEFFFFEB 		bl	__aeabi_f2d
 458 00e8 5C239FE5 		ldr	r2, .L64+16
 459 00ec 64339FE5 		ldr	r3, .L64+28
 460 00f0 0080A0E1 		mov	r8, r0
 461 00f4 0190A0E1 		mov	r9, r1
 462 00f8 FEFFFFEB 		bl	__aeabi_dcmplt
 463 00fc 000050E3 		cmp	r0, #0
 464 0100 EFFFFF1A 		bne	.L47
 465 0104 50639FE5 		ldr	r6, .L64+32
 466 0108 0410A0E1 		mov	r1, r4
 467 010c 000096E5 		ldr	r0, [r6, #0]	@ float
 468 0110 FEFFFFEB 		bl	__aeabi_fadd
 469 0114 000086E5 		str	r0, [r6, #0]	@ float
 470              	.L43:
 471 0118 20339FE5 		ldr	r3, .L64+4
 472 011c 0B10A0E1 		mov	r1, fp
 473 0120 000093E5 		ldr	r0, [r3, #0]	@ float
 474 0124 FEFFFFEB 		bl	__aeabi_fsub
 475 0128 0C339FE5 		ldr	r3, .L64
 476 012c 0040A0E1 		mov	r4, r0
 477 0130 0C109DE5 		ldr	r1, [sp, #12]	@ float
 478 0134 000093E5 		ldr	r0, [r3, #0]	@ float
 479 0138 FEFFFFEB 		bl	__aeabi_fsub
 480 013c 0410A0E1 		mov	r1, r4
 481 0140 0060A0E1 		mov	r6, r0
 482 0144 0400A0E1 		mov	r0, r4
 483 0148 FEFFFFEB 		bl	__aeabi_fmul
 484 014c 0610A0E1 		mov	r1, r6
 485 0150 0040A0E1 		mov	r4, r0
 486 0154 0600A0E1 		mov	r0, r6
 487 0158 FEFFFFEB 		bl	__aeabi_fmul
 488 015c 0010A0E1 		mov	r1, r0
 489 0160 0400A0E1 		mov	r0, r4
 490 0164 FEFFFFEB 		bl	__aeabi_fadd
 491 0168 0010A0E3 		mov	r1, #0
 492 016c 0080A0E1 		mov	r8, r0
 493 0170 0500A0E1 		mov	r0, r5
 494 0174 FEFFFFEB 		bl	__aeabi_fcmpgt
 495 0178 E0329FE5 		ldr	r3, .L64+36
 496 017c 000050E3 		cmp	r0, #0
 497 0180 001093E5 		ldr	r1, [r3, #0]	@ float
 498 0184 0500A0E1 		mov	r0, r5
 499 0188 FE65A013 		movne	r6, #1065353216
 500 018c D0629F05 		ldreq	r6, .L64+40
 501 0190 FEFFFFEB 		bl	__aeabi_fsub
 502 0194 0241C0E3 		bic	r4, r0, #-2147483648
 503 0198 C8129FE5 		ldr	r1, .L64+44
 504 019c 00A0A0E1 		mov	sl, r0
 505 01a0 0400A0E1 		mov	r0, r4
 506 01a4 FEFFFFEB 		bl	__aeabi_fadd
 507 01a8 0010A0E1 		mov	r1, r0
 508 01ac FEFFFFEB 		bl	__aeabi_fmul
 509 01b0 0010A0E1 		mov	r1, r0
 510 01b4 0800A0E1 		mov	r0, r8
 511 01b8 FEFFFFEB 		bl	__aeabi_fcmpgt
 512 01bc 000050E3 		cmp	r0, #0
 513 01c0 0190A0E3 		mov	r9, #1
 514 01c4 0090A003 		moveq	r9, #0
 515 01c8 FF9019E2 		ands	r9, r9, #255
 516 01cc 2000001A 		bne	.L58
 517 01d0 90129FE5 		ldr	r1, .L64+44
 518 01d4 0400A0E1 		mov	r0, r4
 519 01d8 FEFFFFEB 		bl	__aeabi_fsub
 520 01dc 0010A0E1 		mov	r1, r0
 521 01e0 FEFFFFEB 		bl	__aeabi_fmul
 522 01e4 0010A0E1 		mov	r1, r0
 523 01e8 0800A0E1 		mov	r0, r8
 524 01ec FEFFFFEB 		bl	__aeabi_fcmplt
 525 01f0 000050E3 		cmp	r0, #0
 526 01f4 0150A0E3 		mov	r5, #1
 527 01f8 0950A001 		moveq	r5, r9
 528 01fc FF0015E3 		tst	r5, #255
 529 0200 1300001A 		bne	.L58
 530 0204 60329FE5 		ldr	r3, .L64+48
 531 0208 000093E5 		ldr	r0, [r3, #0]	@ float
 532 020c 0010A0E1 		mov	r1, r0
 533 0210 FEFFFFEB 		bl	__aeabi_fmul
 534 0214 FEFFFFEB 		bl	__aeabi_f2d
 535 0218 0080A0E1 		mov	r8, r0
 536 021c 0A00A0E1 		mov	r0, sl
 537 0220 0190A0E1 		mov	r9, r1
 538 0224 FEFFFFEB 		bl	__aeabi_f2d
 539 0228 40229FE5 		ldr	r2, .L64+52
 540 022c 40329FE5 		ldr	r3, .L64+56
 541 0230 FEFFFFEB 		bl	__aeabi_dmul
 542 0234 0020A0E1 		mov	r2, r0
 543 0238 0130A0E1 		mov	r3, r1
 544 023c 0800A0E1 		mov	r0, r8
 545 0240 0910A0E1 		mov	r1, r9
 546 0244 FEFFFFEB 		bl	__aeabi_ddiv
 547 0248 FEFFFFEB 		bl	atan
 548 024c FEFFFFEB 		bl	__aeabi_d2f
 549 0250 000000EA 		b	.L50
 550              	.L58:
 551 0254 0000A0E3 		mov	r0, #0
 552              	.L50:
 553 0258 18329FE5 		ldr	r3, .L64+60
 554 025c 0410A0E1 		mov	r1, r4
 555 0260 000083E5 		str	r0, [r3, #0]	@ float
 556 0264 FC019FE5 		ldr	r0, .L64+44
 557 0268 FEFFFFEB 		bl	__aeabi_fdiv
 558 026c 0050A0E1 		mov	r5, r0
 559 0270 FEFFFFEB 		bl	__aeabi_f2d
 560 0274 D0219FE5 		ldr	r2, .L64+16
 561 0278 FC319FE5 		ldr	r3, .L64+64
 562 027c FEFFFFEB 		bl	__aeabi_dcmplt
 563 0280 000050E3 		cmp	r0, #0
 564 0284 F4519F05 		ldreq	r5, .L64+68
 565 0288 0500A0E1 		mov	r0, r5
 566 028c FEFFFFEB 		bl	__aeabi_f2d
 567 0290 B4219FE5 		ldr	r2, .L64+16
 568 0294 E8319FE5 		ldr	r3, .L64+72
 569 0298 FEFFFFEB 		bl	__aeabi_dcmpgt
 570 029c 000050E3 		cmp	r0, #0
 571 02a0 E0519F05 		ldreq	r5, .L64+76
 572 02a4 0600A0E1 		mov	r0, r6
 573 02a8 0510A0E1 		mov	r1, r5
 574 02ac FEFFFFEB 		bl	__aeabi_fmul
 575 02b0 0010A0E1 		mov	r1, r0
 576 02b4 0700A0E1 		mov	r0, r7
 577 02b8 FEFFFFEB 		bl	__aeabi_fsub
 578 02bc C8319FE5 		ldr	r3, .L64+80
 579 02c0 0220A0E3 		mov	r2, #2
 580 02c4 0020C3E5 		strb	r2, [r3, #0]
 581 02c8 C0319FE5 		ldr	r3, .L64+84
 582 02cc 003093E5 		ldr	r3, [r3, #0]
 583 02d0 020053E1 		cmp	r3, r2
 584 02d4 0080A0E1 		mov	r8, r0
 585 02d8 1500001A 		bne	.L55
 586 02dc 0400A0E1 		mov	r0, r4
 587 02e0 FEFFFFEB 		bl	__aeabi_f2d
 588 02e4 0060A0E1 		mov	r6, r0
 589 02e8 0500A0E1 		mov	r0, r5
 590 02ec 0170A0E1 		mov	r7, r1
 591 02f0 FEFFFFEB 		bl	__aeabi_f2d
 592 02f4 FEFFFFEB 		bl	cos
 593 02f8 0020A0E1 		mov	r2, r0
 594 02fc 0130A0E1 		mov	r3, r1
 595 0300 0600A0E1 		mov	r0, r6
 596 0304 0710A0E1 		mov	r1, r7
 597 0308 FEFFFFEB 		bl	__aeabi_ddiv
 598 030c 0620A0E1 		mov	r2, r6
 599 0310 0730A0E1 		mov	r3, r7
 600 0314 FEFFFFEB 		bl	__aeabi_dsub
 601 0318 0020A0E1 		mov	r2, r0
 602 031c 0130A0E1 		mov	r3, r1
 603 0320 0600A0E1 		mov	r0, r6
 604 0324 0710A0E1 		mov	r1, r7
 605 0328 FEFFFFEB 		bl	__aeabi_dadd
 606 032c FEFFFFEB 		bl	__aeabi_d2f
 607 0330 0040A0E1 		mov	r4, r0
 608              	.L55:
 609 0334 0800A0E1 		mov	r0, r8
 610 0338 FEFFFFEB 		bl	__aeabi_f2d
 611 033c 0060A0E1 		mov	r6, r0
 612 0340 0170A0E1 		mov	r7, r1
 613 0344 FEFFFFEB 		bl	cos
 614 0348 0020A0E1 		mov	r2, r0
 615 034c 0400A0E1 		mov	r0, r4
 616 0350 08208DE5 		str	r2, [sp, #8]
 617 0354 04108DE5 		str	r1, [sp, #4]
 618 0358 FEFFFFEB 		bl	__aeabi_f2d
 619 035c 0080A0E1 		mov	r8, r0
 620 0360 0190A0E1 		mov	r9, r1
 621 0364 0600A0E1 		mov	r0, r6
 622 0368 0710A0E1 		mov	r1, r7
 623 036c FEFFFFEB 		bl	sin
 624 0370 10008DE5 		str	r0, [sp, #16]
 625 0374 14108DE5 		str	r1, [sp, #20]
 626 0378 0B00A0E1 		mov	r0, fp
 627 037c FEFFFFEB 		bl	__aeabi_f2d
 628 0380 08209DE5 		ldr	r2, [sp, #8]
 629 0384 04309DE5 		ldr	r3, [sp, #4]
 630 0388 0040A0E1 		mov	r4, r0
 631 038c 0150A0E1 		mov	r5, r1
 632 0390 0200A0E1 		mov	r0, r2
 633 0394 0310A0E1 		mov	r1, r3
 634 0398 0820A0E1 		mov	r2, r8
 635 039c 0930A0E1 		mov	r3, r9
 636 03a0 FEFFFFEB 		bl	__aeabi_dmul
 637 03a4 0020A0E1 		mov	r2, r0
 638 03a8 0130A0E1 		mov	r3, r1
 639 03ac 0400A0E1 		mov	r0, r4
 640 03b0 0510A0E1 		mov	r1, r5
 641 03b4 FEFFFFEB 		bl	__aeabi_dadd
 642 03b8 FEFFFFEB 		bl	__aeabi_d2f
 643 03bc 0040A0E1 		mov	r4, r0
 644 03c0 0C009DE5 		ldr	r0, [sp, #12]	@ float
 645 03c4 FEFFFFEB 		bl	__aeabi_f2d
 646 03c8 0820A0E1 		mov	r2, r8
 647 03cc 0060A0E1 		mov	r6, r0
 648 03d0 0170A0E1 		mov	r7, r1
 649 03d4 0930A0E1 		mov	r3, r9
 650 03d8 10108DE2 		add	r1, sp, #16
 651 03dc 030091E8 		ldmia	r1, {r0-r1}
 652 03e0 FEFFFFEB 		bl	__aeabi_dmul
 653 03e4 0020A0E1 		mov	r2, r0
 654 03e8 0130A0E1 		mov	r3, r1
 655 03ec 0600A0E1 		mov	r0, r6
 656 03f0 0710A0E1 		mov	r1, r7
 657 03f4 FEFFFFEB 		bl	__aeabi_dadd
 658 03f8 FEFFFFEB 		bl	__aeabi_d2f
 659 03fc 0010A0E1 		mov	r1, r0
 660 0400 0400A0E1 		mov	r0, r4
 661 0404 FEFFFFEB 		bl	fly_to_xy
 662 0408 38309FE5 		ldr	r3, .L64+12
 663 040c 0120A0E3 		mov	r2, #1
 664 0410 0020C3E5 		strb	r2, [r3, #0]
 665 0414 78309FE5 		ldr	r3, .L64+88
 666 0418 0C209DE5 		ldr	r2, [sp, #12]	@ float
 667 041c 00B083E5 		str	fp, [r3, #0]	@ float
 668 0420 70309FE5 		ldr	r3, .L64+92
 669 0424 002083E5 		str	r2, [r3, #0]	@ float
 670 0428 6C309FE5 		ldr	r3, .L64+96
 671 042c 00A083E5 		str	sl, [r3, #0]	@ float
 672 0430 1CD08DE2 		add	sp, sp, #28
 673 0434 F04FBDE8 		ldmfd	sp!, {r4, r5, r6, r7, r8, r9, sl, fp, lr}
 674 0438 1EFF2FE1 		bx	lr
 675              	.L65:
 676              		.align	2
 677              	.L64:
 678 043c 00000000 		.word	estimator_y
 679 0440 00000000 		.word	estimator_x
 680 0444 00000000 		.word	nav_circle_trigo_qdr
 681 0448 00000000 		.word	.LANCHOR2
 682 044c 182D4454 		.word	1413754136
 683 0450 FB211940 		.word	1075388923
 684 0454 FB210940 		.word	1074340347
 685 0458 FB2109C0 		.word	-1073143301
 686 045c 00000000 		.word	nav_circle_radians
 687 0460 00000000 		.word	nav_shift
 688 0464 000080BF 		.word	-1082130432
 689 0468 0000B442 		.word	1119092736
 690 046c 00000000 		.word	estimator_hspeed_mod
 691 0470 E9263108 		.word	137438953
 692 0474 AC9C2340 		.word	1076075692
 693 0478 00000000 		.word	.LANCHOR4
 694 047c FB21E93F 		.word	1072243195
 695 0480 DB0F493F 		.word	1061752795
 696 0484 FB21C93F 		.word	1070146043
 697 0488 DB0F493E 		.word	1044975579
 698 048c 00000000 		.word	horizontal_mode
 699 0490 00000000 		.word	nav_mode
 700 0494 00000000 		.word	nav_circle_x
 701 0498 00000000 		.word	nav_circle_y
 702 049c 00000000 		.word	nav_circle_radius
 704              		.section	.text.nav_route_xy,"ax",%progbits
 705              		.align	2
 706              		.global	nav_route_xy
 708              	nav_route_xy:
 709              		@ Function supports interworking.
 710              		@ args = 0, pretend = 0, frame = 8
 711              		@ frame_needed = 0, uses_anonymous_args = 0
 712 0000 F74F2DE9 		stmfd	sp!, {r0, r1, r2, r4, r5, r6, r7, r8, r9, sl, fp, lr}
 713 0004 0060A0E1 		mov	r6, r0
 714 0008 0170A0E1 		mov	r7, r1
 715 000c 0200A0E1 		mov	r0, r2
 716 0010 0610A0E1 		mov	r1, r6
 717 0014 02A0A0E1 		mov	sl, r2
 718 0018 0390A0E1 		mov	r9, r3
 719 001c FEFFFFEB 		bl	__aeabi_fsub
 720 0020 0710A0E1 		mov	r1, r7
 721 0024 0050A0E1 		mov	r5, r0
 722 0028 0900A0E1 		mov	r0, r9
 723 002c FEFFFFEB 		bl	__aeabi_fsub
 724 0030 0510A0E1 		mov	r1, r5
 725 0034 0040A0E1 		mov	r4, r0
 726 0038 0500A0E1 		mov	r0, r5
 727 003c FEFFFFEB 		bl	__aeabi_fmul
 728 0040 0410A0E1 		mov	r1, r4
 729 0044 0080A0E1 		mov	r8, r0
 730 0048 0400A0E1 		mov	r0, r4
 731 004c FEFFFFEB 		bl	__aeabi_fmul
 732 0050 0010A0E1 		mov	r1, r0
 733 0054 0800A0E1 		mov	r0, r8
 734 0058 FEFFFFEB 		bl	__aeabi_fadd
 735 005c FE15A0E3 		mov	r1, #1065353216
 736 0060 0080A0E1 		mov	r8, r0
 737 0064 FEFFFFEB 		bl	__aeabi_fcmpgt
 738 0068 8C319FE5 		ldr	r3, .L73
 739 006c 000050E3 		cmp	r0, #0
 740 0070 0610A0E1 		mov	r1, r6
 741 0074 000093E5 		ldr	r0, [r3, #0]	@ float
 742 0078 FE85A003 		moveq	r8, #1065353216
 743 007c FEFFFFEB 		bl	__aeabi_fsub
 744 0080 0510A0E1 		mov	r1, r5
 745 0084 FEFFFFEB 		bl	__aeabi_fmul
 746 0088 70319FE5 		ldr	r3, .L73+4
 747 008c 00B0A0E1 		mov	fp, r0
 748 0090 0710A0E1 		mov	r1, r7
 749 0094 000093E5 		ldr	r0, [r3, #0]	@ float
 750 0098 FEFFFFEB 		bl	__aeabi_fsub
 751 009c 0410A0E1 		mov	r1, r4
 752 00a0 FEFFFFEB 		bl	__aeabi_fmul
 753 00a4 0010A0E1 		mov	r1, r0
 754 00a8 0B00A0E1 		mov	r0, fp
 755 00ac FEFFFFEB 		bl	__aeabi_fadd
 756 00b0 0810A0E1 		mov	r1, r8
 757 00b4 FEFFFFEB 		bl	__aeabi_fdiv
 758 00b8 00B0A0E1 		mov	fp, r0
 759 00bc 0800A0E1 		mov	r0, r8
 760 00c0 FEFFFFEB 		bl	__aeabi_f2d
 761 00c4 FEFFFFEB 		bl	sqrt
 762 00c8 FEFFFFEB 		bl	__aeabi_d2f
 763 00cc 30319FE5 		ldr	r3, .L73+8
 764 00d0 0080A0E1 		mov	r8, r0
 765 00d4 000083E5 		str	r0, [r3, #0]	@ float
 766 00d8 0B00A0E1 		mov	r0, fp
 767 00dc FEFFFFEB 		bl	__aeabi_f2d
 768 00e0 03008DE8 		stmia	sp, {r0-r1}
 769 00e4 0810A0E1 		mov	r1, r8
 770 00e8 18019FE5 		ldr	r0, .L73+12
 771 00ec FEFFFFEB 		bl	__aeabi_fdiv
 772 00f0 0010A0E3 		mov	r1, #0
 773 00f4 00B0A0E1 		mov	fp, r0
 774 00f8 FEFFFFEB 		bl	__aeabi_fcmpgt
 775 00fc 000050E3 		cmp	r0, #0
 776 0100 0020A003 		moveq	r2, #0
 777 0104 0030A003 		moveq	r3, #0
 778 0108 0300000A 		beq	.L68
 779 010c 0B00A0E1 		mov	r0, fp
 780 0110 FEFFFFEB 		bl	__aeabi_f2d
 781 0114 0020A0E1 		mov	r2, r0
 782 0118 0130A0E1 		mov	r3, r1
 783              	.L68:
 784 011c 03009DE8 		ldmia	sp, {r0-r1}
 785 0120 FEFFFFEB 		bl	__aeabi_dadd
 786 0124 FEFFFFEB 		bl	__aeabi_d2f
 787 0128 DC309FE5 		ldr	r3, .L73+16
 788 012c DC209FE5 		ldr	r2, .L73+20
 789 0130 000083E5 		str	r0, [r3, #0]	@ float
 790 0134 0130A0E3 		mov	r3, #1
 791 0138 0030C2E5 		strb	r3, [r2, #0]
 792 013c D0209FE5 		ldr	r2, .L73+24
 793 0140 006082E5 		str	r6, [r2, #0]	@ float
 794 0144 CC209FE5 		ldr	r2, .L73+28
 795 0148 007082E5 		str	r7, [r2, #0]	@ float
 796 014c C8209FE5 		ldr	r2, .L73+32
 797 0150 00A082E5 		str	sl, [r2, #0]	@ float
 798 0154 C4209FE5 		ldr	r2, .L73+36
 799 0158 009082E5 		str	r9, [r2, #0]	@ float
 800 015c C0209FE5 		ldr	r2, .L73+40
 801 0160 0030C2E5 		strb	r3, [r2, #0]
 802 0164 BC309FE5 		ldr	r3, .L73+44
 803 0168 0510A0E1 		mov	r1, r5
 804 016c 00A093E5 		ldr	sl, [r3, #0]	@ float
 805 0170 00B0A0E1 		mov	fp, r0
 806 0174 FEFFFFEB 		bl	__aeabi_fmul
 807 0178 0010A0E1 		mov	r1, r0
 808 017c 0600A0E1 		mov	r0, r6
 809 0180 FEFFFFEB 		bl	__aeabi_fadd
 810 0184 0410A0E1 		mov	r1, r4
 811 0188 0060A0E1 		mov	r6, r0
 812 018c 0A00A0E1 		mov	r0, sl
 813 0190 FEFFFFEB 		bl	__aeabi_fmul
 814 0194 0810A0E1 		mov	r1, r8
 815 0198 FEFFFFEB 		bl	__aeabi_fdiv
 816 019c 0010A0E1 		mov	r1, r0
 817 01a0 0600A0E1 		mov	r0, r6
 818 01a4 FEFFFFEB 		bl	__aeabi_fadd
 819 01a8 0410A0E1 		mov	r1, r4
 820 01ac 0060A0E1 		mov	r6, r0
 821 01b0 0B00A0E1 		mov	r0, fp
 822 01b4 FEFFFFEB 		bl	__aeabi_fmul
 823 01b8 0010A0E1 		mov	r1, r0
 824 01bc 0700A0E1 		mov	r0, r7
 825 01c0 FEFFFFEB 		bl	__aeabi_fadd
 826 01c4 0510A0E1 		mov	r1, r5
 827 01c8 0040A0E1 		mov	r4, r0
 828 01cc 0A00A0E1 		mov	r0, sl
 829 01d0 FEFFFFEB 		bl	__aeabi_fmul
 830 01d4 0810A0E1 		mov	r1, r8
 831 01d8 FEFFFFEB 		bl	__aeabi_fdiv
 832 01dc 0010A0E1 		mov	r1, r0
 833 01e0 0400A0E1 		mov	r0, r4
 834 01e4 FEFFFFEB 		bl	__aeabi_fsub
 835 01e8 0010A0E1 		mov	r1, r0
 836 01ec 0600A0E1 		mov	r0, r6
 837 01f0 0CD08DE2 		add	sp, sp, #12
 838 01f4 F04FBDE8 		ldmfd	sp!, {r4, r5, r6, r7, r8, r9, sl, fp, lr}
 839 01f8 FEFFFFEA 		b	fly_to_xy
 840              	.L74:
 841              		.align	2
 842              	.L73:
 843 01fc 00000000 		.word	estimator_x
 844 0200 00000000 		.word	estimator_y
 845 0204 00000000 		.word	.LANCHOR5
 846 0208 0000B442 		.word	1119092736
 847 020c 00000000 		.word	.LANCHOR6
 848 0210 00000000 		.word	.LANCHOR3
 849 0214 00000000 		.word	nav_segment_x_1
 850 0218 00000000 		.word	nav_segment_y_1
 851 021c 00000000 		.word	nav_segment_x_2
 852 0220 00000000 		.word	nav_segment_y_2
 853 0224 00000000 		.word	horizontal_mode
 854 0228 00000000 		.word	nav_shift
 856              		.section	.text.compute_dist2_to_home,"ax",%progbits
 857              		.align	2
 858              		.global	compute_dist2_to_home
 860              	compute_dist2_to_home:
 861              		@ Function supports interworking.
 862              		@ args = 0, pretend = 0, frame = 0
 863              		@ frame_needed = 0, uses_anonymous_args = 0
 864 0000 70402DE9 		stmfd	sp!, {r4, r5, r6, lr}
 865 0004 78309FE5 		ldr	r3, .L77
 866 0008 78409FE5 		ldr	r4, .L77+4
 867 000c 001093E5 		ldr	r1, [r3, #0]	@ float
 868 0010 0C0094E5 		ldr	r0, [r4, #12]	@ float
 869 0014 FEFFFFEB 		bl	__aeabi_fsub
 870 0018 6C309FE5 		ldr	r3, .L77+8
 871 001c 0060A0E1 		mov	r6, r0
 872 0020 001093E5 		ldr	r1, [r3, #0]	@ float
 873 0024 100094E5 		ldr	r0, [r4, #16]	@ float
 874 0028 FEFFFFEB 		bl	__aeabi_fsub
 875 002c 0610A0E1 		mov	r1, r6
 876 0030 0050A0E1 		mov	r5, r0
 877 0034 0600A0E1 		mov	r0, r6
 878 0038 FEFFFFEB 		bl	__aeabi_fmul
 879 003c 0510A0E1 		mov	r1, r5
 880 0040 0040A0E1 		mov	r4, r0
 881 0044 0500A0E1 		mov	r0, r5
 882 0048 FEFFFFEB 		bl	__aeabi_fmul
 883 004c 0010A0E1 		mov	r1, r0
 884 0050 0400A0E1 		mov	r0, r4
 885 0054 FEFFFFEB 		bl	__aeabi_fadd
 886 0058 30309FE5 		ldr	r3, .L77+12
 887 005c 30109FE5 		ldr	r1, .L77+16
 888 0060 000083E5 		str	r0, [r3, #0]	@ float
 889 0064 FEFFFFEB 		bl	__aeabi_fcmpgt
 890 0068 28309FE5 		ldr	r3, .L77+20
 891 006c 000050E3 		cmp	r0, #0
 892 0070 0140A0E3 		mov	r4, #1
 893 0074 0040A003 		moveq	r4, #0
 894 0078 0040C3E5 		strb	r4, [r3, #0]
 895 007c 7040BDE8 		ldmfd	sp!, {r4, r5, r6, lr}
 896 0080 1EFF2FE1 		bx	lr
 897              	.L78:
 898              		.align	2
 899              	.L77:
 900 0084 00000000 		.word	estimator_x
 901 0088 00000000 		.word	.LANCHOR7
 902 008c 00000000 		.word	estimator_y
 903 0090 00000000 		.word	dist2_to_home
 904 0094 4054094A 		.word	1242125376
 905 0098 00000000 		.word	too_far_from_home
 907              		.global	__aeabi_i2d
 908              		.global	__aeabi_d2uiz
 909              		.global	__aeabi_f2iz
 910              		.section	.text.nav_reset_reference,"ax",%progbits
 911              		.align	2
 912              		.global	nav_reset_reference
 914              	nav_reset_reference:
 915              		@ Function supports interworking.
 916              		@ args = 0, pretend = 0, frame = 32
 917              		@ frame_needed = 0, uses_anonymous_args = 0
 918 0000 F0402DE9 		stmfd	sp!, {r4, r5, r6, r7, lr}
 919 0004 F4409FE5 		ldr	r4, .L80
 920 0008 24D04DE2 		sub	sp, sp, #36
 921 000c 0C0094E5 		ldr	r0, [r4, #12]
 922 0010 FEFFFFEB 		bl	__aeabi_i2d
 923 0014 0020A0E3 		mov	r2, #0
 924 0018 E4309FE5 		ldr	r3, .L80+4
 925 001c FEFFFFEB 		bl	__aeabi_ddiv
 926 0020 E0209FE5 		ldr	r2, .L80+8
 927 0024 E0309FE5 		ldr	r3, .L80+12
 928 0028 0060A0E1 		mov	r6, r0
 929 002c 0170A0E1 		mov	r7, r1
 930 0030 FEFFFFEB 		bl	__aeabi_dmul
 931 0034 0020A0E3 		mov	r2, #0
 932 0038 D0309FE5 		ldr	r3, .L80+16
 933 003c FEFFFFEB 		bl	__aeabi_dadd
 934 0040 0020A0E3 		mov	r2, #0
 935 0044 C8309FE5 		ldr	r3, .L80+20
 936 0048 FEFFFFEB 		bl	__aeabi_ddiv
 937 004c 0020A0E3 		mov	r2, #0
 938 0050 C0309FE5 		ldr	r3, .L80+24
 939 0054 FEFFFFEB 		bl	__aeabi_dadd
 940 0058 FEFFFFEB 		bl	__aeabi_d2uiz
 941 005c B8309FE5 		ldr	r3, .L80+28
 942 0060 FF5000E2 		and	r5, r0, #255
 943 0064 0050C3E5 		strb	r5, [r3, #0]
 944 0068 100094E5 		ldr	r0, [r4, #16]
 945 006c FEFFFFEB 		bl	__aeabi_i2d
 946 0070 0020A0E3 		mov	r2, #0
 947 0074 88309FE5 		ldr	r3, .L80+4
 948 0078 FEFFFFEB 		bl	__aeabi_ddiv
 949 007c FEFFFFEB 		bl	__aeabi_d2f
 950 0080 0710A0E1 		mov	r1, r7
 951 0084 18008DE5 		str	r0, [sp, #24]	@ float
 952 0088 0600A0E1 		mov	r0, r6
 953 008c FEFFFFEB 		bl	__aeabi_d2f
 954 0090 14108DE2 		add	r1, sp, #20
 955 0094 14008DE5 		str	r0, [sp, #20]	@ float
 956 0098 04008DE2 		add	r0, sp, #4
 957 009c 1050CDE5 		strb	r5, [sp, #16]
 958 00a0 FEFFFFEB 		bl	utm_of_lla_f
 959 00a4 08009DE5 		ldr	r0, [sp, #8]	@ float
 960 00a8 FEFFFFEB 		bl	__aeabi_f2iz
 961 00ac 6C309FE5 		ldr	r3, .L80+32
 962 00b0 000083E5 		str	r0, [r3, #0]
 963 00b4 04009DE5 		ldr	r0, [sp, #4]	@ float
 964 00b8 FEFFFFEB 		bl	__aeabi_f2iz
 965 00bc 60509FE5 		ldr	r5, .L80+36
 966 00c0 60309FE5 		ldr	r3, .L80+40
 967 00c4 002095E5 		ldr	r2, [r5, #0]	@ float
 968 00c8 000083E5 		str	r0, [r3, #0]
 969 00cc 58309FE5 		ldr	r3, .L80+44
 970 00d0 280094E5 		ldr	r0, [r4, #40]
 971 00d4 002083E5 		str	r2, [r3, #0]	@ float
 972 00d8 FEFFFFEB 		bl	__aeabi_i2d
 973 00dc 0020A0E3 		mov	r2, #0
 974 00e0 48309FE5 		ldr	r3, .L80+48
 975 00e4 FEFFFFEB 		bl	__aeabi_ddiv
 976 00e8 FEFFFFEB 		bl	__aeabi_d2f
 977 00ec 000085E5 		str	r0, [r5, #0]	@ float
 978 00f0 0000A0E3 		mov	r0, #0
 979 00f4 24D08DE2 		add	sp, sp, #36
 980 00f8 F040BDE8 		ldmfd	sp!, {r4, r5, r6, r7, lr}
 981 00fc 1EFF2FE1 		bx	lr
 982              	.L81:
 983              		.align	2
 984              	.L80:
 985 0100 00000000 		.word	gps
 986 0104 D0126341 		.word	1097011920
 987 0108 F8C1631A 		.word	442745336
 988 010c DCA54C40 		.word	1078765020
 989 0110 00806640 		.word	1080459264
 990 0114 00001840 		.word	1075314688
 991 0118 0000F03F 		.word	1072693248
 992 011c 00000000 		.word	.LANCHOR8
 993 0120 00000000 		.word	.LANCHOR9
 994 0124 00000000 		.word	ground_alt
 995 0128 00000000 		.word	.LANCHOR10
 996 012c 00000000 		.word	.LANCHOR11
 997 0130 00408F40 		.word	1083129856
 999              		.section	.text.nav_update_waypoints_alt,"ax",%progbits
 1000              		.align	2
 1001              		.global	nav_update_waypoints_alt
 1003              	nav_update_waypoints_alt:
 1004              		@ Function supports interworking.
 1005              		@ args = 0, pretend = 0, frame = 0
 1006              		@ frame_needed = 0, uses_anonymous_args = 0
 1007 0000 44309FE5 		ldr	r3, .L85
 1008 0004 000093E5 		ldr	r0, [r3, #0]	@ float
 1009 0008 40309FE5 		ldr	r3, .L85+4
 1010 000c 70402DE9 		stmfd	sp!, {r4, r5, r6, lr}
 1011 0010 001093E5 		ldr	r1, [r3, #0]	@ float
 1012 0014 FEFFFFEB 		bl	__aeabi_fsub
 1013 0018 34409FE5 		ldr	r4, .L85+8
 1014 001c 0060A0E1 		mov	r6, r0
 1015 0020 785084E2 		add	r5, r4, #120
 1016              	.L83:
 1017 0024 080094E5 		ldr	r0, [r4, #8]	@ float
 1018 0028 0610A0E1 		mov	r1, r6
 1019 002c FEFFFFEB 		bl	__aeabi_fadd
 1020 0030 080084E5 		str	r0, [r4, #8]	@ float
 1021 0034 0C4084E2 		add	r4, r4, #12
 1022 0038 050054E1 		cmp	r4, r5
 1023 003c F8FFFF1A 		bne	.L83
 1024 0040 0000A0E3 		mov	r0, #0
 1025 0044 7040BDE8 		ldmfd	sp!, {r4, r5, r6, lr}
 1026 0048 1EFF2FE1 		bx	lr
 1027              	.L86:
 1028              		.align	2
 1029              	.L85:
 1030 004c 00000000 		.word	ground_alt
 1031 0050 00000000 		.word	.LANCHOR11
 1032 0054 00000000 		.word	.LANCHOR7
 1034              		.section	.text.common_nav_periodic_task_4Hz,"ax",%progbits
 1035              		.align	2
 1036              		.global	common_nav_periodic_task_4Hz
 1038              	common_nav_periodic_task_4Hz:
 1039              		@ Function supports interworking.
 1040              		@ args = 0, pretend = 0, frame = 0
 1041              		@ frame_needed = 0, uses_anonymous_args = 0
 1042              		@ link register save eliminated.
 1043 0000 44309FE5 		ldr	r3, .L89
 1044 0004 B020D3E1 		ldrh	r2, [r3, #0]
 1045 0008 012082E2 		add	r2, r2, #1
 1046 000c 0228A0E1 		mov	r2, r2, asl #16
 1047 0010 2228A0E1 		mov	r2, r2, lsr #16
 1048 0014 030052E3 		cmp	r2, #3
 1049 0018 B020C3E1 		strh	r2, [r3, #0]	@ movhi
 1050 001c 1EFF2F91 		bxls	lr
 1051 0020 0020A0E3 		mov	r2, #0
 1052 0024 B020C3E1 		strh	r2, [r3, #0]	@ movhi
 1053 0028 20309FE5 		ldr	r3, .L89+4
 1054 002c B020D3E1 		ldrh	r2, [r3, #0]
 1055 0030 012082E2 		add	r2, r2, #1
 1056 0034 B020C3E1 		strh	r2, [r3, #0]	@ movhi
 1057 0038 14309FE5 		ldr	r3, .L89+8
 1058 003c B020D3E1 		ldrh	r2, [r3, #0]
 1059 0040 012082E2 		add	r2, r2, #1
 1060 0044 B020C3E1 		strh	r2, [r3, #0]	@ movhi
 1061 0048 1EFF2FE1 		bx	lr
 1062              	.L90:
 1063              		.align	2
 1064              	.L89:
 1065 004c 00000000 		.word	.LANCHOR12
 1066 0050 00000000 		.word	stage_time
 1067 0054 00000000 		.word	block_time
 1069              		.global	__aeabi_i2f
 1070              		.section	.text.nav_move_waypoint,"ax",%progbits
 1071              		.align	2
 1072              		.global	nav_move_waypoint
 1074              	nav_move_waypoint:
 1075              		@ Function supports interworking.
 1076              		@ args = 0, pretend = 0, frame = 0
 1077              		@ frame_needed = 0, uses_anonymous_args = 0
 1078 0000 090050E3 		cmp	r0, #9
 1079 0004 F0472DE9 		stmfd	sp!, {r4, r5, r6, r7, r8, r9, sl, lr}
 1080 0008 0040A0E1 		mov	r4, r0
 1081 000c 0160A0E1 		mov	r6, r1
 1082 0010 0250A0E1 		mov	r5, r2
 1083 0014 0380A0E1 		mov	r8, r3
 1084 0018 3900008A 		bhi	.L91
 1085 001c E8309FE5 		ldr	r3, .L97
 1086 0020 000093E5 		ldr	r0, [r3, #0]
 1087 0024 FEFFFFEB 		bl	__aeabi_i2f
 1088 0028 E0A09FE5 		ldr	sl, .L97+4
 1089 002c 0C709AE5 		ldr	r7, [sl, #12]	@ float
 1090 0030 0010A0E1 		mov	r1, r0
 1091 0034 0600A0E1 		mov	r0, r6
 1092 0038 FEFFFFEB 		bl	__aeabi_fsub
 1093 003c 0710A0E1 		mov	r1, r7
 1094 0040 FEFFFFEB 		bl	__aeabi_fsub
 1095 0044 C8309FE5 		ldr	r3, .L97+8
 1096 0048 0090A0E1 		mov	r9, r0
 1097 004c 000093E5 		ldr	r0, [r3, #0]
 1098 0050 FEFFFFEB 		bl	__aeabi_i2f
 1099 0054 0010A0E1 		mov	r1, r0
 1100 0058 0500A0E1 		mov	r0, r5
 1101 005c FEFFFFEB 		bl	__aeabi_fsub
 1102 0060 10109AE5 		ldr	r1, [sl, #16]	@ float
 1103 0064 FEFFFFEB 		bl	__aeabi_fsub
 1104 0068 A8309FE5 		ldr	r3, .L97+12
 1105 006c 005093E5 		ldr	r5, [r3, #0]	@ float
 1106 0070 00A0A0E1 		mov	sl, r0
 1107 0074 0510A0E1 		mov	r1, r5
 1108 0078 0900A0E1 		mov	r0, r9
 1109 007c FEFFFFEB 		bl	__aeabi_fcmpgt
 1110 0080 000050E3 		cmp	r0, #0
 1111 0084 0560A011 		movne	r6, r5
 1112 0088 0500001A 		bne	.L93
 1113 008c 026185E2 		add	r6, r5, #-2147483648
 1114 0090 0610A0E1 		mov	r1, r6
 1115 0094 0900A0E1 		mov	r0, r9
 1116 0098 FEFFFFEB 		bl	__aeabi_fcmplt
 1117 009c 000050E3 		cmp	r0, #0
 1118 00a0 0960A001 		moveq	r6, r9
 1119              	.L93:
 1120 00a4 0A00A0E1 		mov	r0, sl
 1121 00a8 0510A0E1 		mov	r1, r5
 1122 00ac FEFFFFEB 		bl	__aeabi_fcmpgt
 1123 00b0 000050E3 		cmp	r0, #0
 1124 00b4 0500001A 		bne	.L94
 1125 00b8 025185E2 		add	r5, r5, #-2147483648
 1126 00bc 0510A0E1 		mov	r1, r5
 1127 00c0 0A00A0E1 		mov	r0, sl
 1128 00c4 FEFFFFEB 		bl	__aeabi_fcmplt
 1129 00c8 000050E3 		cmp	r0, #0
 1130 00cc 0A50A001 		moveq	r5, sl
 1131              	.L94:
 1132 00d0 0C30A0E3 		mov	r3, #12
 1133 00d4 0610A0E1 		mov	r1, r6
 1134 00d8 0700A0E1 		mov	r0, r7
 1135 00dc 930404E0 		mul	r4, r3, r4
 1136 00e0 FEFFFFEB 		bl	__aeabi_fadd
 1137 00e4 24A09FE5 		ldr	sl, .L97+4
 1138 00e8 0510A0E1 		mov	r1, r5
 1139 00ec 04008AE7 		str	r0, [sl, r4]	@ float
 1140 00f0 10009AE5 		ldr	r0, [sl, #16]	@ float
 1141 00f4 FEFFFFEB 		bl	__aeabi_fadd
 1142 00f8 04908AE0 		add	r9, sl, r4
 1143 00fc 040089E5 		str	r0, [r9, #4]	@ float
 1144 0100 088089E5 		str	r8, [r9, #8]	@ float
 1145              	.L91:
 1146 0104 F047BDE8 		ldmfd	sp!, {r4, r5, r6, r7, r8, r9, sl, lr}
 1147 0108 1EFF2FE1 		bx	lr
 1148              	.L98:
 1149              		.align	2
 1150              	.L97:
 1151 010c 00000000 		.word	.LANCHOR9
 1152 0110 00000000 		.word	.LANCHOR7
 1153 0114 00000000 		.word	.LANCHOR10
 1154 0118 00000000 		.word	.LANCHOR13
 1156              		.section	.text.nav_home,"ax",%progbits
 1157              		.align	2
 1158              		.global	nav_home
 1160              	nav_home:
 1161              		@ Function supports interworking.
 1162              		@ args = 0, pretend = 0, frame = 0
 1163              		@ frame_needed = 0, uses_anonymous_args = 0
 1164 0000 08402DE9 		stmfd	sp!, {r3, lr}
 1165 0004 58309FE5 		ldr	r3, .L100
 1166 0008 58209FE5 		ldr	r2, .L100+4
 1167 000c 0C0093E5 		ldr	r0, [r3, #12]	@ float
 1168 0010 101093E5 		ldr	r1, [r3, #16]	@ float
 1169 0014 FEFFFFEB 		bl	nav_circle_XY
 1170 0018 4C309FE5 		ldr	r3, .L100+8
 1171 001c 0020A0E3 		mov	r2, #0
 1172 0020 002083E5 		str	r2, [r3, #0]	@ float
 1173 0024 44309FE5 		ldr	r3, .L100+12
 1174 0028 0320A0E3 		mov	r2, #3
 1175 002c 0020C3E5 		strb	r2, [r3, #0]
 1176 0030 3C309FE5 		ldr	r3, .L100+16
 1177 0034 3C109FE5 		ldr	r1, .L100+20
 1178 0038 000093E5 		ldr	r0, [r3, #0]	@ float
 1179 003c FEFFFFEB 		bl	__aeabi_fadd
 1180 0040 34309FE5 		ldr	r3, .L100+24
 1181 0044 000083E5 		str	r0, [r3, #0]	@ float
 1182 0048 FEFFFFEB 		bl	compute_dist2_to_home
 1183 004c 2C309FE5 		ldr	r3, .L100+28
 1184 0050 002093E5 		ldr	r2, [r3, #0]	@ float
 1185 0054 28309FE5 		ldr	r3, .L100+32
 1186 0058 002083E5 		str	r2, [r3, #0]	@ float
 1187 005c 0840BDE8 		ldmfd	sp!, {r3, lr}
 1188 0060 FEFFFFEA 		b	nav_set_altitude
 1189              	.L101:
 1190              		.align	2
 1191              	.L100:
 1192 0064 00000000 		.word	.LANCHOR7
 1193 0068 0000C842 		.word	1120403456
 1194 006c 00000000 		.word	nav_pitch
 1195 0070 00000000 		.word	v_ctl_mode
 1196 0074 00000000 		.word	ground_alt
 1197 0078 00004842 		.word	1112014848
 1198 007c 00000000 		.word	.LANCHOR0
 1199 0080 00000000 		.word	dist2_to_home
 1200 0084 00000000 		.word	dist2_to_wp
 1202              		.section	.text.nav_init,"ax",%progbits
 1203              		.align	2
 1204              		.global	nav_init
 1206              	nav_init:
 1207              		@ Function supports interworking.
 1208              		@ args = 0, pretend = 0, frame = 0
 1209              		@ frame_needed = 0, uses_anonymous_args = 0
 1210              		@ link register save eliminated.
 1211 0000 48209FE5 		ldr	r2, .L103
 1212 0004 0030A0E3 		mov	r3, #0
 1213 0008 0030C2E5 		strb	r3, [r2, #0]
 1214 000c 40209FE5 		ldr	r2, .L103+4
 1215 0010 0030C2E5 		strb	r3, [r2, #0]
 1216 0014 3C209FE5 		ldr	r2, .L103+8
 1217 0018 0030A0E3 		mov	r3, #0
 1218 001c 003082E5 		str	r3, [r2, #0]	@ float
 1219 0020 34209FE5 		ldr	r2, .L103+12
 1220 0024 003082E5 		str	r3, [r2, #0]	@ float
 1221 0028 30209FE5 		ldr	r2, .L103+16
 1222 002c 30309FE5 		ldr	r3, .L103+20
 1223 0030 002083E5 		str	r2, [r3, #0]	@ float
 1224 0034 2C209FE5 		ldr	r2, .L103+24
 1225 0038 2C309FE5 		ldr	r3, .L103+28
 1226 003c 002083E5 		str	r2, [r3, #0]	@ float
 1227 0040 28309FE5 		ldr	r3, .L103+32
 1228 0044 0220A0E3 		mov	r2, #2
 1229 0048 002083E5 		str	r2, [r3, #0]
 1230 004c 1EFF2FE1 		bx	lr
 1231              	.L104:
 1232              		.align	2
 1233              	.L103:
 1234 0050 00000000 		.word	nav_block
 1235 0054 00000000 		.word	nav_stage
 1236 0058 00000000 		.word	ground_alt
 1237 005c 00000000 		.word	nav_glide_pitch_trim
 1238 0060 0000C842 		.word	1120403456
 1239 0064 00000000 		.word	nav_radius
 1240 0068 00004843 		.word	1128792064
 1241 006c 00000000 		.word	nav_survey_shift
 1242 0070 00000000 		.word	nav_mode
 1244              		.section	.text.nav_without_gps,"ax",%progbits
 1245              		.align	2
 1246              		.global	nav_without_gps
 1248              	nav_without_gps:
 1249              		@ Function supports interworking.
 1250              		@ args = 0, pretend = 0, frame = 0
 1251              		@ frame_needed = 0, uses_anonymous_args = 0
 1252              		@ link register save eliminated.
 1253 0000 34309FE5 		ldr	r3, .L106
 1254 0004 0220A0E3 		mov	r2, #2
 1255 0008 0020C3E5 		strb	r2, [r3, #0]
 1256 000c 2C309FE5 		ldr	r3, .L106+4
 1257 0010 0120A0E3 		mov	r2, #1
 1258 0014 0020C3E5 		strb	r2, [r3, #0]
 1259 0018 24209FE5 		ldr	r2, .L106+8
 1260 001c 0030A0E3 		mov	r3, #0
 1261 0020 003082E5 		str	r3, [r2, #0]	@ float
 1262 0024 1C209FE5 		ldr	r2, .L106+12
 1263 0028 003082E5 		str	r3, [r2, #0]	@ float
 1264 002c 18309FE5 		ldr	r3, .L106+16
 1265 0030 0F2CA0E3 		mov	r2, #3840
 1266 0034 B020C3E1 		strh	r2, [r3, #0]	@ movhi
 1267 0038 1EFF2FE1 		bx	lr
 1268              	.L107:
 1269              		.align	2
 1270              	.L106:
 1271 003c 00000000 		.word	lateral_mode
 1272 0040 00000000 		.word	v_ctl_mode
 1273 0044 00000000 		.word	h_ctl_roll_setpoint
 1274 0048 00000000 		.word	nav_pitch
 1275 004c 00000000 		.word	nav_throttle_setpoint
 1277              		.section	.text.nav_eight_init,"ax",%progbits
 1278              		.align	2
 1279              		.global	nav_eight_init
 1281              	nav_eight_init:
 1282              		@ Function supports interworking.
 1283              		@ args = 0, pretend = 0, frame = 0
 1284              		@ frame_needed = 0, uses_anonymous_args = 0
 1285              		@ link register save eliminated.
 1286 0000 08309FE5 		ldr	r3, .L109
 1287 0004 0520A0E3 		mov	r2, #5
 1288 0008 0020C3E5 		strb	r2, [r3, #0]
 1289 000c 1EFF2FE1 		bx	lr
 1290              	.L110:
 1291              		.align	2
 1292              	.L109:
 1293 0010 00000000 		.word	.LANCHOR14
 1295              		.global	__aeabi_fcmpge
 1296              		.section	.text.nav_eight,"ax",%progbits
 1297              		.align	2
 1298              		.global	nav_eight
 1300              	nav_eight:
 1301              		@ Function supports interworking.
 1302              		@ args = 0, pretend = 0, frame = 40
 1303              		@ frame_needed = 0, uses_anonymous_args = 0
 1304 0000 F04F2DE9 		stmfd	sp!, {r4, r5, r6, r7, r8, r9, sl, fp, lr}
 1305 0004 34D04DE2 		sub	sp, sp, #52
 1306 0008 10108DE5 		str	r1, [sp, #16]
 1307 000c 0271C2E3 		bic	r7, r2, #-2147483648
 1308 0010 0C10A0E3 		mov	r1, #12
 1309 0014 0240A0E1 		mov	r4, r2
 1310 0018 0020A0E1 		mov	r2, r0
 1311 001c 910202E0 		mul	r2, r1, r2
 1312 0020 10C09DE5 		ldr	ip, [sp, #16]
 1313 0024 9C0101E0 		mul	r1, ip, r1
 1314 0028 70379FE5 		ldr	r3, .L177
 1315 002c 025083E0 		add	r5, r3, r2
 1316 0030 0C008DE5 		str	r0, [sp, #12]
 1317 0034 080095E5 		ldr	r0, [r5, #8]	@ float
 1318 0038 016083E0 		add	r6, r3, r1
 1319 003c 080086E5 		str	r0, [r6, #8]	@ float
 1320 0040 010093E7 		ldr	r0, [r3, r1]	@ float
 1321 0044 021093E7 		ldr	r1, [r3, r2]	@ float
 1322 0048 FEFFFFEB 		bl	__aeabi_fsub
 1323 004c 041095E5 		ldr	r1, [r5, #4]	@ float
 1324 0050 0080A0E1 		mov	r8, r0
 1325 0054 040096E5 		ldr	r0, [r6, #4]	@ float
 1326 0058 FEFFFFEB 		bl	__aeabi_fsub
 1327 005c 0810A0E1 		mov	r1, r8
 1328 0060 0060A0E1 		mov	r6, r0
 1329 0064 0800A0E1 		mov	r0, r8
 1330 0068 FEFFFFEB 		bl	__aeabi_fmul
 1331 006c 0610A0E1 		mov	r1, r6
 1332 0070 0050A0E1 		mov	r5, r0
 1333 0074 0600A0E1 		mov	r0, r6
 1334 0078 FEFFFFEB 		bl	__aeabi_fmul
 1335 007c 0010A0E1 		mov	r1, r0
 1336 0080 0500A0E1 		mov	r0, r5
 1337 0084 FEFFFFEB 		bl	__aeabi_fadd
 1338 0088 FEFFFFEB 		bl	__aeabi_f2d
 1339 008c FEFFFFEB 		bl	sqrt
 1340 0090 FEFFFFEB 		bl	__aeabi_d2f
 1341 0094 FE15A0E3 		mov	r1, #1065353216
 1342 0098 0050A0E1 		mov	r5, r0
 1343 009c FEFFFFEB 		bl	__aeabi_fcmpgt
 1344 00a0 000050E3 		cmp	r0, #0
 1345 00a4 FE55A003 		moveq	r5, #1065353216
 1346 00a8 0510A0E1 		mov	r1, r5
 1347 00ac 0800A0E1 		mov	r0, r8
 1348 00b0 FEFFFFEB 		bl	__aeabi_fdiv
 1349 00b4 0510A0E1 		mov	r1, r5
 1350 00b8 00A0A0E1 		mov	sl, r0
 1351 00bc 0600A0E1 		mov	r0, r6
 1352 00c0 FEFFFFEB 		bl	__aeabi_fdiv
 1353 00c4 0710A0E1 		mov	r1, r7
 1354 00c8 00B0A0E1 		mov	fp, r0
 1355 00cc 0700A0E1 		mov	r0, r7
 1356 00d0 FEFFFFEB 		bl	__aeabi_fadd
 1357 00d4 0060A0E1 		mov	r6, r0
 1358 00d8 0610A0E1 		mov	r1, r6
 1359 00dc 0500A0E1 		mov	r0, r5
 1360 00e0 FEFFFFEB 		bl	__aeabi_fcmpgt
 1361 00e4 000050E3 		cmp	r0, #0
 1362 00e8 1800000A 		beq	.L113
 1363 00ec 10709DE5 		ldr	r7, [sp, #16]
 1364 00f0 0C80A0E3 		mov	r8, #12
 1365 00f4 980707E0 		mul	r7, r8, r7
 1366 00f8 A0569FE5 		ldr	r5, .L177
 1367 00fc 0CC09DE5 		ldr	ip, [sp, #12]
 1368 0100 073085E0 		add	r3, r5, r7
 1369 0104 0A10A0E1 		mov	r1, sl
 1370 0108 0600A0E1 		mov	r0, r6
 1371 010c 9C0808E0 		mul	r8, ip, r8
 1372 0110 08308DE5 		str	r3, [sp, #8]
 1373 0114 FEFFFFEB 		bl	__aeabi_fmul
 1374 0118 0010A0E1 		mov	r1, r0
 1375 011c 080095E7 		ldr	r0, [r5, r8]	@ float
 1376 0120 FEFFFFEB 		bl	__aeabi_fadd
 1377 0124 0B10A0E1 		mov	r1, fp
 1378 0128 070085E7 		str	r0, [r5, r7]	@ float
 1379 012c 0600A0E1 		mov	r0, r6
 1380 0130 FEFFFFEB 		bl	__aeabi_fmul
 1381 0134 089085E0 		add	r9, r5, r8
 1382 0138 0010A0E1 		mov	r1, r0
 1383 013c 040099E5 		ldr	r0, [r9, #4]	@ float
 1384 0140 FEFFFFEB 		bl	__aeabi_fadd
 1385 0144 08309DE5 		ldr	r3, [sp, #8]
 1386 0148 040083E5 		str	r0, [r3, #4]	@ float
 1387 014c 0650A0E1 		mov	r5, r6
 1388              	.L113:
 1389 0150 0A10A0E1 		mov	r1, sl
 1390 0154 0500A0E1 		mov	r0, r5
 1391 0158 FEFFFFEB 		bl	__aeabi_fmul
 1392 015c 0C809DE5 		ldr	r8, [sp, #12]
 1393 0160 0C70A0E3 		mov	r7, #12
 1394 0164 970808E0 		mul	r8, r7, r8
 1395 0168 30669FE5 		ldr	r6, .L177
 1396 016c 0010A0E1 		mov	r1, r0
 1397 0170 080096E7 		ldr	r0, [r6, r8]	@ float
 1398 0174 FEFFFFEB 		bl	__aeabi_fsub
 1399 0178 0B10A0E1 		mov	r1, fp
 1400 017c 14008DE5 		str	r0, [sp, #20]	@ float
 1401 0180 0500A0E1 		mov	r0, r5
 1402 0184 FEFFFFEB 		bl	__aeabi_fmul
 1403 0188 089086E0 		add	r9, r6, r8
 1404 018c 0010A0E1 		mov	r1, r0
 1405 0190 040099E5 		ldr	r0, [r9, #4]	@ float
 1406 0194 FEFFFFEB 		bl	__aeabi_fsub
 1407 0198 10C09DE5 		ldr	ip, [sp, #16]
 1408 019c 18008DE5 		str	r0, [sp, #24]	@ float
 1409 01a0 02118BE2 		add	r1, fp, #-2147483648
 1410 01a4 0400A0E1 		mov	r0, r4
 1411 01a8 9C0707E0 		mul	r7, ip, r7
 1412 01ac FEFFFFEB 		bl	__aeabi_fmul
 1413 01b0 075096E7 		ldr	r5, [r6, r7]	@ float
 1414 01b4 0090A0E1 		mov	r9, r0
 1415 01b8 0910A0E1 		mov	r1, r9
 1416 01bc 0500A0E1 		mov	r0, r5
 1417 01c0 FEFFFFEB 		bl	__aeabi_fadd
 1418 01c4 0A10A0E1 		mov	r1, sl
 1419 01c8 1C008DE5 		str	r0, [sp, #28]	@ float
 1420 01cc 0400A0E1 		mov	r0, r4
 1421 01d0 FEFFFFEB 		bl	__aeabi_fmul
 1422 01d4 078086E0 		add	r8, r6, r7
 1423 01d8 046098E5 		ldr	r6, [r8, #4]	@ float
 1424 01dc 0080A0E1 		mov	r8, r0
 1425 01e0 0810A0E1 		mov	r1, r8
 1426 01e4 0600A0E1 		mov	r0, r6
 1427 01e8 FEFFFFEB 		bl	__aeabi_fadd
 1428 01ec 0B10A0E1 		mov	r1, fp
 1429 01f0 20008DE5 		str	r0, [sp, #32]	@ float
 1430 01f4 0400A0E1 		mov	r0, r4
 1431 01f8 FEFFFFEB 		bl	__aeabi_fmul
 1432 01fc 0070A0E1 		mov	r7, r0
 1433 0200 0710A0E1 		mov	r1, r7
 1434 0204 0500A0E1 		mov	r0, r5
 1435 0208 FEFFFFEB 		bl	__aeabi_fadd
 1436 020c 0810A0E1 		mov	r1, r8
 1437 0210 0050A0E1 		mov	r5, r0
 1438 0214 0600A0E1 		mov	r0, r6
 1439 0218 FEFFFFEB 		bl	__aeabi_fsub
 1440 021c 0910A0E1 		mov	r1, r9
 1441 0220 0060A0E1 		mov	r6, r0
 1442 0224 14009DE5 		ldr	r0, [sp, #20]	@ float
 1443 0228 FEFFFFEB 		bl	__aeabi_fadd
 1444 022c 0810A0E1 		mov	r1, r8
 1445 0230 0090A0E1 		mov	r9, r0
 1446 0234 18009DE5 		ldr	r0, [sp, #24]	@ float
 1447 0238 FEFFFFEB 		bl	__aeabi_fadd
 1448 023c 0710A0E1 		mov	r1, r7
 1449 0240 24008DE5 		str	r0, [sp, #36]	@ float
 1450 0244 14009DE5 		ldr	r0, [sp, #20]	@ float
 1451 0248 FEFFFFEB 		bl	__aeabi_fadd
 1452 024c 0810A0E1 		mov	r1, r8
 1453 0250 0070A0E1 		mov	r7, r0
 1454 0254 18009DE5 		ldr	r0, [sp, #24]	@ float
 1455 0258 FEFFFFEB 		bl	__aeabi_fsub
 1456 025c 0080A0E1 		mov	r8, r0
 1457 0260 0B00A0E1 		mov	r0, fp
 1458 0264 FEFFFFEB 		bl	__aeabi_f2d
 1459 0268 28008DE5 		str	r0, [sp, #40]
 1460 026c 2C108DE5 		str	r1, [sp, #44]
 1461 0270 0A00A0E1 		mov	r0, sl
 1462 0274 FEFFFFEB 		bl	__aeabi_f2d
 1463 0278 0020A0E1 		mov	r2, r0
 1464 027c 0130A0E1 		mov	r3, r1
 1465 0280 28108DE2 		add	r1, sp, #40
 1466 0284 030091E8 		ldmia	r1, {r0-r1}
 1467 0288 FEFFFFEB 		bl	atan2
 1468 028c 0020A0E1 		mov	r2, r0
 1469 0290 0130A0E1 		mov	r3, r1
 1470 0294 08059FE5 		ldr	r0, .L177+4
 1471 0298 08159FE5 		ldr	r1, .L177+8
 1472 029c FEFFFFEB 		bl	__aeabi_dsub
 1473 02a0 FEFFFFEB 		bl	__aeabi_d2f
 1474 02a4 0010A0E3 		mov	r1, #0
 1475 02a8 00A0A0E1 		mov	sl, r0
 1476 02ac 0400A0E1 		mov	r0, r4
 1477 02b0 FEFFFFEB 		bl	__aeabi_fcmplt
 1478 02b4 000050E3 		cmp	r0, #0
 1479 02b8 0600000A 		beq	.L115
 1480 02bc 0A00A0E1 		mov	r0, sl
 1481 02c0 FEFFFFEB 		bl	__aeabi_f2d
 1482 02c4 D8249FE5 		ldr	r2, .L177+4
 1483 02c8 D8349FE5 		ldr	r3, .L177+8
 1484 02cc FEFFFFEB 		bl	__aeabi_dadd
 1485 02d0 FEFFFFEB 		bl	__aeabi_d2f
 1486 02d4 00A0A0E1 		mov	sl, r0
 1487              	.L115:
 1488 02d8 CC349FE5 		ldr	r3, .L177+12
 1489 02dc 0030D3E5 		ldrb	r3, [r3, #0]	@ zero_extendqisi2
 1490 02e0 050053E3 		cmp	r3, #5
 1491 02e4 03F19F97 		ldrls	pc, [pc, r3, asl #2]
 1492 02e8 290100EA 		b	.L111
 1493              	.L124:
 1494 02ec B8040000 		.word	.L118
 1495 02f0 0C050000 		.word	.L119
 1496 02f4 4C050000 		.word	.L120
 1497 02f8 EC060000 		.word	.L121
 1498 02fc 44070000 		.word	.L122
 1499 0300 04030000 		.word	.L123
 1500              	.L123:
 1501 0304 10C09DE5 		ldr	ip, [sp, #16]
 1502 0308 0C20A0E3 		mov	r2, #12
 1503 030c 9C0202E0 		mul	r2, ip, r2
 1504 0310 88149FE5 		ldr	r1, .L177
 1505 0314 023081E0 		add	r3, r1, r2
 1506 0318 020091E7 		ldr	r0, [r1, r2]	@ float
 1507 031c 0420A0E1 		mov	r2, r4
 1508 0320 041093E5 		ldr	r1, [r3, #4]	@ float
 1509 0324 FEFFFFEB 		bl	nav_circle_XY
 1510 0328 0A00A0E1 		mov	r0, sl
 1511 032c FEFFFFEB 		bl	__aeabi_f2d
 1512 0330 78249FE5 		ldr	r2, .L177+16
 1513 0334 78349FE5 		ldr	r3, .L177+20
 1514 0338 FEFFFFEB 		bl	__aeabi_dmul
 1515 033c 0020A0E3 		mov	r2, #0
 1516 0340 70349FE5 		ldr	r3, .L177+24
 1517 0344 FEFFFFEB 		bl	__aeabi_dsub
 1518 0348 6C349FE5 		ldr	r3, .L177+28
 1519 034c 0040A0E1 		mov	r4, r0
 1520 0350 000093E5 		ldr	r0, [r3, #0]	@ float
 1521 0354 0150A0E1 		mov	r5, r1
 1522 0358 FEFFFFEB 		bl	__aeabi_f2d
 1523 035c 0020A0E1 		mov	r2, r0
 1524 0360 0130A0E1 		mov	r3, r1
 1525 0364 38049FE5 		ldr	r0, .L177+4
 1526 0368 50149FE5 		ldr	r1, .L177+32
 1527 036c FEFFFFEB 		bl	__aeabi_dsub
 1528 0370 38249FE5 		ldr	r2, .L177+16
 1529 0374 38349FE5 		ldr	r3, .L177+20
 1530 0378 FEFFFFEB 		bl	__aeabi_dmul
 1531 037c FEFFFFEB 		bl	__aeabi_d2f
 1532 0380 0070A0E3 		mov	r7, #0
 1533 0384 0060A0E1 		mov	r6, r0
 1534 0388 030000EA 		b	.L125
 1535              	.L128:
 1536 038c 0600A0E1 		mov	r0, r6
 1537 0390 2C149FE5 		ldr	r1, .L177+36
 1538 0394 FEFFFFEB 		bl	__aeabi_fadd
 1539 0398 0060A0E1 		mov	r6, r0
 1540              	.L125:
 1541 039c 0600A0E1 		mov	r0, r6
 1542 03a0 0010A0E3 		mov	r1, #0
 1543 03a4 FEFFFFEB 		bl	__aeabi_fcmplt
 1544 03a8 000050E3 		cmp	r0, #0
 1545 03ac FF8007E2 		and	r8, r7, #255
 1546 03b0 0700000A 		beq	.L167
 1547 03b4 017087E2 		add	r7, r7, #1
 1548 03b8 010C57E3 		cmp	r7, #256
 1549 03bc F2FFFF1A 		bne	.L128
 1550 03c0 0080A0E3 		mov	r8, #0
 1551 03c4 020000EA 		b	.L167
 1552              	.L132:
 1553 03c8 F4139FE5 		ldr	r1, .L177+36
 1554 03cc FEFFFFEB 		bl	__aeabi_fsub
 1555 03d0 0060A0E1 		mov	r6, r0
 1556              	.L167:
 1557 03d4 0600A0E1 		mov	r0, r6
 1558 03d8 E4139FE5 		ldr	r1, .L177+36
 1559 03dc FEFFFFEB 		bl	__aeabi_fcmpge
 1560 03e0 000050E3 		cmp	r0, #0
 1561 03e4 0600A0E1 		mov	r0, r6
 1562 03e8 0200000A 		beq	.L130
 1563 03ec 018088E2 		add	r8, r8, #1
 1564 03f0 FF8018E2 		ands	r8, r8, #255
 1565 03f4 F3FFFF1A 		bne	.L132
 1566              	.L130:
 1567 03f8 FEFFFFEB 		bl	__aeabi_f2d
 1568 03fc 0020A0E1 		mov	r2, r0
 1569 0400 0130A0E1 		mov	r3, r1
 1570 0404 0400A0E1 		mov	r0, r4
 1571 0408 0510A0E1 		mov	r1, r5
 1572 040c FEFFFFEB 		bl	__aeabi_dsub
 1573 0410 FEFFFFEB 		bl	__aeabi_d2f
 1574 0414 0050A0E3 		mov	r5, #0
 1575 0418 0040A0E1 		mov	r4, r0
 1576 041c 030000EA 		b	.L133
 1577              	.L136:
 1578 0420 0400A0E1 		mov	r0, r4
 1579 0424 98139FE5 		ldr	r1, .L177+36
 1580 0428 FEFFFFEB 		bl	__aeabi_fadd
 1581 042c 0040A0E1 		mov	r4, r0
 1582              	.L133:
 1583 0430 0400A0E1 		mov	r0, r4
 1584 0434 0010A0E3 		mov	r1, #0
 1585 0438 FEFFFFEB 		bl	__aeabi_fcmplt
 1586 043c 000050E3 		cmp	r0, #0
 1587 0440 FF6005E2 		and	r6, r5, #255
 1588 0444 0700000A 		beq	.L168
 1589 0448 015085E2 		add	r5, r5, #1
 1590 044c 010C55E3 		cmp	r5, #256
 1591 0450 F2FFFF1A 		bne	.L136
 1592 0454 0060A0E3 		mov	r6, #0
 1593 0458 020000EA 		b	.L168
 1594              	.L140:
 1595 045c 60139FE5 		ldr	r1, .L177+36
 1596 0460 FEFFFFEB 		bl	__aeabi_fsub
 1597 0464 0040A0E1 		mov	r4, r0
 1598              	.L168:
 1599 0468 0400A0E1 		mov	r0, r4
 1600 046c 50139FE5 		ldr	r1, .L177+36
 1601 0470 FEFFFFEB 		bl	__aeabi_fcmpge
 1602 0474 000050E3 		cmp	r0, #0
 1603 0478 0400A0E1 		mov	r0, r4
 1604 047c 0200000A 		beq	.L138
 1605 0480 016086E2 		add	r6, r6, #1
 1606 0484 FF6016E2 		ands	r6, r6, #255
 1607 0488 F3FFFF1A 		bne	.L140
 1608              	.L138:
 1609 048c 34139FE5 		ldr	r1, .L177+40
 1610 0490 FEFFFFEB 		bl	__aeabi_fcmpgt
 1611 0494 000050E3 		cmp	r0, #0
 1612 0498 0400001A 		bne	.L141
 1613 049c 0400A0E1 		mov	r0, r4
 1614 04a0 24139FE5 		ldr	r1, .L177+44
 1615 04a4 FEFFFFEB 		bl	__aeabi_fcmplt
 1616 04a8 000050E3 		cmp	r0, #0
 1617 04ac B800000A 		beq	.L111
 1618              	.L141:
 1619 04b0 0020A0E3 		mov	r2, #0
 1620 04b4 B10000EA 		b	.L175
 1621              	.L118:
 1622 04b8 0500A0E1 		mov	r0, r5
 1623 04bc 0610A0E1 		mov	r1, r6
 1624 04c0 0920A0E1 		mov	r2, r9
 1625 04c4 24309DE5 		ldr	r3, [sp, #36]	@ float
 1626 04c8 FEFFFFEB 		bl	nav_route_xy
 1627 04cc 0CC09DE5 		ldr	ip, [sp, #12]
 1628 04d0 0C20A0E3 		mov	r2, #12
 1629 04d4 9C0202E0 		mul	r2, ip, r2
 1630 04d8 C0129FE5 		ldr	r1, .L177
 1631 04dc 0000A0E3 		mov	r0, #0
 1632 04e0 00008DE5 		str	r0, [sp, #0]	@ float
 1633 04e4 023081E0 		add	r3, r1, r2
 1634 04e8 020091E7 		ldr	r0, [r1, r2]	@ float
 1635 04ec 041093E5 		ldr	r1, [r3, #4]	@ float
 1636 04f0 0520A0E1 		mov	r2, r5
 1637 04f4 0630A0E1 		mov	r3, r6
 1638 04f8 FEFFFFEB 		bl	nav_approaching_xy
 1639 04fc 000050E3 		cmp	r0, #0
 1640 0500 0120A013 		movne	r2, #1
 1641 0504 A200000A 		beq	.L111
 1642 0508 9C0000EA 		b	.L175
 1643              	.L119:
 1644 050c 0500A0E1 		mov	r0, r5
 1645 0510 0610A0E1 		mov	r1, r6
 1646 0514 0920A0E1 		mov	r2, r9
 1647 0518 24309DE5 		ldr	r3, [sp, #36]	@ float
 1648 051c FEFFFFEB 		bl	nav_route_xy
 1649 0520 A8329FE5 		ldr	r3, .L177+48
 1650 0524 0520A0E1 		mov	r2, r5
 1651 0528 00308DE5 		str	r3, [sp, #0]	@ float
 1652 052c 0900A0E1 		mov	r0, r9
 1653 0530 24109DE5 		ldr	r1, [sp, #36]	@ float
 1654 0534 0630A0E1 		mov	r3, r6
 1655 0538 FEFFFFEB 		bl	nav_approaching_xy
 1656 053c 000050E3 		cmp	r0, #0
 1657 0540 0220A013 		movne	r2, #2
 1658 0544 9200000A 		beq	.L111
 1659 0548 8C0000EA 		b	.L175
 1660              	.L120:
 1661 054c 022184E2 		add	r2, r4, #-2147483648
 1662 0550 14009DE5 		ldr	r0, [sp, #20]	@ float
 1663 0554 18109DE5 		ldr	r1, [sp, #24]	@ float
 1664 0558 FEFFFFEB 		bl	nav_circle_XY
 1665 055c 0A00A0E1 		mov	r0, sl
 1666 0560 FEFFFFEB 		bl	__aeabi_f2d
 1667 0564 44229FE5 		ldr	r2, .L177+16
 1668 0568 44329FE5 		ldr	r3, .L177+20
 1669 056c FEFFFFEB 		bl	__aeabi_dmul
 1670 0570 0020A0E3 		mov	r2, #0
 1671 0574 3C329FE5 		ldr	r3, .L177+24
 1672 0578 FEFFFFEB 		bl	__aeabi_dadd
 1673 057c 38329FE5 		ldr	r3, .L177+28
 1674 0580 0040A0E1 		mov	r4, r0
 1675 0584 000093E5 		ldr	r0, [r3, #0]	@ float
 1676 0588 0150A0E1 		mov	r5, r1
 1677 058c FEFFFFEB 		bl	__aeabi_f2d
 1678 0590 0020A0E1 		mov	r2, r0
 1679 0594 0130A0E1 		mov	r3, r1
 1680 0598 04029FE5 		ldr	r0, .L177+4
 1681 059c 1C129FE5 		ldr	r1, .L177+32
 1682 05a0 FEFFFFEB 		bl	__aeabi_dsub
 1683 05a4 04229FE5 		ldr	r2, .L177+16
 1684 05a8 04329FE5 		ldr	r3, .L177+20
 1685 05ac FEFFFFEB 		bl	__aeabi_dmul
 1686 05b0 FEFFFFEB 		bl	__aeabi_d2f
 1687 05b4 0070A0E3 		mov	r7, #0
 1688 05b8 0060A0E1 		mov	r6, r0
 1689 05bc 030000EA 		b	.L143
 1690              	.L146:
 1691 05c0 0600A0E1 		mov	r0, r6
 1692 05c4 F8119FE5 		ldr	r1, .L177+36
 1693 05c8 FEFFFFEB 		bl	__aeabi_fadd
 1694 05cc 0060A0E1 		mov	r6, r0
 1695              	.L143:
 1696 05d0 0600A0E1 		mov	r0, r6
 1697 05d4 0010A0E3 		mov	r1, #0
 1698 05d8 FEFFFFEB 		bl	__aeabi_fcmplt
 1699 05dc 000050E3 		cmp	r0, #0
 1700 05e0 FF8007E2 		and	r8, r7, #255
 1701 05e4 0700000A 		beq	.L169
 1702 05e8 017087E2 		add	r7, r7, #1
 1703 05ec 010C57E3 		cmp	r7, #256
 1704 05f0 F2FFFF1A 		bne	.L146
 1705 05f4 0080A0E3 		mov	r8, #0
 1706 05f8 020000EA 		b	.L169
 1707              	.L150:
 1708 05fc C0119FE5 		ldr	r1, .L177+36
 1709 0600 FEFFFFEB 		bl	__aeabi_fsub
 1710 0604 0060A0E1 		mov	r6, r0
 1711              	.L169:
 1712 0608 0600A0E1 		mov	r0, r6
 1713 060c B0119FE5 		ldr	r1, .L177+36
 1714 0610 FEFFFFEB 		bl	__aeabi_fcmpge
 1715 0614 000050E3 		cmp	r0, #0
 1716 0618 0600A0E1 		mov	r0, r6
 1717 061c 0200000A 		beq	.L148
 1718 0620 018088E2 		add	r8, r8, #1
 1719 0624 FF8018E2 		ands	r8, r8, #255
 1720 0628 F3FFFF1A 		bne	.L150
 1721              	.L148:
 1722 062c FEFFFFEB 		bl	__aeabi_f2d
 1723 0630 0020A0E1 		mov	r2, r0
 1724 0634 0130A0E1 		mov	r3, r1
 1725 0638 0400A0E1 		mov	r0, r4
 1726 063c 0510A0E1 		mov	r1, r5
 1727 0640 FEFFFFEB 		bl	__aeabi_dsub
 1728 0644 FEFFFFEB 		bl	__aeabi_d2f
 1729 0648 0050A0E3 		mov	r5, #0
 1730 064c 0040A0E1 		mov	r4, r0
 1731 0650 030000EA 		b	.L151
 1732              	.L154:
 1733 0654 0400A0E1 		mov	r0, r4
 1734 0658 64119FE5 		ldr	r1, .L177+36
 1735 065c FEFFFFEB 		bl	__aeabi_fadd
 1736 0660 0040A0E1 		mov	r4, r0
 1737              	.L151:
 1738 0664 0400A0E1 		mov	r0, r4
 1739 0668 0010A0E3 		mov	r1, #0
 1740 066c FEFFFFEB 		bl	__aeabi_fcmplt
 1741 0670 000050E3 		cmp	r0, #0
 1742 0674 FF6005E2 		and	r6, r5, #255
 1743 0678 0700000A 		beq	.L170
 1744 067c 015085E2 		add	r5, r5, #1
 1745 0680 010C55E3 		cmp	r5, #256
 1746 0684 F2FFFF1A 		bne	.L154
 1747 0688 0060A0E3 		mov	r6, #0
 1748 068c 020000EA 		b	.L170
 1749              	.L158:
 1750 0690 2C119FE5 		ldr	r1, .L177+36
 1751 0694 FEFFFFEB 		bl	__aeabi_fsub
 1752 0698 0040A0E1 		mov	r4, r0
 1753              	.L170:
 1754 069c 0400A0E1 		mov	r0, r4
 1755 06a0 1C119FE5 		ldr	r1, .L177+36
 1756 06a4 FEFFFFEB 		bl	__aeabi_fcmpge
 1757 06a8 000050E3 		cmp	r0, #0
 1758 06ac 0400A0E1 		mov	r0, r4
 1759 06b0 0200000A 		beq	.L156
 1760 06b4 016086E2 		add	r6, r6, #1
 1761 06b8 FF6016E2 		ands	r6, r6, #255
 1762 06bc F3FFFF1A 		bne	.L158
 1763              	.L156:
 1764 06c0 00119FE5 		ldr	r1, .L177+40
 1765 06c4 FEFFFFEB 		bl	__aeabi_fcmpgt
 1766 06c8 000050E3 		cmp	r0, #0
 1767 06cc 0400001A 		bne	.L159
 1768 06d0 0400A0E1 		mov	r0, r4
 1769 06d4 F0109FE5 		ldr	r1, .L177+44
 1770 06d8 FEFFFFEB 		bl	__aeabi_fcmplt
 1771 06dc 000050E3 		cmp	r0, #0
 1772 06e0 2B00000A 		beq	.L111
 1773              	.L159:
 1774 06e4 0320A0E3 		mov	r2, #3
 1775 06e8 240000EA 		b	.L175
 1776              	.L121:
 1777 06ec 0700A0E1 		mov	r0, r7
 1778 06f0 0810A0E1 		mov	r1, r8
 1779 06f4 1C209DE5 		ldr	r2, [sp, #28]	@ float
 1780 06f8 20309DE5 		ldr	r3, [sp, #32]	@ float
 1781 06fc FEFFFFEB 		bl	nav_route_xy
 1782 0700 0CC09DE5 		ldr	ip, [sp, #12]
 1783 0704 0C20A0E3 		mov	r2, #12
 1784 0708 9C0202E0 		mul	r2, ip, r2
 1785 070c 8C109FE5 		ldr	r1, .L177
 1786 0710 0000A0E3 		mov	r0, #0
 1787 0714 00008DE5 		str	r0, [sp, #0]	@ float
 1788 0718 023081E0 		add	r3, r1, r2
 1789 071c 020091E7 		ldr	r0, [r1, r2]	@ float
 1790 0720 041093E5 		ldr	r1, [r3, #4]	@ float
 1791 0724 0720A0E1 		mov	r2, r7
 1792 0728 0830A0E1 		mov	r3, r8
 1793 072c FEFFFFEB 		bl	nav_approaching_xy
 1794 0730 000050E3 		cmp	r0, #0
 1795 0734 70309F15 		ldrne	r3, .L177+12
 1796 0738 0420A013 		movne	r2, #4
 1797 073c 1400000A 		beq	.L111
 1798 0740 0F0000EA 		b	.L176
 1799              	.L122:
 1800 0744 0700A0E1 		mov	r0, r7
 1801 0748 0810A0E1 		mov	r1, r8
 1802 074c 1C209DE5 		ldr	r2, [sp, #28]	@ float
 1803 0750 20309DE5 		ldr	r3, [sp, #32]	@ float
 1804 0754 FEFFFFEB 		bl	nav_route_xy
 1805 0758 70309FE5 		ldr	r3, .L177+48
 1806 075c 1C009DE5 		ldr	r0, [sp, #28]	@ float
 1807 0760 00308DE5 		str	r3, [sp, #0]	@ float
 1808 0764 20109DE5 		ldr	r1, [sp, #32]	@ float
 1809 0768 0720A0E1 		mov	r2, r7
 1810 076c 0830A0E1 		mov	r3, r8
 1811 0770 FEFFFFEB 		bl	nav_approaching_xy
 1812 0774 000050E3 		cmp	r0, #0
 1813 0778 0500000A 		beq	.L111
 1814 077c 0520A0E3 		mov	r2, #5
 1815              	.L175:
 1816 0780 24309FE5 		ldr	r3, .L177+12
 1817              	.L176:
 1818 0784 0020C3E5 		strb	r2, [r3, #0]
 1819 0788 34D08DE2 		add	sp, sp, #52
 1820 078c F04FBDE8 		ldmfd	sp!, {r4, r5, r6, r7, r8, r9, sl, fp, lr}
 1821 0790 FEFFFFEA 		b	nav_init_stage
 1822              	.L111:
 1823 0794 34D08DE2 		add	sp, sp, #52
 1824 0798 F04FBDE8 		ldmfd	sp!, {r4, r5, r6, r7, r8, r9, sl, fp, lr}
 1825 079c 1EFF2FE1 		bx	lr
 1826              	.L178:
 1827              		.align	2
 1828              	.L177:
 1829 07a0 00000000 		.word	.LANCHOR7
 1830 07a4 182D4454 		.word	1413754136
 1831 07a8 FB210940 		.word	1074340347
 1832 07ac 00000000 		.word	.LANCHOR14
 1833 07b0 F8C1631A 		.word	442745336
 1834 07b4 DCA54C40 		.word	1078765020
 1835 07b8 00002440 		.word	1076101120
 1836 07bc 00000000 		.word	nav_circle_trigo_qdr
 1837 07c0 FB21F93F 		.word	1073291771
 1838 07c4 0000B443 		.word	1135869952
 1839 07c8 0000AF43 		.word	1135542272
 1840 07cc 00002041 		.word	1092616192
 1841 07d0 0000A040 		.word	1084227584
 1843              		.section	.text.nav_oval_init,"ax",%progbits
 1844              		.align	2
 1845              		.global	nav_oval_init
 1847              	nav_oval_init:
 1848              		@ Function supports interworking.
 1849              		@ args = 0, pretend = 0, frame = 0
 1850              		@ frame_needed = 0, uses_anonymous_args = 0
 1851              		@ link register save eliminated.
 1852 0000 14309FE5 		ldr	r3, .L180
 1853 0004 0120A0E3 		mov	r2, #1
 1854 0008 0020C3E5 		strb	r2, [r3, #0]
 1855 000c 0C309FE5 		ldr	r3, .L180+4
 1856 0010 0020A0E3 		mov	r2, #0
 1857 0014 0020C3E5 		strb	r2, [r3, #0]
 1858 0018 1EFF2FE1 		bx	lr
 1859              	.L181:
 1860              		.align	2
 1861              	.L180:
 1862 001c 00000000 		.word	oval_status
 1863 0020 00000000 		.word	nav_oval_count
 1865              		.section	.text.nav_oval,"ax",%progbits
 1866              		.align	2
 1867              		.global	nav_oval
 1869              	nav_oval:
 1870              		@ Function supports interworking.
 1871              		@ args = 0, pretend = 0, frame = 40
 1872              		@ frame_needed = 0, uses_anonymous_args = 0
 1873 0000 F04F2DE9 		stmfd	sp!, {r4, r5, r6, r7, r8, r9, sl, fp, lr}
 1874 0004 0C70A0E3 		mov	r7, #12
 1875 0008 00A0A0E1 		mov	sl, r0
 1876 000c 970A0AE0 		mul	sl, r7, sl
 1877 0010 910707E0 		mul	r7, r1, r7
 1878 0014 9C569FE5 		ldr	r5, .L247
 1879 0018 0A8085E0 		add	r8, r5, sl
 1880 001c 083098E5 		ldr	r3, [r8, #8]	@ float
 1881 0020 34D04DE2 		sub	sp, sp, #52
 1882 0024 076085E0 		add	r6, r5, r7
 1883 0028 083086E5 		str	r3, [r6, #8]	@ float
 1884 002c 28008DE5 		str	r0, [sp, #40]
 1885 0030 2C108DE5 		str	r1, [sp, #44]
 1886 0034 0A0095E7 		ldr	r0, [r5, sl]	@ float
 1887 0038 071095E7 		ldr	r1, [r5, r7]	@ float
 1888 003c 024182E2 		add	r4, r2, #-2147483648
 1889 0040 10208DE5 		str	r2, [sp, #16]	@ float
 1890 0044 FEFFFFEB 		bl	__aeabi_fsub
 1891 0048 041096E5 		ldr	r1, [r6, #4]	@ float
 1892 004c 00B0A0E1 		mov	fp, r0
 1893 0050 040098E5 		ldr	r0, [r8, #4]	@ float
 1894 0054 FEFFFFEB 		bl	__aeabi_fsub
 1895 0058 0B10A0E1 		mov	r1, fp
 1896 005c 0090A0E1 		mov	r9, r0
 1897 0060 0B00A0E1 		mov	r0, fp
 1898 0064 FEFFFFEB 		bl	__aeabi_fmul
 1899 0068 0910A0E1 		mov	r1, r9
 1900 006c 0030A0E1 		mov	r3, r0
 1901 0070 0900A0E1 		mov	r0, r9
 1902 0074 0C308DE5 		str	r3, [sp, #12]
 1903 0078 FEFFFFEB 		bl	__aeabi_fmul
 1904 007c 0C309DE5 		ldr	r3, [sp, #12]
 1905 0080 0010A0E1 		mov	r1, r0
 1906 0084 0300A0E1 		mov	r0, r3
 1907 0088 FEFFFFEB 		bl	__aeabi_fadd
 1908 008c FEFFFFEB 		bl	__aeabi_f2d
 1909 0090 FEFFFFEB 		bl	sqrt
 1910 0094 FEFFFFEB 		bl	__aeabi_d2f
 1911 0098 0030A0E1 		mov	r3, r0
 1912 009c 0310A0E1 		mov	r1, r3
 1913 00a0 0B00A0E1 		mov	r0, fp
 1914 00a4 0C308DE5 		str	r3, [sp, #12]
 1915 00a8 FEFFFFEB 		bl	__aeabi_fdiv
 1916 00ac 0C309DE5 		ldr	r3, [sp, #12]
 1917 00b0 00B0A0E1 		mov	fp, r0
 1918 00b4 0310A0E1 		mov	r1, r3
 1919 00b8 0900A0E1 		mov	r0, r9
 1920 00bc FEFFFFEB 		bl	__aeabi_fdiv
 1921 00c0 022180E2 		add	r2, r0, #-2147483648
 1922 00c4 18208DE5 		str	r2, [sp, #24]
 1923 00c8 0AA095E7 		ldr	sl, [r5, sl]	@ float
 1924 00cc 18109DE5 		ldr	r1, [sp, #24]	@ float
 1925 00d0 0090A0E1 		mov	r9, r0
 1926 00d4 0400A0E1 		mov	r0, r4
 1927 00d8 14A08DE5 		str	sl, [sp, #20]	@ float
 1928 00dc FEFFFFEB 		bl	__aeabi_fmul
 1929 00e0 048098E5 		ldr	r8, [r8, #4]	@ float
 1930 00e4 1C008DE5 		str	r0, [sp, #28]	@ float
 1931 00e8 0B10A0E1 		mov	r1, fp
 1932 00ec 0400A0E1 		mov	r0, r4
 1933 00f0 20808DE5 		str	r8, [sp, #32]	@ float
 1934 00f4 FEFFFFEB 		bl	__aeabi_fmul
 1935 00f8 24008DE5 		str	r0, [sp, #36]	@ float
 1936 00fc 0900A0E1 		mov	r0, r9
 1937 0100 FEFFFFEB 		bl	__aeabi_f2d
 1938 0104 048096E5 		ldr	r8, [r6, #4]	@ float
 1939 0108 0060A0E1 		mov	r6, r0
 1940 010c 0B00A0E1 		mov	r0, fp
 1941 0110 07A095E7 		ldr	sl, [r5, r7]	@ float
 1942 0114 0170A0E1 		mov	r7, r1
 1943 0118 FEFFFFEB 		bl	__aeabi_f2d
 1944 011c 0020A0E1 		mov	r2, r0
 1945 0120 0130A0E1 		mov	r3, r1
 1946 0124 0600A0E1 		mov	r0, r6
 1947 0128 0710A0E1 		mov	r1, r7
 1948 012c FEFFFFEB 		bl	atan2
 1949 0130 0020A0E1 		mov	r2, r0
 1950 0134 0130A0E1 		mov	r3, r1
 1951 0138 7C059FE5 		ldr	r0, .L247+4
 1952 013c 7C159FE5 		ldr	r1, .L247+8
 1953 0140 FEFFFFEB 		bl	__aeabi_dsub
 1954 0144 FEFFFFEB 		bl	__aeabi_d2f
 1955 0148 0070A0E1 		mov	r7, r0
 1956 014c FEFFFFEB 		bl	__aeabi_f2d
 1957 0150 64259FE5 		ldr	r2, .L247+4
 1958 0154 64359FE5 		ldr	r3, .L247+8
 1959 0158 FEFFFFEB 		bl	__aeabi_dadd
 1960 015c FEFFFFEB 		bl	__aeabi_d2f
 1961 0160 0010A0E3 		mov	r1, #0
 1962 0164 0060A0E1 		mov	r6, r0
 1963 0168 0400A0E1 		mov	r0, r4
 1964 016c FEFFFFEB 		bl	__aeabi_fcmplt
 1965 0170 000050E3 		cmp	r0, #0
 1966 0174 0700000A 		beq	.L183
 1967 0178 0600A0E1 		mov	r0, r6
 1968 017c FEFFFFEB 		bl	__aeabi_f2d
 1969 0180 34259FE5 		ldr	r2, .L247+4
 1970 0184 34359FE5 		ldr	r3, .L247+8
 1971 0188 FEFFFFEB 		bl	__aeabi_dadd
 1972 018c FEFFFFEB 		bl	__aeabi_d2f
 1973 0190 0670A0E1 		mov	r7, r6
 1974 0194 0060A0E1 		mov	r6, r0
 1975              	.L183:
 1976 0198 0400A0E1 		mov	r0, r4
 1977 019c 0010A0E3 		mov	r1, #0
 1978 01a0 FEFFFFEB 		bl	__aeabi_fcmpgt
 1979 01a4 18359FE5 		ldr	r3, .L247+12
 1980 01a8 0030D3E5 		ldrb	r3, [r3, #0]	@ zero_extendqisi2
 1981 01ac 000050E3 		cmp	r0, #0
 1982 01b0 10559F15 		ldrne	r5, .L247+16
 1983 01b4 10559F05 		ldreq	r5, .L247+20
 1984 01b8 030053E3 		cmp	r3, #3
 1985 01bc 03F19F97 		ldrls	pc, [pc, r3, asl #2]
 1986 01c0 390100EA 		b	.L182
 1987              	.L192:
 1988 01c4 A8030000 		.word	.L188
 1989 01c8 68040000 		.word	.L189
 1990 01cc 3C060000 		.word	.L190
 1991 01d0 D4010000 		.word	.L191
 1992              	.L191:
 1993 01d4 1C109DE5 		ldr	r1, [sp, #28]	@ float
 1994 01d8 14009DE5 		ldr	r0, [sp, #20]	@ float
 1995 01dc FEFFFFEB 		bl	__aeabi_fadd
 1996 01e0 24109DE5 		ldr	r1, [sp, #36]	@ float
 1997 01e4 0040A0E1 		mov	r4, r0
 1998 01e8 20009DE5 		ldr	r0, [sp, #32]	@ float
 1999 01ec FEFFFFEB 		bl	__aeabi_fadd
 2000 01f0 10209DE5 		ldr	r2, [sp, #16]	@ float
 2001 01f4 0010A0E1 		mov	r1, r0
 2002 01f8 0400A0E1 		mov	r0, r4
 2003 01fc FEFFFFEB 		bl	nav_circle_XY
 2004 0200 0600A0E1 		mov	r0, r6
 2005 0204 FEFFFFEB 		bl	__aeabi_f2d
 2006 0208 C0249FE5 		ldr	r2, .L247+24
 2007 020c C0349FE5 		ldr	r3, .L247+28
 2008 0210 FEFFFFEB 		bl	__aeabi_dmul
 2009 0214 0060A0E1 		mov	r6, r0
 2010 0218 0500A0E1 		mov	r0, r5
 2011 021c 0170A0E1 		mov	r7, r1
 2012 0220 FEFFFFEB 		bl	__aeabi_f2d
 2013 0224 0020A0E1 		mov	r2, r0
 2014 0228 0130A0E1 		mov	r3, r1
 2015 022c 0600A0E1 		mov	r0, r6
 2016 0230 0710A0E1 		mov	r1, r7
 2017 0234 FEFFFFEB 		bl	__aeabi_dsub
 2018 0238 98349FE5 		ldr	r3, .L247+32
 2019 023c 0040A0E1 		mov	r4, r0
 2020 0240 000093E5 		ldr	r0, [r3, #0]	@ float
 2021 0244 0150A0E1 		mov	r5, r1
 2022 0248 FEFFFFEB 		bl	__aeabi_f2d
 2023 024c 0020A0E1 		mov	r2, r0
 2024 0250 0130A0E1 		mov	r3, r1
 2025 0254 60049FE5 		ldr	r0, .L247+4
 2026 0258 7C149FE5 		ldr	r1, .L247+36
 2027 025c FEFFFFEB 		bl	__aeabi_dsub
 2028 0260 68249FE5 		ldr	r2, .L247+24
 2029 0264 68349FE5 		ldr	r3, .L247+28
 2030 0268 FEFFFFEB 		bl	__aeabi_dmul
 2031 026c FEFFFFEB 		bl	__aeabi_d2f
 2032 0270 0070A0E3 		mov	r7, #0
 2033 0274 0060A0E1 		mov	r6, r0
 2034 0278 030000EA 		b	.L193
 2035              	.L196:
 2036 027c 0600A0E1 		mov	r0, r6
 2037 0280 58149FE5 		ldr	r1, .L247+40
 2038 0284 FEFFFFEB 		bl	__aeabi_fadd
 2039 0288 0060A0E1 		mov	r6, r0
 2040              	.L193:
 2041 028c 0600A0E1 		mov	r0, r6
 2042 0290 0010A0E3 		mov	r1, #0
 2043 0294 FEFFFFEB 		bl	__aeabi_fcmplt
 2044 0298 000050E3 		cmp	r0, #0
 2045 029c FF8007E2 		and	r8, r7, #255
 2046 02a0 0700000A 		beq	.L237
 2047 02a4 017087E2 		add	r7, r7, #1
 2048 02a8 010C57E3 		cmp	r7, #256
 2049 02ac F2FFFF1A 		bne	.L196
 2050 02b0 0080A0E3 		mov	r8, #0
 2051 02b4 020000EA 		b	.L237
 2052              	.L200:
 2053 02b8 20149FE5 		ldr	r1, .L247+40
 2054 02bc FEFFFFEB 		bl	__aeabi_fsub
 2055 02c0 0060A0E1 		mov	r6, r0
 2056              	.L237:
 2057 02c4 0600A0E1 		mov	r0, r6
 2058 02c8 10149FE5 		ldr	r1, .L247+40
 2059 02cc FEFFFFEB 		bl	__aeabi_fcmpge
 2060 02d0 000050E3 		cmp	r0, #0
 2061 02d4 0600A0E1 		mov	r0, r6
 2062 02d8 0200000A 		beq	.L198
 2063 02dc 018088E2 		add	r8, r8, #1
 2064 02e0 FF8018E2 		ands	r8, r8, #255
 2065 02e4 F3FFFF1A 		bne	.L200
 2066              	.L198:
 2067 02e8 FEFFFFEB 		bl	__aeabi_f2d
 2068 02ec 0020A0E1 		mov	r2, r0
 2069 02f0 0130A0E1 		mov	r3, r1
 2070 02f4 0400A0E1 		mov	r0, r4
 2071 02f8 0510A0E1 		mov	r1, r5
 2072 02fc FEFFFFEB 		bl	__aeabi_dsub
 2073 0300 FEFFFFEB 		bl	__aeabi_d2f
 2074 0304 0050A0E3 		mov	r5, #0
 2075 0308 0040A0E1 		mov	r4, r0
 2076 030c 030000EA 		b	.L201
 2077              	.L204:
 2078 0310 0400A0E1 		mov	r0, r4
 2079 0314 C4139FE5 		ldr	r1, .L247+40
 2080 0318 FEFFFFEB 		bl	__aeabi_fadd
 2081 031c 0040A0E1 		mov	r4, r0
 2082              	.L201:
 2083 0320 0400A0E1 		mov	r0, r4
 2084 0324 0010A0E3 		mov	r1, #0
 2085 0328 FEFFFFEB 		bl	__aeabi_fcmplt
 2086 032c 000050E3 		cmp	r0, #0
 2087 0330 FF6005E2 		and	r6, r5, #255
 2088 0334 0700000A 		beq	.L238
 2089 0338 015085E2 		add	r5, r5, #1
 2090 033c 010C55E3 		cmp	r5, #256
 2091 0340 F2FFFF1A 		bne	.L204
 2092 0344 0060A0E3 		mov	r6, #0
 2093 0348 020000EA 		b	.L238
 2094              	.L208:
 2095 034c 8C139FE5 		ldr	r1, .L247+40
 2096 0350 FEFFFFEB 		bl	__aeabi_fsub
 2097 0354 0040A0E1 		mov	r4, r0
 2098              	.L238:
 2099 0358 0400A0E1 		mov	r0, r4
 2100 035c 7C139FE5 		ldr	r1, .L247+40
 2101 0360 FEFFFFEB 		bl	__aeabi_fcmpge
 2102 0364 000050E3 		cmp	r0, #0
 2103 0368 0400A0E1 		mov	r0, r4
 2104 036c 0200000A 		beq	.L206
 2105 0370 016086E2 		add	r6, r6, #1
 2106 0374 FF6016E2 		ands	r6, r6, #255
 2107 0378 F3FFFF1A 		bne	.L208
 2108              	.L206:
 2109 037c 60139FE5 		ldr	r1, .L247+44
 2110 0380 FEFFFFEB 		bl	__aeabi_fcmpgt
 2111 0384 000050E3 		cmp	r0, #0
 2112 0388 0400001A 		bne	.L209
 2113 038c 0400A0E1 		mov	r0, r4
 2114 0390 50139FE5 		ldr	r1, .L247+48
 2115 0394 FEFFFFEB 		bl	__aeabi_fcmplt
 2116 0398 000050E3 		cmp	r0, #0
 2117 039c C200000A 		beq	.L182
 2118              	.L209:
 2119 03a0 0020A0E3 		mov	r2, #0
 2120 03a4 BB0000EA 		b	.L245
 2121              	.L188:
 2122 03a8 0410A0E1 		mov	r1, r4
 2123 03ac 0400A0E1 		mov	r0, r4
 2124 03b0 FEFFFFEB 		bl	__aeabi_fadd
 2125 03b4 18109DE5 		ldr	r1, [sp, #24]	@ float
 2126 03b8 0050A0E1 		mov	r5, r0
 2127 03bc FEFFFFEB 		bl	__aeabi_fmul
 2128 03c0 0060A0E1 		mov	r6, r0
 2129 03c4 0610A0E1 		mov	r1, r6
 2130 03c8 14009DE5 		ldr	r0, [sp, #20]	@ float
 2131 03cc FEFFFFEB 		bl	__aeabi_fadd
 2132 03d0 0B10A0E1 		mov	r1, fp
 2133 03d4 0040A0E1 		mov	r4, r0
 2134 03d8 0500A0E1 		mov	r0, r5
 2135 03dc FEFFFFEB 		bl	__aeabi_fmul
 2136 03e0 0070A0E1 		mov	r7, r0
 2137 03e4 0710A0E1 		mov	r1, r7
 2138 03e8 20009DE5 		ldr	r0, [sp, #32]	@ float
 2139 03ec FEFFFFEB 		bl	__aeabi_fadd
 2140 03f0 0610A0E1 		mov	r1, r6
 2141 03f4 0050A0E1 		mov	r5, r0
 2142 03f8 0A00A0E1 		mov	r0, sl
 2143 03fc FEFFFFEB 		bl	__aeabi_fadd
 2144 0400 0710A0E1 		mov	r1, r7
 2145 0404 0060A0E1 		mov	r6, r0
 2146 0408 0800A0E1 		mov	r0, r8
 2147 040c FEFFFFEB 		bl	__aeabi_fadd
 2148 0410 0070A0E1 		mov	r7, r0
 2149 0414 0510A0E1 		mov	r1, r5
 2150 0418 0400A0E1 		mov	r0, r4
 2151 041c 0620A0E1 		mov	r2, r6
 2152 0420 0730A0E1 		mov	r3, r7
 2153 0424 FEFFFFEB 		bl	nav_route_xy
 2154 0428 BC329FE5 		ldr	r3, .L247+52
 2155 042c 0600A0E1 		mov	r0, r6
 2156 0430 00308DE5 		str	r3, [sp, #0]	@ float
 2157 0434 0710A0E1 		mov	r1, r7
 2158 0438 0420A0E1 		mov	r2, r4
 2159 043c 0530A0E1 		mov	r3, r5
 2160 0440 FEFFFFEB 		bl	nav_approaching_xy
 2161 0444 000050E3 		cmp	r0, #0
 2162 0448 9700000A 		beq	.L182
 2163 044c 70329FE5 		ldr	r3, .L247+12
 2164 0450 0120A0E3 		mov	r2, #1
 2165 0454 0020C3E5 		strb	r2, [r3, #0]
 2166 0458 90329FE5 		ldr	r3, .L247+56
 2167 045c 0020D3E5 		ldrb	r2, [r3, #0]	@ zero_extendqisi2
 2168 0460 012082E2 		add	r2, r2, #1
 2169 0464 8C0000EA 		b	.L246
 2170              	.L189:
 2171 0468 1C109DE5 		ldr	r1, [sp, #28]	@ float
 2172 046c 0A00A0E1 		mov	r0, sl
 2173 0470 FEFFFFEB 		bl	__aeabi_fadd
 2174 0474 24109DE5 		ldr	r1, [sp, #36]	@ float
 2175 0478 0040A0E1 		mov	r4, r0
 2176 047c 0800A0E1 		mov	r0, r8
 2177 0480 FEFFFFEB 		bl	__aeabi_fadd
 2178 0484 10209DE5 		ldr	r2, [sp, #16]	@ float
 2179 0488 0010A0E1 		mov	r1, r0
 2180 048c 0400A0E1 		mov	r0, r4
 2181 0490 FEFFFFEB 		bl	nav_circle_XY
 2182 0494 0700A0E1 		mov	r0, r7
 2183 0498 FEFFFFEB 		bl	__aeabi_f2d
 2184 049c 2C229FE5 		ldr	r2, .L247+24
 2185 04a0 2C329FE5 		ldr	r3, .L247+28
 2186 04a4 FEFFFFEB 		bl	__aeabi_dmul
 2187 04a8 0060A0E1 		mov	r6, r0
 2188 04ac 0500A0E1 		mov	r0, r5
 2189 04b0 0170A0E1 		mov	r7, r1
 2190 04b4 FEFFFFEB 		bl	__aeabi_f2d
 2191 04b8 0020A0E1 		mov	r2, r0
 2192 04bc 0130A0E1 		mov	r3, r1
 2193 04c0 0600A0E1 		mov	r0, r6
 2194 04c4 0710A0E1 		mov	r1, r7
 2195 04c8 FEFFFFEB 		bl	__aeabi_dsub
 2196 04cc 04329FE5 		ldr	r3, .L247+32
 2197 04d0 0040A0E1 		mov	r4, r0
 2198 04d4 000093E5 		ldr	r0, [r3, #0]	@ float
 2199 04d8 0150A0E1 		mov	r5, r1
 2200 04dc FEFFFFEB 		bl	__aeabi_f2d
 2201 04e0 0020A0E1 		mov	r2, r0
 2202 04e4 0130A0E1 		mov	r3, r1
 2203 04e8 CC019FE5 		ldr	r0, .L247+4
 2204 04ec E8119FE5 		ldr	r1, .L247+36
 2205 04f0 FEFFFFEB 		bl	__aeabi_dsub
 2206 04f4 D4219FE5 		ldr	r2, .L247+24
 2207 04f8 D4319FE5 		ldr	r3, .L247+28
 2208 04fc FEFFFFEB 		bl	__aeabi_dmul
 2209 0500 FEFFFFEB 		bl	__aeabi_d2f
 2210 0504 0070A0E3 		mov	r7, #0
 2211 0508 0060A0E1 		mov	r6, r0
 2212 050c 030000EA 		b	.L211
 2213              	.L214:
 2214 0510 0600A0E1 		mov	r0, r6
 2215 0514 C4119FE5 		ldr	r1, .L247+40
 2216 0518 FEFFFFEB 		bl	__aeabi_fadd
 2217 051c 0060A0E1 		mov	r6, r0
 2218              	.L211:
 2219 0520 0600A0E1 		mov	r0, r6
 2220 0524 0010A0E3 		mov	r1, #0
 2221 0528 FEFFFFEB 		bl	__aeabi_fcmplt
 2222 052c 000050E3 		cmp	r0, #0
 2223 0530 FF8007E2 		and	r8, r7, #255
 2224 0534 0700000A 		beq	.L239
 2225 0538 017087E2 		add	r7, r7, #1
 2226 053c 010C57E3 		cmp	r7, #256
 2227 0540 F2FFFF1A 		bne	.L214
 2228 0544 0080A0E3 		mov	r8, #0
 2229 0548 020000EA 		b	.L239
 2230              	.L218:
 2231 054c 8C119FE5 		ldr	r1, .L247+40
 2232 0550 FEFFFFEB 		bl	__aeabi_fsub
 2233 0554 0060A0E1 		mov	r6, r0
 2234              	.L239:
 2235 0558 0600A0E1 		mov	r0, r6
 2236 055c 7C119FE5 		ldr	r1, .L247+40
 2237 0560 FEFFFFEB 		bl	__aeabi_fcmpge
 2238 0564 000050E3 		cmp	r0, #0
 2239 0568 0600A0E1 		mov	r0, r6
 2240 056c 0200000A 		beq	.L216
 2241 0570 018088E2 		add	r8, r8, #1
 2242 0574 FF8018E2 		ands	r8, r8, #255
 2243 0578 F3FFFF1A 		bne	.L218
 2244              	.L216:
 2245 057c FEFFFFEB 		bl	__aeabi_f2d
 2246 0580 0020A0E1 		mov	r2, r0
 2247 0584 0130A0E1 		mov	r3, r1
 2248 0588 0400A0E1 		mov	r0, r4
 2249 058c 0510A0E1 		mov	r1, r5
 2250 0590 FEFFFFEB 		bl	__aeabi_dsub
 2251 0594 FEFFFFEB 		bl	__aeabi_d2f
 2252 0598 0050A0E3 		mov	r5, #0
 2253 059c 0040A0E1 		mov	r4, r0
 2254 05a0 030000EA 		b	.L219
 2255              	.L222:
 2256 05a4 0400A0E1 		mov	r0, r4
 2257 05a8 30119FE5 		ldr	r1, .L247+40
 2258 05ac FEFFFFEB 		bl	__aeabi_fadd
 2259 05b0 0040A0E1 		mov	r4, r0
 2260              	.L219:
 2261 05b4 0400A0E1 		mov	r0, r4
 2262 05b8 0010A0E3 		mov	r1, #0
 2263 05bc FEFFFFEB 		bl	__aeabi_fcmplt
 2264 05c0 000050E3 		cmp	r0, #0
 2265 05c4 FF6005E2 		and	r6, r5, #255
 2266 05c8 0700000A 		beq	.L240
 2267 05cc 015085E2 		add	r5, r5, #1
 2268 05d0 010C55E3 		cmp	r5, #256
 2269 05d4 F2FFFF1A 		bne	.L222
 2270 05d8 0060A0E3 		mov	r6, #0
 2271 05dc 020000EA 		b	.L240
 2272              	.L226:
 2273 05e0 F8109FE5 		ldr	r1, .L247+40
 2274 05e4 FEFFFFEB 		bl	__aeabi_fsub
 2275 05e8 0040A0E1 		mov	r4, r0
 2276              	.L240:
 2277 05ec 0400A0E1 		mov	r0, r4
 2278 05f0 E8109FE5 		ldr	r1, .L247+40
 2279 05f4 FEFFFFEB 		bl	__aeabi_fcmpge
 2280 05f8 000050E3 		cmp	r0, #0
 2281 05fc 0400A0E1 		mov	r0, r4
 2282 0600 0200000A 		beq	.L224
 2283 0604 016086E2 		add	r6, r6, #1
 2284 0608 FF6016E2 		ands	r6, r6, #255
 2285 060c F3FFFF1A 		bne	.L226
 2286              	.L224:
 2287 0610 CC109FE5 		ldr	r1, .L247+44
 2288 0614 FEFFFFEB 		bl	__aeabi_fcmpgt
 2289 0618 000050E3 		cmp	r0, #0
 2290 061c 0400001A 		bne	.L227
 2291 0620 0400A0E1 		mov	r0, r4
 2292 0624 BC109FE5 		ldr	r1, .L247+48
 2293 0628 FEFFFFEB 		bl	__aeabi_fcmplt
 2294 062c 000050E3 		cmp	r0, #0
 2295 0630 1D00000A 		beq	.L182
 2296              	.L227:
 2297 0634 0220A0E3 		mov	r2, #2
 2298 0638 160000EA 		b	.L245
 2299              	.L190:
 2300 063c 28309DE5 		ldr	r3, [sp, #40]
 2301 0640 2C509DE5 		ldr	r5, [sp, #44]
 2302 0644 0C60A0E3 		mov	r6, #12
 2303 0648 960505E0 		mul	r5, r6, r5
 2304 064c 930606E0 		mul	r6, r3, r6
 2305 0650 60409FE5 		ldr	r4, .L247
 2306 0654 058084E0 		add	r8, r4, r5
 2307 0658 067084E0 		add	r7, r4, r6
 2308 065c 050094E7 		ldr	r0, [r4, r5]	@ float
 2309 0660 041098E5 		ldr	r1, [r8, #4]	@ float
 2310 0664 062094E7 		ldr	r2, [r4, r6]	@ float
 2311 0668 043097E5 		ldr	r3, [r7, #4]	@ float
 2312 066c FEFFFFEB 		bl	nav_route_xy
 2313 0670 74309FE5 		ldr	r3, .L247+52
 2314 0674 00308DE5 		str	r3, [sp, #0]	@ float
 2315 0678 060094E7 		ldr	r0, [r4, r6]	@ float
 2316 067c 041097E5 		ldr	r1, [r7, #4]	@ float
 2317 0680 052094E7 		ldr	r2, [r4, r5]	@ float
 2318 0684 043098E5 		ldr	r3, [r8, #4]	@ float
 2319 0688 FEFFFFEB 		bl	nav_approaching_xy
 2320 068c 000050E3 		cmp	r0, #0
 2321 0690 0500000A 		beq	.L182
 2322 0694 0320A0E3 		mov	r2, #3
 2323              	.L245:
 2324 0698 24309FE5 		ldr	r3, .L247+12
 2325              	.L246:
 2326 069c 0020C3E5 		strb	r2, [r3, #0]
 2327 06a0 34D08DE2 		add	sp, sp, #52
 2328 06a4 F04FBDE8 		ldmfd	sp!, {r4, r5, r6, r7, r8, r9, sl, fp, lr}
 2329 06a8 FEFFFFEA 		b	nav_init_stage
 2330              	.L182:
 2331 06ac 34D08DE2 		add	sp, sp, #52
 2332 06b0 F04FBDE8 		ldmfd	sp!, {r4, r5, r6, r7, r8, r9, sl, fp, lr}
 2333 06b4 1EFF2FE1 		bx	lr
 2334              	.L248:
 2335              		.align	2
 2336              	.L247:
 2337 06b8 00000000 		.word	.LANCHOR7
 2338 06bc 182D4454 		.word	1413754136
 2339 06c0 FB210940 		.word	1074340347
 2340 06c4 00000000 		.word	oval_status
 2341 06c8 000070C1 		.word	-1049624576
 2342 06cc 00007041 		.word	1097859072
 2343 06d0 F8C1631A 		.word	442745336
 2344 06d4 DCA54C40 		.word	1078765020
 2345 06d8 00000000 		.word	nav_circle_trigo_qdr
 2346 06dc FB21F93F 		.word	1073291771
 2347 06e0 0000B443 		.word	1135869952
 2348 06e4 0000AF43 		.word	1135542272
 2349 06e8 00002041 		.word	1092616192
 2350 06ec 0000A040 		.word	1084227584
 2351 06f0 00000000 		.word	nav_oval_count
 2353              		.global	__aeabi_ui2f
 2354              		.section	.text.nav_periodic_task,"ax",%progbits
 2355              		.align	2
 2356              		.global	nav_periodic_task
 2358              	nav_periodic_task:
 2359              		@ Function supports interworking.
 2360              		@ args = 0, pretend = 0, frame = 0
 2361              		@ frame_needed = 0, uses_anonymous_args = 0
 2362 0000 DC369FE5 		ldr	r3, .L329
 2363 0004 0020A0E3 		mov	r2, #0
 2364 0008 73402DE9 		stmfd	sp!, {r0, r1, r4, r5, r6, lr}
 2365 000c 0020C3E5 		strb	r2, [r3, #0]
 2366 0010 FEFFFFEB 		bl	compute_dist2_to_home
 2367 0014 CC569FE5 		ldr	r5, .L329+4
 2368 0018 CC369FE5 		ldr	r3, .L329+8
 2369 001c 0040A0E3 		mov	r4, #0
 2370 0020 004083E5 		str	r4, [r3, #0]	@ float
 2371 0024 0030D5E5 		ldrb	r3, [r5, #0]	@ zero_extendqisi2
 2372 0028 080053E3 		cmp	r3, #8
 2373 002c 03F19F97 		ldrls	pc, [pc, r3, asl #2]
 2374 0030 9A0100EA 		b	.L250
 2375              	.L260:
 2376 0034 58000000 		.word	.L251
 2377 0038 9C000000 		.word	.L252
 2378 003c 04010000 		.word	.L253
 2379 0040 84010000 		.word	.L254
 2380 0044 1C020000 		.word	.L255
 2381 0048 84020000 		.word	.L256
 2382 004c 0C030000 		.word	.L257
 2383 0050 94030000 		.word	.L258
 2384 0054 74060000 		.word	.L259
 2385              	.L251:
 2386 0058 90369FE5 		ldr	r3, .L329+12
 2387 005c 0010D3E5 		ldrb	r1, [r3, #0]	@ zero_extendqisi2
 2388 0060 000051E3 		cmp	r1, #0
 2389 0064 0300A0E1 		mov	r0, r3
 2390 0068 0120A0E3 		mov	r2, #1
 2391 006c 2F00000A 		beq	.L322
 2392 0070 020051E3 		cmp	r1, #2
 2393 0074 0400008A 		bhi	.L261
 2394              	.L263:
 2395 0078 74269FE5 		ldr	r2, .L329+16
 2396 007c 5B20D2E5 		ldrb	r2, [r2, #91]	@ zero_extendqisi2
 2397 0080 030052E3 		cmp	r2, #3
 2398 0084 0220A013 		movne	r2, #2
 2399 0088 6101001A 		bne	.L315
 2400              	.L261:
 2401 008c 0330A0E3 		mov	r3, #3
 2402 0090 0030C0E5 		strb	r3, [r0, #0]
 2403 0094 0120A0E3 		mov	r2, #1
 2404 0098 160000EA 		b	.L321
 2405              	.L252:
 2406 009c 4C369FE5 		ldr	r3, .L329+12
 2407 00a0 0020D3E5 		ldrb	r2, [r3, #0]	@ zero_extendqisi2
 2408 00a4 010052E3 		cmp	r2, #1
 2409 00a8 0340A0E1 		mov	r4, r3
 2410 00ac 0500009A 		bls	.L265
 2411 00b0 020052E3 		cmp	r2, #2
 2412 00b4 0320A013 		movne	r2, #3
 2413 00b8 0020C315 		strneb	r2, [r3, #0]
 2414 00bc 0220A013 		movne	r2, #2
 2415 00c0 0C00001A 		bne	.L321
 2416 00c4 030000EA 		b	.L266
 2417              	.L265:
 2418 00c8 28269FE5 		ldr	r2, .L329+20
 2419 00cc B020D2E1 		ldrh	r2, [r2, #0]
 2420 00d0 090052E3 		cmp	r2, #9
 2421 00d4 7700009A 		bls	.L323
 2422              	.L266:
 2423 00d8 0230A0E3 		mov	r3, #2
 2424 00dc 0030C4E5 		strb	r3, [r4, #0]
 2425 00e0 FEFFFFEB 		bl	nav_reset_reference
 2426 00e4 FEFFFFEB 		bl	nav_update_waypoints_alt
 2427 00e8 0030D4E5 		ldrb	r3, [r4, #0]	@ zero_extendqisi2
 2428 00ec 013083E2 		add	r3, r3, #1
 2429 00f0 0030C4E5 		strb	r3, [r4, #0]
 2430 00f4 470100EA 		b	.L318
 2431              	.L321:
 2432 00f8 E8359FE5 		ldr	r3, .L329+4
 2433 00fc 0020C3E5 		strb	r2, [r3, #0]
 2434 0100 650100EA 		b	.L317
 2435              	.L253:
 2436 0104 E4359FE5 		ldr	r3, .L329+12
 2437 0108 0020D3E5 		ldrb	r2, [r3, #0]	@ zero_extendqisi2
 2438 010c 000052E3 		cmp	r2, #0
 2439 0110 0120A003 		moveq	r2, #1
 2440 0114 0500000A 		beq	.L322
 2441 0118 010052E3 		cmp	r2, #1
 2442 011c 0220A0E3 		mov	r2, #2
 2443 0120 0020C315 		strneb	r2, [r3, #0]
 2444 0124 0320A013 		movne	r2, #3
 2445 0128 F2FFFF1A 		bne	.L321
 2446 012c 020000EA 		b	.L326
 2447              	.L322:
 2448 0130 C4159FE5 		ldr	r1, .L329+24
 2449 0134 0020C1E5 		strb	r2, [r1, #0]
 2450 0138 350100EA 		b	.L315
 2451              	.L326:
 2452 013c BC359FE5 		ldr	r3, .L329+28
 2453 0140 0020C3E5 		strb	r2, [r3, #0]
 2454 0144 B8359FE5 		ldr	r3, .L329+32
 2455 0148 0030D3E5 		ldrb	r3, [r3, #0]	@ zero_extendqisi2
 2456 014c 010053E3 		cmp	r3, #1
 2457 0150 B0359F15 		ldrne	r3, .L329+36
 2458 0154 B0259FE5 		ldr	r2, .L329+40
 2459 0158 00408315 		strne	r4, [r3, #0]	@ float
 2460 015c 0030A0E3 		mov	r3, #0
 2461 0160 0030C2E5 		strb	r3, [r2, #0]
 2462 0164 A4259FE5 		ldr	r2, .L329+44
 2463 0168 004082E5 		str	r4, [r2, #0]	@ float
 2464 016c A0259FE5 		ldr	r2, .L329+48
 2465 0170 0110A0E3 		mov	r1, #1
 2466 0174 0010C2E5 		strb	r1, [r2, #0]
 2467 0178 98259FE5 		ldr	r2, .L329+52
 2468 017c B030C2E1 		strh	r3, [r2, #0]	@ movhi
 2469 0180 460100EA 		b	.L250
 2470              	.L254:
 2471 0184 90359FE5 		ldr	r3, .L329+56
 2472 0188 90159FE5 		ldr	r1, .L329+60
 2473 018c 000093E5 		ldr	r0, [r3, #0]	@ float
 2474 0190 FEFFFFEB 		bl	__aeabi_fcmpgt
 2475 0194 000050E3 		cmp	r0, #0
 2476 0198 0430A013 		movne	r3, #4
 2477 019c 3D01001A 		bne	.L316
 2478 01a0 48359FE5 		ldr	r3, .L329+12
 2479 01a4 0020D3E5 		ldrb	r2, [r3, #0]	@ zero_extendqisi2
 2480 01a8 000052E3 		cmp	r2, #0
 2481 01ac 48159F05 		ldreq	r1, .L329+24
 2482 01b0 0020C105 		streqb	r2, [r1, #0]
 2483 01b4 3F00000A 		beq	.L323
 2484 01b8 010052E3 		cmp	r2, #1
 2485 01bc 0220A0E3 		mov	r2, #2
 2486 01c0 0020C315 		strneb	r2, [r3, #0]
 2487 01c4 0420A013 		movne	r2, #4
 2488 01c8 CAFFFF1A 		bne	.L321
 2489 01cc 2C359FE5 		ldr	r3, .L329+28
 2490 01d0 0020C3E5 		strb	r2, [r3, #0]
 2491 01d4 28359FE5 		ldr	r3, .L329+32
 2492 01d8 0030D3E5 		ldrb	r3, [r3, #0]	@ zero_extendqisi2
 2493 01dc 010053E3 		cmp	r3, #1
 2494 01e0 20359F15 		ldrne	r3, .L329+36
 2495 01e4 00408315 		strne	r4, [r3, #0]	@ float
 2496 01e8 1C359FE5 		ldr	r3, .L329+40
 2497 01ec 0020A0E3 		mov	r2, #0
 2498 01f0 0020C3E5 		strb	r2, [r3, #0]
 2499 01f4 28259FE5 		ldr	r2, .L329+64
 2500 01f8 10359FE5 		ldr	r3, .L329+44
 2501 01fc 002083E5 		str	r2, [r3, #0]	@ float
 2502 0200 0C359FE5 		ldr	r3, .L329+48
 2503 0204 0120A0E3 		mov	r2, #1
 2504 0208 0020C3E5 		strb	r2, [r3, #0]
 2505 020c 04359FE5 		ldr	r3, .L329+52
 2506 0210 962DA0E3 		mov	r2, #9600
 2507 0214 B020C3E1 		strh	r2, [r3, #0]	@ movhi
 2508 0218 200100EA 		b	.L250
 2509              	.L255:
 2510 021c CC349FE5 		ldr	r3, .L329+12
 2511 0220 0020D3E5 		ldrb	r2, [r3, #0]	@ zero_extendqisi2
 2512 0224 000052E3 		cmp	r2, #0
 2513 0228 0120A013 		movne	r2, #1
 2514 022c 0020C315 		strneb	r2, [r3, #0]
 2515 0230 0530A013 		movne	r3, #5
 2516 0234 1701001A 		bne	.L316
 2517 0238 CC349FE5 		ldr	r3, .L329+40
 2518 023c 0020C3E5 		strb	r2, [r3, #0]
 2519 0240 C8349FE5 		ldr	r3, .L329+44
 2520 0244 004083E5 		str	r4, [r3, #0]	@ float
 2521 0248 C4349FE5 		ldr	r3, .L329+48
 2522 024c 0320A0E3 		mov	r2, #3
 2523 0250 0020C3E5 		strb	r2, [r3, #0]
 2524 0254 CC349FE5 		ldr	r3, .L329+68
 2525 0258 CC249FE5 		ldr	r2, .L329+72
 2526 025c 201093E5 		ldr	r1, [r3, #32]	@ float
 2527 0260 180093E5 		ldr	r0, [r3, #24]	@ float
 2528 0264 001082E5 		str	r1, [r2, #0]	@ float
 2529 0268 C0249FE5 		ldr	r2, .L329+76
 2530 026c 1C1093E5 		ldr	r1, [r3, #28]	@ float
 2531 0270 BC349FE5 		ldr	r3, .L329+80
 2532 0274 004082E5 		str	r4, [r2, #0]	@ float
 2533 0278 002093E5 		ldr	r2, [r3, #0]	@ float
 2534 027c FEFFFFEB 		bl	nav_circle_XY
 2535 0280 060100EA 		b	.L250
 2536              	.L256:
 2537 0284 64349FE5 		ldr	r3, .L329+12
 2538 0288 0020D3E5 		ldrb	r2, [r3, #0]	@ zero_extendqisi2
 2539 028c 000052E3 		cmp	r2, #0
 2540 0290 0500000A 		beq	.L280
 2541 0294 010052E3 		cmp	r2, #1
 2542 0298 0220A013 		movne	r2, #2
 2543 029c 0020C315 		strneb	r2, [r3, #0]
 2544 02a0 0620A013 		movne	r2, #6
 2545 02a4 93FFFF1A 		bne	.L321
 2546 02a8 040000EA 		b	.L327
 2547              	.L280:
 2548 02ac 84249FE5 		ldr	r2, .L329+84
 2549 02b0 0510A0E3 		mov	r1, #5
 2550 02b4 0010C2E5 		strb	r1, [r2, #0]
 2551              	.L323:
 2552 02b8 0120A0E3 		mov	r2, #1
 2553 02bc D40000EA 		b	.L315
 2554              	.L327:
 2555 02c0 44349FE5 		ldr	r3, .L329+40
 2556 02c4 0020A0E3 		mov	r2, #0
 2557 02c8 0020C3E5 		strb	r2, [r3, #0]
 2558 02cc 3C349FE5 		ldr	r3, .L329+44
 2559 02d0 004083E5 		str	r4, [r3, #0]	@ float
 2560 02d4 38349FE5 		ldr	r3, .L329+48
 2561 02d8 0300A0E3 		mov	r0, #3
 2562 02dc 0000C3E5 		strb	r0, [r3, #0]
 2563 02e0 40349FE5 		ldr	r3, .L329+68
 2564 02e4 2C2093E5 		ldr	r2, [r3, #44]	@ float
 2565 02e8 3C349FE5 		ldr	r3, .L329+72
 2566 02ec 002083E5 		str	r2, [r3, #0]	@ float
 2567 02f0 38349FE5 		ldr	r3, .L329+76
 2568 02f4 004083E5 		str	r4, [r3, #0]	@ float
 2569 02f8 34349FE5 		ldr	r3, .L329+80
 2570 02fc 0410A0E3 		mov	r1, #4
 2571 0300 002093E5 		ldr	r2, [r3, #0]	@ float
 2572 0304 FEFFFFEB 		bl	nav_eight
 2573 0308 E40000EA 		b	.L250
 2574              	.L257:
 2575 030c DC539FE5 		ldr	r5, .L329+12
 2576 0310 0030D5E5 		ldrb	r3, [r5, #0]	@ zero_extendqisi2
 2577 0314 000053E3 		cmp	r3, #0
 2578 0318 0500000A 		beq	.L283
 2579 031c 010053E3 		cmp	r3, #1
 2580 0320 0230A013 		movne	r3, #2
 2581 0324 0030C515 		strneb	r3, [r5, #0]
 2582 0328 0720A013 		movne	r2, #7
 2583 032c 71FFFF1A 		bne	.L321
 2584 0330 040000EA 		b	.L328
 2585              	.L283:
 2586 0334 FEFFFFEB 		bl	nav_oval_init
 2587 0338 0030D5E5 		ldrb	r3, [r5, #0]	@ zero_extendqisi2
 2588 033c 013083E2 		add	r3, r3, #1
 2589 0340 0030C5E5 		strb	r3, [r5, #0]
 2590 0344 B30000EA 		b	.L318
 2591              	.L328:
 2592 0348 BC339FE5 		ldr	r3, .L329+40
 2593 034c 0020A0E3 		mov	r2, #0
 2594 0350 0020C3E5 		strb	r2, [r3, #0]
 2595 0354 B4339FE5 		ldr	r3, .L329+44
 2596 0358 004083E5 		str	r4, [r3, #0]	@ float
 2597 035c B0339FE5 		ldr	r3, .L329+48
 2598 0360 0310A0E3 		mov	r1, #3
 2599 0364 0010C3E5 		strb	r1, [r3, #0]
 2600 0368 B8339FE5 		ldr	r3, .L329+68
 2601 036c 2C2093E5 		ldr	r2, [r3, #44]	@ float
 2602 0370 B4339FE5 		ldr	r3, .L329+72
 2603 0374 002083E5 		str	r2, [r3, #0]	@ float
 2604 0378 B0339FE5 		ldr	r3, .L329+76
 2605 037c 004083E5 		str	r4, [r3, #0]	@ float
 2606 0380 AC339FE5 		ldr	r3, .L329+80
 2607 0384 0400A0E3 		mov	r0, #4
 2608 0388 002093E5 		ldr	r2, [r3, #0]	@ float
 2609 038c FEFFFFEB 		bl	nav_oval
 2610 0390 C20000EA 		b	.L250
 2611              	.L258:
 2612 0394 54239FE5 		ldr	r2, .L329+12
 2613 0398 0030D2E5 		ldrb	r3, [r2, #0]	@ zero_extendqisi2
 2614 039c 070053E3 		cmp	r3, #7
 2615 03a0 03F19F97 		ldrls	pc, [pc, r3, asl #2]
 2616 03a4 AF0000EA 		b	.L285
 2617              	.L293:
 2618 03a8 C8030000 		.word	.L286
 2619 03ac 10040000 		.word	.L287
 2620 03b0 1C040000 		.word	.L288
 2621 03b4 88040000 		.word	.L289
 2622 03b8 F4040000 		.word	.L290
 2623 03bc 60050000 		.word	.L291
 2624 03c0 CC050000 		.word	.L292
 2625 03c4 10040000 		.word	.L287
 2626              	.L286:
 2627 03c8 6C339FE5 		ldr	r3, .L329+88
 2628 03cc 00308DE5 		str	r3, [sp, #0]	@ float
 2629 03d0 68339FE5 		ldr	r3, .L329+92
 2630 03d4 4C539FE5 		ldr	r5, .L329+68
 2631 03d8 002093E5 		ldr	r2, [r3, #0]	@ float
 2632 03dc 60339FE5 		ldr	r3, .L329+96
 2633 03e0 3C0095E5 		ldr	r0, [r5, #60]	@ float
 2634 03e4 401095E5 		ldr	r1, [r5, #64]	@ float
 2635 03e8 003093E5 		ldr	r3, [r3, #0]	@ float
 2636 03ec FEFFFFEB 		bl	nav_approaching_xy
 2637 03f0 006050E2 		subs	r6, r0, #0
 2638 03f4 8000001A 		bne	.L325
 2639              	.L294:
 2640 03f8 48339FE5 		ldr	r3, .L329+100
 2641 03fc 3C0095E5 		ldr	r0, [r5, #60]	@ float
 2642 0400 0060C3E5 		strb	r6, [r3, #0]
 2643 0404 401095E5 		ldr	r1, [r5, #64]	@ float
 2644 0408 FEFFFFEB 		bl	fly_to_xy
 2645 040c 880000EA 		b	.L320
 2646              	.L287:
 2647 0410 0230A0E3 		mov	r3, #2
 2648 0414 0030C2E5 		strb	r3, [r2, #0]
 2649 0418 7E0000EA 		b	.L318
 2650              	.L288:
 2651 041c 28339FE5 		ldr	r3, .L329+104
 2652 0420 0000D3E5 		ldrb	r0, [r3, #0]	@ zero_extendqisi2
 2653 0424 FEFFFFEB 		bl	__aeabi_ui2f
 2654 0428 F8529FE5 		ldr	r5, .L329+68
 2655 042c 00008DE5 		str	r0, [sp, #0]	@ float
 2656 0430 3C2095E5 		ldr	r2, [r5, #60]	@ float
 2657 0434 480095E5 		ldr	r0, [r5, #72]	@ float
 2658 0438 4C1095E5 		ldr	r1, [r5, #76]	@ float
 2659 043c 403095E5 		ldr	r3, [r5, #64]	@ float
 2660 0440 FEFFFFEB 		bl	nav_approaching_xy
 2661 0444 006050E2 		subs	r6, r0, #0
 2662 0448 0620A013 		movne	r2, #6
 2663 044c 6B00001A 		bne	.L324
 2664 0450 482095E5 		ldr	r2, [r5, #72]	@ float
 2665 0454 4C3095E5 		ldr	r3, [r5, #76]	@ float
 2666 0458 3C0095E5 		ldr	r0, [r5, #60]	@ float
 2667 045c 401095E5 		ldr	r1, [r5, #64]	@ float
 2668 0460 FEFFFFEB 		bl	nav_route_xy
 2669 0464 A0329FE5 		ldr	r3, .L329+40
 2670 0468 0060C3E5 		strb	r6, [r3, #0]
 2671 046c 9C329FE5 		ldr	r3, .L329+44
 2672 0470 004083E5 		str	r4, [r3, #0]	@ float
 2673 0474 98329FE5 		ldr	r3, .L329+48
 2674 0478 0320A0E3 		mov	r2, #3
 2675 047c 0020C3E5 		strb	r2, [r3, #0]
 2676 0480 502095E5 		ldr	r2, [r5, #80]	@ float
 2677 0484 720000EA 		b	.L319
 2678              	.L289:
 2679 0488 BC329FE5 		ldr	r3, .L329+104
 2680 048c 0000D3E5 		ldrb	r0, [r3, #0]	@ zero_extendqisi2
 2681 0490 FEFFFFEB 		bl	__aeabi_ui2f
 2682 0494 8C529FE5 		ldr	r5, .L329+68
 2683 0498 00008DE5 		str	r0, [sp, #0]	@ float
 2684 049c 482095E5 		ldr	r2, [r5, #72]	@ float
 2685 04a0 540095E5 		ldr	r0, [r5, #84]	@ float
 2686 04a4 581095E5 		ldr	r1, [r5, #88]	@ float
 2687 04a8 4C3095E5 		ldr	r3, [r5, #76]	@ float
 2688 04ac FEFFFFEB 		bl	nav_approaching_xy
 2689 04b0 006050E2 		subs	r6, r0, #0
 2690 04b4 0720A013 		movne	r2, #7
 2691 04b8 5000001A 		bne	.L324
 2692 04bc 542095E5 		ldr	r2, [r5, #84]	@ float
 2693 04c0 583095E5 		ldr	r3, [r5, #88]	@ float
 2694 04c4 480095E5 		ldr	r0, [r5, #72]	@ float
 2695 04c8 4C1095E5 		ldr	r1, [r5, #76]	@ float
 2696 04cc FEFFFFEB 		bl	nav_route_xy
 2697 04d0 34329FE5 		ldr	r3, .L329+40
 2698 04d4 0060C3E5 		strb	r6, [r3, #0]
 2699 04d8 30329FE5 		ldr	r3, .L329+44
 2700 04dc 004083E5 		str	r4, [r3, #0]	@ float
 2701 04e0 2C329FE5 		ldr	r3, .L329+48
 2702 04e4 0320A0E3 		mov	r2, #3
 2703 04e8 0020C3E5 		strb	r2, [r3, #0]
 2704 04ec 5C2095E5 		ldr	r2, [r5, #92]	@ float
 2705 04f0 570000EA 		b	.L319
 2706              	.L290:
 2707 04f4 50329FE5 		ldr	r3, .L329+104
 2708 04f8 0000D3E5 		ldrb	r0, [r3, #0]	@ zero_extendqisi2
 2709 04fc FEFFFFEB 		bl	__aeabi_ui2f
 2710 0500 20529FE5 		ldr	r5, .L329+68
 2711 0504 00008DE5 		str	r0, [sp, #0]	@ float
 2712 0508 542095E5 		ldr	r2, [r5, #84]	@ float
 2713 050c 600095E5 		ldr	r0, [r5, #96]	@ float
 2714 0510 641095E5 		ldr	r1, [r5, #100]	@ float
 2715 0514 583095E5 		ldr	r3, [r5, #88]	@ float
 2716 0518 FEFFFFEB 		bl	nav_approaching_xy
 2717 051c 006050E2 		subs	r6, r0, #0
 2718 0520 0820A013 		movne	r2, #8
 2719 0524 3500001A 		bne	.L324
 2720 0528 602095E5 		ldr	r2, [r5, #96]	@ float
 2721 052c 643095E5 		ldr	r3, [r5, #100]	@ float
 2722 0530 540095E5 		ldr	r0, [r5, #84]	@ float
 2723 0534 581095E5 		ldr	r1, [r5, #88]	@ float
 2724 0538 FEFFFFEB 		bl	nav_route_xy
 2725 053c C8319FE5 		ldr	r3, .L329+40
 2726 0540 0060C3E5 		strb	r6, [r3, #0]
 2727 0544 C4319FE5 		ldr	r3, .L329+44
 2728 0548 004083E5 		str	r4, [r3, #0]	@ float
 2729 054c C0319FE5 		ldr	r3, .L329+48
 2730 0550 0320A0E3 		mov	r2, #3
 2731 0554 0020C3E5 		strb	r2, [r3, #0]
 2732 0558 682095E5 		ldr	r2, [r5, #104]	@ float
 2733 055c 3C0000EA 		b	.L319
 2734              	.L291:
 2735 0560 E4319FE5 		ldr	r3, .L329+104
 2736 0564 0000D3E5 		ldrb	r0, [r3, #0]	@ zero_extendqisi2
 2737 0568 FEFFFFEB 		bl	__aeabi_ui2f
 2738 056c B4519FE5 		ldr	r5, .L329+68
 2739 0570 00008DE5 		str	r0, [sp, #0]	@ float
 2740 0574 602095E5 		ldr	r2, [r5, #96]	@ float
 2741 0578 6C0095E5 		ldr	r0, [r5, #108]	@ float
 2742 057c 701095E5 		ldr	r1, [r5, #112]	@ float
 2743 0580 643095E5 		ldr	r3, [r5, #100]	@ float
 2744 0584 FEFFFFEB 		bl	nav_approaching_xy
 2745 0588 006050E2 		subs	r6, r0, #0
 2746 058c 0920A013 		movne	r2, #9
 2747 0590 1A00001A 		bne	.L324
 2748 0594 6C2095E5 		ldr	r2, [r5, #108]	@ float
 2749 0598 703095E5 		ldr	r3, [r5, #112]	@ float
 2750 059c 600095E5 		ldr	r0, [r5, #96]	@ float
 2751 05a0 641095E5 		ldr	r1, [r5, #100]	@ float
 2752 05a4 FEFFFFEB 		bl	nav_route_xy
 2753 05a8 5C319FE5 		ldr	r3, .L329+40
 2754 05ac 0060C3E5 		strb	r6, [r3, #0]
 2755 05b0 58319FE5 		ldr	r3, .L329+44
 2756 05b4 004083E5 		str	r4, [r3, #0]	@ float
 2757 05b8 54319FE5 		ldr	r3, .L329+48
 2758 05bc 0320A0E3 		mov	r2, #3
 2759 05c0 0020C3E5 		strb	r2, [r3, #0]
 2760 05c4 742095E5 		ldr	r2, [r5, #116]	@ float
 2761 05c8 210000EA 		b	.L319
 2762              	.L292:
 2763 05cc 78319FE5 		ldr	r3, .L329+104
 2764 05d0 0000D3E5 		ldrb	r0, [r3, #0]	@ zero_extendqisi2
 2765 05d4 FEFFFFEB 		bl	__aeabi_ui2f
 2766 05d8 48519FE5 		ldr	r5, .L329+68
 2767 05dc 00008DE5 		str	r0, [sp, #0]	@ float
 2768 05e0 3C0095E5 		ldr	r0, [r5, #60]	@ float
 2769 05e4 401095E5 		ldr	r1, [r5, #64]	@ float
 2770 05e8 6C2095E5 		ldr	r2, [r5, #108]	@ float
 2771 05ec 703095E5 		ldr	r3, [r5, #112]	@ float
 2772 05f0 FEFFFFEB 		bl	nav_approaching_xy
 2773 05f4 006050E2 		subs	r6, r0, #0
 2774 05f8 0800000A 		beq	.L299
 2775              	.L325:
 2776 05fc 0520A0E3 		mov	r2, #5
 2777              	.L324:
 2778 0600 48319FE5 		ldr	r3, .L329+108
 2779 0604 0020C3E5 		strb	r2, [r3, #0]
 2780 0608 E0309FE5 		ldr	r3, .L329+12
 2781 060c 0020D3E5 		ldrb	r2, [r3, #0]	@ zero_extendqisi2
 2782 0610 012082E2 		add	r2, r2, #1
 2783              	.L315:
 2784 0614 0020C3E5 		strb	r2, [r3, #0]
 2785              	.L318:
 2786 0618 FEFFFFEB 		bl	nav_init_stage
 2787 061c 1F0000EA 		b	.L250
 2788              	.L299:
 2789 0620 6C0095E5 		ldr	r0, [r5, #108]	@ float
 2790 0624 701095E5 		ldr	r1, [r5, #112]	@ float
 2791 0628 3C2095E5 		ldr	r2, [r5, #60]	@ float
 2792 062c 403095E5 		ldr	r3, [r5, #64]	@ float
 2793 0630 FEFFFFEB 		bl	nav_route_xy
 2794              	.L320:
 2795 0634 D0309FE5 		ldr	r3, .L329+40
 2796 0638 0060C3E5 		strb	r6, [r3, #0]
 2797 063c CC309FE5 		ldr	r3, .L329+44
 2798 0640 004083E5 		str	r4, [r3, #0]	@ float
 2799 0644 C8309FE5 		ldr	r3, .L329+48
 2800 0648 0320A0E3 		mov	r2, #3
 2801 064c 0020C3E5 		strb	r2, [r3, #0]
 2802 0650 442095E5 		ldr	r2, [r5, #68]	@ float
 2803              	.L319:
 2804 0654 D0309FE5 		ldr	r3, .L329+72
 2805 0658 002083E5 		str	r2, [r3, #0]	@ float
 2806 065c CC309FE5 		ldr	r3, .L329+76
 2807 0660 004083E5 		str	r4, [r3, #0]	@ float
 2808 0664 0D0000EA 		b	.L250
 2809              	.L285:
 2810 0668 0830A0E3 		mov	r3, #8
 2811 066c 0030C2E5 		strb	r3, [r2, #0]
 2812 0670 080000EA 		b	.L316
 2813              	.L259:
 2814 0674 74309FE5 		ldr	r3, .L329+12
 2815 0678 0020D3E5 		ldrb	r2, [r3, #0]	@ zero_extendqisi2
 2816 067c 000052E3 		cmp	r2, #0
 2817 0680 0120A013 		movne	r2, #1
 2818 0684 0020C315 		strneb	r2, [r3, #0]
 2819 0688 0930A013 		movne	r3, #9
 2820 068c 0100001A 		bne	.L316
 2821 0690 FEFFFFEB 		bl	nav_home
 2822 0694 010000EA 		b	.L250
 2823              	.L316:
 2824 0698 0030C5E5 		strb	r3, [r5, #0]
 2825              	.L317:
 2826 069c FEFFFFEB 		bl	nav_init_block
 2827              	.L250:
 2828 06a0 AC309FE5 		ldr	r3, .L329+112
 2829 06a4 0030D3E5 		ldrb	r3, [r3, #0]	@ zero_extendqisi2
 2830 06a8 000053E3 		cmp	r3, #0
 2831 06ac A4309F15 		ldrne	r3, .L329+116
 2832 06b0 A4209FE5 		ldr	r2, .L329+120
 2833 06b4 00309315 		ldrne	r3, [r3, #0]	@ float
 2834 06b8 0030A003 		moveq	r3, #0
 2835 06bc 003082E5 		str	r3, [r2, #0]	@ float
 2836 06c0 4C309FE5 		ldr	r3, .L329+48
 2837 06c4 0030D3E5 		ldrb	r3, [r3, #0]	@ zero_extendqisi2
 2838 06c8 020053E3 		cmp	r3, #2
 2839 06cc 8C309F05 		ldreq	r3, .L329+124
 2840 06d0 0020A003 		moveq	r2, #0
 2841 06d4 0020C305 		streqb	r2, [r3, #0]
 2842 06d8 08D08DE2 		add	sp, sp, #8
 2843 06dc 7040BDE8 		ldmfd	sp!, {r4, r5, r6, lr}
 2844 06e0 FEFFFFEA 		b	nav_set_altitude
 2845              	.L330:
 2846              		.align	2
 2847              	.L329:
 2848 06e4 00000000 		.word	nav_survey_active
 2849 06e8 00000000 		.word	nav_block
 2850 06ec 00000000 		.word	dist2_to_wp
 2851 06f0 00000000 		.word	nav_stage
 2852 06f4 00000000 		.word	gps
 2853 06f8 00000000 		.word	block_time
 2854 06fc 00000000 		.word	kill_throttle
 2855 0700 00000000 		.word	lateral_mode
 2856 0704 00000000 		.word	pprz_mode
 2857 0708 00000000 		.word	h_ctl_roll_setpoint
 2858 070c 00000000 		.word	v_ctl_climb_mode
 2859 0710 00000000 		.word	nav_pitch
 2860 0714 00000000 		.word	v_ctl_mode
 2861 0718 00000000 		.word	nav_throttle_setpoint
 2862 071c 00000000 		.word	estimator_z
 2863 0720 00005243 		.word	1129447424
 2864 0724 920A063F 		.word	1057360530
 2865 0728 00000000 		.word	.LANCHOR7
 2866 072c 00000000 		.word	.LANCHOR0
 2867 0730 00000000 		.word	v_ctl_altitude_pre_climb
 2868 0734 00000000 		.word	nav_radius
 2869 0738 00000000 		.word	.LANCHOR14
 2870 073c 0000A040 		.word	1084227584
 2871 0740 00000000 		.word	last_x
 2872 0744 00000000 		.word	last_y
 2873 0748 00000000 		.word	horizontal_mode
 2874 074c 00000000 		.word	route_ap_time
 2875 0750 00000000 		.word	.LANCHOR15
 2876 0754 00000000 		.word	.LANCHOR2
 2877 0758 00000000 		.word	.LANCHOR4
 2878 075c 00000000 		.word	h_ctl_course_pre_bank
 2879 0760 00000000 		.word	v_ctl_auto_throttle_submode
 2881              		.comm	nav_oval_count,1,1
 2882              		.global	max_dist_from_home
 2883              		.global	nav_utm_zone0
 2884              		.global	nav_utm_north0
 2885              		.global	nav_utm_east0
 2886              		.comm	ground_alt,4,4
 2887              		.global	waypoints
 2888              		.global	nb_waypoint
 2889              		.comm	too_far_from_home,1,1
 2890              		.comm	dist2_to_wp,4,4
 2891              		.comm	dist2_to_home,4,4
 2892              		.comm	fp_pitch,4,4
 2893              		.comm	nav_pitch,4,4
 2894              		.comm	nav_throttle_setpoint,2,2
 2895              		.comm	desired_y,4,4
 2896              		.comm	desired_x,4,4
 2897              		.global	nav_altitude
 2898              		.comm	nav_mode,4,4
 2899              		.comm	nav_survey_active,1,1
 2900              		.comm	nav_survey_south,4,4
 2901              		.comm	nav_survey_north,4,4
 2902              		.comm	nav_survey_east,4,4
 2903              		.comm	nav_survey_west,4,4
 2904              		.comm	nav_survey_shift,4,4
 2905              		.comm	nav_ground_speed_pgain,4,4
 2906              		.comm	nav_ground_speed_setpoint,4,4
 2907              		.comm	nav_glide_pitch_trim,4,4
 2908              		.comm	flight_altitude,4,4
 2909              		.global	circle_bank
 2910              		.comm	horizontal_mode,1,1
 2911              		.comm	nav_segment_y_2,4,4
 2912              		.comm	nav_segment_x_2,4,4
 2913              		.comm	nav_segment_y_1,4,4
 2914              		.comm	nav_segment_x_1,4,4
 2915              		.comm	nav_circle_radius,4,4
 2916              		.comm	nav_circle_y,4,4
 2917              		.comm	nav_circle_x,4,4
 2918              		.global	nav_in_segment
 2919              		.global	nav_in_circle
 2920              		.comm	nav_shift,4,4
 2921              		.comm	nav_climb,4,4
 2922              		.comm	nav_course,4,4
 2923              		.comm	nav_radius,4,4
 2924              		.comm	nav_circle_trigo_qdr,4,4
 2925              		.comm	nav_circle_radians,4,4
 2926              		.comm	carrot_y,4,4
 2927              		.comm	carrot_x,4,4
 2928              		.comm	rc_pitch,4,4
 2929              		.comm	last_y,4,4
 2930              		.comm	last_x,4,4
 2931              		.comm	oval_status,1,1
 2932              		.section	.bss.previous_ground_alt,"aw",%nobits
 2933              		.align	2
 2934              		.set	.LANCHOR11,. + 0
 2937              	previous_ground_alt:
 2938 0000 00000000 		.space	4
 2939              		.section	.data.max_dist_from_home,"aw",%progbits
 2940              		.align	2
 2941              		.set	.LANCHOR13,. + 0
 2944              	max_dist_from_home:
 2945 0000 0080BB44 		.word	1153138688
 2946              		.section	.rodata.nb_waypoint,"a",%progbits
 2949              	nb_waypoint:
 2950 0000 0A       		.byte	10
 2951              		.section	.data.nav_utm_zone0,"aw",%progbits
 2952              		.set	.LANCHOR8,. + 0
 2955              	nav_utm_zone0:
 2956 0000 12       		.byte	18
 2957              		.section	.data.nav_utm_north0,"aw",%progbits
 2958              		.align	2
 2959              		.set	.LANCHOR10,. + 0
 2962              	nav_utm_north0:
 2963 0000 52704000 		.word	4223058
 2964              		.section	.data.nav_altitude,"aw",%progbits
 2965              		.align	2
 2966              		.set	.LANCHOR0,. + 0
 2969              	nav_altitude:
 2970 0000 00004842 		.word	1112014848
 2971              		.section	.bss.nav_in_segment,"aw",%nobits
 2972              		.set	.LANCHOR3,. + 0
 2975              	nav_in_segment:
 2976 0000 00       		.space	1
 2977              		.section	.data.waypoints,"aw",%progbits
 2978              		.align	2
 2979              		.set	.LANCHOR7,. + 0
 2982              	waypoints:
 2983 0000 00002842 		.word	1109917696
 2984 0004 00002842 		.word	1109917696
 2985 0008 00009642 		.word	1117126656
 2986 000c 00000000 		.word	0
 2987 0010 00000000 		.word	0
 2988 0014 00009642 		.word	1117126656
 2989 0018 0000A041 		.word	1101004800
 2990 001c 0000A042 		.word	1117782016
 2991 0020 00009642 		.word	1117126656
 2992 0024 33333342 		.word	1110651699
 2993 0028 6666CC42 		.word	1120691814
 2994 002c 00009642 		.word	1117126656
 2995 0030 00007EC2 		.word	-1031929856
 2996 0034 CDCCF542 		.word	1123405005
 2997 0038 00009642 		.word	1117126656
 2998 003c 0000A0C1 		.word	-1046478848
 2999 0040 000048C2 		.word	-1035468800
 3000 0044 00009642 		.word	1117126656
 3001 0048 0000A0C1 		.word	-1046478848
 3002 004c 0000C8C1 		.word	-1043857408
 3003 0050 00009642 		.word	1117126656
 3004 0054 0000A0C1 		.word	-1046478848
 3005 0058 00000000 		.word	0
 3006 005c 00009642 		.word	1117126656
 3007 0060 0000A0C1 		.word	-1046478848
 3008 0064 0000C841 		.word	1103626240
 3009 0068 00009642 		.word	1117126656
 3010 006c 0000A0C1 		.word	-1046478848
 3011 0070 00004842 		.word	1112014848
 3012 0074 00009642 		.word	1117126656
 3013              		.section	.bss.last_wp,"aw",%nobits
 3014              		.set	.LANCHOR15,. + 0
 3017              	last_wp:
 3018 0000 00       		.space	1
 3019              		.section	.bss.nav_in_circle,"aw",%nobits
 3020              		.set	.LANCHOR2,. + 0
 3023              	nav_in_circle:
 3024 0000 00       		.space	1
 3025              		.section	.bss.nav_leg_length,"aw",%nobits
 3026              		.align	2
 3027              		.set	.LANCHOR5,. + 0
 3030              	nav_leg_length:
 3031 0000 00000000 		.space	4
 3032              		.section	.bss.prescaler.3866,"aw",%nobits
 3033              		.align	1
 3034              		.set	.LANCHOR12,. + 0
 3037              	prescaler.3866:
 3038 0000 0000     		.space	2
 3039              		.section	.bss.last_nav_altitude.3878,"aw",%nobits
 3040              		.align	2
 3041              		.set	.LANCHOR1,. + 0
 3044              	last_nav_altitude.3878:
 3045 0000 00000000 		.space	4
 3046              		.section	.data.nav_utm_east0,"aw",%progbits
 3047              		.align	2
 3048              		.set	.LANCHOR9,. + 0
 3051              	nav_utm_east0:
 3052 0000 69B80500 		.word	374889
 3053              		.section	.bss.eight_status,"aw",%nobits
 3054              		.set	.LANCHOR14,. + 0
 3057              	eight_status:
 3058 0000 00       		.space	1
 3059              		.section	.bss.circle_bank,"aw",%nobits
 3060              		.align	2
 3061              		.set	.LANCHOR4,. + 0
 3064              	circle_bank:
 3065 0000 00000000 		.space	4
 3066              		.section	.bss.nav_leg_progress,"aw",%nobits
 3067              		.align	2
 3068              		.set	.LANCHOR6,. + 0
 3071              	nav_leg_progress:
 3072 0000 00000000 		.space	4
 3073              		.ident	"GCC: (Linaro GCC 4.6-2011.09-1) 4.6.2 20110908 (prerelease)"
DEFINED SYMBOLS
                            *ABS*:00000000 nav.c
     /tmp/ccvasETN.s:15     .text.nav_set_altitude:00000000 $a
     /tmp/ccvasETN.s:17     .text.nav_set_altitude:00000000 nav_set_altitude
     /tmp/ccvasETN.s:43     .text.nav_set_altitude:0000004c $d
                            *COM*:00000004 flight_altitude
     /tmp/ccvasETN.s:49     .text.nav_init_stage:00000000 $a
     /tmp/ccvasETN.s:52     .text.nav_init_stage:00000000 nav_init_stage
     /tmp/ccvasETN.s:83     .text.nav_init_stage:0000005c $d
                            *COM*:00000004 last_x
                            *COM*:00000004 last_y
                            *COM*:00000004 nav_circle_radians
                            *COM*:00000004 nav_shift
                            *COM*:00000004 nav_pitch
     /tmp/ccvasETN.s:98     .text.nav_approaching_xy:00000000 $a
     /tmp/ccvasETN.s:101    .text.nav_approaching_xy:00000000 nav_approaching_xy
     /tmp/ccvasETN.s:170    .text.nav_approaching_xy:000000f4 $d
                            *COM*:00000004 dist2_to_wp
     /tmp/ccvasETN.s:183    .text.fly_to_xy:00000000 $a
     /tmp/ccvasETN.s:186    .text.fly_to_xy:00000000 fly_to_xy
     /tmp/ccvasETN.s:363    .text.fly_to_xy:0000027c $d
                            *COM*:00000004 desired_x
                            *COM*:00000004 desired_y
                            *COM*:00000004 nav_mode
     /tmp/ccvasETN.s:389    .text.nav_circle_XY:00000000 $a
     /tmp/ccvasETN.s:392    .text.nav_circle_XY:00000000 nav_circle_XY
     /tmp/ccvasETN.s:678    .text.nav_circle_XY:0000043c $d
                            *COM*:00000004 nav_circle_trigo_qdr
                            *COM*:00000001 horizontal_mode
                            *COM*:00000004 nav_circle_x
                            *COM*:00000004 nav_circle_y
                            *COM*:00000004 nav_circle_radius
     /tmp/ccvasETN.s:705    .text.nav_route_xy:00000000 $a
     /tmp/ccvasETN.s:708    .text.nav_route_xy:00000000 nav_route_xy
     /tmp/ccvasETN.s:843    .text.nav_route_xy:000001fc $d
                            *COM*:00000004 nav_segment_x_1
                            *COM*:00000004 nav_segment_y_1
                            *COM*:00000004 nav_segment_x_2
                            *COM*:00000004 nav_segment_y_2
     /tmp/ccvasETN.s:857    .text.compute_dist2_to_home:00000000 $a
     /tmp/ccvasETN.s:860    .text.compute_dist2_to_home:00000000 compute_dist2_to_home
     /tmp/ccvasETN.s:900    .text.compute_dist2_to_home:00000084 $d
                            *COM*:00000004 dist2_to_home
                            *COM*:00000001 too_far_from_home
     /tmp/ccvasETN.s:911    .text.nav_reset_reference:00000000 $a
     /tmp/ccvasETN.s:914    .text.nav_reset_reference:00000000 nav_reset_reference
     /tmp/ccvasETN.s:985    .text.nav_reset_reference:00000100 $d
                            *COM*:00000004 ground_alt
     /tmp/ccvasETN.s:1000   .text.nav_update_waypoints_alt:00000000 $a
     /tmp/ccvasETN.s:1003   .text.nav_update_waypoints_alt:00000000 nav_update_waypoints_alt
     /tmp/ccvasETN.s:1030   .text.nav_update_waypoints_alt:0000004c $d
     /tmp/ccvasETN.s:1035   .text.common_nav_periodic_task_4Hz:00000000 $a
     /tmp/ccvasETN.s:1038   .text.common_nav_periodic_task_4Hz:00000000 common_nav_periodic_task_4Hz
     /tmp/ccvasETN.s:1065   .text.common_nav_periodic_task_4Hz:0000004c $d
     /tmp/ccvasETN.s:1071   .text.nav_move_waypoint:00000000 $a
     /tmp/ccvasETN.s:1074   .text.nav_move_waypoint:00000000 nav_move_waypoint
     /tmp/ccvasETN.s:1151   .text.nav_move_waypoint:0000010c $d
     /tmp/ccvasETN.s:1157   .text.nav_home:00000000 $a
     /tmp/ccvasETN.s:1160   .text.nav_home:00000000 nav_home
     /tmp/ccvasETN.s:1192   .text.nav_home:00000064 $d
     /tmp/ccvasETN.s:1203   .text.nav_init:00000000 $a
     /tmp/ccvasETN.s:1206   .text.nav_init:00000000 nav_init
     /tmp/ccvasETN.s:1234   .text.nav_init:00000050 $d
                            *COM*:00000004 nav_glide_pitch_trim
                            *COM*:00000004 nav_radius
                            *COM*:00000004 nav_survey_shift
     /tmp/ccvasETN.s:1245   .text.nav_without_gps:00000000 $a
     /tmp/ccvasETN.s:1248   .text.nav_without_gps:00000000 nav_without_gps
     /tmp/ccvasETN.s:1271   .text.nav_without_gps:0000003c $d
                            *COM*:00000002 nav_throttle_setpoint
     /tmp/ccvasETN.s:1278   .text.nav_eight_init:00000000 $a
     /tmp/ccvasETN.s:1281   .text.nav_eight_init:00000000 nav_eight_init
     /tmp/ccvasETN.s:1293   .text.nav_eight_init:00000010 $d
     /tmp/ccvasETN.s:1297   .text.nav_eight:00000000 $a
     /tmp/ccvasETN.s:1300   .text.nav_eight:00000000 nav_eight
     /tmp/ccvasETN.s:1494   .text.nav_eight:000002ec $d
     /tmp/ccvasETN.s:1501   .text.nav_eight:00000304 $a
     /tmp/ccvasETN.s:1829   .text.nav_eight:000007a0 $d
     /tmp/ccvasETN.s:1844   .text.nav_oval_init:00000000 $a
     /tmp/ccvasETN.s:1847   .text.nav_oval_init:00000000 nav_oval_init
     /tmp/ccvasETN.s:1862   .text.nav_oval_init:0000001c $d
                            *COM*:00000001 oval_status
                            *COM*:00000001 nav_oval_count
     /tmp/ccvasETN.s:1866   .text.nav_oval:00000000 $a
     /tmp/ccvasETN.s:1869   .text.nav_oval:00000000 nav_oval
     /tmp/ccvasETN.s:1988   .text.nav_oval:000001c4 $d
     /tmp/ccvasETN.s:1993   .text.nav_oval:000001d4 $a
     /tmp/ccvasETN.s:2337   .text.nav_oval:000006b8 $d
     /tmp/ccvasETN.s:2355   .text.nav_periodic_task:00000000 $a
     /tmp/ccvasETN.s:2358   .text.nav_periodic_task:00000000 nav_periodic_task
     /tmp/ccvasETN.s:2376   .text.nav_periodic_task:00000034 $d
     /tmp/ccvasETN.s:2386   .text.nav_periodic_task:00000058 $a
     /tmp/ccvasETN.s:2618   .text.nav_periodic_task:000003a8 $d
     /tmp/ccvasETN.s:2627   .text.nav_periodic_task:000003c8 $a
     /tmp/ccvasETN.s:2848   .text.nav_periodic_task:000006e4 $d
                            *COM*:00000001 nav_survey_active
     /tmp/ccvasETN.s:2944   .data.max_dist_from_home:00000000 max_dist_from_home
     /tmp/ccvasETN.s:2955   .data.nav_utm_zone0:00000000 nav_utm_zone0
     /tmp/ccvasETN.s:2962   .data.nav_utm_north0:00000000 nav_utm_north0
     /tmp/ccvasETN.s:3051   .data.nav_utm_east0:00000000 nav_utm_east0
     /tmp/ccvasETN.s:2982   .data.waypoints:00000000 waypoints
     /tmp/ccvasETN.s:2949   .rodata.nb_waypoint:00000000 nb_waypoint
                            *COM*:00000004 fp_pitch
     /tmp/ccvasETN.s:2969   .data.nav_altitude:00000000 nav_altitude
                            *COM*:00000004 nav_survey_south
                            *COM*:00000004 nav_survey_north
                            *COM*:00000004 nav_survey_east
                            *COM*:00000004 nav_survey_west
                            *COM*:00000004 nav_ground_speed_pgain
                            *COM*:00000004 nav_ground_speed_setpoint
     /tmp/ccvasETN.s:3064   .bss.circle_bank:00000000 circle_bank
     /tmp/ccvasETN.s:2975   .bss.nav_in_segment:00000000 nav_in_segment
     /tmp/ccvasETN.s:3023   .bss.nav_in_circle:00000000 nav_in_circle
                            *COM*:00000004 nav_climb
                            *COM*:00000004 nav_course
                            *COM*:00000004 carrot_y
                            *COM*:00000004 carrot_x
                            *COM*:00000004 rc_pitch
     /tmp/ccvasETN.s:2933   .bss.previous_ground_alt:00000000 $d
     /tmp/ccvasETN.s:2937   .bss.previous_ground_alt:00000000 previous_ground_alt
     /tmp/ccvasETN.s:2940   .data.max_dist_from_home:00000000 $d
     /tmp/ccvasETN.s:2958   .data.nav_utm_north0:00000000 $d
     /tmp/ccvasETN.s:2965   .data.nav_altitude:00000000 $d
     /tmp/ccvasETN.s:2976   .bss.nav_in_segment:00000000 $d
     /tmp/ccvasETN.s:2978   .data.waypoints:00000000 $d
     /tmp/ccvasETN.s:3017   .bss.last_wp:00000000 last_wp
     /tmp/ccvasETN.s:3018   .bss.last_wp:00000000 $d
     /tmp/ccvasETN.s:3024   .bss.nav_in_circle:00000000 $d
     /tmp/ccvasETN.s:3026   .bss.nav_leg_length:00000000 $d
     /tmp/ccvasETN.s:3030   .bss.nav_leg_length:00000000 nav_leg_length
     /tmp/ccvasETN.s:3033   .bss.prescaler.3866:00000000 $d
     /tmp/ccvasETN.s:3037   .bss.prescaler.3866:00000000 prescaler.3866
     /tmp/ccvasETN.s:3040   .bss.last_nav_altitude.3878:00000000 $d
     /tmp/ccvasETN.s:3044   .bss.last_nav_altitude.3878:00000000 last_nav_altitude.3878
     /tmp/ccvasETN.s:3047   .data.nav_utm_east0:00000000 $d
     /tmp/ccvasETN.s:3057   .bss.eight_status:00000000 eight_status
     /tmp/ccvasETN.s:3058   .bss.eight_status:00000000 $d
     /tmp/ccvasETN.s:3060   .bss.circle_bank:00000000 $d
     /tmp/ccvasETN.s:3067   .bss.nav_leg_progress:00000000 $d
     /tmp/ccvasETN.s:3071   .bss.nav_leg_progress:00000000 nav_leg_progress

UNDEFINED SYMBOLS
__aeabi_fsub
__aeabi_fcmpgt
v_ctl_altitude_setpoint
estimator_x
estimator_y
stage_time
__aeabi_fmul
__aeabi_fadd
__aeabi_fcmplt
estimator_hspeed_mod
__aeabi_f2d
__aeabi_d2f
__aeabi_dadd
__aeabi_dsub
__aeabi_dcmpgt
__aeabi_dcmplt
__aeabi_ddiv
atan2
sin
atan
h_ctl_course_setpoint
estimator_hspeed_dir
h_ctl_course_pgain
h_ctl_roll_max_setpoint
h_ctl_roll_setpoint
lateral_mode
__aeabi_dmul
__aeabi_fdiv
cos
sqrt
__aeabi_i2d
__aeabi_d2uiz
__aeabi_f2iz
utm_of_lla_f
gps
block_time
__aeabi_i2f
v_ctl_mode
nav_block
nav_stage
__aeabi_fcmpge
__aeabi_ui2f
nav_init_block
kill_throttle
pprz_mode
v_ctl_climb_mode
estimator_z
v_ctl_altitude_pre_climb
route_ap_time
h_ctl_course_pre_bank
v_ctl_auto_throttle_submode
