   1              		.cpu arm7tdmi
   2              		.fpu softvfp
   3              		.eabi_attribute 20, 1
   4              		.eabi_attribute 21, 1
   5              		.eabi_attribute 23, 3
   6              		.eabi_attribute 24, 1
   7              		.eabi_attribute 25, 1
   8              		.eabi_attribute 26, 1
   9              		.eabi_attribute 30, 4
  10              		.eabi_attribute 34, 0
  11              		.eabi_attribute 18, 4
  12              		.file	"nav.c"
  13              		.global	__aeabi_fsub
  14              		.global	__aeabi_fcmpgt
  15              		.section	.text.nav_set_altitude,"ax",%progbits
  16              		.align	2
  18              	nav_set_altitude:
  19              		@ Function supports interworking.
  20              		@ args = 0, pretend = 0, frame = 0
  21              		@ frame_needed = 0, uses_anonymous_args = 0
  22 0000 38402DE9 		stmfd	sp!, {r3, r4, r5, lr}
  23 0004 40309FE5 		ldr	r3, .L5
  24 0008 40509FE5 		ldr	r5, .L5+4
  25 000c 004093E5 		ldr	r4, [r3]	@ float
  26 0010 001095E5 		ldr	r1, [r5]	@ float
  27 0014 0400A0E1 		mov	r0, r4
  28 0018 FEFFFFEB 		bl	__aeabi_fsub
  29 001c FE15A0E3 		mov	r1, #1065353216
  30 0020 0201C0E3 		bic	r0, r0, #-2147483648
  31 0024 FEFFFFEB 		bl	__aeabi_fcmpgt
  32 0028 24309FE5 		ldr	r3, .L5+8
  33 002c 000050E3 		cmp	r0, #0
  34 0030 00408315 		strne	r4, [r3]	@ float
  35 0034 002093E5 		ldr	r2, [r3]	@ float
  36 0038 18309FE5 		ldr	r3, .L5+12
  37 003c 00408515 		strne	r4, [r5]	@ float
  38 0040 002083E5 		str	r2, [r3]	@ float
  39 0044 3840BDE8 		ldmfd	sp!, {r3, r4, r5, lr}
  40 0048 1EFF2FE1 		bx	lr
  41              	.L6:
  42              		.align	2
  43              	.L5:
  44 004c 00000000 		.word	.LANCHOR0
  45 0050 00000000 		.word	.LANCHOR1
  46 0054 00000000 		.word	flight_altitude
  47 0058 00000000 		.word	v_ctl_altitude_setpoint
  49              		.section	.text.nav_init_stage,"ax",%progbits
  50              		.align	2
  51              		.global	nav_init_stage
  53              	nav_init_stage:
  54              		@ Function supports interworking.
  55              		@ args = 0, pretend = 0, frame = 0
  56              		@ frame_needed = 0, uses_anonymous_args = 0
  57              		@ link register save eliminated.
  58 0000 54309FE5 		ldr	r3, .L8
  59 0004 002093E5 		ldr	r2, [r3]	@ float
  60 0008 50309FE5 		ldr	r3, .L8+4
  61 000c 002083E5 		str	r2, [r3]	@ float
  62 0010 4C309FE5 		ldr	r3, .L8+8
  63 0014 002093E5 		ldr	r2, [r3]	@ float
  64 0018 48309FE5 		ldr	r3, .L8+12
  65 001c 002083E5 		str	r2, [r3]	@ float
  66 0020 44309FE5 		ldr	r3, .L8+16
  67 0024 0020A0E3 		mov	r2, #0
  68 0028 40109FE5 		ldr	r1, .L8+20
  69 002c B020C3E1 		strh	r2, [r3]	@ movhi
  70 0030 0030A0E3 		mov	r3, #0
  71 0034 003081E5 		str	r3, [r1]	@ float
  72 0038 34109FE5 		ldr	r1, .L8+24
  73 003c 0020C1E5 		strb	r2, [r1]
  74 0040 30109FE5 		ldr	r1, .L8+28
  75 0044 0020C1E5 		strb	r2, [r1]
  76 0048 2C209FE5 		ldr	r2, .L8+32
  77 004c 003082E5 		str	r3, [r2]	@ float
  78 0050 28209FE5 		ldr	r2, .L8+36
  79 0054 003082E5 		str	r3, [r2]	@ float
  80 0058 1EFF2FE1 		bx	lr
  81              	.L9:
  82              		.align	2
  83              	.L8:
  84 005c 00000000 		.word	estimator_x
  85 0060 00000000 		.word	last_x
  86 0064 00000000 		.word	estimator_y
  87 0068 00000000 		.word	last_y
  88 006c 00000000 		.word	stage_time
  89 0070 00000000 		.word	nav_circle_radians
  90 0074 00000000 		.word	.LANCHOR2
  91 0078 00000000 		.word	.LANCHOR3
  92 007c 00000000 		.word	nav_shift
  93 0080 00000000 		.word	nav_pitch
  95              		.global	__aeabi_fmul
  96              		.global	__aeabi_fadd
  97              		.global	__aeabi_fcmplt
  98              		.section	.text.nav_approaching_xy,"ax",%progbits
  99              		.align	2
 100              		.global	nav_approaching_xy
 102              	nav_approaching_xy:
 103              		@ Function supports interworking.
 104              		@ args = 4, pretend = 0, frame = 0
 105              		@ frame_needed = 0, uses_anonymous_args = 0
 106 0000 F0472DE9 		stmfd	sp!, {r4, r5, r6, r7, r8, r9, r10, lr}
 107 0004 0380A0E1 		mov	r8, r3
 108 0008 E4309FE5 		ldr	r3, .L15
 109 000c 0160A0E1 		mov	r6, r1
 110 0010 001093E5 		ldr	r1, [r3]	@ float
 111 0014 02A0A0E1 		mov	r10, r2
 112 0018 0090A0E1 		mov	r9, r0
 113 001c FEFFFFEB 		bl	__aeabi_fsub
 114 0020 D0309FE5 		ldr	r3, .L15+4
 115 0024 0050A0E1 		mov	r5, r0
 116 0028 001093E5 		ldr	r1, [r3]	@ float
 117 002c 0600A0E1 		mov	r0, r6
 118 0030 FEFFFFEB 		bl	__aeabi_fsub
 119 0034 0510A0E1 		mov	r1, r5
 120 0038 0040A0E1 		mov	r4, r0
 121 003c 0500A0E1 		mov	r0, r5
 122 0040 FEFFFFEB 		bl	__aeabi_fmul
 123 0044 0410A0E1 		mov	r1, r4
 124 0048 0070A0E1 		mov	r7, r0
 125 004c 0400A0E1 		mov	r0, r4
 126 0050 FEFFFFEB 		bl	__aeabi_fmul
 127 0054 0010A0E1 		mov	r1, r0
 128 0058 0700A0E1 		mov	r0, r7
 129 005c FEFFFFEB 		bl	__aeabi_fadd
 130 0060 94309FE5 		ldr	r3, .L15+8
 131 0064 000083E5 		str	r0, [r3]	@ float
 132 0068 90309FE5 		ldr	r3, .L15+12
 133 006c 0070A0E1 		mov	r7, r0
 134 0070 001093E5 		ldr	r1, [r3]	@ float
 135 0074 20009DE5 		ldr	r0, [sp, #32]	@ float
 136 0078 FEFFFFEB 		bl	__aeabi_fmul
 137 007c 0010A0E1 		mov	r1, r0
 138 0080 FEFFFFEB 		bl	__aeabi_fmul
 139 0084 0010A0E1 		mov	r1, r0
 140 0088 0700A0E1 		mov	r0, r7
 141 008c FEFFFFEB 		bl	__aeabi_fcmplt
 142 0090 000050E3 		cmp	r0, #0
 143 0094 0100A013 		movne	r0, #1
 144 0098 1300001A 		bne	.L11
 145 009c 0A10A0E1 		mov	r1, r10
 146 00a0 0900A0E1 		mov	r0, r9
 147 00a4 FEFFFFEB 		bl	__aeabi_fsub
 148 00a8 0510A0E1 		mov	r1, r5
 149 00ac FEFFFFEB 		bl	__aeabi_fmul
 150 00b0 0810A0E1 		mov	r1, r8
 151 00b4 0050A0E1 		mov	r5, r0
 152 00b8 0600A0E1 		mov	r0, r6
 153 00bc FEFFFFEB 		bl	__aeabi_fsub
 154 00c0 0410A0E1 		mov	r1, r4
 155 00c4 FEFFFFEB 		bl	__aeabi_fmul
 156 00c8 0010A0E1 		mov	r1, r0
 157 00cc 0500A0E1 		mov	r0, r5
 158 00d0 FEFFFFEB 		bl	__aeabi_fadd
 159 00d4 0010A0E3 		mov	r1, #0
 160 00d8 FEFFFFEB 		bl	__aeabi_fcmplt
 161 00dc 000050E3 		cmp	r0, #0
 162 00e0 0140A0E3 		mov	r4, #1
 163 00e4 0040A001 		moveq	r4, r0
 164 00e8 FF0004E2 		and	r0, r4, #255
 165              	.L11:
 166 00ec F047BDE8 		ldmfd	sp!, {r4, r5, r6, r7, r8, r9, r10, lr}
 167 00f0 1EFF2FE1 		bx	lr
 168              	.L16:
 169              		.align	2
 170              	.L15:
 171 00f4 00000000 		.word	estimator_x
 172 00f8 00000000 		.word	estimator_y
 173 00fc 00000000 		.word	dist2_to_wp
 174 0100 00000000 		.word	estimator_hspeed_mod
 176              		.global	__aeabi_f2d
 177              		.global	__aeabi_d2f
 178              		.global	__aeabi_dadd
 179              		.global	__aeabi_dsub
 180              		.global	__aeabi_dcmpgt
 181              		.global	__aeabi_dcmplt
 182              		.global	__aeabi_ddiv
 183              		.section	.text.fly_to_xy,"ax",%progbits
 184              		.align	2
 185              		.global	fly_to_xy
 187              	fly_to_xy:
 188              		@ Function supports interworking.
 189              		@ args = 0, pretend = 0, frame = 0
 190              		@ frame_needed = 0, uses_anonymous_args = 0
 191 0000 F8402DE9 		stmfd	sp!, {r3, r4, r5, r6, r7, lr}
 192 0004 6C329FE5 		ldr	r3, .L40
 193 0008 000083E5 		str	r0, [r3]	@ float
 194 000c 68329FE5 		ldr	r3, .L40+4
 195 0010 001083E5 		str	r1, [r3]	@ float
 196 0014 64329FE5 		ldr	r3, .L40+8
 197 0018 003093E5 		ldr	r3, [r3]
 198 001c 020053E3 		cmp	r3, #2
 199 0020 5C329FE5 		ldr	r3, .L40+12
 200 0024 0160A0E1 		mov	r6, r1
 201 0028 58729FE5 		ldr	r7, .L40+16
 202 002c 001093E5 		ldr	r1, [r3]	@ float
 203 0030 1D00001A 		bne	.L18
 204 0034 FEFFFFEB 		bl	__aeabi_fsub
 205 0038 FEFFFFEB 		bl	__aeabi_f2d
 206 003c 0040A0E1 		mov	r4, r0
 207 0040 0150A0E1 		mov	r5, r1
 208 0044 0600A0E1 		mov	r0, r6
 209 0048 001097E5 		ldr	r1, [r7]	@ float
 210 004c FEFFFFEB 		bl	__aeabi_fsub
 211 0050 FEFFFFEB 		bl	__aeabi_f2d
 212 0054 0020A0E1 		mov	r2, r0
 213 0058 0130A0E1 		mov	r3, r1
 214 005c 0400A0E1 		mov	r0, r4
 215 0060 0510A0E1 		mov	r1, r5
 216 0064 FEFFFFEB 		bl	atan2
 217 0068 FEFFFFEB 		bl	__aeabi_d2f
 218 006c 0010A0E3 		mov	r1, #0
 219 0070 0050A0E1 		mov	r5, r0
 220 0074 FEFFFFEB 		bl	__aeabi_fcmplt
 221 0078 0C429FE5 		ldr	r4, .L40+20
 222 007c 000050E3 		cmp	r0, #0
 223 0080 00508405 		streq	r5, [r4]	@ float
 224 0084 0600000A 		beq	.L20
 225 0088 0500A0E1 		mov	r0, r5
 226 008c FEFFFFEB 		bl	__aeabi_f2d
 227 0090 F8219FE5 		ldr	r2, .L40+24
 228 0094 F8319FE5 		ldr	r3, .L40+28
 229 0098 FEFFFFEB 		bl	__aeabi_dadd
 230 009c FEFFFFEB 		bl	__aeabi_d2f
 231 00a0 000084E5 		str	r0, [r4]	@ float
 232              	.L20:
 233 00a4 0320A0E3 		mov	r2, #3
 234 00a8 6E0000EA 		b	.L38
 235              	.L18:
 236 00ac FEFFFFEB 		bl	__aeabi_fsub
 237 00b0 FEFFFFEB 		bl	__aeabi_f2d
 238 00b4 0040A0E1 		mov	r4, r0
 239 00b8 0150A0E1 		mov	r5, r1
 240 00bc 0600A0E1 		mov	r0, r6
 241 00c0 001097E5 		ldr	r1, [r7]	@ float
 242 00c4 FEFFFFEB 		bl	__aeabi_fsub
 243 00c8 FEFFFFEB 		bl	__aeabi_f2d
 244 00cc 0020A0E1 		mov	r2, r0
 245 00d0 0130A0E1 		mov	r3, r1
 246 00d4 0400A0E1 		mov	r0, r4
 247 00d8 0510A0E1 		mov	r1, r5
 248 00dc FEFFFFEB 		bl	atan2
 249 00e0 B0319FE5 		ldr	r3, .L40+32
 250 00e4 0040A0E1 		mov	r4, r0
 251 00e8 000093E5 		ldr	r0, [r3]	@ float
 252 00ec 0150A0E1 		mov	r5, r1
 253 00f0 FEFFFFEB 		bl	__aeabi_f2d
 254 00f4 0020A0E1 		mov	r2, r0
 255 00f8 0130A0E1 		mov	r3, r1
 256 00fc 0400A0E1 		mov	r0, r4
 257 0100 0510A0E1 		mov	r1, r5
 258              	.L36:
 259 0104 FEFFFFEB 		bl	__aeabi_dsub
 260 0108 FEFFFFEB 		bl	__aeabi_d2f
 261 010c 0060A0E1 		mov	r6, r0
 262 0110 FEFFFFEB 		bl	__aeabi_f2d
 263 0114 74219FE5 		ldr	r2, .L40+24
 264 0118 7C319FE5 		ldr	r3, .L40+36
 265 011c 0040A0E1 		mov	r4, r0
 266 0120 0150A0E1 		mov	r5, r1
 267 0124 FEFFFFEB 		bl	__aeabi_dcmpgt
 268 0128 000050E3 		cmp	r0, #0
 269 012c 0400A011 		movne	r0, r4
 270 0130 0510A011 		movne	r1, r5
 271 0134 54219F15 		ldrne	r2, .L40+24
 272 0138 54319F15 		ldrne	r3, .L40+28
 273 013c F0FFFF1A 		bne	.L36
 274              	.L24:
 275 0140 0600A0E1 		mov	r0, r6
 276 0144 FEFFFFEB 		bl	__aeabi_f2d
 277 0148 40219FE5 		ldr	r2, .L40+24
 278 014c 4C319FE5 		ldr	r3, .L40+40
 279 0150 0040A0E1 		mov	r4, r0
 280 0154 0150A0E1 		mov	r5, r1
 281 0158 FEFFFFEB 		bl	__aeabi_dcmplt
 282 015c 000050E3 		cmp	r0, #0
 283 0160 0510A0E1 		mov	r1, r5
 284 0164 0400A0E1 		mov	r0, r4
 285 0168 20219FE5 		ldr	r2, .L40+24
 286 016c 0400000A 		beq	.L39
 287 0170 1C319FE5 		ldr	r3, .L40+28
 288 0174 FEFFFFEB 		bl	__aeabi_dadd
 289 0178 FEFFFFEB 		bl	__aeabi_d2f
 290 017c 0060A0E1 		mov	r6, r0
 291 0180 EEFFFFEA 		b	.L24
 292              	.L39:
 293 0184 18319FE5 		ldr	r3, .L40+44
 294 0188 FEFFFFEB 		bl	__aeabi_dcmpgt
 295 018c 000050E3 		cmp	r0, #0
 296 0190 10619F15 		ldrne	r6, .L40+48
 297 0194 0600001A 		bne	.L26
 298 0198 0400A0E1 		mov	r0, r4
 299 019c 0510A0E1 		mov	r1, r5
 300 01a0 E8209FE5 		ldr	r2, .L40+24
 301 01a4 00319FE5 		ldr	r3, .L40+52
 302 01a8 FEFFFFEB 		bl	__aeabi_dcmplt
 303 01ac 000050E3 		cmp	r0, #0
 304 01b0 F8609F15 		ldrne	r6, .L40+56
 305              	.L26:
 306 01b4 0600A0E1 		mov	r0, r6
 307 01b8 FEFFFFEB 		bl	__aeabi_f2d
 308 01bc FEFFFFEB 		bl	sin
 309 01c0 EC309FE5 		ldr	r3, .L40+60
 310 01c4 006093E5 		ldr	r6, [r3]	@ float
 311 01c8 0040A0E1 		mov	r4, r0
 312 01cc 0150A0E1 		mov	r5, r1
 313 01d0 0600A0E1 		mov	r0, r6
 314 01d4 0610A0E1 		mov	r1, r6
 315 01d8 FEFFFFEB 		bl	__aeabi_fadd
 316 01dc 0610A0E1 		mov	r1, r6
 317 01e0 FEFFFFEB 		bl	__aeabi_fmul
 318 01e4 0510A0E1 		mov	r1, r5
 319 01e8 0060A0E1 		mov	r6, r0
 320 01ec 0400A0E1 		mov	r0, r4
 321 01f0 FEFFFFEB 		bl	__aeabi_d2f
 322 01f4 0010A0E1 		mov	r1, r0
 323 01f8 0600A0E1 		mov	r0, r6
 324 01fc FEFFFFEB 		bl	__aeabi_fmul
 325 0200 B0309FE5 		ldr	r3, .L40+64
 326 0204 001093E5 		ldr	r1, [r3]	@ float
 327 0208 FEFFFFEB 		bl	__aeabi_fmul
 328 020c FEFFFFEB 		bl	__aeabi_f2d
 329 0210 A4209FE5 		ldr	r2, .L40+68
 330 0214 A4309FE5 		ldr	r3, .L40+72
 331 0218 FEFFFFEB 		bl	__aeabi_ddiv
 332 021c FEFFFFEB 		bl	atan
 333 0220 FEFFFFEB 		bl	__aeabi_d2f
 334 0224 98309FE5 		ldr	r3, .L40+76
 335 0228 98409FE5 		ldr	r4, .L40+80
 336 022c 005093E5 		ldr	r5, [r3]	@ float
 337 0230 000084E5 		str	r0, [r4]	@ float
 338 0234 0510A0E1 		mov	r1, r5
 339 0238 0060A0E1 		mov	r6, r0
 340 023c FEFFFFEB 		bl	__aeabi_fcmpgt
 341 0240 000050E3 		cmp	r0, #0
 342 0244 0500001A 		bne	.L37
 343 0248 025185E2 		add	r5, r5, #-2147483648
 344 024c 0600A0E1 		mov	r0, r6
 345 0250 0510A0E1 		mov	r1, r5
 346 0254 FEFFFFEB 		bl	__aeabi_fcmplt
 347 0258 000050E3 		cmp	r0, #0
 348 025c 0000000A 		beq	.L29
 349              	.L37:
 350 0260 005084E5 		str	r5, [r4]	@ float
 351              	.L29:
 352 0264 0220A0E3 		mov	r2, #2
 353              	.L38:
 354 0268 5C309FE5 		ldr	r3, .L40+84
 355 026c 0020C3E5 		strb	r2, [r3]
 356 0270 F840BDE8 		ldmfd	sp!, {r3, r4, r5, r6, r7, lr}
 357 0274 1EFF2FE1 		bx	lr
 358              	.L41:
 359              		.align	2
 360              	.L40:
 361 0278 00000000 		.word	desired_x
 362 027c 00000000 		.word	desired_y
 363 0280 00000000 		.word	nav_mode
 364 0284 00000000 		.word	estimator_x
 365 0288 00000000 		.word	estimator_y
 366 028c 00000000 		.word	h_ctl_course_setpoint
 367 0290 182D4454 		.word	1413754136
 368 0294 FB211940 		.word	1075388923
 369 0298 00000000 		.word	estimator_hspeed_dir
 370 029c FB210940 		.word	1074340347
 371 02a0 FB2109C0 		.word	-1073143301
 372 02a4 FB21F93F 		.word	1073291771
 373 02a8 DB0FC93F 		.word	1070141403
 374 02ac FB21F9BF 		.word	-1074191877
 375 02b0 DB0FC9BF 		.word	-1077342245
 376 02b4 00000000 		.word	estimator_hspeed_mod
 377 02b8 00000000 		.word	h_ctl_course_pgain
 378 02bc 34333333 		.word	858993460
 379 02c0 33978B40 		.word	1082890035
 380 02c4 00000000 		.word	h_ctl_roll_max_setpoint
 381 02c8 00000000 		.word	h_ctl_roll_setpoint
 382 02cc 00000000 		.word	lateral_mode
 384              		.global	__aeabi_dmul
 385              		.global	__aeabi_fdiv
 386              		.section	.text.nav_circle_XY,"ax",%progbits
 387              		.align	2
 388              		.global	nav_circle_XY
 390              	nav_circle_XY:
 391              		@ Function supports interworking.
 392              		@ args = 0, pretend = 0, frame = 24
 393              		@ frame_needed = 0, uses_anonymous_args = 0
 394 0000 F04F2DE9 		stmfd	sp!, {r4, r5, r6, r7, r8, r9, r10, fp, lr}
 395 0004 08949FE5 		ldr	r9, .L64
 396 0008 08849FE5 		ldr	r8, .L64+4
 397 000c 00C099E5 		ldr	ip, [r9]	@ float
 398 0010 1CD04DE2 		sub	sp, sp, #28
 399 0014 0060A0E1 		mov	r6, r0
 400 0018 000098E5 		ldr	r0, [r8]	@ float
 401 001c 02A0A0E1 		mov	r10, r2
 402 0020 04C08DE5 		str	ip, [sp, #4]
 403 0024 01B0A0E1 		mov	fp, r1
 404 0028 FEFFFFEB 		bl	__aeabi_fsub
 405 002c FEFFFFEB 		bl	__aeabi_f2d
 406 0030 E4739FE5 		ldr	r7, .L64+8
 407 0034 0040A0E1 		mov	r4, r0
 408 0038 0150A0E1 		mov	r5, r1
 409 003c 000097E5 		ldr	r0, [r7]	@ float
 410 0040 0610A0E1 		mov	r1, r6
 411 0044 FEFFFFEB 		bl	__aeabi_fsub
 412 0048 FEFFFFEB 		bl	__aeabi_f2d
 413 004c 0020A0E1 		mov	r2, r0
 414 0050 0130A0E1 		mov	r3, r1
 415 0054 0400A0E1 		mov	r0, r4
 416 0058 0510A0E1 		mov	r1, r5
 417 005c FEFFFFEB 		bl	atan2
 418 0060 FEFFFFEB 		bl	__aeabi_d2f
 419 0064 B4339FE5 		ldr	r3, .L64+12
 420 0068 0020D3E5 		ldrb	r2, [r3]	@ zero_extendqisi2
 421 006c 000052E3 		cmp	r2, #0
 422 0070 08008DE5 		str	r0, [sp, #8]	@ float
 423 0074 000089E5 		str	r0, [r9]	@ float
 424 0078 04C09DE5 		ldr	ip, [sp, #4]
 425 007c 2700000A 		beq	.L43
 426 0080 0C10A0E1 		mov	r1, ip
 427 0084 FEFFFFEB 		bl	__aeabi_fsub
 428              	.L62:
 429 0088 0090A0E1 		mov	r9, r0
 430 008c FEFFFFEB 		bl	__aeabi_f2d
 431 0090 8C239FE5 		ldr	r2, .L64+16
 432 0094 8C339FE5 		ldr	r3, .L64+20
 433 0098 0040A0E1 		mov	r4, r0
 434 009c 0150A0E1 		mov	r5, r1
 435 00a0 FEFFFFEB 		bl	__aeabi_dcmpgt
 436 00a4 000050E3 		cmp	r0, #0
 437 00a8 0600000A 		beq	.L46
 438 00ac 70239FE5 		ldr	r2, .L64+16
 439 00b0 74339FE5 		ldr	r3, .L64+24
 440 00b4 0400A0E1 		mov	r0, r4
 441 00b8 0510A0E1 		mov	r1, r5
 442 00bc FEFFFFEB 		bl	__aeabi_dsub
 443 00c0 FEFFFFEB 		bl	__aeabi_d2f
 444 00c4 EFFFFFEA 		b	.L62
 445              	.L46:
 446 00c8 0900A0E1 		mov	r0, r9
 447 00cc FEFFFFEB 		bl	__aeabi_f2d
 448 00d0 4C239FE5 		ldr	r2, .L64+16
 449 00d4 54339FE5 		ldr	r3, .L64+28
 450 00d8 0040A0E1 		mov	r4, r0
 451 00dc 0150A0E1 		mov	r5, r1
 452 00e0 FEFFFFEB 		bl	__aeabi_dcmplt
 453 00e4 000050E3 		cmp	r0, #0
 454 00e8 0700000A 		beq	.L63
 455 00ec 30239FE5 		ldr	r2, .L64+16
 456 00f0 34339FE5 		ldr	r3, .L64+24
 457 00f4 0400A0E1 		mov	r0, r4
 458 00f8 0510A0E1 		mov	r1, r5
 459 00fc FEFFFFEB 		bl	__aeabi_dadd
 460 0100 FEFFFFEB 		bl	__aeabi_d2f
 461 0104 0090A0E1 		mov	r9, r0
 462 0108 EEFFFFEA 		b	.L46
 463              	.L63:
 464 010c 20439FE5 		ldr	r4, .L64+32
 465 0110 0910A0E1 		mov	r1, r9
 466 0114 000094E5 		ldr	r0, [r4]	@ float
 467 0118 FEFFFFEB 		bl	__aeabi_fadd
 468 011c 000084E5 		str	r0, [r4]	@ float
 469              	.L43:
 470 0120 000097E5 		ldr	r0, [r7]	@ float
 471 0124 0610A0E1 		mov	r1, r6
 472 0128 FEFFFFEB 		bl	__aeabi_fsub
 473 012c 0B10A0E1 		mov	r1, fp
 474 0130 0040A0E1 		mov	r4, r0
 475 0134 000098E5 		ldr	r0, [r8]	@ float
 476 0138 FEFFFFEB 		bl	__aeabi_fsub
 477 013c 0410A0E1 		mov	r1, r4
 478 0140 0050A0E1 		mov	r5, r0
 479 0144 0400A0E1 		mov	r0, r4
 480 0148 FEFFFFEB 		bl	__aeabi_fmul
 481 014c 0510A0E1 		mov	r1, r5
 482 0150 0040A0E1 		mov	r4, r0
 483 0154 0500A0E1 		mov	r0, r5
 484 0158 FEFFFFEB 		bl	__aeabi_fmul
 485 015c 0010A0E1 		mov	r1, r0
 486 0160 0400A0E1 		mov	r0, r4
 487 0164 FEFFFFEB 		bl	__aeabi_fadd
 488 0168 0010A0E3 		mov	r1, #0
 489 016c 0040A0E1 		mov	r4, r0
 490 0170 0A00A0E1 		mov	r0, r10
 491 0174 FEFFFFEB 		bl	__aeabi_fcmpgt
 492 0178 B8329FE5 		ldr	r3, .L64+36
 493 017c 000050E3 		cmp	r0, #0
 494 0180 001093E5 		ldr	r1, [r3]	@ float
 495 0184 0A00A0E1 		mov	r0, r10
 496 0188 FE85A013 		movne	r8, #1065353216
 497 018c A8829F05 		ldreq	r8, .L64+40
 498 0190 FEFFFFEB 		bl	__aeabi_fsub
 499 0194 0271C0E3 		bic	r7, r0, #-2147483648
 500 0198 A0129FE5 		ldr	r1, .L64+44
 501 019c 00A0A0E1 		mov	r10, r0
 502 01a0 0700A0E1 		mov	r0, r7
 503 01a4 FEFFFFEB 		bl	__aeabi_fadd
 504 01a8 0010A0E1 		mov	r1, r0
 505 01ac FEFFFFEB 		bl	__aeabi_fmul
 506 01b0 0010A0E1 		mov	r1, r0
 507 01b4 0400A0E1 		mov	r0, r4
 508 01b8 FEFFFFEB 		bl	__aeabi_fcmpgt
 509 01bc 000050E3 		cmp	r0, #0
 510 01c0 1D00001A 		bne	.L56
 511 01c4 74129FE5 		ldr	r1, .L64+44
 512 01c8 0700A0E1 		mov	r0, r7
 513 01cc FEFFFFEB 		bl	__aeabi_fsub
 514 01d0 0010A0E1 		mov	r1, r0
 515 01d4 FEFFFFEB 		bl	__aeabi_fmul
 516 01d8 0010A0E1 		mov	r1, r0
 517 01dc 0400A0E1 		mov	r0, r4
 518 01e0 FEFFFFEB 		bl	__aeabi_fcmplt
 519 01e4 000050E3 		cmp	r0, #0
 520 01e8 1300001A 		bne	.L56
 521 01ec 50329FE5 		ldr	r3, .L64+48
 522 01f0 000093E5 		ldr	r0, [r3]	@ float
 523 01f4 0010A0E1 		mov	r1, r0
 524 01f8 FEFFFFEB 		bl	__aeabi_fmul
 525 01fc FEFFFFEB 		bl	__aeabi_f2d
 526 0200 0040A0E1 		mov	r4, r0
 527 0204 0A00A0E1 		mov	r0, r10
 528 0208 0150A0E1 		mov	r5, r1
 529 020c FEFFFFEB 		bl	__aeabi_f2d
 530 0210 30229FE5 		ldr	r2, .L64+52
 531 0214 30329FE5 		ldr	r3, .L64+56
 532 0218 FEFFFFEB 		bl	__aeabi_dmul
 533 021c 0020A0E1 		mov	r2, r0
 534 0220 0130A0E1 		mov	r3, r1
 535 0224 0400A0E1 		mov	r0, r4
 536 0228 0510A0E1 		mov	r1, r5
 537 022c FEFFFFEB 		bl	__aeabi_ddiv
 538 0230 FEFFFFEB 		bl	atan
 539 0234 FEFFFFEB 		bl	__aeabi_d2f
 540 0238 000000EA 		b	.L50
 541              	.L56:
 542 023c 0000A0E3 		mov	r0, #0
 543              	.L50:
 544 0240 08329FE5 		ldr	r3, .L64+60
 545 0244 0710A0E1 		mov	r1, r7
 546 0248 000083E5 		str	r0, [r3]	@ float
 547 024c EC019FE5 		ldr	r0, .L64+44
 548 0250 FEFFFFEB 		bl	__aeabi_fdiv
 549 0254 0090A0E1 		mov	r9, r0
 550 0258 FEFFFFEB 		bl	__aeabi_f2d
 551 025c C0219FE5 		ldr	r2, .L64+16
 552 0260 EC319FE5 		ldr	r3, .L64+64
 553 0264 FEFFFFEB 		bl	__aeabi_dcmplt
 554 0268 000050E3 		cmp	r0, #0
 555 026c E4919F05 		ldreq	r9, .L64+68
 556 0270 0900A0E1 		mov	r0, r9
 557 0274 FEFFFFEB 		bl	__aeabi_f2d
 558 0278 A4219FE5 		ldr	r2, .L64+16
 559 027c D8319FE5 		ldr	r3, .L64+72
 560 0280 FEFFFFEB 		bl	__aeabi_dcmpgt
 561 0284 000050E3 		cmp	r0, #0
 562 0288 D0919F05 		ldreq	r9, .L64+76
 563 028c 0800A0E1 		mov	r0, r8
 564 0290 0910A0E1 		mov	r1, r9
 565 0294 FEFFFFEB 		bl	__aeabi_fmul
 566 0298 0010A0E1 		mov	r1, r0
 567 029c 08009DE5 		ldr	r0, [sp, #8]	@ float
 568 02a0 FEFFFFEB 		bl	__aeabi_fsub
 569 02a4 B8319FE5 		ldr	r3, .L64+80
 570 02a8 0220A0E3 		mov	r2, #2
 571 02ac 0020C3E5 		strb	r2, [r3]
 572 02b0 B0319FE5 		ldr	r3, .L64+84
 573 02b4 003093E5 		ldr	r3, [r3]
 574 02b8 020053E1 		cmp	r3, r2
 575 02bc 0080A0E1 		mov	r8, r0
 576 02c0 1500001A 		bne	.L53
 577 02c4 0700A0E1 		mov	r0, r7
 578 02c8 FEFFFFEB 		bl	__aeabi_f2d
 579 02cc 0040A0E1 		mov	r4, r0
 580 02d0 0900A0E1 		mov	r0, r9
 581 02d4 0150A0E1 		mov	r5, r1
 582 02d8 FEFFFFEB 		bl	__aeabi_f2d
 583 02dc FEFFFFEB 		bl	cos
 584 02e0 0020A0E1 		mov	r2, r0
 585 02e4 0130A0E1 		mov	r3, r1
 586 02e8 0400A0E1 		mov	r0, r4
 587 02ec 0510A0E1 		mov	r1, r5
 588 02f0 FEFFFFEB 		bl	__aeabi_ddiv
 589 02f4 0420A0E1 		mov	r2, r4
 590 02f8 0530A0E1 		mov	r3, r5
 591 02fc FEFFFFEB 		bl	__aeabi_dsub
 592 0300 0020A0E1 		mov	r2, r0
 593 0304 0130A0E1 		mov	r3, r1
 594 0308 0400A0E1 		mov	r0, r4
 595 030c 0510A0E1 		mov	r1, r5
 596 0310 FEFFFFEB 		bl	__aeabi_dadd
 597 0314 FEFFFFEB 		bl	__aeabi_d2f
 598 0318 0070A0E1 		mov	r7, r0
 599              	.L53:
 600 031c 0800A0E1 		mov	r0, r8
 601 0320 FEFFFFEB 		bl	__aeabi_f2d
 602 0324 0080A0E1 		mov	r8, r0
 603 0328 0190A0E1 		mov	r9, r1
 604 032c FEFFFFEB 		bl	cos
 605 0330 0040A0E1 		mov	r4, r0
 606 0334 0700A0E1 		mov	r0, r7
 607 0338 0150A0E1 		mov	r5, r1
 608 033c FEFFFFEB 		bl	__aeabi_f2d
 609 0340 08008DE5 		str	r0, [sp, #8]
 610 0344 0C108DE5 		str	r1, [sp, #12]
 611 0348 0800A0E1 		mov	r0, r8
 612 034c 0910A0E1 		mov	r1, r9
 613 0350 FEFFFFEB 		bl	sin
 614 0354 10008DE5 		str	r0, [sp, #16]
 615 0358 14108DE5 		str	r1, [sp, #20]
 616 035c 0600A0E1 		mov	r0, r6
 617 0360 FEFFFFEB 		bl	__aeabi_f2d
 618 0364 08308DE2 		add	r3, sp, #8
 619 0368 0C0093E8 		ldmia	r3, {r2-r3}
 620 036c 0080A0E1 		mov	r8, r0
 621 0370 0190A0E1 		mov	r9, r1
 622 0374 0400A0E1 		mov	r0, r4
 623 0378 0510A0E1 		mov	r1, r5
 624 037c FEFFFFEB 		bl	__aeabi_dmul
 625 0380 0020A0E1 		mov	r2, r0
 626 0384 0130A0E1 		mov	r3, r1
 627 0388 0800A0E1 		mov	r0, r8
 628 038c 0910A0E1 		mov	r1, r9
 629 0390 FEFFFFEB 		bl	__aeabi_dadd
 630 0394 FEFFFFEB 		bl	__aeabi_d2f
 631 0398 0070A0E1 		mov	r7, r0
 632 039c 0B00A0E1 		mov	r0, fp
 633 03a0 FEFFFFEB 		bl	__aeabi_f2d
 634 03a4 08308DE2 		add	r3, sp, #8
 635 03a8 0C0093E8 		ldmia	r3, {r2-r3}
 636 03ac 0040A0E1 		mov	r4, r0
 637 03b0 0150A0E1 		mov	r5, r1
 638 03b4 10108DE2 		add	r1, sp, #16
 639 03b8 030091E8 		ldmia	r1, {r0-r1}
 640 03bc FEFFFFEB 		bl	__aeabi_dmul
 641 03c0 0020A0E1 		mov	r2, r0
 642 03c4 0130A0E1 		mov	r3, r1
 643 03c8 0400A0E1 		mov	r0, r4
 644 03cc 0510A0E1 		mov	r1, r5
 645 03d0 FEFFFFEB 		bl	__aeabi_dadd
 646 03d4 FEFFFFEB 		bl	__aeabi_d2f
 647 03d8 0010A0E1 		mov	r1, r0
 648 03dc 0700A0E1 		mov	r0, r7
 649 03e0 FEFFFFEB 		bl	fly_to_xy
 650 03e4 34209FE5 		ldr	r2, .L64+12
 651 03e8 0130A0E3 		mov	r3, #1
 652 03ec 0030C2E5 		strb	r3, [r2]
 653 03f0 74309FE5 		ldr	r3, .L64+88
 654 03f4 006083E5 		str	r6, [r3]	@ float
 655 03f8 70309FE5 		ldr	r3, .L64+92
 656 03fc 00B083E5 		str	fp, [r3]	@ float
 657 0400 6C309FE5 		ldr	r3, .L64+96
 658 0404 00A083E5 		str	r10, [r3]	@ float
 659 0408 1CD08DE2 		add	sp, sp, #28
 660              		@ sp needed
 661 040c F04FBDE8 		ldmfd	sp!, {r4, r5, r6, r7, r8, r9, r10, fp, lr}
 662 0410 1EFF2FE1 		bx	lr
 663              	.L65:
 664              		.align	2
 665              	.L64:
 666 0414 00000000 		.word	nav_circle_trigo_qdr
 667 0418 00000000 		.word	estimator_y
 668 041c 00000000 		.word	estimator_x
 669 0420 00000000 		.word	.LANCHOR2
 670 0424 182D4454 		.word	1413754136
 671 0428 FB210940 		.word	1074340347
 672 042c FB211940 		.word	1075388923
 673 0430 FB2109C0 		.word	-1073143301
 674 0434 00000000 		.word	nav_circle_radians
 675 0438 00000000 		.word	nav_shift
 676 043c 000080BF 		.word	-1082130432
 677 0440 0000B442 		.word	1119092736
 678 0444 00000000 		.word	estimator_hspeed_mod
 679 0448 E9263108 		.word	137438953
 680 044c AC9C2340 		.word	1076075692
 681 0450 00000000 		.word	.LANCHOR4
 682 0454 FB21E93F 		.word	1072243195
 683 0458 DB0F493F 		.word	1061752795
 684 045c FB21C93F 		.word	1070146043
 685 0460 DB0F493E 		.word	1044975579
 686 0464 00000000 		.word	horizontal_mode
 687 0468 00000000 		.word	nav_mode
 688 046c 00000000 		.word	nav_circle_x
 689 0470 00000000 		.word	nav_circle_y
 690 0474 00000000 		.word	nav_circle_radius
 692              		.section	.text.nav_route_xy,"ax",%progbits
 693              		.align	2
 694              		.global	nav_route_xy
 696              	nav_route_xy:
 697              		@ Function supports interworking.
 698              		@ args = 0, pretend = 0, frame = 8
 699              		@ frame_needed = 0, uses_anonymous_args = 0
 700 0000 F74F2DE9 		stmfd	sp!, {r0, r1, r2, r4, r5, r6, r7, r8, r9, r10, fp, lr}
 701 0004 0080A0E1 		mov	r8, r0
 702 0008 0170A0E1 		mov	r7, r1
 703 000c 0200A0E1 		mov	r0, r2
 704 0010 0810A0E1 		mov	r1, r8
 705 0014 02A0A0E1 		mov	r10, r2
 706 0018 0390A0E1 		mov	r9, r3
 707 001c FEFFFFEB 		bl	__aeabi_fsub
 708 0020 0710A0E1 		mov	r1, r7
 709 0024 0040A0E1 		mov	r4, r0
 710 0028 0900A0E1 		mov	r0, r9
 711 002c FEFFFFEB 		bl	__aeabi_fsub
 712 0030 0410A0E1 		mov	r1, r4
 713 0034 0050A0E1 		mov	r5, r0
 714 0038 0400A0E1 		mov	r0, r4
 715 003c FEFFFFEB 		bl	__aeabi_fmul
 716 0040 0510A0E1 		mov	r1, r5
 717 0044 0060A0E1 		mov	r6, r0
 718 0048 0500A0E1 		mov	r0, r5
 719 004c FEFFFFEB 		bl	__aeabi_fmul
 720 0050 0010A0E1 		mov	r1, r0
 721 0054 0600A0E1 		mov	r0, r6
 722 0058 FEFFFFEB 		bl	__aeabi_fadd
 723 005c FE15A0E3 		mov	r1, #1065353216
 724 0060 0060A0E1 		mov	r6, r0
 725 0064 FEFFFFEB 		bl	__aeabi_fcmpgt
 726 0068 90319FE5 		ldr	r3, .L73
 727 006c 000050E3 		cmp	r0, #0
 728 0070 0810A0E1 		mov	r1, r8
 729 0074 000093E5 		ldr	r0, [r3]	@ float
 730 0078 FE65A003 		moveq	r6, #1065353216
 731 007c FEFFFFEB 		bl	__aeabi_fsub
 732 0080 0410A0E1 		mov	r1, r4
 733 0084 FEFFFFEB 		bl	__aeabi_fmul
 734 0088 74319FE5 		ldr	r3, .L73+4
 735 008c 00B0A0E1 		mov	fp, r0
 736 0090 0710A0E1 		mov	r1, r7
 737 0094 000093E5 		ldr	r0, [r3]	@ float
 738 0098 FEFFFFEB 		bl	__aeabi_fsub
 739 009c 0510A0E1 		mov	r1, r5
 740 00a0 FEFFFFEB 		bl	__aeabi_fmul
 741 00a4 0010A0E1 		mov	r1, r0
 742 00a8 0B00A0E1 		mov	r0, fp
 743 00ac FEFFFFEB 		bl	__aeabi_fadd
 744 00b0 0610A0E1 		mov	r1, r6
 745 00b4 FEFFFFEB 		bl	__aeabi_fdiv
 746 00b8 00B0A0E1 		mov	fp, r0
 747 00bc 0600A0E1 		mov	r0, r6
 748 00c0 FEFFFFEB 		bl	__aeabi_f2d
 749 00c4 FEFFFFEB 		bl	sqrt
 750 00c8 FEFFFFEB 		bl	__aeabi_d2f
 751 00cc 34319FE5 		ldr	r3, .L73+8
 752 00d0 0060A0E1 		mov	r6, r0
 753 00d4 000083E5 		str	r0, [r3]	@ float
 754 00d8 0B00A0E1 		mov	r0, fp
 755 00dc FEFFFFEB 		bl	__aeabi_f2d
 756 00e0 03008DE8 		stmia	sp, {r0-r1}
 757 00e4 0610A0E1 		mov	r1, r6
 758 00e8 1C019FE5 		ldr	r0, .L73+12
 759 00ec FEFFFFEB 		bl	__aeabi_fdiv
 760 00f0 0010A0E3 		mov	r1, #0
 761 00f4 00B0A0E1 		mov	fp, r0
 762 00f8 FEFFFFEB 		bl	__aeabi_fcmpgt
 763 00fc 000050E3 		cmp	r0, #0
 764 0100 0400000A 		beq	.L72
 765 0104 0B00A0E1 		mov	r0, fp
 766 0108 FEFFFFEB 		bl	__aeabi_f2d
 767 010c 0020A0E1 		mov	r2, r0
 768 0110 0130A0E1 		mov	r3, r1
 769 0114 010000EA 		b	.L68
 770              	.L72:
 771 0118 0020A0E3 		mov	r2, #0
 772 011c 0030A0E3 		mov	r3, #0
 773              	.L68:
 774 0120 03009DE8 		ldmia	sp, {r0-r1}
 775 0124 FEFFFFEB 		bl	__aeabi_dadd
 776 0128 FEFFFFEB 		bl	__aeabi_d2f
 777 012c DC309FE5 		ldr	r3, .L73+16
 778 0130 DC209FE5 		ldr	r2, .L73+20
 779 0134 000083E5 		str	r0, [r3]	@ float
 780 0138 0130A0E3 		mov	r3, #1
 781 013c 0030C2E5 		strb	r3, [r2]
 782 0140 D0209FE5 		ldr	r2, .L73+24
 783 0144 008082E5 		str	r8, [r2]	@ float
 784 0148 CC209FE5 		ldr	r2, .L73+28
 785 014c 007082E5 		str	r7, [r2]	@ float
 786 0150 C8209FE5 		ldr	r2, .L73+32
 787 0154 00A082E5 		str	r10, [r2]	@ float
 788 0158 C4209FE5 		ldr	r2, .L73+36
 789 015c 009082E5 		str	r9, [r2]	@ float
 790 0160 C0209FE5 		ldr	r2, .L73+40
 791 0164 0030C2E5 		strb	r3, [r2]
 792 0168 BC309FE5 		ldr	r3, .L73+44
 793 016c 0410A0E1 		mov	r1, r4
 794 0170 009093E5 		ldr	r9, [r3]	@ float
 795 0174 00B0A0E1 		mov	fp, r0
 796 0178 FEFFFFEB 		bl	__aeabi_fmul
 797 017c 0010A0E1 		mov	r1, r0
 798 0180 0800A0E1 		mov	r0, r8
 799 0184 FEFFFFEB 		bl	__aeabi_fadd
 800 0188 0510A0E1 		mov	r1, r5
 801 018c 0080A0E1 		mov	r8, r0
 802 0190 0900A0E1 		mov	r0, r9
 803 0194 FEFFFFEB 		bl	__aeabi_fmul
 804 0198 0610A0E1 		mov	r1, r6
 805 019c FEFFFFEB 		bl	__aeabi_fdiv
 806 01a0 0010A0E1 		mov	r1, r0
 807 01a4 0800A0E1 		mov	r0, r8
 808 01a8 FEFFFFEB 		bl	__aeabi_fadd
 809 01ac 0510A0E1 		mov	r1, r5
 810 01b0 0080A0E1 		mov	r8, r0
 811 01b4 0B00A0E1 		mov	r0, fp
 812 01b8 FEFFFFEB 		bl	__aeabi_fmul
 813 01bc 0010A0E1 		mov	r1, r0
 814 01c0 0700A0E1 		mov	r0, r7
 815 01c4 FEFFFFEB 		bl	__aeabi_fadd
 816 01c8 0410A0E1 		mov	r1, r4
 817 01cc 0050A0E1 		mov	r5, r0
 818 01d0 0900A0E1 		mov	r0, r9
 819 01d4 FEFFFFEB 		bl	__aeabi_fmul
 820 01d8 0610A0E1 		mov	r1, r6
 821 01dc FEFFFFEB 		bl	__aeabi_fdiv
 822 01e0 0010A0E1 		mov	r1, r0
 823 01e4 0500A0E1 		mov	r0, r5
 824 01e8 FEFFFFEB 		bl	__aeabi_fsub
 825 01ec 0010A0E1 		mov	r1, r0
 826 01f0 0800A0E1 		mov	r0, r8
 827 01f4 0CD08DE2 		add	sp, sp, #12
 828              		@ sp needed
 829 01f8 F04FBDE8 		ldmfd	sp!, {r4, r5, r6, r7, r8, r9, r10, fp, lr}
 830 01fc FEFFFFEA 		b	fly_to_xy
 831              	.L74:
 832              		.align	2
 833              	.L73:
 834 0200 00000000 		.word	estimator_x
 835 0204 00000000 		.word	estimator_y
 836 0208 00000000 		.word	.LANCHOR5
 837 020c 0000B442 		.word	1119092736
 838 0210 00000000 		.word	.LANCHOR6
 839 0214 00000000 		.word	.LANCHOR3
 840 0218 00000000 		.word	nav_segment_x_1
 841 021c 00000000 		.word	nav_segment_y_1
 842 0220 00000000 		.word	nav_segment_x_2
 843 0224 00000000 		.word	nav_segment_y_2
 844 0228 00000000 		.word	horizontal_mode
 845 022c 00000000 		.word	nav_shift
 847              		.section	.text.compute_dist2_to_home,"ax",%progbits
 848              		.align	2
 849              		.global	compute_dist2_to_home
 851              	compute_dist2_to_home:
 852              		@ Function supports interworking.
 853              		@ args = 0, pretend = 0, frame = 0
 854              		@ frame_needed = 0, uses_anonymous_args = 0
 855 0000 70402DE9 		stmfd	sp!, {r4, r5, r6, lr}
 856 0004 78309FE5 		ldr	r3, .L77
 857 0008 78409FE5 		ldr	r4, .L77+4
 858 000c 001093E5 		ldr	r1, [r3]	@ float
 859 0010 0C0094E5 		ldr	r0, [r4, #12]	@ float
 860 0014 FEFFFFEB 		bl	__aeabi_fsub
 861 0018 6C309FE5 		ldr	r3, .L77+8
 862 001c 0060A0E1 		mov	r6, r0
 863 0020 001093E5 		ldr	r1, [r3]	@ float
 864 0024 100094E5 		ldr	r0, [r4, #16]	@ float
 865 0028 FEFFFFEB 		bl	__aeabi_fsub
 866 002c 0610A0E1 		mov	r1, r6
 867 0030 0050A0E1 		mov	r5, r0
 868 0034 0600A0E1 		mov	r0, r6
 869 0038 FEFFFFEB 		bl	__aeabi_fmul
 870 003c 0510A0E1 		mov	r1, r5
 871 0040 0040A0E1 		mov	r4, r0
 872 0044 0500A0E1 		mov	r0, r5
 873 0048 FEFFFFEB 		bl	__aeabi_fmul
 874 004c 0010A0E1 		mov	r1, r0
 875 0050 0400A0E1 		mov	r0, r4
 876 0054 FEFFFFEB 		bl	__aeabi_fadd
 877 0058 30309FE5 		ldr	r3, .L77+12
 878 005c 30109FE5 		ldr	r1, .L77+16
 879 0060 000083E5 		str	r0, [r3]	@ float
 880 0064 FEFFFFEB 		bl	__aeabi_fcmpgt
 881 0068 28309FE5 		ldr	r3, .L77+20
 882 006c 000050E3 		cmp	r0, #0
 883 0070 0140A0E3 		mov	r4, #1
 884 0074 0040A001 		moveq	r4, r0
 885 0078 0040C3E5 		strb	r4, [r3]
 886 007c 7040BDE8 		ldmfd	sp!, {r4, r5, r6, lr}
 887 0080 1EFF2FE1 		bx	lr
 888              	.L78:
 889              		.align	2
 890              	.L77:
 891 0084 00000000 		.word	estimator_x
 892 0088 00000000 		.word	.LANCHOR7
 893 008c 00000000 		.word	estimator_y
 894 0090 00000000 		.word	dist2_to_home
 895 0094 4054094A 		.word	1242125376
 896 0098 00000000 		.word	too_far_from_home
 898              		.global	__aeabi_i2d
 899              		.global	__aeabi_d2uiz
 900              		.global	__aeabi_f2iz
 901              		.section	.text.nav_reset_reference,"ax",%progbits
 902              		.align	2
 903              		.global	nav_reset_reference
 905              	nav_reset_reference:
 906              		@ Function supports interworking.
 907              		@ args = 0, pretend = 0, frame = 32
 908              		@ frame_needed = 0, uses_anonymous_args = 0
 909 0000 F0402DE9 		stmfd	sp!, {r4, r5, r6, r7, lr}
 910 0004 F4609FE5 		ldr	r6, .L80
 911 0008 24D04DE2 		sub	sp, sp, #36
 912 000c 0C0096E5 		ldr	r0, [r6, #12]
 913 0010 FEFFFFEB 		bl	__aeabi_i2d
 914 0014 0020A0E3 		mov	r2, #0
 915 0018 E4309FE5 		ldr	r3, .L80+4
 916 001c FEFFFFEB 		bl	__aeabi_ddiv
 917 0020 E0209FE5 		ldr	r2, .L80+8
 918 0024 E0309FE5 		ldr	r3, .L80+12
 919 0028 0040A0E1 		mov	r4, r0
 920 002c 0150A0E1 		mov	r5, r1
 921 0030 FEFFFFEB 		bl	__aeabi_dmul
 922 0034 0020A0E3 		mov	r2, #0
 923 0038 D0309FE5 		ldr	r3, .L80+16
 924 003c FEFFFFEB 		bl	__aeabi_dadd
 925 0040 0020A0E3 		mov	r2, #0
 926 0044 C8309FE5 		ldr	r3, .L80+20
 927 0048 FEFFFFEB 		bl	__aeabi_ddiv
 928 004c 0020A0E3 		mov	r2, #0
 929 0050 C0309FE5 		ldr	r3, .L80+24
 930 0054 FEFFFFEB 		bl	__aeabi_dadd
 931 0058 FEFFFFEB 		bl	__aeabi_d2uiz
 932 005c B8309FE5 		ldr	r3, .L80+28
 933 0060 FF7000E2 		and	r7, r0, #255
 934 0064 0070C3E5 		strb	r7, [r3]
 935 0068 100096E5 		ldr	r0, [r6, #16]
 936 006c FEFFFFEB 		bl	__aeabi_i2d
 937 0070 0020A0E3 		mov	r2, #0
 938 0074 88309FE5 		ldr	r3, .L80+4
 939 0078 FEFFFFEB 		bl	__aeabi_ddiv
 940 007c FEFFFFEB 		bl	__aeabi_d2f
 941 0080 0510A0E1 		mov	r1, r5
 942 0084 08008DE5 		str	r0, [sp, #8]	@ float
 943 0088 0400A0E1 		mov	r0, r4
 944 008c FEFFFFEB 		bl	__aeabi_d2f
 945 0090 04108DE2 		add	r1, sp, #4
 946 0094 04008DE5 		str	r0, [sp, #4]	@ float
 947 0098 10008DE2 		add	r0, sp, #16
 948 009c 1C70CDE5 		strb	r7, [sp, #28]
 949 00a0 FEFFFFEB 		bl	utm_of_lla_f
 950 00a4 14009DE5 		ldr	r0, [sp, #20]	@ float
 951 00a8 FEFFFFEB 		bl	__aeabi_f2iz
 952 00ac 6C309FE5 		ldr	r3, .L80+32
 953 00b0 000083E5 		str	r0, [r3]
 954 00b4 10009DE5 		ldr	r0, [sp, #16]	@ float
 955 00b8 FEFFFFEB 		bl	__aeabi_f2iz
 956 00bc 60409FE5 		ldr	r4, .L80+36
 957 00c0 60309FE5 		ldr	r3, .L80+40
 958 00c4 002094E5 		ldr	r2, [r4]	@ float
 959 00c8 000083E5 		str	r0, [r3]
 960 00cc 58309FE5 		ldr	r3, .L80+44
 961 00d0 280096E5 		ldr	r0, [r6, #40]
 962 00d4 002083E5 		str	r2, [r3]	@ float
 963 00d8 FEFFFFEB 		bl	__aeabi_i2d
 964 00dc 0020A0E3 		mov	r2, #0
 965 00e0 48309FE5 		ldr	r3, .L80+48
 966 00e4 FEFFFFEB 		bl	__aeabi_ddiv
 967 00e8 FEFFFFEB 		bl	__aeabi_d2f
 968 00ec 000084E5 		str	r0, [r4]	@ float
 969 00f0 0000A0E3 		mov	r0, #0
 970 00f4 24D08DE2 		add	sp, sp, #36
 971              		@ sp needed
 972 00f8 F040BDE8 		ldmfd	sp!, {r4, r5, r6, r7, lr}
 973 00fc 1EFF2FE1 		bx	lr
 974              	.L81:
 975              		.align	2
 976              	.L80:
 977 0100 00000000 		.word	gps
 978 0104 D0126341 		.word	1097011920
 979 0108 F8C1631A 		.word	442745336
 980 010c DCA54C40 		.word	1078765020
 981 0110 00806640 		.word	1080459264
 982 0114 00001840 		.word	1075314688
 983 0118 0000F03F 		.word	1072693248
 984 011c 00000000 		.word	.LANCHOR8
 985 0120 00000000 		.word	.LANCHOR9
 986 0124 00000000 		.word	ground_alt
 987 0128 00000000 		.word	.LANCHOR10
 988 012c 00000000 		.word	.LANCHOR11
 989 0130 00408F40 		.word	1083129856
 991              		.section	.text.nav_update_waypoints_alt,"ax",%progbits
 992              		.align	2
 993              		.global	nav_update_waypoints_alt
 995              	nav_update_waypoints_alt:
 996              		@ Function supports interworking.
 997              		@ args = 0, pretend = 0, frame = 0
 998              		@ frame_needed = 0, uses_anonymous_args = 0
 999 0000 44309FE5 		ldr	r3, .L85
 1000 0004 000093E5 		ldr	r0, [r3]	@ float
 1001 0008 40309FE5 		ldr	r3, .L85+4
 1002 000c 70402DE9 		stmfd	sp!, {r4, r5, r6, lr}
 1003 0010 001093E5 		ldr	r1, [r3]	@ float
 1004 0014 FEFFFFEB 		bl	__aeabi_fsub
 1005 0018 34409FE5 		ldr	r4, .L85+8
 1006 001c 0060A0E1 		mov	r6, r0
 1007 0020 785084E2 		add	r5, r4, #120
 1008              	.L84:
 1009 0024 080094E5 		ldr	r0, [r4, #8]	@ float
 1010 0028 0610A0E1 		mov	r1, r6
 1011 002c FEFFFFEB 		bl	__aeabi_fadd
 1012 0030 0C4084E2 		add	r4, r4, #12
 1013 0034 040004E5 		str	r0, [r4, #-4]	@ float
 1014 0038 050054E1 		cmp	r4, r5
 1015 003c F8FFFF1A 		bne	.L84
 1016 0040 0000A0E3 		mov	r0, #0
 1017 0044 7040BDE8 		ldmfd	sp!, {r4, r5, r6, lr}
 1018 0048 1EFF2FE1 		bx	lr
 1019              	.L86:
 1020              		.align	2
 1021              	.L85:
 1022 004c 00000000 		.word	ground_alt
 1023 0050 00000000 		.word	.LANCHOR11
 1024 0054 00000000 		.word	.LANCHOR7
 1026              		.section	.text.common_nav_periodic_task_4Hz,"ax",%progbits
 1027              		.align	2
 1028              		.global	common_nav_periodic_task_4Hz
 1030              	common_nav_periodic_task_4Hz:
 1031              		@ Function supports interworking.
 1032              		@ args = 0, pretend = 0, frame = 0
 1033              		@ frame_needed = 0, uses_anonymous_args = 0
 1034              		@ link register save eliminated.
 1035 0000 3C309FE5 		ldr	r3, .L91
 1036 0004 B020D3E1 		ldrh	r2, [r3]
 1037 0008 012082E2 		add	r2, r2, #1
 1038 000c 0228A0E1 		mov	r2, r2, asl #16
 1039 0010 2228A0E1 		mov	r2, r2, lsr #16
 1040 0014 030052E3 		cmp	r2, #3
 1041 0018 0020A083 		movhi	r2, #0
 1042 001c B020C381 		strhih	r2, [r3]	@ movhi
 1043 0020 20309F85 		ldrhi	r3, .L91+4
 1044 0024 B020D381 		ldrhih	r2, [r3]
 1045 0028 01208282 		addhi	r2, r2, #1
 1046 002c B020C381 		strhih	r2, [r3]	@ movhi
 1047 0030 14309F85 		ldrhi	r3, .L91+8
 1048 0034 B020D381 		ldrhih	r2, [r3]
 1049 0038 01208282 		addhi	r2, r2, #1
 1050 003c B020C3E1 		strh	r2, [r3]	@ movhi
 1051 0040 1EFF2FE1 		bx	lr
 1052              	.L92:
 1053              		.align	2
 1054              	.L91:
 1055 0044 00000000 		.word	.LANCHOR12
 1056 0048 00000000 		.word	stage_time
 1057 004c 00000000 		.word	block_time
 1059              		.global	__aeabi_i2f
 1060              		.section	.text.nav_move_waypoint,"ax",%progbits
 1061              		.align	2
 1062              		.global	nav_move_waypoint
 1064              	nav_move_waypoint:
 1065              		@ Function supports interworking.
 1066              		@ args = 0, pretend = 0, frame = 0
 1067              		@ frame_needed = 0, uses_anonymous_args = 0
 1068 0000 090050E3 		cmp	r0, #9
 1069 0004 F84F2DE9 		stmfd	sp!, {r3, r4, r5, r6, r7, r8, r9, r10, fp, lr}
 1070 0008 00A0A0E1 		mov	r10, r0
 1071 000c 0150A0E1 		mov	r5, r1
 1072 0010 0240A0E1 		mov	r4, r2
 1073 0014 03B0A0E1 		mov	fp, r3
 1074 0018 3800008A 		bhi	.L93
 1075 001c E4309FE5 		ldr	r3, .L98
 1076 0020 000093E5 		ldr	r0, [r3]
 1077 0024 FEFFFFEB 		bl	__aeabi_i2f
 1078 0028 DC609FE5 		ldr	r6, .L98+4
 1079 002c 0C9096E5 		ldr	r9, [r6, #12]	@ float
 1080 0030 0010A0E1 		mov	r1, r0
 1081 0034 0500A0E1 		mov	r0, r5
 1082 0038 FEFFFFEB 		bl	__aeabi_fsub
 1083 003c 0910A0E1 		mov	r1, r9
 1084 0040 FEFFFFEB 		bl	__aeabi_fsub
 1085 0044 C4309FE5 		ldr	r3, .L98+8
 1086 0048 0080A0E1 		mov	r8, r0
 1087 004c 000093E5 		ldr	r0, [r3]
 1088 0050 FEFFFFEB 		bl	__aeabi_i2f
 1089 0054 0010A0E1 		mov	r1, r0
 1090 0058 0400A0E1 		mov	r0, r4
 1091 005c FEFFFFEB 		bl	__aeabi_fsub
 1092 0060 101096E5 		ldr	r1, [r6, #16]	@ float
 1093 0064 FEFFFFEB 		bl	__aeabi_fsub
 1094 0068 A4309FE5 		ldr	r3, .L98+12
 1095 006c 004093E5 		ldr	r4, [r3]	@ float
 1096 0070 0070A0E1 		mov	r7, r0
 1097 0074 0410A0E1 		mov	r1, r4
 1098 0078 0800A0E1 		mov	r0, r8
 1099 007c FEFFFFEB 		bl	__aeabi_fcmpgt
 1100 0080 000050E3 		cmp	r0, #0
 1101 0084 0450A011 		movne	r5, r4
 1102 0088 0500001A 		bne	.L95
 1103 008c 025184E2 		add	r5, r4, #-2147483648
 1104 0090 0510A0E1 		mov	r1, r5
 1105 0094 0800A0E1 		mov	r0, r8
 1106 0098 FEFFFFEB 		bl	__aeabi_fcmplt
 1107 009c 000050E3 		cmp	r0, #0
 1108 00a0 0850A001 		moveq	r5, r8
 1109              	.L95:
 1110 00a4 0700A0E1 		mov	r0, r7
 1111 00a8 0410A0E1 		mov	r1, r4
 1112 00ac FEFFFFEB 		bl	__aeabi_fcmpgt
 1113 00b0 000050E3 		cmp	r0, #0
 1114 00b4 0500001A 		bne	.L96
 1115 00b8 024184E2 		add	r4, r4, #-2147483648
 1116 00bc 0410A0E1 		mov	r1, r4
 1117 00c0 0700A0E1 		mov	r0, r7
 1118 00c4 FEFFFFEB 		bl	__aeabi_fcmplt
 1119 00c8 000050E3 		cmp	r0, #0
 1120 00cc 0740A001 		moveq	r4, r7
 1121              	.L96:
 1122 00d0 0C30A0E3 		mov	r3, #12
 1123 00d4 0510A0E1 		mov	r1, r5
 1124 00d8 0900A0E1 		mov	r0, r9
 1125 00dc 930A0AE0 		mul	r10, r3, r10
 1126 00e0 FEFFFFEB 		bl	__aeabi_fadd
 1127 00e4 0410A0E1 		mov	r1, r4
 1128 00e8 0A0086E7 		str	r0, [r6, r10]	@ float
 1129 00ec 100096E5 		ldr	r0, [r6, #16]	@ float
 1130 00f0 FEFFFFEB 		bl	__aeabi_fadd
 1131 00f4 0A7086E0 		add	r7, r6, r10
 1132 00f8 040087E5 		str	r0, [r7, #4]	@ float
 1133 00fc 08B087E5 		str	fp, [r7, #8]	@ float
 1134              	.L93:
 1135 0100 F84FBDE8 		ldmfd	sp!, {r3, r4, r5, r6, r7, r8, r9, r10, fp, lr}
 1136 0104 1EFF2FE1 		bx	lr
 1137              	.L99:
 1138              		.align	2
 1139              	.L98:
 1140 0108 00000000 		.word	.LANCHOR9
 1141 010c 00000000 		.word	.LANCHOR7
 1142 0110 00000000 		.word	.LANCHOR10
 1143 0114 00000000 		.word	.LANCHOR13
 1145              		.section	.text.nav_home,"ax",%progbits
 1146              		.align	2
 1147              		.global	nav_home
 1149              	nav_home:
 1150              		@ Function supports interworking.
 1151              		@ args = 0, pretend = 0, frame = 0
 1152              		@ frame_needed = 0, uses_anonymous_args = 0
 1153 0000 08402DE9 		stmfd	sp!, {r3, lr}
 1154 0004 58309FE5 		ldr	r3, .L101
 1155 0008 58209FE5 		ldr	r2, .L101+4
 1156 000c 0C0093E5 		ldr	r0, [r3, #12]	@ float
 1157 0010 101093E5 		ldr	r1, [r3, #16]	@ float
 1158 0014 FEFFFFEB 		bl	nav_circle_XY
 1159 0018 4C309FE5 		ldr	r3, .L101+8
 1160 001c 0020A0E3 		mov	r2, #0
 1161 0020 002083E5 		str	r2, [r3]	@ float
 1162 0024 44309FE5 		ldr	r3, .L101+12
 1163 0028 0320A0E3 		mov	r2, #3
 1164 002c 0020C3E5 		strb	r2, [r3]
 1165 0030 3C309FE5 		ldr	r3, .L101+16
 1166 0034 3C109FE5 		ldr	r1, .L101+20
 1167 0038 000093E5 		ldr	r0, [r3]	@ float
 1168 003c FEFFFFEB 		bl	__aeabi_fadd
 1169 0040 34309FE5 		ldr	r3, .L101+24
 1170 0044 000083E5 		str	r0, [r3]	@ float
 1171 0048 FEFFFFEB 		bl	compute_dist2_to_home
 1172 004c 2C309FE5 		ldr	r3, .L101+28
 1173 0050 002093E5 		ldr	r2, [r3]	@ float
 1174 0054 28309FE5 		ldr	r3, .L101+32
 1175 0058 002083E5 		str	r2, [r3]	@ float
 1176 005c 0840BDE8 		ldmfd	sp!, {r3, lr}
 1177 0060 FEFFFFEA 		b	nav_set_altitude
 1178              	.L102:
 1179              		.align	2
 1180              	.L101:
 1181 0064 00000000 		.word	.LANCHOR7
 1182 0068 0000C842 		.word	1120403456
 1183 006c 00000000 		.word	nav_pitch
 1184 0070 00000000 		.word	v_ctl_mode
 1185 0074 00000000 		.word	ground_alt
 1186 0078 00004842 		.word	1112014848
 1187 007c 00000000 		.word	.LANCHOR0
 1188 0080 00000000 		.word	dist2_to_home
 1189 0084 00000000 		.word	dist2_to_wp
 1191              		.section	.text.nav_init,"ax",%progbits
 1192              		.align	2
 1193              		.global	nav_init
 1195              	nav_init:
 1196              		@ Function supports interworking.
 1197              		@ args = 0, pretend = 0, frame = 0
 1198              		@ frame_needed = 0, uses_anonymous_args = 0
 1199              		@ link register save eliminated.
 1200 0000 48209FE5 		ldr	r2, .L104
 1201 0004 0030A0E3 		mov	r3, #0
 1202 0008 0030C2E5 		strb	r3, [r2]
 1203 000c 40209FE5 		ldr	r2, .L104+4
 1204 0010 0030C2E5 		strb	r3, [r2]
 1205 0014 3C209FE5 		ldr	r2, .L104+8
 1206 0018 0030A0E3 		mov	r3, #0
 1207 001c 003082E5 		str	r3, [r2]	@ float
 1208 0020 34209FE5 		ldr	r2, .L104+12
 1209 0024 003082E5 		str	r3, [r2]	@ float
 1210 0028 30209FE5 		ldr	r2, .L104+16
 1211 002c 30309FE5 		ldr	r3, .L104+20
 1212 0030 002083E5 		str	r2, [r3]	@ float
 1213 0034 2C209FE5 		ldr	r2, .L104+24
 1214 0038 2C309FE5 		ldr	r3, .L104+28
 1215 003c 002083E5 		str	r2, [r3]	@ float
 1216 0040 28309FE5 		ldr	r3, .L104+32
 1217 0044 0220A0E3 		mov	r2, #2
 1218 0048 002083E5 		str	r2, [r3]
 1219 004c 1EFF2FE1 		bx	lr
 1220              	.L105:
 1221              		.align	2
 1222              	.L104:
 1223 0050 00000000 		.word	nav_block
 1224 0054 00000000 		.word	nav_stage
 1225 0058 00000000 		.word	ground_alt
 1226 005c 00000000 		.word	nav_glide_pitch_trim
 1227 0060 0000C842 		.word	1120403456
 1228 0064 00000000 		.word	nav_radius
 1229 0068 00004843 		.word	1128792064
 1230 006c 00000000 		.word	nav_survey_shift
 1231 0070 00000000 		.word	nav_mode
 1233              		.section	.text.nav_without_gps,"ax",%progbits
 1234              		.align	2
 1235              		.global	nav_without_gps
 1237              	nav_without_gps:
 1238              		@ Function supports interworking.
 1239              		@ args = 0, pretend = 0, frame = 0
 1240              		@ frame_needed = 0, uses_anonymous_args = 0
 1241              		@ link register save eliminated.
 1242 0000 34309FE5 		ldr	r3, .L107
 1243 0004 0220A0E3 		mov	r2, #2
 1244 0008 0020C3E5 		strb	r2, [r3]
 1245 000c 2C309FE5 		ldr	r3, .L107+4
 1246 0010 0120A0E3 		mov	r2, #1
 1247 0014 0020C3E5 		strb	r2, [r3]
 1248 0018 24209FE5 		ldr	r2, .L107+8
 1249 001c 0030A0E3 		mov	r3, #0
 1250 0020 003082E5 		str	r3, [r2]	@ float
 1251 0024 1C209FE5 		ldr	r2, .L107+12
 1252 0028 003082E5 		str	r3, [r2]	@ float
 1253 002c 18309FE5 		ldr	r3, .L107+16
 1254 0030 0F2CA0E3 		mov	r2, #3840
 1255 0034 B020C3E1 		strh	r2, [r3]	@ movhi
 1256 0038 1EFF2FE1 		bx	lr
 1257              	.L108:
 1258              		.align	2
 1259              	.L107:
 1260 003c 00000000 		.word	lateral_mode
 1261 0040 00000000 		.word	v_ctl_mode
 1262 0044 00000000 		.word	h_ctl_roll_setpoint
 1263 0048 00000000 		.word	nav_pitch
 1264 004c 00000000 		.word	nav_throttle_setpoint
 1266              		.section	.text.nav_eight_init,"ax",%progbits
 1267              		.align	2
 1268              		.global	nav_eight_init
 1270              	nav_eight_init:
 1271              		@ Function supports interworking.
 1272              		@ args = 0, pretend = 0, frame = 0
 1273              		@ frame_needed = 0, uses_anonymous_args = 0
 1274              		@ link register save eliminated.
 1275 0000 08309FE5 		ldr	r3, .L110
 1276 0004 0520A0E3 		mov	r2, #5
 1277 0008 0020C3E5 		strb	r2, [r3]
 1278 000c 1EFF2FE1 		bx	lr
 1279              	.L111:
 1280              		.align	2
 1281              	.L110:
 1282 0010 00000000 		.word	.LANCHOR14
 1284              		.global	__aeabi_fcmpge
 1285              		.section	.text.nav_eight,"ax",%progbits
 1286              		.align	2
 1287              		.global	nav_eight
 1289              	nav_eight:
 1290              		@ Function supports interworking.
 1291              		@ args = 0, pretend = 0, frame = 40
 1292              		@ frame_needed = 0, uses_anonymous_args = 0
 1293 0000 F04F2DE9 		stmfd	sp!, {r4, r5, r6, r7, r8, r9, r10, fp, lr}
 1294 0004 34D04DE2 		sub	sp, sp, #52
 1295 0008 0291C2E3 		bic	r9, r2, #-2147483648
 1296 000c 18108DE5 		str	r1, [sp, #24]
 1297 0010 0030A0E1 		mov	r3, r0
 1298 0014 0280A0E1 		mov	r8, r2
 1299 0018 0C20A0E3 		mov	r2, #12
 1300 001c 920303E0 		mul	r3, r2, r3
 1301 0020 10008DE5 		str	r0, [sp, #16]
 1302 0024 18009DE5 		ldr	r0, [sp, #24]
 1303 0028 900202E0 		mul	r2, r0, r2
 1304 002c 84579FE5 		ldr	r5, .L186
 1305 0030 034085E0 		add	r4, r5, r3
 1306 0034 081094E5 		ldr	r1, [r4, #8]	@ float
 1307 0038 027085E0 		add	r7, r5, r2
 1308 003c 020095E7 		ldr	r0, [r5, r2]	@ float
 1309 0040 081087E5 		str	r1, [r7, #8]	@ float
 1310 0044 031095E7 		ldr	r1, [r5, r3]	@ float
 1311 0048 FEFFFFEB 		bl	__aeabi_fsub
 1312 004c 041094E5 		ldr	r1, [r4, #4]	@ float
 1313 0050 0060A0E1 		mov	r6, r0
 1314 0054 040097E5 		ldr	r0, [r7, #4]	@ float
 1315 0058 FEFFFFEB 		bl	__aeabi_fsub
 1316 005c 0610A0E1 		mov	r1, r6
 1317 0060 0040A0E1 		mov	r4, r0
 1318 0064 0600A0E1 		mov	r0, r6
 1319 0068 FEFFFFEB 		bl	__aeabi_fmul
 1320 006c 0410A0E1 		mov	r1, r4
 1321 0070 0070A0E1 		mov	r7, r0
 1322 0074 0400A0E1 		mov	r0, r4
 1323 0078 FEFFFFEB 		bl	__aeabi_fmul
 1324 007c 0010A0E1 		mov	r1, r0
 1325 0080 0700A0E1 		mov	r0, r7
 1326 0084 FEFFFFEB 		bl	__aeabi_fadd
 1327 0088 FEFFFFEB 		bl	__aeabi_f2d
 1328 008c FEFFFFEB 		bl	sqrt
 1329 0090 FEFFFFEB 		bl	__aeabi_d2f
 1330 0094 FE15A0E3 		mov	r1, #1065353216
 1331 0098 0070A0E1 		mov	r7, r0
 1332 009c FEFFFFEB 		bl	__aeabi_fcmpgt
 1333 00a0 000050E3 		cmp	r0, #0
 1334 00a4 FE75A003 		moveq	r7, #1065353216
 1335 00a8 0600A0E1 		mov	r0, r6
 1336 00ac 0710A0E1 		mov	r1, r7
 1337 00b0 FEFFFFEB 		bl	__aeabi_fdiv
 1338 00b4 0710A0E1 		mov	r1, r7
 1339 00b8 0060A0E1 		mov	r6, r0
 1340 00bc 0400A0E1 		mov	r0, r4
 1341 00c0 FEFFFFEB 		bl	__aeabi_fdiv
 1342 00c4 0910A0E1 		mov	r1, r9
 1343 00c8 0040A0E1 		mov	r4, r0
 1344 00cc 0900A0E1 		mov	r0, r9
 1345 00d0 FEFFFFEB 		bl	__aeabi_fadd
 1346 00d4 0090A0E1 		mov	r9, r0
 1347 00d8 0910A0E1 		mov	r1, r9
 1348 00dc 0700A0E1 		mov	r0, r7
 1349 00e0 FEFFFFEB 		bl	__aeabi_fcmpgt
 1350 00e4 000050E3 		cmp	r0, #0
 1351 00e8 1700000A 		beq	.L114
 1352 00ec 10109DE5 		ldr	r1, [sp, #16]
 1353 00f0 18709DE5 		ldr	r7, [sp, #24]
 1354 00f4 0CA0A0E3 		mov	r10, #12
 1355 00f8 9A0707E0 		mul	r7, r10, r7
 1356 00fc 910A0AE0 		mul	r10, r1, r10
 1357 0100 0900A0E1 		mov	r0, r9
 1358 0104 0A3085E0 		add	r3, r5, r10
 1359 0108 0610A0E1 		mov	r1, r6
 1360 010c 0C308DE5 		str	r3, [sp, #12]
 1361 0110 FEFFFFEB 		bl	__aeabi_fmul
 1362 0114 0010A0E1 		mov	r1, r0
 1363 0118 0A0095E7 		ldr	r0, [r5, r10]	@ float
 1364 011c FEFFFFEB 		bl	__aeabi_fadd
 1365 0120 0410A0E1 		mov	r1, r4
 1366 0124 070085E7 		str	r0, [r5, r7]	@ float
 1367 0128 0900A0E1 		mov	r0, r9
 1368 012c FEFFFFEB 		bl	__aeabi_fmul
 1369 0130 0C309DE5 		ldr	r3, [sp, #12]
 1370 0134 0010A0E1 		mov	r1, r0
 1371 0138 040093E5 		ldr	r0, [r3, #4]	@ float
 1372 013c FEFFFFEB 		bl	__aeabi_fadd
 1373 0140 07B085E0 		add	fp, r5, r7
 1374 0144 04008BE5 		str	r0, [fp, #4]	@ float
 1375 0148 0970A0E1 		mov	r7, r9
 1376              	.L114:
 1377 014c 0700A0E1 		mov	r0, r7
 1378 0150 0610A0E1 		mov	r1, r6
 1379 0154 FEFFFFEB 		bl	__aeabi_fmul
 1380 0158 10A09DE5 		ldr	r10, [sp, #16]
 1381 015c 0C90A0E3 		mov	r9, #12
 1382 0160 990A0AE0 		mul	r10, r9, r10
 1383 0164 0010A0E1 		mov	r1, r0
 1384 0168 0A0095E7 		ldr	r0, [r5, r10]	@ float
 1385 016c FEFFFFEB 		bl	__aeabi_fsub
 1386 0170 0410A0E1 		mov	r1, r4
 1387 0174 1C008DE5 		str	r0, [sp, #28]	@ float
 1388 0178 0700A0E1 		mov	r0, r7
 1389 017c FEFFFFEB 		bl	__aeabi_fmul
 1390 0180 0AB085E0 		add	fp, r5, r10
 1391 0184 0010A0E1 		mov	r1, r0
 1392 0188 04009BE5 		ldr	r0, [fp, #4]	@ float
 1393 018c FEFFFFEB 		bl	__aeabi_fsub
 1394 0190 18309DE5 		ldr	r3, [sp, #24]
 1395 0194 021184E2 		add	r1, r4, #-2147483648
 1396 0198 20008DE5 		str	r0, [sp, #32]	@ float
 1397 019c 0800A0E1 		mov	r0, r8
 1398 01a0 930909E0 		mul	r9, r3, r9
 1399 01a4 FEFFFFEB 		bl	__aeabi_fmul
 1400 01a8 097085E0 		add	r7, r5, r9
 1401 01ac 099095E7 		ldr	r9, [r5, r9]	@ float
 1402 01b0 0030A0E1 		mov	r3, r0
 1403 01b4 0310A0E1 		mov	r1, r3
 1404 01b8 0900A0E1 		mov	r0, r9
 1405 01bc 0C308DE5 		str	r3, [sp, #12]
 1406 01c0 FEFFFFEB 		bl	__aeabi_fadd
 1407 01c4 0610A0E1 		mov	r1, r6
 1408 01c8 24008DE5 		str	r0, [sp, #36]	@ float
 1409 01cc 0800A0E1 		mov	r0, r8
 1410 01d0 FEFFFFEB 		bl	__aeabi_fmul
 1411 01d4 047097E5 		ldr	r7, [r7, #4]	@ float
 1412 01d8 0050A0E1 		mov	r5, r0
 1413 01dc 0510A0E1 		mov	r1, r5
 1414 01e0 0700A0E1 		mov	r0, r7
 1415 01e4 FEFFFFEB 		bl	__aeabi_fadd
 1416 01e8 0410A0E1 		mov	r1, r4
 1417 01ec 28008DE5 		str	r0, [sp, #40]	@ float
 1418 01f0 0800A0E1 		mov	r0, r8
 1419 01f4 FEFFFFEB 		bl	__aeabi_fmul
 1420 01f8 00A0A0E1 		mov	r10, r0
 1421 01fc 0A10A0E1 		mov	r1, r10
 1422 0200 0900A0E1 		mov	r0, r9
 1423 0204 FEFFFFEB 		bl	__aeabi_fadd
 1424 0208 0510A0E1 		mov	r1, r5
 1425 020c 14008DE5 		str	r0, [sp, #20]	@ float
 1426 0210 0700A0E1 		mov	r0, r7
 1427 0214 FEFFFFEB 		bl	__aeabi_fsub
 1428 0218 0C309DE5 		ldr	r3, [sp, #12]
 1429 021c 00B0A0E1 		mov	fp, r0
 1430 0220 0310A0E1 		mov	r1, r3
 1431 0224 1C009DE5 		ldr	r0, [sp, #28]	@ float
 1432 0228 FEFFFFEB 		bl	__aeabi_fadd
 1433 022c 0510A0E1 		mov	r1, r5
 1434 0230 2C008DE5 		str	r0, [sp, #44]	@ float
 1435 0234 20009DE5 		ldr	r0, [sp, #32]	@ float
 1436 0238 FEFFFFEB 		bl	__aeabi_fadd
 1437 023c 0A10A0E1 		mov	r1, r10
 1438 0240 0070A0E1 		mov	r7, r0
 1439 0244 1C009DE5 		ldr	r0, [sp, #28]	@ float
 1440 0248 FEFFFFEB 		bl	__aeabi_fadd
 1441 024c 0510A0E1 		mov	r1, r5
 1442 0250 00A0A0E1 		mov	r10, r0
 1443 0254 20009DE5 		ldr	r0, [sp, #32]	@ float
 1444 0258 FEFFFFEB 		bl	__aeabi_fsub
 1445 025c 0090A0E1 		mov	r9, r0
 1446 0260 0400A0E1 		mov	r0, r4
 1447 0264 FEFFFFEB 		bl	__aeabi_f2d
 1448 0268 0040A0E1 		mov	r4, r0
 1449 026c 0600A0E1 		mov	r0, r6
 1450 0270 0150A0E1 		mov	r5, r1
 1451 0274 FEFFFFEB 		bl	__aeabi_f2d
 1452 0278 0020A0E1 		mov	r2, r0
 1453 027c 0130A0E1 		mov	r3, r1
 1454 0280 0400A0E1 		mov	r0, r4
 1455 0284 0510A0E1 		mov	r1, r5
 1456 0288 FEFFFFEB 		bl	atan2
 1457 028c 0020A0E1 		mov	r2, r0
 1458 0290 0130A0E1 		mov	r3, r1
 1459 0294 20059FE5 		ldr	r0, .L186+4
 1460 0298 20159FE5 		ldr	r1, .L186+8
 1461 029c FEFFFFEB 		bl	__aeabi_dsub
 1462 02a0 FEFFFFEB 		bl	__aeabi_d2f
 1463 02a4 0010A0E3 		mov	r1, #0
 1464 02a8 0050A0E1 		mov	r5, r0
 1465 02ac 0800A0E1 		mov	r0, r8
 1466 02b0 FEFFFFEB 		bl	__aeabi_fcmplt
 1467 02b4 000050E3 		cmp	r0, #0
 1468 02b8 0600000A 		beq	.L116
 1469 02bc 0500A0E1 		mov	r0, r5
 1470 02c0 FEFFFFEB 		bl	__aeabi_f2d
 1471 02c4 F0249FE5 		ldr	r2, .L186+4
 1472 02c8 F0349FE5 		ldr	r3, .L186+8
 1473 02cc FEFFFFEB 		bl	__aeabi_dadd
 1474 02d0 FEFFFFEB 		bl	__aeabi_d2f
 1475 02d4 0050A0E1 		mov	r5, r0
 1476              	.L116:
 1477 02d8 E4449FE5 		ldr	r4, .L186+12
 1478 02dc 0030D4E5 		ldrb	r3, [r4]	@ zero_extendqisi2
 1479 02e0 050053E3 		cmp	r3, #5
 1480 02e4 03F19F97 		ldrls	pc, [pc, r3, asl #2]
 1481 02e8 2F0100EA 		b	.L112
 1482              	.L120:
 1483 02ec C0040000 		.word	.L119
 1484 02f0 14050000 		.word	.L121
 1485 02f4 54050000 		.word	.L122
 1486 02f8 FC060000 		.word	.L123
 1487 02fc 50070000 		.word	.L124
 1488 0300 04030000 		.word	.L125
 1489              	.L125:
 1490 0304 18009DE5 		ldr	r0, [sp, #24]
 1491 0308 0C30A0E3 		mov	r3, #12
 1492 030c 900303E0 		mul	r3, r0, r3
 1493 0310 A0249FE5 		ldr	r2, .L186
 1494 0314 031082E0 		add	r1, r2, r3
 1495 0318 030092E7 		ldr	r0, [r2, r3]	@ float
 1496 031c 041091E5 		ldr	r1, [r1, #4]	@ float
 1497 0320 0820A0E1 		mov	r2, r8
 1498 0324 FEFFFFEB 		bl	nav_circle_XY
 1499 0328 0500A0E1 		mov	r0, r5
 1500 032c FEFFFFEB 		bl	__aeabi_f2d
 1501 0330 90249FE5 		ldr	r2, .L186+16
 1502 0334 90349FE5 		ldr	r3, .L186+20
 1503 0338 FEFFFFEB 		bl	__aeabi_dmul
 1504 033c 0020A0E3 		mov	r2, #0
 1505 0340 88349FE5 		ldr	r3, .L186+24
 1506 0344 FEFFFFEB 		bl	__aeabi_dsub
 1507 0348 84349FE5 		ldr	r3, .L186+28
 1508 034c 0060A0E1 		mov	r6, r0
 1509 0350 000093E5 		ldr	r0, [r3]	@ float
 1510 0354 0170A0E1 		mov	r7, r1
 1511 0358 FEFFFFEB 		bl	__aeabi_f2d
 1512 035c 0020A0E1 		mov	r2, r0
 1513 0360 0130A0E1 		mov	r3, r1
 1514 0364 50049FE5 		ldr	r0, .L186+4
 1515 0368 68149FE5 		ldr	r1, .L186+32
 1516 036c FEFFFFEB 		bl	__aeabi_dsub
 1517 0370 50249FE5 		ldr	r2, .L186+16
 1518 0374 50349FE5 		ldr	r3, .L186+20
 1519 0378 FEFFFFEB 		bl	__aeabi_dmul
 1520 037c FEFFFFEB 		bl	__aeabi_d2f
 1521 0380 0080A0E3 		mov	r8, #0
 1522 0384 0050A0E1 		mov	r5, r0
 1523              	.L126:
 1524 0388 0500A0E1 		mov	r0, r5
 1525 038c 0010A0E3 		mov	r1, #0
 1526 0390 FEFFFFEB 		bl	__aeabi_fcmplt
 1527 0394 000050E3 		cmp	r0, #0
 1528 0398 FF9008E2 		and	r9, r8, #255
 1529 039c 1000000A 		beq	.L128
 1530 03a0 018088E2 		add	r8, r8, #1
 1531 03a4 010C58E3 		cmp	r8, #256
 1532 03a8 0400000A 		beq	.L180
 1533 03ac 0500A0E1 		mov	r0, r5
 1534 03b0 24149FE5 		ldr	r1, .L186+36
 1535 03b4 FEFFFFEB 		bl	__aeabi_fadd
 1536 03b8 0050A0E1 		mov	r5, r0
 1537 03bc F1FFFFEA 		b	.L126
 1538              	.L180:
 1539 03c0 0090A0E3 		mov	r9, #0
 1540 03c4 060000EA 		b	.L128
 1541              	.L131:
 1542 03c8 019089E2 		add	r9, r9, #1
 1543 03cc FF9019E2 		ands	r9, r9, #255
 1544 03d0 0800000A 		beq	.L134
 1545 03d4 0500A0E1 		mov	r0, r5
 1546 03d8 FC139FE5 		ldr	r1, .L186+36
 1547 03dc FEFFFFEB 		bl	__aeabi_fsub
 1548 03e0 0050A0E1 		mov	r5, r0
 1549              	.L128:
 1550 03e4 0500A0E1 		mov	r0, r5
 1551 03e8 EC139FE5 		ldr	r1, .L186+36
 1552 03ec FEFFFFEB 		bl	__aeabi_fcmpge
 1553 03f0 000050E3 		cmp	r0, #0
 1554 03f4 F3FFFF1A 		bne	.L131
 1555              	.L134:
 1556 03f8 0500A0E1 		mov	r0, r5
 1557 03fc FEFFFFEB 		bl	__aeabi_f2d
 1558 0400 0020A0E1 		mov	r2, r0
 1559 0404 0130A0E1 		mov	r3, r1
 1560 0408 0600A0E1 		mov	r0, r6
 1561 040c 0710A0E1 		mov	r1, r7
 1562 0410 FEFFFFEB 		bl	__aeabi_dsub
 1563 0414 FEFFFFEB 		bl	__aeabi_d2f
 1564 0418 0060A0E3 		mov	r6, #0
 1565 041c 0050A0E1 		mov	r5, r0
 1566 0420 060000EA 		b	.L132
 1567              	.L182:
 1568 0424 016086E2 		add	r6, r6, #1
 1569 0428 010C56E3 		cmp	r6, #256
 1570 042c 0A00000A 		beq	.L181
 1571 0430 0500A0E1 		mov	r0, r5
 1572 0434 A0139FE5 		ldr	r1, .L186+36
 1573 0438 FEFFFFEB 		bl	__aeabi_fadd
 1574 043c 0050A0E1 		mov	r5, r0
 1575              	.L132:
 1576 0440 0500A0E1 		mov	r0, r5
 1577 0444 0010A0E3 		mov	r1, #0
 1578 0448 FEFFFFEB 		bl	__aeabi_fcmplt
 1579 044c 000050E3 		cmp	r0, #0
 1580 0450 FF7006E2 		and	r7, r6, #255
 1581 0454 F2FFFF1A 		bne	.L182
 1582 0458 080000EA 		b	.L136
 1583              	.L181:
 1584 045c 0070A0E3 		mov	r7, #0
 1585 0460 060000EA 		b	.L136
 1586              	.L139:
 1587 0464 017087E2 		add	r7, r7, #1
 1588 0468 FF7017E2 		ands	r7, r7, #255
 1589 046c 0800000A 		beq	.L143
 1590 0470 0500A0E1 		mov	r0, r5
 1591 0474 60139FE5 		ldr	r1, .L186+36
 1592 0478 FEFFFFEB 		bl	__aeabi_fsub
 1593 047c 0050A0E1 		mov	r5, r0
 1594              	.L136:
 1595 0480 0500A0E1 		mov	r0, r5
 1596 0484 50139FE5 		ldr	r1, .L186+36
 1597 0488 FEFFFFEB 		bl	__aeabi_fcmpge
 1598 048c 000050E3 		cmp	r0, #0
 1599 0490 F3FFFF1A 		bne	.L139
 1600              	.L143:
 1601 0494 0500A0E1 		mov	r0, r5
 1602 0498 40139FE5 		ldr	r1, .L186+40
 1603 049c FEFFFFEB 		bl	__aeabi_fcmpgt
 1604 04a0 000050E3 		cmp	r0, #0
 1605 04a4 B900001A 		bne	.L140
 1606 04a8 0500A0E1 		mov	r0, r5
 1607 04ac 30139FE5 		ldr	r1, .L186+44
 1608 04b0 FEFFFFEB 		bl	__aeabi_fcmplt
 1609 04b4 000050E3 		cmp	r0, #0
 1610 04b8 B400001A 		bne	.L140
 1611 04bc BA0000EA 		b	.L112
 1612              	.L119:
 1613 04c0 14009DE5 		ldr	r0, [sp, #20]	@ float
 1614 04c4 0B10A0E1 		mov	r1, fp
 1615 04c8 2C209DE5 		ldr	r2, [sp, #44]	@ float
 1616 04cc 0730A0E1 		mov	r3, r7
 1617 04d0 FEFFFFEB 		bl	nav_route_xy
 1618 04d4 10109DE5 		ldr	r1, [sp, #16]
 1619 04d8 0C30A0E3 		mov	r3, #12
 1620 04dc 910303E0 		mul	r3, r1, r3
 1621 04e0 D0229FE5 		ldr	r2, .L186
 1622 04e4 0000A0E3 		mov	r0, #0
 1623 04e8 00008DE5 		str	r0, [sp]	@ float
 1624 04ec 031082E0 		add	r1, r2, r3
 1625 04f0 030092E7 		ldr	r0, [r2, r3]	@ float
 1626 04f4 041091E5 		ldr	r1, [r1, #4]	@ float
 1627 04f8 0B30A0E1 		mov	r3, fp
 1628 04fc 14209DE5 		ldr	r2, [sp, #20]	@ float
 1629 0500 FEFFFFEB 		bl	nav_approaching_xy
 1630 0504 000050E3 		cmp	r0, #0
 1631 0508 0130A013 		movne	r3, #1
 1632 050c A600000A 		beq	.L112
 1633 0510 A10000EA 		b	.L179
 1634              	.L121:
 1635 0514 14009DE5 		ldr	r0, [sp, #20]	@ float
 1636 0518 0B10A0E1 		mov	r1, fp
 1637 051c 2C209DE5 		ldr	r2, [sp, #44]	@ float
 1638 0520 0730A0E1 		mov	r3, r7
 1639 0524 FEFFFFEB 		bl	nav_route_xy
 1640 0528 B8329FE5 		ldr	r3, .L186+48
 1641 052c 2C009DE5 		ldr	r0, [sp, #44]	@ float
 1642 0530 00308DE5 		str	r3, [sp]	@ float
 1643 0534 0710A0E1 		mov	r1, r7
 1644 0538 0B30A0E1 		mov	r3, fp
 1645 053c 14209DE5 		ldr	r2, [sp, #20]	@ float
 1646 0540 FEFFFFEB 		bl	nav_approaching_xy
 1647 0544 000050E3 		cmp	r0, #0
 1648 0548 0230A013 		movne	r3, #2
 1649 054c 9600000A 		beq	.L112
 1650 0550 910000EA 		b	.L179
 1651              	.L122:
 1652 0554 022188E2 		add	r2, r8, #-2147483648
 1653 0558 1C009DE5 		ldr	r0, [sp, #28]	@ float
 1654 055c 20109DE5 		ldr	r1, [sp, #32]	@ float
 1655 0560 FEFFFFEB 		bl	nav_circle_XY
 1656 0564 0500A0E1 		mov	r0, r5
 1657 0568 FEFFFFEB 		bl	__aeabi_f2d
 1658 056c 54229FE5 		ldr	r2, .L186+16
 1659 0570 54329FE5 		ldr	r3, .L186+20
 1660 0574 FEFFFFEB 		bl	__aeabi_dmul
 1661 0578 0020A0E3 		mov	r2, #0
 1662 057c 4C329FE5 		ldr	r3, .L186+24
 1663 0580 FEFFFFEB 		bl	__aeabi_dadd
 1664 0584 48329FE5 		ldr	r3, .L186+28
 1665 0588 0060A0E1 		mov	r6, r0
 1666 058c 000093E5 		ldr	r0, [r3]	@ float
 1667 0590 0170A0E1 		mov	r7, r1
 1668 0594 FEFFFFEB 		bl	__aeabi_f2d
 1669 0598 0020A0E1 		mov	r2, r0
 1670 059c 0130A0E1 		mov	r3, r1
 1671 05a0 14029FE5 		ldr	r0, .L186+4
 1672 05a4 2C129FE5 		ldr	r1, .L186+32
 1673 05a8 FEFFFFEB 		bl	__aeabi_dsub
 1674 05ac 14229FE5 		ldr	r2, .L186+16
 1675 05b0 14329FE5 		ldr	r3, .L186+20
 1676 05b4 FEFFFFEB 		bl	__aeabi_dmul
 1677 05b8 FEFFFFEB 		bl	__aeabi_d2f
 1678 05bc 0080A0E3 		mov	r8, #0
 1679 05c0 0050A0E1 		mov	r5, r0
 1680              	.L145:
 1681 05c4 0500A0E1 		mov	r0, r5
 1682 05c8 0010A0E3 		mov	r1, #0
 1683 05cc FEFFFFEB 		bl	__aeabi_fcmplt
 1684 05d0 000050E3 		cmp	r0, #0
 1685 05d4 FF9008E2 		and	r9, r8, #255
 1686 05d8 1000000A 		beq	.L147
 1687 05dc 018088E2 		add	r8, r8, #1
 1688 05e0 010C58E3 		cmp	r8, #256
 1689 05e4 0400000A 		beq	.L183
 1690 05e8 0500A0E1 		mov	r0, r5
 1691 05ec E8119FE5 		ldr	r1, .L186+36
 1692 05f0 FEFFFFEB 		bl	__aeabi_fadd
 1693 05f4 0050A0E1 		mov	r5, r0
 1694 05f8 F1FFFFEA 		b	.L145
 1695              	.L183:
 1696 05fc 0090A0E3 		mov	r9, #0
 1697 0600 060000EA 		b	.L147
 1698              	.L150:
 1699 0604 019089E2 		add	r9, r9, #1
 1700 0608 FF9019E2 		ands	r9, r9, #255
 1701 060c 0800000A 		beq	.L153
 1702 0610 0500A0E1 		mov	r0, r5
 1703 0614 C0119FE5 		ldr	r1, .L186+36
 1704 0618 FEFFFFEB 		bl	__aeabi_fsub
 1705 061c 0050A0E1 		mov	r5, r0
 1706              	.L147:
 1707 0620 0500A0E1 		mov	r0, r5
 1708 0624 B0119FE5 		ldr	r1, .L186+36
 1709 0628 FEFFFFEB 		bl	__aeabi_fcmpge
 1710 062c 000050E3 		cmp	r0, #0
 1711 0630 F3FFFF1A 		bne	.L150
 1712              	.L153:
 1713 0634 0500A0E1 		mov	r0, r5
 1714 0638 FEFFFFEB 		bl	__aeabi_f2d
 1715 063c 0020A0E1 		mov	r2, r0
 1716 0640 0130A0E1 		mov	r3, r1
 1717 0644 0600A0E1 		mov	r0, r6
 1718 0648 0710A0E1 		mov	r1, r7
 1719 064c FEFFFFEB 		bl	__aeabi_dsub
 1720 0650 FEFFFFEB 		bl	__aeabi_d2f
 1721 0654 0060A0E3 		mov	r6, #0
 1722 0658 0050A0E1 		mov	r5, r0
 1723 065c 060000EA 		b	.L151
 1724              	.L185:
 1725 0660 016086E2 		add	r6, r6, #1
 1726 0664 010C56E3 		cmp	r6, #256
 1727 0668 0A00000A 		beq	.L184
 1728 066c 0500A0E1 		mov	r0, r5
 1729 0670 64119FE5 		ldr	r1, .L186+36
 1730 0674 FEFFFFEB 		bl	__aeabi_fadd
 1731 0678 0050A0E1 		mov	r5, r0
 1732              	.L151:
 1733 067c 0500A0E1 		mov	r0, r5
 1734 0680 0010A0E3 		mov	r1, #0
 1735 0684 FEFFFFEB 		bl	__aeabi_fcmplt
 1736 0688 000050E3 		cmp	r0, #0
 1737 068c FF7006E2 		and	r7, r6, #255
 1738 0690 F2FFFF1A 		bne	.L185
 1739 0694 080000EA 		b	.L155
 1740              	.L184:
 1741 0698 0070A0E3 		mov	r7, #0
 1742 069c 060000EA 		b	.L155
 1743              	.L158:
 1744 06a0 017087E2 		add	r7, r7, #1
 1745 06a4 FF7017E2 		ands	r7, r7, #255
 1746 06a8 0800000A 		beq	.L162
 1747 06ac 0500A0E1 		mov	r0, r5
 1748 06b0 24119FE5 		ldr	r1, .L186+36
 1749 06b4 FEFFFFEB 		bl	__aeabi_fsub
 1750 06b8 0050A0E1 		mov	r5, r0
 1751              	.L155:
 1752 06bc 0500A0E1 		mov	r0, r5
 1753 06c0 14119FE5 		ldr	r1, .L186+36
 1754 06c4 FEFFFFEB 		bl	__aeabi_fcmpge
 1755 06c8 000050E3 		cmp	r0, #0
 1756 06cc F3FFFF1A 		bne	.L158
 1757              	.L162:
 1758 06d0 0500A0E1 		mov	r0, r5
 1759 06d4 04119FE5 		ldr	r1, .L186+40
 1760 06d8 FEFFFFEB 		bl	__aeabi_fcmpgt
 1761 06dc 000050E3 		cmp	r0, #0
 1762 06e0 2C00001A 		bne	.L159
 1763 06e4 0500A0E1 		mov	r0, r5
 1764 06e8 F4109FE5 		ldr	r1, .L186+44
 1765 06ec FEFFFFEB 		bl	__aeabi_fcmplt
 1766 06f0 000050E3 		cmp	r0, #0
 1767 06f4 2700001A 		bne	.L159
 1768 06f8 2B0000EA 		b	.L112
 1769              	.L123:
 1770 06fc 0A00A0E1 		mov	r0, r10
 1771 0700 0910A0E1 		mov	r1, r9
 1772 0704 24209DE5 		ldr	r2, [sp, #36]	@ float
 1773 0708 28309DE5 		ldr	r3, [sp, #40]	@ float
 1774 070c FEFFFFEB 		bl	nav_route_xy
 1775 0710 10009DE5 		ldr	r0, [sp, #16]
 1776 0714 0C30A0E3 		mov	r3, #12
 1777 0718 900303E0 		mul	r3, r0, r3
 1778 071c 94209FE5 		ldr	r2, .L186
 1779 0720 0000A0E3 		mov	r0, #0
 1780 0724 00008DE5 		str	r0, [sp]	@ float
 1781 0728 031082E0 		add	r1, r2, r3
 1782 072c 030092E7 		ldr	r0, [r2, r3]	@ float
 1783 0730 041091E5 		ldr	r1, [r1, #4]	@ float
 1784 0734 0930A0E1 		mov	r3, r9
 1785 0738 0A20A0E1 		mov	r2, r10
 1786 073c FEFFFFEB 		bl	nav_approaching_xy
 1787 0740 000050E3 		cmp	r0, #0
 1788 0744 0430A013 		movne	r3, #4
 1789 0748 1700000A 		beq	.L112
 1790 074c 120000EA 		b	.L179
 1791              	.L124:
 1792 0750 0A00A0E1 		mov	r0, r10
 1793 0754 0910A0E1 		mov	r1, r9
 1794 0758 24209DE5 		ldr	r2, [sp, #36]	@ float
 1795 075c 28309DE5 		ldr	r3, [sp, #40]	@ float
 1796 0760 FEFFFFEB 		bl	nav_route_xy
 1797 0764 7C309FE5 		ldr	r3, .L186+48
 1798 0768 24009DE5 		ldr	r0, [sp, #36]	@ float
 1799 076c 00308DE5 		str	r3, [sp]	@ float
 1800 0770 28109DE5 		ldr	r1, [sp, #40]	@ float
 1801 0774 0930A0E1 		mov	r3, r9
 1802 0778 0A20A0E1 		mov	r2, r10
 1803 077c FEFFFFEB 		bl	nav_approaching_xy
 1804 0780 000050E3 		cmp	r0, #0
 1805 0784 0530A013 		movne	r3, #5
 1806 0788 0700000A 		beq	.L112
 1807 078c 020000EA 		b	.L179
 1808              	.L140:
 1809 0790 0030A0E3 		mov	r3, #0
 1810 0794 000000EA 		b	.L179
 1811              	.L159:
 1812 0798 0330A0E3 		mov	r3, #3
 1813              	.L179:
 1814 079c 0030C4E5 		strb	r3, [r4]
 1815 07a0 34D08DE2 		add	sp, sp, #52
 1816              		@ sp needed
 1817 07a4 F04FBDE8 		ldmfd	sp!, {r4, r5, r6, r7, r8, r9, r10, fp, lr}
 1818 07a8 FEFFFFEA 		b	nav_init_stage
 1819              	.L112:
 1820 07ac 34D08DE2 		add	sp, sp, #52
 1821              		@ sp needed
 1822 07b0 F04FBDE8 		ldmfd	sp!, {r4, r5, r6, r7, r8, r9, r10, fp, lr}
 1823 07b4 1EFF2FE1 		bx	lr
 1824              	.L187:
 1825              		.align	2
 1826              	.L186:
 1827 07b8 00000000 		.word	.LANCHOR7
 1828 07bc 182D4454 		.word	1413754136
 1829 07c0 FB210940 		.word	1074340347
 1830 07c4 00000000 		.word	.LANCHOR14
 1831 07c8 F8C1631A 		.word	442745336
 1832 07cc DCA54C40 		.word	1078765020
 1833 07d0 00002440 		.word	1076101120
 1834 07d4 00000000 		.word	nav_circle_trigo_qdr
 1835 07d8 FB21F93F 		.word	1073291771
 1836 07dc 0000B443 		.word	1135869952
 1837 07e0 0000AF43 		.word	1135542272
 1838 07e4 00002041 		.word	1092616192
 1839 07e8 0000A040 		.word	1084227584
 1841              		.section	.text.nav_oval_init,"ax",%progbits
 1842              		.align	2
 1843              		.global	nav_oval_init
 1845              	nav_oval_init:
 1846              		@ Function supports interworking.
 1847              		@ args = 0, pretend = 0, frame = 0
 1848              		@ frame_needed = 0, uses_anonymous_args = 0
 1849              		@ link register save eliminated.
 1850 0000 14309FE5 		ldr	r3, .L189
 1851 0004 0120A0E3 		mov	r2, #1
 1852 0008 0020C3E5 		strb	r2, [r3]
 1853 000c 0C309FE5 		ldr	r3, .L189+4
 1854 0010 0020A0E3 		mov	r2, #0
 1855 0014 0020C3E5 		strb	r2, [r3]
 1856 0018 1EFF2FE1 		bx	lr
 1857              	.L190:
 1858              		.align	2
 1859              	.L189:
 1860 001c 00000000 		.word	oval_status
 1861 0020 00000000 		.word	nav_oval_count
 1863              		.section	.text.nav_oval,"ax",%progbits
 1864              		.align	2
 1865              		.global	nav_oval
 1867              	nav_oval:
 1868              		@ Function supports interworking.
 1869              		@ args = 0, pretend = 0, frame = 48
 1870              		@ frame_needed = 0, uses_anonymous_args = 0
 1871 0000 F04F2DE9 		stmfd	sp!, {r4, r5, r6, r7, r8, r9, r10, fp, lr}
 1872 0004 0C60A0E3 		mov	r6, #12
 1873 0008 00B0A0E1 		mov	fp, r0
 1874 000c 960B0BE0 		mul	fp, r6, fp
 1875 0010 910606E0 		mul	r6, r1, r6
 1876 0014 BC969FE5 		ldr	r9, .L259
 1877 0018 0B7089E0 		add	r7, r9, fp
 1878 001c 083097E5 		ldr	r3, [r7, #8]	@ float
 1879 0020 3CD04DE2 		sub	sp, sp, #60
 1880 0024 064089E0 		add	r4, r9, r6
 1881 0028 083084E5 		str	r3, [r4, #8]	@ float
 1882 002c 30008DE5 		str	r0, [sp, #48]
 1883 0030 34108DE5 		str	r1, [sp, #52]
 1884 0034 0B0099E7 		ldr	r0, [r9, fp]	@ float
 1885 0038 061099E7 		ldr	r1, [r9, r6]	@ float
 1886 003c 028182E2 		add	r8, r2, #-2147483648
 1887 0040 10208DE5 		str	r2, [sp, #16]	@ float
 1888 0044 FEFFFFEB 		bl	__aeabi_fsub
 1889 0048 041094E5 		ldr	r1, [r4, #4]	@ float
 1890 004c 00A0A0E1 		mov	r10, r0
 1891 0050 040097E5 		ldr	r0, [r7, #4]	@ float
 1892 0054 FEFFFFEB 		bl	__aeabi_fsub
 1893 0058 0A10A0E1 		mov	r1, r10
 1894 005c 0050A0E1 		mov	r5, r0
 1895 0060 0A00A0E1 		mov	r0, r10
 1896 0064 FEFFFFEB 		bl	__aeabi_fmul
 1897 0068 0510A0E1 		mov	r1, r5
 1898 006c 0030A0E1 		mov	r3, r0
 1899 0070 0500A0E1 		mov	r0, r5
 1900 0074 0C308DE5 		str	r3, [sp, #12]
 1901 0078 FEFFFFEB 		bl	__aeabi_fmul
 1902 007c 0C309DE5 		ldr	r3, [sp, #12]
 1903 0080 0010A0E1 		mov	r1, r0
 1904 0084 0300A0E1 		mov	r0, r3
 1905 0088 FEFFFFEB 		bl	__aeabi_fadd
 1906 008c FEFFFFEB 		bl	__aeabi_f2d
 1907 0090 FEFFFFEB 		bl	sqrt
 1908 0094 FEFFFFEB 		bl	__aeabi_d2f
 1909 0098 0030A0E1 		mov	r3, r0
 1910 009c 0310A0E1 		mov	r1, r3
 1911 00a0 0A00A0E1 		mov	r0, r10
 1912 00a4 0C308DE5 		str	r3, [sp, #12]
 1913 00a8 FEFFFFEB 		bl	__aeabi_fdiv
 1914 00ac 0C309DE5 		ldr	r3, [sp, #12]
 1915 00b0 00A0A0E1 		mov	r10, r0
 1916 00b4 0310A0E1 		mov	r1, r3
 1917 00b8 0500A0E1 		mov	r0, r5
 1918 00bc FEFFFFEB 		bl	__aeabi_fdiv
 1919 00c0 022180E2 		add	r2, r0, #-2147483648
 1920 00c4 1C208DE5 		str	r2, [sp, #28]
 1921 00c8 0BB099E7 		ldr	fp, [r9, fp]	@ float
 1922 00cc 0050A0E1 		mov	r5, r0
 1923 00d0 1C109DE5 		ldr	r1, [sp, #28]	@ float
 1924 00d4 0800A0E1 		mov	r0, r8
 1925 00d8 18B08DE5 		str	fp, [sp, #24]	@ float
 1926 00dc FEFFFFEB 		bl	__aeabi_fmul
 1927 00e0 047097E5 		ldr	r7, [r7, #4]	@ float
 1928 00e4 20008DE5 		str	r0, [sp, #32]	@ float
 1929 00e8 0A10A0E1 		mov	r1, r10
 1930 00ec 0800A0E1 		mov	r0, r8
 1931 00f0 24708DE5 		str	r7, [sp, #36]	@ float
 1932 00f4 FEFFFFEB 		bl	__aeabi_fmul
 1933 00f8 044094E5 		ldr	r4, [r4, #4]	@ float
 1934 00fc 28008DE5 		str	r0, [sp, #40]	@ float
 1935 0100 0500A0E1 		mov	r0, r5
 1936 0104 2C408DE5 		str	r4, [sp, #44]	@ float
 1937 0108 FEFFFFEB 		bl	__aeabi_f2d
 1938 010c 0040A0E1 		mov	r4, r0
 1939 0110 0A00A0E1 		mov	r0, r10
 1940 0114 0150A0E1 		mov	r5, r1
 1941 0118 FEFFFFEB 		bl	__aeabi_f2d
 1942 011c 0020A0E1 		mov	r2, r0
 1943 0120 0130A0E1 		mov	r3, r1
 1944 0124 0400A0E1 		mov	r0, r4
 1945 0128 0510A0E1 		mov	r1, r5
 1946 012c 06B099E7 		ldr	fp, [r9, r6]	@ float
 1947 0130 FEFFFFEB 		bl	atan2
 1948 0134 0020A0E1 		mov	r2, r0
 1949 0138 0130A0E1 		mov	r3, r1
 1950 013c 98059FE5 		ldr	r0, .L259+4
 1951 0140 98159FE5 		ldr	r1, .L259+8
 1952 0144 FEFFFFEB 		bl	__aeabi_dsub
 1953 0148 FEFFFFEB 		bl	__aeabi_d2f
 1954 014c 14008DE5 		str	r0, [sp, #20]	@ float
 1955 0150 FEFFFFEB 		bl	__aeabi_f2d
 1956 0154 80259FE5 		ldr	r2, .L259+4
 1957 0158 80359FE5 		ldr	r3, .L259+8
 1958 015c FEFFFFEB 		bl	__aeabi_dadd
 1959 0160 FEFFFFEB 		bl	__aeabi_d2f
 1960 0164 0010A0E3 		mov	r1, #0
 1961 0168 0050A0E1 		mov	r5, r0
 1962 016c 0800A0E1 		mov	r0, r8
 1963 0170 FEFFFFEB 		bl	__aeabi_fcmplt
 1964 0174 000050E3 		cmp	r0, #0
 1965 0178 0940A0E1 		mov	r4, r9
 1966 017c 0700000A 		beq	.L192
 1967 0180 0500A0E1 		mov	r0, r5
 1968 0184 FEFFFFEB 		bl	__aeabi_f2d
 1969 0188 4C259FE5 		ldr	r2, .L259+4
 1970 018c 4C359FE5 		ldr	r3, .L259+8
 1971 0190 FEFFFFEB 		bl	__aeabi_dadd
 1972 0194 FEFFFFEB 		bl	__aeabi_d2f
 1973 0198 14508DE5 		str	r5, [sp, #20]	@ float
 1974 019c 0050A0E1 		mov	r5, r0
 1975              	.L192:
 1976 01a0 0800A0E1 		mov	r0, r8
 1977 01a4 0010A0E3 		mov	r1, #0
 1978 01a8 FEFFFFEB 		bl	__aeabi_fcmpgt
 1979 01ac 30759FE5 		ldr	r7, .L259+12
 1980 01b0 0030D7E5 		ldrb	r3, [r7]	@ zero_extendqisi2
 1981 01b4 000050E3 		cmp	r0, #0
 1982 01b8 28659F15 		ldrne	r6, .L259+16
 1983 01bc 28659F05 		ldreq	r6, .L259+20
 1984 01c0 030053E3 		cmp	r3, #3
 1985 01c4 03F19F97 		ldrls	pc, [pc, r3, asl #2]
 1986 01c8 3F0100EA 		b	.L191
 1987              	.L198:
 1988 01cc B8030000 		.word	.L197
 1989 01d0 78040000 		.word	.L199
 1990 01d4 54060000 		.word	.L200
 1991 01d8 DC010000 		.word	.L201
 1992              	.L201:
 1993 01dc 20109DE5 		ldr	r1, [sp, #32]	@ float
 1994 01e0 18009DE5 		ldr	r0, [sp, #24]	@ float
 1995 01e4 FEFFFFEB 		bl	__aeabi_fadd
 1996 01e8 28109DE5 		ldr	r1, [sp, #40]	@ float
 1997 01ec 0040A0E1 		mov	r4, r0
 1998 01f0 24009DE5 		ldr	r0, [sp, #36]	@ float
 1999 01f4 FEFFFFEB 		bl	__aeabi_fadd
 2000 01f8 10209DE5 		ldr	r2, [sp, #16]	@ float
 2001 01fc 0010A0E1 		mov	r1, r0
 2002 0200 0400A0E1 		mov	r0, r4
 2003 0204 FEFFFFEB 		bl	nav_circle_XY
 2004 0208 0500A0E1 		mov	r0, r5
 2005 020c FEFFFFEB 		bl	__aeabi_f2d
 2006 0210 D8249FE5 		ldr	r2, .L259+24
 2007 0214 D8349FE5 		ldr	r3, .L259+28
 2008 0218 FEFFFFEB 		bl	__aeabi_dmul
 2009 021c 0040A0E1 		mov	r4, r0
 2010 0220 0600A0E1 		mov	r0, r6
 2011 0224 0150A0E1 		mov	r5, r1
 2012 0228 FEFFFFEB 		bl	__aeabi_f2d
 2013 022c 0020A0E1 		mov	r2, r0
 2014 0230 0130A0E1 		mov	r3, r1
 2015 0234 0400A0E1 		mov	r0, r4
 2016 0238 0510A0E1 		mov	r1, r5
 2017 023c FEFFFFEB 		bl	__aeabi_dsub
 2018 0240 B0349FE5 		ldr	r3, .L259+32
 2019 0244 0040A0E1 		mov	r4, r0
 2020 0248 000093E5 		ldr	r0, [r3]	@ float
 2021 024c 0150A0E1 		mov	r5, r1
 2022 0250 FEFFFFEB 		bl	__aeabi_f2d
 2023 0254 0020A0E1 		mov	r2, r0
 2024 0258 0130A0E1 		mov	r3, r1
 2025 025c 78049FE5 		ldr	r0, .L259+4
 2026 0260 94149FE5 		ldr	r1, .L259+36
 2027 0264 FEFFFFEB 		bl	__aeabi_dsub
 2028 0268 80249FE5 		ldr	r2, .L259+24
 2029 026c 80349FE5 		ldr	r3, .L259+28
 2030 0270 FEFFFFEB 		bl	__aeabi_dmul
 2031 0274 FEFFFFEB 		bl	__aeabi_d2f
 2032 0278 0080A0E3 		mov	r8, #0
 2033 027c 0060A0E1 		mov	r6, r0
 2034              	.L202:
 2035 0280 0600A0E1 		mov	r0, r6
 2036 0284 0010A0E3 		mov	r1, #0
 2037 0288 FEFFFFEB 		bl	__aeabi_fcmplt
 2038 028c 000050E3 		cmp	r0, #0
 2039 0290 FF9008E2 		and	r9, r8, #255
 2040 0294 1000000A 		beq	.L204
 2041 0298 018088E2 		add	r8, r8, #1
 2042 029c 010C58E3 		cmp	r8, #256
 2043 02a0 0400000A 		beq	.L253
 2044 02a4 0600A0E1 		mov	r0, r6
 2045 02a8 50149FE5 		ldr	r1, .L259+40
 2046 02ac FEFFFFEB 		bl	__aeabi_fadd
 2047 02b0 0060A0E1 		mov	r6, r0
 2048 02b4 F1FFFFEA 		b	.L202
 2049              	.L253:
 2050 02b8 0090A0E3 		mov	r9, #0
 2051 02bc 060000EA 		b	.L204
 2052              	.L207:
 2053 02c0 019089E2 		add	r9, r9, #1
 2054 02c4 FF9019E2 		ands	r9, r9, #255
 2055 02c8 0800000A 		beq	.L210
 2056 02cc 0600A0E1 		mov	r0, r6
 2057 02d0 28149FE5 		ldr	r1, .L259+40
 2058 02d4 FEFFFFEB 		bl	__aeabi_fsub
 2059 02d8 0060A0E1 		mov	r6, r0
 2060              	.L204:
 2061 02dc 0600A0E1 		mov	r0, r6
 2062 02e0 18149FE5 		ldr	r1, .L259+40
 2063 02e4 FEFFFFEB 		bl	__aeabi_fcmpge
 2064 02e8 000050E3 		cmp	r0, #0
 2065 02ec F3FFFF1A 		bne	.L207
 2066              	.L210:
 2067 02f0 0600A0E1 		mov	r0, r6
 2068 02f4 FEFFFFEB 		bl	__aeabi_f2d
 2069 02f8 0020A0E1 		mov	r2, r0
 2070 02fc 0130A0E1 		mov	r3, r1
 2071 0300 0400A0E1 		mov	r0, r4
 2072 0304 0510A0E1 		mov	r1, r5
 2073 0308 FEFFFFEB 		bl	__aeabi_dsub
 2074 030c FEFFFFEB 		bl	__aeabi_d2f
 2075 0310 0050A0E3 		mov	r5, #0
 2076 0314 0040A0E1 		mov	r4, r0
 2077 0318 060000EA 		b	.L208
 2078              	.L255:
 2079 031c 015085E2 		add	r5, r5, #1
 2080 0320 010C55E3 		cmp	r5, #256
 2081 0324 0A00000A 		beq	.L254
 2082 0328 0400A0E1 		mov	r0, r4
 2083 032c CC139FE5 		ldr	r1, .L259+40
 2084 0330 FEFFFFEB 		bl	__aeabi_fadd
 2085 0334 0040A0E1 		mov	r4, r0
 2086              	.L208:
 2087 0338 0400A0E1 		mov	r0, r4
 2088 033c 0010A0E3 		mov	r1, #0
 2089 0340 FEFFFFEB 		bl	__aeabi_fcmplt
 2090 0344 000050E3 		cmp	r0, #0
 2091 0348 FF6005E2 		and	r6, r5, #255
 2092 034c F2FFFF1A 		bne	.L255
 2093 0350 080000EA 		b	.L212
 2094              	.L254:
 2095 0354 0060A0E3 		mov	r6, #0
 2096 0358 060000EA 		b	.L212
 2097              	.L215:
 2098 035c 016086E2 		add	r6, r6, #1
 2099 0360 FF6016E2 		ands	r6, r6, #255
 2100 0364 0800000A 		beq	.L219
 2101 0368 0400A0E1 		mov	r0, r4
 2102 036c 8C139FE5 		ldr	r1, .L259+40
 2103 0370 FEFFFFEB 		bl	__aeabi_fsub
 2104 0374 0040A0E1 		mov	r4, r0
 2105              	.L212:
 2106 0378 0400A0E1 		mov	r0, r4
 2107 037c 7C139FE5 		ldr	r1, .L259+40
 2108 0380 FEFFFFEB 		bl	__aeabi_fcmpge
 2109 0384 000050E3 		cmp	r0, #0
 2110 0388 F3FFFF1A 		bne	.L215
 2111              	.L219:
 2112 038c 0400A0E1 		mov	r0, r4
 2113 0390 6C139FE5 		ldr	r1, .L259+44
 2114 0394 FEFFFFEB 		bl	__aeabi_fcmpgt
 2115 0398 000050E3 		cmp	r0, #0
 2116 039c C300001A 		bne	.L216
 2117 03a0 0400A0E1 		mov	r0, r4
 2118 03a4 5C139FE5 		ldr	r1, .L259+48
 2119 03a8 FEFFFFEB 		bl	__aeabi_fcmplt
 2120 03ac 000050E3 		cmp	r0, #0
 2121 03b0 BE00001A 		bne	.L216
 2122 03b4 C40000EA 		b	.L191
 2123              	.L197:
 2124 03b8 0810A0E1 		mov	r1, r8
 2125 03bc 0800A0E1 		mov	r0, r8
 2126 03c0 FEFFFFEB 		bl	__aeabi_fadd
 2127 03c4 1C109DE5 		ldr	r1, [sp, #28]	@ float
 2128 03c8 0040A0E1 		mov	r4, r0
 2129 03cc FEFFFFEB 		bl	__aeabi_fmul
 2130 03d0 0060A0E1 		mov	r6, r0
 2131 03d4 0610A0E1 		mov	r1, r6
 2132 03d8 18009DE5 		ldr	r0, [sp, #24]	@ float
 2133 03dc FEFFFFEB 		bl	__aeabi_fadd
 2134 03e0 0A10A0E1 		mov	r1, r10
 2135 03e4 0050A0E1 		mov	r5, r0
 2136 03e8 0400A0E1 		mov	r0, r4
 2137 03ec FEFFFFEB 		bl	__aeabi_fmul
 2138 03f0 0080A0E1 		mov	r8, r0
 2139 03f4 0810A0E1 		mov	r1, r8
 2140 03f8 24009DE5 		ldr	r0, [sp, #36]	@ float
 2141 03fc FEFFFFEB 		bl	__aeabi_fadd
 2142 0400 0610A0E1 		mov	r1, r6
 2143 0404 0040A0E1 		mov	r4, r0
 2144 0408 0B00A0E1 		mov	r0, fp
 2145 040c FEFFFFEB 		bl	__aeabi_fadd
 2146 0410 0810A0E1 		mov	r1, r8
 2147 0414 0060A0E1 		mov	r6, r0
 2148 0418 2C009DE5 		ldr	r0, [sp, #44]	@ float
 2149 041c FEFFFFEB 		bl	__aeabi_fadd
 2150 0420 0080A0E1 		mov	r8, r0
 2151 0424 0410A0E1 		mov	r1, r4
 2152 0428 0500A0E1 		mov	r0, r5
 2153 042c 0620A0E1 		mov	r2, r6
 2154 0430 0830A0E1 		mov	r3, r8
 2155 0434 FEFFFFEB 		bl	nav_route_xy
 2156 0438 CC329FE5 		ldr	r3, .L259+52
 2157 043c 0600A0E1 		mov	r0, r6
 2158 0440 00308DE5 		str	r3, [sp]	@ float
 2159 0444 0810A0E1 		mov	r1, r8
 2160 0448 0520A0E1 		mov	r2, r5
 2161 044c 0430A0E1 		mov	r3, r4
 2162 0450 FEFFFFEB 		bl	nav_approaching_xy
 2163 0454 000050E3 		cmp	r0, #0
 2164 0458 9B00000A 		beq	.L191
 2165 045c 0130A0E3 		mov	r3, #1
 2166 0460 0030C7E5 		strb	r3, [r7]
 2167 0464 A4329FE5 		ldr	r3, .L259+56
 2168 0468 0020D3E5 		ldrb	r2, [r3]	@ zero_extendqisi2
 2169 046c 012082E2 		add	r2, r2, #1
 2170 0470 0020C3E5 		strb	r2, [r3]
 2171 0474 910000EA 		b	.L251
 2172              	.L199:
 2173 0478 20109DE5 		ldr	r1, [sp, #32]	@ float
 2174 047c 0B00A0E1 		mov	r0, fp
 2175 0480 FEFFFFEB 		bl	__aeabi_fadd
 2176 0484 28109DE5 		ldr	r1, [sp, #40]	@ float
 2177 0488 0040A0E1 		mov	r4, r0
 2178 048c 2C009DE5 		ldr	r0, [sp, #44]	@ float
 2179 0490 FEFFFFEB 		bl	__aeabi_fadd
 2180 0494 10209DE5 		ldr	r2, [sp, #16]	@ float
 2181 0498 0010A0E1 		mov	r1, r0
 2182 049c 0400A0E1 		mov	r0, r4
 2183 04a0 FEFFFFEB 		bl	nav_circle_XY
 2184 04a4 14009DE5 		ldr	r0, [sp, #20]	@ float
 2185 04a8 FEFFFFEB 		bl	__aeabi_f2d
 2186 04ac 3C229FE5 		ldr	r2, .L259+24
 2187 04b0 3C329FE5 		ldr	r3, .L259+28
 2188 04b4 FEFFFFEB 		bl	__aeabi_dmul
 2189 04b8 0040A0E1 		mov	r4, r0
 2190 04bc 0600A0E1 		mov	r0, r6
 2191 04c0 0150A0E1 		mov	r5, r1
 2192 04c4 FEFFFFEB 		bl	__aeabi_f2d
 2193 04c8 0020A0E1 		mov	r2, r0
 2194 04cc 0130A0E1 		mov	r3, r1
 2195 04d0 0400A0E1 		mov	r0, r4
 2196 04d4 0510A0E1 		mov	r1, r5
 2197 04d8 FEFFFFEB 		bl	__aeabi_dsub
 2198 04dc 14329FE5 		ldr	r3, .L259+32
 2199 04e0 0040A0E1 		mov	r4, r0
 2200 04e4 000093E5 		ldr	r0, [r3]	@ float
 2201 04e8 0150A0E1 		mov	r5, r1
 2202 04ec FEFFFFEB 		bl	__aeabi_f2d
 2203 04f0 0020A0E1 		mov	r2, r0
 2204 04f4 0130A0E1 		mov	r3, r1
 2205 04f8 DC019FE5 		ldr	r0, .L259+4
 2206 04fc F8119FE5 		ldr	r1, .L259+36
 2207 0500 FEFFFFEB 		bl	__aeabi_dsub
 2208 0504 E4219FE5 		ldr	r2, .L259+24
 2209 0508 E4319FE5 		ldr	r3, .L259+28
 2210 050c FEFFFFEB 		bl	__aeabi_dmul
 2211 0510 FEFFFFEB 		bl	__aeabi_d2f
 2212 0514 0080A0E3 		mov	r8, #0
 2213 0518 0060A0E1 		mov	r6, r0
 2214              	.L221:
 2215 051c 0600A0E1 		mov	r0, r6
 2216 0520 0010A0E3 		mov	r1, #0
 2217 0524 FEFFFFEB 		bl	__aeabi_fcmplt
 2218 0528 000050E3 		cmp	r0, #0
 2219 052c FF9008E2 		and	r9, r8, #255
 2220 0530 1000000A 		beq	.L223
 2221 0534 018088E2 		add	r8, r8, #1
 2222 0538 010C58E3 		cmp	r8, #256
 2223 053c 0400000A 		beq	.L256
 2224 0540 0600A0E1 		mov	r0, r6
 2225 0544 B4119FE5 		ldr	r1, .L259+40
 2226 0548 FEFFFFEB 		bl	__aeabi_fadd
 2227 054c 0060A0E1 		mov	r6, r0
 2228 0550 F1FFFFEA 		b	.L221
 2229              	.L256:
 2230 0554 0090A0E3 		mov	r9, #0
 2231 0558 060000EA 		b	.L223
 2232              	.L226:
 2233 055c 019089E2 		add	r9, r9, #1
 2234 0560 FF9019E2 		ands	r9, r9, #255
 2235 0564 0800000A 		beq	.L229
 2236 0568 0600A0E1 		mov	r0, r6
 2237 056c 8C119FE5 		ldr	r1, .L259+40
 2238 0570 FEFFFFEB 		bl	__aeabi_fsub
 2239 0574 0060A0E1 		mov	r6, r0
 2240              	.L223:
 2241 0578 0600A0E1 		mov	r0, r6
 2242 057c 7C119FE5 		ldr	r1, .L259+40
 2243 0580 FEFFFFEB 		bl	__aeabi_fcmpge
 2244 0584 000050E3 		cmp	r0, #0
 2245 0588 F3FFFF1A 		bne	.L226
 2246              	.L229:
 2247 058c 0600A0E1 		mov	r0, r6
 2248 0590 FEFFFFEB 		bl	__aeabi_f2d
 2249 0594 0020A0E1 		mov	r2, r0
 2250 0598 0130A0E1 		mov	r3, r1
 2251 059c 0400A0E1 		mov	r0, r4
 2252 05a0 0510A0E1 		mov	r1, r5
 2253 05a4 FEFFFFEB 		bl	__aeabi_dsub
 2254 05a8 FEFFFFEB 		bl	__aeabi_d2f
 2255 05ac 0050A0E3 		mov	r5, #0
 2256 05b0 0040A0E1 		mov	r4, r0
 2257 05b4 060000EA 		b	.L227
 2258              	.L258:
 2259 05b8 015085E2 		add	r5, r5, #1
 2260 05bc 010C55E3 		cmp	r5, #256
 2261 05c0 0A00000A 		beq	.L257
 2262 05c4 0400A0E1 		mov	r0, r4
 2263 05c8 30119FE5 		ldr	r1, .L259+40
 2264 05cc FEFFFFEB 		bl	__aeabi_fadd
 2265 05d0 0040A0E1 		mov	r4, r0
 2266              	.L227:
 2267 05d4 0400A0E1 		mov	r0, r4
 2268 05d8 0010A0E3 		mov	r1, #0
 2269 05dc FEFFFFEB 		bl	__aeabi_fcmplt
 2270 05e0 000050E3 		cmp	r0, #0
 2271 05e4 FF6005E2 		and	r6, r5, #255
 2272 05e8 F2FFFF1A 		bne	.L258
 2273 05ec 080000EA 		b	.L231
 2274              	.L257:
 2275 05f0 0060A0E3 		mov	r6, #0
 2276 05f4 060000EA 		b	.L231
 2277              	.L234:
 2278 05f8 016086E2 		add	r6, r6, #1
 2279 05fc FF6016E2 		ands	r6, r6, #255
 2280 0600 0800000A 		beq	.L238
 2281 0604 0400A0E1 		mov	r0, r4
 2282 0608 F0109FE5 		ldr	r1, .L259+40
 2283 060c FEFFFFEB 		bl	__aeabi_fsub
 2284 0610 0040A0E1 		mov	r4, r0
 2285              	.L231:
 2286 0614 0400A0E1 		mov	r0, r4
 2287 0618 E0109FE5 		ldr	r1, .L259+40
 2288 061c FEFFFFEB 		bl	__aeabi_fcmpge
 2289 0620 000050E3 		cmp	r0, #0
 2290 0624 F3FFFF1A 		bne	.L234
 2291              	.L238:
 2292 0628 0400A0E1 		mov	r0, r4
 2293 062c D0109FE5 		ldr	r1, .L259+44
 2294 0630 FEFFFFEB 		bl	__aeabi_fcmpgt
 2295 0634 000050E3 		cmp	r0, #0
 2296 0638 1E00001A 		bne	.L235
 2297 063c 0400A0E1 		mov	r0, r4
 2298 0640 C0109FE5 		ldr	r1, .L259+48
 2299 0644 FEFFFFEB 		bl	__aeabi_fcmplt
 2300 0648 000050E3 		cmp	r0, #0
 2301 064c 1900001A 		bne	.L235
 2302 0650 1D0000EA 		b	.L191
 2303              	.L200:
 2304 0654 30309DE5 		ldr	r3, [sp, #48]
 2305 0658 34509DE5 		ldr	r5, [sp, #52]
 2306 065c 0C60A0E3 		mov	r6, #12
 2307 0660 960505E0 		mul	r5, r6, r5
 2308 0664 930606E0 		mul	r6, r3, r6
 2309 0668 058084E0 		add	r8, r4, r5
 2310 066c 069084E0 		add	r9, r4, r6
 2311 0670 050094E7 		ldr	r0, [r4, r5]	@ float
 2312 0674 041098E5 		ldr	r1, [r8, #4]	@ float
 2313 0678 062094E7 		ldr	r2, [r4, r6]	@ float
 2314 067c 043099E5 		ldr	r3, [r9, #4]	@ float
 2315 0680 FEFFFFEB 		bl	nav_route_xy
 2316 0684 80309FE5 		ldr	r3, .L259+52
 2317 0688 00308DE5 		str	r3, [sp]	@ float
 2318 068c 043098E5 		ldr	r3, [r8, #4]	@ float
 2319 0690 060094E7 		ldr	r0, [r4, r6]	@ float
 2320 0694 041099E5 		ldr	r1, [r9, #4]	@ float
 2321 0698 052094E7 		ldr	r2, [r4, r5]	@ float
 2322 069c FEFFFFEB 		bl	nav_approaching_xy
 2323 06a0 000050E3 		cmp	r0, #0
 2324 06a4 0330A013 		movne	r3, #3
 2325 06a8 0700000A 		beq	.L191
 2326 06ac 020000EA 		b	.L252
 2327              	.L216:
 2328 06b0 0030A0E3 		mov	r3, #0
 2329 06b4 000000EA 		b	.L252
 2330              	.L235:
 2331 06b8 0230A0E3 		mov	r3, #2
 2332              	.L252:
 2333 06bc 0030C7E5 		strb	r3, [r7]
 2334              	.L251:
 2335 06c0 3CD08DE2 		add	sp, sp, #60
 2336              		@ sp needed
 2337 06c4 F04FBDE8 		ldmfd	sp!, {r4, r5, r6, r7, r8, r9, r10, fp, lr}
 2338 06c8 FEFFFFEA 		b	nav_init_stage
 2339              	.L191:
 2340 06cc 3CD08DE2 		add	sp, sp, #60
 2341              		@ sp needed
 2342 06d0 F04FBDE8 		ldmfd	sp!, {r4, r5, r6, r7, r8, r9, r10, fp, lr}
 2343 06d4 1EFF2FE1 		bx	lr
 2344              	.L260:
 2345              		.align	2
 2346              	.L259:
 2347 06d8 00000000 		.word	.LANCHOR7
 2348 06dc 182D4454 		.word	1413754136
 2349 06e0 FB210940 		.word	1074340347
 2350 06e4 00000000 		.word	oval_status
 2351 06e8 000070C1 		.word	-1049624576
 2352 06ec 00007041 		.word	1097859072
 2353 06f0 F8C1631A 		.word	442745336
 2354 06f4 DCA54C40 		.word	1078765020
 2355 06f8 00000000 		.word	nav_circle_trigo_qdr
 2356 06fc FB21F93F 		.word	1073291771
 2357 0700 0000B443 		.word	1135869952
 2358 0704 0000AF43 		.word	1135542272
 2359 0708 00002041 		.word	1092616192
 2360 070c 0000A040 		.word	1084227584
 2361 0710 00000000 		.word	nav_oval_count
 2363              		.global	__aeabi_ui2f
 2364              		.section	.text.nav_periodic_task,"ax",%progbits
 2365              		.align	2
 2366              		.global	nav_periodic_task
 2368              	nav_periodic_task:
 2369              		@ Function supports interworking.
 2370              		@ args = 0, pretend = 0, frame = 0
 2371              		@ frame_needed = 0, uses_anonymous_args = 0
 2372 0000 8C379FE5 		ldr	r3, .L355
 2373 0004 F7432DE9 		stmfd	sp!, {r0, r1, r2, r4, r5, r6, r7, r8, r9, lr}
 2374 0008 0050A0E3 		mov	r5, #0
 2375 000c 0050C3E5 		strb	r5, [r3]
 2376 0010 FEFFFFEB 		bl	compute_dist2_to_home
 2377 0014 7C379FE5 		ldr	r3, .L355+4
 2378 0018 0040A0E3 		mov	r4, #0
 2379 001c 004083E5 		str	r4, [r3]	@ float
 2380 0020 74379FE5 		ldr	r3, .L355+8
 2381 0024 0020D3E5 		ldrb	r2, [r3]	@ zero_extendqisi2
 2382 0028 0510A0E1 		mov	r1, r5
 2383 002c 6C579FE5 		ldr	r5, .L355+12
 2384 0030 080052E3 		cmp	r2, #8
 2385 0034 02F19F97 		ldrls	pc, [pc, r2, asl #2]
 2386 0038 C50100EA 		b	.L262
 2387              	.L264:
 2388 003c 60000000 		.word	.L263
 2389 0040 B8000000 		.word	.L265
 2390 0044 20010000 		.word	.L266
 2391 0048 A8010000 		.word	.L267
 2392 004c 54020000 		.word	.L268
 2393 0050 C8020000 		.word	.L269
 2394 0054 54030000 		.word	.L270
 2395 0058 E8030000 		.word	.L271
 2396 005c 18070000 		.word	.L272
 2397              	.L263:
 2398 0060 3C279FE5 		ldr	r2, .L355+16
 2399 0064 0000D2E5 		ldrb	r0, [r2]	@ zero_extendqisi2
 2400 0068 000050E3 		cmp	r0, #0
 2401 006c 0010C3E5 		strb	r1, [r3]
 2402 0070 02C0A0E1 		mov	ip, r2
 2403 0074 0110A0E3 		mov	r1, #1
 2404 0078 0200000A 		beq	.L274
 2405 007c 020050E3 		cmp	r0, #2
 2406 0080 0400009A 		bls	.L330
 2407 0084 070000EA 		b	.L273
 2408              	.L274:
 2409 0088 18379FE5 		ldr	r3, .L355+20
 2410 008c 0010C2E5 		strb	r1, [r2]
 2411 0090 0010C3E5 		strb	r1, [r3]
 2412 0094 880100EA 		b	.L339
 2413              	.L330:
 2414              	.L275:
 2415 0098 0C179FE5 		ldr	r1, .L355+24
 2416 009c 5B10D1E5 		ldrb	r1, [r1, #91]	@ zero_extendqisi2
 2417 00a0 030051E3 		cmp	r1, #3
 2418 00a4 F300001A 		bne	.L300
 2419              	.L273:
 2420 00a8 0320A0E3 		mov	r2, #3
 2421 00ac 0020CCE5 		strb	r2, [ip]
 2422 00b0 0120A0E3 		mov	r2, #1
 2423 00b4 A40100EA 		b	.L341
 2424              	.L265:
 2425 00b8 0120A0E3 		mov	r2, #1
 2426 00bc 0020C3E5 		strb	r2, [r3]
 2427 00c0 DC369FE5 		ldr	r3, .L355+16
 2428 00c4 0010D3E5 		ldrb	r1, [r3]	@ zero_extendqisi2
 2429 00c8 020051E1 		cmp	r1, r2
 2430 00cc 0340A0E1 		mov	r4, r3
 2431 00d0 0200009A 		bls	.L277
 2432 00d4 020051E3 		cmp	r1, #2
 2433 00d8 0400000A 		beq	.L278
 2434 00dc 0B0000EA 		b	.L350
 2435              	.L277:
 2436 00e0 C8169FE5 		ldr	r1, .L355+28
 2437 00e4 B010D1E1 		ldrh	r1, [r1]
 2438 00e8 090051E3 		cmp	r1, #9
 2439 00ec 2800009A 		bls	.L347
 2440              	.L278:
 2441 00f0 0230A0E3 		mov	r3, #2
 2442 00f4 0030C4E5 		strb	r3, [r4]
 2443 00f8 FEFFFFEB 		bl	nav_reset_reference
 2444 00fc FEFFFFEB 		bl	nav_update_waypoints_alt
 2445 0100 0030D4E5 		ldrb	r3, [r4]	@ zero_extendqisi2
 2446 0104 013083E2 		add	r3, r3, #1
 2447 0108 0030C4E5 		strb	r3, [r4]
 2448 010c 6A0100EA 		b	.L339
 2449              	.L350:
 2450 0110 0320A0E3 		mov	r2, #3
 2451 0114 0020C3E5 		strb	r2, [r3]
 2452 0118 0220A0E3 		mov	r2, #2
 2453 011c 890100EA 		b	.L342
 2454              	.L266:
 2455 0120 0220A0E3 		mov	r2, #2
 2456 0124 0020C3E5 		strb	r2, [r3]
 2457 0128 74369FE5 		ldr	r3, .L355+16
 2458 012c 0010D3E5 		ldrb	r1, [r3]	@ zero_extendqisi2
 2459 0130 000051E3 		cmp	r1, #0
 2460 0134 1300000A 		beq	.L280
 2461 0138 010051E3 		cmp	r1, #1
 2462 013c 1600001A 		bne	.L351
 2463 0140 0010C3E5 		strb	r1, [r3]
 2464 0144 68369FE5 		ldr	r3, .L355+32
 2465 0148 0020C3E5 		strb	r2, [r3]
 2466 014c 64369FE5 		ldr	r3, .L355+36
 2467 0150 0030D3E5 		ldrb	r3, [r3]	@ zero_extendqisi2
 2468 0154 010053E3 		cmp	r3, #1
 2469 0158 5C369F15 		ldrne	r3, .L355+40
 2470 015c 5C269FE5 		ldr	r2, .L355+44
 2471 0160 00408315 		strne	r4, [r3]	@ float
 2472 0164 0030A0E3 		mov	r3, #0
 2473 0168 0030C2E5 		strb	r3, [r2]
 2474 016c 50269FE5 		ldr	r2, .L355+48
 2475 0170 004082E5 		str	r4, [r2]	@ float
 2476 0174 0120A0E3 		mov	r2, #1
 2477 0178 0020C5E5 		strb	r2, [r5]
 2478 017c 44269FE5 		ldr	r2, .L355+52
 2479 0180 B030C2E1 		strh	r3, [r2]	@ movhi
 2480 0184 720100EA 		b	.L262
 2481              	.L280:
 2482 0188 18169FE5 		ldr	r1, .L355+20
 2483 018c 0120A0E3 		mov	r2, #1
 2484 0190 0020C1E5 		strb	r2, [r1]
 2485              	.L347:
 2486 0194 0020C3E5 		strb	r2, [r3]
 2487 0198 470100EA 		b	.L339
 2488              	.L351:
 2489 019c 0020C3E5 		strb	r2, [r3]
 2490 01a0 0320A0E3 		mov	r2, #3
 2491 01a4 670100EA 		b	.L342
 2492              	.L267:
 2493 01a8 0320A0E3 		mov	r2, #3
 2494 01ac 0020C3E5 		strb	r2, [r3]
 2495 01b0 14369FE5 		ldr	r3, .L355+56
 2496 01b4 14169FE5 		ldr	r1, .L355+60
 2497 01b8 000093E5 		ldr	r0, [r3]	@ float
 2498 01bc FEFFFFEB 		bl	__aeabi_fcmpgt
 2499 01c0 000050E3 		cmp	r0, #0
 2500 01c4 D0659FE5 		ldr	r6, .L355+8
 2501 01c8 1E00001A 		bne	.L348
 2502 01cc D0359FE5 		ldr	r3, .L355+16
 2503 01d0 0020D3E5 		ldrb	r2, [r3]	@ zero_extendqisi2
 2504 01d4 000052E3 		cmp	r2, #0
 2505 01d8 1600000A 		beq	.L286
 2506 01dc 010052E3 		cmp	r2, #1
 2507 01e0 0210A0E3 		mov	r1, #2
 2508 01e4 1600001A 		bne	.L352
 2509 01e8 0020C3E5 		strb	r2, [r3]
 2510 01ec C0359FE5 		ldr	r3, .L355+32
 2511 01f0 0010C3E5 		strb	r1, [r3]
 2512 01f4 BC359FE5 		ldr	r3, .L355+36
 2513 01f8 0030D3E5 		ldrb	r3, [r3]	@ zero_extendqisi2
 2514 01fc 010053E3 		cmp	r3, #1
 2515 0200 B4359F15 		ldrne	r3, .L355+40
 2516 0204 00408315 		strne	r4, [r3]	@ float
 2517 0208 B0359FE5 		ldr	r3, .L355+44
 2518 020c 0020A0E3 		mov	r2, #0
 2519 0210 0020C3E5 		strb	r2, [r3]
 2520 0214 B8259FE5 		ldr	r2, .L355+64
 2521 0218 A4359FE5 		ldr	r3, .L355+48
 2522 021c 002083E5 		str	r2, [r3]	@ float
 2523 0220 0130A0E3 		mov	r3, #1
 2524 0224 0030C5E5 		strb	r3, [r5]
 2525 0228 98359FE5 		ldr	r3, .L355+52
 2526 022c 962DA0E3 		mov	r2, #9600
 2527 0230 B020C3E1 		strh	r2, [r3]	@ movhi
 2528 0234 460100EA 		b	.L262
 2529              	.L286:
 2530 0238 68159FE5 		ldr	r1, .L355+20
 2531 023c 0020C1E5 		strb	r2, [r1]
 2532 0240 3D0000EA 		b	.L349
 2533              	.L352:
 2534 0244 0010C3E5 		strb	r1, [r3]
 2535              	.L348:
 2536 0248 0430A0E3 		mov	r3, #4
 2537 024c 0030C6E5 		strb	r3, [r6]
 2538 0250 3E0100EA 		b	.L340
 2539              	.L268:
 2540 0254 0420A0E3 		mov	r2, #4
 2541 0258 0020C3E5 		strb	r2, [r3]
 2542 025c 40359FE5 		ldr	r3, .L355+16
 2543 0260 0020D3E5 		ldrb	r2, [r3]	@ zero_extendqisi2
 2544 0264 000052E3 		cmp	r2, #0
 2545 0268 1200001A 		bne	.L335
 2546 026c 0020C3E5 		strb	r2, [r3]
 2547 0270 48359FE5 		ldr	r3, .L355+44
 2548 0274 0020C3E5 		strb	r2, [r3]
 2549 0278 44359FE5 		ldr	r3, .L355+48
 2550 027c 004083E5 		str	r4, [r3]	@ float
 2551 0280 0330A0E3 		mov	r3, #3
 2552 0284 0030C5E5 		strb	r3, [r5]
 2553 0288 48359FE5 		ldr	r3, .L355+68
 2554 028c 48259FE5 		ldr	r2, .L355+72
 2555 0290 201093E5 		ldr	r1, [r3, #32]	@ float
 2556 0294 180093E5 		ldr	r0, [r3, #24]	@ float
 2557 0298 001082E5 		str	r1, [r2]	@ float
 2558 029c 3C259FE5 		ldr	r2, .L355+76
 2559 02a0 1C1093E5 		ldr	r1, [r3, #28]	@ float
 2560 02a4 38359FE5 		ldr	r3, .L355+80
 2561 02a8 004082E5 		str	r4, [r2]	@ float
 2562 02ac 002093E5 		ldr	r2, [r3]	@ float
 2563 02b0 FEFFFFEB 		bl	nav_circle_XY
 2564 02b4 260100EA 		b	.L262
 2565              	.L335:
 2566 02b8 0120A0E3 		mov	r2, #1
 2567 02bc 0020C3E5 		strb	r2, [r3]
 2568 02c0 0520A0E3 		mov	r2, #5
 2569 02c4 1F0100EA 		b	.L342
 2570              	.L269:
 2571 02c8 0510A0E3 		mov	r1, #5
 2572 02cc 0010C3E5 		strb	r1, [r3]
 2573 02d0 CC349FE5 		ldr	r3, .L355+16
 2574 02d4 0020D3E5 		ldrb	r2, [r3]	@ zero_extendqisi2
 2575 02d8 000052E3 		cmp	r2, #0
 2576 02dc 1400000A 		beq	.L292
 2577 02e0 010052E3 		cmp	r2, #1
 2578 02e4 1600001A 		bne	.L353
 2579 02e8 0020C3E5 		strb	r2, [r3]
 2580 02ec CC349FE5 		ldr	r3, .L355+44
 2581 02f0 0020A0E3 		mov	r2, #0
 2582 02f4 0020C3E5 		strb	r2, [r3]
 2583 02f8 C4349FE5 		ldr	r3, .L355+48
 2584 02fc 004083E5 		str	r4, [r3]	@ float
 2585 0300 D0349FE5 		ldr	r3, .L355+68
 2586 0304 2C2093E5 		ldr	r2, [r3, #44]	@ float
 2587 0308 CC349FE5 		ldr	r3, .L355+72
 2588 030c 002083E5 		str	r2, [r3]	@ float
 2589 0310 C8349FE5 		ldr	r3, .L355+76
 2590 0314 004083E5 		str	r4, [r3]	@ float
 2591 0318 C4349FE5 		ldr	r3, .L355+80
 2592 031c 0300A0E3 		mov	r0, #3
 2593 0320 0410A0E3 		mov	r1, #4
 2594 0324 002093E5 		ldr	r2, [r3]	@ float
 2595 0328 0000C5E5 		strb	r0, [r5]
 2596 032c FEFFFFEB 		bl	nav_eight
 2597 0330 070100EA 		b	.L262
 2598              	.L292:
 2599 0334 AC249FE5 		ldr	r2, .L355+84
 2600 0338 0010C2E5 		strb	r1, [r2]
 2601              	.L349:
 2602 033c 0120A0E3 		mov	r2, #1
 2603 0340 93FFFFEA 		b	.L347
 2604              	.L353:
 2605 0344 0220A0E3 		mov	r2, #2
 2606 0348 0020C3E5 		strb	r2, [r3]
 2607 034c 0620A0E3 		mov	r2, #6
 2608 0350 FC0000EA 		b	.L342
 2609              	.L270:
 2610 0354 48649FE5 		ldr	r6, .L355+16
 2611 0358 0620A0E3 		mov	r2, #6
 2612 035c 0020C3E5 		strb	r2, [r3]
 2613 0360 0030D6E5 		ldrb	r3, [r6]	@ zero_extendqisi2
 2614 0364 000053E3 		cmp	r3, #0
 2615 0368 1400000A 		beq	.L295
 2616 036c 010053E3 		cmp	r3, #1
 2617 0370 1800001A 		bne	.L354
 2618 0374 0030C6E5 		strb	r3, [r6]
 2619 0378 40349FE5 		ldr	r3, .L355+44
 2620 037c 0020A0E3 		mov	r2, #0
 2621 0380 0020C3E5 		strb	r2, [r3]
 2622 0384 38349FE5 		ldr	r3, .L355+48
 2623 0388 004083E5 		str	r4, [r3]	@ float
 2624 038c 44349FE5 		ldr	r3, .L355+68
 2625 0390 2C2093E5 		ldr	r2, [r3, #44]	@ float
 2626 0394 40349FE5 		ldr	r3, .L355+72
 2627 0398 002083E5 		str	r2, [r3]	@ float
 2628 039c 3C349FE5 		ldr	r3, .L355+76
 2629 03a0 004083E5 		str	r4, [r3]	@ float
 2630 03a4 38349FE5 		ldr	r3, .L355+80
 2631 03a8 0310A0E3 		mov	r1, #3
 2632 03ac 0400A0E3 		mov	r0, #4
 2633 03b0 002093E5 		ldr	r2, [r3]	@ float
 2634 03b4 0010C5E5 		strb	r1, [r5]
 2635 03b8 FEFFFFEB 		bl	nav_oval
 2636 03bc E40000EA 		b	.L262
 2637              	.L295:
 2638 03c0 0030C6E5 		strb	r3, [r6]
 2639 03c4 FEFFFFEB 		bl	nav_oval_init
 2640 03c8 0030D6E5 		ldrb	r3, [r6]	@ zero_extendqisi2
 2641 03cc 013083E2 		add	r3, r3, #1
 2642 03d0 0030C6E5 		strb	r3, [r6]
 2643 03d4 B80000EA 		b	.L339
 2644              	.L354:
 2645 03d8 0230A0E3 		mov	r3, #2
 2646 03dc 0030C6E5 		strb	r3, [r6]
 2647 03e0 0720A0E3 		mov	r2, #7
 2648 03e4 D70000EA 		b	.L342
 2649              	.L271:
 2650 03e8 0720A0E3 		mov	r2, #7
 2651 03ec 0020C3E5 		strb	r2, [r3]
 2652 03f0 AC239FE5 		ldr	r2, .L355+16
 2653 03f4 0010D2E5 		ldrb	r1, [r2]	@ zero_extendqisi2
 2654 03f8 070051E3 		cmp	r1, #7
 2655 03fc 01F19F97 		ldrls	pc, [pc, r1, asl #2]
 2656 0400 C00000EA 		b	.L297
 2657              	.L299:
 2658 0404 24040000 		.word	.L298
 2659 0408 78040000 		.word	.L300
 2660 040c 84040000 		.word	.L301
 2661 0410 F8040000 		.word	.L302
 2662 0414 80050000 		.word	.L303
 2663 0418 F4050000 		.word	.L304
 2664 041c 68060000 		.word	.L305
 2665 0420 78040000 		.word	.L300
 2666              	.L298:
 2667 0424 0030A0E3 		mov	r3, #0
 2668 0428 0030C2E5 		strb	r3, [r2]
 2669 042c B8339FE5 		ldr	r3, .L355+88
 2670 0430 00308DE5 		str	r3, [sp]	@ float
 2671 0434 B4339FE5 		ldr	r3, .L355+92
 2672 0438 98639FE5 		ldr	r6, .L355+68
 2673 043c 002093E5 		ldr	r2, [r3]	@ float
 2674 0440 AC339FE5 		ldr	r3, .L355+96
 2675 0444 3C0096E5 		ldr	r0, [r6, #60]	@ float
 2676 0448 401096E5 		ldr	r1, [r6, #64]	@ float
 2677 044c 003093E5 		ldr	r3, [r3]	@ float
 2678 0450 FEFFFFEB 		bl	nav_approaching_xy
 2679 0454 008050E2 		subs	r8, r0, #0
 2680 0458 44739FE5 		ldr	r7, .L355+16
 2681 045c 9000001A 		bne	.L345
 2682 0460 90339FE5 		ldr	r3, .L355+100
 2683 0464 3C0096E5 		ldr	r0, [r6, #60]	@ float
 2684 0468 401096E5 		ldr	r1, [r6, #64]	@ float
 2685 046c 0080C3E5 		strb	r8, [r3]
 2686 0470 FEFFFFEB 		bl	fly_to_xy
 2687 0474 970000EA 		b	.L346
 2688              	.L300:
 2689 0478 0230A0E3 		mov	r3, #2
 2690 047c 0030C2E5 		strb	r3, [r2]
 2691 0480 8D0000EA 		b	.L339
 2692              	.L301:
 2693 0484 0230A0E3 		mov	r3, #2
 2694 0488 0030C2E5 		strb	r3, [r2]
 2695 048c 68339FE5 		ldr	r3, .L355+104
 2696 0490 0000D3E5 		ldrb	r0, [r3]	@ zero_extendqisi2
 2697 0494 FEFFFFEB 		bl	__aeabi_ui2f
 2698 0498 38639FE5 		ldr	r6, .L355+68
 2699 049c 00008DE5 		str	r0, [sp]	@ float
 2700 04a0 3C2096E5 		ldr	r2, [r6, #60]	@ float
 2701 04a4 480096E5 		ldr	r0, [r6, #72]	@ float
 2702 04a8 4C1096E5 		ldr	r1, [r6, #76]	@ float
 2703 04ac 403096E5 		ldr	r3, [r6, #64]	@ float
 2704 04b0 FEFFFFEB 		bl	nav_approaching_xy
 2705 04b4 008050E2 		subs	r8, r0, #0
 2706 04b8 E4729FE5 		ldr	r7, .L355+16
 2707 04bc 0620A013 		movne	r2, #6
 2708 04c0 7800001A 		bne	.L344
 2709 04c4 482096E5 		ldr	r2, [r6, #72]	@ float
 2710 04c8 4C3096E5 		ldr	r3, [r6, #76]	@ float
 2711 04cc 3C0096E5 		ldr	r0, [r6, #60]	@ float
 2712 04d0 401096E5 		ldr	r1, [r6, #64]	@ float
 2713 04d4 FEFFFFEB 		bl	nav_route_xy
 2714 04d8 E0329FE5 		ldr	r3, .L355+44
 2715 04dc 0080C3E5 		strb	r8, [r3]
 2716 04e0 DC329FE5 		ldr	r3, .L355+48
 2717 04e4 004083E5 		str	r4, [r3]	@ float
 2718 04e8 0330A0E3 		mov	r3, #3
 2719 04ec 0030C5E5 		strb	r3, [r5]
 2720 04f0 502096E5 		ldr	r2, [r6, #80]	@ float
 2721 04f4 7E0000EA 		b	.L343
 2722              	.L302:
 2723 04f8 FC329FE5 		ldr	r3, .L355+104
 2724 04fc 0370A0E3 		mov	r7, #3
 2725 0500 0000D3E5 		ldrb	r0, [r3]	@ zero_extendqisi2
 2726 0504 0070C2E5 		strb	r7, [r2]
 2727 0508 FEFFFFEB 		bl	__aeabi_ui2f
 2728 050c C4629FE5 		ldr	r6, .L355+68
 2729 0510 00008DE5 		str	r0, [sp]	@ float
 2730 0514 540096E5 		ldr	r0, [r6, #84]	@ float
 2731 0518 581096E5 		ldr	r1, [r6, #88]	@ float
 2732 051c 482096E5 		ldr	r2, [r6, #72]	@ float
 2733 0520 4C3096E5 		ldr	r3, [r6, #76]	@ float
 2734 0524 FEFFFFEB 		bl	nav_approaching_xy
 2735 0528 009050E2 		subs	r9, r0, #0
 2736 052c 70829FE5 		ldr	r8, .L355+16
 2737 0530 0600000A 		beq	.L308
 2738 0534 C4329FE5 		ldr	r3, .L355+108
 2739 0538 0720A0E3 		mov	r2, #7
 2740 053c 0020C3E5 		strb	r2, [r3]
 2741 0540 0030D8E5 		ldrb	r3, [r8]	@ zero_extendqisi2
 2742 0544 013083E2 		add	r3, r3, #1
 2743 0548 0030C8E5 		strb	r3, [r8]
 2744 054c 5A0000EA 		b	.L339
 2745              	.L308:
 2746 0550 542096E5 		ldr	r2, [r6, #84]	@ float
 2747 0554 583096E5 		ldr	r3, [r6, #88]	@ float
 2748 0558 480096E5 		ldr	r0, [r6, #72]	@ float
 2749 055c 4C1096E5 		ldr	r1, [r6, #76]	@ float
 2750 0560 FEFFFFEB 		bl	nav_route_xy
 2751 0564 54329FE5 		ldr	r3, .L355+44
 2752 0568 0090C3E5 		strb	r9, [r3]
 2753 056c 50329FE5 		ldr	r3, .L355+48
 2754 0570 0070C5E5 		strb	r7, [r5]
 2755 0574 004083E5 		str	r4, [r3]	@ float
 2756 0578 5C2096E5 		ldr	r2, [r6, #92]	@ float
 2757 057c 5C0000EA 		b	.L343
 2758              	.L303:
 2759 0580 0430A0E3 		mov	r3, #4
 2760 0584 0030C2E5 		strb	r3, [r2]
 2761 0588 6C329FE5 		ldr	r3, .L355+104
 2762 058c 0000D3E5 		ldrb	r0, [r3]	@ zero_extendqisi2
 2763 0590 FEFFFFEB 		bl	__aeabi_ui2f
 2764 0594 3C629FE5 		ldr	r6, .L355+68
 2765 0598 00008DE5 		str	r0, [sp]	@ float
 2766 059c 542096E5 		ldr	r2, [r6, #84]	@ float
 2767 05a0 600096E5 		ldr	r0, [r6, #96]	@ float
 2768 05a4 641096E5 		ldr	r1, [r6, #100]	@ float
 2769 05a8 583096E5 		ldr	r3, [r6, #88]	@ float
 2770 05ac FEFFFFEB 		bl	nav_approaching_xy
 2771 05b0 008050E2 		subs	r8, r0, #0
 2772 05b4 E8719FE5 		ldr	r7, .L355+16
 2773 05b8 0820A013 		movne	r2, #8
 2774 05bc 3900001A 		bne	.L344
 2775 05c0 602096E5 		ldr	r2, [r6, #96]	@ float
 2776 05c4 643096E5 		ldr	r3, [r6, #100]	@ float
 2777 05c8 540096E5 		ldr	r0, [r6, #84]	@ float
 2778 05cc 581096E5 		ldr	r1, [r6, #88]	@ float
 2779 05d0 FEFFFFEB 		bl	nav_route_xy
 2780 05d4 E4319FE5 		ldr	r3, .L355+44
 2781 05d8 0080C3E5 		strb	r8, [r3]
 2782 05dc E0319FE5 		ldr	r3, .L355+48
 2783 05e0 004083E5 		str	r4, [r3]	@ float
 2784 05e4 0330A0E3 		mov	r3, #3
 2785 05e8 0030C5E5 		strb	r3, [r5]
 2786 05ec 682096E5 		ldr	r2, [r6, #104]	@ float
 2787 05f0 3F0000EA 		b	.L343
 2788              	.L304:
 2789 05f4 0530A0E3 		mov	r3, #5
 2790 05f8 0030C2E5 		strb	r3, [r2]
 2791 05fc F8319FE5 		ldr	r3, .L355+104
 2792 0600 0000D3E5 		ldrb	r0, [r3]	@ zero_extendqisi2
 2793 0604 FEFFFFEB 		bl	__aeabi_ui2f
 2794 0608 C8619FE5 		ldr	r6, .L355+68
 2795 060c 00008DE5 		str	r0, [sp]	@ float
 2796 0610 602096E5 		ldr	r2, [r6, #96]	@ float
 2797 0614 6C0096E5 		ldr	r0, [r6, #108]	@ float
 2798 0618 701096E5 		ldr	r1, [r6, #112]	@ float
 2799 061c 643096E5 		ldr	r3, [r6, #100]	@ float
 2800 0620 FEFFFFEB 		bl	nav_approaching_xy
 2801 0624 008050E2 		subs	r8, r0, #0
 2802 0628 74719FE5 		ldr	r7, .L355+16
 2803 062c 0920A013 		movne	r2, #9
 2804 0630 1C00001A 		bne	.L344
 2805 0634 6C2096E5 		ldr	r2, [r6, #108]	@ float
 2806 0638 703096E5 		ldr	r3, [r6, #112]	@ float
 2807 063c 600096E5 		ldr	r0, [r6, #96]	@ float
 2808 0640 641096E5 		ldr	r1, [r6, #100]	@ float
 2809 0644 FEFFFFEB 		bl	nav_route_xy
 2810 0648 70319FE5 		ldr	r3, .L355+44
 2811 064c 0080C3E5 		strb	r8, [r3]
 2812 0650 6C319FE5 		ldr	r3, .L355+48
 2813 0654 004083E5 		str	r4, [r3]	@ float
 2814 0658 0330A0E3 		mov	r3, #3
 2815 065c 0030C5E5 		strb	r3, [r5]
 2816 0660 742096E5 		ldr	r2, [r6, #116]	@ float
 2817 0664 220000EA 		b	.L343
 2818              	.L305:
 2819 0668 0630A0E3 		mov	r3, #6
 2820 066c 0030C2E5 		strb	r3, [r2]
 2821 0670 84319FE5 		ldr	r3, .L355+104
 2822 0674 0000D3E5 		ldrb	r0, [r3]	@ zero_extendqisi2
 2823 0678 FEFFFFEB 		bl	__aeabi_ui2f
 2824 067c 54619FE5 		ldr	r6, .L355+68
 2825 0680 00008DE5 		str	r0, [sp]	@ float
 2826 0684 3C0096E5 		ldr	r0, [r6, #60]	@ float
 2827 0688 401096E5 		ldr	r1, [r6, #64]	@ float
 2828 068c 6C2096E5 		ldr	r2, [r6, #108]	@ float
 2829 0690 703096E5 		ldr	r3, [r6, #112]	@ float
 2830 0694 FEFFFFEB 		bl	nav_approaching_xy
 2831 0698 008050E2 		subs	r8, r0, #0
 2832 069c 00719FE5 		ldr	r7, .L355+16
 2833 06a0 0700000A 		beq	.L311
 2834              	.L345:
 2835 06a4 0520A0E3 		mov	r2, #5
 2836              	.L344:
 2837 06a8 50319FE5 		ldr	r3, .L355+108
 2838 06ac 0020C3E5 		strb	r2, [r3]
 2839 06b0 0030D7E5 		ldrb	r3, [r7]	@ zero_extendqisi2
 2840 06b4 013083E2 		add	r3, r3, #1
 2841 06b8 0030C7E5 		strb	r3, [r7]
 2842              	.L339:
 2843 06bc FEFFFFEB 		bl	nav_init_stage
 2844 06c0 230000EA 		b	.L262
 2845              	.L311:
 2846 06c4 6C0096E5 		ldr	r0, [r6, #108]	@ float
 2847 06c8 701096E5 		ldr	r1, [r6, #112]	@ float
 2848 06cc 3C2096E5 		ldr	r2, [r6, #60]	@ float
 2849 06d0 403096E5 		ldr	r3, [r6, #64]	@ float
 2850 06d4 FEFFFFEB 		bl	nav_route_xy
 2851              	.L346:
 2852 06d8 E0309FE5 		ldr	r3, .L355+44
 2853 06dc 0080C3E5 		strb	r8, [r3]
 2854 06e0 DC309FE5 		ldr	r3, .L355+48
 2855 06e4 004083E5 		str	r4, [r3]	@ float
 2856 06e8 0330A0E3 		mov	r3, #3
 2857 06ec 0030C5E5 		strb	r3, [r5]
 2858 06f0 442096E5 		ldr	r2, [r6, #68]	@ float
 2859              	.L343:
 2860 06f4 E0309FE5 		ldr	r3, .L355+72
 2861 06f8 002083E5 		str	r2, [r3]	@ float
 2862 06fc DC309FE5 		ldr	r3, .L355+76
 2863 0700 004083E5 		str	r4, [r3]	@ float
 2864 0704 120000EA 		b	.L262
 2865              	.L297:
 2866 0708 0810A0E3 		mov	r1, #8
 2867 070c 0010C2E5 		strb	r1, [r2]
 2868 0710 0010C3E5 		strb	r1, [r3]
 2869 0714 0D0000EA 		b	.L340
 2870              	.L272:
 2871 0718 0820A0E3 		mov	r2, #8
 2872 071c 0020C3E5 		strb	r2, [r3]
 2873 0720 7C309FE5 		ldr	r3, .L355+16
 2874 0724 0020D3E5 		ldrb	r2, [r3]	@ zero_extendqisi2
 2875 0728 000052E3 		cmp	r2, #0
 2876 072c 0200001A 		bne	.L338
 2877 0730 0020C3E5 		strb	r2, [r3]
 2878 0734 FEFFFFEB 		bl	nav_home
 2879 0738 050000EA 		b	.L262
 2880              	.L338:
 2881 073c 0120A0E3 		mov	r2, #1
 2882 0740 0020C3E5 		strb	r2, [r3]
 2883 0744 0920A0E3 		mov	r2, #9
 2884              	.L342:
 2885 0748 4C309FE5 		ldr	r3, .L355+8
 2886              	.L341:
 2887 074c 0020C3E5 		strb	r2, [r3]
 2888              	.L340:
 2889 0750 FEFFFFEB 		bl	nav_init_block
 2890              	.L262:
 2891 0754 A8309FE5 		ldr	r3, .L355+112
 2892 0758 0030D3E5 		ldrb	r3, [r3]	@ zero_extendqisi2
 2893 075c 000053E3 		cmp	r3, #0
 2894 0760 A0309F15 		ldrne	r3, .L355+116
 2895 0764 A0209FE5 		ldr	r2, .L355+120
 2896 0768 00309315 		ldrne	r3, [r3]	@ float
 2897 076c 0030A003 		moveq	r3, #0
 2898 0770 003082E5 		str	r3, [r2]	@ float
 2899 0774 0030D5E5 		ldrb	r3, [r5]	@ zero_extendqisi2
 2900 0778 020053E3 		cmp	r3, #2
 2901 077c 8C309F05 		ldreq	r3, .L355+124
 2902 0780 0020A003 		moveq	r2, #0
 2903 0784 0020C305 		streqb	r2, [r3]
 2904 0788 0CD08DE2 		add	sp, sp, #12
 2905              		@ sp needed
 2906 078c F043BDE8 		ldmfd	sp!, {r4, r5, r6, r7, r8, r9, lr}
 2907 0790 FEFFFFEA 		b	nav_set_altitude
 2908              	.L356:
 2909              		.align	2
 2910              	.L355:
 2911 0794 00000000 		.word	nav_survey_active
 2912 0798 00000000 		.word	dist2_to_wp
 2913 079c 00000000 		.word	nav_block
 2914 07a0 00000000 		.word	v_ctl_mode
 2915 07a4 00000000 		.word	nav_stage
 2916 07a8 00000000 		.word	kill_throttle
 2917 07ac 00000000 		.word	gps
 2918 07b0 00000000 		.word	block_time
 2919 07b4 00000000 		.word	lateral_mode
 2920 07b8 00000000 		.word	pprz_mode
 2921 07bc 00000000 		.word	h_ctl_roll_setpoint
 2922 07c0 00000000 		.word	v_ctl_climb_mode
 2923 07c4 00000000 		.word	nav_pitch
 2924 07c8 00000000 		.word	nav_throttle_setpoint
 2925 07cc 00000000 		.word	estimator_z
 2926 07d0 00005243 		.word	1129447424
 2927 07d4 920A063F 		.word	1057360530
 2928 07d8 00000000 		.word	.LANCHOR7
 2929 07dc 00000000 		.word	.LANCHOR0
 2930 07e0 00000000 		.word	v_ctl_altitude_pre_climb
 2931 07e4 00000000 		.word	nav_radius
 2932 07e8 00000000 		.word	.LANCHOR14
 2933 07ec 0000A040 		.word	1084227584
 2934 07f0 00000000 		.word	last_x
 2935 07f4 00000000 		.word	last_y
 2936 07f8 00000000 		.word	horizontal_mode
 2937 07fc 00000000 		.word	route_ap_time
 2938 0800 00000000 		.word	.LANCHOR15
 2939 0804 00000000 		.word	.LANCHOR2
 2940 0808 00000000 		.word	.LANCHOR4
 2941 080c 00000000 		.word	h_ctl_course_pre_bank
 2942 0810 00000000 		.word	v_ctl_auto_throttle_submode
 2944              		.comm	nav_oval_count,1,1
 2945              		.global	max_dist_from_home
 2946              		.global	nav_utm_zone0
 2947              		.global	nav_utm_north0
 2948              		.global	nav_utm_east0
 2949              		.comm	ground_alt,4,4
 2950              		.global	waypoints
 2951              		.global	nb_waypoint
 2952              		.comm	too_far_from_home,1,1
 2953              		.comm	dist2_to_wp,4,4
 2954              		.comm	dist2_to_home,4,4
 2955              		.comm	fp_pitch,4,4
 2956              		.comm	nav_pitch,4,4
 2957              		.comm	nav_throttle_setpoint,2,2
 2958              		.comm	desired_y,4,4
 2959              		.comm	desired_x,4,4
 2960              		.global	nav_altitude
 2961              		.comm	nav_mode,4,4
 2962              		.comm	nav_survey_active,1,1
 2963              		.comm	nav_survey_south,4,4
 2964              		.comm	nav_survey_north,4,4
 2965              		.comm	nav_survey_east,4,4
 2966              		.comm	nav_survey_west,4,4
 2967              		.comm	nav_survey_shift,4,4
 2968              		.comm	nav_ground_speed_pgain,4,4
 2969              		.comm	nav_ground_speed_setpoint,4,4
 2970              		.comm	nav_glide_pitch_trim,4,4
 2971              		.comm	flight_altitude,4,4
 2972              		.global	circle_bank
 2973              		.comm	horizontal_mode,1,1
 2974              		.comm	nav_segment_y_2,4,4
 2975              		.comm	nav_segment_x_2,4,4
 2976              		.comm	nav_segment_y_1,4,4
 2977              		.comm	nav_segment_x_1,4,4
 2978              		.comm	nav_circle_radius,4,4
 2979              		.comm	nav_circle_y,4,4
 2980              		.comm	nav_circle_x,4,4
 2981              		.global	nav_in_segment
 2982              		.global	nav_in_circle
 2983              		.comm	nav_shift,4,4
 2984              		.comm	nav_climb,4,4
 2985              		.comm	nav_course,4,4
 2986              		.comm	nav_radius,4,4
 2987              		.comm	nav_circle_trigo_qdr,4,4
 2988              		.comm	nav_circle_radians,4,4
 2989              		.comm	carrot_y,4,4
 2990              		.comm	carrot_x,4,4
 2991              		.comm	rc_pitch,4,4
 2992              		.comm	last_y,4,4
 2993              		.comm	last_x,4,4
 2994              		.comm	oval_status,1,1
 2995              		.section	.bss.previous_ground_alt,"aw",%nobits
 2996              		.align	2
 2997              		.set	.LANCHOR11,. + 0
 3000              	previous_ground_alt:
 3001 0000 00000000 		.space	4
 3002              		.section	.bss.last_nav_altitude.6718,"aw",%nobits
 3003              		.align	2
 3004              		.set	.LANCHOR1,. + 0
 3007              	last_nav_altitude.6718:
 3008 0000 00000000 		.space	4
 3009              		.section	.data.max_dist_from_home,"aw",%progbits
 3010              		.align	2
 3011              		.set	.LANCHOR13,. + 0
 3014              	max_dist_from_home:
 3015 0000 0080BB44 		.word	1153138688
 3016              		.section	.bss.last_wp,"aw",%nobits
 3017              		.set	.LANCHOR15,. + 0
 3020              	last_wp:
 3021 0000 00       		.space	1
 3022              		.section	.data.nav_utm_zone0,"aw",%progbits
 3023              		.set	.LANCHOR8,. + 0
 3026              	nav_utm_zone0:
 3027 0000 12       		.byte	18
 3028              		.section	.data.nav_utm_north0,"aw",%progbits
 3029              		.align	2
 3030              		.set	.LANCHOR10,. + 0
 3033              	nav_utm_north0:
 3034 0000 52704000 		.word	4223058
 3035              		.section	.data.nav_altitude,"aw",%progbits
 3036              		.align	2
 3037              		.set	.LANCHOR0,. + 0
 3040              	nav_altitude:
 3041 0000 00004842 		.word	1112014848
 3042              		.section	.bss.nav_in_segment,"aw",%nobits
 3043              		.set	.LANCHOR3,. + 0
 3046              	nav_in_segment:
 3047 0000 00       		.space	1
 3048              		.section	.rodata.nb_waypoint,"a",%progbits
 3051              	nb_waypoint:
 3052 0000 0A       		.byte	10
 3053              		.section	.data.waypoints,"aw",%progbits
 3054              		.align	2
 3055              		.set	.LANCHOR7,. + 0
 3058              	waypoints:
 3059 0000 00002842 		.word	1109917696
 3060 0004 00002842 		.word	1109917696
 3061 0008 00009642 		.word	1117126656
 3062 000c 00000000 		.word	0
 3063 0010 00000000 		.word	0
 3064 0014 00009642 		.word	1117126656
 3065 0018 0000A041 		.word	1101004800
 3066 001c 0000A042 		.word	1117782016
 3067 0020 00009642 		.word	1117126656
 3068 0024 33333342 		.word	1110651699
 3069 0028 6666CC42 		.word	1120691814
 3070 002c 00009642 		.word	1117126656
 3071 0030 00007EC2 		.word	-1031929856
 3072 0034 CDCCF542 		.word	1123405005
 3073 0038 00009642 		.word	1117126656
 3074 003c 0000A0C1 		.word	-1046478848
 3075 0040 000048C2 		.word	-1035468800
 3076 0044 00009642 		.word	1117126656
 3077 0048 0000A0C1 		.word	-1046478848
 3078 004c 0000C8C1 		.word	-1043857408
 3079 0050 00009642 		.word	1117126656
 3080 0054 0000A0C1 		.word	-1046478848
 3081 0058 00000000 		.word	0
 3082 005c 00009642 		.word	1117126656
 3083 0060 0000A0C1 		.word	-1046478848
 3084 0064 0000C841 		.word	1103626240
 3085 0068 00009642 		.word	1117126656
 3086 006c 0000A0C1 		.word	-1046478848
 3087 0070 00004842 		.word	1112014848
 3088 0074 00009642 		.word	1117126656
 3089              		.section	.bss.prescaler.6706,"aw",%nobits
 3090              		.align	1
 3091              		.set	.LANCHOR12,. + 0
 3094              	prescaler.6706:
 3095 0000 0000     		.space	2
 3096              		.section	.bss.nav_in_circle,"aw",%nobits
 3097              		.set	.LANCHOR2,. + 0
 3100              	nav_in_circle:
 3101 0000 00       		.space	1
 3102              		.section	.bss.nav_leg_length,"aw",%nobits
 3103              		.align	2
 3104              		.set	.LANCHOR5,. + 0
 3107              	nav_leg_length:
 3108 0000 00000000 		.space	4
 3109              		.section	.bss.eight_status,"aw",%nobits
 3110              		.set	.LANCHOR14,. + 0
 3113              	eight_status:
 3114 0000 00       		.space	1
 3115              		.section	.data.nav_utm_east0,"aw",%progbits
 3116              		.align	2
 3117              		.set	.LANCHOR9,. + 0
 3120              	nav_utm_east0:
 3121 0000 69B80500 		.word	374889
 3122              		.section	.bss.circle_bank,"aw",%nobits
 3123              		.align	2
 3124              		.set	.LANCHOR4,. + 0
 3127              	circle_bank:
 3128 0000 00000000 		.space	4
 3129              		.section	.bss.nav_leg_progress,"aw",%nobits
 3130              		.align	2
 3131              		.set	.LANCHOR6,. + 0
 3134              	nav_leg_progress:
 3135 0000 00000000 		.space	4
 3136              		.ident	"GCC: (GNU Tools for ARM Embedded Processors) 4.8.3 20131129 (release) [ARM/embedded-4_8-br
DEFINED SYMBOLS
                            *ABS*:00000000 nav.c
     /tmp/ccRl5bIp.s:16     .text.nav_set_altitude:00000000 $a
     /tmp/ccRl5bIp.s:18     .text.nav_set_altitude:00000000 nav_set_altitude
     /tmp/ccRl5bIp.s:44     .text.nav_set_altitude:0000004c $d
                            *COM*:00000004 flight_altitude
     /tmp/ccRl5bIp.s:50     .text.nav_init_stage:00000000 $a
     /tmp/ccRl5bIp.s:53     .text.nav_init_stage:00000000 nav_init_stage
     /tmp/ccRl5bIp.s:84     .text.nav_init_stage:0000005c $d
                            *COM*:00000004 last_x
                            *COM*:00000004 last_y
                            *COM*:00000004 nav_circle_radians
                            *COM*:00000004 nav_shift
                            *COM*:00000004 nav_pitch
     /tmp/ccRl5bIp.s:99     .text.nav_approaching_xy:00000000 $a
     /tmp/ccRl5bIp.s:102    .text.nav_approaching_xy:00000000 nav_approaching_xy
     /tmp/ccRl5bIp.s:171    .text.nav_approaching_xy:000000f4 $d
                            *COM*:00000004 dist2_to_wp
     /tmp/ccRl5bIp.s:184    .text.fly_to_xy:00000000 $a
     /tmp/ccRl5bIp.s:187    .text.fly_to_xy:00000000 fly_to_xy
     /tmp/ccRl5bIp.s:361    .text.fly_to_xy:00000278 $d
                            *COM*:00000004 desired_x
                            *COM*:00000004 desired_y
                            *COM*:00000004 nav_mode
     /tmp/ccRl5bIp.s:387    .text.nav_circle_XY:00000000 $a
     /tmp/ccRl5bIp.s:390    .text.nav_circle_XY:00000000 nav_circle_XY
     /tmp/ccRl5bIp.s:666    .text.nav_circle_XY:00000414 $d
                            *COM*:00000004 nav_circle_trigo_qdr
                            *COM*:00000001 horizontal_mode
                            *COM*:00000004 nav_circle_x
                            *COM*:00000004 nav_circle_y
                            *COM*:00000004 nav_circle_radius
     /tmp/ccRl5bIp.s:693    .text.nav_route_xy:00000000 $a
     /tmp/ccRl5bIp.s:696    .text.nav_route_xy:00000000 nav_route_xy
     /tmp/ccRl5bIp.s:834    .text.nav_route_xy:00000200 $d
                            *COM*:00000004 nav_segment_x_1
                            *COM*:00000004 nav_segment_y_1
                            *COM*:00000004 nav_segment_x_2
                            *COM*:00000004 nav_segment_y_2
     /tmp/ccRl5bIp.s:848    .text.compute_dist2_to_home:00000000 $a
     /tmp/ccRl5bIp.s:851    .text.compute_dist2_to_home:00000000 compute_dist2_to_home
     /tmp/ccRl5bIp.s:891    .text.compute_dist2_to_home:00000084 $d
                            *COM*:00000004 dist2_to_home
                            *COM*:00000001 too_far_from_home
     /tmp/ccRl5bIp.s:902    .text.nav_reset_reference:00000000 $a
     /tmp/ccRl5bIp.s:905    .text.nav_reset_reference:00000000 nav_reset_reference
     /tmp/ccRl5bIp.s:977    .text.nav_reset_reference:00000100 $d
                            *COM*:00000004 ground_alt
     /tmp/ccRl5bIp.s:992    .text.nav_update_waypoints_alt:00000000 $a
     /tmp/ccRl5bIp.s:995    .text.nav_update_waypoints_alt:00000000 nav_update_waypoints_alt
     /tmp/ccRl5bIp.s:1022   .text.nav_update_waypoints_alt:0000004c $d
     /tmp/ccRl5bIp.s:1027   .text.common_nav_periodic_task_4Hz:00000000 $a
     /tmp/ccRl5bIp.s:1030   .text.common_nav_periodic_task_4Hz:00000000 common_nav_periodic_task_4Hz
     /tmp/ccRl5bIp.s:1055   .text.common_nav_periodic_task_4Hz:00000044 $d
     /tmp/ccRl5bIp.s:1061   .text.nav_move_waypoint:00000000 $a
     /tmp/ccRl5bIp.s:1064   .text.nav_move_waypoint:00000000 nav_move_waypoint
     /tmp/ccRl5bIp.s:1140   .text.nav_move_waypoint:00000108 $d
     /tmp/ccRl5bIp.s:1146   .text.nav_home:00000000 $a
     /tmp/ccRl5bIp.s:1149   .text.nav_home:00000000 nav_home
     /tmp/ccRl5bIp.s:1181   .text.nav_home:00000064 $d
     /tmp/ccRl5bIp.s:1192   .text.nav_init:00000000 $a
     /tmp/ccRl5bIp.s:1195   .text.nav_init:00000000 nav_init
     /tmp/ccRl5bIp.s:1223   .text.nav_init:00000050 $d
                            *COM*:00000004 nav_glide_pitch_trim
                            *COM*:00000004 nav_radius
                            *COM*:00000004 nav_survey_shift
     /tmp/ccRl5bIp.s:1234   .text.nav_without_gps:00000000 $a
     /tmp/ccRl5bIp.s:1237   .text.nav_without_gps:00000000 nav_without_gps
     /tmp/ccRl5bIp.s:1260   .text.nav_without_gps:0000003c $d
                            *COM*:00000002 nav_throttle_setpoint
     /tmp/ccRl5bIp.s:1267   .text.nav_eight_init:00000000 $a
     /tmp/ccRl5bIp.s:1270   .text.nav_eight_init:00000000 nav_eight_init
     /tmp/ccRl5bIp.s:1282   .text.nav_eight_init:00000010 $d
     /tmp/ccRl5bIp.s:1286   .text.nav_eight:00000000 $a
     /tmp/ccRl5bIp.s:1289   .text.nav_eight:00000000 nav_eight
     /tmp/ccRl5bIp.s:1483   .text.nav_eight:000002ec $d
     /tmp/ccRl5bIp.s:1490   .text.nav_eight:00000304 $a
     /tmp/ccRl5bIp.s:1827   .text.nav_eight:000007b8 $d
     /tmp/ccRl5bIp.s:1842   .text.nav_oval_init:00000000 $a
     /tmp/ccRl5bIp.s:1845   .text.nav_oval_init:00000000 nav_oval_init
     /tmp/ccRl5bIp.s:1860   .text.nav_oval_init:0000001c $d
                            *COM*:00000001 oval_status
                            *COM*:00000001 nav_oval_count
     /tmp/ccRl5bIp.s:1864   .text.nav_oval:00000000 $a
     /tmp/ccRl5bIp.s:1867   .text.nav_oval:00000000 nav_oval
     /tmp/ccRl5bIp.s:1988   .text.nav_oval:000001cc $d
     /tmp/ccRl5bIp.s:1993   .text.nav_oval:000001dc $a
     /tmp/ccRl5bIp.s:2347   .text.nav_oval:000006d8 $d
     /tmp/ccRl5bIp.s:2365   .text.nav_periodic_task:00000000 $a
     /tmp/ccRl5bIp.s:2368   .text.nav_periodic_task:00000000 nav_periodic_task
     /tmp/ccRl5bIp.s:2388   .text.nav_periodic_task:0000003c $d
     /tmp/ccRl5bIp.s:2398   .text.nav_periodic_task:00000060 $a
     /tmp/ccRl5bIp.s:2658   .text.nav_periodic_task:00000404 $d
     /tmp/ccRl5bIp.s:2667   .text.nav_periodic_task:00000424 $a
     /tmp/ccRl5bIp.s:2911   .text.nav_periodic_task:00000794 $d
                            *COM*:00000001 nav_survey_active
     /tmp/ccRl5bIp.s:3014   .data.max_dist_from_home:00000000 max_dist_from_home
     /tmp/ccRl5bIp.s:3026   .data.nav_utm_zone0:00000000 nav_utm_zone0
     /tmp/ccRl5bIp.s:3033   .data.nav_utm_north0:00000000 nav_utm_north0
     /tmp/ccRl5bIp.s:3120   .data.nav_utm_east0:00000000 nav_utm_east0
     /tmp/ccRl5bIp.s:3058   .data.waypoints:00000000 waypoints
     /tmp/ccRl5bIp.s:3051   .rodata.nb_waypoint:00000000 nb_waypoint
                            *COM*:00000004 fp_pitch
     /tmp/ccRl5bIp.s:3040   .data.nav_altitude:00000000 nav_altitude
                            *COM*:00000004 nav_survey_south
                            *COM*:00000004 nav_survey_north
                            *COM*:00000004 nav_survey_east
                            *COM*:00000004 nav_survey_west
                            *COM*:00000004 nav_ground_speed_pgain
                            *COM*:00000004 nav_ground_speed_setpoint
     /tmp/ccRl5bIp.s:3127   .bss.circle_bank:00000000 circle_bank
     /tmp/ccRl5bIp.s:3046   .bss.nav_in_segment:00000000 nav_in_segment
     /tmp/ccRl5bIp.s:3100   .bss.nav_in_circle:00000000 nav_in_circle
                            *COM*:00000004 nav_climb
                            *COM*:00000004 nav_course
                            *COM*:00000004 carrot_y
                            *COM*:00000004 carrot_x
                            *COM*:00000004 rc_pitch
     /tmp/ccRl5bIp.s:2996   .bss.previous_ground_alt:00000000 $d
     /tmp/ccRl5bIp.s:3000   .bss.previous_ground_alt:00000000 previous_ground_alt
     /tmp/ccRl5bIp.s:3003   .bss.last_nav_altitude.6718:00000000 $d
     /tmp/ccRl5bIp.s:3007   .bss.last_nav_altitude.6718:00000000 last_nav_altitude.6718
     /tmp/ccRl5bIp.s:3010   .data.max_dist_from_home:00000000 $d
     /tmp/ccRl5bIp.s:3020   .bss.last_wp:00000000 last_wp
     /tmp/ccRl5bIp.s:3021   .bss.last_wp:00000000 $d
     /tmp/ccRl5bIp.s:3029   .data.nav_utm_north0:00000000 $d
     /tmp/ccRl5bIp.s:3036   .data.nav_altitude:00000000 $d
     /tmp/ccRl5bIp.s:3047   .bss.nav_in_segment:00000000 $d
     /tmp/ccRl5bIp.s:3054   .data.waypoints:00000000 $d
     /tmp/ccRl5bIp.s:3090   .bss.prescaler.6706:00000000 $d
     /tmp/ccRl5bIp.s:3094   .bss.prescaler.6706:00000000 prescaler.6706
     /tmp/ccRl5bIp.s:3101   .bss.nav_in_circle:00000000 $d
     /tmp/ccRl5bIp.s:3103   .bss.nav_leg_length:00000000 $d
     /tmp/ccRl5bIp.s:3107   .bss.nav_leg_length:00000000 nav_leg_length
     /tmp/ccRl5bIp.s:3113   .bss.eight_status:00000000 eight_status
     /tmp/ccRl5bIp.s:3114   .bss.eight_status:00000000 $d
     /tmp/ccRl5bIp.s:3116   .data.nav_utm_east0:00000000 $d
     /tmp/ccRl5bIp.s:3123   .bss.circle_bank:00000000 $d
     /tmp/ccRl5bIp.s:3130   .bss.nav_leg_progress:00000000 $d
     /tmp/ccRl5bIp.s:3134   .bss.nav_leg_progress:00000000 nav_leg_progress

UNDEFINED SYMBOLS
__aeabi_fsub
__aeabi_fcmpgt
v_ctl_altitude_setpoint
estimator_x
estimator_y
stage_time
__aeabi_fmul
__aeabi_fadd
__aeabi_fcmplt
estimator_hspeed_mod
__aeabi_f2d
__aeabi_d2f
__aeabi_dadd
__aeabi_dsub
__aeabi_dcmpgt
__aeabi_dcmplt
__aeabi_ddiv
atan2
sin
atan
h_ctl_course_setpoint
estimator_hspeed_dir
h_ctl_course_pgain
h_ctl_roll_max_setpoint
h_ctl_roll_setpoint
lateral_mode
__aeabi_dmul
__aeabi_fdiv
cos
sqrt
__aeabi_i2d
__aeabi_d2uiz
__aeabi_f2iz
utm_of_lla_f
gps
block_time
__aeabi_i2f
v_ctl_mode
nav_block
nav_stage
__aeabi_fcmpge
__aeabi_ui2f
nav_init_block
kill_throttle
pprz_mode
v_ctl_climb_mode
estimator_z
v_ctl_altitude_pre_climb
route_ap_time
h_ctl_course_pre_bank
v_ctl_auto_throttle_submode
