   1              		.cpu arm7tdmi
   2              		.fpu softvfp
   3              		.eabi_attribute 20, 1
   4              		.eabi_attribute 21, 1
   5              		.eabi_attribute 23, 3
   6              		.eabi_attribute 24, 1
   7              		.eabi_attribute 25, 1
   8              		.eabi_attribute 26, 1
   9              		.eabi_attribute 30, 4
  10              		.eabi_attribute 18, 4
  11              		.file	"nav_line.c"
  12              		.section	.text.nav_line_init,"ax",%progbits
  13              		.align	2
  14              		.global	nav_line_init
  16              	nav_line_init:
  17              		@ Function supports interworking.
  18              		@ args = 0, pretend = 0, frame = 0
  19              		@ frame_needed = 0, uses_anonymous_args = 0
  20              		@ link register save eliminated.
  21 0000 08309FE5 		ldr	r3, .L2
  22 0004 0000A0E3 		mov	r0, #0
  23 0008 0000C3E5 		strb	r0, [r3, #0]
  24 000c 1EFF2FE1 		bx	lr
  25              	.L3:
  26              		.align	2
  27              	.L2:
  28 0010 00000000 		.word	.LANCHOR0
  30              		.global	__aeabi_fsub
  31              		.global	__aeabi_fmul
  32              		.global	__aeabi_fadd
  33              		.global	__aeabi_f2d
  34              		.global	__aeabi_d2f
  35              		.global	__aeabi_fdiv
  36              		.global	__aeabi_dmul
  37              		.global	__aeabi_dsub
  38              		.global	__aeabi_fcmplt
  39              		.global	__aeabi_fcmpge
  40              		.global	__aeabi_fcmpgt
  41              		.global	__aeabi_dadd
  42              		.section	.text.nav_line,"ax",%progbits
  43              		.align	2
  44              		.global	nav_line
  46              	nav_line:
  47              		@ Function supports interworking.
  48              		@ args = 0, pretend = 0, frame = 80
  49              		@ frame_needed = 0, uses_anonymous_args = 0
  50 0000 F04F2DE9 		stmfd	sp!, {r4, r5, r6, r7, r8, r9, sl, fp, lr}
  51 0004 0271C2E3 		bic	r7, r2, #-2147483648
  52 0008 0090A0E1 		mov	r9, r0
  53 000c 0C20A0E3 		mov	r2, #12
  54 0010 920909E0 		mul	r9, r2, r9
  55 0014 01A0A0E1 		mov	sl, r1
  56 0018 920A0AE0 		mul	sl, r2, sl
  57 001c 804E9FE5 		ldr	r4, .L176
  58 0020 095084E0 		add	r5, r4, r9
  59 0024 083095E5 		ldr	r3, [r5, #8]	@ float
  60 0028 5CD04DE2 		sub	sp, sp, #92
  61 002c 0AC084E0 		add	ip, r4, sl
  62 0030 30008DE5 		str	r0, [sp, #48]
  63 0034 34108DE5 		str	r1, [sp, #52]
  64 0038 090094E7 		ldr	r0, [r4, r9]	@ float
  65 003c 08308CE5 		str	r3, [ip, #8]	@ float
  66 0040 0A1094E7 		ldr	r1, [r4, sl]	@ float
  67 0044 0CC08DE5 		str	ip, [sp, #12]
  68 0048 FEFFFFEB 		bl	__aeabi_fsub
  69 004c 0CC09DE5 		ldr	ip, [sp, #12]
  70 0050 0080A0E1 		mov	r8, r0
  71 0054 04109CE5 		ldr	r1, [ip, #4]	@ float
  72 0058 040095E5 		ldr	r0, [r5, #4]	@ float
  73 005c FEFFFFEB 		bl	__aeabi_fsub
  74 0060 0810A0E1 		mov	r1, r8
  75 0064 0060A0E1 		mov	r6, r0
  76 0068 0800A0E1 		mov	r0, r8
  77 006c FEFFFFEB 		bl	__aeabi_fmul
  78 0070 0610A0E1 		mov	r1, r6
  79 0074 00B0A0E1 		mov	fp, r0
  80 0078 0600A0E1 		mov	r0, r6
  81 007c FEFFFFEB 		bl	__aeabi_fmul
  82 0080 0010A0E1 		mov	r1, r0
  83 0084 0B00A0E1 		mov	r0, fp
  84 0088 FEFFFFEB 		bl	__aeabi_fadd
  85 008c FEFFFFEB 		bl	__aeabi_f2d
  86 0090 FEFFFFEB 		bl	sqrt
  87 0094 FEFFFFEB 		bl	__aeabi_d2f
  88 0098 00B0A0E1 		mov	fp, r0
  89 009c 0B10A0E1 		mov	r1, fp
  90 00a0 0800A0E1 		mov	r0, r8
  91 00a4 FEFFFFEB 		bl	__aeabi_fdiv
  92 00a8 0B10A0E1 		mov	r1, fp
  93 00ac 0080A0E1 		mov	r8, r0
  94 00b0 0600A0E1 		mov	r0, r6
  95 00b4 FEFFFFEB 		bl	__aeabi_fdiv
  96 00b8 0060A0E1 		mov	r6, r0
  97 00bc 0610A0E1 		mov	r1, r6
  98 00c0 0700A0E1 		mov	r0, r7
  99 00c4 FEFFFFEB 		bl	__aeabi_fmul
 100 00c8 023188E2 		add	r3, r8, #-2147483648
 101 00cc 099094E7 		ldr	r9, [r4, r9]	@ float
 102 00d0 04B095E5 		ldr	fp, [r5, #4]	@ float
 103 00d4 3C308DE5 		str	r3, [sp, #60]
 104 00d8 3C109DE5 		ldr	r1, [sp, #60]	@ float
 105 00dc 38008DE5 		str	r0, [sp, #56]	@ float
 106 00e0 0700A0E1 		mov	r0, r7
 107 00e4 FEFFFFEB 		bl	__aeabi_fmul
 108 00e8 40008DE5 		str	r0, [sp, #64]	@ float
 109 00ec 0700A0E1 		mov	r0, r7
 110 00f0 FEFFFFEB 		bl	__aeabi_f2d
 111 00f4 AC2D9FE5 		ldr	r2, .L176+4
 112 00f8 AC3D9FE5 		ldr	r3, .L176+8
 113 00fc FEFFFFEB 		bl	__aeabi_dmul
 114 0100 10008DE5 		str	r0, [sp, #16]
 115 0104 14108DE5 		str	r1, [sp, #20]
 116 0108 0800A0E1 		mov	r0, r8
 117 010c FEFFFFEB 		bl	__aeabi_f2d
 118 0110 18008DE5 		str	r0, [sp, #24]
 119 0114 1C108DE5 		str	r1, [sp, #28]
 120 0118 0600A0E1 		mov	r0, r6
 121 011c FEFFFFEB 		bl	__aeabi_f2d
 122 0120 026186E2 		add	r6, r6, #-2147483648
 123 0124 44608DE5 		str	r6, [sp, #68]
 124 0128 20008DE5 		str	r0, [sp, #32]
 125 012c 24108DE5 		str	r1, [sp, #36]
 126 0130 44109DE5 		ldr	r1, [sp, #68]	@ float
 127 0134 0700A0E1 		mov	r0, r7
 128 0138 FEFFFFEB 		bl	__aeabi_fmul
 129 013c 0810A0E1 		mov	r1, r8
 130 0140 48008DE5 		str	r0, [sp, #72]	@ float
 131 0144 0700A0E1 		mov	r0, r7
 132 0148 FEFFFFEB 		bl	__aeabi_fmul
 133 014c 0CC09DE5 		ldr	ip, [sp, #12]
 134 0150 04C09CE5 		ldr	ip, [ip, #4]	@ float
 135 0154 18308DE2 		add	r3, sp, #24
 136 0158 0C0093E8 		ldmia	r3, {r2-r3}
 137 015c 4C008DE5 		str	r0, [sp, #76]	@ float
 138 0160 20108DE2 		add	r1, sp, #32
 139 0164 030091E8 		ldmia	r1, {r0-r1}
 140 0168 0A8094E7 		ldr	r8, [r4, sl]	@ float
 141 016c 2CC08DE5 		str	ip, [sp, #44]	@ float
 142 0170 FEFFFFEB 		bl	atan2
 143 0174 0020A0E1 		mov	r2, r0
 144 0178 0130A0E1 		mov	r3, r1
 145 017c 2C0D9FE5 		ldr	r0, .L176+12
 146 0180 2C1D9FE5 		ldr	r1, .L176+16
 147 0184 FEFFFFEB 		bl	__aeabi_dsub
 148 0188 FEFFFFEB 		bl	__aeabi_d2f
 149 018c 18308DE2 		add	r3, sp, #24
 150 0190 0C0093E8 		ldmia	r3, {r2-r3}
 151 0194 50008DE5 		str	r0, [sp, #80]	@ float
 152 0198 20108DE2 		add	r1, sp, #32
 153 019c 030091E8 		ldmia	r1, {r0-r1}
 154 01a0 FEFFFFEB 		bl	atan2
 155 01a4 0020A0E1 		mov	r2, r0
 156 01a8 0130A0E1 		mov	r3, r1
 157 01ac FC0C9FE5 		ldr	r0, .L176+12
 158 01b0 001D9FE5 		ldr	r1, .L176+20
 159 01b4 FEFFFFEB 		bl	__aeabi_dsub
 160 01b8 FEFFFFEB 		bl	__aeabi_d2f
 161 01bc 18308DE2 		add	r3, sp, #24
 162 01c0 0C0093E8 		ldmia	r3, {r2-r3}
 163 01c4 54008DE5 		str	r0, [sp, #84]	@ float
 164 01c8 20108DE2 		add	r1, sp, #32
 165 01cc 030091E8 		ldmia	r1, {r0-r1}
 166 01d0 FEFFFFEB 		bl	atan2
 167 01d4 0020A0E1 		mov	r2, r0
 168 01d8 0130A0E1 		mov	r3, r1
 169 01dc D80C9FE5 		ldr	r0, .L176+24
 170 01e0 D81C9FE5 		ldr	r1, .L176+28
 171 01e4 FEFFFFEB 		bl	__aeabi_dsub
 172 01e8 FEFFFFEB 		bl	__aeabi_d2f
 173 01ec D03C9FE5 		ldr	r3, .L176+32
 174 01f0 0020A0E3 		mov	r2, #0
 175 01f4 0020C3E5 		strb	r2, [r3, #0]
 176 01f8 C82C9FE5 		ldr	r2, .L176+36
 177 01fc 0030A0E3 		mov	r3, #0
 178 0200 003082E5 		str	r3, [r2, #0]	@ float
 179 0204 C02C9FE5 		ldr	r2, .L176+40
 180 0208 0310A0E3 		mov	r1, #3
 181 020c 0010C2E5 		strb	r1, [r2, #0]
 182 0210 B82C9FE5 		ldr	r2, .L176+44
 183 0214 081095E5 		ldr	r1, [r5, #8]	@ float
 184 0218 001082E5 		str	r1, [r2, #0]	@ float
 185 021c B02C9FE5 		ldr	r2, .L176+48
 186 0220 003082E5 		str	r3, [r2, #0]	@ float
 187 0224 AC3C9FE5 		ldr	r3, .L176+52
 188 0228 0030D3E5 		ldrb	r3, [r3, #0]	@ zero_extendqisi2
 189 022c 00A0A0E1 		mov	sl, r0
 190 0230 0C60A0E3 		mov	r6, #12
 191 0234 070053E3 		cmp	r3, #7
 192 0238 03F19F97 		ldrls	pc, [pc, r3, asl #2]
 193 023c 100300EA 		b	.L123
 194              	.L14:
 195 0240 60020000 		.word	.L6
 196 0244 C4020000 		.word	.L7
 197 0248 80040000 		.word	.L8
 198 024c 9C060000 		.word	.L9
 199 0250 64080000 		.word	.L10
 200 0254 BC080000 		.word	.L11
 201 0258 840A0000 		.word	.L12
 202 025c BC0C0000 		.word	.L13
 203              	.L6:
 204 0260 30209DE5 		ldr	r2, [sp, #48]
 205 0264 34509DE5 		ldr	r5, [sp, #52]
 206 0268 960505E0 		mul	r5, r6, r5
 207 026c 920606E0 		mul	r6, r2, r6
 208 0270 058084E0 		add	r8, r4, r5
 209 0274 067084E0 		add	r7, r4, r6
 210 0278 050094E7 		ldr	r0, [r4, r5]	@ float
 211 027c 062094E7 		ldr	r2, [r4, r6]	@ float
 212 0280 041098E5 		ldr	r1, [r8, #4]	@ float
 213 0284 043097E5 		ldr	r3, [r7, #4]	@ float
 214 0288 FEFFFFEB 		bl	nav_route_xy
 215 028c 483C9FE5 		ldr	r3, .L176+56
 216 0290 00308DE5 		str	r3, [sp, #0]	@ float
 217 0294 060094E7 		ldr	r0, [r4, r6]	@ float
 218 0298 052094E7 		ldr	r2, [r4, r5]	@ float
 219 029c 041097E5 		ldr	r1, [r7, #4]	@ float
 220 02a0 043098E5 		ldr	r3, [r8, #4]	@ float
 221 02a4 FEFFFFEB 		bl	nav_approaching_xy
 222 02a8 000050E3 		cmp	r0, #0
 223 02ac 0140A0E3 		mov	r4, #1
 224 02b0 F502000A 		beq	.L124
 225 02b4 1C3C9FE5 		ldr	r3, .L176+52
 226 02b8 0040C3E5 		strb	r4, [r3, #0]
 227 02bc FEFFFFEB 		bl	nav_init_stage
 228 02c0 F10200EA 		b	.L124
 229              	.L7:
 230 02c4 38109DE5 		ldr	r1, [sp, #56]	@ float
 231 02c8 0900A0E1 		mov	r0, r9
 232 02cc FEFFFFEB 		bl	__aeabi_fadd
 233 02d0 40109DE5 		ldr	r1, [sp, #64]	@ float
 234 02d4 0040A0E1 		mov	r4, r0
 235 02d8 0B00A0E1 		mov	r0, fp
 236 02dc FEFFFFEB 		bl	__aeabi_fadd
 237 02e0 0720A0E1 		mov	r2, r7
 238 02e4 0010A0E1 		mov	r1, r0
 239 02e8 0400A0E1 		mov	r0, r4
 240 02ec FEFFFFEB 		bl	nav_circle_XY
 241 02f0 50009DE5 		ldr	r0, [sp, #80]	@ float
 242 02f4 FEFFFFEB 		bl	__aeabi_f2d
 243 02f8 E02B9FE5 		ldr	r2, .L176+60
 244 02fc E03B9FE5 		ldr	r3, .L176+64
 245 0300 FEFFFFEB 		bl	__aeabi_dmul
 246 0304 0020A0E3 		mov	r2, #0
 247 0308 D83B9FE5 		ldr	r3, .L176+68
 248 030c FEFFFFEB 		bl	__aeabi_dsub
 249 0310 D43B9FE5 		ldr	r3, .L176+72
 250 0314 0040A0E1 		mov	r4, r0
 251 0318 000093E5 		ldr	r0, [r3, #0]	@ float
 252 031c 0150A0E1 		mov	r5, r1
 253 0320 FEFFFFEB 		bl	__aeabi_f2d
 254 0324 0020A0E1 		mov	r2, r0
 255 0328 0130A0E1 		mov	r3, r1
 256 032c 880B9FE5 		ldr	r0, .L176+24
 257 0330 B81B9FE5 		ldr	r1, .L176+76
 258 0334 FEFFFFEB 		bl	__aeabi_dsub
 259 0338 A02B9FE5 		ldr	r2, .L176+60
 260 033c A03B9FE5 		ldr	r3, .L176+64
 261 0340 FEFFFFEB 		bl	__aeabi_dmul
 262 0344 FEFFFFEB 		bl	__aeabi_d2f
 263 0348 0070A0E3 		mov	r7, #0
 264 034c 0060A0E1 		mov	r6, r0
 265 0350 030000EA 		b	.L15
 266              	.L18:
 267 0354 0600A0E1 		mov	r0, r6
 268 0358 941B9FE5 		ldr	r1, .L176+80
 269 035c FEFFFFEB 		bl	__aeabi_fadd
 270 0360 0060A0E1 		mov	r6, r0
 271              	.L15:
 272 0364 0600A0E1 		mov	r0, r6
 273 0368 0010A0E3 		mov	r1, #0
 274 036c FEFFFFEB 		bl	__aeabi_fcmplt
 275 0370 000050E3 		cmp	r0, #0
 276 0374 FF8007E2 		and	r8, r7, #255
 277 0378 0700000A 		beq	.L144
 278 037c 017087E2 		add	r7, r7, #1
 279 0380 010C57E3 		cmp	r7, #256
 280 0384 F2FFFF1A 		bne	.L18
 281 0388 0080A0E3 		mov	r8, #0
 282 038c 020000EA 		b	.L144
 283              	.L22:
 284 0390 5C1B9FE5 		ldr	r1, .L176+80
 285 0394 FEFFFFEB 		bl	__aeabi_fsub
 286 0398 0060A0E1 		mov	r6, r0
 287              	.L144:
 288 039c 0600A0E1 		mov	r0, r6
 289 03a0 4C1B9FE5 		ldr	r1, .L176+80
 290 03a4 FEFFFFEB 		bl	__aeabi_fcmpge
 291 03a8 000050E3 		cmp	r0, #0
 292 03ac 0600A0E1 		mov	r0, r6
 293 03b0 0200000A 		beq	.L20
 294 03b4 018088E2 		add	r8, r8, #1
 295 03b8 FF8018E2 		ands	r8, r8, #255
 296 03bc F3FFFF1A 		bne	.L22
 297              	.L20:
 298 03c0 FEFFFFEB 		bl	__aeabi_f2d
 299 03c4 0020A0E1 		mov	r2, r0
 300 03c8 0130A0E1 		mov	r3, r1
 301 03cc 0400A0E1 		mov	r0, r4
 302 03d0 0510A0E1 		mov	r1, r5
 303 03d4 FEFFFFEB 		bl	__aeabi_dsub
 304 03d8 FEFFFFEB 		bl	__aeabi_d2f
 305 03dc 0050A0E3 		mov	r5, #0
 306 03e0 0040A0E1 		mov	r4, r0
 307 03e4 030000EA 		b	.L23
 308              	.L26:
 309 03e8 0400A0E1 		mov	r0, r4
 310 03ec 001B9FE5 		ldr	r1, .L176+80
 311 03f0 FEFFFFEB 		bl	__aeabi_fadd
 312 03f4 0040A0E1 		mov	r4, r0
 313              	.L23:
 314 03f8 0400A0E1 		mov	r0, r4
 315 03fc 0010A0E3 		mov	r1, #0
 316 0400 FEFFFFEB 		bl	__aeabi_fcmplt
 317 0404 000050E3 		cmp	r0, #0
 318 0408 FF6005E2 		and	r6, r5, #255
 319 040c 0700000A 		beq	.L145
 320 0410 015085E2 		add	r5, r5, #1
 321 0414 010C55E3 		cmp	r5, #256
 322 0418 F2FFFF1A 		bne	.L26
 323 041c 0060A0E3 		mov	r6, #0
 324 0420 020000EA 		b	.L145
 325              	.L30:
 326 0424 C81A9FE5 		ldr	r1, .L176+80
 327 0428 FEFFFFEB 		bl	__aeabi_fsub
 328 042c 0040A0E1 		mov	r4, r0
 329              	.L145:
 330 0430 0400A0E1 		mov	r0, r4
 331 0434 B81A9FE5 		ldr	r1, .L176+80
 332 0438 FEFFFFEB 		bl	__aeabi_fcmpge
 333 043c 000050E3 		cmp	r0, #0
 334 0440 0400A0E1 		mov	r0, r4
 335 0444 0200000A 		beq	.L28
 336 0448 016086E2 		add	r6, r6, #1
 337 044c FF6016E2 		ands	r6, r6, #255
 338 0450 F3FFFF1A 		bne	.L30
 339              	.L28:
 340 0454 9C1A9FE5 		ldr	r1, .L176+84
 341 0458 FEFFFFEB 		bl	__aeabi_fcmpgt
 342 045c 000050E3 		cmp	r0, #0
 343 0460 0400001A 		bne	.L31
 344 0464 0400A0E1 		mov	r0, r4
 345 0468 8C1A9FE5 		ldr	r1, .L176+88
 346 046c FEFFFFEB 		bl	__aeabi_fcmplt
 347 0470 000050E3 		cmp	r0, #0
 348 0474 8602000A 		beq	.L161
 349              	.L31:
 350 0478 0220A0E3 		mov	r2, #2
 351 047c F40000EA 		b	.L175
 352              	.L8:
 353 0480 0900A0E1 		mov	r0, r9
 354 0484 FEFFFFEB 		bl	__aeabi_f2d
 355 0488 18308DE2 		add	r3, sp, #24
 356 048c 0C0093E8 		ldmia	r3, {r2-r3}
 357 0490 0040A0E1 		mov	r4, r0
 358 0494 0150A0E1 		mov	r5, r1
 359 0498 10108DE2 		add	r1, sp, #16
 360 049c 030091E8 		ldmia	r1, {r0-r1}
 361 04a0 FEFFFFEB 		bl	__aeabi_dmul
 362 04a4 0020A0E1 		mov	r2, r0
 363 04a8 0130A0E1 		mov	r3, r1
 364 04ac 0400A0E1 		mov	r0, r4
 365 04b0 0510A0E1 		mov	r1, r5
 366 04b4 FEFFFFEB 		bl	__aeabi_dadd
 367 04b8 FEFFFFEB 		bl	__aeabi_d2f
 368 04bc 0040A0E1 		mov	r4, r0
 369 04c0 0B00A0E1 		mov	r0, fp
 370 04c4 FEFFFFEB 		bl	__aeabi_f2d
 371 04c8 20308DE2 		add	r3, sp, #32
 372 04cc 0C0093E8 		ldmia	r3, {r2-r3}
 373 04d0 0080A0E1 		mov	r8, r0
 374 04d4 0190A0E1 		mov	r9, r1
 375 04d8 10108DE2 		add	r1, sp, #16
 376 04dc 030091E8 		ldmia	r1, {r0-r1}
 377 04e0 FEFFFFEB 		bl	__aeabi_dmul
 378 04e4 0130A0E1 		mov	r3, r1
 379 04e8 0020A0E1 		mov	r2, r0
 380 04ec 0910A0E1 		mov	r1, r9
 381 04f0 0800A0E1 		mov	r0, r8
 382 04f4 FEFFFFEB 		bl	__aeabi_dadd
 383 04f8 FEFFFFEB 		bl	__aeabi_d2f
 384 04fc 022187E2 		add	r2, r7, #-2147483648
 385 0500 0010A0E1 		mov	r1, r0
 386 0504 0400A0E1 		mov	r0, r4
 387 0508 FEFFFFEB 		bl	nav_circle_XY
 388 050c 54009DE5 		ldr	r0, [sp, #84]	@ float
 389 0510 FEFFFFEB 		bl	__aeabi_f2d
 390 0514 C4299FE5 		ldr	r2, .L176+60
 391 0518 C4399FE5 		ldr	r3, .L176+64
 392 051c FEFFFFEB 		bl	__aeabi_dmul
 393 0520 0020A0E3 		mov	r2, #0
 394 0524 BC399FE5 		ldr	r3, .L176+68
 395 0528 FEFFFFEB 		bl	__aeabi_dadd
 396 052c B8399FE5 		ldr	r3, .L176+72
 397 0530 0040A0E1 		mov	r4, r0
 398 0534 000093E5 		ldr	r0, [r3, #0]	@ float
 399 0538 0150A0E1 		mov	r5, r1
 400 053c FEFFFFEB 		bl	__aeabi_f2d
 401 0540 0020A0E1 		mov	r2, r0
 402 0544 0130A0E1 		mov	r3, r1
 403 0548 6C099FE5 		ldr	r0, .L176+24
 404 054c 9C199FE5 		ldr	r1, .L176+76
 405 0550 FEFFFFEB 		bl	__aeabi_dsub
 406 0554 84299FE5 		ldr	r2, .L176+60
 407 0558 84399FE5 		ldr	r3, .L176+64
 408 055c FEFFFFEB 		bl	__aeabi_dmul
 409 0560 FEFFFFEB 		bl	__aeabi_d2f
 410 0564 0070A0E3 		mov	r7, #0
 411 0568 0060A0E1 		mov	r6, r0
 412 056c 030000EA 		b	.L33
 413              	.L36:
 414 0570 0600A0E1 		mov	r0, r6
 415 0574 78199FE5 		ldr	r1, .L176+80
 416 0578 FEFFFFEB 		bl	__aeabi_fadd
 417 057c 0060A0E1 		mov	r6, r0
 418              	.L33:
 419 0580 0600A0E1 		mov	r0, r6
 420 0584 0010A0E3 		mov	r1, #0
 421 0588 FEFFFFEB 		bl	__aeabi_fcmplt
 422 058c 000050E3 		cmp	r0, #0
 423 0590 FF8007E2 		and	r8, r7, #255
 424 0594 0700000A 		beq	.L147
 425 0598 017087E2 		add	r7, r7, #1
 426 059c 010C57E3 		cmp	r7, #256
 427 05a0 F2FFFF1A 		bne	.L36
 428 05a4 0080A0E3 		mov	r8, #0
 429 05a8 020000EA 		b	.L147
 430              	.L40:
 431 05ac 40199FE5 		ldr	r1, .L176+80
 432 05b0 FEFFFFEB 		bl	__aeabi_fsub
 433 05b4 0060A0E1 		mov	r6, r0
 434              	.L147:
 435 05b8 0600A0E1 		mov	r0, r6
 436 05bc 30199FE5 		ldr	r1, .L176+80
 437 05c0 FEFFFFEB 		bl	__aeabi_fcmpge
 438 05c4 000050E3 		cmp	r0, #0
 439 05c8 0600A0E1 		mov	r0, r6
 440 05cc 0200000A 		beq	.L38
 441 05d0 018088E2 		add	r8, r8, #1
 442 05d4 FF8018E2 		ands	r8, r8, #255
 443 05d8 F3FFFF1A 		bne	.L40
 444              	.L38:
 445 05dc FEFFFFEB 		bl	__aeabi_f2d
 446 05e0 0020A0E1 		mov	r2, r0
 447 05e4 0130A0E1 		mov	r3, r1
 448 05e8 0400A0E1 		mov	r0, r4
 449 05ec 0510A0E1 		mov	r1, r5
 450 05f0 FEFFFFEB 		bl	__aeabi_dsub
 451 05f4 FEFFFFEB 		bl	__aeabi_d2f
 452 05f8 0050A0E3 		mov	r5, #0
 453 05fc 0040A0E1 		mov	r4, r0
 454 0600 030000EA 		b	.L41
 455              	.L44:
 456 0604 0400A0E1 		mov	r0, r4
 457 0608 E4189FE5 		ldr	r1, .L176+80
 458 060c FEFFFFEB 		bl	__aeabi_fadd
 459 0610 0040A0E1 		mov	r4, r0
 460              	.L41:
 461 0614 0400A0E1 		mov	r0, r4
 462 0618 0010A0E3 		mov	r1, #0
 463 061c FEFFFFEB 		bl	__aeabi_fcmplt
 464 0620 000050E3 		cmp	r0, #0
 465 0624 FF6005E2 		and	r6, r5, #255
 466 0628 0700000A 		beq	.L148
 467 062c 015085E2 		add	r5, r5, #1
 468 0630 010C55E3 		cmp	r5, #256
 469 0634 F2FFFF1A 		bne	.L44
 470 0638 0060A0E3 		mov	r6, #0
 471 063c 020000EA 		b	.L148
 472              	.L48:
 473 0640 AC189FE5 		ldr	r1, .L176+80
 474 0644 FEFFFFEB 		bl	__aeabi_fsub
 475 0648 0040A0E1 		mov	r4, r0
 476              	.L148:
 477 064c 0400A0E1 		mov	r0, r4
 478 0650 9C189FE5 		ldr	r1, .L176+80
 479 0654 FEFFFFEB 		bl	__aeabi_fcmpge
 480 0658 000050E3 		cmp	r0, #0
 481 065c 0400A0E1 		mov	r0, r4
 482 0660 0200000A 		beq	.L46
 483 0664 016086E2 		add	r6, r6, #1
 484 0668 FF6016E2 		ands	r6, r6, #255
 485 066c F3FFFF1A 		bne	.L48
 486              	.L46:
 487 0670 80189FE5 		ldr	r1, .L176+84
 488 0674 FEFFFFEB 		bl	__aeabi_fcmpgt
 489 0678 000050E3 		cmp	r0, #0
 490 067c 0400001A 		bne	.L49
 491 0680 0400A0E1 		mov	r0, r4
 492 0684 70189FE5 		ldr	r1, .L176+88
 493 0688 FEFFFFEB 		bl	__aeabi_fcmplt
 494 068c 000050E3 		cmp	r0, #0
 495 0690 FF01000A 		beq	.L161
 496              	.L49:
 497 0694 0320A0E3 		mov	r2, #3
 498 0698 6D0000EA 		b	.L175
 499              	.L9:
 500 069c 48109DE5 		ldr	r1, [sp, #72]	@ float
 501 06a0 0900A0E1 		mov	r0, r9
 502 06a4 FEFFFFEB 		bl	__aeabi_fadd
 503 06a8 4C109DE5 		ldr	r1, [sp, #76]	@ float
 504 06ac 0040A0E1 		mov	r4, r0
 505 06b0 0B00A0E1 		mov	r0, fp
 506 06b4 FEFFFFEB 		bl	__aeabi_fadd
 507 06b8 0720A0E1 		mov	r2, r7
 508 06bc 0010A0E1 		mov	r1, r0
 509 06c0 0400A0E1 		mov	r0, r4
 510 06c4 FEFFFFEB 		bl	nav_circle_XY
 511 06c8 0A00A0E1 		mov	r0, sl
 512 06cc FEFFFFEB 		bl	__aeabi_f2d
 513 06d0 08289FE5 		ldr	r2, .L176+60
 514 06d4 08389FE5 		ldr	r3, .L176+64
 515 06d8 FEFFFFEB 		bl	__aeabi_dmul
 516 06dc 0020A0E3 		mov	r2, #0
 517 06e0 00389FE5 		ldr	r3, .L176+68
 518 06e4 FEFFFFEB 		bl	__aeabi_dsub
 519 06e8 FC379FE5 		ldr	r3, .L176+72
 520 06ec 0040A0E1 		mov	r4, r0
 521 06f0 000093E5 		ldr	r0, [r3, #0]	@ float
 522 06f4 0150A0E1 		mov	r5, r1
 523 06f8 FEFFFFEB 		bl	__aeabi_f2d
 524 06fc 0020A0E1 		mov	r2, r0
 525 0700 0130A0E1 		mov	r3, r1
 526 0704 B0079FE5 		ldr	r0, .L176+24
 527 0708 E0179FE5 		ldr	r1, .L176+76
 528 070c FEFFFFEB 		bl	__aeabi_dsub
 529 0710 C8279FE5 		ldr	r2, .L176+60
 530 0714 C8379FE5 		ldr	r3, .L176+64
 531 0718 FEFFFFEB 		bl	__aeabi_dmul
 532 071c FEFFFFEB 		bl	__aeabi_d2f
 533 0720 0070A0E3 		mov	r7, #0
 534 0724 0060A0E1 		mov	r6, r0
 535 0728 030000EA 		b	.L51
 536              	.L54:
 537 072c 0600A0E1 		mov	r0, r6
 538 0730 BC179FE5 		ldr	r1, .L176+80
 539 0734 FEFFFFEB 		bl	__aeabi_fadd
 540 0738 0060A0E1 		mov	r6, r0
 541              	.L51:
 542 073c 0600A0E1 		mov	r0, r6
 543 0740 0010A0E3 		mov	r1, #0
 544 0744 FEFFFFEB 		bl	__aeabi_fcmplt
 545 0748 000050E3 		cmp	r0, #0
 546 074c FF8007E2 		and	r8, r7, #255
 547 0750 0700000A 		beq	.L150
 548 0754 017087E2 		add	r7, r7, #1
 549 0758 010C57E3 		cmp	r7, #256
 550 075c F2FFFF1A 		bne	.L54
 551 0760 0080A0E3 		mov	r8, #0
 552 0764 020000EA 		b	.L150
 553              	.L58:
 554 0768 84179FE5 		ldr	r1, .L176+80
 555 076c FEFFFFEB 		bl	__aeabi_fsub
 556 0770 0060A0E1 		mov	r6, r0
 557              	.L150:
 558 0774 0600A0E1 		mov	r0, r6
 559 0778 74179FE5 		ldr	r1, .L176+80
 560 077c FEFFFFEB 		bl	__aeabi_fcmpge
 561 0780 000050E3 		cmp	r0, #0
 562 0784 0600A0E1 		mov	r0, r6
 563 0788 0200000A 		beq	.L56
 564 078c 018088E2 		add	r8, r8, #1
 565 0790 FF8018E2 		ands	r8, r8, #255
 566 0794 F3FFFF1A 		bne	.L58
 567              	.L56:
 568 0798 FEFFFFEB 		bl	__aeabi_f2d
 569 079c 0020A0E1 		mov	r2, r0
 570 07a0 0130A0E1 		mov	r3, r1
 571 07a4 0400A0E1 		mov	r0, r4
 572 07a8 0510A0E1 		mov	r1, r5
 573 07ac FEFFFFEB 		bl	__aeabi_dsub
 574 07b0 FEFFFFEB 		bl	__aeabi_d2f
 575 07b4 0050A0E3 		mov	r5, #0
 576 07b8 0040A0E1 		mov	r4, r0
 577 07bc 030000EA 		b	.L59
 578              	.L62:
 579 07c0 0400A0E1 		mov	r0, r4
 580 07c4 28179FE5 		ldr	r1, .L176+80
 581 07c8 FEFFFFEB 		bl	__aeabi_fadd
 582 07cc 0040A0E1 		mov	r4, r0
 583              	.L59:
 584 07d0 0400A0E1 		mov	r0, r4
 585 07d4 0010A0E3 		mov	r1, #0
 586 07d8 FEFFFFEB 		bl	__aeabi_fcmplt
 587 07dc 000050E3 		cmp	r0, #0
 588 07e0 FF6005E2 		and	r6, r5, #255
 589 07e4 0700000A 		beq	.L151
 590 07e8 015085E2 		add	r5, r5, #1
 591 07ec 010C55E3 		cmp	r5, #256
 592 07f0 F2FFFF1A 		bne	.L62
 593 07f4 0060A0E3 		mov	r6, #0
 594 07f8 020000EA 		b	.L151
 595              	.L66:
 596 07fc F0169FE5 		ldr	r1, .L176+80
 597 0800 FEFFFFEB 		bl	__aeabi_fsub
 598 0804 0040A0E1 		mov	r4, r0
 599              	.L151:
 600 0808 0400A0E1 		mov	r0, r4
 601 080c E0169FE5 		ldr	r1, .L176+80
 602 0810 FEFFFFEB 		bl	__aeabi_fcmpge
 603 0814 000050E3 		cmp	r0, #0
 604 0818 0400A0E1 		mov	r0, r4
 605 081c 0200000A 		beq	.L64
 606 0820 016086E2 		add	r6, r6, #1
 607 0824 FF6016E2 		ands	r6, r6, #255
 608 0828 F3FFFF1A 		bne	.L66
 609              	.L64:
 610 082c C4169FE5 		ldr	r1, .L176+84
 611 0830 FEFFFFEB 		bl	__aeabi_fcmpgt
 612 0834 000050E3 		cmp	r0, #0
 613 0838 0400001A 		bne	.L67
 614 083c 0400A0E1 		mov	r0, r4
 615 0840 B4169FE5 		ldr	r1, .L176+88
 616 0844 FEFFFFEB 		bl	__aeabi_fcmplt
 617 0848 000050E3 		cmp	r0, #0
 618 084c 9001000A 		beq	.L161
 619              	.L67:
 620 0850 0420A0E3 		mov	r2, #4
 621              	.L175:
 622 0854 7C369FE5 		ldr	r3, .L176+52
 623 0858 0020C3E5 		strb	r2, [r3, #0]
 624 085c FEFFFFEB 		bl	nav_init_stage
 625 0860 8B0100EA 		b	.L161
 626              	.L10:
 627 0864 34309DE5 		ldr	r3, [sp, #52]
 628 0868 30709DE5 		ldr	r7, [sp, #48]
 629 086c 960707E0 		mul	r7, r6, r7
 630 0870 930606E0 		mul	r6, r3, r6
 631 0874 078084E0 		add	r8, r4, r7
 632 0878 065084E0 		add	r5, r4, r6
 633 087c 070094E7 		ldr	r0, [r4, r7]	@ float
 634 0880 041098E5 		ldr	r1, [r8, #4]	@ float
 635 0884 062094E7 		ldr	r2, [r4, r6]	@ float
 636 0888 043095E5 		ldr	r3, [r5, #4]	@ float
 637 088c FEFFFFEB 		bl	nav_route_xy
 638 0890 44369FE5 		ldr	r3, .L176+56
 639 0894 00308DE5 		str	r3, [sp, #0]	@ float
 640 0898 072094E7 		ldr	r2, [r4, r7]	@ float
 641 089c 060094E7 		ldr	r0, [r4, r6]	@ float
 642 08a0 041095E5 		ldr	r1, [r5, #4]	@ float
 643 08a4 043098E5 		ldr	r3, [r8, #4]	@ float
 644 08a8 FEFFFFEB 		bl	nav_approaching_xy
 645 08ac 000050E3 		cmp	r0, #0
 646 08b0 0520A013 		movne	r2, #5
 647 08b4 7601000A 		beq	.L161
 648 08b8 E5FFFFEA 		b	.L175
 649              	.L11:
 650 08bc 48109DE5 		ldr	r1, [sp, #72]	@ float
 651 08c0 0800A0E1 		mov	r0, r8
 652 08c4 FEFFFFEB 		bl	__aeabi_fadd
 653 08c8 4C109DE5 		ldr	r1, [sp, #76]	@ float
 654 08cc 0040A0E1 		mov	r4, r0
 655 08d0 2C009DE5 		ldr	r0, [sp, #44]	@ float
 656 08d4 FEFFFFEB 		bl	__aeabi_fadd
 657 08d8 0720A0E1 		mov	r2, r7
 658 08dc 0010A0E1 		mov	r1, r0
 659 08e0 0400A0E1 		mov	r0, r4
 660 08e4 FEFFFFEB 		bl	nav_circle_XY
 661 08e8 50009DE5 		ldr	r0, [sp, #80]	@ float
 662 08ec FEFFFFEB 		bl	__aeabi_f2d
 663 08f0 C4259FE5 		ldr	r2, .L176+24
 664 08f4 C4359FE5 		ldr	r3, .L176+28
 665 08f8 FEFFFFEB 		bl	__aeabi_dadd
 666 08fc DC259FE5 		ldr	r2, .L176+60
 667 0900 DC359FE5 		ldr	r3, .L176+64
 668 0904 FEFFFFEB 		bl	__aeabi_dmul
 669 0908 0020A0E3 		mov	r2, #0
 670 090c D4359FE5 		ldr	r3, .L176+68
 671 0910 FEFFFFEB 		bl	__aeabi_dsub
 672 0914 D0359FE5 		ldr	r3, .L176+72
 673 0918 0040A0E1 		mov	r4, r0
 674 091c 000093E5 		ldr	r0, [r3, #0]	@ float
 675 0920 0150A0E1 		mov	r5, r1
 676 0924 FEFFFFEB 		bl	__aeabi_f2d
 677 0928 0020A0E1 		mov	r2, r0
 678 092c 0130A0E1 		mov	r3, r1
 679 0930 84059FE5 		ldr	r0, .L176+24
 680 0934 B4159FE5 		ldr	r1, .L176+76
 681 0938 FEFFFFEB 		bl	__aeabi_dsub
 682 093c 9C259FE5 		ldr	r2, .L176+60
 683 0940 9C359FE5 		ldr	r3, .L176+64
 684 0944 FEFFFFEB 		bl	__aeabi_dmul
 685 0948 FEFFFFEB 		bl	__aeabi_d2f
 686 094c 0070A0E3 		mov	r7, #0
 687 0950 0060A0E1 		mov	r6, r0
 688 0954 030000EA 		b	.L69
 689              	.L72:
 690 0958 0600A0E1 		mov	r0, r6
 691 095c 90159FE5 		ldr	r1, .L176+80
 692 0960 FEFFFFEB 		bl	__aeabi_fadd
 693 0964 0060A0E1 		mov	r6, r0
 694              	.L69:
 695 0968 0600A0E1 		mov	r0, r6
 696 096c 0010A0E3 		mov	r1, #0
 697 0970 FEFFFFEB 		bl	__aeabi_fcmplt
 698 0974 000050E3 		cmp	r0, #0
 699 0978 FF8007E2 		and	r8, r7, #255
 700 097c 0700000A 		beq	.L153
 701 0980 017087E2 		add	r7, r7, #1
 702 0984 010C57E3 		cmp	r7, #256
 703 0988 F2FFFF1A 		bne	.L72
 704 098c 0080A0E3 		mov	r8, #0
 705 0990 020000EA 		b	.L153
 706              	.L76:
 707 0994 58159FE5 		ldr	r1, .L176+80
 708 0998 FEFFFFEB 		bl	__aeabi_fsub
 709 099c 0060A0E1 		mov	r6, r0
 710              	.L153:
 711 09a0 0600A0E1 		mov	r0, r6
 712 09a4 48159FE5 		ldr	r1, .L176+80
 713 09a8 FEFFFFEB 		bl	__aeabi_fcmpge
 714 09ac 000050E3 		cmp	r0, #0
 715 09b0 0600A0E1 		mov	r0, r6
 716 09b4 0200000A 		beq	.L74
 717 09b8 018088E2 		add	r8, r8, #1
 718 09bc FF8018E2 		ands	r8, r8, #255
 719 09c0 F3FFFF1A 		bne	.L76
 720              	.L74:
 721 09c4 FEFFFFEB 		bl	__aeabi_f2d
 722 09c8 0020A0E1 		mov	r2, r0
 723 09cc 0130A0E1 		mov	r3, r1
 724 09d0 0400A0E1 		mov	r0, r4
 725 09d4 0510A0E1 		mov	r1, r5
 726 09d8 FEFFFFEB 		bl	__aeabi_dsub
 727 09dc FEFFFFEB 		bl	__aeabi_d2f
 728 09e0 0050A0E3 		mov	r5, #0
 729 09e4 0040A0E1 		mov	r4, r0
 730 09e8 030000EA 		b	.L77
 731              	.L80:
 732 09ec 0400A0E1 		mov	r0, r4
 733 09f0 FC149FE5 		ldr	r1, .L176+80
 734 09f4 FEFFFFEB 		bl	__aeabi_fadd
 735 09f8 0040A0E1 		mov	r4, r0
 736              	.L77:
 737 09fc 0400A0E1 		mov	r0, r4
 738 0a00 0010A0E3 		mov	r1, #0
 739 0a04 FEFFFFEB 		bl	__aeabi_fcmplt
 740 0a08 000050E3 		cmp	r0, #0
 741 0a0c FF6005E2 		and	r6, r5, #255
 742 0a10 0700000A 		beq	.L154
 743 0a14 015085E2 		add	r5, r5, #1
 744 0a18 010C55E3 		cmp	r5, #256
 745 0a1c F2FFFF1A 		bne	.L80
 746 0a20 0060A0E3 		mov	r6, #0
 747 0a24 020000EA 		b	.L154
 748              	.L84:
 749 0a28 C4149FE5 		ldr	r1, .L176+80
 750 0a2c FEFFFFEB 		bl	__aeabi_fsub
 751 0a30 0040A0E1 		mov	r4, r0
 752              	.L154:
 753 0a34 0400A0E1 		mov	r0, r4
 754 0a38 B4149FE5 		ldr	r1, .L176+80
 755 0a3c FEFFFFEB 		bl	__aeabi_fcmpge
 756 0a40 000050E3 		cmp	r0, #0
 757 0a44 0400A0E1 		mov	r0, r4
 758 0a48 0200000A 		beq	.L82
 759 0a4c 016086E2 		add	r6, r6, #1
 760 0a50 FF6016E2 		ands	r6, r6, #255
 761 0a54 F3FFFF1A 		bne	.L84
 762              	.L82:
 763 0a58 98149FE5 		ldr	r1, .L176+84
 764 0a5c FEFFFFEB 		bl	__aeabi_fcmpgt
 765 0a60 000050E3 		cmp	r0, #0
 766 0a64 0400001A 		bne	.L85
 767 0a68 0400A0E1 		mov	r0, r4
 768 0a6c 88149FE5 		ldr	r1, .L176+88
 769 0a70 FEFFFFEB 		bl	__aeabi_fcmplt
 770 0a74 000050E3 		cmp	r0, #0
 771 0a78 0501000A 		beq	.L161
 772              	.L85:
 773 0a7c 0620A0E3 		mov	r2, #6
 774 0a80 73FFFFEA 		b	.L175
 775              	.L12:
 776 0a84 0800A0E1 		mov	r0, r8
 777 0a88 FEFFFFEB 		bl	__aeabi_f2d
 778 0a8c 0040A0E1 		mov	r4, r0
 779 0a90 3C009DE5 		ldr	r0, [sp, #60]	@ float
 780 0a94 0150A0E1 		mov	r5, r1
 781 0a98 FEFFFFEB 		bl	__aeabi_f2d
 782 0a9c 0020A0E1 		mov	r2, r0
 783 0aa0 0130A0E1 		mov	r3, r1
 784 0aa4 10108DE2 		add	r1, sp, #16
 785 0aa8 030091E8 		ldmia	r1, {r0-r1}
 786 0aac FEFFFFEB 		bl	__aeabi_dmul
 787 0ab0 0020A0E1 		mov	r2, r0
 788 0ab4 0130A0E1 		mov	r3, r1
 789 0ab8 0400A0E1 		mov	r0, r4
 790 0abc 0510A0E1 		mov	r1, r5
 791 0ac0 FEFFFFEB 		bl	__aeabi_dadd
 792 0ac4 FEFFFFEB 		bl	__aeabi_d2f
 793 0ac8 0040A0E1 		mov	r4, r0
 794 0acc 2C009DE5 		ldr	r0, [sp, #44]	@ float
 795 0ad0 FEFFFFEB 		bl	__aeabi_f2d
 796 0ad4 0080A0E1 		mov	r8, r0
 797 0ad8 44009DE5 		ldr	r0, [sp, #68]	@ float
 798 0adc 0190A0E1 		mov	r9, r1
 799 0ae0 FEFFFFEB 		bl	__aeabi_f2d
 800 0ae4 0020A0E1 		mov	r2, r0
 801 0ae8 0130A0E1 		mov	r3, r1
 802 0aec 10108DE2 		add	r1, sp, #16
 803 0af0 030091E8 		ldmia	r1, {r0-r1}
 804 0af4 FEFFFFEB 		bl	__aeabi_dmul
 805 0af8 0130A0E1 		mov	r3, r1
 806 0afc 0020A0E1 		mov	r2, r0
 807 0b00 0910A0E1 		mov	r1, r9
 808 0b04 0800A0E1 		mov	r0, r8
 809 0b08 FEFFFFEB 		bl	__aeabi_dadd
 810 0b0c FEFFFFEB 		bl	__aeabi_d2f
 811 0b10 022187E2 		add	r2, r7, #-2147483648
 812 0b14 0010A0E1 		mov	r1, r0
 813 0b18 0400A0E1 		mov	r0, r4
 814 0b1c FEFFFFEB 		bl	nav_circle_XY
 815 0b20 54009DE5 		ldr	r0, [sp, #84]	@ float
 816 0b24 FEFFFFEB 		bl	__aeabi_f2d
 817 0b28 8C239FE5 		ldr	r2, .L176+24
 818 0b2c 8C339FE5 		ldr	r3, .L176+28
 819 0b30 FEFFFFEB 		bl	__aeabi_dadd
 820 0b34 A4239FE5 		ldr	r2, .L176+60
 821 0b38 A4339FE5 		ldr	r3, .L176+64
 822 0b3c FEFFFFEB 		bl	__aeabi_dmul
 823 0b40 0020A0E3 		mov	r2, #0
 824 0b44 9C339FE5 		ldr	r3, .L176+68
 825 0b48 FEFFFFEB 		bl	__aeabi_dadd
 826 0b4c 98339FE5 		ldr	r3, .L176+72
 827 0b50 0040A0E1 		mov	r4, r0
 828 0b54 000093E5 		ldr	r0, [r3, #0]	@ float
 829 0b58 0150A0E1 		mov	r5, r1
 830 0b5c FEFFFFEB 		bl	__aeabi_f2d
 831 0b60 0020A0E1 		mov	r2, r0
 832 0b64 0130A0E1 		mov	r3, r1
 833 0b68 4C039FE5 		ldr	r0, .L176+24
 834 0b6c 7C139FE5 		ldr	r1, .L176+76
 835 0b70 FEFFFFEB 		bl	__aeabi_dsub
 836 0b74 64239FE5 		ldr	r2, .L176+60
 837 0b78 64339FE5 		ldr	r3, .L176+64
 838 0b7c FEFFFFEB 		bl	__aeabi_dmul
 839 0b80 FEFFFFEB 		bl	__aeabi_d2f
 840 0b84 0070A0E3 		mov	r7, #0
 841 0b88 0060A0E1 		mov	r6, r0
 842 0b8c 030000EA 		b	.L87
 843              	.L90:
 844 0b90 0600A0E1 		mov	r0, r6
 845 0b94 58139FE5 		ldr	r1, .L176+80
 846 0b98 FEFFFFEB 		bl	__aeabi_fadd
 847 0b9c 0060A0E1 		mov	r6, r0
 848              	.L87:
 849 0ba0 0600A0E1 		mov	r0, r6
 850 0ba4 0010A0E3 		mov	r1, #0
 851 0ba8 FEFFFFEB 		bl	__aeabi_fcmplt
 852 0bac 000050E3 		cmp	r0, #0
 853 0bb0 FF8007E2 		and	r8, r7, #255
 854 0bb4 0700000A 		beq	.L156
 855 0bb8 017087E2 		add	r7, r7, #1
 856 0bbc 010C57E3 		cmp	r7, #256
 857 0bc0 F2FFFF1A 		bne	.L90
 858 0bc4 0080A0E3 		mov	r8, #0
 859 0bc8 020000EA 		b	.L156
 860              	.L94:
 861 0bcc 20139FE5 		ldr	r1, .L176+80
 862 0bd0 FEFFFFEB 		bl	__aeabi_fsub
 863 0bd4 0060A0E1 		mov	r6, r0
 864              	.L156:
 865 0bd8 0600A0E1 		mov	r0, r6
 866 0bdc 10139FE5 		ldr	r1, .L176+80
 867 0be0 FEFFFFEB 		bl	__aeabi_fcmpge
 868 0be4 000050E3 		cmp	r0, #0
 869 0be8 0600A0E1 		mov	r0, r6
 870 0bec 0200000A 		beq	.L92
 871 0bf0 018088E2 		add	r8, r8, #1
 872 0bf4 FF8018E2 		ands	r8, r8, #255
 873 0bf8 F3FFFF1A 		bne	.L94
 874              	.L92:
 875 0bfc FEFFFFEB 		bl	__aeabi_f2d
 876 0c00 0020A0E1 		mov	r2, r0
 877 0c04 0130A0E1 		mov	r3, r1
 878 0c08 0400A0E1 		mov	r0, r4
 879 0c0c 0510A0E1 		mov	r1, r5
 880 0c10 FEFFFFEB 		bl	__aeabi_dsub
 881 0c14 FEFFFFEB 		bl	__aeabi_d2f
 882 0c18 0050A0E3 		mov	r5, #0
 883 0c1c 0040A0E1 		mov	r4, r0
 884 0c20 030000EA 		b	.L95
 885              	.L98:
 886 0c24 0400A0E1 		mov	r0, r4
 887 0c28 C4129FE5 		ldr	r1, .L176+80
 888 0c2c FEFFFFEB 		bl	__aeabi_fadd
 889 0c30 0040A0E1 		mov	r4, r0
 890              	.L95:
 891 0c34 0400A0E1 		mov	r0, r4
 892 0c38 0010A0E3 		mov	r1, #0
 893 0c3c FEFFFFEB 		bl	__aeabi_fcmplt
 894 0c40 000050E3 		cmp	r0, #0
 895 0c44 FF6005E2 		and	r6, r5, #255
 896 0c48 0700000A 		beq	.L157
 897 0c4c 015085E2 		add	r5, r5, #1
 898 0c50 010C55E3 		cmp	r5, #256
 899 0c54 F2FFFF1A 		bne	.L98
 900 0c58 0060A0E3 		mov	r6, #0
 901 0c5c 020000EA 		b	.L157
 902              	.L102:
 903 0c60 8C129FE5 		ldr	r1, .L176+80
 904 0c64 FEFFFFEB 		bl	__aeabi_fsub
 905 0c68 0040A0E1 		mov	r4, r0
 906              	.L157:
 907 0c6c 0400A0E1 		mov	r0, r4
 908 0c70 7C129FE5 		ldr	r1, .L176+80
 909 0c74 FEFFFFEB 		bl	__aeabi_fcmpge
 910 0c78 000050E3 		cmp	r0, #0
 911 0c7c 0400A0E1 		mov	r0, r4
 912 0c80 0200000A 		beq	.L100
 913 0c84 016086E2 		add	r6, r6, #1
 914 0c88 FF6016E2 		ands	r6, r6, #255
 915 0c8c F3FFFF1A 		bne	.L102
 916              	.L100:
 917 0c90 60129FE5 		ldr	r1, .L176+84
 918 0c94 FEFFFFEB 		bl	__aeabi_fcmpgt
 919 0c98 000050E3 		cmp	r0, #0
 920 0c9c 0400001A 		bne	.L103
 921 0ca0 0400A0E1 		mov	r0, r4
 922 0ca4 50129FE5 		ldr	r1, .L176+88
 923 0ca8 FEFFFFEB 		bl	__aeabi_fcmplt
 924 0cac 000050E3 		cmp	r0, #0
 925 0cb0 7700000A 		beq	.L161
 926              	.L103:
 927 0cb4 0720A0E3 		mov	r2, #7
 928 0cb8 E5FEFFEA 		b	.L175
 929              	.L13:
 930 0cbc 38109DE5 		ldr	r1, [sp, #56]	@ float
 931 0cc0 0800A0E1 		mov	r0, r8
 932 0cc4 FEFFFFEB 		bl	__aeabi_fadd
 933 0cc8 40109DE5 		ldr	r1, [sp, #64]	@ float
 934 0ccc 0040A0E1 		mov	r4, r0
 935 0cd0 2C009DE5 		ldr	r0, [sp, #44]	@ float
 936 0cd4 FEFFFFEB 		bl	__aeabi_fadd
 937 0cd8 0720A0E1 		mov	r2, r7
 938 0cdc 0010A0E1 		mov	r1, r0
 939 0ce0 0400A0E1 		mov	r0, r4
 940 0ce4 FEFFFFEB 		bl	nav_circle_XY
 941 0ce8 0A00A0E1 		mov	r0, sl
 942 0cec FEFFFFEB 		bl	__aeabi_f2d
 943 0cf0 C4219FE5 		ldr	r2, .L176+24
 944 0cf4 C4319FE5 		ldr	r3, .L176+28
 945 0cf8 FEFFFFEB 		bl	__aeabi_dadd
 946 0cfc DC219FE5 		ldr	r2, .L176+60
 947 0d00 DC319FE5 		ldr	r3, .L176+64
 948 0d04 FEFFFFEB 		bl	__aeabi_dmul
 949 0d08 0020A0E3 		mov	r2, #0
 950 0d0c D4319FE5 		ldr	r3, .L176+68
 951 0d10 FEFFFFEB 		bl	__aeabi_dsub
 952 0d14 D0319FE5 		ldr	r3, .L176+72
 953 0d18 0040A0E1 		mov	r4, r0
 954 0d1c 000093E5 		ldr	r0, [r3, #0]	@ float
 955 0d20 0150A0E1 		mov	r5, r1
 956 0d24 FEFFFFEB 		bl	__aeabi_f2d
 957 0d28 0020A0E1 		mov	r2, r0
 958 0d2c 0130A0E1 		mov	r3, r1
 959 0d30 84019FE5 		ldr	r0, .L176+24
 960 0d34 B4119FE5 		ldr	r1, .L176+76
 961 0d38 FEFFFFEB 		bl	__aeabi_dsub
 962 0d3c 9C219FE5 		ldr	r2, .L176+60
 963 0d40 9C319FE5 		ldr	r3, .L176+64
 964 0d44 FEFFFFEB 		bl	__aeabi_dmul
 965 0d48 FEFFFFEB 		bl	__aeabi_d2f
 966 0d4c 0070A0E3 		mov	r7, #0
 967 0d50 0060A0E1 		mov	r6, r0
 968 0d54 030000EA 		b	.L105
 969              	.L108:
 970 0d58 0600A0E1 		mov	r0, r6
 971 0d5c 90119FE5 		ldr	r1, .L176+80
 972 0d60 FEFFFFEB 		bl	__aeabi_fadd
 973 0d64 0060A0E1 		mov	r6, r0
 974              	.L105:
 975 0d68 0600A0E1 		mov	r0, r6
 976 0d6c 0010A0E3 		mov	r1, #0
 977 0d70 FEFFFFEB 		bl	__aeabi_fcmplt
 978 0d74 000050E3 		cmp	r0, #0
 979 0d78 FF8007E2 		and	r8, r7, #255
 980 0d7c 0700000A 		beq	.L159
 981 0d80 017087E2 		add	r7, r7, #1
 982 0d84 010C57E3 		cmp	r7, #256
 983 0d88 F2FFFF1A 		bne	.L108
 984 0d8c 0080A0E3 		mov	r8, #0
 985 0d90 020000EA 		b	.L159
 986              	.L112:
 987 0d94 58119FE5 		ldr	r1, .L176+80
 988 0d98 FEFFFFEB 		bl	__aeabi_fsub
 989 0d9c 0060A0E1 		mov	r6, r0
 990              	.L159:
 991 0da0 0600A0E1 		mov	r0, r6
 992 0da4 48119FE5 		ldr	r1, .L176+80
 993 0da8 FEFFFFEB 		bl	__aeabi_fcmpge
 994 0dac 000050E3 		cmp	r0, #0
 995 0db0 0600A0E1 		mov	r0, r6
 996 0db4 0200000A 		beq	.L110
 997 0db8 018088E2 		add	r8, r8, #1
 998 0dbc FF8018E2 		ands	r8, r8, #255
 999 0dc0 F3FFFF1A 		bne	.L112
 1000              	.L110:
 1001 0dc4 FEFFFFEB 		bl	__aeabi_f2d
 1002 0dc8 0020A0E1 		mov	r2, r0
 1003 0dcc 0130A0E1 		mov	r3, r1
 1004 0dd0 0400A0E1 		mov	r0, r4
 1005 0dd4 0510A0E1 		mov	r1, r5
 1006 0dd8 FEFFFFEB 		bl	__aeabi_dsub
 1007 0ddc FEFFFFEB 		bl	__aeabi_d2f
 1008 0de0 0050A0E3 		mov	r5, #0
 1009 0de4 0040A0E1 		mov	r4, r0
 1010 0de8 030000EA 		b	.L113
 1011              	.L116:
 1012 0dec 0400A0E1 		mov	r0, r4
 1013 0df0 FC109FE5 		ldr	r1, .L176+80
 1014 0df4 FEFFFFEB 		bl	__aeabi_fadd
 1015 0df8 0040A0E1 		mov	r4, r0
 1016              	.L113:
 1017 0dfc 0400A0E1 		mov	r0, r4
 1018 0e00 0010A0E3 		mov	r1, #0
 1019 0e04 FEFFFFEB 		bl	__aeabi_fcmplt
 1020 0e08 000050E3 		cmp	r0, #0
 1021 0e0c FF6005E2 		and	r6, r5, #255
 1022 0e10 0700000A 		beq	.L160
 1023 0e14 015085E2 		add	r5, r5, #1
 1024 0e18 010C55E3 		cmp	r5, #256
 1025 0e1c F2FFFF1A 		bne	.L116
 1026 0e20 0060A0E3 		mov	r6, #0
 1027 0e24 020000EA 		b	.L160
 1028              	.L120:
 1029 0e28 C4109FE5 		ldr	r1, .L176+80
 1030 0e2c FEFFFFEB 		bl	__aeabi_fsub
 1031 0e30 0040A0E1 		mov	r4, r0
 1032              	.L160:
 1033 0e34 0400A0E1 		mov	r0, r4
 1034 0e38 B4109FE5 		ldr	r1, .L176+80
 1035 0e3c FEFFFFEB 		bl	__aeabi_fcmpge
 1036 0e40 000050E3 		cmp	r0, #0
 1037 0e44 0400A0E1 		mov	r0, r4
 1038 0e48 0200000A 		beq	.L118
 1039 0e4c 016086E2 		add	r6, r6, #1
 1040 0e50 FF6016E2 		ands	r6, r6, #255
 1041 0e54 F3FFFF1A 		bne	.L120
 1042              	.L118:
 1043 0e58 98109FE5 		ldr	r1, .L176+84
 1044 0e5c FEFFFFEB 		bl	__aeabi_fcmpgt
 1045 0e60 000050E3 		cmp	r0, #0
 1046 0e64 0400001A 		bne	.L121
 1047 0e68 0400A0E1 		mov	r0, r4
 1048 0e6c 88109FE5 		ldr	r1, .L176+88
 1049 0e70 FEFFFFEB 		bl	__aeabi_fcmplt
 1050 0e74 000050E3 		cmp	r0, #0
 1051 0e78 0500000A 		beq	.L161
 1052              	.L121:
 1053 0e7c 0020A0E3 		mov	r2, #0
 1054 0e80 73FEFFEA 		b	.L175
 1055              	.L123:
 1056 0e84 0000A0E3 		mov	r0, #0
 1057 0e88 020000EA 		b	.L5
 1058              	.L124:
 1059 0e8c 0400A0E1 		mov	r0, r4
 1060 0e90 000000EA 		b	.L5
 1061              	.L161:
 1062 0e94 0100A0E3 		mov	r0, #1
 1063              	.L5:
 1064 0e98 5CD08DE2 		add	sp, sp, #92
 1065 0e9c F04FBDE8 		ldmfd	sp!, {r4, r5, r6, r7, r8, r9, sl, fp, lr}
 1066 0ea0 1EFF2FE1 		bx	lr
 1067              	.L177:
 1068              		.align	2
 1069              	.L176:
 1070 0ea4 00000000 		.word	waypoints
 1071 0ea8 83C0CAA1 		.word	-1580547965
 1072 0eac 45B6FB3F 		.word	1073460805
 1073 0eb0 65732D38 		.word	942502757
 1074 0eb4 52C1F03F 		.word	1072742738
 1075 0eb8 52C1F0BF 		.word	-1074740910
 1076 0ebc 182D4454 		.word	1413754136
 1077 0ec0 FB210940 		.word	1074340347
 1078 0ec4 00000000 		.word	v_ctl_climb_mode
 1079 0ec8 00000000 		.word	nav_pitch
 1080 0ecc 00000000 		.word	v_ctl_mode
 1081 0ed0 00000000 		.word	nav_altitude
 1082 0ed4 00000000 		.word	v_ctl_altitude_pre_climb
 1083 0ed8 00000000 		.word	.LANCHOR0
 1084 0edc 0000A040 		.word	1084227584
 1085 0ee0 F8C1631A 		.word	442745336
 1086 0ee4 DCA54C40 		.word	1078765020
 1087 0ee8 00002440 		.word	1076101120
 1088 0eec 00000000 		.word	nav_circle_trigo_qdr
 1089 0ef0 FB21F93F 		.word	1073291771
 1090 0ef4 0000B443 		.word	1135869952
 1091 0ef8 0000AF43 		.word	1135542272
 1092 0efc 00002041 		.word	1092616192
 1094              		.section	.bss.line_status,"aw",%nobits
 1095              		.set	.LANCHOR0,. + 0
 1098              	line_status:
 1099 0000 00       		.space	1
 1100              		.ident	"GCC: (Linaro GCC 4.6-2011.09-1) 4.6.2 20110908 (prerelease)"
DEFINED SYMBOLS
                            *ABS*:00000000 nav_line.c
     /tmp/cc47aKHt.s:13     .text.nav_line_init:00000000 $a
     /tmp/cc47aKHt.s:16     .text.nav_line_init:00000000 nav_line_init
     /tmp/cc47aKHt.s:28     .text.nav_line_init:00000010 $d
     /tmp/cc47aKHt.s:43     .text.nav_line:00000000 $a
     /tmp/cc47aKHt.s:46     .text.nav_line:00000000 nav_line
     /tmp/cc47aKHt.s:195    .text.nav_line:00000240 $d
     /tmp/cc47aKHt.s:204    .text.nav_line:00000260 $a
     /tmp/cc47aKHt.s:1070   .text.nav_line:00000ea4 $d
     /tmp/cc47aKHt.s:1098   .bss.line_status:00000000 line_status
     /tmp/cc47aKHt.s:1099   .bss.line_status:00000000 $d

UNDEFINED SYMBOLS
__aeabi_fsub
__aeabi_fmul
__aeabi_fadd
__aeabi_f2d
__aeabi_d2f
__aeabi_fdiv
__aeabi_dmul
__aeabi_dsub
__aeabi_fcmplt
__aeabi_fcmpge
__aeabi_fcmpgt
__aeabi_dadd
sqrt
atan2
nav_route_xy
nav_approaching_xy
nav_init_stage
nav_circle_XY
waypoints
v_ctl_climb_mode
nav_pitch
v_ctl_mode
nav_altitude
v_ctl_altitude_pre_climb
nav_circle_trigo_qdr
