   1              		.cpu arm7tdmi
   2              		.fpu softvfp
   3              		.eabi_attribute 20, 1
   4              		.eabi_attribute 21, 1
   5              		.eabi_attribute 23, 3
   6              		.eabi_attribute 24, 1
   7              		.eabi_attribute 25, 1
   8              		.eabi_attribute 26, 1
   9              		.eabi_attribute 30, 4
  10              		.eabi_attribute 34, 0
  11              		.eabi_attribute 18, 4
  12              		.file	"nav_survey_rectangle.c"
  13              		.global	__aeabi_fcmplt
  14              		.global	__aeabi_fcmpgt
  15              		.global	__aeabi_f2d
  16              		.global	__aeabi_dmul
  17              		.global	__aeabi_dadd
  18              		.global	__aeabi_dcmpgt
  19              		.global	__aeabi_dsub
  20              		.global	__aeabi_dcmplt
  21              		.global	__aeabi_d2f
  22              		.section	.text.nav_survey_rectangle_init,"ax",%progbits
  23              		.align	2
  24              		.global	nav_survey_rectangle_init
  26              	nav_survey_rectangle_init:
  27              		@ Function supports interworking.
  28              		@ args = 0, pretend = 0, frame = 32
  29              		@ frame_needed = 0, uses_anonymous_args = 0
  30 0000 F04F2DE9 		stmfd	sp!, {r4, r5, r6, r7, r8, r9, r10, fp, lr}
  31 0004 0370A0E1 		mov	r7, r3
  32 0008 24D04DE2 		sub	sp, sp, #36
  33 000c 0C30A0E3 		mov	r3, #12
  34 0010 14208DE5 		str	r2, [sp, #20]	@ float
  35 0014 930002E0 		mul	r2, r3, r0
  36 0018 910303E0 		mul	r3, r1, r3
  37 001c A8539FE5 		ldr	r5, .L63
  38 0020 026095E7 		ldr	r6, [r5, r2]	@ float
  39 0024 034095E7 		ldr	r4, [r5, r3]	@ float
  40 0028 0080A0E1 		mov	r8, r0
  41 002c 0190A0E1 		mov	r9, r1
  42 0030 0600A0E1 		mov	r0, r6
  43 0034 0410A0E1 		mov	r1, r4
  44 0038 FEFFFFEB 		bl	__aeabi_fcmplt
  45 003c 8C339FE5 		ldr	r3, .L63+4
  46 0040 000050E3 		cmp	r0, #0
  47 0044 05B0A0E1 		mov	fp, r5
  48 0048 0650A011 		movne	r5, r6
  49 004c 0450A001 		moveq	r5, r4
  50 0050 0410A0E1 		mov	r1, r4
  51 0054 005083E5 		str	r5, [r3]	@ float
  52 0058 0600A0E1 		mov	r0, r6
  53 005c FEFFFFEB 		bl	__aeabi_fcmpgt
  54 0060 6C339FE5 		ldr	r3, .L63+8
  55 0064 000050E3 		cmp	r0, #0
  56 0068 0640A011 		movne	r4, r6
  57 006c 004083E5 		str	r4, [r3]	@ float
  58 0070 0C30A0E3 		mov	r3, #12
  59 0074 93B929E0 		mla	r9, r3, r9, fp
  60 0078 93B828E0 		mla	r8, r3, r8, fp
  61 007c 046099E5 		ldr	r6, [r9, #4]	@ float
  62 0080 048098E5 		ldr	r8, [r8, #4]	@ float
  63 0084 0610A0E1 		mov	r1, r6
  64 0088 0800A0E1 		mov	r0, r8
  65 008c FEFFFFEB 		bl	__aeabi_fcmplt
  66 0090 40339FE5 		ldr	r3, .L63+12
  67 0094 000050E3 		cmp	r0, #0
  68 0098 0890A011 		movne	r9, r8
  69 009c 0690A001 		moveq	r9, r6
  70 00a0 009083E5 		str	r9, [r3]	@ float
  71 00a4 0800A0E1 		mov	r0, r8
  72 00a8 0610A0E1 		mov	r1, r6
  73 00ac FEFFFFEB 		bl	__aeabi_fcmpgt
  74 00b0 24339FE5 		ldr	r3, .L63+16
  75 00b4 000050E3 		cmp	r0, #0
  76 00b8 0680A001 		moveq	r8, r6
  77 00bc 008083E5 		str	r8, [r3]	@ float
  78 00c0 18339FE5 		ldr	r3, .L63+20
  79 00c4 000057E3 		cmp	r7, #0
  80 00c8 0070C3E5 		strb	r7, [r3]
  81 00cc 5F00001A 		bne	.L10
  82 00d0 0C339FE5 		ldr	r3, .L63+24
  83 00d4 003093E5 		ldr	r3, [r3]	@ float
  84 00d8 0300A0E1 		mov	r0, r3
  85 00dc 08308DE5 		str	r3, [sp, #8]	@ float
  86 00e0 FEFFFFEB 		bl	__aeabi_f2d
  87 00e4 00A0A0E1 		mov	r10, r0
  88 00e8 14009DE5 		ldr	r0, [sp, #20]	@ float
  89 00ec 01B0A0E1 		mov	fp, r1
  90 00f0 FEFFFFEB 		bl	__aeabi_f2d
  91 00f4 0020A0E3 		mov	r2, #0
  92 00f8 E8329FE5 		ldr	r3, .L63+28
  93 00fc FEFFFFEB 		bl	__aeabi_dmul
  94 0100 18008DE5 		str	r0, [sp, #24]
  95 0104 1C108DE5 		str	r1, [sp, #28]
  96 0108 0500A0E1 		mov	r0, r5
  97 010c FEFFFFEB 		bl	__aeabi_f2d
  98 0110 18308DE2 		add	r3, sp, #24
  99 0114 0C0093E8 		ldmia	r3, {r2-r3}
 100 0118 FEFFFFEB 		bl	__aeabi_dadd
 101 011c 0060A0E1 		mov	r6, r0
 102 0120 0170A0E1 		mov	r7, r1
 103 0124 0A00A0E1 		mov	r0, r10
 104 0128 0B10A0E1 		mov	r1, fp
 105 012c 0620A0E1 		mov	r2, r6
 106 0130 0730A0E1 		mov	r3, r7
 107 0134 FEFFFFEB 		bl	__aeabi_dcmpgt
 108 0138 000050E3 		cmp	r0, #0
 109 013c 000C8D18 		stmneia	sp, {r10-fp}
 110              	.L54:
 111 0140 C0008D08 		stmeqia	sp, {r6-r7}
 112              	.L11:
 113 0144 0400A0E1 		mov	r0, r4
 114 0148 FEFFFFEB 		bl	__aeabi_f2d
 115 014c 18308DE2 		add	r3, sp, #24
 116 0150 0C0093E8 		ldmia	r3, {r2-r3}
 117 0154 FEFFFFEB 		bl	__aeabi_dsub
 118 0158 0040A0E1 		mov	r4, r0
 119 015c 0150A0E1 		mov	r5, r1
 120 0160 0420A0E1 		mov	r2, r4
 121 0164 03009DE8 		ldmia	sp, {r0-r1}
 122 0168 0530A0E1 		mov	r3, r5
 123 016c FEFFFFEB 		bl	__aeabi_dcmplt
 124 0170 000050E3 		cmp	r0, #0
 125 0174 0900000A 		beq	.L55
 126 0178 0B10A0E1 		mov	r1, fp
 127 017c 0A00A0E1 		mov	r0, r10
 128 0180 0620A0E1 		mov	r2, r6
 129 0184 0730A0E1 		mov	r3, r7
 130 0188 FEFFFFEB 		bl	__aeabi_dcmpgt
 131 018c 000050E3 		cmp	r0, #0
 132 0190 0600A001 		moveq	r0, r6
 133 0194 0710A001 		moveq	r1, r7
 134 0198 0200000A 		beq	.L58
 135 019c 030000EA 		b	.L61
 136              	.L55:
 137 01a0 0400A0E1 		mov	r0, r4
 138 01a4 0510A0E1 		mov	r1, r5
 139              	.L58:
 140 01a8 FEFFFFEB 		bl	__aeabi_d2f
 141 01ac 000000EA 		b	.L15
 142              	.L61:
 143 01b0 08009DE5 		ldr	r0, [sp, #8]	@ float
 144              	.L15:
 145 01b4 30329FE5 		ldr	r3, .L63+32
 146 01b8 30629FE5 		ldr	r6, .L63+36
 147 01bc 004093E5 		ldr	r4, [r3]	@ float
 148 01c0 2C729FE5 		ldr	r7, .L63+40
 149 01c4 000086E5 		str	r0, [r6]	@ float
 150 01c8 000087E5 		str	r0, [r7]	@ float
 151 01cc 0810A0E1 		mov	r1, r8
 152 01d0 0400A0E1 		mov	r0, r4
 153 01d4 FEFFFFEB 		bl	__aeabi_fcmpgt
 154 01d8 000050E3 		cmp	r0, #0
 155 01dc 1500001A 		bne	.L16
 156 01e0 0400A0E1 		mov	r0, r4
 157 01e4 0910A0E1 		mov	r1, r9
 158 01e8 FEFFFFEB 		bl	__aeabi_fcmpgt
 159 01ec 000050E3 		cmp	r0, #0
 160 01f0 1300000A 		beq	.L17
 161 01f4 FC319FE5 		ldr	r3, .L63+44
 162 01f8 000093E5 		ldr	r0, [r3]	@ float
 163 01fc FEFFFFEB 		bl	__aeabi_f2d
 164 0200 F4219FE5 		ldr	r2, .L63+48
 165 0204 F4319FE5 		ldr	r3, .L63+52
 166 0208 0040A0E1 		mov	r4, r0
 167 020c 0150A0E1 		mov	r5, r1
 168 0210 FEFFFFEB 		bl	__aeabi_dcmpgt
 169 0214 000050E3 		cmp	r0, #0
 170 0218 0900000A 		beq	.L17
 171 021c 0400A0E1 		mov	r0, r4
 172 0220 0510A0E1 		mov	r1, r5
 173 0224 D8219FE5 		ldr	r2, .L63+56
 174 0228 D8319FE5 		ldr	r3, .L63+60
 175 022c FEFFFFEB 		bl	__aeabi_dcmplt
 176 0230 000050E3 		cmp	r0, #0
 177 0234 0200000A 		beq	.L17
 178              	.L16:
 179 0238 049086E5 		str	r9, [r6, #4]	@ float
 180 023c 048087E5 		str	r8, [r7, #4]	@ float
 181 0240 580000EA 		b	.L21
 182              	.L17:
 183 0244 049087E5 		str	r9, [r7, #4]	@ float
 184 0248 048086E5 		str	r8, [r6, #4]	@ float
 185 024c 550000EA 		b	.L21
 186              	.L10:
 187 0250 94319FE5 		ldr	r3, .L63+32
 188 0254 00B093E5 		ldr	fp, [r3]	@ float
 189 0258 0B00A0E1 		mov	r0, fp
 190 025c FEFFFFEB 		bl	__aeabi_f2d
 191 0260 03008DE8 		stmia	sp, {r0-r1}
 192 0264 14009DE5 		ldr	r0, [sp, #20]	@ float
 193 0268 FEFFFFEB 		bl	__aeabi_f2d
 194 026c 0020A0E3 		mov	r2, #0
 195 0270 70319FE5 		ldr	r3, .L63+28
 196 0274 FEFFFFEB 		bl	__aeabi_dmul
 197 0278 0060A0E1 		mov	r6, r0
 198 027c 0170A0E1 		mov	r7, r1
 199 0280 0900A0E1 		mov	r0, r9
 200 0284 FEFFFFEB 		bl	__aeabi_f2d
 201 0288 0620A0E1 		mov	r2, r6
 202 028c 0730A0E1 		mov	r3, r7
 203 0290 FEFFFFEB 		bl	__aeabi_dadd
 204 0294 0090A0E1 		mov	r9, r0
 205 0298 01A0A0E1 		mov	r10, r1
 206 029c 0920A0E1 		mov	r2, r9
 207 02a0 03009DE8 		ldmia	sp, {r0-r1}
 208 02a4 0A30A0E1 		mov	r3, r10
 209 02a8 FEFFFFEB 		bl	__aeabi_dcmpgt
 210 02ac 000050E3 		cmp	r0, #0
 211 02b0 0C009D18 		ldmneia	sp, {r2-r3}
 212 02b4 08208D15 		strne	r2, [sp, #8]
 213 02b8 0C308D15 		strne	r3, [sp, #12]
 214              	.L56:
 215 02bc 08908D05 		streq	r9, [sp, #8]
 216 02c0 0CA08D05 		streq	r10, [sp, #12]
 217              	.L22:
 218 02c4 0800A0E1 		mov	r0, r8
 219 02c8 FEFFFFEB 		bl	__aeabi_f2d
 220 02cc 0620A0E1 		mov	r2, r6
 221 02d0 0730A0E1 		mov	r3, r7
 222 02d4 FEFFFFEB 		bl	__aeabi_dsub
 223 02d8 0060A0E1 		mov	r6, r0
 224 02dc 0170A0E1 		mov	r7, r1
 225 02e0 0620A0E1 		mov	r2, r6
 226 02e4 08108DE2 		add	r1, sp, #8
 227 02e8 030091E8 		ldmia	r1, {r0-r1}
 228 02ec 0730A0E1 		mov	r3, r7
 229 02f0 FEFFFFEB 		bl	__aeabi_dcmplt
 230 02f4 000050E3 		cmp	r0, #0
 231 02f8 0800000A 		beq	.L57
 232 02fc 03009DE8 		ldmia	sp, {r0-r1}
 233 0300 0920A0E1 		mov	r2, r9
 234 0304 0A30A0E1 		mov	r3, r10
 235 0308 FEFFFFEB 		bl	__aeabi_dcmpgt
 236 030c 000050E3 		cmp	r0, #0
 237 0310 0900A001 		moveq	r0, r9
 238 0314 0A10A001 		moveq	r1, r10
 239 0318 0200000A 		beq	.L59
 240 031c 030000EA 		b	.L62
 241              	.L57:
 242 0320 0600A0E1 		mov	r0, r6
 243 0324 0710A0E1 		mov	r1, r7
 244              	.L59:
 245 0328 FEFFFFEB 		bl	__aeabi_d2f
 246 032c 000000EA 		b	.L26
 247              	.L62:
 248 0330 0B00A0E1 		mov	r0, fp
 249              	.L26:
 250 0334 A8309FE5 		ldr	r3, .L63+24
 251 0338 B0609FE5 		ldr	r6, .L63+36
 252 033c 008093E5 		ldr	r8, [r3]	@ float
 253 0340 AC709FE5 		ldr	r7, .L63+40
 254 0344 040086E5 		str	r0, [r6, #4]	@ float
 255 0348 040087E5 		str	r0, [r7, #4]	@ float
 256 034c 0410A0E1 		mov	r1, r4
 257 0350 0800A0E1 		mov	r0, r8
 258 0354 FEFFFFEB 		bl	__aeabi_fcmpgt
 259 0358 000050E3 		cmp	r0, #0
 260 035c 0C00001A 		bne	.L27
 261 0360 0800A0E1 		mov	r0, r8
 262 0364 0510A0E1 		mov	r1, r5
 263 0368 FEFFFFEB 		bl	__aeabi_fcmpgt
 264 036c 000050E3 		cmp	r0, #0
 265 0370 0A00000A 		beq	.L28
 266 0374 7C309FE5 		ldr	r3, .L63+44
 267 0378 000093E5 		ldr	r0, [r3]	@ float
 268 037c FEFFFFEB 		bl	__aeabi_f2d
 269 0380 74209FE5 		ldr	r2, .L63+48
 270 0384 80309FE5 		ldr	r3, .L63+64
 271 0388 FEFFFFEB 		bl	__aeabi_dcmpgt
 272 038c 000050E3 		cmp	r0, #0
 273 0390 0200000A 		beq	.L28
 274              	.L27:
 275 0394 005086E5 		str	r5, [r6]	@ float
 276 0398 004087E5 		str	r4, [r7]	@ float
 277 039c 010000EA 		b	.L21
 278              	.L28:
 279 03a0 005087E5 		str	r5, [r7]	@ float
 280 03a4 004086E5 		str	r4, [r6]	@ float
 281              	.L21:
 282 03a8 14209DE5 		ldr	r2, [sp, #20]	@ float
 283 03ac 5C309FE5 		ldr	r3, .L63+68
 284 03b0 002083E5 		str	r2, [r3]	@ float
 285 03b4 58309FE5 		ldr	r3, .L63+72
 286 03b8 0020A0E3 		mov	r2, #0
 287 03bc 0020C3E5 		strb	r2, [r3]
 288 03c0 24D08DE2 		add	sp, sp, #36
 289              		@ sp needed
 290 03c4 F04FBDE8 		ldmfd	sp!, {r4, r5, r6, r7, r8, r9, r10, fp, lr}
 291 03c8 1EFF2FE1 		bx	lr
 292              	.L64:
 293              		.align	2
 294              	.L63:
 295 03cc 00000000 		.word	waypoints
 296 03d0 00000000 		.word	nav_survey_west
 297 03d4 00000000 		.word	nav_survey_east
 298 03d8 00000000 		.word	nav_survey_south
 299 03dc 00000000 		.word	nav_survey_north
 300 03e0 00000000 		.word	.LANCHOR0
 301 03e4 00000000 		.word	estimator_x
 302 03e8 0000E03F 		.word	1071644672
 303 03ec 00000000 		.word	estimator_y
 304 03f0 00000000 		.word	.LANCHOR1
 305 03f4 00000000 		.word	.LANCHOR2
 306 03f8 00000000 		.word	estimator_hspeed_dir
 307 03fc 182D4454 		.word	1413754136
 308 0400 FB21F93F 		.word	1073291771
 309 0404 D221337F 		.word	2134057426
 310 0408 7CD91240 		.word	1074977148
 311 040c FB210940 		.word	1074340347
 312 0410 00000000 		.word	nav_survey_shift
 313 0414 00000000 		.word	.LANCHOR3
 315              		.global	__aeabi_fadd
 316              		.global	__aeabi_fmul
 317              		.global	__aeabi_fsub
 318              		.global	__aeabi_fcmpge
 319              		.section	.text.nav_survey_rectangle,"ax",%progbits
 320              		.align	2
 321              		.global	nav_survey_rectangle
 323              	nav_survey_rectangle:
 324              		@ Function supports interworking.
 325              		@ args = 0, pretend = 0, frame = 16
 326              		@ frame_needed = 0, uses_anonymous_args = 0
 327 0000 14399FE5 		ldr	r3, .L197
 328 0004 0120A0E3 		mov	r2, #1
 329 0008 F04F2DE9 		stmfd	sp!, {r4, r5, r6, r7, r8, r9, r10, fp, lr}
 330 000c 0020C3E5 		strb	r2, [r3]
 331 0010 0C30A0E3 		mov	r3, #12
 332 0014 0020A0E1 		mov	r2, r0
 333 0018 930202E0 		mul	r2, r3, r2
 334 001c 910303E0 		mul	r3, r1, r3
 335 0020 F8689FE5 		ldr	r6, .L197+4
 336 0024 02B096E7 		ldr	fp, [r6, r2]	@ float
 337 0028 034096E7 		ldr	r4, [r6, r3]	@ float
 338 002c 14D04DE2 		sub	sp, sp, #20
 339 0030 0C008DE5 		str	r0, [sp, #12]
 340 0034 0150A0E1 		mov	r5, r1
 341 0038 0B00A0E1 		mov	r0, fp
 342 003c 0410A0E1 		mov	r1, r4
 343 0040 FEFFFFEB 		bl	__aeabi_fcmplt
 344 0044 D8389FE5 		ldr	r3, .L197+8
 345 0048 000050E3 		cmp	r0, #0
 346 004c 0490A001 		moveq	r9, r4
 347 0050 0B90A011 		movne	r9, fp
 348 0054 0410A0E1 		mov	r1, r4
 349 0058 009083E5 		str	r9, [r3]	@ float
 350 005c 0B00A0E1 		mov	r0, fp
 351 0060 FEFFFFEB 		bl	__aeabi_fcmpgt
 352 0064 BC389FE5 		ldr	r3, .L197+12
 353 0068 000050E3 		cmp	r0, #0
 354 006c 04B0A001 		moveq	fp, r4
 355 0070 0C209DE5 		ldr	r2, [sp, #12]
 356 0074 00B083E5 		str	fp, [r3]	@ float
 357 0078 0C30A0E3 		mov	r3, #12
 358 007c 936222E0 		mla	r2, r3, r2, r6
 359 0080 936525E0 		mla	r5, r3, r5, r6
 360 0084 04A092E5 		ldr	r10, [r2, #4]	@ float
 361 0088 044095E5 		ldr	r4, [r5, #4]	@ float
 362 008c 0A00A0E1 		mov	r0, r10
 363 0090 0410A0E1 		mov	r1, r4
 364 0094 FEFFFFEB 		bl	__aeabi_fcmplt
 365 0098 8C389FE5 		ldr	r3, .L197+16
 366 009c 000050E3 		cmp	r0, #0
 367 00a0 0A80A011 		movne	r8, r10
 368 00a4 0480A001 		moveq	r8, r4
 369 00a8 008083E5 		str	r8, [r3]	@ float
 370 00ac 0A00A0E1 		mov	r0, r10
 371 00b0 0410A0E1 		mov	r1, r4
 372 00b4 FEFFFFEB 		bl	__aeabi_fcmpgt
 373 00b8 70389FE5 		ldr	r3, .L197+20
 374 00bc 000050E3 		cmp	r0, #0
 375 00c0 04A0A001 		moveq	r10, r4
 376 00c4 00A083E5 		str	r10, [r3]	@ float
 377 00c8 64389FE5 		ldr	r3, .L197+24
 378 00cc 0050D3E5 		ldrb	r5, [r3]	@ zero_extendqisi2
 379 00d0 000055E3 		cmp	r5, #0
 380 00d4 1500001A 		bne	.L74
 381 00d8 58789FE5 		ldr	r7, .L197+28
 382 00dc 58489FE5 		ldr	r4, .L197+32
 383 00e0 042097E5 		ldr	r2, [r7, #4]	@ float
 384 00e4 043094E5 		ldr	r3, [r4, #4]	@ float
 385 00e8 0200A0E1 		mov	r0, r2
 386 00ec 0310A0E1 		mov	r1, r3
 387 00f0 08208DE5 		str	r2, [sp, #8]
 388 00f4 04308DE5 		str	r3, [sp, #4]
 389 00f8 FEFFFFEB 		bl	__aeabi_fcmpgt
 390 00fc 000050E3 		cmp	r0, #0
 391 0100 08209DE5 		ldr	r2, [sp, #8]
 392 0104 04309DE5 		ldr	r3, [sp, #4]
 393 0108 04A08715 		strne	r10, [r7, #4]	@ float
 394 010c 04808415 		strne	r8, [r4, #4]	@ float
 395 0110 1D00001A 		bne	.L77
 396 0114 0200A0E1 		mov	r0, r2
 397 0118 0310A0E1 		mov	r1, r3
 398 011c FEFFFFEB 		bl	__aeabi_fcmplt
 399 0120 000050E3 		cmp	r0, #0
 400 0124 04808715 		strne	r8, [r7, #4]	@ float
 401 0128 04A08415 		strne	r10, [r4, #4]	@ float
 402 012c 160000EA 		b	.L77
 403              	.L74:
 404 0130 010055E3 		cmp	r5, #1
 405 0134 1400001A 		bne	.L77
 406 0138 F8779FE5 		ldr	r7, .L197+28
 407 013c F8479FE5 		ldr	r4, .L197+32
 408 0140 002097E5 		ldr	r2, [r7]	@ float
 409 0144 003094E5 		ldr	r3, [r4]	@ float
 410 0148 0200A0E1 		mov	r0, r2
 411 014c 0310A0E1 		mov	r1, r3
 412 0150 08208DE5 		str	r2, [sp, #8]
 413 0154 04308DE5 		str	r3, [sp, #4]
 414 0158 FEFFFFEB 		bl	__aeabi_fcmpgt
 415 015c 000050E3 		cmp	r0, #0
 416 0160 08209DE5 		ldr	r2, [sp, #8]
 417 0164 04309DE5 		ldr	r3, [sp, #4]
 418 0168 00B08715 		strne	fp, [r7]	@ float
 419 016c 00908415 		strne	r9, [r4]	@ float
 420 0170 0500001A 		bne	.L77
 421 0174 0200A0E1 		mov	r0, r2
 422 0178 0310A0E1 		mov	r1, r3
 423 017c FEFFFFEB 		bl	__aeabi_fcmplt
 424 0180 000050E3 		cmp	r0, #0
 425 0184 00908715 		strne	r9, [r7]	@ float
 426 0188 00B08415 		strne	fp, [r4]	@ float
 427              	.L77:
 428 018c AC379FE5 		ldr	r3, .L197+36
 429 0190 0020D3E5 		ldrb	r2, [r3]	@ zero_extendqisi2
 430 0194 000052E3 		cmp	r2, #0
 431 0198 D600001A 		bne	.L82
 432 019c A0379FE5 		ldr	r3, .L197+40
 433 01a0 003093E5 		ldr	r3, [r3]	@ float
 434 01a4 0A10A0E1 		mov	r1, r10
 435 01a8 0300A0E1 		mov	r0, r3
 436 01ac 04308DE5 		str	r3, [sp, #4]
 437 01b0 FEFFFFEB 		bl	__aeabi_fcmplt
 438 01b4 000050E3 		cmp	r0, #0
 439 01b8 78479FE5 		ldr	r4, .L197+28
 440 01bc 78779FE5 		ldr	r7, .L197+32
 441 01c0 04309DE5 		ldr	r3, [sp, #4]
 442 01c4 0800000A 		beq	.L182
 443 01c8 000055E3 		cmp	r5, #0
 444 01cc 1200001A 		bne	.L85
 445 01d0 040094E5 		ldr	r0, [r4, #4]	@ float
 446 01d4 041097E5 		ldr	r1, [r7, #4]	@ float
 447 01d8 FEFFFFEB 		bl	__aeabi_fcmpgt
 448 01dc 000050E3 		cmp	r0, #0
 449 01e0 04309DE5 		ldr	r3, [sp, #4]
 450 01e4 C601000A 		beq	.L183
 451 01e8 290000EA 		b	.L86
 452              	.L182:
 453 01ec 0300A0E1 		mov	r0, r3
 454 01f0 0810A0E1 		mov	r1, r8
 455 01f4 FEFFFFEB 		bl	__aeabi_fcmpgt
 456 01f8 000050E3 		cmp	r0, #0
 457 01fc 0600000A 		beq	.L85
 458 0200 000055E3 		cmp	r5, #0
 459 0204 0400001A 		bne	.L85
 460              	.L153:
 461 0208 040094E5 		ldr	r0, [r4, #4]	@ float
 462 020c 041097E5 		ldr	r1, [r7, #4]	@ float
 463 0210 FEFFFFEB 		bl	__aeabi_fcmplt
 464 0214 000050E3 		cmp	r0, #0
 465 0218 1D00001A 		bne	.L86
 466              	.L85:
 467 021c 24379FE5 		ldr	r3, .L197+44
 468 0220 003093E5 		ldr	r3, [r3]	@ float
 469 0224 0B10A0E1 		mov	r1, fp
 470 0228 0300A0E1 		mov	r0, r3
 471 022c 04308DE5 		str	r3, [sp, #4]
 472 0230 FEFFFFEB 		bl	__aeabi_fcmplt
 473 0234 000050E3 		cmp	r0, #0
 474 0238 04309DE5 		ldr	r3, [sp, #4]
 475 023c 0800000A 		beq	.L184
 476 0240 010055E3 		cmp	r5, #1
 477 0244 1800001A 		bne	.L91
 478 0248 000094E5 		ldr	r0, [r4]	@ float
 479 024c 001097E5 		ldr	r1, [r7]	@ float
 480 0250 FEFFFFEB 		bl	__aeabi_fcmpgt
 481 0254 000050E3 		cmp	r0, #0
 482 0258 04309DE5 		ldr	r3, [sp, #4]
 483 025c 5500000A 		beq	.L185
 484 0260 0B0000EA 		b	.L86
 485              	.L184:
 486 0264 0300A0E1 		mov	r0, r3
 487 0268 0910A0E1 		mov	r1, r9
 488 026c FEFFFFEB 		bl	__aeabi_fcmpgt
 489 0270 000050E3 		cmp	r0, #0
 490 0274 0C00000A 		beq	.L91
 491 0278 010055E3 		cmp	r5, #1
 492 027c 0A00001A 		bne	.L91
 493              	.L154:
 494 0280 000094E5 		ldr	r0, [r4]	@ float
 495 0284 001097E5 		ldr	r1, [r7]	@ float
 496 0288 FEFFFFEB 		bl	__aeabi_fcmplt
 497 028c 000050E3 		cmp	r0, #0
 498 0290 4D00000A 		beq	.L94
 499              	.L86:
 500 0294 000097E5 		ldr	r0, [r7]	@ float
 501 0298 041097E5 		ldr	r1, [r7, #4]	@ float
 502 029c 002094E5 		ldr	r2, [r4]	@ float
 503 02a0 043094E5 		ldr	r3, [r4, #4]	@ float
 504 02a4 FEFFFFEB 		bl	nav_route_xy
 505 02a8 810100EA 		b	.L96
 506              	.L91:
 507 02ac 000055E3 		cmp	r5, #0
 508 02b0 4500001A 		bne	.L94
 509 02b4 90869FE5 		ldr	r8, .L197+48
 510 02b8 005097E5 		ldr	r5, [r7]	@ float
 511 02bc 007098E5 		ldr	r7, [r8]	@ float
 512 02c0 0500A0E1 		mov	r0, r5
 513 02c4 0710A0E1 		mov	r1, r7
 514 02c8 FEFFFFEB 		bl	__aeabi_fadd
 515 02cc 0910A0E1 		mov	r1, r9
 516 02d0 00A0A0E1 		mov	r10, r0
 517 02d4 FEFFFFEB 		bl	__aeabi_fcmplt
 518 02d8 000050E3 		cmp	r0, #0
 519 02dc 0400001A 		bne	.L97
 520 02e0 0A00A0E1 		mov	r0, r10
 521 02e4 0B10A0E1 		mov	r1, fp
 522 02e8 FEFFFFEB 		bl	__aeabi_fcmpgt
 523 02ec 000050E3 		cmp	r0, #0
 524 02f0 0800000A 		beq	.L98
 525              	.L97:
 526 02f4 0700A0E1 		mov	r0, r7
 527 02f8 3F14A0E3 		mov	r1, #1056964608
 528 02fc FEFFFFEB 		bl	__aeabi_fmul
 529 0300 0010A0E1 		mov	r1, r0
 530 0304 0500A0E1 		mov	r0, r5
 531 0308 FEFFFFEB 		bl	__aeabi_fadd
 532 030c 027187E2 		add	r7, r7, #-2147483648
 533 0310 007088E5 		str	r7, [r8]	@ float
 534 0314 0050A0E1 		mov	r5, r0
 535              	.L98:
 536 0318 008098E5 		ldr	r8, [r8]	@ float
 537 031c 0500A0E1 		mov	r0, r5
 538 0320 0810A0E1 		mov	r1, r8
 539 0324 FEFFFFEB 		bl	__aeabi_fadd
 540 0328 0C369FE5 		ldr	r3, .L197+32
 541 032c 047094E5 		ldr	r7, [r4, #4]	@ float
 542 0330 049093E5 		ldr	r9, [r3, #4]	@ float
 543 0334 000083E5 		str	r0, [r3]	@ float
 544 0338 047083E5 		str	r7, [r3, #4]	@ float
 545 033c 000084E5 		str	r0, [r4]	@ float
 546 0340 049084E5 		str	r9, [r4, #4]	@ float
 547 0344 FEFFFFEB 		bl	__aeabi_f2d
 548 0348 0040A0E1 		mov	r4, r0
 549 034c 0800A0E1 		mov	r0, r8
 550 0350 0150A0E1 		mov	r5, r1
 551 0354 FEFFFFEB 		bl	__aeabi_f2d
 552 0358 0020A0E3 		mov	r2, #0
 553 035c EC359FE5 		ldr	r3, .L197+52
 554 0360 FEFFFFEB 		bl	__aeabi_dmul
 555 0364 0020A0E1 		mov	r2, r0
 556 0368 0130A0E1 		mov	r3, r1
 557 036c 0400A0E1 		mov	r0, r4
 558 0370 0510A0E1 		mov	r1, r5
 559 0374 FEFFFFEB 		bl	__aeabi_dsub
 560 0378 FEFFFFEB 		bl	__aeabi_d2f
 561 037c 3F14A0E3 		mov	r1, #1056964608
 562 0380 000086E5 		str	r0, [r6]	@ float
 563 0384 047086E5 		str	r7, [r6, #4]	@ float
 564 0388 0800A0E1 		mov	r0, r8
 565 038c FEFFFFEB 		bl	__aeabi_fmul
 566 0390 BC459FE5 		ldr	r4, .L197+56
 567 0394 0050A0E1 		mov	r5, r0
 568 0398 000084E5 		str	r0, [r4]	@ float
 569 039c 0710A0E1 		mov	r1, r7
 570 03a0 0900A0E1 		mov	r0, r9
 571 03a4 FEFFFFEB 		bl	__aeabi_fcmpgt
 572 03a8 000050E3 		cmp	r0, #0
 573 03ac 02518512 		addne	r5, r5, #-2147483648
 574 03b0 00508415 		strne	r5, [r4]	@ float
 575 03b4 480000EA 		b	.L101
 576              	.L185:
 577 03b8 0300A0E1 		mov	r0, r3
 578 03bc 0910A0E1 		mov	r1, r9
 579 03c0 FEFFFFEB 		bl	__aeabi_fcmpgt
 580 03c4 000050E3 		cmp	r0, #0
 581 03c8 ACFFFF1A 		bne	.L154
 582              	.L94:
 583 03cc 78B59FE5 		ldr	fp, .L197+48
 584 03d0 047097E5 		ldr	r7, [r7, #4]	@ float
 585 03d4 00909BE5 		ldr	r9, [fp]	@ float
 586 03d8 0700A0E1 		mov	r0, r7
 587 03dc 0910A0E1 		mov	r1, r9
 588 03e0 FEFFFFEB 		bl	__aeabi_fadd
 589 03e4 0810A0E1 		mov	r1, r8
 590 03e8 04008DE5 		str	r0, [sp, #4]
 591 03ec FEFFFFEB 		bl	__aeabi_fcmplt
 592 03f0 000050E3 		cmp	r0, #0
 593 03f4 0B80A0E1 		mov	r8, fp
 594 03f8 04309DE5 		ldr	r3, [sp, #4]
 595 03fc 0400001A 		bne	.L102
 596 0400 0300A0E1 		mov	r0, r3
 597 0404 0A10A0E1 		mov	r1, r10
 598 0408 FEFFFFEB 		bl	__aeabi_fcmpgt
 599 040c 000050E3 		cmp	r0, #0
 600 0410 0800000A 		beq	.L103
 601              	.L102:
 602 0414 0900A0E1 		mov	r0, r9
 603 0418 3F14A0E3 		mov	r1, #1056964608
 604 041c FEFFFFEB 		bl	__aeabi_fmul
 605 0420 0010A0E1 		mov	r1, r0
 606 0424 0700A0E1 		mov	r0, r7
 607 0428 FEFFFFEB 		bl	__aeabi_fadd
 608 042c 029189E2 		add	r9, r9, #-2147483648
 609 0430 009088E5 		str	r9, [r8]	@ float
 610 0434 0070A0E1 		mov	r7, r0
 611              	.L103:
 612 0438 008098E5 		ldr	r8, [r8]	@ float
 613 043c 0700A0E1 		mov	r0, r7
 614 0440 0810A0E1 		mov	r1, r8
 615 0444 FEFFFFEB 		bl	__aeabi_fadd
 616 0448 EC349FE5 		ldr	r3, .L197+32
 617 044c 007094E5 		ldr	r7, [r4]	@ float
 618 0450 009093E5 		ldr	r9, [r3]	@ float
 619 0454 040083E5 		str	r0, [r3, #4]	@ float
 620 0458 007083E5 		str	r7, [r3]	@ float
 621 045c 040084E5 		str	r0, [r4, #4]	@ float
 622 0460 009084E5 		str	r9, [r4]	@ float
 623 0464 007086E5 		str	r7, [r6]	@ float
 624 0468 FEFFFFEB 		bl	__aeabi_f2d
 625 046c 00A0A0E1 		mov	r10, r0
 626 0470 0800A0E1 		mov	r0, r8
 627 0474 01B0A0E1 		mov	fp, r1
 628 0478 FEFFFFEB 		bl	__aeabi_f2d
 629 047c 0020A0E3 		mov	r2, #0
 630 0480 C8349FE5 		ldr	r3, .L197+52
 631 0484 FEFFFFEB 		bl	__aeabi_dmul
 632 0488 0020A0E1 		mov	r2, r0
 633 048c 0130A0E1 		mov	r3, r1
 634 0490 0A00A0E1 		mov	r0, r10
 635 0494 0B10A0E1 		mov	r1, fp
 636 0498 FEFFFFEB 		bl	__aeabi_dsub
 637 049c FEFFFFEB 		bl	__aeabi_d2f
 638 04a0 3F14A0E3 		mov	r1, #1056964608
 639 04a4 040086E5 		str	r0, [r6, #4]	@ float
 640 04a8 0800A0E1 		mov	r0, r8
 641 04ac FEFFFFEB 		bl	__aeabi_fmul
 642 04b0 9C449FE5 		ldr	r4, .L197+56
 643 04b4 010055E3 		cmp	r5, #1
 644 04b8 0080A0E1 		mov	r8, r0
 645 04bc 000084E5 		str	r0, [r4]	@ float
 646 04c0 0500001A 		bne	.L101
 647 04c4 0900A0E1 		mov	r0, r9
 648 04c8 0710A0E1 		mov	r1, r7
 649 04cc FEFFFFEB 		bl	__aeabi_fcmplt
 650 04d0 000050E3 		cmp	r0, #0
 651 04d4 02818812 		addne	r8, r8, #-2147483648
 652 04d8 00808415 		strne	r8, [r4]	@ float
 653              	.L101:
 654 04dc 74349FE5 		ldr	r3, .L197+60
 655 04e0 0020A0E3 		mov	r2, #0
 656 04e4 54149FE5 		ldr	r1, .L197+36
 657 04e8 0020C3E5 		strb	r2, [r3]
 658 04ec 0130A0E3 		mov	r3, #1
 659 04f0 0030C1E5 		strb	r3, [r1]
 660 04f4 EE0000EA 		b	.L96
 661              	.L82:
 662 04f8 000055E3 		cmp	r5, #0
 663 04fc 6900001A 		bne	.L107
 664 0500 30349FE5 		ldr	r3, .L197+28
 665 0504 047093E5 		ldr	r7, [r3, #4]	@ float
 666 0508 2C349FE5 		ldr	r3, .L197+32
 667 050c 044093E5 		ldr	r4, [r3, #4]	@ float
 668 0510 0700A0E1 		mov	r0, r7
 669 0514 0410A0E1 		mov	r1, r4
 670 0518 FEFFFFEB 		bl	__aeabi_fcmpgt
 671 051c 000050E3 		cmp	r0, #0
 672 0520 3000000A 		beq	.L108
 673 0524 30349FE5 		ldr	r3, .L197+64
 674 0528 000093E5 		ldr	r0, [r3]	@ float
 675 052c FEFFFFEB 		bl	__aeabi_f2d
 676 0530 28249FE5 		ldr	r2, .L197+68
 677 0534 28349FE5 		ldr	r3, .L197+72
 678 0538 FEFFFFEB 		bl	__aeabi_dmul
 679 053c 0020A0E1 		mov	r2, r0
 680 0540 0130A0E1 		mov	r3, r1
 681 0544 0000A0E3 		mov	r0, #0
 682 0548 0010A0E3 		mov	r1, #0
 683 054c FEFFFFEB 		bl	__aeabi_dsub
 684 0550 FEFFFFEB 		bl	__aeabi_d2f
 685              	.L191:
 686 0554 0010A0E3 		mov	r1, #0
 687 0558 0080A0E1 		mov	r8, r0
 688 055c FEFFFFEB 		bl	__aeabi_fcmplt
 689 0560 000050E3 		cmp	r0, #0
 690 0564 FF9005E2 		and	r9, r5, #255
 691 0568 0F00000A 		beq	.L112
 692 056c 015085E2 		add	r5, r5, #1
 693 0570 010C55E3 		cmp	r5, #256
 694 0574 0300000A 		beq	.L193
 695 0578 0800A0E1 		mov	r0, r8
 696 057c E4139FE5 		ldr	r1, .L197+76
 697 0580 FEFFFFEB 		bl	__aeabi_fadd
 698 0584 F2FFFFEA 		b	.L191
 699              	.L193:
 700 0588 0090A0E3 		mov	r9, #0
 701 058c 060000EA 		b	.L112
 702              	.L115:
 703 0590 019089E2 		add	r9, r9, #1
 704 0594 FF9019E2 		ands	r9, r9, #255
 705 0598 0800000A 		beq	.L119
 706 059c 0800A0E1 		mov	r0, r8
 707 05a0 C0139FE5 		ldr	r1, .L197+76
 708 05a4 FEFFFFEB 		bl	__aeabi_fsub
 709 05a8 0080A0E1 		mov	r8, r0
 710              	.L112:
 711 05ac 0800A0E1 		mov	r0, r8
 712 05b0 B0139FE5 		ldr	r1, .L197+76
 713 05b4 FEFFFFEB 		bl	__aeabi_fcmpge
 714 05b8 000050E3 		cmp	r0, #0
 715 05bc F3FFFF1A 		bne	.L115
 716              	.L119:
 717 05c0 0800A0E1 		mov	r0, r8
 718 05c4 A0139FE5 		ldr	r1, .L197+80
 719 05c8 FEFFFFEB 		bl	__aeabi_fcmpgt
 720 05cc 000050E3 		cmp	r0, #0
 721 05d0 AC00001A 		bne	.L116
 722 05d4 0800A0E1 		mov	r0, r8
 723 05d8 90139FE5 		ldr	r1, .L197+84
 724 05dc FEFFFFEB 		bl	__aeabi_fcmplt
 725 05e0 000050E3 		cmp	r0, #0
 726 05e4 A700001A 		bne	.L116
 727              	.L108:
 728 05e8 0700A0E1 		mov	r0, r7
 729 05ec 0410A0E1 		mov	r1, r4
 730 05f0 FEFFFFEB 		bl	__aeabi_fcmplt
 731 05f4 000050E3 		cmp	r0, #0
 732 05f8 A800000A 		beq	.L120
 733 05fc 58339FE5 		ldr	r3, .L197+64
 734 0600 000093E5 		ldr	r0, [r3]	@ float
 735 0604 FEFFFFEB 		bl	__aeabi_f2d
 736 0608 50239FE5 		ldr	r2, .L197+68
 737 060c 50339FE5 		ldr	r3, .L197+72
 738 0610 FEFFFFEB 		bl	__aeabi_dmul
 739 0614 0020A0E1 		mov	r2, r0
 740 0618 0130A0E1 		mov	r3, r1
 741 061c 0000A0E3 		mov	r0, #0
 742 0620 4C139FE5 		ldr	r1, .L197+88
 743 0624 FEFFFFEB 		bl	__aeabi_dsub
 744 0628 FEFFFFEB 		bl	__aeabi_d2f
 745 062c 0050A0E3 		mov	r5, #0
 746 0630 0040A0E1 		mov	r4, r0
 747              	.L122:
 748 0634 0400A0E1 		mov	r0, r4
 749 0638 0010A0E3 		mov	r1, #0
 750 063c FEFFFFEB 		bl	__aeabi_fcmplt
 751 0640 000050E3 		cmp	r0, #0
 752 0644 FF7005E2 		and	r7, r5, #255
 753 0648 1000000A 		beq	.L124
 754 064c 015085E2 		add	r5, r5, #1
 755 0650 010C55E3 		cmp	r5, #256
 756 0654 0400000A 		beq	.L194
 757 0658 0400A0E1 		mov	r0, r4
 758 065c 04139FE5 		ldr	r1, .L197+76
 759 0660 FEFFFFEB 		bl	__aeabi_fadd
 760 0664 0040A0E1 		mov	r4, r0
 761 0668 F1FFFFEA 		b	.L122
 762              	.L194:
 763 066c 0070A0E3 		mov	r7, #0
 764 0670 060000EA 		b	.L124
 765              	.L127:
 766 0674 017087E2 		add	r7, r7, #1
 767 0678 FF7017E2 		ands	r7, r7, #255
 768 067c 7700000A 		beq	.L151
 769 0680 0400A0E1 		mov	r0, r4
 770 0684 DC129FE5 		ldr	r1, .L197+76
 771 0688 FEFFFFEB 		bl	__aeabi_fsub
 772 068c 0040A0E1 		mov	r4, r0
 773              	.L124:
 774 0690 0400A0E1 		mov	r0, r4
 775 0694 CC129FE5 		ldr	r1, .L197+76
 776 0698 FEFFFFEB 		bl	__aeabi_fcmpge
 777 069c 000050E3 		cmp	r0, #0
 778 06a0 F3FFFF1A 		bne	.L127
 779 06a4 6D0000EA 		b	.L151
 780              	.L107:
 781 06a8 010055E3 		cmp	r5, #1
 782 06ac 7B00001A 		bne	.L120
 783 06b0 80329FE5 		ldr	r3, .L197+28
 784 06b4 007093E5 		ldr	r7, [r3]	@ float
 785 06b8 7C329FE5 		ldr	r3, .L197+32
 786 06bc 005093E5 		ldr	r5, [r3]	@ float
 787 06c0 0700A0E1 		mov	r0, r7
 788 06c4 0510A0E1 		mov	r1, r5
 789 06c8 FEFFFFEB 		bl	__aeabi_fcmpgt
 790 06cc 000050E3 		cmp	r0, #0
 791 06d0 3300000A 		beq	.L131
 792 06d4 80329FE5 		ldr	r3, .L197+64
 793 06d8 000093E5 		ldr	r0, [r3]	@ float
 794 06dc FEFFFFEB 		bl	__aeabi_f2d
 795 06e0 78229FE5 		ldr	r2, .L197+68
 796 06e4 78329FE5 		ldr	r3, .L197+72
 797 06e8 FEFFFFEB 		bl	__aeabi_dmul
 798 06ec 0020A0E1 		mov	r2, r0
 799 06f0 0130A0E1 		mov	r3, r1
 800 06f4 0000A0E3 		mov	r0, #0
 801 06f8 78129FE5 		ldr	r1, .L197+92
 802 06fc FEFFFFEB 		bl	__aeabi_dsub
 803 0700 FEFFFFEB 		bl	__aeabi_d2f
 804 0704 0080A0E3 		mov	r8, #0
 805 0708 0040A0E1 		mov	r4, r0
 806              	.L133:
 807 070c 0400A0E1 		mov	r0, r4
 808 0710 0010A0E3 		mov	r1, #0
 809 0714 FEFFFFEB 		bl	__aeabi_fcmplt
 810 0718 000050E3 		cmp	r0, #0
 811 071c FF9008E2 		and	r9, r8, #255
 812 0720 1000000A 		beq	.L135
 813 0724 018088E2 		add	r8, r8, #1
 814 0728 010C58E3 		cmp	r8, #256
 815 072c 0400000A 		beq	.L195
 816 0730 0400A0E1 		mov	r0, r4
 817 0734 2C129FE5 		ldr	r1, .L197+76
 818 0738 FEFFFFEB 		bl	__aeabi_fadd
 819 073c 0040A0E1 		mov	r4, r0
 820 0740 F1FFFFEA 		b	.L133
 821              	.L195:
 822 0744 0090A0E3 		mov	r9, #0
 823 0748 060000EA 		b	.L135
 824              	.L138:
 825 074c 019089E2 		add	r9, r9, #1
 826 0750 FF9019E2 		ands	r9, r9, #255
 827 0754 0800000A 		beq	.L141
 828 0758 0400A0E1 		mov	r0, r4
 829 075c 04129FE5 		ldr	r1, .L197+76
 830 0760 FEFFFFEB 		bl	__aeabi_fsub
 831 0764 0040A0E1 		mov	r4, r0
 832              	.L135:
 833 0768 0400A0E1 		mov	r0, r4
 834 076c F4119FE5 		ldr	r1, .L197+76
 835 0770 FEFFFFEB 		bl	__aeabi_fcmpge
 836 0774 000050E3 		cmp	r0, #0
 837 0778 F3FFFF1A 		bne	.L138
 838              	.L141:
 839 077c 0400A0E1 		mov	r0, r4
 840 0780 E4119FE5 		ldr	r1, .L197+80
 841 0784 FEFFFFEB 		bl	__aeabi_fcmpgt
 842 0788 000050E3 		cmp	r0, #0
 843 078c 3D00001A 		bne	.L116
 844 0790 0400A0E1 		mov	r0, r4
 845 0794 D4119FE5 		ldr	r1, .L197+84
 846 0798 FEFFFFEB 		bl	__aeabi_fcmplt
 847 079c 000050E3 		cmp	r0, #0
 848 07a0 3800001A 		bne	.L116
 849              	.L131:
 850 07a4 0700A0E1 		mov	r0, r7
 851 07a8 0510A0E1 		mov	r1, r5
 852 07ac FEFFFFEB 		bl	__aeabi_fcmplt
 853 07b0 000050E3 		cmp	r0, #0
 854 07b4 3900000A 		beq	.L120
 855 07b8 9C319FE5 		ldr	r3, .L197+64
 856 07bc 000093E5 		ldr	r0, [r3]	@ float
 857 07c0 FEFFFFEB 		bl	__aeabi_f2d
 858 07c4 94219FE5 		ldr	r2, .L197+68
 859 07c8 94319FE5 		ldr	r3, .L197+72
 860 07cc FEFFFFEB 		bl	__aeabi_dmul
 861 07d0 0020A0E1 		mov	r2, r0
 862 07d4 0130A0E1 		mov	r3, r1
 863 07d8 0000A0E3 		mov	r0, #0
 864 07dc 98119FE5 		ldr	r1, .L197+96
 865 07e0 FEFFFFEB 		bl	__aeabi_dsub
 866 07e4 FEFFFFEB 		bl	__aeabi_d2f
 867 07e8 0050A0E3 		mov	r5, #0
 868 07ec 0040A0E1 		mov	r4, r0
 869              	.L143:
 870 07f0 0400A0E1 		mov	r0, r4
 871 07f4 0010A0E3 		mov	r1, #0
 872 07f8 FEFFFFEB 		bl	__aeabi_fcmplt
 873 07fc 000050E3 		cmp	r0, #0
 874 0800 FF7005E2 		and	r7, r5, #255
 875 0804 1000000A 		beq	.L145
 876 0808 015085E2 		add	r5, r5, #1
 877 080c 010C55E3 		cmp	r5, #256
 878 0810 0400000A 		beq	.L196
 879 0814 0400A0E1 		mov	r0, r4
 880 0818 48119FE5 		ldr	r1, .L197+76
 881 081c FEFFFFEB 		bl	__aeabi_fadd
 882 0820 0040A0E1 		mov	r4, r0
 883 0824 F1FFFFEA 		b	.L143
 884              	.L196:
 885 0828 0070A0E3 		mov	r7, #0
 886 082c 060000EA 		b	.L145
 887              	.L148:
 888 0830 017087E2 		add	r7, r7, #1
 889 0834 FF7017E2 		ands	r7, r7, #255
 890 0838 0800000A 		beq	.L151
 891 083c 0400A0E1 		mov	r0, r4
 892 0840 20119FE5 		ldr	r1, .L197+76
 893 0844 FEFFFFEB 		bl	__aeabi_fsub
 894 0848 0040A0E1 		mov	r4, r0
 895              	.L145:
 896 084c 0400A0E1 		mov	r0, r4
 897 0850 10119FE5 		ldr	r1, .L197+76
 898 0854 FEFFFFEB 		bl	__aeabi_fcmpge
 899 0858 000050E3 		cmp	r0, #0
 900 085c F3FFFF1A 		bne	.L148
 901              	.L151:
 902 0860 0400A0E1 		mov	r0, r4
 903 0864 00119FE5 		ldr	r1, .L197+80
 904 0868 FEFFFFEB 		bl	__aeabi_fcmpgt
 905 086c 000050E3 		cmp	r0, #0
 906 0870 0400001A 		bne	.L116
 907 0874 0400A0E1 		mov	r0, r4
 908 0878 F0109FE5 		ldr	r1, .L197+84
 909 087c FEFFFFEB 		bl	__aeabi_fcmplt
 910 0880 000050E3 		cmp	r0, #0
 911 0884 0500000A 		beq	.L120
 912              	.L116:
 913 0888 B0209FE5 		ldr	r2, .L197+36
 914 088c 0030A0E3 		mov	r3, #0
 915 0890 0030C2E5 		strb	r3, [r2]
 916 0894 E4209FE5 		ldr	r2, .L197+100
 917 0898 0030C2E5 		strb	r3, [r2]
 918 089c 040000EA 		b	.L96
 919              	.L120:
 920 08a0 AC309FE5 		ldr	r3, .L197+56
 921 08a4 000096E5 		ldr	r0, [r6]	@ float
 922 08a8 041096E5 		ldr	r1, [r6, #4]	@ float
 923 08ac 002093E5 		ldr	r2, [r3]	@ float
 924 08b0 FEFFFFEB 		bl	nav_circle_XY
 925              	.L96:
 926 08b4 C8309FE5 		ldr	r3, .L197+104
 927 08b8 0020A0E3 		mov	r2, #0
 928 08bc 0020C3E5 		strb	r2, [r3]
 929 08c0 C0209FE5 		ldr	r2, .L197+108
 930 08c4 0030A0E3 		mov	r3, #0
 931 08c8 003082E5 		str	r3, [r2]	@ float
 932 08cc B8209FE5 		ldr	r2, .L197+112
 933 08d0 0310A0E3 		mov	r1, #3
 934 08d4 0010C2E5 		strb	r1, [r2]
 935 08d8 0C109DE5 		ldr	r1, [sp, #12]
 936 08dc 0C20A0E3 		mov	r2, #12
 937 08e0 926126E0 		mla	r6, r2, r1, r6
 938 08e4 A4209FE5 		ldr	r2, .L197+116
 939 08e8 081096E5 		ldr	r1, [r6, #8]	@ float
 940 08ec 001082E5 		str	r1, [r2]	@ float
 941 08f0 9C209FE5 		ldr	r2, .L197+120
 942 08f4 003082E5 		str	r3, [r2]	@ float
 943 08f8 14D08DE2 		add	sp, sp, #20
 944              		@ sp needed
 945 08fc F04FBDE8 		ldmfd	sp!, {r4, r5, r6, r7, r8, r9, r10, fp, lr}
 946 0900 1EFF2FE1 		bx	lr
 947              	.L183:
 948 0904 0300A0E1 		mov	r0, r3
 949 0908 0810A0E1 		mov	r1, r8
 950 090c FEFFFFEB 		bl	__aeabi_fcmpgt
 951 0910 000050E3 		cmp	r0, #0
 952 0914 3BFEFF1A 		bne	.L153
 953 0918 3FFEFFEA 		b	.L85
 954              	.L198:
 955              		.align	2
 956              	.L197:
 957 091c 00000000 		.word	nav_survey_active
 958 0920 00000000 		.word	waypoints
 959 0924 00000000 		.word	nav_survey_west
 960 0928 00000000 		.word	nav_survey_east
 961 092c 00000000 		.word	nav_survey_south
 962 0930 00000000 		.word	nav_survey_north
 963 0934 00000000 		.word	.LANCHOR0
 964 0938 00000000 		.word	.LANCHOR1
 965 093c 00000000 		.word	.LANCHOR2
 966 0940 00000000 		.word	.LANCHOR3
 967 0944 00000000 		.word	estimator_y
 968 0948 00000000 		.word	estimator_x
 969 094c 00000000 		.word	nav_survey_shift
 970 0950 0000E03F 		.word	1071644672
 971 0954 00000000 		.word	.LANCHOR4
 972 0958 00000000 		.word	nav_in_segment
 973 095c 00000000 		.word	estimator_hspeed_dir
 974 0960 F8C1631A 		.word	442745336
 975 0964 DCA54C40 		.word	1078765020
 976 0968 0000B443 		.word	1135869952
 977 096c 0000AF43 		.word	1135542272
 978 0970 00002041 		.word	1092616192
 979 0974 00806640 		.word	1080459264
 980 0978 00805640 		.word	1079410688
 981 097c 00E07040 		.word	1081139200
 982 0980 00000000 		.word	nav_in_circle
 983 0984 00000000 		.word	v_ctl_climb_mode
 984 0988 00000000 		.word	nav_pitch
 985 098c 00000000 		.word	v_ctl_mode
 986 0990 00000000 		.word	nav_altitude
 987 0994 00000000 		.word	v_ctl_altitude_pre_climb
 989              		.section	.bss.survey_from,"aw",%nobits
 990              		.align	2
 991              		.set	.LANCHOR2,. + 0
 994              	survey_from:
 995 0000 00000000 		.space	12
 995      00000000 
 995      00000000 
 996              		.section	.bss.survey_orientation,"aw",%nobits
 997              		.set	.LANCHOR0,. + 0
 1000              	survey_orientation:
 1001 0000 00       		.space	1
 1002              		.section	.bss.survey_to,"aw",%nobits
 1003              		.align	2
 1004              		.set	.LANCHOR1,. + 0
 1007              	survey_to:
 1008 0000 00000000 		.space	12
 1008      00000000 
 1008      00000000 
 1009              		.section	.bss.survey_uturn,"aw",%nobits
 1010              		.set	.LANCHOR3,. + 0
 1013              	survey_uturn:
 1014 0000 00       		.space	1
 1015              		.section	.bss.survey_radius.4998,"aw",%nobits
 1016              		.align	2
 1017              		.set	.LANCHOR4,. + 0
 1020              	survey_radius.4998:
 1021 0000 00000000 		.space	4
 1022              		.ident	"GCC: (GNU Tools for ARM Embedded Processors) 4.8.3 20131129 (release) [ARM/embedded-4_8-br
DEFINED SYMBOLS
                            *ABS*:00000000 nav_survey_rectangle.c
     /tmp/ccEUuUAF.s:23     .text.nav_survey_rectangle_init:00000000 $a
     /tmp/ccEUuUAF.s:26     .text.nav_survey_rectangle_init:00000000 nav_survey_rectangle_init
     /tmp/ccEUuUAF.s:295    .text.nav_survey_rectangle_init:000003cc $d
     /tmp/ccEUuUAF.s:320    .text.nav_survey_rectangle:00000000 $a
     /tmp/ccEUuUAF.s:323    .text.nav_survey_rectangle:00000000 nav_survey_rectangle
     /tmp/ccEUuUAF.s:957    .text.nav_survey_rectangle:0000091c $d
     /tmp/ccEUuUAF.s:990    .bss.survey_from:00000000 $d
     /tmp/ccEUuUAF.s:994    .bss.survey_from:00000000 survey_from
     /tmp/ccEUuUAF.s:1000   .bss.survey_orientation:00000000 survey_orientation
     /tmp/ccEUuUAF.s:1001   .bss.survey_orientation:00000000 $d
     /tmp/ccEUuUAF.s:1003   .bss.survey_to:00000000 $d
     /tmp/ccEUuUAF.s:1007   .bss.survey_to:00000000 survey_to
     /tmp/ccEUuUAF.s:1013   .bss.survey_uturn:00000000 survey_uturn
     /tmp/ccEUuUAF.s:1014   .bss.survey_uturn:00000000 $d
     /tmp/ccEUuUAF.s:1016   .bss.survey_radius.4998:00000000 $d
     /tmp/ccEUuUAF.s:1020   .bss.survey_radius.4998:00000000 survey_radius.4998

UNDEFINED SYMBOLS
__aeabi_fcmplt
__aeabi_fcmpgt
__aeabi_f2d
__aeabi_dmul
__aeabi_dadd
__aeabi_dcmpgt
__aeabi_dsub
__aeabi_dcmplt
__aeabi_d2f
waypoints
nav_survey_west
nav_survey_east
nav_survey_south
nav_survey_north
estimator_x
estimator_y
estimator_hspeed_dir
nav_survey_shift
__aeabi_fadd
__aeabi_fmul
__aeabi_fsub
__aeabi_fcmpge
nav_route_xy
nav_circle_XY
nav_survey_active
nav_in_segment
nav_in_circle
v_ctl_climb_mode
nav_pitch
v_ctl_mode
nav_altitude
v_ctl_altitude_pre_climb
