   1              		.cpu arm7tdmi
   2              		.fpu softvfp
   3              		.eabi_attribute 20, 1
   4              		.eabi_attribute 21, 1
   5              		.eabi_attribute 23, 3
   6              		.eabi_attribute 24, 1
   7              		.eabi_attribute 25, 1
   8              		.eabi_attribute 26, 1
   9              		.eabi_attribute 30, 4
  10              		.eabi_attribute 34, 0
  11              		.eabi_attribute 18, 4
  12              		.file	"OSAMNav.c"
  13              		.global	__aeabi_fsub
  14              		.global	__aeabi_fmul
  15              		.global	__aeabi_fadd
  16              		.global	__aeabi_f2d
  17              		.global	__aeabi_d2f
  18              		.global	__aeabi_dadd
  19              		.global	__aeabi_dmul
  20              		.global	__aeabi_fcmpgt
  21              		.section	.text.InitializeFlower,"ax",%progbits
  22              		.align	2
  23              		.global	InitializeFlower
  25              	InitializeFlower:
  26              		@ Function supports interworking.
  27              		@ args = 0, pretend = 0, frame = 24
  28              		@ frame_needed = 0, uses_anonymous_args = 0
  29 0000 74329FE5 		ldr	r3, .L8
  30 0004 F04F2DE9 		stmfd	sp!, {r4, r5, r6, r7, r8, r9, r10, fp, lr}
  31 0008 0000C3E5 		strb	r0, [r3]
  32 000c 6C329FE5 		ldr	r3, .L8+4
  33 0010 0C70A0E3 		mov	r7, #12
  34 0014 0010C3E5 		strb	r1, [r3]
  35 0018 970101E0 		mul	r1, r7, r1
  36 001c 900707E0 		mul	r7, r0, r7
  37 0020 5C629FE5 		ldr	r6, .L8+8
  38 0024 1CD04DE2 		sub	sp, sp, #28
  39 0028 010096E7 		ldr	r0, [r6, r1]	@ float
  40 002c 014086E0 		add	r4, r6, r1
  41 0030 071096E7 		ldr	r1, [r6, r7]	@ float
  42 0034 FEFFFFEB 		bl	__aeabi_fsub
  43 0038 48329FE5 		ldr	r3, .L8+12
  44 003c 000083E5 		str	r0, [r3]	@ float
  45 0040 079086E0 		add	r9, r6, r7
  46 0044 041099E5 		ldr	r1, [r9, #4]	@ float
  47 0048 0050A0E1 		mov	r5, r0
  48 004c 040094E5 		ldr	r0, [r4, #4]	@ float
  49 0050 FEFFFFEB 		bl	__aeabi_fsub
  50 0054 30329FE5 		ldr	r3, .L8+16
  51 0058 0040A0E1 		mov	r4, r0
  52 005c 000083E5 		str	r0, [r3]	@ float
  53 0060 0510A0E1 		mov	r1, r5
  54 0064 0500A0E1 		mov	r0, r5
  55 0068 FEFFFFEB 		bl	__aeabi_fmul
  56 006c 0410A0E1 		mov	r1, r4
  57 0070 0050A0E1 		mov	r5, r0
  58 0074 0400A0E1 		mov	r0, r4
  59 0078 FEFFFFEB 		bl	__aeabi_fmul
  60 007c 0010A0E1 		mov	r1, r0
  61 0080 0500A0E1 		mov	r0, r5
  62 0084 FEFFFFEB 		bl	__aeabi_fadd
  63 0088 FEFFFFEB 		bl	__aeabi_f2d
  64 008c FEFFFFEB 		bl	sqrt
  65 0090 FEFFFFEB 		bl	__aeabi_d2f
  66 0094 F4319FE5 		ldr	r3, .L8+20
  67 0098 F4B19FE5 		ldr	fp, .L8+24
  68 009c 000083E5 		str	r0, [r3]	@ float
  69 00a0 0080A0E1 		mov	r8, r0
  70 00a4 071096E7 		ldr	r1, [r6, r7]	@ float
  71 00a8 00009BE5 		ldr	r0, [fp]	@ float
  72 00ac FEFFFFEB 		bl	__aeabi_fsub
  73 00b0 E0219FE5 		ldr	r2, .L8+28
  74 00b4 E0C19FE5 		ldr	ip, .L8+32
  75 00b8 000082E5 		str	r0, [r2]	@ float
  76 00bc 00A0A0E1 		mov	r10, r0
  77 00c0 041099E5 		ldr	r1, [r9, #4]	@ float
  78 00c4 00009CE5 		ldr	r0, [ip]	@ float
  79 00c8 00C08DE5 		str	ip, [sp]
  80 00cc FEFFFFEB 		bl	__aeabi_fsub
  81 00d0 C8219FE5 		ldr	r2, .L8+36
  82 00d4 0040A0E1 		mov	r4, r0
  83 00d8 000082E5 		str	r0, [r2]	@ float
  84 00dc 0A10A0E1 		mov	r1, r10
  85 00e0 0A00A0E1 		mov	r0, r10
  86 00e4 FEFFFFEB 		bl	__aeabi_fmul
  87 00e8 0410A0E1 		mov	r1, r4
  88 00ec 0050A0E1 		mov	r5, r0
  89 00f0 0400A0E1 		mov	r0, r4
  90 00f4 FEFFFFEB 		bl	__aeabi_fmul
  91 00f8 0010A0E1 		mov	r1, r0
  92 00fc 0500A0E1 		mov	r0, r5
  93 0100 FEFFFFEB 		bl	__aeabi_fadd
  94 0104 FEFFFFEB 		bl	__aeabi_f2d
  95 0108 FEFFFFEB 		bl	sqrt
  96 010c FEFFFFEB 		bl	__aeabi_d2f
  97 0110 8C219FE5 		ldr	r2, .L8+40
  98 0114 04008DE5 		str	r0, [sp, #4]	@ float
  99 0118 000082E5 		str	r0, [r2]	@ float
 100 011c 0400A0E1 		mov	r0, r4
 101 0120 FEFFFFEB 		bl	__aeabi_f2d
 102 0124 0040A0E1 		mov	r4, r0
 103 0128 0A00A0E1 		mov	r0, r10
 104 012c 0150A0E1 		mov	r5, r1
 105 0130 FEFFFFEB 		bl	__aeabi_f2d
 106 0134 0020A0E1 		mov	r2, r0
 107 0138 0130A0E1 		mov	r3, r1
 108 013c 0400A0E1 		mov	r0, r4
 109 0140 0510A0E1 		mov	r1, r5
 110 0144 FEFFFFEB 		bl	atan2
 111 0148 FEFFFFEB 		bl	__aeabi_d2f
 112 014c 54319FE5 		ldr	r3, .L8+44
 113 0150 0040A0E1 		mov	r4, r0
 114 0154 000083E5 		str	r0, [r3]	@ float
 115 0158 0800A0E1 		mov	r0, r8
 116 015c FEFFFFEB 		bl	__aeabi_f2d
 117 0160 08008DE5 		str	r0, [sp, #8]
 118 0164 0C108DE5 		str	r1, [sp, #12]
 119 0168 0400A0E1 		mov	r0, r4
 120 016c FEFFFFEB 		bl	__aeabi_f2d
 121 0170 34219FE5 		ldr	r2, .L8+48
 122 0174 34319FE5 		ldr	r3, .L8+52
 123 0178 FEFFFFEB 		bl	__aeabi_dadd
 124 017c 10008DE5 		str	r0, [sp, #16]
 125 0180 14108DE5 		str	r1, [sp, #20]
 126 0184 FEFFFFEB 		bl	cos
 127 0188 0020A0E1 		mov	r2, r0
 128 018c 0130A0E1 		mov	r3, r1
 129 0190 08108DE2 		add	r1, sp, #8
 130 0194 030091E8 		ldmia	r1, {r0-r1}
 131 0198 FEFFFFEB 		bl	__aeabi_dmul
 132 019c 0040A0E1 		mov	r4, r0
 133 01a0 070096E7 		ldr	r0, [r6, r7]	@ float
 134 01a4 0150A0E1 		mov	r5, r1
 135 01a8 FEFFFFEB 		bl	__aeabi_f2d
 136 01ac 0020A0E1 		mov	r2, r0
 137 01b0 0130A0E1 		mov	r3, r1
 138 01b4 0400A0E1 		mov	r0, r4
 139 01b8 0510A0E1 		mov	r1, r5
 140 01bc FEFFFFEB 		bl	__aeabi_dadd
 141 01c0 FEFFFFEB 		bl	__aeabi_d2f
 142 01c4 E8309FE5 		ldr	r3, .L8+56
 143 01c8 000083E5 		str	r0, [r3]	@ float
 144 01cc 10108DE2 		add	r1, sp, #16
 145 01d0 030091E8 		ldmia	r1, {r0-r1}
 146 01d4 FEFFFFEB 		bl	sin
 147 01d8 0020A0E1 		mov	r2, r0
 148 01dc 0130A0E1 		mov	r3, r1
 149 01e0 08108DE2 		add	r1, sp, #8
 150 01e4 030091E8 		ldmia	r1, {r0-r1}
 151 01e8 FEFFFFEB 		bl	__aeabi_dmul
 152 01ec 0040A0E1 		mov	r4, r0
 153 01f0 040099E5 		ldr	r0, [r9, #4]	@ float
 154 01f4 0150A0E1 		mov	r5, r1
 155 01f8 FEFFFFEB 		bl	__aeabi_f2d
 156 01fc 0020A0E1 		mov	r2, r0
 157 0200 0130A0E1 		mov	r3, r1
 158 0204 0400A0E1 		mov	r0, r4
 159 0208 0510A0E1 		mov	r1, r5
 160 020c FEFFFFEB 		bl	__aeabi_dadd
 161 0210 FEFFFFEB 		bl	__aeabi_d2f
 162 0214 9C309FE5 		ldr	r3, .L8+60
 163 0218 00C09DE5 		ldr	ip, [sp]
 164 021c 000083E5 		str	r0, [r3]	@ float
 165 0220 00209BE5 		ldr	r2, [fp]	@ float
 166 0224 90309FE5 		ldr	r3, .L8+64
 167 0228 002083E5 		str	r2, [r3]	@ float
 168 022c 00209CE5 		ldr	r2, [ip]	@ float
 169 0230 88309FE5 		ldr	r3, .L8+68
 170 0234 04009DE5 		ldr	r0, [sp, #4]	@ float
 171 0238 002083E5 		str	r2, [r3]	@ float
 172 023c 0810A0E1 		mov	r1, r8
 173 0240 FEFFFFEB 		bl	__aeabi_fcmpgt
 174 0244 78309FE5 		ldr	r3, .L8+72
 175 0248 000050E3 		cmp	r0, #0
 176 024c 0020A013 		movne	r2, #0
 177 0250 0120A003 		moveq	r2, #1
 178 0254 0020C3E5 		strb	r2, [r3]
 179 0258 68209FE5 		ldr	r2, .L8+76
 180 025c 0030A0E3 		mov	r3, #0
 181 0260 003082E5 		str	r3, [r2]	@ float
 182 0264 60209FE5 		ldr	r2, .L8+80
 183 0268 0000A0E3 		mov	r0, #0
 184 026c 003082E5 		str	r3, [r2]	@ float
 185 0270 1CD08DE2 		add	sp, sp, #28
 186              		@ sp needed
 187 0274 F04FBDE8 		ldmfd	sp!, {r4, r5, r6, r7, r8, r9, r10, fp, lr}
 188 0278 1EFF2FE1 		bx	lr
 189              	.L9:
 190              		.align	2
 191              	.L8:
 192 027c 00000000 		.word	.LANCHOR0
 193 0280 00000000 		.word	.LANCHOR1
 194 0284 00000000 		.word	waypoints
 195 0288 00000000 		.word	.LANCHOR2
 196 028c 00000000 		.word	.LANCHOR3
 197 0290 00000000 		.word	.LANCHOR4
 198 0294 00000000 		.word	estimator_x
 199 0298 00000000 		.word	.LANCHOR5
 200 029c 00000000 		.word	estimator_y
 201 02a0 00000000 		.word	.LANCHOR6
 202 02a4 00000000 		.word	.LANCHOR7
 203 02a8 00000000 		.word	.LANCHOR8
 204 02ac 1F85EB51 		.word	1374389535
 205 02b0 B81E0940 		.word	1074339512
 206 02b4 00000000 		.word	.LANCHOR9
 207 02b8 00000000 		.word	.LANCHOR10
 208 02bc 00000000 		.word	.LANCHOR11
 209 02c0 00000000 		.word	.LANCHOR12
 210 02c4 00000000 		.word	.LANCHOR13
 211 02c8 00000000 		.word	.LANCHOR14
 212 02cc 00000000 		.word	.LANCHOR15
 214              		.global	__aeabi_fdiv
 215              		.global	__aeabi_dsub
 216              		.section	.text.FlowerNav,"ax",%progbits
 217              		.align	2
 218              		.global	FlowerNav
 220              	FlowerNav:
 221              		@ Function supports interworking.
 222              		@ args = 0, pretend = 0, frame = 24
 223              		@ frame_needed = 0, uses_anonymous_args = 0
 224 0000 F04F2DE9 		stmfd	sp!, {r4, r5, r6, r7, r8, r9, r10, fp, lr}
 225 0004 DC859FE5 		ldr	r8, .L28
 226 0008 0030D8E5 		ldrb	r3, [r8]	@ zero_extendqisi2
 227 000c 0C20A0E3 		mov	r2, #12
 228 0010 930202E0 		mul	r2, r3, r2
 229 0014 D0459FE5 		ldr	r4, .L28+4
 230 0018 D0B59FE5 		ldr	fp, .L28+8
 231 001c 021094E7 		ldr	r1, [r4, r2]	@ float
 232 0020 1CD04DE2 		sub	sp, sp, #28
 233 0024 00009BE5 		ldr	r0, [fp]	@ float
 234 0028 025084E0 		add	r5, r4, r2
 235 002c 04308DE5 		str	r3, [sp, #4]
 236 0030 FEFFFFEB 		bl	__aeabi_fsub
 237 0034 B8959FE5 		ldr	r9, .L28+12
 238 0038 B8659FE5 		ldr	r6, .L28+16
 239 003c 000089E5 		str	r0, [r9]	@ float
 240 0040 00A0A0E1 		mov	r10, r0
 241 0044 041095E5 		ldr	r1, [r5, #4]	@ float
 242 0048 000096E5 		ldr	r0, [r6]	@ float
 243 004c FEFFFFEB 		bl	__aeabi_fsub
 244 0050 A4559FE5 		ldr	r5, .L28+20
 245 0054 0070A0E1 		mov	r7, r0
 246 0058 0A10A0E1 		mov	r1, r10
 247 005c 000085E5 		str	r0, [r5]	@ float
 248 0060 0A00A0E1 		mov	r0, r10
 249 0064 FEFFFFEB 		bl	__aeabi_fmul
 250 0068 0710A0E1 		mov	r1, r7
 251 006c 00A0A0E1 		mov	r10, r0
 252 0070 0700A0E1 		mov	r0, r7
 253 0074 FEFFFFEB 		bl	__aeabi_fmul
 254 0078 0010A0E1 		mov	r1, r0
 255 007c 0A00A0E1 		mov	r0, r10
 256 0080 FEFFFFEB 		bl	__aeabi_fadd
 257 0084 FEFFFFEB 		bl	__aeabi_f2d
 258 0088 FEFFFFEB 		bl	sqrt
 259 008c FEFFFFEB 		bl	__aeabi_d2f
 260 0090 68A59FE5 		ldr	r10, .L28+24
 261 0094 68259FE5 		ldr	r2, .L28+28
 262 0098 00109AE5 		ldr	r1, [r10]	@ float
 263 009c 000082E5 		str	r0, [r2]	@ float
 264 00a0 FEFFFFEB 		bl	__aeabi_fcmpgt
 265 00a4 5C259FE5 		ldr	r2, .L28+32
 266 00a8 5C159FE5 		ldr	r1, .L28+36
 267 00ac 0060A0E3 		mov	r6, #0
 268 00b0 04309DE5 		ldr	r3, [sp, #4]
 269 00b4 0060C2E5 		strb	r6, [r2]
 270 00b8 0020A0E3 		mov	r2, #0
 271 00bc 000050E3 		cmp	r0, #0
 272 00c0 002081E5 		str	r2, [r1]	@ float
 273 00c4 44159FE5 		ldr	r1, .L28+40
 274 00c8 0170A0E3 		mov	r7, #1
 275 00cc 18B59FE5 		ldr	fp, .L28+4
 276 00d0 0070A001 		moveq	r7, r0
 277 00d4 0300A0E3 		mov	r0, #3
 278 00d8 0000C1E5 		strb	r0, [r1]
 279 00dc 0C00A0E3 		mov	r0, #12
 280 00e0 90B323E0 		mla	r3, r0, r3, fp
 281 00e4 081093E5 		ldr	r1, [r3, #8]	@ float
 282 00e8 24359FE5 		ldr	r3, .L28+44
 283 00ec 24459FE5 		ldr	r4, .L28+48
 284 00f0 001083E5 		str	r1, [r3]	@ float
 285 00f4 20359FE5 		ldr	r3, .L28+52
 286 00f8 002083E5 		str	r2, [r3]	@ float
 287 00fc 0030D4E5 		ldrb	r3, [r4]	@ zero_extendqisi2
 288 0100 017027E2 		eor	r7, r7, #1
 289 0104 010053E3 		cmp	r3, #1
 290 0108 FF7007E2 		and	r7, r7, #255
 291 010c 5C00000A 		beq	.L13
 292 0110 0200003A 		bcc	.L14
 293 0114 020053E3 		cmp	r3, #2
 294 0118 AA00000A 		beq	.L15
 295 011c 2D0100EA 		b	.L12
 296              	.L14:
 297 0120 F8249FE5 		ldr	r2, .L28+56
 298 0124 F8A49FE5 		ldr	r10, .L28+60
 299 0128 F8649FE5 		ldr	r6, .L28+64
 300 012c F8849FE5 		ldr	r8, .L28+68
 301 0130 001092E5 		ldr	r1, [r2]	@ float
 302 0134 00009AE5 		ldr	r0, [r10]	@ float
 303 0138 002096E5 		ldr	r2, [r6]	@ float
 304 013c 003098E5 		ldr	r3, [r8]	@ float
 305 0140 FEFFFFEB 		bl	nav_route_xy
 306 0144 000057E3 		cmp	r7, #0
 307 0148 2201000A 		beq	.L12
 308 014c 0130A0E3 		mov	r3, #1
 309 0150 0030C4E5 		strb	r3, [r4]
 310 0154 000095E5 		ldr	r0, [r5]	@ float
 311 0158 FEFFFFEB 		bl	__aeabi_f2d
 312 015c 0040A0E1 		mov	r4, r0
 313 0160 000099E5 		ldr	r0, [r9]	@ float
 314 0164 0150A0E1 		mov	r5, r1
 315 0168 FEFFFFEB 		bl	__aeabi_f2d
 316 016c 0020A0E1 		mov	r2, r0
 317 0170 0130A0E1 		mov	r3, r1
 318 0174 0400A0E1 		mov	r0, r4
 319 0178 0510A0E1 		mov	r1, r5
 320 017c FEFFFFEB 		bl	atan2
 321 0180 FEFFFFEB 		bl	__aeabi_d2f
 322 0184 A4349FE5 		ldr	r3, .L28+72
 323 0188 000083E5 		str	r0, [r3]	@ float
 324 018c 6C349FE5 		ldr	r3, .L28+24
 325 0190 0040A0E1 		mov	r4, r0
 326 0194 000093E5 		ldr	r0, [r3]	@ float
 327 0198 FEFFFFEB 		bl	__aeabi_f2d
 328 019c 08008DE5 		str	r0, [sp, #8]
 329 01a0 0C108DE5 		str	r1, [sp, #12]
 330 01a4 0400A0E1 		mov	r0, r4
 331 01a8 FEFFFFEB 		bl	__aeabi_f2d
 332 01ac 80249FE5 		ldr	r2, .L28+76
 333 01b0 80349FE5 		ldr	r3, .L28+80
 334 01b4 FEFFFFEB 		bl	__aeabi_dadd
 335 01b8 10008DE5 		str	r0, [sp, #16]
 336 01bc 14108DE5 		str	r1, [sp, #20]
 337 01c0 FEFFFFEB 		bl	cos
 338 01c4 0130A0E1 		mov	r3, r1
 339 01c8 18149FE5 		ldr	r1, .L28
 340 01cc 0020A0E1 		mov	r2, r0
 341 01d0 0070D1E5 		ldrb	r7, [r1]	@ zero_extendqisi2
 342 01d4 08108DE2 		add	r1, sp, #8
 343 01d8 030091E8 		ldmia	r1, {r0-r1}
 344 01dc FEFFFFEB 		bl	__aeabi_dmul
 345 01e0 0C30A0E3 		mov	r3, #12
 346 01e4 970303E0 		mul	r3, r7, r3
 347 01e8 0040A0E1 		mov	r4, r0
 348 01ec 03009BE7 		ldr	r0, [fp, r3]	@ float
 349 01f0 0150A0E1 		mov	r5, r1
 350 01f4 03708BE0 		add	r7, fp, r3
 351 01f8 FEFFFFEB 		bl	__aeabi_f2d
 352 01fc 0020A0E1 		mov	r2, r0
 353 0200 0130A0E1 		mov	r3, r1
 354 0204 0400A0E1 		mov	r0, r4
 355 0208 0510A0E1 		mov	r1, r5
 356 020c FEFFFFEB 		bl	__aeabi_dadd
 357 0210 FEFFFFEB 		bl	__aeabi_d2f
 358 0214 000086E5 		str	r0, [r6]	@ float
 359 0218 10108DE2 		add	r1, sp, #16
 360 021c 030091E8 		ldmia	r1, {r0-r1}
 361 0220 FEFFFFEB 		bl	sin
 362 0224 0020A0E1 		mov	r2, r0
 363 0228 0130A0E1 		mov	r3, r1
 364 022c 08108DE2 		add	r1, sp, #8
 365 0230 030091E8 		ldmia	r1, {r0-r1}
 366 0234 FEFFFFEB 		bl	__aeabi_dmul
 367 0238 0040A0E1 		mov	r4, r0
 368 023c 040097E5 		ldr	r0, [r7, #4]	@ float
 369 0240 0150A0E1 		mov	r5, r1
 370 0244 FEFFFFEB 		bl	__aeabi_f2d
 371 0248 0130A0E1 		mov	r3, r1
 372 024c 0020A0E1 		mov	r2, r0
 373 0250 0510A0E1 		mov	r1, r5
 374 0254 0400A0E1 		mov	r0, r4
 375 0258 FEFFFFEB 		bl	__aeabi_dadd
 376 025c FEFFFFEB 		bl	__aeabi_d2f
 377 0260 88339FE5 		ldr	r3, .L28+8
 378 0264 003093E5 		ldr	r3, [r3]	@ float
 379 0268 00308AE5 		str	r3, [r10]	@ float
 380 026c 84339FE5 		ldr	r3, .L28+16
 381 0270 000088E5 		str	r0, [r8]	@ float
 382 0274 003093E5 		ldr	r3, [r3]	@ float
 383 0278 A0039FE5 		ldr	r0, .L28+56
 384 027c 003080E5 		str	r3, [r0]	@ float
 385 0280 D30000EA 		b	.L26
 386              	.L13:
 387 0284 98339FE5 		ldr	r3, .L28+60
 388 0288 000093E5 		ldr	r0, [r3]	@ float
 389 028c 8C339FE5 		ldr	r3, .L28+56
 390 0290 001093E5 		ldr	r1, [r3]	@ float
 391 0294 8C339FE5 		ldr	r3, .L28+64
 392 0298 002093E5 		ldr	r2, [r3]	@ float
 393 029c 88339FE5 		ldr	r3, .L28+68
 394 02a0 003093E5 		ldr	r3, [r3]	@ float
 395 02a4 FEFFFFEB 		bl	nav_route_xy
 396 02a8 000057E3 		cmp	r7, #0
 397 02ac C900001A 		bne	.L12
 398 02b0 00909AE5 		ldr	r9, [r10]	@ float
 399 02b4 0230A0E3 		mov	r3, #2
 400 02b8 0030C4E5 		strb	r3, [r4]
 401 02bc 0900A0E1 		mov	r0, r9
 402 02c0 FEFFFFEB 		bl	__aeabi_f2d
 403 02c4 64339FE5 		ldr	r3, .L28+72
 404 02c8 0040A0E1 		mov	r4, r0
 405 02cc 000093E5 		ldr	r0, [r3]	@ float
 406 02d0 0150A0E1 		mov	r5, r1
 407 02d4 FEFFFFEB 		bl	__aeabi_f2d
 408 02d8 54239FE5 		ldr	r2, .L28+76
 409 02dc 54339FE5 		ldr	r3, .L28+80
 410 02e0 FEFFFFEB 		bl	__aeabi_dadd
 411 02e4 50339FE5 		ldr	r3, .L28+84
 412 02e8 0060A0E1 		mov	r6, r0
 413 02ec 0170A0E1 		mov	r7, r1
 414 02f0 000093E5 		ldr	r0, [r3]	@ float
 415 02f4 0910A0E1 		mov	r1, r9
 416 02f8 FEFFFFEB 		bl	__aeabi_fdiv
 417 02fc FEFFFFEB 		bl	__aeabi_f2d
 418 0300 0020A0E1 		mov	r2, r0
 419 0304 0130A0E1 		mov	r3, r1
 420 0308 0600A0E1 		mov	r0, r6
 421 030c 0710A0E1 		mov	r1, r7
 422 0310 FEFFFFEB 		bl	__aeabi_dsub
 423 0314 0060A0E1 		mov	r6, r0
 424 0318 0170A0E1 		mov	r7, r1
 425 031c FEFFFFEB 		bl	cos
 426 0320 0020A0E1 		mov	r2, r0
 427 0324 0130A0E1 		mov	r3, r1
 428 0328 0400A0E1 		mov	r0, r4
 429 032c 0510A0E1 		mov	r1, r5
 430 0330 FEFFFFEB 		bl	__aeabi_dmul
 431 0334 00A0D8E5 		ldrb	r10, [r8]	@ zero_extendqisi2
 432 0338 0C30A0E3 		mov	r3, #12
 433 033c 9A0303E0 		mul	r3, r10, r3
 434 0340 0080A0E1 		mov	r8, r0
 435 0344 03009BE7 		ldr	r0, [fp, r3]	@ float
 436 0348 03A08BE0 		add	r10, fp, r3
 437 034c 0190A0E1 		mov	r9, r1
 438 0350 FEFFFFEB 		bl	__aeabi_f2d
 439 0354 0020A0E1 		mov	r2, r0
 440 0358 0130A0E1 		mov	r3, r1
 441 035c 0800A0E1 		mov	r0, r8
 442 0360 0910A0E1 		mov	r1, r9
 443 0364 FEFFFFEB 		bl	__aeabi_dadd
 444 0368 FEFFFFEB 		bl	__aeabi_d2f
 445 036c CC329FE5 		ldr	r3, .L28+88
 446 0370 0710A0E1 		mov	r1, r7
 447 0374 000083E5 		str	r0, [r3]	@ float
 448 0378 0600A0E1 		mov	r0, r6
 449 037c FEFFFFEB 		bl	sin
 450 0380 0020A0E1 		mov	r2, r0
 451 0384 0130A0E1 		mov	r3, r1
 452 0388 0400A0E1 		mov	r0, r4
 453 038c 0510A0E1 		mov	r1, r5
 454 0390 FEFFFFEB 		bl	__aeabi_dmul
 455 0394 0040A0E1 		mov	r4, r0
 456 0398 04009AE5 		ldr	r0, [r10, #4]	@ float
 457 039c 0150A0E1 		mov	r5, r1
 458 03a0 FEFFFFEB 		bl	__aeabi_f2d
 459 03a4 0130A0E1 		mov	r3, r1
 460 03a8 0020A0E1 		mov	r2, r0
 461 03ac 0510A0E1 		mov	r1, r5
 462 03b0 0400A0E1 		mov	r0, r4
 463 03b4 FEFFFFEB 		bl	__aeabi_dadd
 464 03b8 FEFFFFEB 		bl	__aeabi_d2f
 465 03bc 80329FE5 		ldr	r3, .L28+92
 466 03c0 000083E5 		str	r0, [r3]	@ float
 467 03c4 820000EA 		b	.L26
 468              	.L15:
 469 03c8 70329FE5 		ldr	r3, .L28+88
 470 03cc 000093E5 		ldr	r0, [r3]	@ float
 471 03d0 6C329FE5 		ldr	r3, .L28+92
 472 03d4 001093E5 		ldr	r1, [r3]	@ float
 473 03d8 5C329FE5 		ldr	r3, .L28+84
 474 03dc 002093E5 		ldr	r2, [r3]	@ float
 475 03e0 FEFFFFEB 		bl	nav_circle_XY
 476 03e4 000057E3 		cmp	r7, #0
 477 03e8 7A00000A 		beq	.L12
 478 03ec 54329FE5 		ldr	r3, .L28+96
 479 03f0 00A0D8E5 		ldrb	r10, [r8]	@ zero_extendqisi2
 480 03f4 0010D3E5 		ldrb	r1, [r3]	@ zero_extendqisi2
 481 03f8 0C20A0E3 		mov	r2, #12
 482 03fc 920101E0 		mul	r1, r2, r1
 483 0400 9A0202E0 		mul	r2, r10, r2
 484 0404 01009BE7 		ldr	r0, [fp, r1]	@ float
 485 0408 01308BE0 		add	r3, fp, r1
 486 040c 02109BE7 		ldr	r1, [fp, r2]	@ float
 487 0410 02708BE0 		add	r7, fp, r2
 488 0414 04308DE5 		str	r3, [sp, #4]
 489 0418 FEFFFFEB 		bl	__aeabi_fsub
 490 041c 28229FE5 		ldr	r2, .L28+100
 491 0420 04309DE5 		ldr	r3, [sp, #4]
 492 0424 000082E5 		str	r0, [r2]	@ float
 493 0428 0080A0E1 		mov	r8, r0
 494 042c 041097E5 		ldr	r1, [r7, #4]	@ float
 495 0430 040093E5 		ldr	r0, [r3, #4]	@ float
 496 0434 FEFFFFEB 		bl	__aeabi_fsub
 497 0438 10329FE5 		ldr	r3, .L28+104
 498 043c 0070A0E1 		mov	r7, r0
 499 0440 000083E5 		str	r0, [r3]	@ float
 500 0444 0810A0E1 		mov	r1, r8
 501 0448 0800A0E1 		mov	r0, r8
 502 044c FEFFFFEB 		bl	__aeabi_fmul
 503 0450 0710A0E1 		mov	r1, r7
 504 0454 0080A0E1 		mov	r8, r0
 505 0458 0700A0E1 		mov	r0, r7
 506 045c FEFFFFEB 		bl	__aeabi_fmul
 507 0460 0010A0E1 		mov	r1, r0
 508 0464 0800A0E1 		mov	r0, r8
 509 0468 FEFFFFEB 		bl	__aeabi_fadd
 510 046c FEFFFFEB 		bl	__aeabi_f2d
 511 0470 FEFFFFEB 		bl	sqrt
 512 0474 FEFFFFEB 		bl	__aeabi_d2f
 513 0478 80319FE5 		ldr	r3, .L28+24
 514 047c 000083E5 		str	r0, [r3]	@ float
 515 0480 7C319FE5 		ldr	r3, .L28+28
 516 0484 0070A0E1 		mov	r7, r0
 517 0488 0710A0E1 		mov	r1, r7
 518 048c 000093E5 		ldr	r0, [r3]	@ float
 519 0490 FEFFFFEB 		bl	__aeabi_fcmpgt
 520 0494 000050E3 		cmp	r0, #0
 521 0498 0130A003 		moveq	r3, #1
 522 049c 0060C415 		strneb	r6, [r4]
 523 04a0 0030C405 		streqb	r3, [r4]
 524 04a4 000095E5 		ldr	r0, [r5]	@ float
 525 04a8 FEFFFFEB 		bl	__aeabi_f2d
 526 04ac 0040A0E1 		mov	r4, r0
 527 04b0 000099E5 		ldr	r0, [r9]	@ float
 528 04b4 0150A0E1 		mov	r5, r1
 529 04b8 FEFFFFEB 		bl	__aeabi_f2d
 530 04bc 0020A0E1 		mov	r2, r0
 531 04c0 0130A0E1 		mov	r3, r1
 532 04c4 0400A0E1 		mov	r0, r4
 533 04c8 0510A0E1 		mov	r1, r5
 534 04cc FEFFFFEB 		bl	atan2
 535 04d0 FEFFFFEB 		bl	__aeabi_d2f
 536 04d4 54319FE5 		ldr	r3, .L28+72
 537 04d8 0060A0E1 		mov	r6, r0
 538 04dc 000083E5 		str	r0, [r3]	@ float
 539 04e0 0700A0E1 		mov	r0, r7
 540 04e4 FEFFFFEB 		bl	__aeabi_f2d
 541 04e8 0040A0E1 		mov	r4, r0
 542 04ec 0600A0E1 		mov	r0, r6
 543 04f0 0150A0E1 		mov	r5, r1
 544 04f4 FEFFFFEB 		bl	__aeabi_f2d
 545 04f8 34219FE5 		ldr	r2, .L28+76
 546 04fc 34319FE5 		ldr	r3, .L28+80
 547 0500 FEFFFFEB 		bl	__aeabi_dadd
 548 0504 0060A0E1 		mov	r6, r0
 549 0508 0170A0E1 		mov	r7, r1
 550 050c FEFFFFEB 		bl	cos
 551 0510 0020A0E1 		mov	r2, r0
 552 0514 0130A0E1 		mov	r3, r1
 553 0518 0400A0E1 		mov	r0, r4
 554 051c 0510A0E1 		mov	r1, r5
 555 0520 FEFFFFEB 		bl	__aeabi_dmul
 556 0524 0C30A0E3 		mov	r3, #12
 557 0528 930A0AE0 		mul	r10, r3, r10
 558 052c B8309FE5 		ldr	r3, .L28+4
 559 0530 0080A0E1 		mov	r8, r0
 560 0534 0A0093E7 		ldr	r0, [r3, r10]	@ float
 561 0538 0AB083E0 		add	fp, r3, r10
 562 053c 0190A0E1 		mov	r9, r1
 563 0540 FEFFFFEB 		bl	__aeabi_f2d
 564 0544 0020A0E1 		mov	r2, r0
 565 0548 0130A0E1 		mov	r3, r1
 566 054c 0800A0E1 		mov	r0, r8
 567 0550 0910A0E1 		mov	r1, r9
 568 0554 FEFFFFEB 		bl	__aeabi_dadd
 569 0558 FEFFFFEB 		bl	__aeabi_d2f
 570 055c C4309FE5 		ldr	r3, .L28+64
 571 0560 0710A0E1 		mov	r1, r7
 572 0564 000083E5 		str	r0, [r3]	@ float
 573 0568 0600A0E1 		mov	r0, r6
 574 056c FEFFFFEB 		bl	sin
 575 0570 0020A0E1 		mov	r2, r0
 576 0574 0130A0E1 		mov	r3, r1
 577 0578 0400A0E1 		mov	r0, r4
 578 057c 0510A0E1 		mov	r1, r5
 579 0580 FEFFFFEB 		bl	__aeabi_dmul
 580 0584 0040A0E1 		mov	r4, r0
 581 0588 04009BE5 		ldr	r0, [fp, #4]	@ float
 582 058c 0150A0E1 		mov	r5, r1
 583 0590 FEFFFFEB 		bl	__aeabi_f2d
 584 0594 0020A0E1 		mov	r2, r0
 585 0598 0130A0E1 		mov	r3, r1
 586 059c 0400A0E1 		mov	r0, r4
 587 05a0 0510A0E1 		mov	r1, r5
 588 05a4 FEFFFFEB 		bl	__aeabi_dadd
 589 05a8 FEFFFFEB 		bl	__aeabi_d2f
 590 05ac 78309FE5 		ldr	r3, .L28+68
 591 05b0 000083E5 		str	r0, [r3]	@ float
 592 05b4 34009FE5 		ldr	r0, .L28+8
 593 05b8 64309FE5 		ldr	r3, .L28+60
 594 05bc 002090E5 		ldr	r2, [r0]	@ float
 595 05c0 30109FE5 		ldr	r1, .L28+16
 596 05c4 002083E5 		str	r2, [r3]	@ float
 597 05c8 002091E5 		ldr	r2, [r1]	@ float
 598 05cc 4C309FE5 		ldr	r3, .L28+56
 599 05d0 002083E5 		str	r2, [r3]	@ float
 600              	.L26:
 601 05d4 FEFFFFEB 		bl	nav_init_stage
 602              	.L12:
 603 05d8 0100A0E3 		mov	r0, #1
 604 05dc 1CD08DE2 		add	sp, sp, #28
 605              		@ sp needed
 606 05e0 F04FBDE8 		ldmfd	sp!, {r4, r5, r6, r7, r8, r9, r10, fp, lr}
 607 05e4 1EFF2FE1 		bx	lr
 608              	.L29:
 609              		.align	2
 610              	.L28:
 611 05e8 00000000 		.word	.LANCHOR0
 612 05ec 00000000 		.word	waypoints
 613 05f0 00000000 		.word	estimator_x
 614 05f4 00000000 		.word	.LANCHOR5
 615 05f8 00000000 		.word	estimator_y
 616 05fc 00000000 		.word	.LANCHOR6
 617 0600 00000000 		.word	.LANCHOR4
 618 0604 00000000 		.word	.LANCHOR7
 619 0608 00000000 		.word	v_ctl_climb_mode
 620 060c 00000000 		.word	nav_pitch
 621 0610 00000000 		.word	v_ctl_mode
 622 0614 00000000 		.word	nav_altitude
 623 0618 00000000 		.word	.LANCHOR13
 624 061c 00000000 		.word	v_ctl_altitude_pre_climb
 625 0620 00000000 		.word	.LANCHOR12
 626 0624 00000000 		.word	.LANCHOR11
 627 0628 00000000 		.word	.LANCHOR9
 628 062c 00000000 		.word	.LANCHOR10
 629 0630 00000000 		.word	.LANCHOR8
 630 0634 1F85EB51 		.word	1374389535
 631 0638 B81E0940 		.word	1074339512
 632 063c 00000000 		.word	nav_radius
 633 0640 00000000 		.word	.LANCHOR14
 634 0644 00000000 		.word	.LANCHOR15
 635 0648 00000000 		.word	.LANCHOR1
 636 064c 00000000 		.word	.LANCHOR2
 637 0650 00000000 		.word	.LANCHOR3
 639              		.global	__aeabi_fcmplt
 640              		.global	__aeabi_ddiv
 641              		.section	.text.InitializeBungeeTakeoff,"ax",%progbits
 642              		.align	2
 643              		.global	InitializeBungeeTakeoff
 645              	InitializeBungeeTakeoff:
 646              		@ Function supports interworking.
 647              		@ args = 0, pretend = 0, frame = 8
 648              		@ frame_needed = 0, uses_anonymous_args = 0
 649 0000 5C329FE5 		ldr	r3, .L48
 650 0004 F74F2DE9 		stmfd	sp!, {r0, r1, r2, r4, r5, r6, r7, r8, r9, r10, fp, lr}
 651 0008 0090A0E1 		mov	r9, r0
 652 000c 000093E5 		ldr	r0, [r3]	@ float
 653 0010 50329FE5 		ldr	r3, .L48+4
 654 0014 000083E5 		str	r0, [r3]	@ float
 655 0018 4C329FE5 		ldr	r3, .L48+8
 656 001c 005093E5 		ldr	r5, [r3]	@ float
 657 0020 48329FE5 		ldr	r3, .L48+12
 658 0024 005083E5 		str	r5, [r3]	@ float
 659 0028 44329FE5 		ldr	r3, .L48+16
 660 002c 44229FE5 		ldr	r2, .L48+20
 661 0030 0090C3E5 		strb	r9, [r3]
 662 0034 40329FE5 		ldr	r3, .L48+24
 663 0038 002083E5 		str	r2, [r3]	@ float
 664 003c 0C30A0E3 		mov	r3, #12
 665 0040 990303E0 		mul	r3, r9, r3
 666 0044 34B29FE5 		ldr	fp, .L48+28
 667 0048 03109BE7 		ldr	r1, [fp, r3]	@ float
 668 004c 03408BE0 		add	r4, fp, r3
 669 0050 FEFFFFEB 		bl	__aeabi_fsub
 670 0054 041094E5 		ldr	r1, [r4, #4]	@ float
 671 0058 0080A0E1 		mov	r8, r0
 672 005c 0500A0E1 		mov	r0, r5
 673 0060 FEFFFFEB 		bl	__aeabi_fsub
 674 0064 082094E5 		ldr	r2, [r4, #8]	@ float
 675 0068 14329FE5 		ldr	r3, .L48+32
 676 006c 0810A0E1 		mov	r1, r8
 677 0070 002083E5 		str	r2, [r3]	@ float
 678 0074 00A0A0E1 		mov	r10, r0
 679 0078 FEFFFFEB 		bl	__aeabi_fdiv
 680 007c 0010A0E3 		mov	r1, #0
 681 0080 0040A0E1 		mov	r4, r0
 682 0084 0800A0E1 		mov	r0, r8
 683 0088 FEFFFFEB 		bl	__aeabi_fcmplt
 684 008c 000050E3 		cmp	r0, #0
 685 0090 F0619FE5 		ldr	r6, .L48+36
 686 0094 0400A0E1 		mov	r0, r4
 687 0098 0410A0E1 		mov	r1, r4
 688 009c 0B00000A 		beq	.L43
 689 00a0 FEFFFFEB 		bl	__aeabi_fmul
 690 00a4 FE15A0E3 		mov	r1, #1065353216
 691 00a8 FEFFFFEB 		bl	__aeabi_fadd
 692 00ac FEFFFFEB 		bl	__aeabi_f2d
 693 00b0 FEFFFFEB 		bl	sqrt
 694 00b4 0020A0E1 		mov	r2, r0
 695 00b8 0130A0E1 		mov	r3, r1
 696 00bc 0000A0E3 		mov	r0, #0
 697 00c0 C4119FE5 		ldr	r1, .L48+40
 698 00c4 FEFFFFEB 		bl	__aeabi_ddiv
 699 00c8 FEFFFFEB 		bl	__aeabi_d2f
 700 00cc 0B0000EA 		b	.L46
 701              	.L43:
 702 00d0 FEFFFFEB 		bl	__aeabi_fmul
 703 00d4 FE15A0E3 		mov	r1, #1065353216
 704 00d8 FEFFFFEB 		bl	__aeabi_fadd
 705 00dc FEFFFFEB 		bl	__aeabi_f2d
 706 00e0 FEFFFFEB 		bl	sqrt
 707 00e4 0020A0E1 		mov	r2, r0
 708 00e8 0130A0E1 		mov	r3, r1
 709 00ec 0000A0E3 		mov	r0, #0
 710 00f0 94119FE5 		ldr	r1, .L48+40
 711 00f4 FEFFFFEB 		bl	__aeabi_ddiv
 712 00f8 FEFFFFEB 		bl	__aeabi_d2f
 713 00fc 020180E2 		add	r0, r0, #-2147483648
 714              	.L46:
 715 0100 000086E5 		str	r0, [r6]	@ float
 716 0104 0010A0E3 		mov	r1, #0
 717 0108 0A00A0E1 		mov	r0, r10
 718 010c FEFFFFEB 		bl	__aeabi_fcmplt
 719 0110 000050E3 		cmp	r0, #0
 720 0114 000096E5 		ldr	r0, [r6]	@ float
 721 0118 70719FE5 		ldr	r7, .L48+44
 722 011c 0010A0E1 		mov	r1, r0
 723 0120 0700000A 		beq	.L44
 724 0124 FEFFFFEB 		bl	__aeabi_fmul
 725 0128 0010A0E1 		mov	r1, r0
 726 012c 60019FE5 		ldr	r0, .L48+48
 727 0130 FEFFFFEB 		bl	__aeabi_fsub
 728 0134 FEFFFFEB 		bl	__aeabi_f2d
 729 0138 FEFFFFEB 		bl	sqrt
 730 013c FEFFFFEB 		bl	__aeabi_d2f
 731 0140 070000EA 		b	.L47
 732              	.L44:
 733 0144 FEFFFFEB 		bl	__aeabi_fmul
 734 0148 0010A0E1 		mov	r1, r0
 735 014c 40019FE5 		ldr	r0, .L48+48
 736 0150 FEFFFFEB 		bl	__aeabi_fsub
 737 0154 FEFFFFEB 		bl	__aeabi_f2d
 738 0158 FEFFFFEB 		bl	sqrt
 739 015c FEFFFFEB 		bl	__aeabi_d2f
 740 0160 020180E2 		add	r0, r0, #-2147483648
 741              	.L47:
 742 0164 000087E5 		str	r0, [r7]	@ float
 743 0168 0A00A0E1 		mov	r0, r10
 744 016c FEFFFFEB 		bl	__aeabi_f2d
 745 0170 0040A0E1 		mov	r4, r0
 746 0174 0800A0E1 		mov	r0, r8
 747 0178 0150A0E1 		mov	r5, r1
 748 017c FEFFFFEB 		bl	__aeabi_f2d
 749 0180 0020A0E1 		mov	r2, r0
 750 0184 0130A0E1 		mov	r3, r1
 751 0188 0400A0E1 		mov	r0, r4
 752 018c 0510A0E1 		mov	r1, r5
 753 0190 FEFFFFEB 		bl	atan2
 754 0194 FC309FE5 		ldr	r3, .L48+52
 755 0198 FC209FE5 		ldr	r2, .L48+56
 756 019c FEFFFFEB 		bl	__aeabi_dadd
 757 01a0 FEFFFFEB 		bl	tan
 758 01a4 FEFFFFEB 		bl	__aeabi_d2f
 759 01a8 F0209FE5 		ldr	r2, .L48+60
 760 01ac 0810A0E1 		mov	r1, r8
 761 01b0 000082E5 		str	r0, [r2]	@ float
 762 01b4 04008DE5 		str	r0, [sp, #4]
 763 01b8 FEFFFFEB 		bl	__aeabi_fmul
 764 01bc 005096E5 		ldr	r5, [r6]	@ float
 765 01c0 04309DE5 		ldr	r3, [sp, #4]
 766 01c4 0080A0E1 		mov	r8, r0
 767 01c8 0510A0E1 		mov	r1, r5
 768 01cc 0300A0E1 		mov	r0, r3
 769 01d0 FEFFFFEB 		bl	__aeabi_fmul
 770 01d4 004097E5 		ldr	r4, [r7]	@ float
 771 01d8 0010A0E1 		mov	r1, r0
 772 01dc 0400A0E1 		mov	r0, r4
 773 01e0 FEFFFFEB 		bl	__aeabi_fsub
 774 01e4 0010A0E1 		mov	r1, r0
 775 01e8 0800A0E1 		mov	r0, r8
 776 01ec FEFFFFEB 		bl	__aeabi_fadd
 777 01f0 0010A0E1 		mov	r1, r0
 778 01f4 0A00A0E1 		mov	r0, r10
 779 01f8 FEFFFFEB 		bl	__aeabi_fcmpgt
 780 01fc A0309FE5 		ldr	r3, .L48+64
 781 0200 000050E3 		cmp	r0, #0
 782 0204 0120A013 		movne	r2, #1
 783 0208 0020C315 		strneb	r2, [r3]
 784 020c 0000C305 		streqb	r0, [r3]
 785 0210 90309FE5 		ldr	r3, .L48+68
 786 0214 0080A0E3 		mov	r8, #0
 787 0218 0080C3E5 		strb	r8, [r3]
 788 021c 88309FE5 		ldr	r3, .L48+72
 789 0220 0120A0E3 		mov	r2, #1
 790 0224 0020C3E5 		strb	r2, [r3]
 791 0228 0C30A0E3 		mov	r3, #12
 792 022c 930909E0 		mul	r9, r3, r9
 793 0230 0500A0E1 		mov	r0, r5
 794 0234 09109BE7 		ldr	r1, [fp, r9]	@ float
 795 0238 FEFFFFEB 		bl	__aeabi_fadd
 796 023c 000086E5 		str	r0, [r6]	@ float
 797 0240 09A08BE0 		add	r10, fp, r9
 798 0244 04109AE5 		ldr	r1, [r10, #4]	@ float
 799 0248 0400A0E1 		mov	r0, r4
 800 024c FEFFFFEB 		bl	__aeabi_fadd
 801 0250 000087E5 		str	r0, [r7]	@ float
 802 0254 0800A0E1 		mov	r0, r8
 803 0258 0CD08DE2 		add	sp, sp, #12
 804              		@ sp needed
 805 025c F04FBDE8 		ldmfd	sp!, {r4, r5, r6, r7, r8, r9, r10, fp, lr}
 806 0260 1EFF2FE1 		bx	lr
 807              	.L49:
 808              		.align	2
 809              	.L48:
 810 0264 00000000 		.word	estimator_x
 811 0268 00000000 		.word	.LANCHOR16
 812 026c 00000000 		.word	estimator_y
 813 0270 00000000 		.word	.LANCHOR17
 814 0274 00000000 		.word	.LANCHOR18
 815 0278 00002041 		.word	1092616192
 816 027c 00000000 		.word	.LANCHOR19
 817 0280 00000000 		.word	waypoints
 818 0284 00000000 		.word	.LANCHOR20
 819 0288 00000000 		.word	.LANCHOR21
 820 028c 00002440 		.word	1076101120
 821 0290 00000000 		.word	.LANCHOR22
 822 0294 0000C842 		.word	1120403456
 823 0298 B81EF93F 		.word	1073290936
 824 029c 1F85EB51 		.word	1374389535
 825 02a0 00000000 		.word	.LANCHOR23
 826 02a4 00000000 		.word	.LANCHOR24
 827 02a8 00000000 		.word	.LANCHOR25
 828 02ac 00000000 		.word	kill_throttle
 830              		.section	.text.BungeeTakeoff,"ax",%progbits
 831              		.align	2
 832              		.global	BungeeTakeoff
 834              	BungeeTakeoff:
 835              		@ Function supports interworking.
 836              		@ args = 0, pretend = 0, frame = 16
 837              		@ frame_needed = 0, uses_anonymous_args = 0
 838 0000 F04F2DE9 		stmfd	sp!, {r4, r5, r6, r7, r8, r9, r10, fp, lr}
 839 0004 98349FE5 		ldr	r3, .L83
 840 0008 98549FE5 		ldr	r5, .L83+4
 841 000c 004093E5 		ldr	r4, [r3]	@ float
 842 0010 0030D5E5 		ldrb	r3, [r5]	@ zero_extendqisi2
 843 0014 90A49FE5 		ldr	r10, .L83+8
 844 0018 90249FE5 		ldr	r2, .L83+12
 845 001c 90849FE5 		ldr	r8, .L83+16
 846 0020 000053E3 		cmp	r3, #0
 847 0024 14D04DE2 		sub	sp, sp, #20
 848 0028 00C09AE5 		ldr	ip, [r10]	@ float
 849 002c 006092E5 		ldr	r6, [r2]	@ float
 850 0030 00B098E5 		ldr	fp, [r8]	@ float
 851 0034 0200000A 		beq	.L52
 852 0038 010053E3 		cmp	r3, #1
 853 003c EB00000A 		beq	.L53
 854 0040 130100EA 		b	.L78
 855              	.L52:
 856 0044 6C249FE5 		ldr	r2, .L83+20
 857 0048 0030C2E5 		strb	r3, [r2]
 858 004c 68349FE5 		ldr	r3, .L83+24
 859 0050 0050A0E3 		mov	r5, #0
 860 0054 005083E5 		str	r5, [r3]	@ float
 861 0058 60349FE5 		ldr	r3, .L83+28
 862 005c 0320A0E3 		mov	r2, #3
 863 0060 0020C3E5 		strb	r2, [r3]
 864 0064 58349FE5 		ldr	r3, .L83+32
 865 0068 58149FE5 		ldr	r1, .L83+36
 866 006c 000093E5 		ldr	r0, [r3]	@ float
 867 0070 04C08DE5 		str	ip, [sp, #4]
 868 0074 FEFFFFEB 		bl	__aeabi_fadd
 869 0078 4C349FE5 		ldr	r3, .L83+40
 870 007c 4C949FE5 		ldr	r9, .L83+44
 871 0080 000083E5 		str	r0, [r3]	@ float
 872 0084 48749FE5 		ldr	r7, .L83+48
 873 0088 48349FE5 		ldr	r3, .L83+52
 874 008c 000099E5 		ldr	r0, [r9]	@ float
 875 0090 005083E5 		str	r5, [r3]	@ float
 876 0094 001097E5 		ldr	r1, [r7]	@ float
 877 0098 0620A0E1 		mov	r2, r6
 878 009c 0430A0E1 		mov	r3, r4
 879 00a0 FEFFFFEB 		bl	nav_route_xy
 880 00a4 30249FE5 		ldr	r2, .L83+56
 881 00a8 0130A0E3 		mov	r3, #1
 882 00ac 0030C2E5 		strb	r3, [r2]
 883 00b0 28349FE5 		ldr	r3, .L83+60
 884 00b4 28149FE5 		ldr	r1, .L83+64
 885 00b8 000093E5 		ldr	r0, [r3]	@ float
 886 00bc 0C208DE5 		str	r2, [sp, #12]
 887 00c0 08308DE5 		str	r3, [sp, #8]
 888 00c4 FEFFFFEB 		bl	__aeabi_fcmplt
 889 00c8 000050E3 		cmp	r0, #0
 890 00cc 04C09DE5 		ldr	ip, [sp, #4]
 891 00d0 0800001A 		bne	.L54
 892 00d4 0610A0E1 		mov	r1, r6
 893 00d8 0C00A0E1 		mov	r0, ip
 894 00dc FEFFFFEB 		bl	__aeabi_fsub
 895 00e0 0410A0E1 		mov	r1, r4
 896 00e4 0060A0E1 		mov	r6, r0
 897 00e8 0B00A0E1 		mov	r0, fp
 898 00ec FEFFFFEB 		bl	__aeabi_fsub
 899 00f0 0070A0E1 		mov	r7, r0
 900 00f4 A00000EA 		b	.L55
 901              	.L54:
 902 00f8 00009AE5 		ldr	r0, [r10]	@ float
 903 00fc 000089E5 		str	r0, [r9]	@ float
 904 0100 E0939FE5 		ldr	r9, .L83+68
 905 0104 0030D9E5 		ldrb	r3, [r9]	@ zero_extendqisi2
 906 0108 0C20A0E3 		mov	r2, #12
 907 010c 920303E0 		mul	r3, r2, r3
 908 0110 004098E5 		ldr	r4, [r8]	@ float
 909 0114 D0839FE5 		ldr	r8, .L83+72
 910 0118 004087E5 		str	r4, [r7]	@ float
 911 011c 031098E7 		ldr	r1, [r8, r3]	@ float
 912 0120 037088E0 		add	r7, r8, r3
 913 0124 FEFFFFEB 		bl	__aeabi_fsub
 914 0128 041097E5 		ldr	r1, [r7, #4]	@ float
 915 012c 0060A0E1 		mov	r6, r0
 916 0130 0400A0E1 		mov	r0, r4
 917 0134 FEFFFFEB 		bl	__aeabi_fsub
 918 0138 0610A0E1 		mov	r1, r6
 919 013c 0070A0E1 		mov	r7, r0
 920 0140 FEFFFFEB 		bl	__aeabi_fdiv
 921 0144 0510A0E1 		mov	r1, r5
 922 0148 0040A0E1 		mov	r4, r0
 923 014c 0600A0E1 		mov	r0, r6
 924 0150 FEFFFFEB 		bl	__aeabi_fcmplt
 925 0154 94539FE5 		ldr	r5, .L83+76
 926 0158 000050E3 		cmp	r0, #0
 927 015c 000095E5 		ldr	r0, [r5]	@ float
 928 0160 1200000A 		beq	.L79
 929 0164 FEFFFFEB 		bl	__aeabi_f2d
 930 0168 00A0A0E1 		mov	r10, r0
 931 016c 01B0A0E1 		mov	fp, r1
 932 0170 0400A0E1 		mov	r0, r4
 933 0174 0410A0E1 		mov	r1, r4
 934 0178 FEFFFFEB 		bl	__aeabi_fmul
 935 017c FE15A0E3 		mov	r1, #1065353216
 936 0180 FEFFFFEB 		bl	__aeabi_fadd
 937 0184 FEFFFFEB 		bl	__aeabi_f2d
 938 0188 FEFFFFEB 		bl	sqrt
 939 018c 0020A0E1 		mov	r2, r0
 940 0190 0130A0E1 		mov	r3, r1
 941 0194 0A00A0E1 		mov	r0, r10
 942 0198 0B10A0E1 		mov	r1, fp
 943 019c FEFFFFEB 		bl	__aeabi_ddiv
 944 01a0 FEFFFFEB 		bl	__aeabi_d2f
 945 01a4 04239FE5 		ldr	r2, .L83+12
 946 01a8 000082E5 		str	r0, [r2]	@ float
 947 01ac 120000EA 		b	.L58
 948              	.L79:
 949 01b0 FEFFFFEB 		bl	__aeabi_f2d
 950 01b4 00A0A0E1 		mov	r10, r0
 951 01b8 01B0A0E1 		mov	fp, r1
 952 01bc 0400A0E1 		mov	r0, r4
 953 01c0 0410A0E1 		mov	r1, r4
 954 01c4 FEFFFFEB 		bl	__aeabi_fmul
 955 01c8 FE15A0E3 		mov	r1, #1065353216
 956 01cc FEFFFFEB 		bl	__aeabi_fadd
 957 01d0 FEFFFFEB 		bl	__aeabi_f2d
 958 01d4 FEFFFFEB 		bl	sqrt
 959 01d8 0130A0E1 		mov	r3, r1
 960 01dc 0020A0E1 		mov	r2, r0
 961 01e0 0B10A0E1 		mov	r1, fp
 962 01e4 0A00A0E1 		mov	r0, r10
 963 01e8 FEFFFFEB 		bl	__aeabi_ddiv
 964 01ec FEFFFFEB 		bl	__aeabi_d2f
 965 01f0 B8329FE5 		ldr	r3, .L83+12
 966 01f4 020180E2 		add	r0, r0, #-2147483648
 967 01f8 000083E5 		str	r0, [r3]	@ float
 968              	.L58:
 969 01fc 0700A0E1 		mov	r0, r7
 970 0200 0010A0E3 		mov	r1, #0
 971 0204 FEFFFFEB 		bl	__aeabi_fcmplt
 972 0208 000050E3 		cmp	r0, #0
 973 020c 90429FE5 		ldr	r4, .L83
 974 0210 000095E5 		ldr	r0, [r5]	@ float
 975 0214 0E00000A 		beq	.L80
 976 0218 90229FE5 		ldr	r2, .L83+12
 977 021c 0010A0E1 		mov	r1, r0
 978 0220 00A092E5 		ldr	r10, [r2]	@ float
 979 0224 FEFFFFEB 		bl	__aeabi_fmul
 980 0228 0A10A0E1 		mov	r1, r10
 981 022c 0050A0E1 		mov	r5, r0
 982 0230 0A00A0E1 		mov	r0, r10
 983 0234 FEFFFFEB 		bl	__aeabi_fmul
 984 0238 0010A0E1 		mov	r1, r0
 985 023c 0500A0E1 		mov	r0, r5
 986 0240 FEFFFFEB 		bl	__aeabi_fsub
 987 0244 FEFFFFEB 		bl	__aeabi_f2d
 988 0248 FEFFFFEB 		bl	sqrt
 989 024c FEFFFFEB 		bl	__aeabi_d2f
 990 0250 0E0000EA 		b	.L82
 991              	.L80:
 992 0254 54329FE5 		ldr	r3, .L83+12
 993 0258 0010A0E1 		mov	r1, r0
 994 025c 00A093E5 		ldr	r10, [r3]	@ float
 995 0260 FEFFFFEB 		bl	__aeabi_fmul
 996 0264 0A10A0E1 		mov	r1, r10
 997 0268 0050A0E1 		mov	r5, r0
 998 026c 0A00A0E1 		mov	r0, r10
 999 0270 FEFFFFEB 		bl	__aeabi_fmul
 1000 0274 0010A0E1 		mov	r1, r0
 1001 0278 0500A0E1 		mov	r0, r5
 1002 027c FEFFFFEB 		bl	__aeabi_fsub
 1003 0280 FEFFFFEB 		bl	__aeabi_f2d
 1004 0284 FEFFFFEB 		bl	sqrt
 1005 0288 FEFFFFEB 		bl	__aeabi_d2f
 1006 028c 020180E2 		add	r0, r0, #-2147483648
 1007              	.L82:
 1008 0290 000084E5 		str	r0, [r4]	@ float
 1009 0294 0700A0E1 		mov	r0, r7
 1010 0298 FEFFFFEB 		bl	__aeabi_f2d
 1011 029c 0040A0E1 		mov	r4, r0
 1012 02a0 0600A0E1 		mov	r0, r6
 1013 02a4 0150A0E1 		mov	r5, r1
 1014 02a8 FEFFFFEB 		bl	__aeabi_f2d
 1015 02ac 0020A0E1 		mov	r2, r0
 1016 02b0 0130A0E1 		mov	r3, r1
 1017 02b4 0400A0E1 		mov	r0, r4
 1018 02b8 0510A0E1 		mov	r1, r5
 1019 02bc FEFFFFEB 		bl	atan2
 1020 02c0 2C229FE5 		ldr	r2, .L83+80
 1021 02c4 2C329FE5 		ldr	r3, .L83+84
 1022 02c8 FEFFFFEB 		bl	__aeabi_dadd
 1023 02cc FEFFFFEB 		bl	tan
 1024 02d0 FEFFFFEB 		bl	__aeabi_d2f
 1025 02d4 C8319FE5 		ldr	r3, .L83
 1026 02d8 1C229FE5 		ldr	r2, .L83+88
 1027 02dc 004093E5 		ldr	r4, [r3]	@ float
 1028 02e0 C8319FE5 		ldr	r3, .L83+12
 1029 02e4 000082E5 		str	r0, [r2]	@ float
 1030 02e8 0610A0E1 		mov	r1, r6
 1031 02ec 005093E5 		ldr	r5, [r3]	@ float
 1032 02f0 00A0A0E1 		mov	r10, r0
 1033 02f4 FEFFFFEB 		bl	__aeabi_fmul
 1034 02f8 0510A0E1 		mov	r1, r5
 1035 02fc 00B0A0E1 		mov	fp, r0
 1036 0300 0A00A0E1 		mov	r0, r10
 1037 0304 FEFFFFEB 		bl	__aeabi_fmul
 1038 0308 0010A0E1 		mov	r1, r0
 1039 030c 0400A0E1 		mov	r0, r4
 1040 0310 FEFFFFEB 		bl	__aeabi_fsub
 1041 0314 0010A0E1 		mov	r1, r0
 1042 0318 0B00A0E1 		mov	r0, fp
 1043 031c FEFFFFEB 		bl	__aeabi_fadd
 1044 0320 0010A0E1 		mov	r1, r0
 1045 0324 0700A0E1 		mov	r0, r7
 1046 0328 FEFFFFEB 		bl	__aeabi_fcmpgt
 1047 032c 000050E3 		cmp	r0, #0
 1048 0330 C8219F15 		ldrne	r2, .L83+92
 1049 0334 C4319F05 		ldreq	r3, .L83+92
 1050 0338 0130A013 		movne	r3, #1
 1051 033c 0030C215 		strneb	r3, [r2]
 1052 0340 0000C305 		streqb	r0, [r3]
 1053 0344 0030D9E5 		ldrb	r3, [r9]	@ zero_extendqisi2
 1054 0348 0C20A0E3 		mov	r2, #12
 1055 034c 920303E0 		mul	r3, r2, r3
 1056 0350 0500A0E1 		mov	r0, r5
 1057 0354 031098E7 		ldr	r1, [r8, r3]	@ float
 1058 0358 039088E0 		add	r9, r8, r3
 1059 035c FEFFFFEB 		bl	__aeabi_fadd
 1060 0360 48219FE5 		ldr	r2, .L83+12
 1061 0364 000082E5 		str	r0, [r2]	@ float
 1062 0368 0400A0E1 		mov	r0, r4
 1063 036c 041099E5 		ldr	r1, [r9, #4]	@ float
 1064 0370 FEFFFFEB 		bl	__aeabi_fadd
 1065 0374 28319FE5 		ldr	r3, .L83
 1066 0378 000083E5 		str	r0, [r3]	@ float
 1067              	.L55:
 1068 037c 78319FE5 		ldr	r3, .L83+88
 1069 0380 0600A0E1 		mov	r0, r6
 1070 0384 001093E5 		ldr	r1, [r3]	@ float
 1071 0388 FEFFFFEB 		bl	__aeabi_fmul
 1072 038c 0010A0E1 		mov	r1, r0
 1073 0390 0700A0E1 		mov	r0, r7
 1074 0394 FEFFFFEB 		bl	__aeabi_fcmpgt
 1075 0398 60319FE5 		ldr	r3, .L83+92
 1076 039c 000050E3 		cmp	r0, #0
 1077 03a0 0140A0E3 		mov	r4, #1
 1078 03a4 0030D3E5 		ldrb	r3, [r3]	@ zero_extendqisi2
 1079 03a8 0040A001 		moveq	r4, r0
 1080 03ac FF4004E2 		and	r4, r4, #255
 1081 03b0 040053E1 		cmp	r3, r4
 1082 03b4 3600000A 		beq	.L78
 1083 03b8 20219FE5 		ldr	r2, .L83+60
 1084 03bc 20119FE5 		ldr	r1, .L83+64
 1085 03c0 000092E5 		ldr	r0, [r2]	@ float
 1086 03c4 FEFFFFEB 		bl	__aeabi_fcmpgt
 1087 03c8 000050E3 		cmp	r0, #0
 1088 03cc 3000000A 		beq	.L78
 1089 03d0 D0309FE5 		ldr	r3, .L83+4
 1090 03d4 0140A0E3 		mov	r4, #1
 1091 03d8 FC209FE5 		ldr	r2, .L83+56
 1092 03dc 0040C3E5 		strb	r4, [r3]
 1093 03e0 0030A0E3 		mov	r3, #0
 1094 03e4 0030C2E5 		strb	r3, [r2]
 1095 03e8 FEFFFFEB 		bl	nav_init_stage
 1096 03ec 280000EA 		b	.L78
 1097              	.L53:
 1098 03f0 C0209FE5 		ldr	r2, .L83+20
 1099 03f4 0070A0E3 		mov	r7, #0
 1100 03f8 0070C2E5 		strb	r7, [r2]
 1101 03fc 00119FE5 		ldr	r1, .L83+96
 1102 0400 B4209FE5 		ldr	r2, .L83+24
 1103 0404 001082E5 		str	r1, [r2]	@ float
 1104 0408 B0209FE5 		ldr	r2, .L83+28
 1105 040c 0030C2E5 		strb	r3, [r2]
 1106 0410 F0309FE5 		ldr	r3, .L83+100
 1107 0414 962DA0E3 		mov	r2, #9600
 1108 0418 B020C3E1 		strh	r2, [r3]	@ movhi
 1109 041c AC309FE5 		ldr	r3, .L83+44
 1110 0420 000093E5 		ldr	r0, [r3]	@ float
 1111 0424 A8309FE5 		ldr	r3, .L83+48
 1112 0428 0620A0E1 		mov	r2, r6
 1113 042c 001093E5 		ldr	r1, [r3]	@ float
 1114 0430 0430A0E1 		mov	r3, r4
 1115 0434 FEFFFFEB 		bl	nav_route_xy
 1116 0438 9C309FE5 		ldr	r3, .L83+56
 1117 043c 0070C3E5 		strb	r7, [r3]
 1118 0440 7C309FE5 		ldr	r3, .L83+32
 1119 0444 7C109FE5 		ldr	r1, .L83+36
 1120 0448 000093E5 		ldr	r0, [r3]	@ float
 1121 044c FEFFFFEB 		bl	__aeabi_fadd
 1122 0450 B4109FE5 		ldr	r1, .L83+104
 1123 0454 FEFFFFEB 		bl	__aeabi_fsub
 1124 0458 B0309FE5 		ldr	r3, .L83+108
 1125 045c 0010A0E1 		mov	r1, r0
 1126 0460 000093E5 		ldr	r0, [r3]	@ float
 1127 0464 FEFFFFEB 		bl	__aeabi_fcmpgt
 1128 0468 070050E1 		cmp	r0, r7
 1129 046c 0800000A 		beq	.L78
 1130 0470 68309FE5 		ldr	r3, .L83+60
 1131 0474 98109FE5 		ldr	r1, .L83+112
 1132 0478 000093E5 		ldr	r0, [r3]	@ float
 1133 047c FEFFFFEB 		bl	__aeabi_fcmpgt
 1134 0480 070050E1 		cmp	r0, r7
 1135 0484 0230A013 		movne	r3, #2
 1136 0488 0030C515 		strneb	r3, [r5]
 1137 048c 0700A011 		movne	r0, r7
 1138 0490 0000001A 		bne	.L51
 1139              	.L78:
 1140 0494 0100A0E3 		mov	r0, #1
 1141              	.L51:
 1142 0498 14D08DE2 		add	sp, sp, #20
 1143              		@ sp needed
 1144 049c F04FBDE8 		ldmfd	sp!, {r4, r5, r6, r7, r8, r9, r10, fp, lr}
 1145 04a0 1EFF2FE1 		bx	lr
 1146              	.L84:
 1147              		.align	2
 1148              	.L83:
 1149 04a4 00000000 		.word	.LANCHOR22
 1150 04a8 00000000 		.word	.LANCHOR25
 1151 04ac 00000000 		.word	estimator_x
 1152 04b0 00000000 		.word	.LANCHOR21
 1153 04b4 00000000 		.word	estimator_y
 1154 04b8 00000000 		.word	v_ctl_climb_mode
 1155 04bc 00000000 		.word	nav_pitch
 1156 04c0 00000000 		.word	v_ctl_mode
 1157 04c4 00000000 		.word	.LANCHOR20
 1158 04c8 0000F041 		.word	1106247680
 1159 04cc 00000000 		.word	nav_altitude
 1160 04d0 00000000 		.word	.LANCHOR16
 1161 04d4 00000000 		.word	.LANCHOR17
 1162 04d8 00000000 		.word	v_ctl_altitude_pre_climb
 1163 04dc 00000000 		.word	kill_throttle
 1164 04e0 00000000 		.word	estimator_hspeed_mod
 1165 04e4 0000A040 		.word	1084227584
 1166 04e8 00000000 		.word	.LANCHOR18
 1167 04ec 00000000 		.word	waypoints
 1168 04f0 00000000 		.word	.LANCHOR19
 1169 04f4 1F85EB51 		.word	1374389535
 1170 04f8 B81EF93F 		.word	1073290936
 1171 04fc 00000000 		.word	.LANCHOR23
 1172 0500 00000000 		.word	.LANCHOR24
 1173 0504 B81E053F 		.word	1057300152
 1174 0508 00000000 		.word	nav_throttle_setpoint
 1175 050c 00002041 		.word	1092616192
 1176 0510 00000000 		.word	estimator_z
 1177 0514 00007041 		.word	1097859072
 1179              		.section	.text.InitializeVerticalRaster,"ax",%progbits
 1180              		.align	2
 1181              		.global	InitializeVerticalRaster
 1183              	InitializeVerticalRaster:
 1184              		@ Function supports interworking.
 1185              		@ args = 0, pretend = 0, frame = 0
 1186              		@ frame_needed = 0, uses_anonymous_args = 0
 1187              		@ link register save eliminated.
 1188 0000 08309FE5 		ldr	r3, .L86
 1189 0004 0000A0E3 		mov	r0, #0
 1190 0008 0000C3E5 		strb	r0, [r3]
 1191 000c 1EFF2FE1 		bx	lr
 1192              	.L87:
 1193              		.align	2
 1194              	.L86:
 1195 0010 00000000 		.word	.LANCHOR26
 1197              		.global	__aeabi_fcmpge
 1198              		.section	.text.VerticalRaster,"ax",%progbits
 1199              		.align	2
 1200              		.global	VerticalRaster
 1202              	VerticalRaster:
 1203              		@ Function supports interworking.
 1204              		@ args = 0, pretend = 0, frame = 72
 1205              		@ frame_needed = 0, uses_anonymous_args = 0
 1206 0000 F04F2DE9 		stmfd	sp!, {r4, r5, r6, r7, r8, r9, r10, fp, lr}
 1207 0004 54D04DE2 		sub	sp, sp, #84
 1208 0008 4C308DE5 		str	r3, [sp, #76]	@ float
 1209 000c 0C30A0E3 		mov	r3, #12
 1210 0010 900303E0 		mul	r3, r0, r3
 1211 0014 30108DE5 		str	r1, [sp, #48]
 1212 0018 01A0A0E1 		mov	r10, r1
 1213 001c 0C10A0E3 		mov	r1, #12
 1214 0020 910A0AE0 		mul	r10, r1, r10
 1215 0024 406F9FE5 		ldr	r6, .L243
 1216 0028 034086E0 		add	r4, r6, r3
 1217 002c 0271C2E3 		bic	r7, r2, #-2147483648
 1218 0030 082094E5 		ldr	r2, [r4, #8]	@ float
 1219 0034 0A9086E0 		add	r9, r6, r10
 1220 0038 082089E5 		str	r2, [r9, #8]	@ float
 1221 003c 0A1096E7 		ldr	r1, [r6, r10]	@ float
 1222 0040 0080A0E1 		mov	r8, r0
 1223 0044 030096E7 		ldr	r0, [r6, r3]	@ float
 1224 0048 08308DE5 		str	r3, [sp, #8]
 1225 004c FEFFFFEB 		bl	__aeabi_fsub
 1226 0050 041099E5 		ldr	r1, [r9, #4]	@ float
 1227 0054 0050A0E1 		mov	r5, r0
 1228 0058 040094E5 		ldr	r0, [r4, #4]	@ float
 1229 005c FEFFFFEB 		bl	__aeabi_fsub
 1230 0060 0510A0E1 		mov	r1, r5
 1231 0064 00B0A0E1 		mov	fp, r0
 1232 0068 0500A0E1 		mov	r0, r5
 1233 006c FEFFFFEB 		bl	__aeabi_fmul
 1234 0070 0B10A0E1 		mov	r1, fp
 1235 0074 0020A0E1 		mov	r2, r0
 1236 0078 0B00A0E1 		mov	r0, fp
 1237 007c 0C208DE5 		str	r2, [sp, #12]
 1238 0080 FEFFFFEB 		bl	__aeabi_fmul
 1239 0084 0C209DE5 		ldr	r2, [sp, #12]
 1240 0088 0010A0E1 		mov	r1, r0
 1241 008c 0200A0E1 		mov	r0, r2
 1242 0090 FEFFFFEB 		bl	__aeabi_fadd
 1243 0094 FEFFFFEB 		bl	__aeabi_f2d
 1244 0098 FEFFFFEB 		bl	sqrt
 1245 009c FEFFFFEB 		bl	__aeabi_d2f
 1246 00a0 0020A0E1 		mov	r2, r0
 1247 00a4 0210A0E1 		mov	r1, r2
 1248 00a8 0500A0E1 		mov	r0, r5
 1249 00ac 0C208DE5 		str	r2, [sp, #12]
 1250 00b0 FEFFFFEB 		bl	__aeabi_fdiv
 1251 00b4 0C209DE5 		ldr	r2, [sp, #12]
 1252 00b8 0050A0E1 		mov	r5, r0
 1253 00bc 0210A0E1 		mov	r1, r2
 1254 00c0 0B00A0E1 		mov	r0, fp
 1255 00c4 FEFFFFEB 		bl	__aeabi_fdiv
 1256 00c8 08309DE5 		ldr	r3, [sp, #8]
 1257 00cc 00B0A0E1 		mov	fp, r0
 1258 00d0 033096E7 		ldr	r3, [r6, r3]	@ float
 1259 00d4 0B10A0E1 		mov	r1, fp
 1260 00d8 0700A0E1 		mov	r0, r7
 1261 00dc 28308DE5 		str	r3, [sp, #40]	@ float
 1262 00e0 FEFFFFEB 		bl	__aeabi_fmul
 1263 00e4 021185E2 		add	r1, r5, #-2147483648
 1264 00e8 043094E5 		ldr	r3, [r4, #4]	@ float
 1265 00ec 38108DE5 		str	r1, [sp, #56]
 1266 00f0 38109DE5 		ldr	r1, [sp, #56]	@ float
 1267 00f4 34008DE5 		str	r0, [sp, #52]	@ float
 1268 00f8 0700A0E1 		mov	r0, r7
 1269 00fc 2C308DE5 		str	r3, [sp, #44]	@ float
 1270 0100 FEFFFFEB 		bl	__aeabi_fmul
 1271 0104 3C008DE5 		str	r0, [sp, #60]	@ float
 1272 0108 0700A0E1 		mov	r0, r7
 1273 010c FEFFFFEB 		bl	__aeabi_f2d
 1274 0110 582E9FE5 		ldr	r2, .L243+4
 1275 0114 583E9FE5 		ldr	r3, .L243+8
 1276 0118 FEFFFFEB 		bl	__aeabi_dmul
 1277 011c 10008DE5 		str	r0, [sp, #16]
 1278 0120 14108DE5 		str	r1, [sp, #20]
 1279 0124 0500A0E1 		mov	r0, r5
 1280 0128 FEFFFFEB 		bl	__aeabi_f2d
 1281 012c 18008DE5 		str	r0, [sp, #24]
 1282 0130 1C108DE5 		str	r1, [sp, #28]
 1283 0134 0B00A0E1 		mov	r0, fp
 1284 0138 FEFFFFEB 		bl	__aeabi_f2d
 1285 013c 02B18BE2 		add	fp, fp, #-2147483648
 1286 0140 40B08DE5 		str	fp, [sp, #64]
 1287 0144 20008DE5 		str	r0, [sp, #32]
 1288 0148 24108DE5 		str	r1, [sp, #36]
 1289 014c 40109DE5 		ldr	r1, [sp, #64]	@ float
 1290 0150 0700A0E1 		mov	r0, r7
 1291 0154 FEFFFFEB 		bl	__aeabi_fmul
 1292 0158 0510A0E1 		mov	r1, r5
 1293 015c 44008DE5 		str	r0, [sp, #68]	@ float
 1294 0160 0700A0E1 		mov	r0, r7
 1295 0164 FEFFFFEB 		bl	__aeabi_fmul
 1296 0168 0AC096E7 		ldr	ip, [r6, r10]	@ float
 1297 016c 18308DE2 		add	r3, sp, #24
 1298 0170 0C0093E8 		ldmia	r3, {r2-r3}
 1299 0174 48008DE5 		str	r0, [sp, #72]	@ float
 1300 0178 20108DE2 		add	r1, sp, #32
 1301 017c 030091E8 		ldmia	r1, {r0-r1}
 1302 0180 04A099E5 		ldr	r10, [r9, #4]	@ float
 1303 0184 0CC08DE5 		str	ip, [sp, #12]
 1304 0188 FEFFFFEB 		bl	atan2
 1305 018c 0020A0E1 		mov	r2, r0
 1306 0190 0130A0E1 		mov	r3, r1
 1307 0194 DC0D9FE5 		ldr	r0, .L243+12
 1308 0198 DC1D9FE5 		ldr	r1, .L243+16
 1309 019c FEFFFFEB 		bl	__aeabi_dsub
 1310 01a0 FEFFFFEB 		bl	__aeabi_d2f
 1311 01a4 18308DE2 		add	r3, sp, #24
 1312 01a8 0C0093E8 		ldmia	r3, {r2-r3}
 1313 01ac 00B0A0E1 		mov	fp, r0
 1314 01b0 20108DE2 		add	r1, sp, #32
 1315 01b4 030091E8 		ldmia	r1, {r0-r1}
 1316 01b8 FEFFFFEB 		bl	atan2
 1317 01bc 0020A0E1 		mov	r2, r0
 1318 01c0 0130A0E1 		mov	r3, r1
 1319 01c4 AC0D9FE5 		ldr	r0, .L243+12
 1320 01c8 B01D9FE5 		ldr	r1, .L243+20
 1321 01cc FEFFFFEB 		bl	__aeabi_dsub
 1322 01d0 FEFFFFEB 		bl	__aeabi_d2f
 1323 01d4 18308DE2 		add	r3, sp, #24
 1324 01d8 0C0093E8 		ldmia	r3, {r2-r3}
 1325 01dc 0090A0E1 		mov	r9, r0
 1326 01e0 20108DE2 		add	r1, sp, #32
 1327 01e4 030091E8 		ldmia	r1, {r0-r1}
 1328 01e8 FEFFFFEB 		bl	atan2
 1329 01ec 0020A0E1 		mov	r2, r0
 1330 01f0 0130A0E1 		mov	r3, r1
 1331 01f4 880D9FE5 		ldr	r0, .L243+24
 1332 01f8 881D9FE5 		ldr	r1, .L243+28
 1333 01fc FEFFFFEB 		bl	__aeabi_dsub
 1334 0200 FEFFFFEB 		bl	__aeabi_d2f
 1335 0204 803D9FE5 		ldr	r3, .L243+32
 1336 0208 0020A0E3 		mov	r2, #0
 1337 020c 0020C3E5 		strb	r2, [r3]
 1338 0210 782D9FE5 		ldr	r2, .L243+36
 1339 0214 0030A0E3 		mov	r3, #0
 1340 0218 003082E5 		str	r3, [r2]	@ float
 1341 021c 702D9FE5 		ldr	r2, .L243+40
 1342 0220 0310A0E3 		mov	r1, #3
 1343 0224 0010C2E5 		strb	r1, [r2]
 1344 0228 682D9FE5 		ldr	r2, .L243+44
 1345 022c 081094E5 		ldr	r1, [r4, #8]	@ float
 1346 0230 644D9FE5 		ldr	r4, .L243+48
 1347 0234 001082E5 		str	r1, [r2]	@ float
 1348 0238 602D9FE5 		ldr	r2, .L243+52
 1349 023c 003082E5 		str	r3, [r2]	@ float
 1350 0240 0020D4E5 		ldrb	r2, [r4]	@ zero_extendqisi2
 1351 0244 0050A0E1 		mov	r5, r0
 1352 0248 0C30A0E3 		mov	r3, #12
 1353 024c 0CC09DE5 		ldr	ip, [sp, #12]
 1354 0250 070052E3 		cmp	r2, #7
 1355 0254 02F19F97 		ldrls	pc, [pc, r2, asl #2]
 1356 0258 3F0300EA 		b	.L213
 1357              	.L91:
 1358 025c 7C020000 		.word	.L90
 1359 0260 D0020000 		.word	.L92
 1360 0264 94040000 		.word	.L93
 1361 0268 B8060000 		.word	.L94
 1362 026c 7C080000 		.word	.L95
 1363 0270 E4080000 		.word	.L96
 1364 0274 B40A0000 		.word	.L97
 1365 0278 F40C0000 		.word	.L98
 1366              	.L90:
 1367 027c 30709DE5 		ldr	r7, [sp, #48]
 1368 0280 930808E0 		mul	r8, r3, r8
 1369 0284 930707E0 		mul	r7, r3, r7
 1370 0288 085086E0 		add	r5, r6, r8
 1371 028c 079086E0 		add	r9, r6, r7
 1372 0290 070096E7 		ldr	r0, [r6, r7]	@ float
 1373 0294 041099E5 		ldr	r1, [r9, #4]	@ float
 1374 0298 082096E7 		ldr	r2, [r6, r8]	@ float
 1375 029c 043095E5 		ldr	r3, [r5, #4]	@ float
 1376 02a0 FEFFFFEB 		bl	nav_route_xy
 1377 02a4 F83C9FE5 		ldr	r3, .L243+56
 1378 02a8 00308DE5 		str	r3, [sp]	@ float
 1379 02ac 043099E5 		ldr	r3, [r9, #4]	@ float
 1380 02b0 080096E7 		ldr	r0, [r6, r8]	@ float
 1381 02b4 041095E5 		ldr	r1, [r5, #4]	@ float
 1382 02b8 072096E7 		ldr	r2, [r6, r7]	@ float
 1383 02bc FEFFFFEB 		bl	nav_approaching_xy
 1384 02c0 000050E3 		cmp	r0, #0
 1385 02c4 0130A013 		movne	r3, #1
 1386 02c8 2303000A 		beq	.L213
 1387 02cc 7E0100EA 		b	.L223
 1388              	.L92:
 1389 02d0 34109DE5 		ldr	r1, [sp, #52]	@ float
 1390 02d4 28009DE5 		ldr	r0, [sp, #40]	@ float
 1391 02d8 FEFFFFEB 		bl	__aeabi_fadd
 1392 02dc 3C109DE5 		ldr	r1, [sp, #60]	@ float
 1393 02e0 0050A0E1 		mov	r5, r0
 1394 02e4 2C009DE5 		ldr	r0, [sp, #44]	@ float
 1395 02e8 FEFFFFEB 		bl	__aeabi_fadd
 1396 02ec 0720A0E1 		mov	r2, r7
 1397 02f0 0010A0E1 		mov	r1, r0
 1398 02f4 0500A0E1 		mov	r0, r5
 1399 02f8 FEFFFFEB 		bl	nav_circle_XY
 1400 02fc 0B00A0E1 		mov	r0, fp
 1401 0300 FEFFFFEB 		bl	__aeabi_f2d
 1402 0304 9C2C9FE5 		ldr	r2, .L243+60
 1403 0308 9C3C9FE5 		ldr	r3, .L243+64
 1404 030c FEFFFFEB 		bl	__aeabi_dmul
 1405 0310 0020A0E3 		mov	r2, #0
 1406 0314 943C9FE5 		ldr	r3, .L243+68
 1407 0318 FEFFFFEB 		bl	__aeabi_dsub
 1408 031c 903C9FE5 		ldr	r3, .L243+72
 1409 0320 0060A0E1 		mov	r6, r0
 1410 0324 000093E5 		ldr	r0, [r3]	@ float
 1411 0328 0170A0E1 		mov	r7, r1
 1412 032c FEFFFFEB 		bl	__aeabi_f2d
 1413 0330 0020A0E1 		mov	r2, r0
 1414 0334 0130A0E1 		mov	r3, r1
 1415 0338 440C9FE5 		ldr	r0, .L243+24
 1416 033c 741C9FE5 		ldr	r1, .L243+76
 1417 0340 FEFFFFEB 		bl	__aeabi_dsub
 1418 0344 5C2C9FE5 		ldr	r2, .L243+60
 1419 0348 5C3C9FE5 		ldr	r3, .L243+64
 1420 034c FEFFFFEB 		bl	__aeabi_dmul
 1421 0350 FEFFFFEB 		bl	__aeabi_d2f
 1422 0354 0080A0E3 		mov	r8, #0
 1423 0358 0050A0E1 		mov	r5, r0
 1424              	.L100:
 1425 035c 0500A0E1 		mov	r0, r5
 1426 0360 0010A0E3 		mov	r1, #0
 1427 0364 FEFFFFEB 		bl	__aeabi_fcmplt
 1428 0368 000050E3 		cmp	r0, #0
 1429 036c FF9008E2 		and	r9, r8, #255
 1430 0370 1000000A 		beq	.L102
 1431 0374 018088E2 		add	r8, r8, #1
 1432 0378 010C58E3 		cmp	r8, #256
 1433 037c 0400000A 		beq	.L225
 1434 0380 0500A0E1 		mov	r0, r5
 1435 0384 301C9FE5 		ldr	r1, .L243+80
 1436 0388 FEFFFFEB 		bl	__aeabi_fadd
 1437 038c 0050A0E1 		mov	r5, r0
 1438 0390 F1FFFFEA 		b	.L100
 1439              	.L225:
 1440 0394 0090A0E3 		mov	r9, #0
 1441 0398 060000EA 		b	.L102
 1442              	.L105:
 1443 039c 019089E2 		add	r9, r9, #1
 1444 03a0 FF9019E2 		ands	r9, r9, #255
 1445 03a4 0800000A 		beq	.L108
 1446 03a8 0500A0E1 		mov	r0, r5
 1447 03ac 081C9FE5 		ldr	r1, .L243+80
 1448 03b0 FEFFFFEB 		bl	__aeabi_fsub
 1449 03b4 0050A0E1 		mov	r5, r0
 1450              	.L102:
 1451 03b8 0500A0E1 		mov	r0, r5
 1452 03bc F81B9FE5 		ldr	r1, .L243+80
 1453 03c0 FEFFFFEB 		bl	__aeabi_fcmpge
 1454 03c4 000050E3 		cmp	r0, #0
 1455 03c8 F3FFFF1A 		bne	.L105
 1456              	.L108:
 1457 03cc 0500A0E1 		mov	r0, r5
 1458 03d0 FEFFFFEB 		bl	__aeabi_f2d
 1459 03d4 0020A0E1 		mov	r2, r0
 1460 03d8 0130A0E1 		mov	r3, r1
 1461 03dc 0600A0E1 		mov	r0, r6
 1462 03e0 0710A0E1 		mov	r1, r7
 1463 03e4 FEFFFFEB 		bl	__aeabi_dsub
 1464 03e8 FEFFFFEB 		bl	__aeabi_d2f
 1465 03ec 0060A0E3 		mov	r6, #0
 1466 03f0 0050A0E1 		mov	r5, r0
 1467 03f4 060000EA 		b	.L106
 1468              	.L227:
 1469 03f8 016086E2 		add	r6, r6, #1
 1470 03fc 010C56E3 		cmp	r6, #256
 1471 0400 0A00000A 		beq	.L226
 1472 0404 0500A0E1 		mov	r0, r5
 1473 0408 AC1B9FE5 		ldr	r1, .L243+80
 1474 040c FEFFFFEB 		bl	__aeabi_fadd
 1475 0410 0050A0E1 		mov	r5, r0
 1476              	.L106:
 1477 0414 0500A0E1 		mov	r0, r5
 1478 0418 0010A0E3 		mov	r1, #0
 1479 041c FEFFFFEB 		bl	__aeabi_fcmplt
 1480 0420 000050E3 		cmp	r0, #0
 1481 0424 FF7006E2 		and	r7, r6, #255
 1482 0428 F2FFFF1A 		bne	.L227
 1483 042c 080000EA 		b	.L110
 1484              	.L226:
 1485 0430 0070A0E3 		mov	r7, #0
 1486 0434 060000EA 		b	.L110
 1487              	.L113:
 1488 0438 017087E2 		add	r7, r7, #1
 1489 043c FF7017E2 		ands	r7, r7, #255
 1490 0440 0800000A 		beq	.L117
 1491 0444 0500A0E1 		mov	r0, r5
 1492 0448 6C1B9FE5 		ldr	r1, .L243+80
 1493 044c FEFFFFEB 		bl	__aeabi_fsub
 1494 0450 0050A0E1 		mov	r5, r0
 1495              	.L110:
 1496 0454 0500A0E1 		mov	r0, r5
 1497 0458 5C1B9FE5 		ldr	r1, .L243+80
 1498 045c FEFFFFEB 		bl	__aeabi_fcmpge
 1499 0460 000050E3 		cmp	r0, #0
 1500 0464 F3FFFF1A 		bne	.L113
 1501              	.L117:
 1502 0468 0500A0E1 		mov	r0, r5
 1503 046c 4C1B9FE5 		ldr	r1, .L243+84
 1504 0470 FEFFFFEB 		bl	__aeabi_fcmpgt
 1505 0474 000050E3 		cmp	r0, #0
 1506 0478 9102001A 		bne	.L114
 1507 047c 0500A0E1 		mov	r0, r5
 1508 0480 3C1B9FE5 		ldr	r1, .L243+88
 1509 0484 FEFFFFEB 		bl	__aeabi_fcmplt
 1510 0488 000050E3 		cmp	r0, #0
 1511 048c 8C02001A 		bne	.L114
 1512 0490 B10200EA 		b	.L213
 1513              	.L93:
 1514 0494 28009DE5 		ldr	r0, [sp, #40]	@ float
 1515 0498 FEFFFFEB 		bl	__aeabi_f2d
 1516 049c 18308DE2 		add	r3, sp, #24
 1517 04a0 0C0093E8 		ldmia	r3, {r2-r3}
 1518 04a4 0040A0E1 		mov	r4, r0
 1519 04a8 0150A0E1 		mov	r5, r1
 1520 04ac 10108DE2 		add	r1, sp, #16
 1521 04b0 030091E8 		ldmia	r1, {r0-r1}
 1522 04b4 FEFFFFEB 		bl	__aeabi_dmul
 1523 04b8 0020A0E1 		mov	r2, r0
 1524 04bc 0130A0E1 		mov	r3, r1
 1525 04c0 0400A0E1 		mov	r0, r4
 1526 04c4 0510A0E1 		mov	r1, r5
 1527 04c8 FEFFFFEB 		bl	__aeabi_dadd
 1528 04cc FEFFFFEB 		bl	__aeabi_d2f
 1529 04d0 0060A0E1 		mov	r6, r0
 1530 04d4 2C009DE5 		ldr	r0, [sp, #44]	@ float
 1531 04d8 FEFFFFEB 		bl	__aeabi_f2d
 1532 04dc 20308DE2 		add	r3, sp, #32
 1533 04e0 0C0093E8 		ldmia	r3, {r2-r3}
 1534 04e4 0040A0E1 		mov	r4, r0
 1535 04e8 0150A0E1 		mov	r5, r1
 1536 04ec 10108DE2 		add	r1, sp, #16
 1537 04f0 030091E8 		ldmia	r1, {r0-r1}
 1538 04f4 FEFFFFEB 		bl	__aeabi_dmul
 1539 04f8 0130A0E1 		mov	r3, r1
 1540 04fc 0020A0E1 		mov	r2, r0
 1541 0500 0510A0E1 		mov	r1, r5
 1542 0504 0400A0E1 		mov	r0, r4
 1543 0508 FEFFFFEB 		bl	__aeabi_dadd
 1544 050c FEFFFFEB 		bl	__aeabi_d2f
 1545 0510 022187E2 		add	r2, r7, #-2147483648
 1546 0514 0010A0E1 		mov	r1, r0
 1547 0518 0600A0E1 		mov	r0, r6
 1548 051c FEFFFFEB 		bl	nav_circle_XY
 1549 0520 0900A0E1 		mov	r0, r9
 1550 0524 FEFFFFEB 		bl	__aeabi_f2d
 1551 0528 782A9FE5 		ldr	r2, .L243+60
 1552 052c 783A9FE5 		ldr	r3, .L243+64
 1553 0530 FEFFFFEB 		bl	__aeabi_dmul
 1554 0534 0020A0E3 		mov	r2, #0
 1555 0538 703A9FE5 		ldr	r3, .L243+68
 1556 053c FEFFFFEB 		bl	__aeabi_dadd
 1557 0540 6C3A9FE5 		ldr	r3, .L243+72
 1558 0544 0040A0E1 		mov	r4, r0
 1559 0548 000093E5 		ldr	r0, [r3]	@ float
 1560 054c 0150A0E1 		mov	r5, r1
 1561 0550 FEFFFFEB 		bl	__aeabi_f2d
 1562 0554 0020A0E1 		mov	r2, r0
 1563 0558 0130A0E1 		mov	r3, r1
 1564 055c 200A9FE5 		ldr	r0, .L243+24
 1565 0560 501A9FE5 		ldr	r1, .L243+76
 1566 0564 FEFFFFEB 		bl	__aeabi_dsub
 1567 0568 382A9FE5 		ldr	r2, .L243+60
 1568 056c 383A9FE5 		ldr	r3, .L243+64
 1569 0570 FEFFFFEB 		bl	__aeabi_dmul
 1570 0574 FEFFFFEB 		bl	__aeabi_d2f
 1571 0578 0070A0E3 		mov	r7, #0
 1572 057c 0060A0E1 		mov	r6, r0
 1573              	.L119:
 1574 0580 0600A0E1 		mov	r0, r6
 1575 0584 0010A0E3 		mov	r1, #0
 1576 0588 FEFFFFEB 		bl	__aeabi_fcmplt
 1577 058c 000050E3 		cmp	r0, #0
 1578 0590 FF9007E2 		and	r9, r7, #255
 1579 0594 1000000A 		beq	.L121
 1580 0598 017087E2 		add	r7, r7, #1
 1581 059c 010C57E3 		cmp	r7, #256
 1582 05a0 0400000A 		beq	.L228
 1583 05a4 0600A0E1 		mov	r0, r6
 1584 05a8 0C1A9FE5 		ldr	r1, .L243+80
 1585 05ac FEFFFFEB 		bl	__aeabi_fadd
 1586 05b0 0060A0E1 		mov	r6, r0
 1587 05b4 F1FFFFEA 		b	.L119
 1588              	.L228:
 1589 05b8 0090A0E3 		mov	r9, #0
 1590 05bc 060000EA 		b	.L121
 1591              	.L124:
 1592 05c0 019089E2 		add	r9, r9, #1
 1593 05c4 FF9019E2 		ands	r9, r9, #255
 1594 05c8 0800000A 		beq	.L127
 1595 05cc 0600A0E1 		mov	r0, r6
 1596 05d0 E4199FE5 		ldr	r1, .L243+80
 1597 05d4 FEFFFFEB 		bl	__aeabi_fsub
 1598 05d8 0060A0E1 		mov	r6, r0
 1599              	.L121:
 1600 05dc 0600A0E1 		mov	r0, r6
 1601 05e0 D4199FE5 		ldr	r1, .L243+80
 1602 05e4 FEFFFFEB 		bl	__aeabi_fcmpge
 1603 05e8 000050E3 		cmp	r0, #0
 1604 05ec F3FFFF1A 		bne	.L124
 1605              	.L127:
 1606 05f0 0600A0E1 		mov	r0, r6
 1607 05f4 FEFFFFEB 		bl	__aeabi_f2d
 1608 05f8 0020A0E1 		mov	r2, r0
 1609 05fc 0130A0E1 		mov	r3, r1
 1610 0600 0400A0E1 		mov	r0, r4
 1611 0604 0510A0E1 		mov	r1, r5
 1612 0608 FEFFFFEB 		bl	__aeabi_dsub
 1613 060c FEFFFFEB 		bl	__aeabi_d2f
 1614 0610 0050A0E3 		mov	r5, #0
 1615 0614 0040A0E1 		mov	r4, r0
 1616 0618 060000EA 		b	.L125
 1617              	.L230:
 1618 061c 015085E2 		add	r5, r5, #1
 1619 0620 010C55E3 		cmp	r5, #256
 1620 0624 0A00000A 		beq	.L229
 1621 0628 0400A0E1 		mov	r0, r4
 1622 062c 88199FE5 		ldr	r1, .L243+80
 1623 0630 FEFFFFEB 		bl	__aeabi_fadd
 1624 0634 0040A0E1 		mov	r4, r0
 1625              	.L125:
 1626 0638 0400A0E1 		mov	r0, r4
 1627 063c 0010A0E3 		mov	r1, #0
 1628 0640 FEFFFFEB 		bl	__aeabi_fcmplt
 1629 0644 000050E3 		cmp	r0, #0
 1630 0648 FF6005E2 		and	r6, r5, #255
 1631 064c F2FFFF1A 		bne	.L230
 1632 0650 080000EA 		b	.L129
 1633              	.L229:
 1634 0654 0060A0E3 		mov	r6, #0
 1635 0658 060000EA 		b	.L129
 1636              	.L132:
 1637 065c 016086E2 		add	r6, r6, #1
 1638 0660 FF6016E2 		ands	r6, r6, #255
 1639 0664 0800000A 		beq	.L136
 1640 0668 0400A0E1 		mov	r0, r4
 1641 066c 48199FE5 		ldr	r1, .L243+80
 1642 0670 FEFFFFEB 		bl	__aeabi_fsub
 1643 0674 0040A0E1 		mov	r4, r0
 1644              	.L129:
 1645 0678 0400A0E1 		mov	r0, r4
 1646 067c 38199FE5 		ldr	r1, .L243+80
 1647 0680 FEFFFFEB 		bl	__aeabi_fcmpge
 1648 0684 000050E3 		cmp	r0, #0
 1649 0688 F3FFFF1A 		bne	.L132
 1650              	.L136:
 1651 068c 0400A0E1 		mov	r0, r4
 1652 0690 28199FE5 		ldr	r1, .L243+84
 1653 0694 FEFFFFEB 		bl	__aeabi_fcmpgt
 1654 0698 000050E3 		cmp	r0, #0
 1655 069c 0A02001A 		bne	.L133
 1656 06a0 0400A0E1 		mov	r0, r4
 1657 06a4 18199FE5 		ldr	r1, .L243+88
 1658 06a8 FEFFFFEB 		bl	__aeabi_fcmplt
 1659 06ac 000050E3 		cmp	r0, #0
 1660 06b0 0502001A 		bne	.L133
 1661 06b4 280200EA 		b	.L213
 1662              	.L94:
 1663 06b8 44109DE5 		ldr	r1, [sp, #68]	@ float
 1664 06bc 28009DE5 		ldr	r0, [sp, #40]	@ float
 1665 06c0 FEFFFFEB 		bl	__aeabi_fadd
 1666 06c4 48109DE5 		ldr	r1, [sp, #72]	@ float
 1667 06c8 0060A0E1 		mov	r6, r0
 1668 06cc 2C009DE5 		ldr	r0, [sp, #44]	@ float
 1669 06d0 FEFFFFEB 		bl	__aeabi_fadd
 1670 06d4 0720A0E1 		mov	r2, r7
 1671 06d8 0010A0E1 		mov	r1, r0
 1672 06dc 0600A0E1 		mov	r0, r6
 1673 06e0 FEFFFFEB 		bl	nav_circle_XY
 1674 06e4 0500A0E1 		mov	r0, r5
 1675 06e8 FEFFFFEB 		bl	__aeabi_f2d
 1676 06ec B4289FE5 		ldr	r2, .L243+60
 1677 06f0 B4389FE5 		ldr	r3, .L243+64
 1678 06f4 FEFFFFEB 		bl	__aeabi_dmul
 1679 06f8 0020A0E3 		mov	r2, #0
 1680 06fc AC389FE5 		ldr	r3, .L243+68
 1681 0700 FEFFFFEB 		bl	__aeabi_dsub
 1682 0704 A8389FE5 		ldr	r3, .L243+72
 1683 0708 0060A0E1 		mov	r6, r0
 1684 070c 000093E5 		ldr	r0, [r3]	@ float
 1685 0710 0170A0E1 		mov	r7, r1
 1686 0714 FEFFFFEB 		bl	__aeabi_f2d
 1687 0718 0020A0E1 		mov	r2, r0
 1688 071c 0130A0E1 		mov	r3, r1
 1689 0720 5C089FE5 		ldr	r0, .L243+24
 1690 0724 8C189FE5 		ldr	r1, .L243+76
 1691 0728 FEFFFFEB 		bl	__aeabi_dsub
 1692 072c 74289FE5 		ldr	r2, .L243+60
 1693 0730 74389FE5 		ldr	r3, .L243+64
 1694 0734 FEFFFFEB 		bl	__aeabi_dmul
 1695 0738 FEFFFFEB 		bl	__aeabi_d2f
 1696 073c 0080A0E3 		mov	r8, #0
 1697 0740 0050A0E1 		mov	r5, r0
 1698              	.L137:
 1699 0744 0500A0E1 		mov	r0, r5
 1700 0748 0010A0E3 		mov	r1, #0
 1701 074c FEFFFFEB 		bl	__aeabi_fcmplt
 1702 0750 000050E3 		cmp	r0, #0
 1703 0754 FF9008E2 		and	r9, r8, #255
 1704 0758 1000000A 		beq	.L139
 1705 075c 018088E2 		add	r8, r8, #1
 1706 0760 010C58E3 		cmp	r8, #256
 1707 0764 0400000A 		beq	.L231
 1708 0768 0500A0E1 		mov	r0, r5
 1709 076c 48189FE5 		ldr	r1, .L243+80
 1710 0770 FEFFFFEB 		bl	__aeabi_fadd
 1711 0774 0050A0E1 		mov	r5, r0
 1712 0778 F1FFFFEA 		b	.L137
 1713              	.L231:
 1714 077c 0090A0E3 		mov	r9, #0
 1715 0780 060000EA 		b	.L139
 1716              	.L142:
 1717 0784 019089E2 		add	r9, r9, #1
 1718 0788 FF9019E2 		ands	r9, r9, #255
 1719 078c 0800000A 		beq	.L145
 1720 0790 0500A0E1 		mov	r0, r5
 1721 0794 20189FE5 		ldr	r1, .L243+80
 1722 0798 FEFFFFEB 		bl	__aeabi_fsub
 1723 079c 0050A0E1 		mov	r5, r0
 1724              	.L139:
 1725 07a0 0500A0E1 		mov	r0, r5
 1726 07a4 10189FE5 		ldr	r1, .L243+80
 1727 07a8 FEFFFFEB 		bl	__aeabi_fcmpge
 1728 07ac 000050E3 		cmp	r0, #0
 1729 07b0 F3FFFF1A 		bne	.L142
 1730              	.L145:
 1731 07b4 0500A0E1 		mov	r0, r5
 1732 07b8 FEFFFFEB 		bl	__aeabi_f2d
 1733 07bc 0020A0E1 		mov	r2, r0
 1734 07c0 0130A0E1 		mov	r3, r1
 1735 07c4 0600A0E1 		mov	r0, r6
 1736 07c8 0710A0E1 		mov	r1, r7
 1737 07cc FEFFFFEB 		bl	__aeabi_dsub
 1738 07d0 FEFFFFEB 		bl	__aeabi_d2f
 1739 07d4 0060A0E3 		mov	r6, #0
 1740 07d8 0050A0E1 		mov	r5, r0
 1741 07dc 060000EA 		b	.L143
 1742              	.L233:
 1743 07e0 016086E2 		add	r6, r6, #1
 1744 07e4 010C56E3 		cmp	r6, #256
 1745 07e8 0A00000A 		beq	.L232
 1746 07ec 0500A0E1 		mov	r0, r5
 1747 07f0 C4179FE5 		ldr	r1, .L243+80
 1748 07f4 FEFFFFEB 		bl	__aeabi_fadd
 1749 07f8 0050A0E1 		mov	r5, r0
 1750              	.L143:
 1751 07fc 0500A0E1 		mov	r0, r5
 1752 0800 0010A0E3 		mov	r1, #0
 1753 0804 FEFFFFEB 		bl	__aeabi_fcmplt
 1754 0808 000050E3 		cmp	r0, #0
 1755 080c FF7006E2 		and	r7, r6, #255
 1756 0810 F2FFFF1A 		bne	.L233
 1757 0814 080000EA 		b	.L147
 1758              	.L232:
 1759 0818 0070A0E3 		mov	r7, #0
 1760 081c 060000EA 		b	.L147
 1761              	.L150:
 1762 0820 017087E2 		add	r7, r7, #1
 1763 0824 FF7017E2 		ands	r7, r7, #255
 1764 0828 0800000A 		beq	.L154
 1765 082c 0500A0E1 		mov	r0, r5
 1766 0830 84179FE5 		ldr	r1, .L243+80
 1767 0834 FEFFFFEB 		bl	__aeabi_fsub
 1768 0838 0050A0E1 		mov	r5, r0
 1769              	.L147:
 1770 083c 0500A0E1 		mov	r0, r5
 1771 0840 74179FE5 		ldr	r1, .L243+80
 1772 0844 FEFFFFEB 		bl	__aeabi_fcmpge
 1773 0848 000050E3 		cmp	r0, #0
 1774 084c F3FFFF1A 		bne	.L150
 1775              	.L154:
 1776 0850 0500A0E1 		mov	r0, r5
 1777 0854 64179FE5 		ldr	r1, .L243+84
 1778 0858 FEFFFFEB 		bl	__aeabi_fcmpgt
 1779 085c 000050E3 		cmp	r0, #0
 1780 0860 B601001A 		bne	.L151
 1781 0864 0500A0E1 		mov	r0, r5
 1782 0868 54179FE5 		ldr	r1, .L243+88
 1783 086c FEFFFFEB 		bl	__aeabi_fcmplt
 1784 0870 000050E3 		cmp	r0, #0
 1785 0874 B101001A 		bne	.L151
 1786 0878 B70100EA 		b	.L213
 1787              	.L95:
 1788 087c 30709DE5 		ldr	r7, [sp, #48]
 1789 0880 930808E0 		mul	r8, r3, r8
 1790 0884 930707E0 		mul	r7, r3, r7
 1791 0888 085086E0 		add	r5, r6, r8
 1792 088c 079086E0 		add	r9, r6, r7
 1793 0890 080096E7 		ldr	r0, [r6, r8]	@ float
 1794 0894 041095E5 		ldr	r1, [r5, #4]	@ float
 1795 0898 072096E7 		ldr	r2, [r6, r7]	@ float
 1796 089c 043099E5 		ldr	r3, [r9, #4]	@ float
 1797 08a0 FEFFFFEB 		bl	nav_route_xy
 1798 08a4 F8369FE5 		ldr	r3, .L243+56
 1799 08a8 00308DE5 		str	r3, [sp]	@ float
 1800 08ac 070096E7 		ldr	r0, [r6, r7]	@ float
 1801 08b0 041099E5 		ldr	r1, [r9, #4]	@ float
 1802 08b4 082096E7 		ldr	r2, [r6, r8]	@ float
 1803 08b8 043095E5 		ldr	r3, [r5, #4]	@ float
 1804 08bc FEFFFFEB 		bl	nav_approaching_xy
 1805 08c0 000050E3 		cmp	r0, #0
 1806 08c4 A401000A 		beq	.L213
 1807 08c8 0530A0E3 		mov	r3, #5
 1808              	.L223:
 1809 08cc 080095E5 		ldr	r0, [r5, #8]	@ float
 1810 08d0 4C109DE5 		ldr	r1, [sp, #76]	@ float
 1811 08d4 0030C4E5 		strb	r3, [r4]
 1812 08d8 FEFFFFEB 		bl	__aeabi_fadd
 1813 08dc 080085E5 		str	r0, [r5, #8]	@ float
 1814 08e0 9C0100EA 		b	.L221
 1815              	.L96:
 1816 08e4 0C00A0E1 		mov	r0, ip
 1817 08e8 44109DE5 		ldr	r1, [sp, #68]	@ float
 1818 08ec FEFFFFEB 		bl	__aeabi_fadd
 1819 08f0 48109DE5 		ldr	r1, [sp, #72]	@ float
 1820 08f4 0050A0E1 		mov	r5, r0
 1821 08f8 0A00A0E1 		mov	r0, r10
 1822 08fc FEFFFFEB 		bl	__aeabi_fadd
 1823 0900 0720A0E1 		mov	r2, r7
 1824 0904 0010A0E1 		mov	r1, r0
 1825 0908 0500A0E1 		mov	r0, r5
 1826 090c FEFFFFEB 		bl	nav_circle_XY
 1827 0910 0B00A0E1 		mov	r0, fp
 1828 0914 FEFFFFEB 		bl	__aeabi_f2d
 1829 0918 64269FE5 		ldr	r2, .L243+24
 1830 091c 64369FE5 		ldr	r3, .L243+28
 1831 0920 FEFFFFEB 		bl	__aeabi_dadd
 1832 0924 7C269FE5 		ldr	r2, .L243+60
 1833 0928 7C369FE5 		ldr	r3, .L243+64
 1834 092c FEFFFFEB 		bl	__aeabi_dmul
 1835 0930 0020A0E3 		mov	r2, #0
 1836 0934 74369FE5 		ldr	r3, .L243+68
 1837 0938 FEFFFFEB 		bl	__aeabi_dsub
 1838 093c 70369FE5 		ldr	r3, .L243+72
 1839 0940 0060A0E1 		mov	r6, r0
 1840 0944 000093E5 		ldr	r0, [r3]	@ float
 1841 0948 0170A0E1 		mov	r7, r1
 1842 094c FEFFFFEB 		bl	__aeabi_f2d
 1843 0950 0020A0E1 		mov	r2, r0
 1844 0954 0130A0E1 		mov	r3, r1
 1845 0958 24069FE5 		ldr	r0, .L243+24
 1846 095c 54169FE5 		ldr	r1, .L243+76
 1847 0960 FEFFFFEB 		bl	__aeabi_dsub
 1848 0964 3C269FE5 		ldr	r2, .L243+60
 1849 0968 3C369FE5 		ldr	r3, .L243+64
 1850 096c FEFFFFEB 		bl	__aeabi_dmul
 1851 0970 FEFFFFEB 		bl	__aeabi_d2f
 1852 0974 0080A0E3 		mov	r8, #0
 1853 0978 0050A0E1 		mov	r5, r0
 1854              	.L155:
 1855 097c 0500A0E1 		mov	r0, r5
 1856 0980 0010A0E3 		mov	r1, #0
 1857 0984 FEFFFFEB 		bl	__aeabi_fcmplt
 1858 0988 000050E3 		cmp	r0, #0
 1859 098c FF9008E2 		and	r9, r8, #255
 1860 0990 1000000A 		beq	.L157
 1861 0994 018088E2 		add	r8, r8, #1
 1862 0998 010C58E3 		cmp	r8, #256
 1863 099c 0400000A 		beq	.L234
 1864 09a0 0500A0E1 		mov	r0, r5
 1865 09a4 10169FE5 		ldr	r1, .L243+80
 1866 09a8 FEFFFFEB 		bl	__aeabi_fadd
 1867 09ac 0050A0E1 		mov	r5, r0
 1868 09b0 F1FFFFEA 		b	.L155
 1869              	.L234:
 1870 09b4 0090A0E3 		mov	r9, #0
 1871 09b8 060000EA 		b	.L157
 1872              	.L160:
 1873 09bc 019089E2 		add	r9, r9, #1
 1874 09c0 FF9019E2 		ands	r9, r9, #255
 1875 09c4 0800000A 		beq	.L163
 1876 09c8 0500A0E1 		mov	r0, r5
 1877 09cc E8159FE5 		ldr	r1, .L243+80
 1878 09d0 FEFFFFEB 		bl	__aeabi_fsub
 1879 09d4 0050A0E1 		mov	r5, r0
 1880              	.L157:
 1881 09d8 0500A0E1 		mov	r0, r5
 1882 09dc D8159FE5 		ldr	r1, .L243+80
 1883 09e0 FEFFFFEB 		bl	__aeabi_fcmpge
 1884 09e4 000050E3 		cmp	r0, #0
 1885 09e8 F3FFFF1A 		bne	.L160
 1886              	.L163:
 1887 09ec 0500A0E1 		mov	r0, r5
 1888 09f0 FEFFFFEB 		bl	__aeabi_f2d
 1889 09f4 0020A0E1 		mov	r2, r0
 1890 09f8 0130A0E1 		mov	r3, r1
 1891 09fc 0600A0E1 		mov	r0, r6
 1892 0a00 0710A0E1 		mov	r1, r7
 1893 0a04 FEFFFFEB 		bl	__aeabi_dsub
 1894 0a08 FEFFFFEB 		bl	__aeabi_d2f
 1895 0a0c 0060A0E3 		mov	r6, #0
 1896 0a10 0050A0E1 		mov	r5, r0
 1897 0a14 060000EA 		b	.L161
 1898              	.L236:
 1899 0a18 016086E2 		add	r6, r6, #1
 1900 0a1c 010C56E3 		cmp	r6, #256
 1901 0a20 0A00000A 		beq	.L235
 1902 0a24 0500A0E1 		mov	r0, r5
 1903 0a28 8C159FE5 		ldr	r1, .L243+80
 1904 0a2c FEFFFFEB 		bl	__aeabi_fadd
 1905 0a30 0050A0E1 		mov	r5, r0
 1906              	.L161:
 1907 0a34 0500A0E1 		mov	r0, r5
 1908 0a38 0010A0E3 		mov	r1, #0
 1909 0a3c FEFFFFEB 		bl	__aeabi_fcmplt
 1910 0a40 000050E3 		cmp	r0, #0
 1911 0a44 FF7006E2 		and	r7, r6, #255
 1912 0a48 F2FFFF1A 		bne	.L236
 1913 0a4c 080000EA 		b	.L165
 1914              	.L235:
 1915 0a50 0070A0E3 		mov	r7, #0
 1916 0a54 060000EA 		b	.L165
 1917              	.L168:
 1918 0a58 017087E2 		add	r7, r7, #1
 1919 0a5c FF7017E2 		ands	r7, r7, #255
 1920 0a60 0800000A 		beq	.L172
 1921 0a64 0500A0E1 		mov	r0, r5
 1922 0a68 4C159FE5 		ldr	r1, .L243+80
 1923 0a6c FEFFFFEB 		bl	__aeabi_fsub
 1924 0a70 0050A0E1 		mov	r5, r0
 1925              	.L165:
 1926 0a74 0500A0E1 		mov	r0, r5
 1927 0a78 3C159FE5 		ldr	r1, .L243+80
 1928 0a7c FEFFFFEB 		bl	__aeabi_fcmpge
 1929 0a80 000050E3 		cmp	r0, #0
 1930 0a84 F3FFFF1A 		bne	.L168
 1931              	.L172:
 1932 0a88 0500A0E1 		mov	r0, r5
 1933 0a8c 2C159FE5 		ldr	r1, .L243+84
 1934 0a90 FEFFFFEB 		bl	__aeabi_fcmpgt
 1935 0a94 000050E3 		cmp	r0, #0
 1936 0a98 2A01001A 		bne	.L169
 1937 0a9c 0500A0E1 		mov	r0, r5
 1938 0aa0 1C159FE5 		ldr	r1, .L243+88
 1939 0aa4 FEFFFFEB 		bl	__aeabi_fcmplt
 1940 0aa8 000050E3 		cmp	r0, #0
 1941 0aac 2501001A 		bne	.L169
 1942 0ab0 290100EA 		b	.L213
 1943              	.L97:
 1944 0ab4 0C00A0E1 		mov	r0, ip
 1945 0ab8 FEFFFFEB 		bl	__aeabi_f2d
 1946 0abc 0040A0E1 		mov	r4, r0
 1947 0ac0 38009DE5 		ldr	r0, [sp, #56]	@ float
 1948 0ac4 0150A0E1 		mov	r5, r1
 1949 0ac8 FEFFFFEB 		bl	__aeabi_f2d
 1950 0acc 0020A0E1 		mov	r2, r0
 1951 0ad0 0130A0E1 		mov	r3, r1
 1952 0ad4 10108DE2 		add	r1, sp, #16
 1953 0ad8 030091E8 		ldmia	r1, {r0-r1}
 1954 0adc FEFFFFEB 		bl	__aeabi_dmul
 1955 0ae0 0020A0E1 		mov	r2, r0
 1956 0ae4 0130A0E1 		mov	r3, r1
 1957 0ae8 0400A0E1 		mov	r0, r4
 1958 0aec 0510A0E1 		mov	r1, r5
 1959 0af0 FEFFFFEB 		bl	__aeabi_dadd
 1960 0af4 FEFFFFEB 		bl	__aeabi_d2f
 1961 0af8 00B0A0E1 		mov	fp, r0
 1962 0afc 0A00A0E1 		mov	r0, r10
 1963 0b00 FEFFFFEB 		bl	__aeabi_f2d
 1964 0b04 0040A0E1 		mov	r4, r0
 1965 0b08 40009DE5 		ldr	r0, [sp, #64]	@ float
 1966 0b0c 0150A0E1 		mov	r5, r1
 1967 0b10 FEFFFFEB 		bl	__aeabi_f2d
 1968 0b14 0020A0E1 		mov	r2, r0
 1969 0b18 0130A0E1 		mov	r3, r1
 1970 0b1c 10108DE2 		add	r1, sp, #16
 1971 0b20 030091E8 		ldmia	r1, {r0-r1}
 1972 0b24 FEFFFFEB 		bl	__aeabi_dmul
 1973 0b28 0130A0E1 		mov	r3, r1
 1974 0b2c 0020A0E1 		mov	r2, r0
 1975 0b30 0510A0E1 		mov	r1, r5
 1976 0b34 0400A0E1 		mov	r0, r4
 1977 0b38 FEFFFFEB 		bl	__aeabi_dadd
 1978 0b3c FEFFFFEB 		bl	__aeabi_d2f
 1979 0b40 022187E2 		add	r2, r7, #-2147483648
 1980 0b44 0010A0E1 		mov	r1, r0
 1981 0b48 0B00A0E1 		mov	r0, fp
 1982 0b4c FEFFFFEB 		bl	nav_circle_XY
 1983 0b50 0900A0E1 		mov	r0, r9
 1984 0b54 FEFFFFEB 		bl	__aeabi_f2d
 1985 0b58 24249FE5 		ldr	r2, .L243+24
 1986 0b5c 24349FE5 		ldr	r3, .L243+28
 1987 0b60 FEFFFFEB 		bl	__aeabi_dadd
 1988 0b64 3C249FE5 		ldr	r2, .L243+60
 1989 0b68 3C349FE5 		ldr	r3, .L243+64
 1990 0b6c FEFFFFEB 		bl	__aeabi_dmul
 1991 0b70 0020A0E3 		mov	r2, #0
 1992 0b74 34349FE5 		ldr	r3, .L243+68
 1993 0b78 FEFFFFEB 		bl	__aeabi_dadd
 1994 0b7c 30349FE5 		ldr	r3, .L243+72
 1995 0b80 0040A0E1 		mov	r4, r0
 1996 0b84 000093E5 		ldr	r0, [r3]	@ float
 1997 0b88 0150A0E1 		mov	r5, r1
 1998 0b8c FEFFFFEB 		bl	__aeabi_f2d
 1999 0b90 0020A0E1 		mov	r2, r0
 2000 0b94 0130A0E1 		mov	r3, r1
 2001 0b98 E4039FE5 		ldr	r0, .L243+24
 2002 0b9c 14149FE5 		ldr	r1, .L243+76
 2003 0ba0 FEFFFFEB 		bl	__aeabi_dsub
 2004 0ba4 FC239FE5 		ldr	r2, .L243+60
 2005 0ba8 FC339FE5 		ldr	r3, .L243+64
 2006 0bac FEFFFFEB 		bl	__aeabi_dmul
 2007 0bb0 FEFFFFEB 		bl	__aeabi_d2f
 2008 0bb4 0090A0E3 		mov	r9, #0
 2009 0bb8 0070A0E1 		mov	r7, r0
 2010              	.L173:
 2011 0bbc 0700A0E1 		mov	r0, r7
 2012 0bc0 0010A0E3 		mov	r1, #0
 2013 0bc4 FEFFFFEB 		bl	__aeabi_fcmplt
 2014 0bc8 000050E3 		cmp	r0, #0
 2015 0bcc FFA009E2 		and	r10, r9, #255
 2016 0bd0 1000000A 		beq	.L175
 2017 0bd4 019089E2 		add	r9, r9, #1
 2018 0bd8 010C59E3 		cmp	r9, #256
 2019 0bdc 0400000A 		beq	.L237
 2020 0be0 0700A0E1 		mov	r0, r7
 2021 0be4 D0139FE5 		ldr	r1, .L243+80
 2022 0be8 FEFFFFEB 		bl	__aeabi_fadd
 2023 0bec 0070A0E1 		mov	r7, r0
 2024 0bf0 F1FFFFEA 		b	.L173
 2025              	.L237:
 2026 0bf4 00A0A0E3 		mov	r10, #0
 2027 0bf8 060000EA 		b	.L175
 2028              	.L178:
 2029 0bfc 01A08AE2 		add	r10, r10, #1
 2030 0c00 FFA01AE2 		ands	r10, r10, #255
 2031 0c04 0800000A 		beq	.L181
 2032 0c08 0700A0E1 		mov	r0, r7
 2033 0c0c A8139FE5 		ldr	r1, .L243+80
 2034 0c10 FEFFFFEB 		bl	__aeabi_fsub
 2035 0c14 0070A0E1 		mov	r7, r0
 2036              	.L175:
 2037 0c18 0700A0E1 		mov	r0, r7
 2038 0c1c 98139FE5 		ldr	r1, .L243+80
 2039 0c20 FEFFFFEB 		bl	__aeabi_fcmpge
 2040 0c24 000050E3 		cmp	r0, #0
 2041 0c28 F3FFFF1A 		bne	.L178
 2042              	.L181:
 2043 0c2c 0700A0E1 		mov	r0, r7
 2044 0c30 FEFFFFEB 		bl	__aeabi_f2d
 2045 0c34 0020A0E1 		mov	r2, r0
 2046 0c38 0130A0E1 		mov	r3, r1
 2047 0c3c 0400A0E1 		mov	r0, r4
 2048 0c40 0510A0E1 		mov	r1, r5
 2049 0c44 FEFFFFEB 		bl	__aeabi_dsub
 2050 0c48 FEFFFFEB 		bl	__aeabi_d2f
 2051 0c4c 0050A0E3 		mov	r5, #0
 2052 0c50 0040A0E1 		mov	r4, r0
 2053 0c54 060000EA 		b	.L179
 2054              	.L239:
 2055 0c58 015085E2 		add	r5, r5, #1
 2056 0c5c 010C55E3 		cmp	r5, #256
 2057 0c60 0A00000A 		beq	.L238
 2058 0c64 0400A0E1 		mov	r0, r4
 2059 0c68 4C139FE5 		ldr	r1, .L243+80
 2060 0c6c FEFFFFEB 		bl	__aeabi_fadd
 2061 0c70 0040A0E1 		mov	r4, r0
 2062              	.L179:
 2063 0c74 0400A0E1 		mov	r0, r4
 2064 0c78 0010A0E3 		mov	r1, #0
 2065 0c7c FEFFFFEB 		bl	__aeabi_fcmplt
 2066 0c80 000050E3 		cmp	r0, #0
 2067 0c84 FF7005E2 		and	r7, r5, #255
 2068 0c88 F2FFFF1A 		bne	.L239
 2069 0c8c 080000EA 		b	.L183
 2070              	.L238:
 2071 0c90 0070A0E3 		mov	r7, #0
 2072 0c94 060000EA 		b	.L183
 2073              	.L186:
 2074 0c98 017087E2 		add	r7, r7, #1
 2075 0c9c FF7017E2 		ands	r7, r7, #255
 2076 0ca0 0800000A 		beq	.L190
 2077 0ca4 0400A0E1 		mov	r0, r4
 2078 0ca8 0C139FE5 		ldr	r1, .L243+80
 2079 0cac FEFFFFEB 		bl	__aeabi_fsub
 2080 0cb0 0040A0E1 		mov	r4, r0
 2081              	.L183:
 2082 0cb4 0400A0E1 		mov	r0, r4
 2083 0cb8 FC129FE5 		ldr	r1, .L243+80
 2084 0cbc FEFFFFEB 		bl	__aeabi_fcmpge
 2085 0cc0 000050E3 		cmp	r0, #0
 2086 0cc4 F3FFFF1A 		bne	.L186
 2087              	.L190:
 2088 0cc8 0400A0E1 		mov	r0, r4
 2089 0ccc EC129FE5 		ldr	r1, .L243+84
 2090 0cd0 FEFFFFEB 		bl	__aeabi_fcmpgt
 2091 0cd4 000050E3 		cmp	r0, #0
 2092 0cd8 8900001A 		bne	.L187
 2093 0cdc 0400A0E1 		mov	r0, r4
 2094 0ce0 DC129FE5 		ldr	r1, .L243+88
 2095 0ce4 FEFFFFEB 		bl	__aeabi_fcmplt
 2096 0ce8 000050E3 		cmp	r0, #0
 2097 0cec 8400001A 		bne	.L187
 2098 0cf0 990000EA 		b	.L213
 2099              	.L98:
 2100 0cf4 0C00A0E1 		mov	r0, ip
 2101 0cf8 34109DE5 		ldr	r1, [sp, #52]	@ float
 2102 0cfc FEFFFFEB 		bl	__aeabi_fadd
 2103 0d00 3C109DE5 		ldr	r1, [sp, #60]	@ float
 2104 0d04 0060A0E1 		mov	r6, r0
 2105 0d08 0A00A0E1 		mov	r0, r10
 2106 0d0c FEFFFFEB 		bl	__aeabi_fadd
 2107 0d10 0720A0E1 		mov	r2, r7
 2108 0d14 0010A0E1 		mov	r1, r0
 2109 0d18 0600A0E1 		mov	r0, r6
 2110 0d1c FEFFFFEB 		bl	nav_circle_XY
 2111 0d20 0500A0E1 		mov	r0, r5
 2112 0d24 FEFFFFEB 		bl	__aeabi_f2d
 2113 0d28 54229FE5 		ldr	r2, .L243+24
 2114 0d2c 54329FE5 		ldr	r3, .L243+28
 2115 0d30 FEFFFFEB 		bl	__aeabi_dadd
 2116 0d34 6C229FE5 		ldr	r2, .L243+60
 2117 0d38 6C329FE5 		ldr	r3, .L243+64
 2118 0d3c FEFFFFEB 		bl	__aeabi_dmul
 2119 0d40 0020A0E3 		mov	r2, #0
 2120 0d44 64329FE5 		ldr	r3, .L243+68
 2121 0d48 FEFFFFEB 		bl	__aeabi_dsub
 2122 0d4c 60329FE5 		ldr	r3, .L243+72
 2123 0d50 0060A0E1 		mov	r6, r0
 2124 0d54 000093E5 		ldr	r0, [r3]	@ float
 2125 0d58 0170A0E1 		mov	r7, r1
 2126 0d5c FEFFFFEB 		bl	__aeabi_f2d
 2127 0d60 0020A0E1 		mov	r2, r0
 2128 0d64 0130A0E1 		mov	r3, r1
 2129 0d68 14029FE5 		ldr	r0, .L243+24
 2130 0d6c 44129FE5 		ldr	r1, .L243+76
 2131 0d70 FEFFFFEB 		bl	__aeabi_dsub
 2132 0d74 2C229FE5 		ldr	r2, .L243+60
 2133 0d78 2C329FE5 		ldr	r3, .L243+64
 2134 0d7c FEFFFFEB 		bl	__aeabi_dmul
 2135 0d80 FEFFFFEB 		bl	__aeabi_d2f
 2136 0d84 0080A0E3 		mov	r8, #0
 2137 0d88 0050A0E1 		mov	r5, r0
 2138              	.L191:
 2139 0d8c 0500A0E1 		mov	r0, r5
 2140 0d90 0010A0E3 		mov	r1, #0
 2141 0d94 FEFFFFEB 		bl	__aeabi_fcmplt
 2142 0d98 000050E3 		cmp	r0, #0
 2143 0d9c FF9008E2 		and	r9, r8, #255
 2144 0da0 1000000A 		beq	.L193
 2145 0da4 018088E2 		add	r8, r8, #1
 2146 0da8 010C58E3 		cmp	r8, #256
 2147 0dac 0400000A 		beq	.L240
 2148 0db0 0500A0E1 		mov	r0, r5
 2149 0db4 00129FE5 		ldr	r1, .L243+80
 2150 0db8 FEFFFFEB 		bl	__aeabi_fadd
 2151 0dbc 0050A0E1 		mov	r5, r0
 2152 0dc0 F1FFFFEA 		b	.L191
 2153              	.L240:
 2154 0dc4 0090A0E3 		mov	r9, #0
 2155 0dc8 060000EA 		b	.L193
 2156              	.L196:
 2157 0dcc 019089E2 		add	r9, r9, #1
 2158 0dd0 FF9019E2 		ands	r9, r9, #255
 2159 0dd4 0800000A 		beq	.L199
 2160 0dd8 0500A0E1 		mov	r0, r5
 2161 0ddc D8119FE5 		ldr	r1, .L243+80
 2162 0de0 FEFFFFEB 		bl	__aeabi_fsub
 2163 0de4 0050A0E1 		mov	r5, r0
 2164              	.L193:
 2165 0de8 0500A0E1 		mov	r0, r5
 2166 0dec C8119FE5 		ldr	r1, .L243+80
 2167 0df0 FEFFFFEB 		bl	__aeabi_fcmpge
 2168 0df4 000050E3 		cmp	r0, #0
 2169 0df8 F3FFFF1A 		bne	.L196
 2170              	.L199:
 2171 0dfc 0500A0E1 		mov	r0, r5
 2172 0e00 FEFFFFEB 		bl	__aeabi_f2d
 2173 0e04 0020A0E1 		mov	r2, r0
 2174 0e08 0130A0E1 		mov	r3, r1
 2175 0e0c 0600A0E1 		mov	r0, r6
 2176 0e10 0710A0E1 		mov	r1, r7
 2177 0e14 FEFFFFEB 		bl	__aeabi_dsub
 2178 0e18 FEFFFFEB 		bl	__aeabi_d2f
 2179 0e1c 0060A0E3 		mov	r6, #0
 2180 0e20 0050A0E1 		mov	r5, r0
 2181 0e24 060000EA 		b	.L197
 2182              	.L242:
 2183 0e28 016086E2 		add	r6, r6, #1
 2184 0e2c 010C56E3 		cmp	r6, #256
 2185 0e30 0A00000A 		beq	.L241
 2186 0e34 0500A0E1 		mov	r0, r5
 2187 0e38 7C119FE5 		ldr	r1, .L243+80
 2188 0e3c FEFFFFEB 		bl	__aeabi_fadd
 2189 0e40 0050A0E1 		mov	r5, r0
 2190              	.L197:
 2191 0e44 0500A0E1 		mov	r0, r5
 2192 0e48 0010A0E3 		mov	r1, #0
 2193 0e4c FEFFFFEB 		bl	__aeabi_fcmplt
 2194 0e50 000050E3 		cmp	r0, #0
 2195 0e54 FF7006E2 		and	r7, r6, #255
 2196 0e58 F2FFFF1A 		bne	.L242
 2197 0e5c 080000EA 		b	.L201
 2198              	.L241:
 2199 0e60 0070A0E3 		mov	r7, #0
 2200 0e64 060000EA 		b	.L201
 2201              	.L204:
 2202 0e68 017087E2 		add	r7, r7, #1
 2203 0e6c FF7017E2 		ands	r7, r7, #255
 2204 0e70 0800000A 		beq	.L208
 2205 0e74 0500A0E1 		mov	r0, r5
 2206 0e78 3C119FE5 		ldr	r1, .L243+80
 2207 0e7c FEFFFFEB 		bl	__aeabi_fsub
 2208 0e80 0050A0E1 		mov	r5, r0
 2209              	.L201:
 2210 0e84 0500A0E1 		mov	r0, r5
 2211 0e88 2C119FE5 		ldr	r1, .L243+80
 2212 0e8c FEFFFFEB 		bl	__aeabi_fcmpge
 2213 0e90 000050E3 		cmp	r0, #0
 2214 0e94 F3FFFF1A 		bne	.L204
 2215              	.L208:
 2216 0e98 0500A0E1 		mov	r0, r5
 2217 0e9c 1C119FE5 		ldr	r1, .L243+84
 2218 0ea0 FEFFFFEB 		bl	__aeabi_fcmpgt
 2219 0ea4 000050E3 		cmp	r0, #0
 2220 0ea8 2800001A 		bne	.L205
 2221 0eac 0500A0E1 		mov	r0, r5
 2222 0eb0 0C119FE5 		ldr	r1, .L243+88
 2223 0eb4 FEFFFFEB 		bl	__aeabi_fcmplt
 2224 0eb8 000050E3 		cmp	r0, #0
 2225 0ebc 2300001A 		bne	.L205
 2226 0ec0 250000EA 		b	.L213
 2227              	.L114:
 2228 0ec4 0230A0E3 		mov	r3, #2
 2229 0ec8 210000EA 		b	.L222
 2230              	.L133:
 2231 0ecc 98309FE5 		ldr	r3, .L243
 2232 0ed0 0C60A0E3 		mov	r6, #12
 2233 0ed4 963828E0 		mla	r8, r6, r8, r3
 2234 0ed8 E4109FE5 		ldr	r1, .L243+88
 2235 0edc 080098E5 		ldr	r0, [r8, #8]	@ float
 2236 0ee0 FEFFFFEB 		bl	__aeabi_fsub
 2237 0ee4 DC309FE5 		ldr	r3, .L243+92
 2238 0ee8 0010A0E1 		mov	r1, r0
 2239 0eec 000093E5 		ldr	r0, [r3]	@ float
 2240 0ef0 FEFFFFEB 		bl	__aeabi_fcmpge
 2241 0ef4 000050E3 		cmp	r0, #0
 2242 0ef8 1700000A 		beq	.L213
 2243 0efc 0320A0E3 		mov	r2, #3
 2244 0f00 0B0000EA 		b	.L224
 2245              	.L187:
 2246 0f04 0C30A0E3 		mov	r3, #12
 2247 0f08 936826E0 		mla	r6, r3, r8, r6
 2248 0f0c 90109FE5 		ldr	r1, .L243+56
 2249 0f10 080096E5 		ldr	r0, [r6, #8]	@ float
 2250 0f14 FEFFFFEB 		bl	__aeabi_fsub
 2251 0f18 A8309FE5 		ldr	r3, .L243+92
 2252 0f1c 0010A0E1 		mov	r1, r0
 2253 0f20 000093E5 		ldr	r0, [r3]	@ float
 2254 0f24 FEFFFFEB 		bl	__aeabi_fcmpge
 2255 0f28 000050E3 		cmp	r0, #0
 2256 0f2c 0A00000A 		beq	.L213
 2257 0f30 0720A0E3 		mov	r2, #7
 2258              	.L224:
 2259 0f34 60309FE5 		ldr	r3, .L243+48
 2260 0f38 0020C3E5 		strb	r2, [r3]
 2261 0f3c 050000EA 		b	.L221
 2262              	.L151:
 2263 0f40 0430A0E3 		mov	r3, #4
 2264 0f44 020000EA 		b	.L222
 2265              	.L169:
 2266 0f48 0630A0E3 		mov	r3, #6
 2267 0f4c 000000EA 		b	.L222
 2268              	.L205:
 2269 0f50 0030A0E3 		mov	r3, #0
 2270              	.L222:
 2271 0f54 0030C4E5 		strb	r3, [r4]
 2272              	.L221:
 2273 0f58 FEFFFFEB 		bl	nav_init_stage
 2274              	.L213:
 2275 0f5c 0100A0E3 		mov	r0, #1
 2276 0f60 54D08DE2 		add	sp, sp, #84
 2277              		@ sp needed
 2278 0f64 F04FBDE8 		ldmfd	sp!, {r4, r5, r6, r7, r8, r9, r10, fp, lr}
 2279 0f68 1EFF2FE1 		bx	lr
 2280              	.L244:
 2281              		.align	2
 2282              	.L243:
 2283 0f6c 00000000 		.word	waypoints
 2284 0f70 83C0CAA1 		.word	-1580547965
 2285 0f74 45B6FB3F 		.word	1073460805
 2286 0f78 65732D38 		.word	942502757
 2287 0f7c 52C1F03F 		.word	1072742738
 2288 0f80 52C1F0BF 		.word	-1074740910
 2289 0f84 182D4454 		.word	1413754136
 2290 0f88 FB210940 		.word	1074340347
 2291 0f8c 00000000 		.word	v_ctl_climb_mode
 2292 0f90 00000000 		.word	nav_pitch
 2293 0f94 00000000 		.word	v_ctl_mode
 2294 0f98 00000000 		.word	nav_altitude
 2295 0f9c 00000000 		.word	.LANCHOR26
 2296 0fa0 00000000 		.word	v_ctl_altitude_pre_climb
 2297 0fa4 0000A040 		.word	1084227584
 2298 0fa8 F8C1631A 		.word	442745336
 2299 0fac DCA54C40 		.word	1078765020
 2300 0fb0 00002440 		.word	1076101120
 2301 0fb4 00000000 		.word	nav_circle_trigo_qdr
 2302 0fb8 FB21F93F 		.word	1073291771
 2303 0fbc 0000B443 		.word	1135869952
 2304 0fc0 0000AF43 		.word	1135542272
 2305 0fc4 00002041 		.word	1092616192
 2306 0fc8 00000000 		.word	estimator_z
 2308              		.section	.text.InitializeSkidLanding,"ax",%progbits
 2309              		.align	2
 2310              		.global	InitializeSkidLanding
 2312              	InitializeSkidLanding:
 2313              		@ Function supports interworking.
 2314              		@ args = 0, pretend = 0, frame = 0
 2315              		@ frame_needed = 0, uses_anonymous_args = 0
 2316 0000 F84F2DE9 		stmfd	sp!, {r3, r4, r5, r6, r7, r8, r9, r10, fp, lr}
 2317 0004 08329FE5 		ldr	r3, .L252
 2318 0008 0C70A0E3 		mov	r7, #12
 2319 000c 970009E0 		mul	r9, r7, r0
 2320 0010 910707E0 		mul	r7, r1, r7
 2321 0014 0000C3E5 		strb	r0, [r3]
 2322 0018 F8319FE5 		ldr	r3, .L252+4
 2323 001c 0010C3E5 		strb	r1, [r3]
 2324 0020 F4319FE5 		ldr	r3, .L252+8
 2325 0024 0260A0E1 		mov	r6, r2
 2326 0028 0020A0E3 		mov	r2, #0
 2327 002c 0020C3E5 		strb	r2, [r3]
 2328 0030 E8319FE5 		ldr	r3, .L252+12
 2329 0034 006083E5 		str	r6, [r3]	@ float
 2330 0038 E4319FE5 		ldr	r3, .L252+16
 2331 003c 002093E5 		ldr	r2, [r3]	@ float
 2332 0040 E0319FE5 		ldr	r3, .L252+20
 2333 0044 002083E5 		str	r2, [r3]	@ float
 2334 0048 DC219FE5 		ldr	r2, .L252+24
 2335 004c DC319FE5 		ldr	r3, .L252+28
 2336 0050 002083E5 		str	r2, [r3]	@ float
 2337 0054 D8319FE5 		ldr	r3, .L252+32
 2338 0058 0120A0E3 		mov	r2, #1
 2339 005c D4419FE5 		ldr	r4, .L252+36
 2340 0060 0020C3E5 		strb	r2, [r3]
 2341 0064 078084E0 		add	r8, r4, r7
 2342 0068 080098E5 		ldr	r0, [r8, #8]	@ float
 2343 006c C8119FE5 		ldr	r1, .L252+40
 2344 0070 FEFFFFEB 		bl	__aeabi_fadd
 2345 0074 095084E0 		add	r5, r4, r9
 2346 0078 091094E7 		ldr	r1, [r4, r9]	@ float
 2347 007c 080085E5 		str	r0, [r5, #8]	@ float
 2348 0080 070094E7 		ldr	r0, [r4, r7]	@ float
 2349 0084 FEFFFFEB 		bl	__aeabi_fsub
 2350 0088 041095E5 		ldr	r1, [r5, #4]	@ float
 2351 008c 0070A0E1 		mov	r7, r0
 2352 0090 040098E5 		ldr	r0, [r8, #4]	@ float
 2353 0094 FEFFFFEB 		bl	__aeabi_fsub
 2354 0098 0710A0E1 		mov	r1, r7
 2355 009c 0080A0E1 		mov	r8, r0
 2356 00a0 0700A0E1 		mov	r0, r7
 2357 00a4 FEFFFFEB 		bl	__aeabi_fmul
 2358 00a8 0810A0E1 		mov	r1, r8
 2359 00ac 00A0A0E1 		mov	r10, r0
 2360 00b0 0800A0E1 		mov	r0, r8
 2361 00b4 FEFFFFEB 		bl	__aeabi_fmul
 2362 00b8 0010A0E1 		mov	r1, r0
 2363 00bc 0A00A0E1 		mov	r0, r10
 2364 00c0 FEFFFFEB 		bl	__aeabi_fadd
 2365 00c4 FEFFFFEB 		bl	__aeabi_f2d
 2366 00c8 FEFFFFEB 		bl	sqrt
 2367 00cc FEFFFFEB 		bl	__aeabi_d2f
 2368 00d0 00B0A0E1 		mov	fp, r0
 2369 00d4 0B10A0E1 		mov	r1, fp
 2370 00d8 0800A0E1 		mov	r0, r8
 2371 00dc FEFFFFEB 		bl	__aeabi_fdiv
 2372 00e0 0610A0E1 		mov	r1, r6
 2373 00e4 FEFFFFEB 		bl	__aeabi_fmul
 2374 00e8 094094E7 		ldr	r4, [r4, r9]	@ float
 2375 00ec 0010A0E1 		mov	r1, r0
 2376 00f0 0400A0E1 		mov	r0, r4
 2377 00f4 FEFFFFEB 		bl	__aeabi_fadd
 2378 00f8 40A19FE5 		ldr	r10, .L252+44
 2379 00fc 0090A0E1 		mov	r9, r0
 2380 0100 00008AE5 		str	r0, [r10]	@ float
 2381 0104 0B10A0E1 		mov	r1, fp
 2382 0108 0700A0E1 		mov	r0, r7
 2383 010c FEFFFFEB 		bl	__aeabi_fdiv
 2384 0110 0610A0E1 		mov	r1, r6
 2385 0114 FEFFFFEB 		bl	__aeabi_fmul
 2386 0118 048095E5 		ldr	r8, [r5, #4]	@ float
 2387 011c 0010A0E1 		mov	r1, r0
 2388 0120 0800A0E1 		mov	r0, r8
 2389 0124 FEFFFFEB 		bl	__aeabi_fsub
 2390 0128 0910A0E1 		mov	r1, r9
 2391 012c 0070A0E1 		mov	r7, r0
 2392 0130 04008AE5 		str	r0, [r10, #4]	@ float
 2393 0134 0400A0E1 		mov	r0, r4
 2394 0138 FEFFFFEB 		bl	__aeabi_fsub
 2395 013c FEFFFFEB 		bl	__aeabi_f2d
 2396 0140 0040A0E1 		mov	r4, r0
 2397 0144 0150A0E1 		mov	r5, r1
 2398 0148 0800A0E1 		mov	r0, r8
 2399 014c 0710A0E1 		mov	r1, r7
 2400 0150 FEFFFFEB 		bl	__aeabi_fsub
 2401 0154 FEFFFFEB 		bl	__aeabi_f2d
 2402 0158 0020A0E1 		mov	r2, r0
 2403 015c 0130A0E1 		mov	r3, r1
 2404 0160 0400A0E1 		mov	r0, r4
 2405 0164 0510A0E1 		mov	r1, r5
 2406 0168 FEFFFFEB 		bl	atan2
 2407 016c FEFFFFEB 		bl	__aeabi_d2f
 2408 0170 0010A0E3 		mov	r1, #0
 2409 0174 0040A0E1 		mov	r4, r0
 2410 0178 0600A0E1 		mov	r0, r6
 2411 017c FEFFFFEB 		bl	__aeabi_fcmpgt
 2412 0180 000050E3 		cmp	r0, #0
 2413 0184 B8709FE5 		ldr	r7, .L252+48
 2414 0188 B8609FE5 		ldr	r6, .L252+52
 2415 018c 0400A0E1 		mov	r0, r4
 2416 0190 0D00000A 		beq	.L250
 2417 0194 FEFFFFEB 		bl	__aeabi_f2d
 2418 0198 AC209FE5 		ldr	r2, .L252+56
 2419 019c AC309FE5 		ldr	r3, .L252+60
 2420 01a0 0040A0E1 		mov	r4, r0
 2421 01a4 0150A0E1 		mov	r5, r1
 2422 01a8 FEFFFFEB 		bl	__aeabi_dsub
 2423 01ac FEFFFFEB 		bl	__aeabi_d2f
 2424 01b0 0510A0E1 		mov	r1, r5
 2425 01b4 000086E5 		str	r0, [r6]	@ float
 2426 01b8 8C209FE5 		ldr	r2, .L252+56
 2427 01bc 0400A0E1 		mov	r0, r4
 2428 01c0 8C309FE5 		ldr	r3, .L252+64
 2429 01c4 FEFFFFEB 		bl	__aeabi_dsub
 2430 01c8 0C0000EA 		b	.L251
 2431              	.L250:
 2432 01cc FEFFFFEB 		bl	__aeabi_f2d
 2433 01d0 74209FE5 		ldr	r2, .L252+56
 2434 01d4 74309FE5 		ldr	r3, .L252+60
 2435 01d8 0040A0E1 		mov	r4, r0
 2436 01dc 0150A0E1 		mov	r5, r1
 2437 01e0 FEFFFFEB 		bl	__aeabi_dadd
 2438 01e4 FEFFFFEB 		bl	__aeabi_d2f
 2439 01e8 0510A0E1 		mov	r1, r5
 2440 01ec 000086E5 		str	r0, [r6]	@ float
 2441 01f0 54209FE5 		ldr	r2, .L252+56
 2442 01f4 0400A0E1 		mov	r0, r4
 2443 01f8 54309FE5 		ldr	r3, .L252+64
 2444 01fc FEFFFFEB 		bl	__aeabi_dadd
 2445              	.L251:
 2446 0200 FEFFFFEB 		bl	__aeabi_d2f
 2447 0204 000087E5 		str	r0, [r7]	@ float
 2448 0208 0000A0E3 		mov	r0, #0
 2449 020c F84FBDE8 		ldmfd	sp!, {r3, r4, r5, r6, r7, r8, r9, r10, fp, lr}
 2450 0210 1EFF2FE1 		bx	lr
 2451              	.L253:
 2452              		.align	2
 2453              	.L252:
 2454 0214 00000000 		.word	.LANCHOR27
 2455 0218 00000000 		.word	.LANCHOR28
 2456 021c 00000000 		.word	.LANCHOR29
 2457 0220 00000000 		.word	.LANCHOR30
 2458 0224 00000000 		.word	estimator_z
 2459 0228 00000000 		.word	.LANCHOR31
 2460 022c 0000A040 		.word	1084227584
 2461 0230 00000000 		.word	.LANCHOR32
 2462 0234 00000000 		.word	.LANCHOR33
 2463 0238 00000000 		.word	waypoints
 2464 023c 00004842 		.word	1112014848
 2465 0240 00000000 		.word	.LANCHOR34
 2466 0244 00000000 		.word	.LANCHOR35
 2467 0248 00000000 		.word	.LANCHOR36
 2468 024c 182D4454 		.word	1413754136
 2469 0250 FB21F93F 		.word	1073291771
 2470 0254 FB21E93F 		.word	1072243195
 2472              		.global	__aeabi_dcmplt
 2473              		.global	__aeabi_dcmpgt
 2474              		.section	.text.SkidLanding,"ax",%progbits
 2475              		.align	2
 2476              		.global	SkidLanding
 2478              	SkidLanding:
 2479              		@ Function supports interworking.
 2480              		@ args = 0, pretend = 0, frame = 0
 2481              		@ frame_needed = 0, uses_anonymous_args = 0
 2482 0000 F8432DE9 		stmfd	sp!, {r3, r4, r5, r6, r7, r8, r9, lr}
 2483 0004 DC659FE5 		ldr	r6, .L319
 2484 0008 0030D6E5 		ldrb	r3, [r6]	@ zero_extendqisi2
 2485 000c 030053E3 		cmp	r3, #3
 2486 0010 03F19F97 		ldrls	pc, [pc, r3, asl #2]
 2487 0014 700100EA 		b	.L305
 2488              	.L257:
 2489 0018 28000000 		.word	.L256
 2490 001c F8000000 		.word	.L258
 2491 0020 04050000 		.word	.L259
 2492 0024 10030000 		.word	.L260
 2493              	.L256:
 2494 0028 BC359FE5 		ldr	r3, .L319+4
 2495 002c 0020A0E3 		mov	r2, #0
 2496 0030 0020C3E5 		strb	r2, [r3]
 2497 0034 B4359FE5 		ldr	r3, .L319+8
 2498 0038 0040A0E3 		mov	r4, #0
 2499 003c 004083E5 		str	r4, [r3]	@ float
 2500 0040 AC359FE5 		ldr	r3, .L319+12
 2501 0044 000093E5 		ldr	r0, [r3]
 2502 0048 0201C0E3 		bic	r0, r0, #-2147483648
 2503 004c FEFFFFEB 		bl	__aeabi_f2d
 2504 0050 A0259FE5 		ldr	r2, .L319+16
 2505 0054 A0359FE5 		ldr	r3, .L319+20
 2506 0058 FEFFFFEB 		bl	__aeabi_ddiv
 2507 005c 9C259FE5 		ldr	r2, .L319+24
 2508 0060 9C359FE5 		ldr	r3, .L319+28
 2509 0064 FEFFFFEB 		bl	__aeabi_dcmplt
 2510 0068 98759FE5 		ldr	r7, .L319+32
 2511 006c 98159FE5 		ldr	r1, .L319+36
 2512 0070 000050E3 		cmp	r0, #0
 2513 0074 0300A0E3 		mov	r0, #3
 2514 0078 0000C1E5 		strb	r0, [r1]
 2515 007c 8C559FE5 		ldr	r5, .L319+40
 2516 0080 0010D705 		ldreqb	r1, [r7]	@ zero_extendqisi2
 2517 0084 0C00A003 		moveq	r0, #12
 2518 0088 90512100 		mlaeq	r1, r0, r1, r5
 2519 008c 80159F15 		ldrne	r1, .L319+44
 2520 0090 80359FE5 		ldr	r3, .L319+48
 2521 0094 08109105 		ldreq	r1, [r1, #8]	@ float
 2522 0098 00109115 		ldrne	r1, [r1]	@ float
 2523 009c 004083E5 		str	r4, [r3]	@ float
 2524 00a0 74259FE5 		ldr	r2, .L319+52
 2525 00a4 74359FE5 		ldr	r3, .L319+56
 2526 00a8 001082E5 		str	r1, [r2]	@ float
 2527 00ac 000093E5 		ldr	r0, [r3]	@ float
 2528 00b0 041093E5 		ldr	r1, [r3, #4]	@ float
 2529 00b4 68359FE5 		ldr	r3, .L319+60
 2530 00b8 002093E5 		ldr	r2, [r3]	@ float
 2531 00bc FEFFFFEB 		bl	nav_circle_XY
 2532 00c0 0030D7E5 		ldrb	r3, [r7]	@ zero_extendqisi2
 2533 00c4 0C20A0E3 		mov	r2, #12
 2534 00c8 925325E0 		mla	r5, r2, r3, r5
 2535 00cc 54159FE5 		ldr	r1, .L319+64
 2536 00d0 080095E5 		ldr	r0, [r5, #8]	@ float
 2537 00d4 FEFFFFEB 		bl	__aeabi_fadd
 2538 00d8 4C359FE5 		ldr	r3, .L319+68
 2539 00dc 0010A0E1 		mov	r1, r0
 2540 00e0 000093E5 		ldr	r0, [r3]	@ float
 2541 00e4 FEFFFFEB 		bl	__aeabi_fcmplt
 2542 00e8 000050E3 		cmp	r0, #0
 2543 00ec 0130A013 		movne	r3, #1
 2544 00f0 3901000A 		beq	.L305
 2545 00f4 360100EA 		b	.L312
 2546              	.L258:
 2547 00f8 EC349FE5 		ldr	r3, .L319+4
 2548 00fc 0080A0E3 		mov	r8, #0
 2549 0100 E8249FE5 		ldr	r2, .L319+8
 2550 0104 0080C3E5 		strb	r8, [r3]
 2551 0108 0030A0E3 		mov	r3, #0
 2552 010c 003082E5 		str	r3, [r2]	@ float
 2553 0110 F4249FE5 		ldr	r2, .L319+36
 2554 0114 0310A0E3 		mov	r1, #3
 2555 0118 0010C2E5 		strb	r1, [r2]
 2556 011c E4249FE5 		ldr	r2, .L319+32
 2557 0120 E8149FE5 		ldr	r1, .L319+40
 2558 0124 0020D2E5 		ldrb	r2, [r2]	@ zero_extendqisi2
 2559 0128 0C00A0E3 		mov	r0, #12
 2560 012c 901222E0 		mla	r2, r0, r2, r1
 2561 0130 081092E5 		ldr	r1, [r2, #8]	@ float
 2562 0134 E0249FE5 		ldr	r2, .L319+52
 2563 0138 001082E5 		str	r1, [r2]	@ float
 2564 013c D4249FE5 		ldr	r2, .L319+48
 2565 0140 003082E5 		str	r3, [r2]	@ float
 2566 0144 D4349FE5 		ldr	r3, .L319+56
 2567 0148 000093E5 		ldr	r0, [r3]	@ float
 2568 014c 041093E5 		ldr	r1, [r3, #4]	@ float
 2569 0150 CC349FE5 		ldr	r3, .L319+60
 2570 0154 002093E5 		ldr	r2, [r3]	@ float
 2571 0158 FEFFFFEB 		bl	nav_circle_XY
 2572 015c 90349FE5 		ldr	r3, .L319+12
 2573 0160 000093E5 		ldr	r0, [r3]
 2574 0164 0201C0E3 		bic	r0, r0, #-2147483648
 2575 0168 FEFFFFEB 		bl	__aeabi_f2d
 2576 016c 84249FE5 		ldr	r2, .L319+16
 2577 0170 84349FE5 		ldr	r3, .L319+20
 2578 0174 FEFFFFEB 		bl	__aeabi_ddiv
 2579 0178 0020A0E3 		mov	r2, #0
 2580 017c AC349FE5 		ldr	r3, .L319+72
 2581 0180 FEFFFFEB 		bl	__aeabi_dcmpgt
 2582 0184 080050E1 		cmp	r0, r8
 2583 0188 1301000A 		beq	.L305
 2584 018c A0349FE5 		ldr	r3, .L319+76
 2585 0190 000093E5 		ldr	r0, [r3]	@ float
 2586 0194 FEFFFFEB 		bl	__aeabi_f2d
 2587 0198 98249FE5 		ldr	r2, .L319+80
 2588 019c 98349FE5 		ldr	r3, .L319+84
 2589 01a0 FEFFFFEB 		bl	__aeabi_dmul
 2590 01a4 94349FE5 		ldr	r3, .L319+88
 2591 01a8 0040A0E1 		mov	r4, r0
 2592 01ac 000093E5 		ldr	r0, [r3]	@ float
 2593 01b0 0150A0E1 		mov	r5, r1
 2594 01b4 FEFFFFEB 		bl	__aeabi_f2d
 2595 01b8 0020A0E1 		mov	r2, r0
 2596 01bc 0130A0E1 		mov	r3, r1
 2597 01c0 30049FE5 		ldr	r0, .L319+16
 2598 01c4 78149FE5 		ldr	r1, .L319+92
 2599 01c8 FEFFFFEB 		bl	__aeabi_dsub
 2600 01cc 64249FE5 		ldr	r2, .L319+80
 2601 01d0 64349FE5 		ldr	r3, .L319+84
 2602 01d4 FEFFFFEB 		bl	__aeabi_dmul
 2603 01d8 FEFFFFEB 		bl	__aeabi_d2f
 2604              	.L310:
 2605 01dc 0010A0E3 		mov	r1, #0
 2606 01e0 0070A0E1 		mov	r7, r0
 2607 01e4 FEFFFFEB 		bl	__aeabi_fcmplt
 2608 01e8 000050E3 		cmp	r0, #0
 2609 01ec FF9008E2 		and	r9, r8, #255
 2610 01f0 0F00000A 		beq	.L269
 2611 01f4 018088E2 		add	r8, r8, #1
 2612 01f8 010C58E3 		cmp	r8, #256
 2613 01fc 0300000A 		beq	.L313
 2614 0200 0700A0E1 		mov	r0, r7
 2615 0204 3C149FE5 		ldr	r1, .L319+96
 2616 0208 FEFFFFEB 		bl	__aeabi_fadd
 2617 020c F2FFFFEA 		b	.L310
 2618              	.L313:
 2619 0210 0090A0E3 		mov	r9, #0
 2620 0214 060000EA 		b	.L269
 2621              	.L272:
 2622 0218 019089E2 		add	r9, r9, #1
 2623 021c FF9019E2 		ands	r9, r9, #255
 2624 0220 0800000A 		beq	.L275
 2625 0224 0700A0E1 		mov	r0, r7
 2626 0228 18149FE5 		ldr	r1, .L319+96
 2627 022c FEFFFFEB 		bl	__aeabi_fsub
 2628 0230 0070A0E1 		mov	r7, r0
 2629              	.L269:
 2630 0234 0700A0E1 		mov	r0, r7
 2631 0238 08149FE5 		ldr	r1, .L319+96
 2632 023c FEFFFFEB 		bl	__aeabi_fcmpge
 2633 0240 000050E3 		cmp	r0, #0
 2634 0244 F3FFFF1A 		bne	.L272
 2635              	.L275:
 2636 0248 0700A0E1 		mov	r0, r7
 2637 024c FEFFFFEB 		bl	__aeabi_f2d
 2638 0250 0020A0E1 		mov	r2, r0
 2639 0254 0130A0E1 		mov	r3, r1
 2640 0258 0400A0E1 		mov	r0, r4
 2641 025c 0510A0E1 		mov	r1, r5
 2642 0260 FEFFFFEB 		bl	__aeabi_dsub
 2643 0264 FEFFFFEB 		bl	__aeabi_d2f
 2644 0268 0050A0E3 		mov	r5, #0
 2645 026c 0040A0E1 		mov	r4, r0
 2646 0270 060000EA 		b	.L273
 2647              	.L315:
 2648 0274 015085E2 		add	r5, r5, #1
 2649 0278 010C55E3 		cmp	r5, #256
 2650 027c 0A00000A 		beq	.L314
 2651 0280 0400A0E1 		mov	r0, r4
 2652 0284 BC139FE5 		ldr	r1, .L319+96
 2653 0288 FEFFFFEB 		bl	__aeabi_fadd
 2654 028c 0040A0E1 		mov	r4, r0
 2655              	.L273:
 2656 0290 0400A0E1 		mov	r0, r4
 2657 0294 0010A0E3 		mov	r1, #0
 2658 0298 FEFFFFEB 		bl	__aeabi_fcmplt
 2659 029c 000050E3 		cmp	r0, #0
 2660 02a0 FF7005E2 		and	r7, r5, #255
 2661 02a4 F2FFFF1A 		bne	.L315
 2662 02a8 080000EA 		b	.L277
 2663              	.L314:
 2664 02ac 0070A0E3 		mov	r7, #0
 2665 02b0 060000EA 		b	.L277
 2666              	.L280:
 2667 02b4 017087E2 		add	r7, r7, #1
 2668 02b8 FF7017E2 		ands	r7, r7, #255
 2669 02bc 0800000A 		beq	.L284
 2670 02c0 0400A0E1 		mov	r0, r4
 2671 02c4 7C139FE5 		ldr	r1, .L319+96
 2672 02c8 FEFFFFEB 		bl	__aeabi_fsub
 2673 02cc 0040A0E1 		mov	r4, r0
 2674              	.L277:
 2675 02d0 0400A0E1 		mov	r0, r4
 2676 02d4 6C139FE5 		ldr	r1, .L319+96
 2677 02d8 FEFFFFEB 		bl	__aeabi_fcmpge
 2678 02dc 000050E3 		cmp	r0, #0
 2679 02e0 F3FFFF1A 		bne	.L280
 2680              	.L284:
 2681 02e4 0400A0E1 		mov	r0, r4
 2682 02e8 5C139FE5 		ldr	r1, .L319+100
 2683 02ec FEFFFFEB 		bl	__aeabi_fcmpgt
 2684 02f0 000050E3 		cmp	r0, #0
 2685 02f4 B300001A 		bne	.L281
 2686 02f8 0400A0E1 		mov	r0, r4
 2687 02fc 4C139FE5 		ldr	r1, .L319+104
 2688 0300 FEFFFFEB 		bl	__aeabi_fcmplt
 2689 0304 000050E3 		cmp	r0, #0
 2690 0308 AE00001A 		bne	.L281
 2691 030c B20000EA 		b	.L305
 2692              	.L260:
 2693 0310 3C339FE5 		ldr	r3, .L319+108
 2694 0314 0120A0E3 		mov	r2, #1
 2695 0318 0020C3E5 		strb	r2, [r3]
 2696 031c C8329FE5 		ldr	r3, .L319+4
 2697 0320 C8229FE5 		ldr	r2, .L319+8
 2698 0324 0080A0E3 		mov	r8, #0
 2699 0328 0080C3E5 		strb	r8, [r3]
 2700 032c 0030A0E3 		mov	r3, #0
 2701 0330 003082E5 		str	r3, [r2]	@ float
 2702 0334 D0229FE5 		ldr	r2, .L319+36
 2703 0338 0310A0E3 		mov	r1, #3
 2704 033c 0010C2E5 		strb	r1, [r2]
 2705 0340 C0229FE5 		ldr	r2, .L319+32
 2706 0344 C4129FE5 		ldr	r1, .L319+40
 2707 0348 0020D2E5 		ldrb	r2, [r2]	@ zero_extendqisi2
 2708 034c 0C00A0E3 		mov	r0, #12
 2709 0350 901222E0 		mla	r2, r0, r2, r1
 2710 0354 081092E5 		ldr	r1, [r2, #8]	@ float
 2711 0358 BC229FE5 		ldr	r2, .L319+52
 2712 035c 001082E5 		str	r1, [r2]	@ float
 2713 0360 B0229FE5 		ldr	r2, .L319+48
 2714 0364 003082E5 		str	r3, [r2]	@ float
 2715 0368 B0329FE5 		ldr	r3, .L319+56
 2716 036c 000093E5 		ldr	r0, [r3]	@ float
 2717 0370 041093E5 		ldr	r1, [r3, #4]	@ float
 2718 0374 A8329FE5 		ldr	r3, .L319+60
 2719 0378 002093E5 		ldr	r2, [r3]	@ float
 2720 037c FEFFFFEB 		bl	nav_circle_XY
 2721 0380 D0329FE5 		ldr	r3, .L319+112
 2722 0384 000093E5 		ldr	r0, [r3]	@ float
 2723 0388 FEFFFFEB 		bl	__aeabi_f2d
 2724 038c A4229FE5 		ldr	r2, .L319+80
 2725 0390 A4329FE5 		ldr	r3, .L319+84
 2726 0394 FEFFFFEB 		bl	__aeabi_dmul
 2727 0398 A0329FE5 		ldr	r3, .L319+88
 2728 039c 0040A0E1 		mov	r4, r0
 2729 03a0 000093E5 		ldr	r0, [r3]	@ float
 2730 03a4 0150A0E1 		mov	r5, r1
 2731 03a8 FEFFFFEB 		bl	__aeabi_f2d
 2732 03ac 0020A0E1 		mov	r2, r0
 2733 03b0 0130A0E1 		mov	r3, r1
 2734 03b4 3C029FE5 		ldr	r0, .L319+16
 2735 03b8 84129FE5 		ldr	r1, .L319+92
 2736 03bc FEFFFFEB 		bl	__aeabi_dsub
 2737 03c0 70229FE5 		ldr	r2, .L319+80
 2738 03c4 70329FE5 		ldr	r3, .L319+84
 2739 03c8 FEFFFFEB 		bl	__aeabi_dmul
 2740 03cc FEFFFFEB 		bl	__aeabi_d2f
 2741              	.L311:
 2742 03d0 0010A0E3 		mov	r1, #0
 2743 03d4 0070A0E1 		mov	r7, r0
 2744 03d8 FEFFFFEB 		bl	__aeabi_fcmplt
 2745 03dc 000050E3 		cmp	r0, #0
 2746 03e0 FF9008E2 		and	r9, r8, #255
 2747 03e4 0F00000A 		beq	.L287
 2748 03e8 018088E2 		add	r8, r8, #1
 2749 03ec 010C58E3 		cmp	r8, #256
 2750 03f0 0300000A 		beq	.L316
 2751 03f4 0700A0E1 		mov	r0, r7
 2752 03f8 48129FE5 		ldr	r1, .L319+96
 2753 03fc FEFFFFEB 		bl	__aeabi_fadd
 2754 0400 F2FFFFEA 		b	.L311
 2755              	.L316:
 2756 0404 0090A0E3 		mov	r9, #0
 2757 0408 060000EA 		b	.L287
 2758              	.L290:
 2759 040c 019089E2 		add	r9, r9, #1
 2760 0410 FF9019E2 		ands	r9, r9, #255
 2761 0414 0800000A 		beq	.L293
 2762 0418 0700A0E1 		mov	r0, r7
 2763 041c 24129FE5 		ldr	r1, .L319+96
 2764 0420 FEFFFFEB 		bl	__aeabi_fsub
 2765 0424 0070A0E1 		mov	r7, r0
 2766              	.L287:
 2767 0428 0700A0E1 		mov	r0, r7
 2768 042c 14129FE5 		ldr	r1, .L319+96
 2769 0430 FEFFFFEB 		bl	__aeabi_fcmpge
 2770 0434 000050E3 		cmp	r0, #0
 2771 0438 F3FFFF1A 		bne	.L290
 2772              	.L293:
 2773 043c 0700A0E1 		mov	r0, r7
 2774 0440 FEFFFFEB 		bl	__aeabi_f2d
 2775 0444 0020A0E1 		mov	r2, r0
 2776 0448 0130A0E1 		mov	r3, r1
 2777 044c 0400A0E1 		mov	r0, r4
 2778 0450 0510A0E1 		mov	r1, r5
 2779 0454 FEFFFFEB 		bl	__aeabi_dsub
 2780 0458 FEFFFFEB 		bl	__aeabi_d2f
 2781 045c 0050A0E3 		mov	r5, #0
 2782 0460 0040A0E1 		mov	r4, r0
 2783 0464 060000EA 		b	.L291
 2784              	.L318:
 2785 0468 015085E2 		add	r5, r5, #1
 2786 046c 010C55E3 		cmp	r5, #256
 2787 0470 0A00000A 		beq	.L317
 2788 0474 0400A0E1 		mov	r0, r4
 2789 0478 C8119FE5 		ldr	r1, .L319+96
 2790 047c FEFFFFEB 		bl	__aeabi_fadd
 2791 0480 0040A0E1 		mov	r4, r0
 2792              	.L291:
 2793 0484 0400A0E1 		mov	r0, r4
 2794 0488 0010A0E3 		mov	r1, #0
 2795 048c FEFFFFEB 		bl	__aeabi_fcmplt
 2796 0490 000050E3 		cmp	r0, #0
 2797 0494 FF7005E2 		and	r7, r5, #255
 2798 0498 F2FFFF1A 		bne	.L318
 2799 049c 080000EA 		b	.L295
 2800              	.L317:
 2801 04a0 0070A0E3 		mov	r7, #0
 2802 04a4 060000EA 		b	.L295
 2803              	.L298:
 2804 04a8 017087E2 		add	r7, r7, #1
 2805 04ac FF7017E2 		ands	r7, r7, #255
 2806 04b0 0800000A 		beq	.L302
 2807 04b4 0400A0E1 		mov	r0, r4
 2808 04b8 88119FE5 		ldr	r1, .L319+96
 2809 04bc FEFFFFEB 		bl	__aeabi_fsub
 2810 04c0 0040A0E1 		mov	r4, r0
 2811              	.L295:
 2812 04c4 0400A0E1 		mov	r0, r4
 2813 04c8 78119FE5 		ldr	r1, .L319+96
 2814 04cc FEFFFFEB 		bl	__aeabi_fcmpge
 2815 04d0 000050E3 		cmp	r0, #0
 2816 04d4 F3FFFF1A 		bne	.L298
 2817              	.L302:
 2818 04d8 0400A0E1 		mov	r0, r4
 2819 04dc 68119FE5 		ldr	r1, .L319+100
 2820 04e0 FEFFFFEB 		bl	__aeabi_fcmpgt
 2821 04e4 000050E3 		cmp	r0, #0
 2822 04e8 3800001A 		bne	.L299
 2823 04ec 0400A0E1 		mov	r0, r4
 2824 04f0 58119FE5 		ldr	r1, .L319+104
 2825 04f4 FEFFFFEB 		bl	__aeabi_fcmplt
 2826 04f8 000050E3 		cmp	r0, #0
 2827 04fc 3300001A 		bne	.L299
 2828 0500 350000EA 		b	.L305
 2829              	.L259:
 2830 0504 48319FE5 		ldr	r3, .L319+108
 2831 0508 0120A0E3 		mov	r2, #1
 2832 050c 0020C3E5 		strb	r2, [r3]
 2833 0510 D4309FE5 		ldr	r3, .L319+4
 2834 0514 0020A0E3 		mov	r2, #0
 2835 0518 0020C3E5 		strb	r2, [r3]
 2836 051c CC309FE5 		ldr	r3, .L319+8
 2837 0520 0090A0E3 		mov	r9, #0
 2838 0524 009083E5 		str	r9, [r3]	@ float
 2839 0528 DC309FE5 		ldr	r3, .L319+36
 2840 052c 0320A0E3 		mov	r2, #3
 2841 0530 0020C3E5 		strb	r2, [r3]
 2842 0534 20319FE5 		ldr	r3, .L319+116
 2843 0538 0070D3E5 		ldrb	r7, [r3]	@ zero_extendqisi2
 2844 053c 0C80A0E3 		mov	r8, #12
 2845 0540 980707E0 		mul	r7, r8, r7
 2846 0544 C4409FE5 		ldr	r4, .L319+40
 2847 0548 10519FE5 		ldr	r5, .L319+120
 2848 054c 076084E0 		add	r6, r4, r7
 2849 0550 080096E5 		ldr	r0, [r6, #8]	@ float
 2850 0554 001095E5 		ldr	r1, [r5]	@ float
 2851 0558 FEFFFFEB 		bl	__aeabi_fadd
 2852 055c B8309FE5 		ldr	r3, .L319+52
 2853 0560 000083E5 		str	r0, [r3]	@ float
 2854 0564 AC309FE5 		ldr	r3, .L319+48
 2855 0568 009083E5 		str	r9, [r3]	@ float
 2856 056c 94309FE5 		ldr	r3, .L319+32
 2857 0570 0030D3E5 		ldrb	r3, [r3]	@ zero_extendqisi2
 2858 0574 930808E0 		mul	r8, r3, r8
 2859 0578 083084E0 		add	r3, r4, r8
 2860 057c 072094E7 		ldr	r2, [r4, r7]	@ float
 2861 0580 080094E7 		ldr	r0, [r4, r8]	@ float
 2862 0584 041093E5 		ldr	r1, [r3, #4]	@ float
 2863 0588 043096E5 		ldr	r3, [r6, #4]	@ float
 2864 058c D0609FE5 		ldr	r6, .L319+124
 2865 0590 FEFFFFEB 		bl	nav_route_xy
 2866 0594 CC309FE5 		ldr	r3, .L319+128
 2867 0598 0040D6E5 		ldrb	r4, [r6]	@ zero_extendqisi2
 2868 059c B020D3E1 		ldrh	r2, [r3]
 2869 05a0 043184E0 		add	r3, r4, r4, asl #2
 2870 05a4 030052E1 		cmp	r2, r3
 2871 05a8 0B0000BA 		blt	.L305
 2872 05ac 000095E5 		ldr	r0, [r5]	@ float
 2873 05b0 3F14A0E3 		mov	r1, #1056964608
 2874 05b4 FEFFFFEB 		bl	__aeabi_fmul
 2875 05b8 014084E2 		add	r4, r4, #1
 2876 05bc 000085E5 		str	r0, [r5]	@ float
 2877 05c0 0040C6E5 		strb	r4, [r6]
 2878 05c4 040000EA 		b	.L305
 2879              	.L281:
 2880 05c8 0330A0E3 		mov	r3, #3
 2881 05cc 000000EA 		b	.L312
 2882              	.L299:
 2883 05d0 0230A0E3 		mov	r3, #2
 2884              	.L312:
 2885 05d4 0030C6E5 		strb	r3, [r6]
 2886 05d8 FEFFFFEB 		bl	nav_init_stage
 2887              	.L305:
 2888 05dc 0100A0E3 		mov	r0, #1
 2889 05e0 F843BDE8 		ldmfd	sp!, {r3, r4, r5, r6, r7, r8, r9, lr}
 2890 05e4 1EFF2FE1 		bx	lr
 2891              	.L320:
 2892              		.align	2
 2893              	.L319:
 2894 05e8 00000000 		.word	.LANCHOR29
 2895 05ec 00000000 		.word	v_ctl_climb_mode
 2896 05f0 00000000 		.word	nav_pitch
 2897 05f4 00000000 		.word	nav_circle_radians
 2898 05f8 182D4454 		.word	1413754136
 2899 05fc FB211940 		.word	1075388923
 2900 0600 9A999999 		.word	-1717986918
 2901 0604 9999B93F 		.word	1069128089
 2902 0608 00000000 		.word	.LANCHOR27
 2903 060c 00000000 		.word	v_ctl_mode
 2904 0610 00000000 		.word	waypoints
 2905 0614 00000000 		.word	.LANCHOR31
 2906 0618 00000000 		.word	v_ctl_altitude_pre_climb
 2907 061c 00000000 		.word	nav_altitude
 2908 0620 00000000 		.word	.LANCHOR34
 2909 0624 00000000 		.word	.LANCHOR30
 2910 0628 0000A040 		.word	1084227584
 2911 062c 00000000 		.word	estimator_z
 2912 0630 0000E03F 		.word	1071644672
 2913 0634 00000000 		.word	.LANCHOR36
 2914 0638 F8C1631A 		.word	442745336
 2915 063c DCA54C40 		.word	1078765020
 2916 0640 00000000 		.word	nav_circle_trigo_qdr
 2917 0644 FB21F93F 		.word	1073291771
 2918 0648 0000B443 		.word	1135869952
 2919 064c 0000AF43 		.word	1135542272
 2920 0650 00002041 		.word	1092616192
 2921 0654 00000000 		.word	kill_throttle
 2922 0658 00000000 		.word	.LANCHOR35
 2923 065c 00000000 		.word	.LANCHOR28
 2924 0660 00000000 		.word	.LANCHOR32
 2925 0664 00000000 		.word	.LANCHOR33
 2926 0668 00000000 		.word	stage_time
 2928              		.section	.text.TranslateAndRotateFromWorld,"ax",%progbits
 2929              		.align	2
 2930              		.global	TranslateAndRotateFromWorld
 2932              	TranslateAndRotateFromWorld:
 2933              		@ Function supports interworking.
 2934              		@ args = 0, pretend = 0, frame = 8
 2935              		@ frame_needed = 0, uses_anonymous_args = 0
 2936 0000 F74F2DE9 		stmfd	sp!, {r0, r1, r2, r4, r5, r6, r7, r8, r9, r10, fp, lr}
 2937 0004 0080A0E1 		mov	r8, r0
 2938 0008 0140A0E1 		mov	r4, r1
 2939 000c 000090E5 		ldr	r0, [r0]	@ float
 2940 0010 0210A0E1 		mov	r1, r2
 2941 0014 0350A0E1 		mov	r5, r3
 2942 0018 FEFFFFEB 		bl	__aeabi_fsub
 2943 001c 0090A0E1 		mov	r9, r0
 2944 0020 0400A0E1 		mov	r0, r4
 2945 0024 FEFFFFEB 		bl	__aeabi_f2d
 2946 0028 0060A0E1 		mov	r6, r0
 2947 002c 0170A0E1 		mov	r7, r1
 2948 0030 FEFFFFEB 		bl	cos
 2949 0034 00A0A0E1 		mov	r10, r0
 2950 0038 01B0A0E1 		mov	fp, r1
 2951 003c 040098E5 		ldr	r0, [r8, #4]	@ float
 2952 0040 0510A0E1 		mov	r1, r5
 2953 0044 FEFFFFEB 		bl	__aeabi_fsub
 2954 0048 FEFFFFEB 		bl	__aeabi_f2d
 2955 004c 0040A0E1 		mov	r4, r0
 2956 0050 0150A0E1 		mov	r5, r1
 2957 0054 0600A0E1 		mov	r0, r6
 2958 0058 0710A0E1 		mov	r1, r7
 2959 005c FEFFFFEB 		bl	sin
 2960 0060 0060A0E1 		mov	r6, r0
 2961 0064 0900A0E1 		mov	r0, r9
 2962 0068 0170A0E1 		mov	r7, r1
 2963 006c FEFFFFEB 		bl	__aeabi_f2d
 2964 0070 0A20A0E1 		mov	r2, r10
 2965 0074 0B30A0E1 		mov	r3, fp
 2966 0078 FEFFFFEB 		bl	__aeabi_dmul
 2967 007c 0620A0E1 		mov	r2, r6
 2968 0080 03008DE8 		stmia	sp, {r0-r1}
 2969 0084 0730A0E1 		mov	r3, r7
 2970 0088 0400A0E1 		mov	r0, r4
 2971 008c 0510A0E1 		mov	r1, r5
 2972 0090 FEFFFFEB 		bl	__aeabi_dmul
 2973 0094 0020A0E1 		mov	r2, r0
 2974 0098 0130A0E1 		mov	r3, r1
 2975 009c 03009DE8 		ldmia	sp, {r0-r1}
 2976 00a0 FEFFFFEB 		bl	__aeabi_dadd
 2977 00a4 FEFFFFEB 		bl	__aeabi_d2f
 2978 00a8 000088E5 		str	r0, [r8]	@ float
 2979 00ac 020189E2 		add	r0, r9, #-2147483648
 2980 00b0 FEFFFFEB 		bl	__aeabi_f2d
 2981 00b4 0620A0E1 		mov	r2, r6
 2982 00b8 0730A0E1 		mov	r3, r7
 2983 00bc FEFFFFEB 		bl	__aeabi_dmul
 2984 00c0 0A20A0E1 		mov	r2, r10
 2985 00c4 0060A0E1 		mov	r6, r0
 2986 00c8 0170A0E1 		mov	r7, r1
 2987 00cc 0B30A0E1 		mov	r3, fp
 2988 00d0 0400A0E1 		mov	r0, r4
 2989 00d4 0510A0E1 		mov	r1, r5
 2990 00d8 FEFFFFEB 		bl	__aeabi_dmul
 2991 00dc 0020A0E1 		mov	r2, r0
 2992 00e0 0130A0E1 		mov	r3, r1
 2993 00e4 0600A0E1 		mov	r0, r6
 2994 00e8 0710A0E1 		mov	r1, r7
 2995 00ec FEFFFFEB 		bl	__aeabi_dadd
 2996 00f0 FEFFFFEB 		bl	__aeabi_d2f
 2997 00f4 040088E5 		str	r0, [r8, #4]	@ float
 2998 00f8 0CD08DE2 		add	sp, sp, #12
 2999              		@ sp needed
 3000 00fc F04FBDE8 		ldmfd	sp!, {r4, r5, r6, r7, r8, r9, r10, fp, lr}
 3001 0100 1EFF2FE1 		bx	lr
 3003              		.section	.text.FlightLine,"ax",%progbits
 3004              		.align	2
 3005              		.global	FlightLine
 3007              	FlightLine:
 3008              		@ Function supports interworking.
 3009              		@ args = 4, pretend = 0, frame = 24
 3010              		@ frame_needed = 0, uses_anonymous_args = 0
 3011 0000 F04F2DE9 		stmfd	sp!, {r4, r5, r6, r7, r8, r9, r10, fp, lr}
 3012 0004 02C0A0E1 		mov	ip, r2
 3013 0008 6C259FE5 		ldr	r2, .L368
 3014 000c 24D04DE2 		sub	sp, sp, #36
 3015 0010 0C308DE5 		str	r3, [sp, #12]	@ float
 3016 0014 0030D2E5 		ldrb	r3, [r2]	@ zero_extendqisi2
 3017 0018 00A0A0E1 		mov	r10, r0
 3018 001c 030053E3 		cmp	r3, #3
 3019 0020 03F19F97 		ldrls	pc, [pc, r3, asl #2]
 3020 0024 500100EA 		b	.L364
 3021              	.L325:
 3022 0028 38000000 		.word	.L324
 3023 002c A8020000 		.word	.L326
 3024 0030 B8040000 		.word	.L327
 3025 0034 44050000 		.word	.L328
 3026              	.L324:
 3027 0038 0C90A0E3 		mov	r9, #12
 3028 003c 990101E0 		mul	r1, r9, r1
 3029 0040 900909E0 		mul	r9, r0, r9
 3030 0044 34659FE5 		ldr	r6, .L368+4
 3031 0048 010096E7 		ldr	r0, [r6, r1]	@ float
 3032 004c 014086E0 		add	r4, r6, r1
 3033 0050 091096E7 		ldr	r1, [r6, r9]	@ float
 3034 0054 08C08DE5 		str	ip, [sp, #8]
 3035 0058 FEFFFFEB 		bl	__aeabi_fsub
 3036 005c 09B086E0 		add	fp, r6, r9
 3037 0060 0070A0E1 		mov	r7, r0
 3038 0064 04109BE5 		ldr	r1, [fp, #4]	@ float
 3039 0068 040094E5 		ldr	r0, [r4, #4]	@ float
 3040 006c FEFFFFEB 		bl	__aeabi_fsub
 3041 0070 0C359FE5 		ldr	r3, .L368+8
 3042 0074 003093E5 		ldr	r3, [r3]	@ float
 3043 0078 18308DE5 		str	r3, [sp, #24]	@ float
 3044 007c 04359FE5 		ldr	r3, .L368+12
 3045 0080 003093E5 		ldr	r3, [r3]	@ float
 3046 0084 0080A0E1 		mov	r8, r0
 3047 0088 1C308DE5 		str	r3, [sp, #28]	@ float
 3048 008c FEFFFFEB 		bl	__aeabi_f2d
 3049 0090 0040A0E1 		mov	r4, r0
 3050 0094 0700A0E1 		mov	r0, r7
 3051 0098 0150A0E1 		mov	r5, r1
 3052 009c FEFFFFEB 		bl	__aeabi_f2d
 3053 00a0 0020A0E1 		mov	r2, r0
 3054 00a4 0130A0E1 		mov	r3, r1
 3055 00a8 0400A0E1 		mov	r0, r4
 3056 00ac 0510A0E1 		mov	r1, r5
 3057 00b0 FEFFFFEB 		bl	atan2
 3058 00b4 FEFFFFEB 		bl	__aeabi_d2f
 3059 00b8 092096E7 		ldr	r2, [r6, r9]	@ float
 3060 00bc 04309BE5 		ldr	r3, [fp, #4]	@ float
 3061 00c0 0010A0E1 		mov	r1, r0
 3062 00c4 18008DE2 		add	r0, sp, #24
 3063 00c8 FEFFFFEB 		bl	TranslateAndRotateFromWorld
 3064 00cc 1C009DE5 		ldr	r0, [sp, #28]	@ float
 3065 00d0 0010A0E3 		mov	r1, #0
 3066 00d4 FEFFFFEB 		bl	__aeabi_fcmpgt
 3067 00d8 08C09DE5 		ldr	ip, [sp, #8]
 3068 00dc 000050E3 		cmp	r0, #0
 3069 00e0 A4349FE5 		ldr	r3, .L368+16
 3070 00e4 02C18C12 		addne	ip, ip, #-2147483648
 3071 00e8 00C083E5 		str	ip, [r3]	@ float
 3072 00ec 0710A0E1 		mov	r1, r7
 3073 00f0 0700A0E1 		mov	r0, r7
 3074 00f4 FEFFFFEB 		bl	__aeabi_fmul
 3075 00f8 0810A0E1 		mov	r1, r8
 3076 00fc 0040A0E1 		mov	r4, r0
 3077 0100 0800A0E1 		mov	r0, r8
 3078 0104 FEFFFFEB 		bl	__aeabi_fmul
 3079 0108 0010A0E1 		mov	r1, r0
 3080 010c 0400A0E1 		mov	r0, r4
 3081 0110 FEFFFFEB 		bl	__aeabi_fadd
 3082 0114 FEFFFFEB 		bl	__aeabi_f2d
 3083 0118 FEFFFFEB 		bl	sqrt
 3084 011c FEFFFFEB 		bl	__aeabi_d2f
 3085 0120 0090A0E1 		mov	r9, r0
 3086 0124 0910A0E1 		mov	r1, r9
 3087 0128 0700A0E1 		mov	r0, r7
 3088 012c FEFFFFEB 		bl	__aeabi_fdiv
 3089 0130 0910A0E1 		mov	r1, r9
 3090 0134 0050A0E1 		mov	r5, r0
 3091 0138 0800A0E1 		mov	r0, r8
 3092 013c FEFFFFEB 		bl	__aeabi_fdiv
 3093 0140 0C109DE5 		ldr	r1, [sp, #12]	@ float
 3094 0144 0040A0E1 		mov	r4, r0
 3095 0148 020185E2 		add	r0, r5, #-2147483648
 3096 014c FEFFFFEB 		bl	__aeabi_fmul
 3097 0150 0C109DE5 		ldr	r1, [sp, #12]	@ float
 3098 0154 0070A0E1 		mov	r7, r0
 3099 0158 020184E2 		add	r0, r4, #-2147483648
 3100 015c FEFFFFEB 		bl	__aeabi_fmul
 3101 0160 48109DE5 		ldr	r1, [sp, #72]	@ float
 3102 0164 0060A0E1 		mov	r6, r0
 3103 0168 0900A0E1 		mov	r0, r9
 3104 016c FEFFFFEB 		bl	__aeabi_fadd
 3105 0170 14349FE5 		ldr	r3, .L368+16
 3106 0174 008093E5 		ldr	r8, [r3]	@ float
 3107 0178 00B0A0E1 		mov	fp, r0
 3108 017c 0810A0E1 		mov	r1, r8
 3109 0180 0400A0E1 		mov	r0, r4
 3110 0184 FEFFFFEB 		bl	__aeabi_fmul
 3111 0188 0010A0E1 		mov	r1, r0
 3112 018c 0700A0E1 		mov	r0, r7
 3113 0190 FEFFFFEB 		bl	__aeabi_fadd
 3114 0194 0810A0E1 		mov	r1, r8
 3115 0198 0090A0E1 		mov	r9, r0
 3116 019c 0500A0E1 		mov	r0, r5
 3117 01a0 FEFFFFEB 		bl	__aeabi_fmul
 3118 01a4 0010A0E1 		mov	r1, r0
 3119 01a8 0600A0E1 		mov	r0, r6
 3120 01ac FEFFFFEB 		bl	__aeabi_fsub
 3121 01b0 0910A0E1 		mov	r1, r9
 3122 01b4 0C008DE5 		str	r0, [sp, #12]	@ float
 3123 01b8 0700A0E1 		mov	r0, r7
 3124 01bc FEFFFFEB 		bl	__aeabi_fsub
 3125 01c0 FEFFFFEB 		bl	__aeabi_f2d
 3126 01c4 10008DE5 		str	r0, [sp, #16]
 3127 01c8 14108DE5 		str	r1, [sp, #20]
 3128 01cc 0C109DE5 		ldr	r1, [sp, #12]	@ float
 3129 01d0 0600A0E1 		mov	r0, r6
 3130 01d4 FEFFFFEB 		bl	__aeabi_fsub
 3131 01d8 FEFFFFEB 		bl	__aeabi_f2d
 3132 01dc 0020A0E1 		mov	r2, r0
 3133 01e0 0130A0E1 		mov	r3, r1
 3134 01e4 10108DE2 		add	r1, sp, #16
 3135 01e8 030091E8 		ldmia	r1, {r0-r1}
 3136 01ec FEFFFFEB 		bl	atan2
 3137 01f0 FEFFFFEB 		bl	__aeabi_d2f
 3138 01f4 94339FE5 		ldr	r3, .L368+20
 3139 01f8 000083E5 		str	r0, [r3]	@ float
 3140 01fc 0C30A0E3 		mov	r3, #12
 3141 0200 9A0303E0 		mul	r3, r10, r3
 3142 0204 74139FE5 		ldr	r1, .L368+4
 3143 0208 038091E7 		ldr	r8, [r1, r3]	@ float
 3144 020c 032081E0 		add	r2, r1, r3
 3145 0210 0700A0E1 		mov	r0, r7
 3146 0214 0810A0E1 		mov	r1, r8
 3147 0218 08208DE5 		str	r2, [sp, #8]
 3148 021c FEFFFFEB 		bl	__aeabi_fadd
 3149 0220 6CA39FE5 		ldr	r10, .L368+24
 3150 0224 08209DE5 		ldr	r2, [sp, #8]
 3151 0228 00008AE5 		str	r0, [r10]	@ float
 3152 022c 047092E5 		ldr	r7, [r2, #4]	@ float
 3153 0230 0600A0E1 		mov	r0, r6
 3154 0234 0710A0E1 		mov	r1, r7
 3155 0238 FEFFFFEB 		bl	__aeabi_fadd
 3156 023c 0B10A0E1 		mov	r1, fp
 3157 0240 04008AE5 		str	r0, [r10, #4]	@ float
 3158 0244 0500A0E1 		mov	r0, r5
 3159 0248 FEFFFFEB 		bl	__aeabi_fmul
 3160 024c 0810A0E1 		mov	r1, r8
 3161 0250 FEFFFFEB 		bl	__aeabi_fadd
 3162 0254 3C639FE5 		ldr	r6, .L368+28
 3163 0258 0B10A0E1 		mov	r1, fp
 3164 025c 000086E5 		str	r0, [r6]	@ float
 3165 0260 0400A0E1 		mov	r0, r4
 3166 0264 FEFFFFEB 		bl	__aeabi_fmul
 3167 0268 0710A0E1 		mov	r1, r7
 3168 026c FEFFFFEB 		bl	__aeabi_fadd
 3169 0270 0810A0E1 		mov	r1, r8
 3170 0274 040086E5 		str	r0, [r6, #4]	@ float
 3171 0278 0900A0E1 		mov	r0, r9
 3172 027c FEFFFFEB 		bl	__aeabi_fadd
 3173 0280 14439FE5 		ldr	r4, .L368+32
 3174 0284 0710A0E1 		mov	r1, r7
 3175 0288 000084E5 		str	r0, [r4]	@ float
 3176 028c 0C009DE5 		ldr	r0, [sp, #12]	@ float
 3177 0290 FEFFFFEB 		bl	__aeabi_fadd
 3178 0294 E0229FE5 		ldr	r2, .L368
 3179 0298 040084E5 		str	r0, [r4, #4]	@ float
 3180 029c 0140A0E3 		mov	r4, #1
 3181 02a0 0040C2E5 		strb	r4, [r2]
 3182 02a4 AF0000EA 		b	.L363
 3183              	.L326:
 3184 02a8 F0329FE5 		ldr	r3, .L368+36
 3185 02ac 0070A0E3 		mov	r7, #0
 3186 02b0 EC229FE5 		ldr	r2, .L368+40
 3187 02b4 0070C3E5 		strb	r7, [r3]
 3188 02b8 0030A0E3 		mov	r3, #0
 3189 02bc 003082E5 		str	r3, [r2]	@ float
 3190 02c0 E0229FE5 		ldr	r2, .L368+44
 3191 02c4 0310A0E3 		mov	r1, #3
 3192 02c8 0010C2E5 		strb	r1, [r2]
 3193 02cc AC229FE5 		ldr	r2, .L368+4
 3194 02d0 0C10A0E3 		mov	r1, #12
 3195 02d4 912022E0 		mla	r2, r1, r0, r2
 3196 02d8 081092E5 		ldr	r1, [r2, #8]	@ float
 3197 02dc C8229FE5 		ldr	r2, .L368+48
 3198 02e0 001082E5 		str	r1, [r2]	@ float
 3199 02e4 C4229FE5 		ldr	r2, .L368+52
 3200 02e8 003082E5 		str	r3, [r2]	@ float
 3201 02ec A8329FE5 		ldr	r3, .L368+32
 3202 02f0 000093E5 		ldr	r0, [r3]	@ float
 3203 02f4 041093E5 		ldr	r1, [r3, #4]	@ float
 3204 02f8 8C329FE5 		ldr	r3, .L368+16
 3205 02fc 002093E5 		ldr	r2, [r3]	@ float
 3206 0300 FEFFFFEB 		bl	nav_circle_XY
 3207 0304 A8329FE5 		ldr	r3, .L368+56
 3208 0308 000093E5 		ldr	r0, [r3]
 3209 030c 0201C0E3 		bic	r0, r0, #-2147483648
 3210 0310 FEFFFFEB 		bl	__aeabi_f2d
 3211 0314 9C229FE5 		ldr	r2, .L368+60
 3212 0318 9C329FE5 		ldr	r3, .L368+64
 3213 031c FEFFFFEB 		bl	__aeabi_ddiv
 3214 0320 98229FE5 		ldr	r2, .L368+68
 3215 0324 98329FE5 		ldr	r3, .L368+72
 3216 0328 FEFFFFEB 		bl	__aeabi_dcmpgt
 3217 032c 070050E1 		cmp	r0, r7
 3218 0330 8D00000A 		beq	.L364
 3219 0334 54329FE5 		ldr	r3, .L368+20
 3220 0338 000093E5 		ldr	r0, [r3]	@ float
 3221 033c FEFFFFEB 		bl	__aeabi_f2d
 3222 0340 80229FE5 		ldr	r2, .L368+76
 3223 0344 80329FE5 		ldr	r3, .L368+80
 3224 0348 FEFFFFEB 		bl	__aeabi_dmul
 3225 034c 7C329FE5 		ldr	r3, .L368+84
 3226 0350 0040A0E1 		mov	r4, r0
 3227 0354 000093E5 		ldr	r0, [r3]	@ float
 3228 0358 0150A0E1 		mov	r5, r1
 3229 035c FEFFFFEB 		bl	__aeabi_f2d
 3230 0360 0020A0E1 		mov	r2, r0
 3231 0364 0130A0E1 		mov	r3, r1
 3232 0368 48029FE5 		ldr	r0, .L368+60
 3233 036c 60129FE5 		ldr	r1, .L368+88
 3234 0370 FEFFFFEB 		bl	__aeabi_dsub
 3235 0374 4C229FE5 		ldr	r2, .L368+76
 3236 0378 4C329FE5 		ldr	r3, .L368+80
 3237 037c FEFFFFEB 		bl	__aeabi_dmul
 3238 0380 FEFFFFEB 		bl	__aeabi_d2f
 3239              	.L362:
 3240 0384 0010A0E3 		mov	r1, #0
 3241 0388 0060A0E1 		mov	r6, r0
 3242 038c FEFFFFEB 		bl	__aeabi_fcmplt
 3243 0390 000050E3 		cmp	r0, #0
 3244 0394 FF8007E2 		and	r8, r7, #255
 3245 0398 0F00000A 		beq	.L337
 3246 039c 017087E2 		add	r7, r7, #1
 3247 03a0 010C57E3 		cmp	r7, #256
 3248 03a4 0300000A 		beq	.L365
 3249 03a8 0600A0E1 		mov	r0, r6
 3250 03ac 24129FE5 		ldr	r1, .L368+92
 3251 03b0 FEFFFFEB 		bl	__aeabi_fadd
 3252 03b4 F2FFFFEA 		b	.L362
 3253              	.L365:
 3254 03b8 0080A0E3 		mov	r8, #0
 3255 03bc 060000EA 		b	.L337
 3256              	.L338:
 3257 03c0 018088E2 		add	r8, r8, #1
 3258 03c4 FF8018E2 		ands	r8, r8, #255
 3259 03c8 0800000A 		beq	.L341
 3260 03cc 0600A0E1 		mov	r0, r6
 3261 03d0 00129FE5 		ldr	r1, .L368+92
 3262 03d4 FEFFFFEB 		bl	__aeabi_fsub
 3263 03d8 0060A0E1 		mov	r6, r0
 3264              	.L337:
 3265 03dc 0600A0E1 		mov	r0, r6
 3266 03e0 F0119FE5 		ldr	r1, .L368+92
 3267 03e4 FEFFFFEB 		bl	__aeabi_fcmpge
 3268 03e8 000050E3 		cmp	r0, #0
 3269 03ec F3FFFF1A 		bne	.L338
 3270              	.L341:
 3271 03f0 0600A0E1 		mov	r0, r6
 3272 03f4 FEFFFFEB 		bl	__aeabi_f2d
 3273 03f8 0020A0E1 		mov	r2, r0
 3274 03fc 0130A0E1 		mov	r3, r1
 3275 0400 0400A0E1 		mov	r0, r4
 3276 0404 0510A0E1 		mov	r1, r5
 3277 0408 FEFFFFEB 		bl	__aeabi_dsub
 3278 040c FEFFFFEB 		bl	__aeabi_d2f
 3279 0410 0050A0E3 		mov	r5, #0
 3280 0414 0040A0E1 		mov	r4, r0
 3281 0418 060000EA 		b	.L339
 3282              	.L367:
 3283 041c 015085E2 		add	r5, r5, #1
 3284 0420 010C55E3 		cmp	r5, #256
 3285 0424 0A00000A 		beq	.L366
 3286 0428 0400A0E1 		mov	r0, r4
 3287 042c A4119FE5 		ldr	r1, .L368+92
 3288 0430 FEFFFFEB 		bl	__aeabi_fadd
 3289 0434 0040A0E1 		mov	r4, r0
 3290              	.L339:
 3291 0438 0400A0E1 		mov	r0, r4
 3292 043c 0010A0E3 		mov	r1, #0
 3293 0440 FEFFFFEB 		bl	__aeabi_fcmplt
 3294 0444 000050E3 		cmp	r0, #0
 3295 0448 FF6005E2 		and	r6, r5, #255
 3296 044c F2FFFF1A 		bne	.L367
 3297 0450 080000EA 		b	.L345
 3298              	.L366:
 3299 0454 0060A0E3 		mov	r6, #0
 3300 0458 060000EA 		b	.L345
 3301              	.L346:
 3302 045c 016086E2 		add	r6, r6, #1
 3303 0460 FF6016E2 		ands	r6, r6, #255
 3304 0464 0800000A 		beq	.L350
 3305 0468 0400A0E1 		mov	r0, r4
 3306 046c 64119FE5 		ldr	r1, .L368+92
 3307 0470 FEFFFFEB 		bl	__aeabi_fsub
 3308 0474 0040A0E1 		mov	r4, r0
 3309              	.L345:
 3310 0478 0400A0E1 		mov	r0, r4
 3311 047c 54119FE5 		ldr	r1, .L368+92
 3312 0480 FEFFFFEB 		bl	__aeabi_fcmpge
 3313 0484 000050E3 		cmp	r0, #0
 3314 0488 F3FFFF1A 		bne	.L346
 3315              	.L350:
 3316 048c 0400A0E1 		mov	r0, r4
 3317 0490 44119FE5 		ldr	r1, .L368+96
 3318 0494 FEFFFFEB 		bl	__aeabi_fcmpgt
 3319 0498 000050E3 		cmp	r0, #0
 3320 049c 2E00001A 		bne	.L347
 3321 04a0 0400A0E1 		mov	r0, r4
 3322 04a4 34119FE5 		ldr	r1, .L368+100
 3323 04a8 FEFFFFEB 		bl	__aeabi_fcmplt
 3324 04ac 000050E3 		cmp	r0, #0
 3325 04b0 2900001A 		bne	.L347
 3326 04b4 2C0000EA 		b	.L364
 3327              	.L327:
 3328 04b8 E0309FE5 		ldr	r3, .L368+36
 3329 04bc 0020A0E3 		mov	r2, #0
 3330 04c0 0020C3E5 		strb	r2, [r3]
 3331 04c4 D8309FE5 		ldr	r3, .L368+40
 3332 04c8 0060A0E3 		mov	r6, #0
 3333 04cc 006083E5 		str	r6, [r3]	@ float
 3334 04d0 D0309FE5 		ldr	r3, .L368+44
 3335 04d4 0370A0E3 		mov	r7, #3
 3336 04d8 0070C3E5 		strb	r7, [r3]
 3337 04dc 9C309FE5 		ldr	r3, .L368+4
 3338 04e0 0C20A0E3 		mov	r2, #12
 3339 04e4 923023E0 		mla	r3, r2, r0, r3
 3340 04e8 082093E5 		ldr	r2, [r3, #8]	@ float
 3341 04ec B8309FE5 		ldr	r3, .L368+48
 3342 04f0 9C409FE5 		ldr	r4, .L368+24
 3343 04f4 002083E5 		str	r2, [r3]	@ float
 3344 04f8 98509FE5 		ldr	r5, .L368+28
 3345 04fc AC309FE5 		ldr	r3, .L368+52
 3346 0500 000094E5 		ldr	r0, [r4]	@ float
 3347 0504 006083E5 		str	r6, [r3]	@ float
 3348 0508 041094E5 		ldr	r1, [r4, #4]	@ float
 3349 050c 002095E5 		ldr	r2, [r5]	@ float
 3350 0510 043095E5 		ldr	r3, [r5, #4]	@ float
 3351 0514 FEFFFFEB 		bl	nav_route_xy
 3352 0518 00608DE5 		str	r6, [sp]	@ float
 3353 051c 043094E5 		ldr	r3, [r4, #4]	@ float
 3354 0520 000095E5 		ldr	r0, [r5]	@ float
 3355 0524 041095E5 		ldr	r1, [r5, #4]	@ float
 3356 0528 002094E5 		ldr	r2, [r4]	@ float
 3357 052c FEFFFFEB 		bl	nav_approaching_xy
 3358 0530 000050E3 		cmp	r0, #0
 3359 0534 40309F15 		ldrne	r3, .L368
 3360 0538 0070C315 		strneb	r7, [r3]
 3361 053c 0A00000A 		beq	.L364
 3362 0540 080000EA 		b	.L363
 3363              	.L328:
 3364 0544 30109FE5 		ldr	r1, .L368
 3365 0548 0040A0E3 		mov	r4, #0
 3366 054c 0040C1E5 		strb	r4, [r1]
 3367 0550 FEFFFFEB 		bl	nav_init_stage
 3368 0554 0400A0E1 		mov	r0, r4
 3369 0558 040000EA 		b	.L360
 3370              	.L347:
 3371 055c 18209FE5 		ldr	r2, .L368
 3372 0560 0230A0E3 		mov	r3, #2
 3373 0564 0030C2E5 		strb	r3, [r2]
 3374              	.L363:
 3375 0568 FEFFFFEB 		bl	nav_init_stage
 3376              	.L364:
 3377 056c 0100A0E3 		mov	r0, #1
 3378              	.L360:
 3379 0570 24D08DE2 		add	sp, sp, #36
 3380              		@ sp needed
 3381 0574 F04FBDE8 		ldmfd	sp!, {r4, r5, r6, r7, r8, r9, r10, fp, lr}
 3382 0578 1EFF2FE1 		bx	lr
 3383              	.L369:
 3384              		.align	2
 3385              	.L368:
 3386 057c 00000000 		.word	.LANCHOR37
 3387 0580 00000000 		.word	waypoints
 3388 0584 00000000 		.word	estimator_x
 3389 0588 00000000 		.word	estimator_y
 3390 058c 00000000 		.word	.LANCHOR38
 3391 0590 00000000 		.word	.LANCHOR39
 3392 0594 00000000 		.word	.LANCHOR40
 3393 0598 00000000 		.word	.LANCHOR41
 3394 059c 00000000 		.word	.LANCHOR42
 3395 05a0 00000000 		.word	v_ctl_climb_mode
 3396 05a4 00000000 		.word	nav_pitch
 3397 05a8 00000000 		.word	v_ctl_mode
 3398 05ac 00000000 		.word	nav_altitude
 3399 05b0 00000000 		.word	v_ctl_altitude_pre_climb
 3400 05b4 00000000 		.word	nav_circle_radians
 3401 05b8 182D4454 		.word	1413754136
 3402 05bc FB211940 		.word	1075388923
 3403 05c0 9A999999 		.word	-1717986918
 3404 05c4 9999C93F 		.word	1070176665
 3405 05c8 F8C1631A 		.word	442745336
 3406 05cc DCA54C40 		.word	1078765020
 3407 05d0 00000000 		.word	nav_circle_trigo_qdr
 3408 05d4 FB21F93F 		.word	1073291771
 3409 05d8 0000B443 		.word	1135869952
 3410 05dc 0000AF43 		.word	1135542272
 3411 05e0 00002041 		.word	1092616192
 3413              		.section	.text.FlightLineBlock,"ax",%progbits
 3414              		.align	2
 3415              		.global	FlightLineBlock
 3417              	FlightLineBlock:
 3418              		@ Function supports interworking.
 3419              		@ args = 4, pretend = 0, frame = 0
 3420              		@ frame_needed = 0, uses_anonymous_args = 0
 3421 0000 F7402DE9 		stmfd	sp!, {r0, r1, r2, r4, r5, r6, r7, lr}
 3422 0004 B4409FE5 		ldr	r4, .L376
 3423 0008 010050E1 		cmp	r0, r1
 3424 000c 0050A0E1 		mov	r5, r0
 3425 0010 0160A0E1 		mov	r6, r1
 3426 0014 20C09DE5 		ldr	ip, [sp, #32]	@ float
 3427 0018 A4709FE5 		ldr	r7, .L376+4
 3428 001c 0000D4E5 		ldrb	r0, [r4]	@ zero_extendqisi2
 3429 0020 1200002A 		bcs	.L371
 3430 0024 000085E0 		add	r0, r5, r0
 3431 0028 FF0000E2 		and	r0, r0, #255
 3432 002c 011080E2 		add	r1, r0, #1
 3433 0030 FF1001E2 		and	r1, r1, #255
 3434 0034 00C08DE5 		str	ip, [sp]	@ float
 3435 0038 FEFFFFEB 		bl	FlightLine
 3436 003c 0000D7E5 		ldrb	r0, [r7]	@ zero_extendqisi2
 3437 0040 000050E3 		cmp	r0, #0
 3438 0044 0100000A 		beq	.L372
 3439              	.L374:
 3440 0048 0100A0E3 		mov	r0, #1
 3441 004c 180000EA 		b	.L373
 3442              	.L372:
 3443 0050 0030D4E5 		ldrb	r3, [r4]	@ zero_extendqisi2
 3444 0054 013083E2 		add	r3, r3, #1
 3445 0058 FF3003E2 		and	r3, r3, #255
 3446 005c 035085E0 		add	r5, r5, r3
 3447 0060 060055E1 		cmp	r5, r6
 3448 0064 0030C4E5 		strb	r3, [r4]
 3449 0068 F6FFFFBA 		blt	.L374
 3450 006c 0F0000EA 		b	.L375
 3451              	.L371:
 3452 0070 050060E0 		rsb	r0, r0, r5
 3453 0074 FF0000E2 		and	r0, r0, #255
 3454 0078 011040E2 		sub	r1, r0, #1
 3455 007c FF1001E2 		and	r1, r1, #255
 3456 0080 00C08DE5 		str	ip, [sp]	@ float
 3457 0084 FEFFFFEB 		bl	FlightLine
 3458 0088 0000D7E5 		ldrb	r0, [r7]	@ zero_extendqisi2
 3459 008c 000050E3 		cmp	r0, #0
 3460 0090 ECFFFF1A 		bne	.L374
 3461 0094 0030D4E5 		ldrb	r3, [r4]	@ zero_extendqisi2
 3462 0098 013083E2 		add	r3, r3, #1
 3463 009c FF3003E2 		and	r3, r3, #255
 3464 00a0 055063E0 		rsb	r5, r3, r5
 3465 00a4 060055E1 		cmp	r5, r6
 3466 00a8 0030C4E5 		strb	r3, [r4]
 3467 00ac E5FFFFCA 		bgt	.L374
 3468              	.L375:
 3469 00b0 0000C4E5 		strb	r0, [r4]
 3470              	.L373:
 3471 00b4 0CD08DE2 		add	sp, sp, #12
 3472              		@ sp needed
 3473 00b8 F040BDE8 		ldmfd	sp!, {r4, r5, r6, r7, lr}
 3474 00bc 1EFF2FE1 		bx	lr
 3475              	.L377:
 3476              		.align	2
 3477              	.L376:
 3478 00c0 00000000 		.word	.LANCHOR43
 3479 00c4 00000000 		.word	.LANCHOR37
 3481              		.global	__aeabi_fcmple
 3482              		.global	__aeabi_fcmpeq
 3483              		.section	.text.InitializePolygonSurvey,"ax",%progbits
 3484              		.align	2
 3485              		.global	InitializePolygonSurvey
 3487              	InitializePolygonSurvey:
 3488              		@ Function supports interworking.
 3489              		@ args = 0, pretend = 0, frame = 104
 3490              		@ frame_needed = 0, uses_anonymous_args = 0
 3491 0000 F04F2DE9 		stmfd	sp!, {r4, r5, r6, r7, r8, r9, r10, fp, lr}
 3492 0004 E4679FE5 		ldr	r6, .L479
 3493 0008 0370A0E1 		mov	r7, r3
 3494 000c 0030A0E3 		mov	r3, #0
 3495 0010 6CD04DE2 		sub	sp, sp, #108
 3496 0014 0090A0E1 		mov	r9, r0
 3497 0018 003086E5 		str	r3, [r6]	@ float
 3498 001c 043086E5 		str	r3, [r6, #4]	@ float
 3499 0020 0700A0E1 		mov	r0, r7
 3500 0024 0140A0E1 		mov	r4, r1
 3501 0028 14208DE5 		str	r2, [sp, #20]	@ float
 3502 002c FEFFFFEB 		bl	__aeabi_f2d
 3503 0030 BC379FE5 		ldr	r3, .L479+4
 3504 0034 BC279FE5 		ldr	r2, .L479+8
 3505 0038 FEFFFFEB 		bl	__aeabi_dmul
 3506 003c FEFFFFEB 		bl	__aeabi_d2f
 3507 0040 B4379FE5 		ldr	r3, .L479+12
 3508 0044 000083E5 		str	r0, [r3]	@ float
 3509 0048 B0379FE5 		ldr	r3, .L479+16
 3510 004c 0050A0E3 		mov	r5, #0
 3511 0050 B050C3E1 		strh	r5, [r3]	@ movhi
 3512 0054 A8379FE5 		ldr	r3, .L479+20
 3513 0058 B050C3E1 		strh	r5, [r3]	@ movhi
 3514 005c A4379FE5 		ldr	r3, .L479+24
 3515 0060 0090C3E5 		strb	r9, [r3]
 3516 0064 A0379FE5 		ldr	r3, .L479+28
 3517 0068 0040C3E5 		strb	r4, [r3]
 3518 006c 9C379FE5 		ldr	r3, .L479+32
 3519 0070 050054E1 		cmp	r4, r5
 3520 0074 0080A0E1 		mov	r8, r0
 3521 0078 0050C3E5 		strb	r5, [r3]
 3522 007c 0100A003 		moveq	r0, #1
 3523 0080 D701000A 		beq	.L379
 3524 0084 0A0054E3 		cmp	r4, #10
 3525 0088 0500A081 		movhi	r0, r5
 3526 008c D401008A 		bhi	.L379
 3527 0090 0700A0E1 		mov	r0, r7
 3528 0094 78179FE5 		ldr	r1, .L479+36
 3529 0098 FEFFFFEB 		bl	__aeabi_fcmpge
 3530 009c 000050E3 		cmp	r0, #0
 3531 00a0 CF01000A 		beq	.L379
 3532 00a4 0700A0E1 		mov	r0, r7
 3533 00a8 68179FE5 		ldr	r1, .L479+40
 3534 00ac FEFFFFEB 		bl	__aeabi_fcmple
 3535 00b0 000050E3 		cmp	r0, #0
 3536 00b4 CA01000A 		beq	.L379
 3537 00b8 5C379FE5 		ldr	r3, .L479+44
 3538 00bc 0C20A0E3 		mov	r2, #12
 3539 00c0 923929E0 		mla	r9, r2, r9, r3
 3540 00c4 0530A0E1 		mov	r3, r5
 3541              	.L382:
 3542 00c8 040053E1 		cmp	r3, r4
 3543 00cc 0A0000AA 		bge	.L474
 3544 00d0 0C20A0E3 		mov	r2, #12
 3545 00d4 920301E0 		mul	r1, r2, r3
 3546 00d8 0920A0E1 		mov	r2, r9
 3547 00dc 0110B2E7 		ldr	r1, [r2, r1]!	@ float
 3548 00e0 18008DE2 		add	r0, sp, #24
 3549 00e4 042092E5 		ldr	r2, [r2, #4]	@ float
 3550 00e8 831180E7 		str	r1, [r0, r3, asl #3]	@ float
 3551 00ec 831180E0 		add	r1, r0, r3, asl #3
 3552 00f0 042081E5 		str	r2, [r1, #4]	@ float
 3553 00f4 013083E2 		add	r3, r3, #1
 3554 00f8 F2FFFFEA 		b	.L382
 3555              	.L474:
 3556 00fc 0050A0E3 		mov	r5, #0
 3557              	.L385:
 3558 0100 18108DE2 		add	r1, sp, #24
 3559 0104 0020A0E3 		mov	r2, #0
 3560 0108 850181E0 		add	r0, r1, r5, asl #3
 3561 010c 0230A0E1 		mov	r3, r2
 3562 0110 0810A0E1 		mov	r1, r8
 3563 0114 015085E2 		add	r5, r5, #1
 3564 0118 FEFFFFEB 		bl	TranslateAndRotateFromWorld
 3565 011c 040055E1 		cmp	r5, r4
 3566 0120 F6FFFFBA 		blt	.L385
 3567 0124 1C809DE5 		ldr	r8, [sp, #28]	@ float
 3568 0128 18709DE5 		ldr	r7, [sp, #24]	@ float
 3569 012c 0150A0E3 		mov	r5, #1
 3570              	.L386:
 3571 0130 040055E1 		cmp	r5, r4
 3572 0134 110000AA 		bge	.L475
 3573 0138 8591A0E1 		mov	r9, r5, asl #3
 3574 013c 18208DE2 		add	r2, sp, #24
 3575 0140 093082E0 		add	r3, r2, r9
 3576 0144 04A093E5 		ldr	r10, [r3, #4]	@ float
 3577 0148 0810A0E1 		mov	r1, r8
 3578 014c 0A00A0E1 		mov	r0, r10
 3579 0150 FEFFFFEB 		bl	__aeabi_fcmplt
 3580 0154 18308DE2 		add	r3, sp, #24
 3581 0158 099093E7 		ldr	r9, [r3, r9]	@ float
 3582 015c 000050E3 		cmp	r0, #0
 3583 0160 0710A0E1 		mov	r1, r7
 3584 0164 0900A0E1 		mov	r0, r9
 3585 0168 0A80A011 		movne	r8, r10
 3586 016c FEFFFFEB 		bl	__aeabi_fcmplt
 3587 0170 000050E3 		cmp	r0, #0
 3588 0174 0970A011 		movne	r7, r9
 3589 0178 015085E2 		add	r5, r5, #1
 3590 017c EBFFFFEA 		b	.L386
 3591              	.L475:
 3592 0180 048086E5 		str	r8, [r6, #4]	@ float
 3593 0184 007086E5 		str	r7, [r6]	@ float
 3594 0188 0050A0E3 		mov	r5, #0
 3595              	.L393:
 3596 018c 18108DE2 		add	r1, sp, #24
 3597 0190 850181E0 		add	r0, r1, r5, asl #3
 3598 0194 002096E5 		ldr	r2, [r6]	@ float
 3599 0198 0010A0E3 		mov	r1, #0
 3600 019c 043096E5 		ldr	r3, [r6, #4]	@ float
 3601 01a0 015085E2 		add	r5, r5, #1
 3602 01a4 FEFFFFEB 		bl	TranslateAndRotateFromWorld
 3603 01a8 040055E1 		cmp	r5, r4
 3604 01ac F6FFFFBA 		blt	.L393
 3605 01b0 68369FE5 		ldr	r3, .L479+48
 3606 01b4 1C909DE5 		ldr	r9, [sp, #28]	@ float
 3607 01b8 18809DE5 		ldr	r8, [sp, #24]	@ float
 3608 01bc 049083E5 		str	r9, [r3, #4]	@ float
 3609 01c0 008083E5 		str	r8, [r3]	@ float
 3610 01c4 0960A0E1 		mov	r6, r9
 3611 01c8 0150A0E3 		mov	r5, #1
 3612              	.L394:
 3613 01cc 040055E1 		cmp	r5, r4
 3614 01d0 090000AA 		bge	.L476
 3615 01d4 18208DE2 		add	r2, sp, #24
 3616 01d8 853182E0 		add	r3, r2, r5, asl #3
 3617 01dc 047093E5 		ldr	r7, [r3, #4]	@ float
 3618 01e0 0610A0E1 		mov	r1, r6
 3619 01e4 0700A0E1 		mov	r0, r7
 3620 01e8 FEFFFFEB 		bl	__aeabi_fcmpgt
 3621 01ec 000050E3 		cmp	r0, #0
 3622 01f0 0760A011 		movne	r6, r7
 3623 01f4 015085E2 		add	r5, r5, #1
 3624 01f8 F3FFFFEA 		b	.L394
 3625              	.L476:
 3626 01fc 20369FE5 		ldr	r3, .L479+52
 3627 0200 0050A0E3 		mov	r5, #0
 3628 0204 006083E5 		str	r6, [r3]	@ float
 3629 0208 0570A0E1 		mov	r7, r5
 3630 020c 14608DE2 		add	r6, sp, #20
 3631              	.L405:
 3632 0210 000057E3 		cmp	r7, #0
 3633 0214 1800001A 		bne	.L398
 3634 0218 68308DE2 		add	r3, sp, #104
 3635 021c 01B044E2 		sub	fp, r4, #1
 3636 0220 8BB183E0 		add	fp, r3, fp, asl #3
 3637 0224 50A01BE5 		ldr	r10, [fp, #-80]	@ float
 3638 0228 0810A0E1 		mov	r1, r8
 3639 022c 0A00A0E1 		mov	r0, r10
 3640 0230 FEFFFFEB 		bl	__aeabi_fcmpeq
 3641 0234 000050E3 		cmp	r0, #0
 3642 0238 E8359F15 		ldrne	r3, .L479+56
 3643 023c E8059F15 		ldrne	r0, .L479+60
 3644 0240 00308015 		strne	r3, [r0]	@ float
 3645 0244 2400001A 		bne	.L401
 3646              	.L463:
 3647 0248 4C001BE5 		ldr	r0, [fp, #-76]	@ float
 3648 024c 0910A0E1 		mov	r1, r9
 3649 0250 FEFFFFEB 		bl	__aeabi_fsub
 3650 0254 0810A0E1 		mov	r1, r8
 3651 0258 00B0A0E1 		mov	fp, r0
 3652 025c 0A00A0E1 		mov	r0, r10
 3653 0260 FEFFFFEB 		bl	__aeabi_fsub
 3654 0264 0010A0E1 		mov	r1, r0
 3655 0268 0B00A0E1 		mov	r0, fp
 3656 026c FEFFFFEB 		bl	__aeabi_fdiv
 3657 0270 B4159FE5 		ldr	r1, .L479+60
 3658 0274 000081E5 		str	r0, [r1]	@ float
 3659 0278 170000EA 		b	.L401
 3660              	.L398:
 3661 027c 04B096E5 		ldr	fp, [r6, #4]	@ float
 3662 0280 04A016E5 		ldr	r10, [r6, #-4]	@ float
 3663 0284 0B00A0E1 		mov	r0, fp
 3664 0288 0A10A0E1 		mov	r1, r10
 3665 028c FEFFFFEB 		bl	__aeabi_fcmpeq
 3666 0290 000050E3 		cmp	r0, #0
 3667 0294 8C359F15 		ldrne	r3, .L479+56
 3668 0298 8C259F15 		ldrne	r2, .L479+60
 3669 029c 05308217 		strne	r3, [r2, r5]	@ float
 3670 02a0 0D00001A 		bne	.L401
 3671              	.L464:
 3672 02a4 001096E5 		ldr	r1, [r6]	@ float
 3673 02a8 080096E5 		ldr	r0, [r6, #8]	@ float
 3674 02ac FEFFFFEB 		bl	__aeabi_fsub
 3675 02b0 0A10A0E1 		mov	r1, r10
 3676 02b4 0030A0E1 		mov	r3, r0
 3677 02b8 0B00A0E1 		mov	r0, fp
 3678 02bc 04308DE5 		str	r3, [sp, #4]
 3679 02c0 FEFFFFEB 		bl	__aeabi_fsub
 3680 02c4 04309DE5 		ldr	r3, [sp, #4]
 3681 02c8 0010A0E1 		mov	r1, r0
 3682 02cc 0300A0E1 		mov	r0, r3
 3683 02d0 FEFFFFEB 		bl	__aeabi_fdiv
 3684 02d4 50359FE5 		ldr	r3, .L479+60
 3685 02d8 050083E7 		str	r0, [r3, r5]	@ float
 3686              	.L401:
 3687 02dc 48A59FE5 		ldr	r10, .L479+60
 3688 02e0 040096E5 		ldr	r0, [r6, #4]	@ float
 3689 02e4 05109AE7 		ldr	r1, [r10, r5]	@ float
 3690 02e8 FEFFFFEB 		bl	__aeabi_fmul
 3691 02ec 0010A0E1 		mov	r1, r0
 3692 02f0 0800B6E5 		ldr	r0, [r6, #8]!	@ float
 3693 02f4 FEFFFFEB 		bl	__aeabi_fsub
 3694 02f8 017087E2 		add	r7, r7, #1
 3695 02fc 05B08AE0 		add	fp, r10, r5
 3696 0300 040057E1 		cmp	r7, r4
 3697 0304 04008BE5 		str	r0, [fp, #4]	@ float
 3698 0308 0C5085E2 		add	r5, r5, #12
 3699 030c BFFFFFBA 		blt	.L405
 3700 0310 04509AE5 		ldr	r5, [r10, #4]	@ float
 3701 0314 10009AE5 		ldr	r0, [r10, #16]	@ float
 3702 0318 0510A0E1 		mov	r1, r5
 3703 031c FEFFFFEB 		bl	__aeabi_fsub
 3704 0320 00709AE5 		ldr	r7, [r10]	@ float
 3705 0324 0060A0E1 		mov	r6, r0
 3706 0328 0C109AE5 		ldr	r1, [r10, #12]	@ float
 3707 032c 0700A0E1 		mov	r0, r7
 3708 0330 FEFFFFEB 		bl	__aeabi_fsub
 3709 0334 0010A0E1 		mov	r1, r0
 3710 0338 0600A0E1 		mov	r0, r6
 3711 033c FEFFFFEB 		bl	__aeabi_fdiv
 3712 0340 0010A0E1 		mov	r1, r0
 3713 0344 0700A0E1 		mov	r0, r7
 3714 0348 FEFFFFEB 		bl	__aeabi_fmul
 3715 034c 0510A0E1 		mov	r1, r5
 3716 0350 FEFFFFEB 		bl	__aeabi_fadd
 3717 0354 016044E2 		sub	r6, r4, #1
 3718 0358 0C30A0E3 		mov	r3, #12
 3719 035c 930602E0 		mul	r2, r3, r6
 3720 0360 02308AE0 		add	r3, r10, r2
 3721 0364 0080A0E1 		mov	r8, r0
 3722 0368 0510A0E1 		mov	r1, r5
 3723 036c 040093E5 		ldr	r0, [r3, #4]	@ float
 3724 0370 10308DE5 		str	r3, [sp, #16]
 3725 0374 0C208DE5 		str	r2, [sp, #12]
 3726 0378 FEFFFFEB 		bl	__aeabi_fsub
 3727 037c 0C209DE5 		ldr	r2, [sp, #12]
 3728 0380 0090A0E1 		mov	r9, r0
 3729 0384 02109AE7 		ldr	r1, [r10, r2]	@ float
 3730 0388 0700A0E1 		mov	r0, r7
 3731 038c FEFFFFEB 		bl	__aeabi_fsub
 3732 0390 0010A0E1 		mov	r1, r0
 3733 0394 0900A0E1 		mov	r0, r9
 3734 0398 FEFFFFEB 		bl	__aeabi_fdiv
 3735 039c 0010A0E1 		mov	r1, r0
 3736 03a0 0700A0E1 		mov	r0, r7
 3737 03a4 FEFFFFEB 		bl	__aeabi_fmul
 3738 03a8 0510A0E1 		mov	r1, r5
 3739 03ac FEFFFFEB 		bl	__aeabi_fadd
 3740 03b0 0050A0E1 		mov	r5, r0
 3741 03b4 0510A0E1 		mov	r1, r5
 3742 03b8 0800A0E1 		mov	r0, r8
 3743 03bc FEFFFFEB 		bl	__aeabi_fcmpgt
 3744 03c0 68249FE5 		ldr	r2, .L479+64
 3745 03c4 68349FE5 		ldr	r3, .L479+68
 3746 03c8 000050E3 		cmp	r0, #0
 3747 03cc 64749FE5 		ldr	r7, .L479+72
 3748 03d0 00808215 		strne	r8, [r2]	@ float
 3749 03d4 00808305 		streq	r8, [r3]	@ float
 3750 03d8 00508315 		strne	r5, [r3]	@ float
 3751 03dc 00508205 		streq	r5, [r2]	@ float
 3752 03e0 04B087E2 		add	fp, r7, #4
 3753 03e4 0150A0E3 		mov	r5, #1
 3754              	.L409:
 3755 03e8 060055E1 		cmp	r5, r6
 3756 03ec 360000AA 		bge	.L477
 3757 03f0 0C801BE5 		ldr	r8, [fp, #-12]	@ float
 3758 03f4 040097E5 		ldr	r0, [r7, #4]	@ float
 3759 03f8 0810A0E1 		mov	r1, r8
 3760 03fc FEFFFFEB 		bl	__aeabi_fsub
 3761 0400 0C9017E5 		ldr	r9, [r7, #-12]	@ float
 3762 0404 04101BE5 		ldr	r1, [fp, #-4]	@ float
 3763 0408 0030A0E1 		mov	r3, r0
 3764 040c 0900A0E1 		mov	r0, r9
 3765 0410 04308DE5 		str	r3, [sp, #4]
 3766 0414 FEFFFFEB 		bl	__aeabi_fsub
 3767 0418 04309DE5 		ldr	r3, [sp, #4]
 3768 041c 0010A0E1 		mov	r1, r0
 3769 0420 0300A0E1 		mov	r0, r3
 3770 0424 FEFFFFEB 		bl	__aeabi_fdiv
 3771 0428 0010A0E1 		mov	r1, r0
 3772 042c 0900A0E1 		mov	r0, r9
 3773 0430 FEFFFFEB 		bl	__aeabi_fmul
 3774 0434 0810A0E1 		mov	r1, r8
 3775 0438 FEFFFFEB 		bl	__aeabi_fadd
 3776 043c 0810A0E1 		mov	r1, r8
 3777 0440 0030A0E1 		mov	r3, r0
 3778 0444 18001BE5 		ldr	r0, [fp, #-24]	@ float
 3779 0448 04308DE5 		str	r3, [sp, #4]
 3780 044c FEFFFFEB 		bl	__aeabi_fsub
 3781 0450 181017E5 		ldr	r1, [r7, #-24]	@ float
 3782 0454 0020A0E1 		mov	r2, r0
 3783 0458 0900A0E1 		mov	r0, r9
 3784 045c 08208DE5 		str	r2, [sp, #8]
 3785 0460 FEFFFFEB 		bl	__aeabi_fsub
 3786 0464 08209DE5 		ldr	r2, [sp, #8]
 3787 0468 0010A0E1 		mov	r1, r0
 3788 046c 0200A0E1 		mov	r0, r2
 3789 0470 FEFFFFEB 		bl	__aeabi_fdiv
 3790 0474 0010A0E1 		mov	r1, r0
 3791 0478 0900A0E1 		mov	r0, r9
 3792 047c FEFFFFEB 		bl	__aeabi_fmul
 3793 0480 0810A0E1 		mov	r1, r8
 3794 0484 FEFFFFEB 		bl	__aeabi_fadd
 3795 0488 04309DE5 		ldr	r3, [sp, #4]
 3796 048c 0080A0E1 		mov	r8, r0
 3797 0490 0810A0E1 		mov	r1, r8
 3798 0494 0300A0E1 		mov	r0, r3
 3799 0498 FEFFFFEB 		bl	__aeabi_fcmpgt
 3800 049c 04309DE5 		ldr	r3, [sp, #4]
 3801 04a0 88139FE5 		ldr	r1, .L479+64
 3802 04a4 88239FE5 		ldr	r2, .L479+68
 3803 04a8 000050E3 		cmp	r0, #0
 3804 04ac 05318117 		strne	r3, [r1, r5, asl #2]	@ float
 3805 04b0 05818217 		strne	r8, [r2, r5, asl #2]	@ float
 3806 04b4 05818107 		streq	r8, [r1, r5, asl #2]	@ float
 3807 04b8 05318207 		streq	r3, [r2, r5, asl #2]	@ float
 3808 04bc 0C7087E2 		add	r7, r7, #12
 3809 04c0 015085E2 		add	r5, r5, #1
 3810 04c4 0CB08BE2 		add	fp, fp, #12
 3811 04c8 C6FFFFEA 		b	.L409
 3812              	.L477:
 3813 04cc 0C309DE5 		ldr	r3, [sp, #12]
 3814 04d0 10209DE5 		ldr	r2, [sp, #16]
 3815 04d4 03709AE7 		ldr	r7, [r10, r3]	@ float
 3816 04d8 045092E5 		ldr	r5, [r2, #4]	@ float
 3817 04dc 48339FE5 		ldr	r3, .L479+60
 3818 04e0 0510A0E1 		mov	r1, r5
 3819 04e4 040093E5 		ldr	r0, [r3, #4]	@ float
 3820 04e8 FEFFFFEB 		bl	__aeabi_fsub
 3821 04ec 38239FE5 		ldr	r2, .L479+60
 3822 04f0 0080A0E1 		mov	r8, r0
 3823 04f4 001092E5 		ldr	r1, [r2]	@ float
 3824 04f8 0700A0E1 		mov	r0, r7
 3825 04fc FEFFFFEB 		bl	__aeabi_fsub
 3826 0500 0010A0E1 		mov	r1, r0
 3827 0504 0800A0E1 		mov	r0, r8
 3828 0508 FEFFFFEB 		bl	__aeabi_fdiv
 3829 050c 0010A0E1 		mov	r1, r0
 3830 0510 0700A0E1 		mov	r0, r7
 3831 0514 FEFFFFEB 		bl	__aeabi_fmul
 3832 0518 0510A0E1 		mov	r1, r5
 3833 051c FEFFFFEB 		bl	__aeabi_fadd
 3834 0520 024044E2 		sub	r4, r4, #2
 3835 0524 0C30A0E3 		mov	r3, #12
 3836 0528 930404E0 		mul	r4, r3, r4
 3837 052c 0080A0E1 		mov	r8, r0
 3838 0530 F4029FE5 		ldr	r0, .L479+60
 3839 0534 043080E0 		add	r3, r0, r4
 3840 0538 040093E5 		ldr	r0, [r3, #4]	@ float
 3841 053c 0510A0E1 		mov	r1, r5
 3842 0540 FEFFFFEB 		bl	__aeabi_fsub
 3843 0544 E0229FE5 		ldr	r2, .L479+60
 3844 0548 0090A0E1 		mov	r9, r0
 3845 054c 041092E7 		ldr	r1, [r2, r4]	@ float
 3846 0550 0700A0E1 		mov	r0, r7
 3847 0554 FEFFFFEB 		bl	__aeabi_fsub
 3848 0558 0010A0E1 		mov	r1, r0
 3849 055c 0900A0E1 		mov	r0, r9
 3850 0560 FEFFFFEB 		bl	__aeabi_fdiv
 3851 0564 0010A0E1 		mov	r1, r0
 3852 0568 0700A0E1 		mov	r0, r7
 3853 056c FEFFFFEB 		bl	__aeabi_fmul
 3854 0570 0510A0E1 		mov	r1, r5
 3855 0574 FEFFFFEB 		bl	__aeabi_fadd
 3856 0578 0040A0E1 		mov	r4, r0
 3857 057c 0410A0E1 		mov	r1, r4
 3858 0580 0800A0E1 		mov	r0, r8
 3859 0584 FEFFFFEB 		bl	__aeabi_fcmpgt
 3860 0588 A0929FE5 		ldr	r9, .L479+64
 3861 058c A0A29FE5 		ldr	r10, .L479+68
 3862 0590 000050E3 		cmp	r0, #0
 3863 0594 06418A17 		strne	r4, [r10, r6, asl #2]	@ float
 3864 0598 06418907 		streq	r4, [r9, r6, asl #2]	@ float
 3865 059c 7C429FE5 		ldr	r4, .L479+48
 3866 05a0 043094E5 		ldr	r3, [r4, #4]	@ float
 3867 05a4 0C308DE5 		str	r3, [sp, #12]	@ float
 3868 05a8 74329FE5 		ldr	r3, .L479+52
 3869 05ac 06818917 		strne	r8, [r9, r6, asl #2]	@ float
 3870 05b0 000093E5 		ldr	r0, [r3]	@ float
 3871 05b4 06818A07 		streq	r8, [r10, r6, asl #2]	@ float
 3872 05b8 3F14A0E3 		mov	r1, #1056964608
 3873 05bc FEFFFFEB 		bl	__aeabi_fmul
 3874 05c0 0010A0E1 		mov	r1, r0
 3875 05c4 0C009DE5 		ldr	r0, [sp, #12]	@ float
 3876 05c8 FEFFFFEB 		bl	__aeabi_fcmpge
 3877 05cc 000050E3 		cmp	r0, #0
 3878 05d0 14009D15 		ldrne	r0, [sp, #20]
 3879 05d4 60329FE5 		ldr	r3, .L479+76
 3880 05d8 14109D05 		ldreq	r1, [sp, #20]	@ float
 3881 05dc 02218012 		addne	r2, r0, #-2147483648
 3882 05e0 00108305 		streq	r1, [r3]	@ float
 3883 05e4 00208315 		strne	r2, [r3]	@ float
 3884 05e8 007093E5 		ldr	r7, [r3]	@ float
 3885 05ec 0010A0E3 		mov	r1, #0
 3886 05f0 0700A0E1 		mov	r0, r7
 3887 05f4 FEFFFFEB 		bl	__aeabi_fcmpge
 3888 05f8 FC319FE5 		ldr	r3, .L479+12
 3889 05fc 000050E3 		cmp	r0, #0
 3890 0600 38429FE5 		ldr	r4, .L479+80
 3891 0604 000093E5 		ldr	r0, [r3]	@ float
 3892 0608 0600000A 		beq	.L469
 3893 060c FEFFFFEB 		bl	__aeabi_f2d
 3894 0610 2C229FE5 		ldr	r2, .L479+84
 3895 0614 2C329FE5 		ldr	r3, .L479+88
 3896 0618 FEFFFFEB 		bl	__aeabi_dmul
 3897 061c FEFFFFEB 		bl	__aeabi_d2f
 3898 0620 020180E2 		add	r0, r0, #-2147483648
 3899 0624 090000EA 		b	.L471
 3900              	.L469:
 3901 0628 FEFFFFEB 		bl	__aeabi_f2d
 3902 062c 10229FE5 		ldr	r2, .L479+84
 3903 0630 10329FE5 		ldr	r3, .L479+88
 3904 0634 FEFFFFEB 		bl	__aeabi_dmul
 3905 0638 0020A0E1 		mov	r2, r0
 3906 063c 0130A0E1 		mov	r3, r1
 3907 0640 0000A0E3 		mov	r0, #0
 3908 0644 00129FE5 		ldr	r1, .L479+92
 3909 0648 FEFFFFEB 		bl	__aeabi_dsub
 3910 064c FEFFFFEB 		bl	__aeabi_d2f
 3911              	.L471:
 3912 0650 000084E5 		str	r0, [r4]	@ float
 3913 0654 3F14A0E3 		mov	r1, #1056964608
 3914 0658 0700A0E1 		mov	r0, r7
 3915 065c FEFFFFEB 		bl	__aeabi_fmul
 3916 0660 0080A0E1 		mov	r8, r0
 3917 0664 0810A0E1 		mov	r1, r8
 3918 0668 0C009DE5 		ldr	r0, [sp, #12]	@ float
 3919 066c FEFFFFEB 		bl	__aeabi_fadd
 3920 0670 94319FE5 		ldr	r3, .L479+28
 3921 0674 0030D3E5 		ldrb	r3, [r3]	@ zero_extendqisi2
 3922 0678 00B0A0E3 		mov	fp, #0
 3923 067c 10308DE5 		str	r3, [sp, #16]
 3924 0680 0040A0E1 		mov	r4, r0
 3925 0684 0B50A0E1 		mov	r5, fp
 3926 0688 0060A0E3 		mov	r6, #0
 3927              	.L423:
 3928 068c 10209DE5 		ldr	r2, [sp, #16]
 3929 0690 020056E1 		cmp	r6, r2
 3930 0694 180000AA 		bge	.L478
 3931 0698 06019AE7 		ldr	r0, [r10, r6, asl #2]	@ float
 3932 069c 0410A0E1 		mov	r1, r4
 3933 06a0 FEFFFFEB 		bl	__aeabi_fcmple
 3934 06a4 000050E3 		cmp	r0, #0
 3935 06a8 1100000A 		beq	.L424
 3936 06ac 060199E7 		ldr	r0, [r9, r6, asl #2]	@ float
 3937 06b0 0410A0E1 		mov	r1, r4
 3938 06b4 FEFFFFEB 		bl	__aeabi_fcmpgt
 3939 06b8 000050E3 		cmp	r0, #0
 3940 06bc 0C00000A 		beq	.L424
 3941 06c0 0CC0A0E3 		mov	ip, #12
 3942 06c4 960C0CE0 		mul	ip, r6, ip
 3943 06c8 5CB19FE5 		ldr	fp, .L479+60
 3944 06cc 0C108BE0 		add	r1, fp, ip
 3945 06d0 041091E5 		ldr	r1, [r1, #4]	@ float
 3946 06d4 0400A0E1 		mov	r0, r4
 3947 06d8 08C08DE5 		str	ip, [sp, #8]
 3948 06dc FEFFFFEB 		bl	__aeabi_fsub
 3949 06e0 08C09DE5 		ldr	ip, [sp, #8]
 3950 06e4 0B109CE7 		ldr	r1, [ip, fp]	@ float
 3951 06e8 FEFFFFEB 		bl	__aeabi_fdiv
 3952 06ec 05B0A0E1 		mov	fp, r5
 3953 06f0 0050A0E1 		mov	r5, r0
 3954              	.L424:
 3955 06f4 016086E2 		add	r6, r6, #1
 3956 06f8 E3FFFFEA 		b	.L423
 3957              	.L478:
 3958 06fc 1C319FE5 		ldr	r3, .L479+48
 3959 0700 009093E5 		ldr	r9, [r3]	@ float
 3960 0704 0B10A0E1 		mov	r1, fp
 3961 0708 0900A0E1 		mov	r0, r9
 3962 070c FEFFFFEB 		bl	__aeabi_fsub
 3963 0710 0510A0E1 		mov	r1, r5
 3964 0714 02A1C0E3 		bic	r10, r0, #-2147483648
 3965 0718 0900A0E1 		mov	r0, r9
 3966 071c FEFFFFEB 		bl	__aeabi_fsub
 3967 0720 0211C0E3 		bic	r1, r0, #-2147483648
 3968 0724 0A00A0E1 		mov	r0, r10
 3969 0728 FEFFFFEB 		bl	__aeabi_fcmple
 3970 072c 1CA19FE5 		ldr	r10, .L479+96
 3971 0730 1C919FE5 		ldr	r9, .L479+100
 3972 0734 000050E3 		cmp	r0, #0
 3973 0738 00508A15 		strne	r5, [r10]	@ float
 3974 073c 00508905 		streq	r5, [r9]	@ float
 3975 0740 04408A15 		strne	r4, [r10, #4]	@ float
 3976 0744 00B08915 		strne	fp, [r9]	@ float
 3977 0748 00B08A05 		streq	fp, [r10]	@ float
 3978 074c 04408A05 		streq	r4, [r10, #4]	@ float
 3979 0750 044089E5 		str	r4, [r9, #4]	@ float
 3980 0754 0400A0E1 		mov	r0, r4
 3981 0758 0010A0E3 		mov	r1, #0
 3982 075c FEFFFFEB 		bl	__aeabi_fcmpgt
 3983 0760 000050E3 		cmp	r0, #0
 3984 0764 EC509FE5 		ldr	r5, .L479+104
 3985 0768 0400000A 		beq	.L431
 3986 076c 00009AE5 		ldr	r0, [r10]	@ float
 3987 0770 001099E5 		ldr	r1, [r9]	@ float
 3988 0774 FEFFFFEB 		bl	__aeabi_fcmpgt
 3989 0778 000050E3 		cmp	r0, #0
 3990 077c 0900001A 		bne	.L473
 3991              	.L431:
 3992 0780 0400A0E1 		mov	r0, r4
 3993 0784 0010A0E3 		mov	r1, #0
 3994 0788 FEFFFFEB 		bl	__aeabi_fcmplt
 3995 078c 000050E3 		cmp	r0, #0
 3996 0790 0600000A 		beq	.L435
 3997 0794 00009AE5 		ldr	r0, [r10]	@ float
 3998 0798 001099E5 		ldr	r1, [r9]	@ float
 3999 079c FEFFFFEB 		bl	__aeabi_fcmplt
 4000 07a0 000050E3 		cmp	r0, #0
 4001 07a4 0100000A 		beq	.L435
 4002              	.L473:
 4003 07a8 008085E5 		str	r8, [r5]	@ float
 4004 07ac 030000EA 		b	.L434
 4005              	.L435:
 4006 07b0 020187E2 		add	r0, r7, #-2147483648
 4007 07b4 3F14A0E3 		mov	r1, #1056964608
 4008 07b8 FEFFFFEB 		bl	__aeabi_fmul
 4009 07bc 000085E5 		str	r0, [r5]	@ float
 4010              	.L434:
 4011 07c0 94309FE5 		ldr	r3, .L479+108
 4012 07c4 002099E5 		ldr	r2, [r9]	@ float
 4013 07c8 0C009DE5 		ldr	r0, [sp, #12]	@ float
 4014 07cc 002083E5 		str	r2, [r3]	@ float
 4015 07d0 040083E5 		str	r0, [r3, #4]	@ float
 4016 07d4 34309FE5 		ldr	r3, .L479+32
 4017 07d8 0120A0E3 		mov	r2, #1
 4018 07dc 0020C3E5 		strb	r2, [r3]
 4019 07e0 0000A0E3 		mov	r0, #0
 4020              	.L379:
 4021 07e4 6CD08DE2 		add	sp, sp, #108
 4022              		@ sp needed
 4023 07e8 F04FBDE8 		ldmfd	sp!, {r4, r5, r6, r7, r8, r9, r10, fp, lr}
 4024 07ec 1EFF2FE1 		bx	lr
 4025              	.L480:
 4026              		.align	2
 4027              	.L479:
 4028 07f0 00000000 		.word	.LANCHOR44
 4029 07f4 46DF913F 		.word	1066524486
 4030 07f8 399D52A2 		.word	-1571644103
 4031 07fc 00000000 		.word	.LANCHOR45
 4032 0800 00000000 		.word	PolySurveySweepNum
 4033 0804 00000000 		.word	PolySurveySweepBackNum
 4034 0808 00000000 		.word	.LANCHOR46
 4035 080c 00000000 		.word	.LANCHOR47
 4036 0810 00000000 		.word	.LANCHOR48
 4037 0814 0000B4C2 		.word	-1028390912
 4038 0818 0000B442 		.word	1119092736
 4039 081c 00000000 		.word	waypoints
 4040 0820 00000000 		.word	.LANCHOR49
 4041 0824 00000000 		.word	.LANCHOR50
 4042 0828 286B6E4E 		.word	1315859240
 4043 082c 00000000 		.word	.LANCHOR51
 4044 0830 00000000 		.word	.LANCHOR52
 4045 0834 00000000 		.word	.LANCHOR53
 4046 0838 18000000 		.word	.LANCHOR51+24
 4047 083c 00000000 		.word	.LANCHOR54
 4048 0840 00000000 		.word	.LANCHOR55
 4049 0844 F8C1631A 		.word	442745336
 4050 0848 DCA54C40 		.word	1078765020
 4051 084c 00806640 		.word	1080459264
 4052 0850 00000000 		.word	.LANCHOR56
 4053 0854 00000000 		.word	.LANCHOR57
 4054 0858 00000000 		.word	.LANCHOR58
 4055 085c 00000000 		.word	.LANCHOR59
 4057              		.section	.text.RotateAndTranslateToWorld,"ax",%progbits
 4058              		.align	2
 4059              		.global	RotateAndTranslateToWorld
 4061              	RotateAndTranslateToWorld:
 4062              		@ Function supports interworking.
 4063              		@ args = 0, pretend = 0, frame = 24
 4064              		@ frame_needed = 0, uses_anonymous_args = 0
 4065 0000 F04F2DE9 		stmfd	sp!, {r4, r5, r6, r7, r8, r9, r10, fp, lr}
 4066 0004 0080A0E1 		mov	r8, r0
 4067 0008 1CD04DE2 		sub	sp, sp, #28
 4068 000c 000090E5 		ldr	r0, [r0]	@ float
 4069 0010 0390A0E1 		mov	r9, r3
 4070 0014 04208DE5 		str	r2, [sp, #4]
 4071 0018 0160A0E1 		mov	r6, r1
 4072 001c FEFFFFEB 		bl	__aeabi_f2d
 4073 0020 0040A0E1 		mov	r4, r0
 4074 0024 0600A0E1 		mov	r0, r6
 4075 0028 0150A0E1 		mov	r5, r1
 4076 002c FEFFFFEB 		bl	__aeabi_f2d
 4077 0030 0060A0E1 		mov	r6, r0
 4078 0034 0170A0E1 		mov	r7, r1
 4079 0038 FEFFFFEB 		bl	cos
 4080 003c 00A0A0E1 		mov	r10, r0
 4081 0040 040098E5 		ldr	r0, [r8, #4]	@ float
 4082 0044 01B0A0E1 		mov	fp, r1
 4083 0048 FEFFFFEB 		bl	__aeabi_f2d
 4084 004c 08008DE5 		str	r0, [sp, #8]
 4085 0050 0C108DE5 		str	r1, [sp, #12]
 4086 0054 0600A0E1 		mov	r0, r6
 4087 0058 0710A0E1 		mov	r1, r7
 4088 005c FEFFFFEB 		bl	sin
 4089 0060 0A20A0E1 		mov	r2, r10
 4090 0064 0060A0E1 		mov	r6, r0
 4091 0068 0170A0E1 		mov	r7, r1
 4092 006c 0B30A0E1 		mov	r3, fp
 4093 0070 0400A0E1 		mov	r0, r4
 4094 0074 0510A0E1 		mov	r1, r5
 4095 0078 FEFFFFEB 		bl	__aeabi_dmul
 4096 007c 0620A0E1 		mov	r2, r6
 4097 0080 10008DE5 		str	r0, [sp, #16]
 4098 0084 14108DE5 		str	r1, [sp, #20]
 4099 0088 0730A0E1 		mov	r3, r7
 4100 008c 08108DE2 		add	r1, sp, #8
 4101 0090 030091E8 		ldmia	r1, {r0-r1}
 4102 0094 FEFFFFEB 		bl	__aeabi_dmul
 4103 0098 0020A0E1 		mov	r2, r0
 4104 009c 0130A0E1 		mov	r3, r1
 4105 00a0 10108DE2 		add	r1, sp, #16
 4106 00a4 030091E8 		ldmia	r1, {r0-r1}
 4107 00a8 FEFFFFEB 		bl	__aeabi_dsub
 4108 00ac FEFFFFEB 		bl	__aeabi_d2f
 4109 00b0 04C09DE5 		ldr	ip, [sp, #4]
 4110 00b4 0C10A0E1 		mov	r1, ip
 4111 00b8 FEFFFFEB 		bl	__aeabi_fadd
 4112 00bc 0620A0E1 		mov	r2, r6
 4113 00c0 000088E5 		str	r0, [r8]	@ float
 4114 00c4 0730A0E1 		mov	r3, r7
 4115 00c8 0400A0E1 		mov	r0, r4
 4116 00cc 0510A0E1 		mov	r1, r5
 4117 00d0 FEFFFFEB 		bl	__aeabi_dmul
 4118 00d4 0A20A0E1 		mov	r2, r10
 4119 00d8 0040A0E1 		mov	r4, r0
 4120 00dc 0150A0E1 		mov	r5, r1
 4121 00e0 0B30A0E1 		mov	r3, fp
 4122 00e4 08108DE2 		add	r1, sp, #8
 4123 00e8 030091E8 		ldmia	r1, {r0-r1}
 4124 00ec FEFFFFEB 		bl	__aeabi_dmul
 4125 00f0 0020A0E1 		mov	r2, r0
 4126 00f4 0130A0E1 		mov	r3, r1
 4127 00f8 0400A0E1 		mov	r0, r4
 4128 00fc 0510A0E1 		mov	r1, r5
 4129 0100 FEFFFFEB 		bl	__aeabi_dadd
 4130 0104 FEFFFFEB 		bl	__aeabi_d2f
 4131 0108 0910A0E1 		mov	r1, r9
 4132 010c FEFFFFEB 		bl	__aeabi_fadd
 4133 0110 040088E5 		str	r0, [r8, #4]	@ float
 4134 0114 1CD08DE2 		add	sp, sp, #28
 4135              		@ sp needed
 4136 0118 F04FBDE8 		ldmfd	sp!, {r4, r5, r6, r7, r8, r9, r10, fp, lr}
 4137 011c 1EFF2FE1 		bx	lr
 4139              		.section	.text.PolygonSurvey,"ax",%progbits
 4140              		.align	2
 4141              		.global	PolygonSurvey
 4143              	PolygonSurvey:
 4144              		@ Function supports interworking.
 4145              		@ args = 0, pretend = 0, frame = 32
 4146              		@ frame_needed = 0, uses_anonymous_args = 0
 4147 0000 98389FE5 		ldr	r3, .L604
 4148 0004 F04F2DE9 		stmfd	sp!, {r4, r5, r6, r7, r8, r9, r10, fp, lr}
 4149 0008 0050A0E3 		mov	r5, #0
 4150 000c 0050C3E5 		strb	r5, [r3]
 4151 0010 8C389FE5 		ldr	r3, .L604+4
 4152 0014 0060A0E3 		mov	r6, #0
 4153 0018 006083E5 		str	r6, [r3]	@ float
 4154 001c 84889FE5 		ldr	r8, .L604+8
 4155 0020 84389FE5 		ldr	r3, .L604+12
 4156 0024 0320A0E3 		mov	r2, #3
 4157 0028 0020C3E5 		strb	r2, [r3]
 4158 002c 7C789FE5 		ldr	r7, .L604+16
 4159 0030 0030D8E5 		ldrb	r3, [r8]	@ zero_extendqisi2
 4160 0034 0C20A0E3 		mov	r2, #12
 4161 0038 927323E0 		mla	r3, r2, r3, r7
 4162 003c 082093E5 		ldr	r2, [r3, #8]	@ float
 4163 0040 6C389FE5 		ldr	r3, .L604+20
 4164 0044 002083E5 		str	r2, [r3]	@ float
 4165 0048 68389FE5 		ldr	r3, .L604+24
 4166 004c 68289FE5 		ldr	r2, .L604+28
 4167 0050 006083E5 		str	r6, [r3]	@ float
 4168 0054 0030D2E5 		ldrb	r3, [r2]	@ zero_extendqisi2
 4169 0058 020053E3 		cmp	r3, #2
 4170 005c 2CD04DE2 		sub	sp, sp, #44
 4171 0060 7000000A 		beq	.L484
 4172 0064 030053E3 		cmp	r3, #3
 4173 0068 7501000A 		beq	.L485
 4174 006c 010053E3 		cmp	r3, #1
 4175 0070 0500A011 		movne	r0, r5
 4176 0074 0602001A 		bne	.L580
 4177 0078 40389FE5 		ldr	r3, .L604+32
 4178 007c 002093E5 		ldr	r2, [r3]	@ float
 4179 0080 043093E5 		ldr	r3, [r3, #4]	@ float
 4180 0084 24308DE5 		str	r3, [sp, #36]	@ float
 4181 0088 34389FE5 		ldr	r3, .L604+36
 4182 008c 0610A0E1 		mov	r1, r6
 4183 0090 20208DE5 		str	r2, [sp, #32]	@ float
 4184 0094 20008DE2 		add	r0, sp, #32
 4185 0098 002093E5 		ldr	r2, [r3]	@ float
 4186 009c 043093E5 		ldr	r3, [r3, #4]	@ float
 4187 00a0 FEFFFFEB 		bl	RotateAndTranslateToWorld
 4188 00a4 1C389FE5 		ldr	r3, .L604+40
 4189 00a8 0620A0E1 		mov	r2, r6
 4190 00ac 001093E5 		ldr	r1, [r3]	@ float
 4191 00b0 20008DE2 		add	r0, sp, #32
 4192 00b4 0630A0E1 		mov	r3, r6
 4193 00b8 FEFFFFEB 		bl	RotateAndTranslateToWorld
 4194 00bc 08389FE5 		ldr	r3, .L604+44
 4195 00c0 20009DE5 		ldr	r0, [sp, #32]	@ float
 4196 00c4 002093E5 		ldr	r2, [r3]	@ float
 4197 00c8 24109DE5 		ldr	r1, [sp, #36]	@ float
 4198 00cc FEFFFFEB 		bl	nav_circle_XY
 4199 00d0 F8379FE5 		ldr	r3, .L604+48
 4200 00d4 006093E5 		ldr	r6, [r3]	@ float
 4201 00d8 F4379FE5 		ldr	r3, .L604+52
 4202 00dc 000093E5 		ldr	r0, [r3]	@ float
 4203 00e0 FEFFFFEB 		bl	__aeabi_f2d
 4204 00e4 0020A0E1 		mov	r2, r0
 4205 00e8 0130A0E1 		mov	r3, r1
 4206 00ec E4079FE5 		ldr	r0, .L604+56
 4207 00f0 E4179FE5 		ldr	r1, .L604+60
 4208 00f4 FEFFFFEB 		bl	__aeabi_dsub
 4209 00f8 E0279FE5 		ldr	r2, .L604+64
 4210 00fc E0379FE5 		ldr	r3, .L604+68
 4211 0100 FEFFFFEB 		bl	__aeabi_dmul
 4212 0104 FEFFFFEB 		bl	__aeabi_d2f
 4213              	.L587:
 4214 0108 0010A0E3 		mov	r1, #0
 4215 010c 0040A0E1 		mov	r4, r0
 4216 0110 FEFFFFEB 		bl	__aeabi_fcmplt
 4217 0114 000050E3 		cmp	r0, #0
 4218 0118 FF9005E2 		and	r9, r5, #255
 4219 011c 0F00000A 		beq	.L489
 4220 0120 015085E2 		add	r5, r5, #1
 4221 0124 010C55E3 		cmp	r5, #256
 4222 0128 0300000A 		beq	.L597
 4223 012c 0400A0E1 		mov	r0, r4
 4224 0130 B0179FE5 		ldr	r1, .L604+72
 4225 0134 FEFFFFEB 		bl	__aeabi_fadd
 4226 0138 F2FFFFEA 		b	.L587
 4227              	.L597:
 4228 013c 0090A0E3 		mov	r9, #0
 4229 0140 060000EA 		b	.L489
 4230              	.L492:
 4231 0144 019089E2 		add	r9, r9, #1
 4232 0148 FF9019E2 		ands	r9, r9, #255
 4233 014c 0800000A 		beq	.L495
 4234 0150 0400A0E1 		mov	r0, r4
 4235 0154 8C179FE5 		ldr	r1, .L604+72
 4236 0158 FEFFFFEB 		bl	__aeabi_fsub
 4237 015c 0040A0E1 		mov	r4, r0
 4238              	.L489:
 4239 0160 0400A0E1 		mov	r0, r4
 4240 0164 7C179FE5 		ldr	r1, .L604+72
 4241 0168 FEFFFFEB 		bl	__aeabi_fcmpge
 4242 016c 000050E3 		cmp	r0, #0
 4243 0170 F3FFFF1A 		bne	.L492
 4244              	.L495:
 4245 0174 0410A0E1 		mov	r1, r4
 4246 0178 0600A0E1 		mov	r0, r6
 4247 017c FEFFFFEB 		bl	__aeabi_fsub
 4248 0180 0050A0E3 		mov	r5, #0
 4249 0184 0040A0E1 		mov	r4, r0
 4250 0188 060000EA 		b	.L493
 4251              	.L599:
 4252 018c 015085E2 		add	r5, r5, #1
 4253 0190 010C55E3 		cmp	r5, #256
 4254 0194 0A00000A 		beq	.L598
 4255 0198 0400A0E1 		mov	r0, r4
 4256 019c 44179FE5 		ldr	r1, .L604+72
 4257 01a0 FEFFFFEB 		bl	__aeabi_fadd
 4258 01a4 0040A0E1 		mov	r4, r0
 4259              	.L493:
 4260 01a8 0400A0E1 		mov	r0, r4
 4261 01ac 0010A0E3 		mov	r1, #0
 4262 01b0 FEFFFFEB 		bl	__aeabi_fcmplt
 4263 01b4 000050E3 		cmp	r0, #0
 4264 01b8 FF6005E2 		and	r6, r5, #255
 4265 01bc F2FFFF1A 		bne	.L599
 4266 01c0 080000EA 		b	.L497
 4267              	.L598:
 4268 01c4 0060A0E3 		mov	r6, #0
 4269 01c8 060000EA 		b	.L497
 4270              	.L500:
 4271 01cc 016086E2 		add	r6, r6, #1
 4272 01d0 FF6016E2 		ands	r6, r6, #255
 4273 01d4 0800000A 		beq	.L504
 4274 01d8 0400A0E1 		mov	r0, r4
 4275 01dc 04179FE5 		ldr	r1, .L604+72
 4276 01e0 FEFFFFEB 		bl	__aeabi_fsub
 4277 01e4 0040A0E1 		mov	r4, r0
 4278              	.L497:
 4279 01e8 0400A0E1 		mov	r0, r4
 4280 01ec F4169FE5 		ldr	r1, .L604+72
 4281 01f0 FEFFFFEB 		bl	__aeabi_fcmpge
 4282 01f4 000050E3 		cmp	r0, #0
 4283 01f8 F3FFFF1A 		bne	.L500
 4284              	.L504:
 4285 01fc 0400A0E1 		mov	r0, r4
 4286 0200 E4169FE5 		ldr	r1, .L604+76
 4287 0204 FEFFFFEB 		bl	__aeabi_fcmpgt
 4288 0208 000050E3 		cmp	r0, #0
 4289 020c 7801001A 		bne	.L501
 4290 0210 0400A0E1 		mov	r0, r4
 4291 0214 D4169FE5 		ldr	r1, .L604+80
 4292 0218 FEFFFFEB 		bl	__aeabi_fcmplt
 4293 021c 000050E3 		cmp	r0, #0
 4294 0220 7301001A 		bne	.L501
 4295 0224 040100EA 		b	.L593
 4296              	.L484:
 4297 0228 C4569FE5 		ldr	r5, .L604+84
 4298 022c 003095E5 		ldr	r3, [r5]	@ float
 4299 0230 C0469FE5 		ldr	r4, .L604+88
 4300 0234 18308DE5 		str	r3, [sp, #24]	@ float
 4301 0238 043095E5 		ldr	r3, [r5, #4]	@ float
 4302 023c 1C308DE5 		str	r3, [sp, #28]	@ float
 4303 0240 003094E5 		ldr	r3, [r4]	@ float
 4304 0244 20308DE5 		str	r3, [sp, #32]	@ float
 4305 0248 043094E5 		ldr	r3, [r4, #4]	@ float
 4306 024c 24308DE5 		str	r3, [sp, #36]	@ float
 4307 0250 6C369FE5 		ldr	r3, .L604+36
 4308 0254 00A093E5 		ldr	r10, [r3]	@ float
 4309 0258 049093E5 		ldr	r9, [r3, #4]	@ float
 4310 025c 64769FE5 		ldr	r7, .L604+40
 4311 0260 18008DE2 		add	r0, sp, #24
 4312 0264 0610A0E1 		mov	r1, r6
 4313 0268 0A20A0E1 		mov	r2, r10
 4314 026c 0930A0E1 		mov	r3, r9
 4315 0270 FEFFFFEB 		bl	RotateAndTranslateToWorld
 4316 0274 008097E5 		ldr	r8, [r7]	@ float
 4317 0278 18008DE2 		add	r0, sp, #24
 4318 027c 0810A0E1 		mov	r1, r8
 4319 0280 0620A0E1 		mov	r2, r6
 4320 0284 0630A0E1 		mov	r3, r6
 4321 0288 FEFFFFEB 		bl	RotateAndTranslateToWorld
 4322 028c 20008DE2 		add	r0, sp, #32
 4323 0290 0610A0E1 		mov	r1, r6
 4324 0294 0A20A0E1 		mov	r2, r10
 4325 0298 0930A0E1 		mov	r3, r9
 4326 029c FEFFFFEB 		bl	RotateAndTranslateToWorld
 4327 02a0 20008DE2 		add	r0, sp, #32
 4328 02a4 0810A0E1 		mov	r1, r8
 4329 02a8 0620A0E1 		mov	r2, r6
 4330 02ac 0630A0E1 		mov	r3, r6
 4331 02b0 FEFFFFEB 		bl	RotateAndTranslateToWorld
 4332 02b4 20009DE5 		ldr	r0, [sp, #32]	@ float
 4333 02b8 24109DE5 		ldr	r1, [sp, #36]	@ float
 4334 02bc 18209DE5 		ldr	r2, [sp, #24]	@ float
 4335 02c0 1C309DE5 		ldr	r3, [sp, #28]	@ float
 4336 02c4 FEFFFFEB 		bl	nav_route_xy
 4337 02c8 00608DE5 		str	r6, [sp]	@ float
 4338 02cc 18009DE5 		ldr	r0, [sp, #24]	@ float
 4339 02d0 1C109DE5 		ldr	r1, [sp, #28]	@ float
 4340 02d4 20209DE5 		ldr	r2, [sp, #32]	@ float
 4341 02d8 24309DE5 		ldr	r3, [sp, #36]	@ float
 4342 02dc FEFFFFEB 		bl	nav_approaching_xy
 4343 02e0 000050E3 		cmp	r0, #0
 4344 02e4 D400000A 		beq	.L593
 4345 02e8 0CB69FE5 		ldr	fp, .L604+92
 4346 02ec 0C369FE5 		ldr	r3, .L604+96
 4347 02f0 049095E5 		ldr	r9, [r5, #4]	@ float
 4348 02f4 008095E5 		ldr	r8, [r5]	@ float
 4349 02f8 00A09BE5 		ldr	r10, [fp]	@ float
 4350 02fc 008083E5 		str	r8, [r3]	@ float
 4351 0300 049083E5 		str	r9, [r3, #4]	@ float
 4352 0304 0A10A0E1 		mov	r1, r10
 4353 0308 0900A0E1 		mov	r0, r9
 4354 030c FEFFFFEB 		bl	__aeabi_fadd
 4355 0310 EC359FE5 		ldr	r3, .L604+100
 4356 0314 001093E5 		ldr	r1, [r3]	@ float
 4357 0318 0040A0E1 		mov	r4, r0
 4358 031c FEFFFFEB 		bl	__aeabi_fcmpge
 4359 0320 000050E3 		cmp	r0, #0
 4360 0324 0500001A 		bne	.L507
 4361 0328 0400A0E1 		mov	r0, r4
 4362 032c 0610A0E1 		mov	r1, r6
 4363 0330 FEFFFFEB 		bl	__aeabi_fcmple
 4364 0334 000050E3 		cmp	r0, #0
 4365 0338 14008D05 		streq	r0, [sp, #20]
 4366 033c 2700000A 		beq	.L508
 4367              	.L507:
 4368 0340 02A18AE2 		add	r10, r10, #-2147483648
 4369 0344 3F14A0E3 		mov	r1, #1056964608
 4370 0348 00A08BE5 		str	r10, [fp]	@ float
 4371 034c 0A00A0E1 		mov	r0, r10
 4372 0350 FEFFFFEB 		bl	__aeabi_fmul
 4373 0354 0010A0E1 		mov	r1, r0
 4374 0358 0900A0E1 		mov	r0, r9
 4375 035c FEFFFFEB 		bl	__aeabi_fadd
 4376 0360 0010A0E3 		mov	r1, #0
 4377 0364 0040A0E1 		mov	r4, r0
 4378 0368 0A00A0E1 		mov	r0, r10
 4379 036c FEFFFFEB 		bl	__aeabi_fcmpge
 4380 0370 000050E3 		cmp	r0, #0
 4381 0374 54659FE5 		ldr	r6, .L604+48
 4382 0378 000097E5 		ldr	r0, [r7]	@ float
 4383 037c 0600000A 		beq	.L582
 4384 0380 FEFFFFEB 		bl	__aeabi_f2d
 4385 0384 54259FE5 		ldr	r2, .L604+64
 4386 0388 54359FE5 		ldr	r3, .L604+68
 4387 038c FEFFFFEB 		bl	__aeabi_dmul
 4388 0390 FEFFFFEB 		bl	__aeabi_d2f
 4389 0394 020180E2 		add	r0, r0, #-2147483648
 4390 0398 090000EA 		b	.L589
 4391              	.L582:
 4392 039c FEFFFFEB 		bl	__aeabi_f2d
 4393 03a0 38259FE5 		ldr	r2, .L604+64
 4394 03a4 38359FE5 		ldr	r3, .L604+68
 4395 03a8 FEFFFFEB 		bl	__aeabi_dmul
 4396 03ac 0020A0E1 		mov	r2, r0
 4397 03b0 0130A0E1 		mov	r3, r1
 4398 03b4 0000A0E3 		mov	r0, #0
 4399 03b8 48159FE5 		ldr	r1, .L604+104
 4400 03bc FEFFFFEB 		bl	__aeabi_dsub
 4401 03c0 FEFFFFEB 		bl	__aeabi_d2f
 4402              	.L589:
 4403 03c4 40359FE5 		ldr	r3, .L604+108
 4404 03c8 B020D3E1 		ldrh	r2, [r3]
 4405 03cc 012082E2 		add	r2, r2, #1
 4406 03d0 B020C3E1 		strh	r2, [r3]	@ movhi
 4407 03d4 0130A0E3 		mov	r3, #1
 4408 03d8 000086E5 		str	r0, [r6]	@ float
 4409 03dc 14308DE5 		str	r3, [sp, #20]
 4410              	.L508:
 4411 03e0 28359FE5 		ldr	r3, .L604+112
 4412 03e4 0070A0E3 		mov	r7, #0
 4413 03e8 00A0D3E5 		ldrb	r10, [r3]	@ zero_extendqisi2
 4414 03ec 0760A0E1 		mov	r6, r7
 4415 03f0 00B0A0E3 		mov	fp, #0
 4416              	.L513:
 4417 03f4 0A005BE1 		cmp	fp, r10
 4418 03f8 1A0000AA 		bge	.L600
 4419 03fc 10359FE5 		ldr	r3, .L604+116
 4420 0400 0410A0E1 		mov	r1, r4
 4421 0404 0B0193E7 		ldr	r0, [r3, fp, asl #2]	@ float
 4422 0408 FEFFFFEB 		bl	__aeabi_fcmplt
 4423 040c 000050E3 		cmp	r0, #0
 4424 0410 1200000A 		beq	.L514
 4425 0414 FC349FE5 		ldr	r3, .L604+120
 4426 0418 0410A0E1 		mov	r1, r4
 4427 041c 0B0193E7 		ldr	r0, [r3, fp, asl #2]	@ float
 4428 0420 FEFFFFEB 		bl	__aeabi_fcmpge
 4429 0424 000050E3 		cmp	r0, #0
 4430 0428 0C00000A 		beq	.L514
 4431 042c 0C30A0E3 		mov	r3, #12
 4432 0430 9B0303E0 		mul	r3, fp, r3
 4433 0434 E0749FE5 		ldr	r7, .L604+124
 4434 0438 032087E0 		add	r2, r7, r3
 4435 043c 041092E5 		ldr	r1, [r2, #4]	@ float
 4436 0440 0400A0E1 		mov	r0, r4
 4437 0444 0C308DE5 		str	r3, [sp, #12]
 4438 0448 FEFFFFEB 		bl	__aeabi_fsub
 4439 044c 0C309DE5 		ldr	r3, [sp, #12]
 4440 0450 071093E7 		ldr	r1, [r3, r7]	@ float
 4441 0454 FEFFFFEB 		bl	__aeabi_fdiv
 4442 0458 0670A0E1 		mov	r7, r6
 4443 045c 0060A0E1 		mov	r6, r0
 4444              	.L514:
 4445 0460 01B08BE2 		add	fp, fp, #1
 4446 0464 E2FFFFEA 		b	.L513
 4447              	.L600:
 4448 0468 0810A0E1 		mov	r1, r8
 4449 046c 0600A0E1 		mov	r0, r6
 4450 0470 FEFFFFEB 		bl	__aeabi_fsub
 4451 0474 0810A0E1 		mov	r1, r8
 4452 0478 00B0A0E1 		mov	fp, r0
 4453 047c 0700A0E1 		mov	r0, r7
 4454 0480 FEFFFFEB 		bl	__aeabi_fsub
 4455 0484 10008DE5 		str	r0, [sp, #16]	@ float
 4456 0488 10109DE5 		ldr	r1, [sp, #16]	@ float
 4457 048c 0B00A0E1 		mov	r0, fp
 4458 0490 FEFFFFEB 		bl	__aeabi_fmul
 4459 0494 0010A0E3 		mov	r1, #0
 4460 0498 FEFFFFEB 		bl	__aeabi_fcmpge
 4461 049c 000050E3 		cmp	r0, #0
 4462 04a0 50A49FE5 		ldr	r10, .L604+88
 4463 04a4 0400000A 		beq	.L583
 4464 04a8 10209DE5 		ldr	r2, [sp, #16]
 4465 04ac 0211CBE3 		bic	r1, fp, #-2147483648
 4466 04b0 0201C2E3 		bic	r0, r2, #-2147483648
 4467 04b4 FEFFFFEB 		bl	__aeabi_fcmple
 4468 04b8 140000EA 		b	.L596
 4469              	.L583:
 4470 04bc 00109AE5 		ldr	r1, [r10]	@ float
 4471 04c0 0800A0E1 		mov	r0, r8
 4472 04c4 FEFFFFEB 		bl	__aeabi_fsub
 4473 04c8 0010A0E3 		mov	r1, #0
 4474 04cc 00B0A0E1 		mov	fp, r0
 4475 04d0 FEFFFFEB 		bl	__aeabi_fcmpgt
 4476 04d4 000050E3 		cmp	r0, #0
 4477 04d8 0400000A 		beq	.L523
 4478 04dc 10009DE5 		ldr	r0, [sp, #16]	@ float
 4479 04e0 0010A0E3 		mov	r1, #0
 4480 04e4 FEFFFFEB 		bl	__aeabi_fcmpgt
 4481 04e8 000050E3 		cmp	r0, #0
 4482 04ec 0900001A 		bne	.L594
 4483              	.L523:
 4484 04f0 0B00A0E1 		mov	r0, fp
 4485 04f4 0010A0E3 		mov	r1, #0
 4486 04f8 FEFFFFEB 		bl	__aeabi_fcmplt
 4487 04fc 000050E3 		cmp	r0, #0
 4488 0500 0800000A 		beq	.L526
 4489 0504 10009DE5 		ldr	r0, [sp, #16]	@ float
 4490 0508 0010A0E3 		mov	r1, #0
 4491 050c FEFFFFEB 		bl	__aeabi_fcmplt
 4492              	.L596:
 4493 0510 000050E3 		cmp	r0, #0
 4494 0514 0300000A 		beq	.L526
 4495              	.L594:
 4496 0518 006085E5 		str	r6, [r5]	@ float
 4497 051c 044085E5 		str	r4, [r5, #4]	@ float
 4498 0520 00708AE5 		str	r7, [r10]	@ float
 4499 0524 020000EA 		b	.L590
 4500              	.L526:
 4501 0528 007085E5 		str	r7, [r5]	@ float
 4502 052c 044085E5 		str	r4, [r5, #4]	@ float
 4503 0530 00608AE5 		str	r6, [r10]	@ float
 4504              	.L590:
 4505 0534 006095E5 		ldr	r6, [r5]	@ float
 4506 0538 B8339FE5 		ldr	r3, .L604+88
 4507 053c 0800A0E1 		mov	r0, r8
 4508 0540 0610A0E1 		mov	r1, r6
 4509 0544 04408AE5 		str	r4, [r10, #4]	@ float
 4510 0548 005093E5 		ldr	r5, [r3]	@ float
 4511 054c FEFFFFEB 		bl	__aeabi_fsub
 4512 0550 0610A0E1 		mov	r1, r6
 4513 0554 0271C0E3 		bic	r7, r0, #-2147483648
 4514 0558 0500A0E1 		mov	r0, r5
 4515 055c FEFFFFEB 		bl	__aeabi_fsub
 4516 0560 0211C0E3 		bic	r1, r0, #-2147483648
 4517 0564 0700A0E1 		mov	r0, r7
 4518 0568 FEFFFFEB 		bl	__aeabi_fcmpgt
 4519 056c 4C739FE5 		ldr	r7, .L604+32
 4520 0570 14209DE5 		ldr	r2, [sp, #20]
 4521 0574 000050E3 		cmp	r0, #0
 4522 0578 00808715 		strne	r8, [r7]	@ float
 4523 057c 00508705 		streq	r5, [r7]	@ float
 4524 0580 000052E3 		cmp	r2, #0
 4525 0584 70839FE5 		ldr	r8, .L604+92
 4526 0588 04908715 		strne	r9, [r7, #4]	@ float
 4527 058c 0600001A 		bne	.L533
 4528 0590 3F14A0E3 		mov	r1, #1056964608
 4529 0594 000098E5 		ldr	r0, [r8]	@ float
 4530 0598 FEFFFFEB 		bl	__aeabi_fmul
 4531 059c 0010A0E1 		mov	r1, r0
 4532 05a0 0900A0E1 		mov	r0, r9
 4533 05a4 FEFFFFEB 		bl	__aeabi_fadd
 4534 05a8 040087E5 		str	r0, [r7, #4]	@ float
 4535              	.L533:
 4536 05ac 0400A0E1 		mov	r0, r4
 4537 05b0 0010A0E3 		mov	r1, #0
 4538 05b4 FEFFFFEB 		bl	__aeabi_fcmpgt
 4539 05b8 000050E3 		cmp	r0, #0
 4540 05bc 08739FE5 		ldr	r7, .L604+44
 4541 05c0 0600000A 		beq	.L534
 4542 05c4 0600A0E1 		mov	r0, r6
 4543 05c8 0510A0E1 		mov	r1, r5
 4544 05cc FEFFFFEB 		bl	__aeabi_fcmpgt
 4545 05d0 000050E3 		cmp	r0, #0
 4546 05d4 0100000A 		beq	.L534
 4547              	.L540:
 4548 05d8 000098E5 		ldr	r0, [r8]	@ float
 4549 05dc 0B0000EA 		b	.L591
 4550              	.L534:
 4551 05e0 0400A0E1 		mov	r0, r4
 4552 05e4 0010A0E3 		mov	r1, #0
 4553 05e8 FEFFFFEB 		bl	__aeabi_fcmplt
 4554 05ec 000050E3 		cmp	r0, #0
 4555 05f0 0400000A 		beq	.L538
 4556 05f4 0600A0E1 		mov	r0, r6
 4557 05f8 0510A0E1 		mov	r1, r5
 4558 05fc FEFFFFEB 		bl	__aeabi_fcmplt
 4559 0600 000050E3 		cmp	r0, #0
 4560 0604 F3FFFF1A 		bne	.L540
 4561              	.L538:
 4562 0608 000098E5 		ldr	r0, [r8]
 4563 060c 020180E2 		add	r0, r0, #-2147483648
 4564              	.L591:
 4565 0610 3F14A0E3 		mov	r1, #1056964608
 4566 0614 FEFFFFEB 		bl	__aeabi_fmul
 4567 0618 9C229FE5 		ldr	r2, .L604+28
 4568 061c 0330A0E3 		mov	r3, #3
 4569 0620 0030C2E5 		strb	r3, [r2]
 4570 0624 000087E5 		str	r0, [r7]	@ float
 4571 0628 FEFFFFEB 		bl	nav_init_stage
 4572 062c EC329FE5 		ldr	r3, .L604+128
 4573 0630 B020D3E1 		ldrh	r2, [r3]
 4574 0634 012082E2 		add	r2, r2, #1
 4575 0638 B020C3E1 		strh	r2, [r3]	@ movhi
 4576              	.L593:
 4577 063c 0100A0E3 		mov	r0, #1
 4578 0640 930000EA 		b	.L580
 4579              	.L485:
 4580 0644 74329FE5 		ldr	r3, .L604+32
 4581 0648 002093E5 		ldr	r2, [r3]	@ float
 4582 064c 043093E5 		ldr	r3, [r3, #4]	@ float
 4583 0650 24308DE5 		str	r3, [sp, #36]	@ float
 4584 0654 68329FE5 		ldr	r3, .L604+36
 4585 0658 20208DE5 		str	r2, [sp, #32]	@ float
 4586 065c 20008DE2 		add	r0, sp, #32
 4587 0660 002093E5 		ldr	r2, [r3]	@ float
 4588 0664 0610A0E1 		mov	r1, r6
 4589 0668 043093E5 		ldr	r3, [r3, #4]	@ float
 4590 066c FEFFFFEB 		bl	RotateAndTranslateToWorld
 4591 0670 50329FE5 		ldr	r3, .L604+40
 4592 0674 20008DE2 		add	r0, sp, #32
 4593 0678 001093E5 		ldr	r1, [r3]	@ float
 4594 067c 0620A0E1 		mov	r2, r6
 4595 0680 0630A0E1 		mov	r3, r6
 4596 0684 FEFFFFEB 		bl	RotateAndTranslateToWorld
 4597 0688 3C329FE5 		ldr	r3, .L604+44
 4598 068c 20009DE5 		ldr	r0, [sp, #32]	@ float
 4599 0690 002093E5 		ldr	r2, [r3]	@ float
 4600 0694 24109DE5 		ldr	r1, [sp, #36]	@ float
 4601 0698 FEFFFFEB 		bl	nav_circle_XY
 4602 069c 2C329FE5 		ldr	r3, .L604+48
 4603 06a0 007093E5 		ldr	r7, [r3]	@ float
 4604 06a4 28329FE5 		ldr	r3, .L604+52
 4605 06a8 000093E5 		ldr	r0, [r3]	@ float
 4606 06ac FEFFFFEB 		bl	__aeabi_f2d
 4607 06b0 0020A0E1 		mov	r2, r0
 4608 06b4 0130A0E1 		mov	r3, r1
 4609 06b8 18029FE5 		ldr	r0, .L604+56
 4610 06bc 18129FE5 		ldr	r1, .L604+60
 4611 06c0 FEFFFFEB 		bl	__aeabi_dsub
 4612 06c4 14229FE5 		ldr	r2, .L604+64
 4613 06c8 14329FE5 		ldr	r3, .L604+68
 4614 06cc FEFFFFEB 		bl	__aeabi_dmul
 4615 06d0 FEFFFFEB 		bl	__aeabi_d2f
 4616              	.L592:
 4617 06d4 0010A0E3 		mov	r1, #0
 4618 06d8 0040A0E1 		mov	r4, r0
 4619 06dc FEFFFFEB 		bl	__aeabi_fcmplt
 4620 06e0 000050E3 		cmp	r0, #0
 4621 06e4 FF6005E2 		and	r6, r5, #255
 4622 06e8 0F00000A 		beq	.L543
 4623 06ec 015085E2 		add	r5, r5, #1
 4624 06f0 010C55E3 		cmp	r5, #256
 4625 06f4 0300000A 		beq	.L601
 4626 06f8 0400A0E1 		mov	r0, r4
 4627 06fc E4119FE5 		ldr	r1, .L604+72
 4628 0700 FEFFFFEB 		bl	__aeabi_fadd
 4629 0704 F2FFFFEA 		b	.L592
 4630              	.L601:
 4631 0708 0060A0E3 		mov	r6, #0
 4632 070c 060000EA 		b	.L543
 4633              	.L546:
 4634 0710 016086E2 		add	r6, r6, #1
 4635 0714 FF6016E2 		ands	r6, r6, #255
 4636 0718 0800000A 		beq	.L549
 4637 071c 0400A0E1 		mov	r0, r4
 4638 0720 C0119FE5 		ldr	r1, .L604+72
 4639 0724 FEFFFFEB 		bl	__aeabi_fsub
 4640 0728 0040A0E1 		mov	r4, r0
 4641              	.L543:
 4642 072c 0400A0E1 		mov	r0, r4
 4643 0730 B0119FE5 		ldr	r1, .L604+72
 4644 0734 FEFFFFEB 		bl	__aeabi_fcmpge
 4645 0738 000050E3 		cmp	r0, #0
 4646 073c F3FFFF1A 		bne	.L546
 4647              	.L549:
 4648 0740 0410A0E1 		mov	r1, r4
 4649 0744 0700A0E1 		mov	r0, r7
 4650 0748 FEFFFFEB 		bl	__aeabi_fsub
 4651 074c 0050A0E3 		mov	r5, #0
 4652 0750 0040A0E1 		mov	r4, r0
 4653 0754 060000EA 		b	.L547
 4654              	.L603:
 4655 0758 015085E2 		add	r5, r5, #1
 4656 075c 010C55E3 		cmp	r5, #256
 4657 0760 0A00000A 		beq	.L602
 4658 0764 0400A0E1 		mov	r0, r4
 4659 0768 78119FE5 		ldr	r1, .L604+72
 4660 076c FEFFFFEB 		bl	__aeabi_fadd
 4661 0770 0040A0E1 		mov	r4, r0
 4662              	.L547:
 4663 0774 0400A0E1 		mov	r0, r4
 4664 0778 0010A0E3 		mov	r1, #0
 4665 077c FEFFFFEB 		bl	__aeabi_fcmplt
 4666 0780 000050E3 		cmp	r0, #0
 4667 0784 FF6005E2 		and	r6, r5, #255
 4668 0788 F2FFFF1A 		bne	.L603
 4669 078c 080000EA 		b	.L551
 4670              	.L602:
 4671 0790 0060A0E3 		mov	r6, #0
 4672 0794 060000EA 		b	.L551
 4673              	.L554:
 4674 0798 016086E2 		add	r6, r6, #1
 4675 079c FF6016E2 		ands	r6, r6, #255
 4676 07a0 0800000A 		beq	.L558
 4677 07a4 0400A0E1 		mov	r0, r4
 4678 07a8 38119FE5 		ldr	r1, .L604+72
 4679 07ac FEFFFFEB 		bl	__aeabi_fsub
 4680 07b0 0040A0E1 		mov	r4, r0
 4681              	.L551:
 4682 07b4 0400A0E1 		mov	r0, r4
 4683 07b8 28119FE5 		ldr	r1, .L604+72
 4684 07bc FEFFFFEB 		bl	__aeabi_fcmpge
 4685 07c0 000050E3 		cmp	r0, #0
 4686 07c4 F3FFFF1A 		bne	.L554
 4687              	.L558:
 4688 07c8 0400A0E1 		mov	r0, r4
 4689 07cc 18119FE5 		ldr	r1, .L604+76
 4690 07d0 FEFFFFEB 		bl	__aeabi_fcmpgt
 4691 07d4 000050E3 		cmp	r0, #0
 4692 07d8 2200001A 		bne	.L555
 4693 07dc 0400A0E1 		mov	r0, r4
 4694 07e0 08119FE5 		ldr	r1, .L604+80
 4695 07e4 FEFFFFEB 		bl	__aeabi_fcmplt
 4696 07e8 000050E3 		cmp	r0, #0
 4697 07ec 1D00001A 		bne	.L555
 4698 07f0 91FFFFEA 		b	.L593
 4699              	.L501:
 4700 07f4 28319FE5 		ldr	r3, .L604+132
 4701 07f8 000093E5 		ldr	r0, [r3]
 4702 07fc 0201C0E3 		bic	r0, r0, #-2147483648
 4703 0800 FEFFFFEB 		bl	__aeabi_f2d
 4704 0804 CC209FE5 		ldr	r2, .L604+56
 4705 0808 18319FE5 		ldr	r3, .L604+136
 4706 080c FEFFFFEB 		bl	__aeabi_ddiv
 4707 0810 14219FE5 		ldr	r2, .L604+140
 4708 0814 14319FE5 		ldr	r3, .L604+144
 4709 0818 FEFFFFEB 		bl	__aeabi_dcmpgt
 4710 081c 000050E3 		cmp	r0, #0
 4711 0820 85FFFF0A 		beq	.L593
 4712 0824 0030D8E5 		ldrb	r3, [r8]	@ zero_extendqisi2
 4713 0828 0C20A0E3 		mov	r2, #12
 4714 082c 927327E0 		mla	r7, r2, r3, r7
 4715 0830 B8109FE5 		ldr	r1, .L604+80
 4716 0834 080097E5 		ldr	r0, [r7, #8]	@ float
 4717 0838 FEFFFFEB 		bl	__aeabi_fsub
 4718 083c F0309FE5 		ldr	r3, .L604+148
 4719 0840 0010A0E1 		mov	r1, r0
 4720 0844 000093E5 		ldr	r0, [r3]	@ float
 4721 0848 FEFFFFEB 		bl	__aeabi_fcmpgt
 4722              	.L588:
 4723 084c 000050E3 		cmp	r0, #0
 4724 0850 79FFFF0A 		beq	.L593
 4725 0854 60209FE5 		ldr	r2, .L604+28
 4726 0858 0230A0E3 		mov	r3, #2
 4727 085c 0030C2E5 		strb	r3, [r2]
 4728 0860 FEFFFFEB 		bl	nav_init_stage
 4729 0864 74FFFFEA 		b	.L593
 4730              	.L555:
 4731 0868 B4309FE5 		ldr	r3, .L604+132
 4732 086c 000093E5 		ldr	r0, [r3]
 4733 0870 0201C0E3 		bic	r0, r0, #-2147483648
 4734 0874 FEFFFFEB 		bl	__aeabi_f2d
 4735 0878 58209FE5 		ldr	r2, .L604+56
 4736 087c A4309FE5 		ldr	r3, .L604+136
 4737 0880 FEFFFFEB 		bl	__aeabi_ddiv
 4738 0884 0020A0E3 		mov	r2, #0
 4739 0888 0030A0E3 		mov	r3, #0
 4740 088c FEFFFFEB 		bl	__aeabi_dcmpgt
 4741 0890 EDFFFFEA 		b	.L588
 4742              	.L580:
 4743 0894 2CD08DE2 		add	sp, sp, #44
 4744              		@ sp needed
 4745 0898 F04FBDE8 		ldmfd	sp!, {r4, r5, r6, r7, r8, r9, r10, fp, lr}
 4746 089c 1EFF2FE1 		bx	lr
 4747              	.L605:
 4748              		.align	2
 4749              	.L604:
 4750 08a0 00000000 		.word	v_ctl_climb_mode
 4751 08a4 00000000 		.word	nav_pitch
 4752 08a8 00000000 		.word	.LANCHOR46
 4753 08ac 00000000 		.word	v_ctl_mode
 4754 08b0 00000000 		.word	waypoints
 4755 08b4 00000000 		.word	nav_altitude
 4756 08b8 00000000 		.word	v_ctl_altitude_pre_climb
 4757 08bc 00000000 		.word	.LANCHOR48
 4758 08c0 00000000 		.word	.LANCHOR59
 4759 08c4 00000000 		.word	.LANCHOR44
 4760 08c8 00000000 		.word	.LANCHOR45
 4761 08cc 00000000 		.word	.LANCHOR58
 4762 08d0 00000000 		.word	.LANCHOR55
 4763 08d4 00000000 		.word	nav_circle_trigo_qdr
 4764 08d8 182D4454 		.word	1413754136
 4765 08dc FB21F93F 		.word	1073291771
 4766 08e0 F8C1631A 		.word	442745336
 4767 08e4 DCA54C40 		.word	1078765020
 4768 08e8 0000B443 		.word	1135869952
 4769 08ec 0000AF43 		.word	1135542272
 4770 08f0 00002041 		.word	1092616192
 4771 08f4 00000000 		.word	.LANCHOR56
 4772 08f8 00000000 		.word	.LANCHOR57
 4773 08fc 00000000 		.word	.LANCHOR54
 4774 0900 00000000 		.word	.LANCHOR60
 4775 0904 00000000 		.word	.LANCHOR50
 4776 0908 00806640 		.word	1080459264
 4777 090c 00000000 		.word	PolySurveySweepBackNum
 4778 0910 00000000 		.word	.LANCHOR47
 4779 0914 00000000 		.word	.LANCHOR53
 4780 0918 00000000 		.word	.LANCHOR52
 4781 091c 00000000 		.word	.LANCHOR51
 4782 0920 00000000 		.word	PolySurveySweepNum
 4783 0924 00000000 		.word	nav_circle_radians
 4784 0928 FB211940 		.word	1075388923
 4785 092c 9A999999 		.word	-1717986918
 4786 0930 9999B93F 		.word	1069128089
 4787 0934 00000000 		.word	estimator_z
 4789              		.section	.text.FindInterceptOfTwoLines,"ax",%progbits
 4790              		.align	2
 4791              		.global	FindInterceptOfTwoLines
 4793              	FindInterceptOfTwoLines:
 4794              		@ Function supports interworking.
 4795              		@ args = 24, pretend = 8, frame = 0
 4796              		@ frame_needed = 0, uses_anonymous_args = 0
 4797 0000 08D04DE2 		sub	sp, sp, #8
 4798 0004 F0412DE9 		stmfd	sp!, {r4, r5, r6, r7, r8, lr}
 4799 0008 0160A0E1 		mov	r6, r1
 4800 000c 14108DE2 		add	r1, sp, #20
 4801 0010 0C0081E9 		stmib	r1, {r2, r3}
 4802 0014 1C509DE5 		ldr	r5, [sp, #28]	@ float
 4803 0018 0070A0E1 		mov	r7, r0
 4804 001c 0510A0E1 		mov	r1, r5
 4805 0020 28009DE5 		ldr	r0, [sp, #40]	@ float
 4806 0024 FEFFFFEB 		bl	__aeabi_fsub
 4807 0028 18409DE5 		ldr	r4, [sp, #24]	@ float
 4808 002c 0080A0E1 		mov	r8, r0
 4809 0030 24109DE5 		ldr	r1, [sp, #36]	@ float
 4810 0034 0400A0E1 		mov	r0, r4
 4811 0038 FEFFFFEB 		bl	__aeabi_fsub
 4812 003c 0010A0E1 		mov	r1, r0
 4813 0040 0800A0E1 		mov	r0, r8
 4814 0044 FEFFFFEB 		bl	__aeabi_fdiv
 4815 0048 0010A0E1 		mov	r1, r0
 4816 004c 000087E5 		str	r0, [r7]	@ float
 4817 0050 0400A0E1 		mov	r0, r4
 4818 0054 FEFFFFEB 		bl	__aeabi_fmul
 4819 0058 0510A0E1 		mov	r1, r5
 4820 005c FEFFFFEB 		bl	__aeabi_fadd
 4821 0060 000086E5 		str	r0, [r6]	@ float
 4822 0064 F041BDE8 		ldmfd	sp!, {r4, r5, r6, r7, r8, lr}
 4823 0068 08D08DE2 		add	sp, sp, #8
 4824 006c 1EFF2FE1 		bx	lr
 4826              		.section	.text.EvaluateLineForY,"ax",%progbits
 4827              		.align	2
 4828              		.global	EvaluateLineForY
 4830              	EvaluateLineForY:
 4831              		@ Function supports interworking.
 4832              		@ args = 0, pretend = 0, frame = 16
 4833              		@ frame_needed = 0, uses_anonymous_args = 0
 4834 0000 1F402DE9 		stmfd	sp!, {r0, r1, r2, r3, r4, lr}
 4835 0004 10C08DE2 		add	ip, sp, #16
 4836 0008 0E000CE9 		stmdb	ip, {r1, r2, r3}
 4837 000c 04109DE5 		ldr	r1, [sp, #4]	@ float
 4838 0010 FEFFFFEB 		bl	__aeabi_fmul
 4839 0014 08109DE5 		ldr	r1, [sp, #8]	@ float
 4840 0018 FEFFFFEB 		bl	__aeabi_fadd
 4841 001c 14D08DE2 		add	sp, sp, #20
 4842              		@ sp needed
 4843 0020 04E09DE4 		ldr	lr, [sp], #4
 4844 0024 1EFF2FE1 		bx	lr
 4846              		.section	.text.EvaluateLineForX,"ax",%progbits
 4847              		.align	2
 4848              		.global	EvaluateLineForX
 4850              	EvaluateLineForX:
 4851              		@ Function supports interworking.
 4852              		@ args = 0, pretend = 0, frame = 16
 4853              		@ frame_needed = 0, uses_anonymous_args = 0
 4854 0000 1F402DE9 		stmfd	sp!, {r0, r1, r2, r3, r4, lr}
 4855 0004 10C08DE2 		add	ip, sp, #16
 4856 0008 0E000CE9 		stmdb	ip, {r1, r2, r3}
 4857 000c 08109DE5 		ldr	r1, [sp, #8]	@ float
 4858 0010 FEFFFFEB 		bl	__aeabi_fsub
 4859 0014 04109DE5 		ldr	r1, [sp, #4]	@ float
 4860 0018 FEFFFFEB 		bl	__aeabi_fdiv
 4861 001c 14D08DE2 		add	sp, sp, #20
 4862              		@ sp needed
 4863 0020 04E09DE4 		ldr	lr, [sp], #4
 4864 0024 1EFF2FE1 		bx	lr
 4866              		.section	.text.DistanceEquation,"ax",%progbits
 4867              		.align	2
 4868              		.global	DistanceEquation
 4870              	DistanceEquation:
 4871              		@ Function supports interworking.
 4872              		@ args = 0, pretend = 0, frame = 16
 4873              		@ frame_needed = 0, uses_anonymous_args = 0
 4874 0000 30402DE9 		stmfd	sp!, {r4, r5, lr}
 4875 0004 14D04DE2 		sub	sp, sp, #20
 4876 0008 10C08DE2 		add	ip, sp, #16
 4877 000c 03000CE9 		stmdb	ip, {r0, r1}
 4878 0010 0C008DE8 		stmia	sp, {r2, r3}
 4879 0014 08009DE5 		ldr	r0, [sp, #8]	@ float
 4880 0018 00109DE5 		ldr	r1, [sp]	@ float
 4881 001c FEFFFFEB 		bl	__aeabi_fsub
 4882 0020 04109DE5 		ldr	r1, [sp, #4]	@ float
 4883 0024 0040A0E1 		mov	r4, r0
 4884 0028 0C009DE5 		ldr	r0, [sp, #12]	@ float
 4885 002c FEFFFFEB 		bl	__aeabi_fsub
 4886 0030 0410A0E1 		mov	r1, r4
 4887 0034 0050A0E1 		mov	r5, r0
 4888 0038 0400A0E1 		mov	r0, r4
 4889 003c FEFFFFEB 		bl	__aeabi_fmul
 4890 0040 0510A0E1 		mov	r1, r5
 4891 0044 0040A0E1 		mov	r4, r0
 4892 0048 0500A0E1 		mov	r0, r5
 4893 004c FEFFFFEB 		bl	__aeabi_fmul
 4894 0050 0010A0E1 		mov	r1, r0
 4895 0054 0400A0E1 		mov	r0, r4
 4896 0058 FEFFFFEB 		bl	__aeabi_fadd
 4897 005c FEFFFFEB 		bl	__aeabi_f2d
 4898 0060 FEFFFFEB 		bl	sqrt
 4899 0064 FEFFFFEB 		bl	__aeabi_d2f
 4900 0068 14D08DE2 		add	sp, sp, #20
 4901              		@ sp needed
 4902 006c 3040BDE8 		ldmfd	sp!, {r4, r5, lr}
 4903 0070 1EFF2FE1 		bx	lr
 4905              		.comm	PolySurveySweepBackNum,2,2
 4906              		.comm	PolySurveySweepNum,2,2
 4907              		.section	.bss.DistanceFromCenter,"aw",%nobits
 4908              		.align	2
 4909              		.set	.LANCHOR7,. + 0
 4912              	DistanceFromCenter:
 4913 0000 00000000 		.space	4
 4914              		.section	.bss.EdgeMinY,"aw",%nobits
 4915              		.align	2
 4916              		.set	.LANCHOR53,. + 0
 4919              	EdgeMinY:
 4920 0000 00000000 		.space	40
 4920      00000000 
 4920      00000000 
 4920      00000000 
 4920      00000000 
 4921              		.section	.bss.SurveyTheta,"aw",%nobits
 4922              		.align	2
 4923              		.set	.LANCHOR45,. + 0
 4926              	SurveyTheta:
 4927 0000 00000000 		.space	4
 4928              		.section	.bss.SurveyCircleQdr,"aw",%nobits
 4929              		.align	2
 4930              		.set	.LANCHOR55,. + 0
 4933              	SurveyCircleQdr:
 4934 0000 00000000 		.space	4
 4935              		.section	.bss.FlyFromX,"aw",%nobits
 4936              		.align	2
 4937              		.set	.LANCHOR11,. + 0
 4940              	FlyFromX:
 4941 0000 00000000 		.space	4
 4942              		.section	.bss.FlyFromY,"aw",%nobits
 4943              		.align	2
 4944              		.set	.LANCHOR12,. + 0
 4947              	FlyFromY:
 4948 0000 00000000 		.space	4
 4949              		.section	.bss.FLBlockCount,"aw",%nobits
 4950              		.set	.LANCHOR43,. + 0
 4953              	FLBlockCount:
 4954 0000 00       		.space	1
 4955              		.section	.bss.LandAppAlt,"aw",%nobits
 4956              		.align	2
 4957              		.set	.LANCHOR31,. + 0
 4960              	LandAppAlt:
 4961 0000 00000000 		.space	4
 4962              		.section	.bss.SurveyCircle,"aw",%nobits
 4963              		.align	2
 4964              		.set	.LANCHOR59,. + 0
 4967              	SurveyCircle:
 4968 0000 00000000 		.space	8
 4968      00000000 
 4969              		.section	.bss.Fly2X,"aw",%nobits
 4970              		.align	2
 4971              		.set	.LANCHOR9,. + 0
 4974              	Fly2X:
 4975 0000 00000000 		.space	4
 4976              		.section	.bss.Fly2Y,"aw",%nobits
 4977              		.align	2
 4978              		.set	.LANCHOR10,. + 0
 4981              	Fly2Y:
 4982 0000 00000000 		.space	4
 4983              		.section	.bss.Flowerradius,"aw",%nobits
 4984              		.align	2
 4985              		.set	.LANCHOR4,. + 0
 4988              	Flowerradius:
 4989 0000 00000000 		.space	4
 4990              		.section	.bss.SurveySize,"aw",%nobits
 4991              		.set	.LANCHOR47,. + 0
 4994              	SurveySize:
 4995 0000 00       		.space	1
 4996              		.section	.bss.LandCircle,"aw",%nobits
 4997              		.align	2
 4998              		.set	.LANCHOR34,. + 0
 5001              	LandCircle:
 5002 0000 00000000 		.space	8
 5002      00000000 
 5003              		.section	.bss.TDWaypoint,"aw",%nobits
 5004              		.set	.LANCHOR28,. + 0
 5007              	TDWaypoint:
 5008 0000 00       		.space	1
 5009              		.section	.bss.EntryPoint.5928,"aw",%nobits
 5010              		.align	2
 5011              		.set	.LANCHOR49,. + 0
 5014              	EntryPoint.5928:
 5015 0000 00000000 		.space	8
 5015      00000000 
 5016              		.section	.bss.line_status,"aw",%nobits
 5017              		.set	.LANCHOR26,. + 0
 5020              	line_status:
 5021 0000 00       		.space	1
 5022              		.section	.bss.FLCircle,"aw",%nobits
 5023              		.align	2
 5024              		.set	.LANCHOR42,. + 0
 5027              	FLCircle:
 5028 0000 00000000 		.space	8
 5028      00000000 
 5029              		.section	.bss.FLFROMWP,"aw",%nobits
 5030              		.align	2
 5031              		.set	.LANCHOR40,. + 0
 5034              	FLFROMWP:
 5035 0000 00000000 		.space	8
 5035      00000000 
 5036              		.section	.bss.EdgeCurrentX,"aw",%nobits
 5037              		.align	2
 5038              		.set	.LANCHOR2,. + 0
 5041              	EdgeCurrentX:
 5042 0000 00000000 		.space	4
 5043              		.section	.bss.Edge,"aw",%nobits
 5044              		.set	.LANCHOR1,. + 0
 5047              	Edge:
 5048 0000 00       		.space	1
 5049              		.section	.bss.EdgeCurrentY,"aw",%nobits
 5050              		.align	2
 5051              		.set	.LANCHOR3,. + 0
 5054              	EdgeCurrentY:
 5055 0000 00000000 		.space	4
 5056              		.section	.bss.BungeeAlt,"aw",%nobits
 5057              		.align	2
 5058              		.set	.LANCHOR20,. + 0
 5061              	BungeeAlt:
 5062 0000 00000000 		.space	4
 5063              		.section	.bss.LastPoint.5966,"aw",%nobits
 5064              		.align	2
 5065              		.set	.LANCHOR60,. + 0
 5068              	LastPoint.5966:
 5069 0000 00000000 		.space	8
 5069      00000000 
 5070              		.section	.bss.ThrottleSlope,"aw",%nobits
 5071              		.align	2
 5072              		.set	.LANCHOR23,. + 0
 5075              	ThrottleSlope:
 5076 0000 00000000 		.space	4
 5077              		.section	.bss.throttlePy,"aw",%nobits
 5078              		.align	2
 5079              		.set	.LANCHOR22,. + 0
 5082              	throttlePy:
 5083 0000 00000000 		.space	4
 5084              		.section	.bss.Edges,"aw",%nobits
 5085              		.align	2
 5086              		.set	.LANCHOR51,. + 0
 5089              	Edges:
 5090 0000 00000000 		.space	120
 5090      00000000 
 5090      00000000 
 5090      00000000 
 5090      00000000 
 5091              		.section	.bss.throttlePx,"aw",%nobits
 5092              		.align	2
 5093              		.set	.LANCHOR21,. + 0
 5096              	throttlePx:
 5097 0000 00000000 		.space	4
 5098              		.section	.bss.TDistance,"aw",%nobits
 5099              		.align	2
 5100              		.set	.LANCHOR19,. + 0
 5103              	TDistance:
 5104 0000 00000000 		.space	4
 5105              		.section	.bss.FinalLandAltitude,"aw",%nobits
 5106              		.align	2
 5107              		.set	.LANCHOR32,. + 0
 5110              	FinalLandAltitude:
 5111 0000 00000000 		.space	4
 5112              		.section	.bss.LandCircleQDR,"aw",%nobits
 5113              		.align	2
 5114              		.set	.LANCHOR35,. + 0
 5117              	LandCircleQDR:
 5118 0000 00000000 		.space	4
 5119              		.section	.bss.SurveyEntryWP,"aw",%nobits
 5120              		.set	.LANCHOR46,. + 0
 5123              	SurveyEntryWP:
 5124 0000 00       		.space	1
 5125              		.section	.bss.CircleX,"aw",%nobits
 5126              		.align	2
 5127              		.set	.LANCHOR14,. + 0
 5130              	CircleX:
 5131 0000 00000000 		.space	4
 5132              		.section	.bss.CircleY,"aw",%nobits
 5133              		.align	2
 5134              		.set	.LANCHOR15,. + 0
 5137              	CircleY:
 5138 0000 00000000 		.space	4
 5139              		.section	.bss.CFLStatus,"aw",%nobits
 5140              		.set	.LANCHOR37,. + 0
 5143              	CFLStatus:
 5144 0000 00       		.space	1
 5145              		.section	.bss.BungeeWaypoint,"aw",%nobits
 5146              		.set	.LANCHOR18,. + 0
 5149              	BungeeWaypoint:
 5150 0000 00       		.space	1
 5151              		.section	.bss.FinalLandCount,"aw",%nobits
 5152              		.set	.LANCHOR33,. + 0
 5155              	FinalLandCount:
 5156 0000 00       		.space	1
 5157              		.section	.bss.dSweep,"aw",%nobits
 5158              		.align	2
 5159              		.set	.LANCHOR54,. + 0
 5162              	dSweep:
 5163 0000 00000000 		.space	4
 5164              		.section	.bss.FlowerTheta,"aw",%nobits
 5165              		.align	2
 5166              		.set	.LANCHOR8,. + 0
 5169              	FlowerTheta:
 5170 0000 00000000 		.space	4
 5171              		.section	.bss.AFWaypoint,"aw",%nobits
 5172              		.set	.LANCHOR27,. + 0
 5175              	AFWaypoint:
 5176 0000 00       		.space	1
 5177              		.section	.bss.TransCurrentX,"aw",%nobits
 5178              		.align	2
 5179              		.set	.LANCHOR5,. + 0
 5182              	TransCurrentX:
 5183 0000 00000000 		.space	4
 5184              		.section	.bss.CLandingStatus,"aw",%nobits
 5185              		.set	.LANCHOR29,. + 0
 5188              	CLandingStatus:
 5189 0000 00       		.space	1
 5190              		.section	.bss.initialx,"aw",%nobits
 5191              		.align	2
 5192              		.set	.LANCHOR16,. + 0
 5195              	initialx:
 5196 0000 00000000 		.space	4
 5197              		.section	.bss.initialy,"aw",%nobits
 5198              		.align	2
 5199              		.set	.LANCHOR17,. + 0
 5202              	initialy:
 5203 0000 00000000 		.space	4
 5204              		.section	.bss.EdgeMaxY,"aw",%nobits
 5205              		.align	2
 5206              		.set	.LANCHOR52,. + 0
 5209              	EdgeMaxY:
 5210 0000 00000000 		.space	40
 5210      00000000 
 5210      00000000 
 5210      00000000 
 5210      00000000 
 5211              		.section	.bss.CTakeoffStatus,"aw",%nobits
 5212              		.set	.LANCHOR25,. + 0
 5215              	CTakeoffStatus:
 5216 0000 00       		.space	1
 5217              		.section	.bss.TransCurrentY,"aw",%nobits
 5218              		.align	2
 5219              		.set	.LANCHOR6,. + 0
 5222              	TransCurrentY:
 5223 0000 00000000 		.space	4
 5224              		.section	.bss.SmallestCorner,"aw",%nobits
 5225              		.align	2
 5226              		.set	.LANCHOR44,. + 0
 5229              	SmallestCorner:
 5230 0000 00000000 		.space	8
 5230      00000000 
 5231              		.section	.bss.CFlowerStatus,"aw",%nobits
 5232              		.set	.LANCHOR13,. + 0
 5235              	CFlowerStatus:
 5236 0000 00       		.space	1
 5237              		.section	.bss.SurveyFromWP,"aw",%nobits
 5238              		.align	2
 5239              		.set	.LANCHOR57,. + 0
 5242              	SurveyFromWP:
 5243 0000 00000000 		.space	8
 5243      00000000 
 5244              		.section	.bss.SurveyToWP,"aw",%nobits
 5245              		.align	2
 5246              		.set	.LANCHOR56,. + 0
 5249              	SurveyToWP:
 5250 0000 00000000 		.space	8
 5250      00000000 
 5251              		.section	.bss.MaxY,"aw",%nobits
 5252              		.align	2
 5253              		.set	.LANCHOR50,. + 0
 5256              	MaxY:
 5257 0000 00000000 		.space	4
 5258              		.section	.bss.FLTOWP,"aw",%nobits
 5259              		.align	2
 5260              		.set	.LANCHOR41,. + 0
 5263              	FLTOWP:
 5264 0000 00000000 		.space	8
 5264      00000000 
 5265              		.section	.bss.LandRadius,"aw",%nobits
 5266              		.align	2
 5267              		.set	.LANCHOR30,. + 0
 5270              	LandRadius:
 5271 0000 00000000 		.space	4
 5272              		.section	.bss.Center,"aw",%nobits
 5273              		.set	.LANCHOR0,. + 0
 5276              	Center:
 5277 0000 00       		.space	1
 5278              		.section	.bss.FLQDR,"aw",%nobits
 5279              		.align	2
 5280              		.set	.LANCHOR39,. + 0
 5283              	FLQDR:
 5284 0000 00000000 		.space	4
 5285              		.section	.bss.SurveyRadius,"aw",%nobits
 5286              		.align	2
 5287              		.set	.LANCHOR58,. + 0
 5290              	SurveyRadius:
 5291 0000 00000000 		.space	4
 5292              		.section	.bss.AboveLine,"aw",%nobits
 5293              		.set	.LANCHOR24,. + 0
 5296              	AboveLine:
 5297 0000 00       		.space	1
 5298              		.section	.bss.CSurveyStatus,"aw",%nobits
 5299              		.set	.LANCHOR48,. + 0
 5302              	CSurveyStatus:
 5303 0000 00       		.space	1
 5304              		.section	.bss.FLRadius,"aw",%nobits
 5305              		.align	2
 5306              		.set	.LANCHOR38,. + 0
 5309              	FLRadius:
 5310 0000 00000000 		.space	4
 5311              		.section	.bss.ApproachQDR,"aw",%nobits
 5312              		.align	2
 5313              		.set	.LANCHOR36,. + 0
 5316              	ApproachQDR:
 5317 0000 00000000 		.space	4
 5318              		.ident	"GCC: (GNU Tools for ARM Embedded Processors) 4.8.3 20131129 (release) [ARM/embedded-4_8-br