   1              		.cpu arm7tdmi
   2              		.fpu softvfp
   3              		.eabi_attribute 20, 1
   4              		.eabi_attribute 21, 1
   5              		.eabi_attribute 23, 3
   6              		.eabi_attribute 24, 1
   7              		.eabi_attribute 25, 1
   8              		.eabi_attribute 26, 1
   9              		.eabi_attribute 30, 4
  10              		.eabi_attribute 18, 4
  11              		.file	"OSAMNav.c"
  12              		.global	__aeabi_fsub
  13              		.global	__aeabi_fmul
  14              		.global	__aeabi_fadd
  15              		.global	__aeabi_f2d
  16              		.global	__aeabi_d2f
  17              		.global	__aeabi_dadd
  18              		.global	__aeabi_dmul
  19              		.global	__aeabi_fcmpgt
  20              		.section	.text.InitializeFlower,"ax",%progbits
  21              		.align	2
  22              		.global	InitializeFlower
  24              	InitializeFlower:
  25              		@ Function supports interworking.
  26              		@ args = 0, pretend = 0, frame = 24
  27              		@ frame_needed = 0, uses_anonymous_args = 0
  28 0000 74329FE5 		ldr	r3, .L8
  29 0004 F04F2DE9 		stmfd	sp!, {r4, r5, r6, r7, r8, r9, sl, fp, lr}
  30 0008 0000C3E5 		strb	r0, [r3, #0]
  31 000c 6C329FE5 		ldr	r3, .L8+4
  32 0010 0C50A0E3 		mov	r5, #12
  33 0014 0010C3E5 		strb	r1, [r3, #0]
  34 0018 950101E0 		mul	r1, r5, r1
  35 001c 900505E0 		mul	r5, r0, r5
  36 0020 5C429FE5 		ldr	r4, .L8+8
  37 0024 1CD04DE2 		sub	sp, sp, #28
  38 0028 010094E7 		ldr	r0, [r4, r1]	@ float
  39 002c 017084E0 		add	r7, r4, r1
  40 0030 051094E7 		ldr	r1, [r4, r5]	@ float
  41 0034 FEFFFFEB 		bl	__aeabi_fsub
  42 0038 48329FE5 		ldr	r3, .L8+12
  43 003c 000083E5 		str	r0, [r3, #0]	@ float
  44 0040 056084E0 		add	r6, r4, r5
  45 0044 041096E5 		ldr	r1, [r6, #4]	@ float
  46 0048 0080A0E1 		mov	r8, r0
  47 004c 040097E5 		ldr	r0, [r7, #4]	@ float
  48 0050 FEFFFFEB 		bl	__aeabi_fsub
  49 0054 30329FE5 		ldr	r3, .L8+16
  50 0058 0070A0E1 		mov	r7, r0
  51 005c 000083E5 		str	r0, [r3, #0]	@ float
  52 0060 0810A0E1 		mov	r1, r8
  53 0064 0800A0E1 		mov	r0, r8
  54 0068 FEFFFFEB 		bl	__aeabi_fmul
  55 006c 0710A0E1 		mov	r1, r7
  56 0070 0080A0E1 		mov	r8, r0
  57 0074 0700A0E1 		mov	r0, r7
  58 0078 FEFFFFEB 		bl	__aeabi_fmul
  59 007c 0010A0E1 		mov	r1, r0
  60 0080 0800A0E1 		mov	r0, r8
  61 0084 FEFFFFEB 		bl	__aeabi_fadd
  62 0088 FEFFFFEB 		bl	__aeabi_f2d
  63 008c FEFFFFEB 		bl	sqrt
  64 0090 FEFFFFEB 		bl	__aeabi_d2f
  65 0094 F4319FE5 		ldr	r3, .L8+20
  66 0098 F4819FE5 		ldr	r8, .L8+24
  67 009c 000083E5 		str	r0, [r3, #0]	@ float
  68 00a0 0070A0E1 		mov	r7, r0
  69 00a4 051094E7 		ldr	r1, [r4, r5]	@ float
  70 00a8 000098E5 		ldr	r0, [r8, #0]	@ float
  71 00ac FEFFFFEB 		bl	__aeabi_fsub
  72 00b0 E0319FE5 		ldr	r3, .L8+28
  73 00b4 E0C19FE5 		ldr	ip, .L8+32
  74 00b8 000083E5 		str	r0, [r3, #0]	@ float
  75 00bc 00A0A0E1 		mov	sl, r0
  76 00c0 041096E5 		ldr	r1, [r6, #4]	@ float
  77 00c4 00009CE5 		ldr	r0, [ip, #0]	@ float
  78 00c8 04C08DE5 		str	ip, [sp, #4]
  79 00cc FEFFFFEB 		bl	__aeabi_fsub
  80 00d0 C8319FE5 		ldr	r3, .L8+36
  81 00d4 00B0A0E1 		mov	fp, r0
  82 00d8 000083E5 		str	r0, [r3, #0]	@ float
  83 00dc 0A10A0E1 		mov	r1, sl
  84 00e0 0A00A0E1 		mov	r0, sl
  85 00e4 FEFFFFEB 		bl	__aeabi_fmul
  86 00e8 0B10A0E1 		mov	r1, fp
  87 00ec 0090A0E1 		mov	r9, r0
  88 00f0 0B00A0E1 		mov	r0, fp
  89 00f4 FEFFFFEB 		bl	__aeabi_fmul
  90 00f8 0010A0E1 		mov	r1, r0
  91 00fc 0900A0E1 		mov	r0, r9
  92 0100 FEFFFFEB 		bl	__aeabi_fadd
  93 0104 FEFFFFEB 		bl	__aeabi_f2d
  94 0108 FEFFFFEB 		bl	sqrt
  95 010c FEFFFFEB 		bl	__aeabi_d2f
  96 0110 8C319FE5 		ldr	r3, .L8+40
  97 0114 0090A0E1 		mov	r9, r0
  98 0118 000083E5 		str	r0, [r3, #0]	@ float
  99 011c 0B00A0E1 		mov	r0, fp
 100 0120 FEFFFFEB 		bl	__aeabi_f2d
 101 0124 08008DE5 		str	r0, [sp, #8]
 102 0128 0C108DE5 		str	r1, [sp, #12]
 103 012c 0A00A0E1 		mov	r0, sl
 104 0130 FEFFFFEB 		bl	__aeabi_f2d
 105 0134 0020A0E1 		mov	r2, r0
 106 0138 0130A0E1 		mov	r3, r1
 107 013c 08108DE2 		add	r1, sp, #8
 108 0140 030091E8 		ldmia	r1, {r0-r1}
 109 0144 FEFFFFEB 		bl	atan2
 110 0148 FEFFFFEB 		bl	__aeabi_d2f
 111 014c 54319FE5 		ldr	r3, .L8+44
 112 0150 00A0A0E1 		mov	sl, r0
 113 0154 000083E5 		str	r0, [r3, #0]	@ float
 114 0158 0700A0E1 		mov	r0, r7
 115 015c FEFFFFEB 		bl	__aeabi_f2d
 116 0160 08008DE5 		str	r0, [sp, #8]
 117 0164 0C108DE5 		str	r1, [sp, #12]
 118 0168 0A00A0E1 		mov	r0, sl
 119 016c FEFFFFEB 		bl	__aeabi_f2d
 120 0170 34219FE5 		ldr	r2, .L8+48
 121 0174 34319FE5 		ldr	r3, .L8+52
 122 0178 FEFFFFEB 		bl	__aeabi_dadd
 123 017c 10008DE5 		str	r0, [sp, #16]
 124 0180 14108DE5 		str	r1, [sp, #20]
 125 0184 FEFFFFEB 		bl	cos
 126 0188 0020A0E1 		mov	r2, r0
 127 018c 0130A0E1 		mov	r3, r1
 128 0190 08108DE2 		add	r1, sp, #8
 129 0194 030091E8 		ldmia	r1, {r0-r1}
 130 0198 FEFFFFEB 		bl	__aeabi_dmul
 131 019c 00A0A0E1 		mov	sl, r0
 132 01a0 050094E7 		ldr	r0, [r4, r5]	@ float
 133 01a4 01B0A0E1 		mov	fp, r1
 134 01a8 FEFFFFEB 		bl	__aeabi_f2d
 135 01ac 0020A0E1 		mov	r2, r0
 136 01b0 0130A0E1 		mov	r3, r1
 137 01b4 0A00A0E1 		mov	r0, sl
 138 01b8 0B10A0E1 		mov	r1, fp
 139 01bc FEFFFFEB 		bl	__aeabi_dadd
 140 01c0 FEFFFFEB 		bl	__aeabi_d2f
 141 01c4 E8309FE5 		ldr	r3, .L8+56
 142 01c8 000083E5 		str	r0, [r3, #0]	@ float
 143 01cc 10108DE2 		add	r1, sp, #16
 144 01d0 030091E8 		ldmia	r1, {r0-r1}
 145 01d4 FEFFFFEB 		bl	sin
 146 01d8 0020A0E1 		mov	r2, r0
 147 01dc 0130A0E1 		mov	r3, r1
 148 01e0 08108DE2 		add	r1, sp, #8
 149 01e4 030091E8 		ldmia	r1, {r0-r1}
 150 01e8 FEFFFFEB 		bl	__aeabi_dmul
 151 01ec 0040A0E1 		mov	r4, r0
 152 01f0 040096E5 		ldr	r0, [r6, #4]	@ float
 153 01f4 0150A0E1 		mov	r5, r1
 154 01f8 FEFFFFEB 		bl	__aeabi_f2d
 155 01fc 0020A0E1 		mov	r2, r0
 156 0200 0130A0E1 		mov	r3, r1
 157 0204 0400A0E1 		mov	r0, r4
 158 0208 0510A0E1 		mov	r1, r5
 159 020c FEFFFFEB 		bl	__aeabi_dadd
 160 0210 FEFFFFEB 		bl	__aeabi_d2f
 161 0214 9C309FE5 		ldr	r3, .L8+60
 162 0218 04C09DE5 		ldr	ip, [sp, #4]
 163 021c 000083E5 		str	r0, [r3, #0]	@ float
 164 0220 002098E5 		ldr	r2, [r8, #0]	@ float
 165 0224 90309FE5 		ldr	r3, .L8+64
 166 0228 002083E5 		str	r2, [r3, #0]	@ float
 167 022c 00209CE5 		ldr	r2, [ip, #0]	@ float
 168 0230 88309FE5 		ldr	r3, .L8+68
 169 0234 0900A0E1 		mov	r0, r9
 170 0238 002083E5 		str	r2, [r3, #0]	@ float
 171 023c 0710A0E1 		mov	r1, r7
 172 0240 FEFFFFEB 		bl	__aeabi_fcmpgt
 173 0244 78309FE5 		ldr	r3, .L8+72
 174 0248 000050E3 		cmp	r0, #0
 175 024c 0020A013 		movne	r2, #0
 176 0250 0120A003 		moveq	r2, #1
 177 0254 0020C3E5 		strb	r2, [r3, #0]
 178 0258 68209FE5 		ldr	r2, .L8+76
 179 025c 0030A0E3 		mov	r3, #0
 180 0260 003082E5 		str	r3, [r2, #0]	@ float
 181 0264 60209FE5 		ldr	r2, .L8+80
 182 0268 0000A0E3 		mov	r0, #0
 183 026c 003082E5 		str	r3, [r2, #0]	@ float
 184 0270 1CD08DE2 		add	sp, sp, #28
 185 0274 F04FBDE8 		ldmfd	sp!, {r4, r5, r6, r7, r8, r9, sl, fp, lr}
 186 0278 1EFF2FE1 		bx	lr
 187              	.L9:
 188              		.align	2
 189              	.L8:
 190 027c 00000000 		.word	.LANCHOR0
 191 0280 00000000 		.word	.LANCHOR1
 192 0284 00000000 		.word	waypoints
 193 0288 00000000 		.word	.LANCHOR2
 194 028c 00000000 		.word	.LANCHOR3
 195 0290 00000000 		.word	.LANCHOR4
 196 0294 00000000 		.word	estimator_x
 197 0298 00000000 		.word	.LANCHOR5
 198 029c 00000000 		.word	estimator_y
 199 02a0 00000000 		.word	.LANCHOR6
 200 02a4 00000000 		.word	.LANCHOR7
 201 02a8 00000000 		.word	.LANCHOR8
 202 02ac 1F85EB51 		.word	1374389535
 203 02b0 B81E0940 		.word	1074339512
 204 02b4 00000000 		.word	.LANCHOR9
 205 02b8 00000000 		.word	.LANCHOR10
 206 02bc 00000000 		.word	.LANCHOR11
 207 02c0 00000000 		.word	.LANCHOR12
 208 02c4 00000000 		.word	.LANCHOR13
 209 02c8 00000000 		.word	.LANCHOR14
 210 02cc 00000000 		.word	.LANCHOR15
 212              		.global	__aeabi_fdiv
 213              		.global	__aeabi_dsub
 214              		.section	.text.FlowerNav,"ax",%progbits
 215              		.align	2
 216              		.global	FlowerNav
 218              	FlowerNav:
 219              		@ Function supports interworking.
 220              		@ args = 0, pretend = 0, frame = 24
 221              		@ frame_needed = 0, uses_anonymous_args = 0
 222 0000 F04F2DE9 		stmfd	sp!, {r4, r5, r6, r7, r8, r9, sl, fp, lr}
 223 0004 C4359FE5 		ldr	r3, .L23
 224 0008 0050D3E5 		ldrb	r5, [r3, #0]	@ zero_extendqisi2
 225 000c 0C30A0E3 		mov	r3, #12
 226 0010 950303E0 		mul	r3, r5, r3
 227 0014 B8259FE5 		ldr	r2, .L23+4
 228 0018 B8159FE5 		ldr	r1, .L23+8
 229 001c 1CD04DE2 		sub	sp, sp, #28
 230 0020 000091E5 		ldr	r0, [r1, #0]	@ float
 231 0024 031092E7 		ldr	r1, [r2, r3]	@ float
 232 0028 034082E0 		add	r4, r2, r3
 233 002c FEFFFFEB 		bl	__aeabi_fsub
 234 0030 A4359FE5 		ldr	r3, .L23+12
 235 0034 000083E5 		str	r0, [r3, #0]	@ float
 236 0038 A0359FE5 		ldr	r3, .L23+16
 237 003c 041094E5 		ldr	r1, [r4, #4]	@ float
 238 0040 0060A0E1 		mov	r6, r0
 239 0044 000093E5 		ldr	r0, [r3, #0]	@ float
 240 0048 FEFFFFEB 		bl	__aeabi_fsub
 241 004c 90359FE5 		ldr	r3, .L23+20
 242 0050 0040A0E1 		mov	r4, r0
 243 0054 000083E5 		str	r0, [r3, #0]	@ float
 244 0058 0610A0E1 		mov	r1, r6
 245 005c 0600A0E1 		mov	r0, r6
 246 0060 FEFFFFEB 		bl	__aeabi_fmul
 247 0064 0410A0E1 		mov	r1, r4
 248 0068 0060A0E1 		mov	r6, r0
 249 006c 0400A0E1 		mov	r0, r4
 250 0070 FEFFFFEB 		bl	__aeabi_fmul
 251 0074 0010A0E1 		mov	r1, r0
 252 0078 0600A0E1 		mov	r0, r6
 253 007c FEFFFFEB 		bl	__aeabi_fadd
 254 0080 FEFFFFEB 		bl	__aeabi_f2d
 255 0084 FEFFFFEB 		bl	sqrt
 256 0088 FEFFFFEB 		bl	__aeabi_d2f
 257 008c 54359FE5 		ldr	r3, .L23+24
 258 0090 000083E5 		str	r0, [r3, #0]	@ float
 259 0094 50359FE5 		ldr	r3, .L23+28
 260 0098 001093E5 		ldr	r1, [r3, #0]	@ float
 261 009c FEFFFFEB 		bl	__aeabi_fcmpgt
 262 00a0 2C459FE5 		ldr	r4, .L23+4
 263 00a4 0C60A0E3 		mov	r6, #12
 264 00a8 964525E0 		mla	r5, r6, r5, r4
 265 00ac 3C359FE5 		ldr	r3, .L23+32
 266 00b0 3C259FE5 		ldr	r2, .L23+36
 267 00b4 0080A0E3 		mov	r8, #0
 268 00b8 0080C3E5 		strb	r8, [r3, #0]
 269 00bc 0030A0E3 		mov	r3, #0
 270 00c0 003082E5 		str	r3, [r2, #0]	@ float
 271 00c4 2C259FE5 		ldr	r2, .L23+40
 272 00c8 0310A0E3 		mov	r1, #3
 273 00cc 0010C2E5 		strb	r1, [r2, #0]
 274 00d0 24259FE5 		ldr	r2, .L23+44
 275 00d4 081095E5 		ldr	r1, [r5, #8]	@ float
 276 00d8 20559FE5 		ldr	r5, .L23+48
 277 00dc 001082E5 		str	r1, [r2, #0]	@ float
 278 00e0 1C259FE5 		ldr	r2, .L23+52
 279 00e4 000050E3 		cmp	r0, #0
 280 00e8 003082E5 		str	r3, [r2, #0]	@ float
 281 00ec 0030D5E5 		ldrb	r3, [r5, #0]	@ zero_extendqisi2
 282 00f0 0170A0E3 		mov	r7, #1
 283 00f4 0070A003 		moveq	r7, #0
 284 00f8 017027E2 		eor	r7, r7, #1
 285 00fc 010053E3 		cmp	r3, #1
 286 0100 FF7007E2 		and	r7, r7, #255
 287 0104 5900000A 		beq	.L14
 288 0108 0200003A 		bcc	.L13
 289 010c 020053E3 		cmp	r3, #2
 290 0110 2A01001A 		bne	.L12
 291 0114 A50000EA 		b	.L22
 292              	.L13:
 293 0118 E8949FE5 		ldr	r9, .L23+56
 294 011c E8B49FE5 		ldr	fp, .L23+60
 295 0120 E8849FE5 		ldr	r8, .L23+64
 296 0124 E8A49FE5 		ldr	sl, .L23+68
 297 0128 000099E5 		ldr	r0, [r9, #0]	@ float
 298 012c 00109BE5 		ldr	r1, [fp, #0]	@ float
 299 0130 002098E5 		ldr	r2, [r8, #0]	@ float
 300 0134 00309AE5 		ldr	r3, [sl, #0]	@ float
 301 0138 FEFFFFEB 		bl	nav_route_xy
 302 013c 000057E3 		cmp	r7, #0
 303 0140 1E01000A 		beq	.L12
 304 0144 0130A0E3 		mov	r3, #1
 305 0148 0030C5E5 		strb	r3, [r5, #0]
 306 014c 90349FE5 		ldr	r3, .L23+20
 307 0150 000093E5 		ldr	r0, [r3, #0]	@ float
 308 0154 FEFFFFEB 		bl	__aeabi_f2d
 309 0158 7C349FE5 		ldr	r3, .L23+12
 310 015c 03008DE8 		stmia	sp, {r0-r1}
 311 0160 000093E5 		ldr	r0, [r3, #0]	@ float
 312 0164 FEFFFFEB 		bl	__aeabi_f2d
 313 0168 0020A0E1 		mov	r2, r0
 314 016c 0130A0E1 		mov	r3, r1
 315 0170 03009DE8 		ldmia	sp, {r0-r1}
 316 0174 FEFFFFEB 		bl	atan2
 317 0178 FEFFFFEB 		bl	__aeabi_d2f
 318 017c 94349FE5 		ldr	r3, .L23+72
 319 0180 000083E5 		str	r0, [r3, #0]	@ float
 320 0184 60349FE5 		ldr	r3, .L23+28
 321 0188 0050A0E1 		mov	r5, r0
 322 018c 000093E5 		ldr	r0, [r3, #0]	@ float
 323 0190 FEFFFFEB 		bl	__aeabi_f2d
 324 0194 03008DE8 		stmia	sp, {r0-r1}
 325 0198 0500A0E1 		mov	r0, r5
 326 019c FEFFFFEB 		bl	__aeabi_f2d
 327 01a0 74249FE5 		ldr	r2, .L23+76
 328 01a4 74349FE5 		ldr	r3, .L23+80
 329 01a8 FEFFFFEB 		bl	__aeabi_dadd
 330 01ac 10008DE5 		str	r0, [sp, #16]
 331 01b0 14108DE5 		str	r1, [sp, #20]
 332 01b4 FEFFFFEB 		bl	cos
 333 01b8 10349FE5 		ldr	r3, .L23
 334 01bc 08008DE5 		str	r0, [sp, #8]
 335 01c0 0C108DE5 		str	r1, [sp, #12]
 336 01c4 0050D3E5 		ldrb	r5, [r3, #0]	@ zero_extendqisi2
 337 01c8 03009DE8 		ldmia	sp, {r0-r1}
 338 01cc 08308DE2 		add	r3, sp, #8
 339 01d0 0C0093E8 		ldmia	r3, {r2-r3}
 340 01d4 FEFFFFEB 		bl	__aeabi_dmul
 341 01d8 950606E0 		mul	r6, r5, r6
 342 01dc 08008DE5 		str	r0, [sp, #8]
 343 01e0 0C108DE5 		str	r1, [sp, #12]
 344 01e4 060094E7 		ldr	r0, [r4, r6]	@ float
 345 01e8 FEFFFFEB 		bl	__aeabi_f2d
 346 01ec 0020A0E1 		mov	r2, r0
 347 01f0 0130A0E1 		mov	r3, r1
 348 01f4 08108DE2 		add	r1, sp, #8
 349 01f8 030091E8 		ldmia	r1, {r0-r1}
 350 01fc FEFFFFEB 		bl	__aeabi_dadd
 351 0200 FEFFFFEB 		bl	__aeabi_d2f
 352 0204 000088E5 		str	r0, [r8, #0]	@ float
 353 0208 10108DE2 		add	r1, sp, #16
 354 020c 030091E8 		ldmia	r1, {r0-r1}
 355 0210 FEFFFFEB 		bl	sin
 356 0214 0020A0E1 		mov	r2, r0
 357 0218 0130A0E1 		mov	r3, r1
 358 021c 03009DE8 		ldmia	sp, {r0-r1}
 359 0220 FEFFFFEB 		bl	__aeabi_dmul
 360 0224 067084E0 		add	r7, r4, r6
 361 0228 0040A0E1 		mov	r4, r0
 362 022c 040097E5 		ldr	r0, [r7, #4]	@ float
 363 0230 0150A0E1 		mov	r5, r1
 364 0234 FEFFFFEB 		bl	__aeabi_f2d
 365 0238 0130A0E1 		mov	r3, r1
 366 023c 0020A0E1 		mov	r2, r0
 367 0240 0510A0E1 		mov	r1, r5
 368 0244 0400A0E1 		mov	r0, r4
 369 0248 FEFFFFEB 		bl	__aeabi_dadd
 370 024c FEFFFFEB 		bl	__aeabi_d2f
 371 0250 80339FE5 		ldr	r3, .L23+8
 372 0254 003093E5 		ldr	r3, [r3, #0]	@ float
 373 0258 003089E5 		str	r3, [r9, #0]	@ float
 374 025c 7C339FE5 		ldr	r3, .L23+16
 375 0260 003093E5 		ldr	r3, [r3, #0]	@ float
 376 0264 00008AE5 		str	r0, [sl, #0]	@ float
 377 0268 00308BE5 		str	r3, [fp, #0]	@ float
 378 026c D20000EA 		b	.L21
 379              	.L14:
 380 0270 90339FE5 		ldr	r3, .L23+56
 381 0274 000093E5 		ldr	r0, [r3, #0]	@ float
 382 0278 8C339FE5 		ldr	r3, .L23+60
 383 027c 001093E5 		ldr	r1, [r3, #0]	@ float
 384 0280 88339FE5 		ldr	r3, .L23+64
 385 0284 002093E5 		ldr	r2, [r3, #0]	@ float
 386 0288 84339FE5 		ldr	r3, .L23+68
 387 028c 003093E5 		ldr	r3, [r3, #0]	@ float
 388 0290 FEFFFFEB 		bl	nav_route_xy
 389 0294 000057E3 		cmp	r7, #0
 390 0298 C800001A 		bne	.L12
 391 029c 0230A0E3 		mov	r3, #2
 392 02a0 0030C5E5 		strb	r3, [r5, #0]
 393 02a4 40339FE5 		ldr	r3, .L23+28
 394 02a8 005093E5 		ldr	r5, [r3, #0]	@ float
 395 02ac 0500A0E1 		mov	r0, r5
 396 02b0 FEFFFFEB 		bl	__aeabi_f2d
 397 02b4 5C339FE5 		ldr	r3, .L23+72
 398 02b8 00A0A0E1 		mov	sl, r0
 399 02bc 000093E5 		ldr	r0, [r3, #0]	@ float
 400 02c0 01B0A0E1 		mov	fp, r1
 401 02c4 FEFFFFEB 		bl	__aeabi_f2d
 402 02c8 4C239FE5 		ldr	r2, .L23+76
 403 02cc 4C339FE5 		ldr	r3, .L23+80
 404 02d0 FEFFFFEB 		bl	__aeabi_dadd
 405 02d4 48339FE5 		ldr	r3, .L23+84
 406 02d8 0080A0E1 		mov	r8, r0
 407 02dc 0190A0E1 		mov	r9, r1
 408 02e0 000093E5 		ldr	r0, [r3, #0]	@ float
 409 02e4 0510A0E1 		mov	r1, r5
 410 02e8 FEFFFFEB 		bl	__aeabi_fdiv
 411 02ec FEFFFFEB 		bl	__aeabi_f2d
 412 02f0 0020A0E1 		mov	r2, r0
 413 02f4 0130A0E1 		mov	r3, r1
 414 02f8 0800A0E1 		mov	r0, r8
 415 02fc 0910A0E1 		mov	r1, r9
 416 0300 FEFFFFEB 		bl	__aeabi_dsub
 417 0304 03008DE8 		stmia	sp, {r0-r1}
 418 0308 FEFFFFEB 		bl	cos
 419 030c 0130A0E1 		mov	r3, r1
 420 0310 B8129FE5 		ldr	r1, .L23
 421 0314 0020A0E1 		mov	r2, r0
 422 0318 0050D1E5 		ldrb	r5, [r1, #0]	@ zero_extendqisi2
 423 031c 0A00A0E1 		mov	r0, sl
 424 0320 0B10A0E1 		mov	r1, fp
 425 0324 FEFFFFEB 		bl	__aeabi_dmul
 426 0328 950606E0 		mul	r6, r5, r6
 427 032c 0080A0E1 		mov	r8, r0
 428 0330 060094E7 		ldr	r0, [r4, r6]	@ float
 429 0334 0190A0E1 		mov	r9, r1
 430 0338 FEFFFFEB 		bl	__aeabi_f2d
 431 033c 0020A0E1 		mov	r2, r0
 432 0340 0130A0E1 		mov	r3, r1
 433 0344 0800A0E1 		mov	r0, r8
 434 0348 0910A0E1 		mov	r1, r9
 435 034c FEFFFFEB 		bl	__aeabi_dadd
 436 0350 FEFFFFEB 		bl	__aeabi_d2f
 437 0354 CC329FE5 		ldr	r3, .L23+88
 438 0358 000083E5 		str	r0, [r3, #0]	@ float
 439 035c 03009DE8 		ldmia	sp, {r0-r1}
 440 0360 FEFFFFEB 		bl	sin
 441 0364 0020A0E1 		mov	r2, r0
 442 0368 0130A0E1 		mov	r3, r1
 443 036c 0A00A0E1 		mov	r0, sl
 444 0370 0B10A0E1 		mov	r1, fp
 445 0374 FEFFFFEB 		bl	__aeabi_dmul
 446 0378 067084E0 		add	r7, r4, r6
 447 037c 0040A0E1 		mov	r4, r0
 448 0380 040097E5 		ldr	r0, [r7, #4]	@ float
 449 0384 0150A0E1 		mov	r5, r1
 450 0388 FEFFFFEB 		bl	__aeabi_f2d
 451 038c 0130A0E1 		mov	r3, r1
 452 0390 0020A0E1 		mov	r2, r0
 453 0394 0510A0E1 		mov	r1, r5
 454 0398 0400A0E1 		mov	r0, r4
 455 039c FEFFFFEB 		bl	__aeabi_dadd
 456 03a0 FEFFFFEB 		bl	__aeabi_d2f
 457 03a4 80329FE5 		ldr	r3, .L23+92
 458 03a8 000083E5 		str	r0, [r3, #0]	@ float
 459 03ac 820000EA 		b	.L21
 460              	.L22:
 461 03b0 70329FE5 		ldr	r3, .L23+88
 462 03b4 000093E5 		ldr	r0, [r3, #0]	@ float
 463 03b8 6C329FE5 		ldr	r3, .L23+92
 464 03bc 001093E5 		ldr	r1, [r3, #0]	@ float
 465 03c0 5C329FE5 		ldr	r3, .L23+84
 466 03c4 002093E5 		ldr	r2, [r3, #0]	@ float
 467 03c8 FEFFFFEB 		bl	nav_circle_XY
 468 03cc 000057E3 		cmp	r7, #0
 469 03d0 7A00000A 		beq	.L12
 470 03d4 F4219FE5 		ldr	r2, .L23
 471 03d8 50329FE5 		ldr	r3, .L23+96
 472 03dc 0070D2E5 		ldrb	r7, [r2, #0]	@ zero_extendqisi2
 473 03e0 0030D3E5 		ldrb	r3, [r3, #0]	@ zero_extendqisi2
 474 03e4 960303E0 		mul	r3, r6, r3
 475 03e8 970606E0 		mul	r6, r7, r6
 476 03ec 030094E7 		ldr	r0, [r4, r3]	@ float
 477 03f0 061094E7 		ldr	r1, [r4, r6]	@ float
 478 03f4 039084E0 		add	r9, r4, r3
 479 03f8 FEFFFFEB 		bl	__aeabi_fsub
 480 03fc 30329FE5 		ldr	r3, .L23+100
 481 0400 000083E5 		str	r0, [r3, #0]	@ float
 482 0404 06A084E0 		add	sl, r4, r6
 483 0408 04109AE5 		ldr	r1, [sl, #4]	@ float
 484 040c 0060A0E1 		mov	r6, r0
 485 0410 040099E5 		ldr	r0, [r9, #4]	@ float
 486 0414 FEFFFFEB 		bl	__aeabi_fsub
 487 0418 18329FE5 		ldr	r3, .L23+104
 488 041c 0040A0E1 		mov	r4, r0
 489 0420 000083E5 		str	r0, [r3, #0]	@ float
 490 0424 0610A0E1 		mov	r1, r6
 491 0428 0600A0E1 		mov	r0, r6
 492 042c FEFFFFEB 		bl	__aeabi_fmul
 493 0430 0410A0E1 		mov	r1, r4
 494 0434 0060A0E1 		mov	r6, r0
 495 0438 0400A0E1 		mov	r0, r4
 496 043c FEFFFFEB 		bl	__aeabi_fmul
 497 0440 0010A0E1 		mov	r1, r0
 498 0444 0600A0E1 		mov	r0, r6
 499 0448 FEFFFFEB 		bl	__aeabi_fadd
 500 044c FEFFFFEB 		bl	__aeabi_f2d
 501 0450 FEFFFFEB 		bl	sqrt
 502 0454 FEFFFFEB 		bl	__aeabi_d2f
 503 0458 8C319FE5 		ldr	r3, .L23+28
 504 045c 000083E5 		str	r0, [r3, #0]	@ float
 505 0460 80319FE5 		ldr	r3, .L23+24
 506 0464 0040A0E1 		mov	r4, r0
 507 0468 0410A0E1 		mov	r1, r4
 508 046c 000093E5 		ldr	r0, [r3, #0]	@ float
 509 0470 FEFFFFEB 		bl	__aeabi_fcmpgt
 510 0474 000050E3 		cmp	r0, #0
 511 0478 0130A003 		moveq	r3, #1
 512 047c 0030C505 		streqb	r3, [r5, #0]
 513 0480 5C319FE5 		ldr	r3, .L23+20
 514 0484 0080C515 		strneb	r8, [r5, #0]
 515 0488 000093E5 		ldr	r0, [r3, #0]	@ float
 516 048c FEFFFFEB 		bl	__aeabi_f2d
 517 0490 44319FE5 		ldr	r3, .L23+12
 518 0494 0080A0E1 		mov	r8, r0
 519 0498 000093E5 		ldr	r0, [r3, #0]	@ float
 520 049c 0190A0E1 		mov	r9, r1
 521 04a0 FEFFFFEB 		bl	__aeabi_f2d
 522 04a4 0020A0E1 		mov	r2, r0
 523 04a8 0130A0E1 		mov	r3, r1
 524 04ac 0800A0E1 		mov	r0, r8
 525 04b0 0910A0E1 		mov	r1, r9
 526 04b4 FEFFFFEB 		bl	atan2
 527 04b8 FEFFFFEB 		bl	__aeabi_d2f
 528 04bc 54319FE5 		ldr	r3, .L23+72
 529 04c0 0050A0E1 		mov	r5, r0
 530 04c4 000083E5 		str	r0, [r3, #0]	@ float
 531 04c8 0400A0E1 		mov	r0, r4
 532 04cc FEFFFFEB 		bl	__aeabi_f2d
 533 04d0 0080A0E1 		mov	r8, r0
 534 04d4 0500A0E1 		mov	r0, r5
 535 04d8 0190A0E1 		mov	r9, r1
 536 04dc FEFFFFEB 		bl	__aeabi_f2d
 537 04e0 34219FE5 		ldr	r2, .L23+76
 538 04e4 34319FE5 		ldr	r3, .L23+80
 539 04e8 FEFFFFEB 		bl	__aeabi_dadd
 540 04ec 0160A0E1 		mov	r6, r1
 541 04f0 0050A0E1 		mov	r5, r0
 542 04f4 FEFFFFEB 		bl	cos
 543 04f8 0020A0E1 		mov	r2, r0
 544 04fc 0130A0E1 		mov	r3, r1
 545 0500 0800A0E1 		mov	r0, r8
 546 0504 0910A0E1 		mov	r1, r9
 547 0508 FEFFFFEB 		bl	__aeabi_dmul
 548 050c 0C20A0E3 		mov	r2, #12
 549 0510 920707E0 		mul	r7, r2, r7
 550 0514 B8309FE5 		ldr	r3, .L23+4
 551 0518 00A0A0E1 		mov	sl, r0
 552 051c 070093E7 		ldr	r0, [r3, r7]	@ float
 553 0520 074083E0 		add	r4, r3, r7
 554 0524 01B0A0E1 		mov	fp, r1
 555 0528 FEFFFFEB 		bl	__aeabi_f2d
 556 052c 0020A0E1 		mov	r2, r0
 557 0530 0130A0E1 		mov	r3, r1
 558 0534 0A00A0E1 		mov	r0, sl
 559 0538 0B10A0E1 		mov	r1, fp
 560 053c FEFFFFEB 		bl	__aeabi_dadd
 561 0540 FEFFFFEB 		bl	__aeabi_d2f
 562 0544 C4309FE5 		ldr	r3, .L23+64
 563 0548 0610A0E1 		mov	r1, r6
 564 054c 000083E5 		str	r0, [r3, #0]	@ float
 565 0550 0500A0E1 		mov	r0, r5
 566 0554 FEFFFFEB 		bl	sin
 567 0558 0020A0E1 		mov	r2, r0
 568 055c 0130A0E1 		mov	r3, r1
 569 0560 0800A0E1 		mov	r0, r8
 570 0564 0910A0E1 		mov	r1, r9
 571 0568 FEFFFFEB 		bl	__aeabi_dmul
 572 056c 0060A0E1 		mov	r6, r0
 573 0570 040094E5 		ldr	r0, [r4, #4]	@ float
 574 0574 0170A0E1 		mov	r7, r1
 575 0578 FEFFFFEB 		bl	__aeabi_f2d
 576 057c 0020A0E1 		mov	r2, r0
 577 0580 0130A0E1 		mov	r3, r1
 578 0584 0600A0E1 		mov	r0, r6
 579 0588 0710A0E1 		mov	r1, r7
 580 058c FEFFFFEB 		bl	__aeabi_dadd
 581 0590 FEFFFFEB 		bl	__aeabi_d2f
 582 0594 78309FE5 		ldr	r3, .L23+68
 583 0598 000083E5 		str	r0, [r3, #0]	@ float
 584 059c 34309FE5 		ldr	r3, .L23+8
 585 05a0 002093E5 		ldr	r2, [r3, #0]	@ float
 586 05a4 5C309FE5 		ldr	r3, .L23+56
 587 05a8 002083E5 		str	r2, [r3, #0]	@ float
 588 05ac 2C309FE5 		ldr	r3, .L23+16
 589 05b0 002093E5 		ldr	r2, [r3, #0]	@ float
 590 05b4 50309FE5 		ldr	r3, .L23+60
 591 05b8 002083E5 		str	r2, [r3, #0]	@ float
 592              	.L21:
 593 05bc FEFFFFEB 		bl	nav_init_stage
 594              	.L12:
 595 05c0 0100A0E3 		mov	r0, #1
 596 05c4 1CD08DE2 		add	sp, sp, #28
 597 05c8 F04FBDE8 		ldmfd	sp!, {r4, r5, r6, r7, r8, r9, sl, fp, lr}
 598 05cc 1EFF2FE1 		bx	lr
 599              	.L24:
 600              		.align	2
 601              	.L23:
 602 05d0 00000000 		.word	.LANCHOR0
 603 05d4 00000000 		.word	waypoints
 604 05d8 00000000 		.word	estimator_x
 605 05dc 00000000 		.word	.LANCHOR5
 606 05e0 00000000 		.word	estimator_y
 607 05e4 00000000 		.word	.LANCHOR6
 608 05e8 00000000 		.word	.LANCHOR7
 609 05ec 00000000 		.word	.LANCHOR4
 610 05f0 00000000 		.word	v_ctl_climb_mode
 611 05f4 00000000 		.word	nav_pitch
 612 05f8 00000000 		.word	v_ctl_mode
 613 05fc 00000000 		.word	nav_altitude
 614 0600 00000000 		.word	.LANCHOR13
 615 0604 00000000 		.word	v_ctl_altitude_pre_climb
 616 0608 00000000 		.word	.LANCHOR11
 617 060c 00000000 		.word	.LANCHOR12
 618 0610 00000000 		.word	.LANCHOR9
 619 0614 00000000 		.word	.LANCHOR10
 620 0618 00000000 		.word	.LANCHOR8
 621 061c 1F85EB51 		.word	1374389535
 622 0620 B81E0940 		.word	1074339512
 623 0624 00000000 		.word	nav_radius
 624 0628 00000000 		.word	.LANCHOR14
 625 062c 00000000 		.word	.LANCHOR15
 626 0630 00000000 		.word	.LANCHOR1
 627 0634 00000000 		.word	.LANCHOR2
 628 0638 00000000 		.word	.LANCHOR3
 630              		.global	__aeabi_fcmplt
 631              		.global	__aeabi_ddiv
 632              		.section	.text.InitializeBungeeTakeoff,"ax",%progbits
 633              		.align	2
 634              		.global	InitializeBungeeTakeoff
 636              	InitializeBungeeTakeoff:
 637              		@ Function supports interworking.
 638              		@ args = 0, pretend = 0, frame = 0
 639              		@ frame_needed = 0, uses_anonymous_args = 0
 640 0000 6C329FE5 		ldr	r3, .L44
 641 0004 F0472DE9 		stmfd	sp!, {r4, r5, r6, r7, r8, r9, sl, lr}
 642 0008 0060A0E1 		mov	r6, r0
 643 000c 000093E5 		ldr	r0, [r3, #0]	@ float
 644 0010 60329FE5 		ldr	r3, .L44+4
 645 0014 000083E5 		str	r0, [r3, #0]	@ float
 646 0018 5C329FE5 		ldr	r3, .L44+8
 647 001c 005093E5 		ldr	r5, [r3, #0]	@ float
 648 0020 58329FE5 		ldr	r3, .L44+12
 649 0024 005083E5 		str	r5, [r3, #0]	@ float
 650 0028 54329FE5 		ldr	r3, .L44+16
 651 002c 54229FE5 		ldr	r2, .L44+20
 652 0030 0060C3E5 		strb	r6, [r3, #0]
 653 0034 50329FE5 		ldr	r3, .L44+24
 654 0038 002083E5 		str	r2, [r3, #0]	@ float
 655 003c 0C30A0E3 		mov	r3, #12
 656 0040 960303E0 		mul	r3, r6, r3
 657 0044 44229FE5 		ldr	r2, .L44+28
 658 0048 031092E7 		ldr	r1, [r2, r3]	@ float
 659 004c 037082E0 		add	r7, r2, r3
 660 0050 FEFFFFEB 		bl	__aeabi_fsub
 661 0054 041097E5 		ldr	r1, [r7, #4]	@ float
 662 0058 0040A0E1 		mov	r4, r0
 663 005c 0500A0E1 		mov	r0, r5
 664 0060 FEFFFFEB 		bl	__aeabi_fsub
 665 0064 082097E5 		ldr	r2, [r7, #8]	@ float
 666 0068 24329FE5 		ldr	r3, .L44+32
 667 006c 0410A0E1 		mov	r1, r4
 668 0070 002083E5 		str	r2, [r3, #0]	@ float
 669 0074 0050A0E1 		mov	r5, r0
 670 0078 FEFFFFEB 		bl	__aeabi_fdiv
 671 007c 0010A0E3 		mov	r1, #0
 672 0080 0070A0E1 		mov	r7, r0
 673 0084 0400A0E1 		mov	r0, r4
 674 0088 FEFFFFEB 		bl	__aeabi_fcmplt
 675 008c 000050E3 		cmp	r0, #0
 676 0090 0710A0E1 		mov	r1, r7
 677 0094 0700A0E1 		mov	r0, r7
 678 0098 0B00000A 		beq	.L38
 679 009c FEFFFFEB 		bl	__aeabi_fmul
 680 00a0 FE15A0E3 		mov	r1, #1065353216
 681 00a4 FEFFFFEB 		bl	__aeabi_fadd
 682 00a8 FEFFFFEB 		bl	__aeabi_f2d
 683 00ac FEFFFFEB 		bl	sqrt
 684 00b0 0020A0E1 		mov	r2, r0
 685 00b4 0130A0E1 		mov	r3, r1
 686 00b8 0000A0E3 		mov	r0, #0
 687 00bc D4119FE5 		ldr	r1, .L44+36
 688 00c0 FEFFFFEB 		bl	__aeabi_ddiv
 689 00c4 FEFFFFEB 		bl	__aeabi_d2f
 690 00c8 0B0000EA 		b	.L41
 691              	.L38:
 692 00cc FEFFFFEB 		bl	__aeabi_fmul
 693 00d0 FE15A0E3 		mov	r1, #1065353216
 694 00d4 FEFFFFEB 		bl	__aeabi_fadd
 695 00d8 FEFFFFEB 		bl	__aeabi_f2d
 696 00dc FEFFFFEB 		bl	sqrt
 697 00e0 0020A0E1 		mov	r2, r0
 698 00e4 0130A0E1 		mov	r3, r1
 699 00e8 0000A0E3 		mov	r0, #0
 700 00ec A4119FE5 		ldr	r1, .L44+36
 701 00f0 FEFFFFEB 		bl	__aeabi_ddiv
 702 00f4 FEFFFFEB 		bl	__aeabi_d2f
 703 00f8 020180E2 		add	r0, r0, #-2147483648
 704              	.L41:
 705 00fc 98319FE5 		ldr	r3, .L44+40
 706 0100 0010A0E3 		mov	r1, #0
 707 0104 000083E5 		str	r0, [r3, #0]	@ float
 708 0108 0500A0E1 		mov	r0, r5
 709 010c FEFFFFEB 		bl	__aeabi_fcmplt
 710 0110 84319FE5 		ldr	r3, .L44+40
 711 0114 000050E3 		cmp	r0, #0
 712 0118 000093E5 		ldr	r0, [r3, #0]	@ float
 713 011c 0010A0E1 		mov	r1, r0
 714 0120 0700000A 		beq	.L39
 715 0124 FEFFFFEB 		bl	__aeabi_fmul
 716 0128 0010A0E1 		mov	r1, r0
 717 012c 6C019FE5 		ldr	r0, .L44+44
 718 0130 FEFFFFEB 		bl	__aeabi_fsub
 719 0134 FEFFFFEB 		bl	__aeabi_f2d
 720 0138 FEFFFFEB 		bl	sqrt
 721 013c FEFFFFEB 		bl	__aeabi_d2f
 722 0140 070000EA 		b	.L42
 723              	.L39:
 724 0144 FEFFFFEB 		bl	__aeabi_fmul
 725 0148 0010A0E1 		mov	r1, r0
 726 014c 4C019FE5 		ldr	r0, .L44+44
 727 0150 FEFFFFEB 		bl	__aeabi_fsub
 728 0154 FEFFFFEB 		bl	__aeabi_f2d
 729 0158 FEFFFFEB 		bl	sqrt
 730 015c FEFFFFEB 		bl	__aeabi_d2f
 731 0160 020180E2 		add	r0, r0, #-2147483648
 732              	.L42:
 733 0164 38319FE5 		ldr	r3, .L44+48
 734 0168 000083E5 		str	r0, [r3, #0]	@ float
 735 016c 0500A0E1 		mov	r0, r5
 736 0170 FEFFFFEB 		bl	__aeabi_f2d
 737 0174 0080A0E1 		mov	r8, r0
 738 0178 0400A0E1 		mov	r0, r4
 739 017c 0190A0E1 		mov	r9, r1
 740 0180 FEFFFFEB 		bl	__aeabi_f2d
 741 0184 0020A0E1 		mov	r2, r0
 742 0188 0130A0E1 		mov	r3, r1
 743 018c 0800A0E1 		mov	r0, r8
 744 0190 0910A0E1 		mov	r1, r9
 745 0194 FEFFFFEB 		bl	atan2
 746 0198 08219FE5 		ldr	r2, .L44+52
 747 019c 08319FE5 		ldr	r3, .L44+56
 748 01a0 FEFFFFEB 		bl	__aeabi_dadd
 749 01a4 FEFFFFEB 		bl	tan
 750 01a8 FEFFFFEB 		bl	__aeabi_d2f
 751 01ac FC309FE5 		ldr	r3, .L44+60
 752 01b0 000083E5 		str	r0, [r3, #0]	@ float
 753 01b4 E8309FE5 		ldr	r3, .L44+48
 754 01b8 007093E5 		ldr	r7, [r3, #0]	@ float
 755 01bc D8309FE5 		ldr	r3, .L44+40
 756 01c0 0410A0E1 		mov	r1, r4
 757 01c4 008093E5 		ldr	r8, [r3, #0]	@ float
 758 01c8 00A0A0E1 		mov	sl, r0
 759 01cc FEFFFFEB 		bl	__aeabi_fmul
 760 01d0 0810A0E1 		mov	r1, r8
 761 01d4 0040A0E1 		mov	r4, r0
 762 01d8 0A00A0E1 		mov	r0, sl
 763 01dc FEFFFFEB 		bl	__aeabi_fmul
 764 01e0 0010A0E1 		mov	r1, r0
 765 01e4 0700A0E1 		mov	r0, r7
 766 01e8 FEFFFFEB 		bl	__aeabi_fsub
 767 01ec 0010A0E1 		mov	r1, r0
 768 01f0 0400A0E1 		mov	r0, r4
 769 01f4 FEFFFFEB 		bl	__aeabi_fadd
 770 01f8 0010A0E1 		mov	r1, r0
 771 01fc 0500A0E1 		mov	r0, r5
 772 0200 FEFFFFEB 		bl	__aeabi_fcmpgt
 773 0204 A8309FE5 		ldr	r3, .L44+64
 774 0208 000050E3 		cmp	r0, #0
 775 020c 0120A013 		movne	r2, #1
 776 0210 0020A003 		moveq	r2, #0
 777 0214 0020C3E5 		strb	r2, [r3, #0]
 778 0218 98309FE5 		ldr	r3, .L44+68
 779 021c 0040A0E3 		mov	r4, #0
 780 0220 0040C3E5 		strb	r4, [r3, #0]
 781 0224 90309FE5 		ldr	r3, .L44+72
 782 0228 0120A0E3 		mov	r2, #1
 783 022c 0020C3E5 		strb	r2, [r3, #0]
 784 0230 0C20A0E3 		mov	r2, #12
 785 0234 920606E0 		mul	r6, r2, r6
 786 0238 50309FE5 		ldr	r3, .L44+28
 787 023c 0800A0E1 		mov	r0, r8
 788 0240 061093E7 		ldr	r1, [r3, r6]	@ float
 789 0244 065083E0 		add	r5, r3, r6
 790 0248 FEFFFFEB 		bl	__aeabi_fadd
 791 024c 48309FE5 		ldr	r3, .L44+40
 792 0250 000083E5 		str	r0, [r3, #0]	@ float
 793 0254 0700A0E1 		mov	r0, r7
 794 0258 041095E5 		ldr	r1, [r5, #4]	@ float
 795 025c FEFFFFEB 		bl	__aeabi_fadd
 796 0260 3C309FE5 		ldr	r3, .L44+48
 797 0264 000083E5 		str	r0, [r3, #0]	@ float
 798 0268 0400A0E1 		mov	r0, r4
 799 026c F047BDE8 		ldmfd	sp!, {r4, r5, r6, r7, r8, r9, sl, lr}
 800 0270 1EFF2FE1 		bx	lr
 801              	.L45:
 802              		.align	2
 803              	.L44:
 804 0274 00000000 		.word	estimator_x
 805 0278 00000000 		.word	.LANCHOR16
 806 027c 00000000 		.word	estimator_y
 807 0280 00000000 		.word	.LANCHOR17
 808 0284 00000000 		.word	.LANCHOR18
 809 0288 00002041 		.word	1092616192
 810 028c 00000000 		.word	.LANCHOR19
 811 0290 00000000 		.word	waypoints
 812 0294 00000000 		.word	.LANCHOR20
 813 0298 00002440 		.word	1076101120
 814 029c 00000000 		.word	.LANCHOR21
 815 02a0 0000C842 		.word	1120403456
 816 02a4 00000000 		.word	.LANCHOR22
 817 02a8 1F85EB51 		.word	1374389535
 818 02ac B81EF93F 		.word	1073290936
 819 02b0 00000000 		.word	.LANCHOR23
 820 02b4 00000000 		.word	.LANCHOR24
 821 02b8 00000000 		.word	.LANCHOR25
 822 02bc 00000000 		.word	kill_throttle
 824              		.section	.text.BungeeTakeoff,"ax",%progbits
 825              		.align	2
 826              		.global	BungeeTakeoff
 828              	BungeeTakeoff:
 829              		@ Function supports interworking.
 830              		@ args = 0, pretend = 0, frame = 8
 831              		@ frame_needed = 0, uses_anonymous_args = 0
 832 0000 F74F2DE9 		stmfd	sp!, {r0, r1, r2, r4, r5, r6, r7, r8, r9, sl, fp, lr}
 833 0004 7C949FE5 		ldr	r9, .L87
 834 0008 7C749FE5 		ldr	r7, .L87+4
 835 000c 003099E5 		ldr	r3, [r9, #0]	@ float
 836 0010 0040D7E5 		ldrb	r4, [r7, #0]	@ zero_extendqisi2
 837 0014 74A49FE5 		ldr	sl, .L87+8
 838 0018 74B49FE5 		ldr	fp, .L87+12
 839 001c 04308DE5 		str	r3, [sp, #4]	@ float
 840 0020 70349FE5 		ldr	r3, .L87+16
 841 0024 000054E3 		cmp	r4, #0
 842 0028 00C09AE5 		ldr	ip, [sl, #0]	@ float
 843 002c 00609BE5 		ldr	r6, [fp, #0]	@ float
 844 0030 008093E5 		ldr	r8, [r3, #0]	@ float
 845 0034 0200000A 		beq	.L48
 846 0038 010054E3 		cmp	r4, #1
 847 003c 0D01001A 		bne	.L66
 848 0040 E30000EA 		b	.L86
 849              	.L48:
 850 0044 50349FE5 		ldr	r3, .L87+20
 851 0048 0040C3E5 		strb	r4, [r3, #0]
 852 004c 4C349FE5 		ldr	r3, .L87+24
 853 0050 0070A0E3 		mov	r7, #0
 854 0054 007083E5 		str	r7, [r3, #0]	@ float
 855 0058 44349FE5 		ldr	r3, .L87+28
 856 005c 0320A0E3 		mov	r2, #3
 857 0060 0020C3E5 		strb	r2, [r3, #0]
 858 0064 3C349FE5 		ldr	r3, .L87+32
 859 0068 3C149FE5 		ldr	r1, .L87+36
 860 006c 000093E5 		ldr	r0, [r3, #0]	@ float
 861 0070 00C08DE5 		str	ip, [sp, #0]
 862 0074 FEFFFFEB 		bl	__aeabi_fadd
 863 0078 30349FE5 		ldr	r3, .L87+40
 864 007c 30549FE5 		ldr	r5, .L87+44
 865 0080 000083E5 		str	r0, [r3, #0]	@ float
 866 0084 2C449FE5 		ldr	r4, .L87+48
 867 0088 2C349FE5 		ldr	r3, .L87+52
 868 008c 000095E5 		ldr	r0, [r5, #0]	@ float
 869 0090 007083E5 		str	r7, [r3, #0]	@ float
 870 0094 001094E5 		ldr	r1, [r4, #0]	@ float
 871 0098 0620A0E1 		mov	r2, r6
 872 009c 0830A0E1 		mov	r3, r8
 873 00a0 FEFFFFEB 		bl	nav_route_xy
 874 00a4 14349FE5 		ldr	r3, .L87+56
 875 00a8 0120A0E3 		mov	r2, #1
 876 00ac 0020C3E5 		strb	r2, [r3, #0]
 877 00b0 0C349FE5 		ldr	r3, .L87+60
 878 00b4 0C149FE5 		ldr	r1, .L87+64
 879 00b8 000093E5 		ldr	r0, [r3, #0]	@ float
 880 00bc FEFFFFEB 		bl	__aeabi_fcmplt
 881 00c0 000050E3 		cmp	r0, #0
 882 00c4 00C09DE5 		ldr	ip, [sp, #0]
 883 00c8 0800001A 		bne	.L50
 884 00cc 0C00A0E1 		mov	r0, ip
 885 00d0 0610A0E1 		mov	r1, r6
 886 00d4 FEFFFFEB 		bl	__aeabi_fsub
 887 00d8 0810A0E1 		mov	r1, r8
 888 00dc 0040A0E1 		mov	r4, r0
 889 00e0 04009DE5 		ldr	r0, [sp, #4]	@ float
 890 00e4 FEFFFFEB 		bl	__aeabi_fsub
 891 00e8 0050A0E1 		mov	r5, r0
 892 00ec 9B0000EA 		b	.L51
 893              	.L50:
 894 00f0 D4339FE5 		ldr	r3, .L87+68
 895 00f4 0030D3E5 		ldrb	r3, [r3, #0]	@ zero_extendqisi2
 896 00f8 0C10A0E3 		mov	r1, #12
 897 00fc 910303E0 		mul	r3, r1, r3
 898 0100 00009AE5 		ldr	r0, [sl, #0]	@ float
 899 0104 000085E5 		str	r0, [r5, #0]	@ float
 900 0108 005099E5 		ldr	r5, [r9, #0]	@ float
 901 010c BC239FE5 		ldr	r2, .L87+72
 902 0110 005084E5 		str	r5, [r4, #0]	@ float
 903 0114 031092E7 		ldr	r1, [r2, r3]	@ float
 904 0118 036082E0 		add	r6, r2, r3
 905 011c FEFFFFEB 		bl	__aeabi_fsub
 906 0120 041096E5 		ldr	r1, [r6, #4]	@ float
 907 0124 0040A0E1 		mov	r4, r0
 908 0128 0500A0E1 		mov	r0, r5
 909 012c FEFFFFEB 		bl	__aeabi_fsub
 910 0130 0410A0E1 		mov	r1, r4
 911 0134 0050A0E1 		mov	r5, r0
 912 0138 FEFFFFEB 		bl	__aeabi_fdiv
 913 013c 0710A0E1 		mov	r1, r7
 914 0140 0060A0E1 		mov	r6, r0
 915 0144 0400A0E1 		mov	r0, r4
 916 0148 FEFFFFEB 		bl	__aeabi_fcmplt
 917 014c 80339FE5 		ldr	r3, .L87+76
 918 0150 000050E3 		cmp	r0, #0
 919 0154 000093E5 		ldr	r0, [r3, #0]	@ float
 920 0158 1000000A 		beq	.L77
 921 015c FEFFFFEB 		bl	__aeabi_f2d
 922 0160 0080A0E1 		mov	r8, r0
 923 0164 0190A0E1 		mov	r9, r1
 924 0168 0600A0E1 		mov	r0, r6
 925 016c 0610A0E1 		mov	r1, r6
 926 0170 FEFFFFEB 		bl	__aeabi_fmul
 927 0174 FE15A0E3 		mov	r1, #1065353216
 928 0178 FEFFFFEB 		bl	__aeabi_fadd
 929 017c FEFFFFEB 		bl	__aeabi_f2d
 930 0180 FEFFFFEB 		bl	sqrt
 931 0184 0020A0E1 		mov	r2, r0
 932 0188 0130A0E1 		mov	r3, r1
 933 018c 0800A0E1 		mov	r0, r8
 934 0190 0910A0E1 		mov	r1, r9
 935 0194 FEFFFFEB 		bl	__aeabi_ddiv
 936 0198 FEFFFFEB 		bl	__aeabi_d2f
 937 019c 100000EA 		b	.L83
 938              	.L77:
 939 01a0 FEFFFFEB 		bl	__aeabi_f2d
 940 01a4 0080A0E1 		mov	r8, r0
 941 01a8 0190A0E1 		mov	r9, r1
 942 01ac 0600A0E1 		mov	r0, r6
 943 01b0 0610A0E1 		mov	r1, r6
 944 01b4 FEFFFFEB 		bl	__aeabi_fmul
 945 01b8 FE15A0E3 		mov	r1, #1065353216
 946 01bc FEFFFFEB 		bl	__aeabi_fadd
 947 01c0 FEFFFFEB 		bl	__aeabi_f2d
 948 01c4 FEFFFFEB 		bl	sqrt
 949 01c8 0020A0E1 		mov	r2, r0
 950 01cc 0130A0E1 		mov	r3, r1
 951 01d0 0800A0E1 		mov	r0, r8
 952 01d4 0910A0E1 		mov	r1, r9
 953 01d8 FEFFFFEB 		bl	__aeabi_ddiv
 954 01dc FEFFFFEB 		bl	__aeabi_d2f
 955 01e0 020180E2 		add	r0, r0, #-2147483648
 956              	.L83:
 957 01e4 00008BE5 		str	r0, [fp, #0]	@ float
 958 01e8 0010A0E3 		mov	r1, #0
 959 01ec 0500A0E1 		mov	r0, r5
 960 01f0 FEFFFFEB 		bl	__aeabi_fcmplt
 961 01f4 D8229FE5 		ldr	r2, .L87+76
 962 01f8 000050E3 		cmp	r0, #0
 963 01fc 90329FE5 		ldr	r3, .L87+12
 964 0200 000092E5 		ldr	r0, [r2, #0]	@ float
 965 0204 007093E5 		ldr	r7, [r3, #0]	@ float
 966 0208 0010A0E1 		mov	r1, r0
 967 020c 0B00000A 		beq	.L78
 968 0210 FEFFFFEB 		bl	__aeabi_fmul
 969 0214 0710A0E1 		mov	r1, r7
 970 0218 0060A0E1 		mov	r6, r0
 971 021c 0700A0E1 		mov	r0, r7
 972 0220 FEFFFFEB 		bl	__aeabi_fmul
 973 0224 0010A0E1 		mov	r1, r0
 974 0228 0600A0E1 		mov	r0, r6
 975 022c FEFFFFEB 		bl	__aeabi_fsub
 976 0230 FEFFFFEB 		bl	__aeabi_f2d
 977 0234 FEFFFFEB 		bl	sqrt
 978 0238 FEFFFFEB 		bl	__aeabi_d2f
 979 023c 0B0000EA 		b	.L84
 980              	.L78:
 981 0240 FEFFFFEB 		bl	__aeabi_fmul
 982 0244 0710A0E1 		mov	r1, r7
 983 0248 0060A0E1 		mov	r6, r0
 984 024c 0700A0E1 		mov	r0, r7
 985 0250 FEFFFFEB 		bl	__aeabi_fmul
 986 0254 0010A0E1 		mov	r1, r0
 987 0258 0600A0E1 		mov	r0, r6
 988 025c FEFFFFEB 		bl	__aeabi_fsub
 989 0260 FEFFFFEB 		bl	__aeabi_f2d
 990 0264 FEFFFFEB 		bl	sqrt
 991 0268 FEFFFFEB 		bl	__aeabi_d2f
 992 026c 020180E2 		add	r0, r0, #-2147483648
 993              	.L84:
 994 0270 20329FE5 		ldr	r3, .L87+16
 995 0274 000083E5 		str	r0, [r3, #0]	@ float
 996 0278 0500A0E1 		mov	r0, r5
 997 027c FEFFFFEB 		bl	__aeabi_f2d
 998 0280 0060A0E1 		mov	r6, r0
 999 0284 0400A0E1 		mov	r0, r4
 1000 0288 0170A0E1 		mov	r7, r1
 1001 028c FEFFFFEB 		bl	__aeabi_f2d
 1002 0290 0020A0E1 		mov	r2, r0
 1003 0294 0130A0E1 		mov	r3, r1
 1004 0298 0600A0E1 		mov	r0, r6
 1005 029c 0710A0E1 		mov	r1, r7
 1006 02a0 FEFFFFEB 		bl	atan2
 1007 02a4 2C229FE5 		ldr	r2, .L87+80
 1008 02a8 2C329FE5 		ldr	r3, .L87+84
 1009 02ac FEFFFFEB 		bl	__aeabi_dadd
 1010 02b0 FEFFFFEB 		bl	tan
 1011 02b4 FEFFFFEB 		bl	__aeabi_d2f
 1012 02b8 20329FE5 		ldr	r3, .L87+88
 1013 02bc 000083E5 		str	r0, [r3, #0]	@ float
 1014 02c0 D0319FE5 		ldr	r3, .L87+16
 1015 02c4 0410A0E1 		mov	r1, r4
 1016 02c8 006093E5 		ldr	r6, [r3, #0]	@ float
 1017 02cc 00A0A0E1 		mov	sl, r0
 1018 02d0 FEFFFFEB 		bl	__aeabi_fmul
 1019 02d4 B8819FE5 		ldr	r8, .L87+12
 1020 02d8 007098E5 		ldr	r7, [r8, #0]	@ float
 1021 02dc 0090A0E1 		mov	r9, r0
 1022 02e0 0710A0E1 		mov	r1, r7
 1023 02e4 0A00A0E1 		mov	r0, sl
 1024 02e8 FEFFFFEB 		bl	__aeabi_fmul
 1025 02ec 0010A0E1 		mov	r1, r0
 1026 02f0 0600A0E1 		mov	r0, r6
 1027 02f4 FEFFFFEB 		bl	__aeabi_fsub
 1028 02f8 0010A0E1 		mov	r1, r0
 1029 02fc 0900A0E1 		mov	r0, r9
 1030 0300 FEFFFFEB 		bl	__aeabi_fadd
 1031 0304 0010A0E1 		mov	r1, r0
 1032 0308 0500A0E1 		mov	r0, r5
 1033 030c FEFFFFEB 		bl	__aeabi_fcmpgt
 1034 0310 CC319FE5 		ldr	r3, .L87+92
 1035 0314 000050E3 		cmp	r0, #0
 1036 0318 0120A013 		movne	r2, #1
 1037 031c 0020A003 		moveq	r2, #0
 1038 0320 0020C3E5 		strb	r2, [r3, #0]
 1039 0324 A0319FE5 		ldr	r3, .L87+68
 1040 0328 0030D3E5 		ldrb	r3, [r3, #0]	@ zero_extendqisi2
 1041 032c 0C10A0E3 		mov	r1, #12
 1042 0330 910303E0 		mul	r3, r1, r3
 1043 0334 94219FE5 		ldr	r2, .L87+72
 1044 0338 0700A0E1 		mov	r0, r7
 1045 033c 031092E7 		ldr	r1, [r2, r3]	@ float
 1046 0340 03A082E0 		add	sl, r2, r3
 1047 0344 FEFFFFEB 		bl	__aeabi_fadd
 1048 0348 000088E5 		str	r0, [r8, #0]	@ float
 1049 034c 0600A0E1 		mov	r0, r6
 1050 0350 04109AE5 		ldr	r1, [sl, #4]	@ float
 1051 0354 FEFFFFEB 		bl	__aeabi_fadd
 1052 0358 38319FE5 		ldr	r3, .L87+16
 1053 035c 000083E5 		str	r0, [r3, #0]	@ float
 1054              	.L51:
 1055 0360 78319FE5 		ldr	r3, .L87+88
 1056 0364 0400A0E1 		mov	r0, r4
 1057 0368 001093E5 		ldr	r1, [r3, #0]	@ float
 1058 036c FEFFFFEB 		bl	__aeabi_fmul
 1059 0370 0010A0E1 		mov	r1, r0
 1060 0374 0500A0E1 		mov	r0, r5
 1061 0378 FEFFFFEB 		bl	__aeabi_fcmpgt
 1062 037c 60319FE5 		ldr	r3, .L87+92
 1063 0380 000050E3 		cmp	r0, #0
 1064 0384 0140A0E3 		mov	r4, #1
 1065 0388 0030D3E5 		ldrb	r3, [r3, #0]	@ zero_extendqisi2
 1066 038c 0040A003 		moveq	r4, #0
 1067 0390 FF4004E2 		and	r4, r4, #255
 1068 0394 040053E1 		cmp	r3, r4
 1069 0398 3600000A 		beq	.L66
 1070 039c 20319FE5 		ldr	r3, .L87+60
 1071 03a0 20119FE5 		ldr	r1, .L87+64
 1072 03a4 000093E5 		ldr	r0, [r3, #0]	@ float
 1073 03a8 FEFFFFEB 		bl	__aeabi_fcmpgt
 1074 03ac 000050E3 		cmp	r0, #0
 1075 03b0 0140A0E3 		mov	r4, #1
 1076 03b4 3000000A 		beq	.L47
 1077 03b8 CC309FE5 		ldr	r3, .L87+4
 1078 03bc 0040C3E5 		strb	r4, [r3, #0]
 1079 03c0 F8309FE5 		ldr	r3, .L87+56
 1080 03c4 0020A0E3 		mov	r2, #0
 1081 03c8 0020C3E5 		strb	r2, [r3, #0]
 1082 03cc FEFFFFEB 		bl	nav_init_stage
 1083 03d0 290000EA 		b	.L47
 1084              	.L86:
 1085 03d4 C0309FE5 		ldr	r3, .L87+20
 1086 03d8 0050A0E3 		mov	r5, #0
 1087 03dc 0050C3E5 		strb	r5, [r3, #0]
 1088 03e0 00219FE5 		ldr	r2, .L87+96
 1089 03e4 B4309FE5 		ldr	r3, .L87+24
 1090 03e8 002083E5 		str	r2, [r3, #0]	@ float
 1091 03ec B0309FE5 		ldr	r3, .L87+28
 1092 03f0 0040C3E5 		strb	r4, [r3, #0]
 1093 03f4 F0309FE5 		ldr	r3, .L87+100
 1094 03f8 962DA0E3 		mov	r2, #9600
 1095 03fc B020C3E1 		strh	r2, [r3, #0]	@ movhi
 1096 0400 AC309FE5 		ldr	r3, .L87+44
 1097 0404 000093E5 		ldr	r0, [r3, #0]	@ float
 1098 0408 A8309FE5 		ldr	r3, .L87+48
 1099 040c 0620A0E1 		mov	r2, r6
 1100 0410 001093E5 		ldr	r1, [r3, #0]	@ float
 1101 0414 0830A0E1 		mov	r3, r8
 1102 0418 FEFFFFEB 		bl	nav_route_xy
 1103 041c 9C309FE5 		ldr	r3, .L87+56
 1104 0420 0050C3E5 		strb	r5, [r3, #0]
 1105 0424 7C309FE5 		ldr	r3, .L87+32
 1106 0428 7C109FE5 		ldr	r1, .L87+36
 1107 042c 000093E5 		ldr	r0, [r3, #0]	@ float
 1108 0430 FEFFFFEB 		bl	__aeabi_fadd
 1109 0434 B4109FE5 		ldr	r1, .L87+104
 1110 0438 FEFFFFEB 		bl	__aeabi_fsub
 1111 043c B0309FE5 		ldr	r3, .L87+108
 1112 0440 0010A0E1 		mov	r1, r0
 1113 0444 000093E5 		ldr	r0, [r3, #0]	@ float
 1114 0448 FEFFFFEB 		bl	__aeabi_fcmpgt
 1115 044c 050050E1 		cmp	r0, r5
 1116 0450 0900000A 		beq	.L47
 1117 0454 68309FE5 		ldr	r3, .L87+60
 1118 0458 98109FE5 		ldr	r1, .L87+112
 1119 045c 000093E5 		ldr	r0, [r3, #0]	@ float
 1120 0460 FEFFFFEB 		bl	__aeabi_fcmpgt
 1121 0464 050050E1 		cmp	r0, r5
 1122 0468 0230A013 		movne	r3, #2
 1123 046c 0030C715 		strneb	r3, [r7, #0]
 1124 0470 0540A011 		movne	r4, r5
 1125 0474 000000EA 		b	.L47
 1126              	.L66:
 1127 0478 0140A0E3 		mov	r4, #1
 1128              	.L47:
 1129 047c 0400A0E1 		mov	r0, r4
 1130 0480 FE4FBDE8 		ldmfd	sp!, {r1, r2, r3, r4, r5, r6, r7, r8, r9, sl, fp, lr}
 1131 0484 1EFF2FE1 		bx	lr
 1132              	.L88:
 1133              		.align	2
 1134              	.L87:
 1135 0488 00000000 		.word	estimator_y
 1136 048c 00000000 		.word	.LANCHOR25
 1137 0490 00000000 		.word	estimator_x
 1138 0494 00000000 		.word	.LANCHOR21
 1139 0498 00000000 		.word	.LANCHOR22
 1140 049c 00000000 		.word	v_ctl_climb_mode
 1141 04a0 00000000 		.word	nav_pitch
 1142 04a4 00000000 		.word	v_ctl_mode
 1143 04a8 00000000 		.word	.LANCHOR20
 1144 04ac 0000F041 		.word	1106247680
 1145 04b0 00000000 		.word	nav_altitude
 1146 04b4 00000000 		.word	.LANCHOR16
 1147 04b8 00000000 		.word	.LANCHOR17
 1148 04bc 00000000 		.word	v_ctl_altitude_pre_climb
 1149 04c0 00000000 		.word	kill_throttle
 1150 04c4 00000000 		.word	estimator_hspeed_mod
 1151 04c8 0000A040 		.word	1084227584
 1152 04cc 00000000 		.word	.LANCHOR18
 1153 04d0 00000000 		.word	waypoints
 1154 04d4 00000000 		.word	.LANCHOR19
 1155 04d8 1F85EB51 		.word	1374389535
 1156 04dc B81EF93F 		.word	1073290936
 1157 04e0 00000000 		.word	.LANCHOR23
 1158 04e4 00000000 		.word	.LANCHOR24
 1159 04e8 B81E053F 		.word	1057300152
 1160 04ec 00000000 		.word	nav_throttle_setpoint
 1161 04f0 00002041 		.word	1092616192
 1162 04f4 00000000 		.word	estimator_z
 1163 04f8 00007041 		.word	1097859072
 1165              		.section	.text.InitializeVerticalRaster,"ax",%progbits
 1166              		.align	2
 1167              		.global	InitializeVerticalRaster
 1169              	InitializeVerticalRaster:
 1170              		@ Function supports interworking.
 1171              		@ args = 0, pretend = 0, frame = 0
 1172              		@ frame_needed = 0, uses_anonymous_args = 0
 1173              		@ link register save eliminated.
 1174 0000 08309FE5 		ldr	r3, .L90
 1175 0004 0000A0E3 		mov	r0, #0
 1176 0008 0000C3E5 		strb	r0, [r3, #0]
 1177 000c 1EFF2FE1 		bx	lr
 1178              	.L91:
 1179              		.align	2
 1180              	.L90:
 1181 0010 00000000 		.word	.LANCHOR26
 1183              		.global	__aeabi_fcmpge
 1184              		.section	.text.VerticalRaster,"ax",%progbits
 1185              		.align	2
 1186              		.global	VerticalRaster
 1188              	VerticalRaster:
 1189              		@ Function supports interworking.
 1190              		@ args = 0, pretend = 0, frame = 80
 1191              		@ frame_needed = 0, uses_anonymous_args = 0
 1192 0000 F04F2DE9 		stmfd	sp!, {r4, r5, r6, r7, r8, r9, sl, fp, lr}
 1193 0004 0271C2E3 		bic	r7, r2, #-2147483648
 1194 0008 0090A0E1 		mov	r9, r0
 1195 000c 0C20A0E3 		mov	r2, #12
 1196 0010 920909E0 		mul	r9, r2, r9
 1197 0014 01A0A0E1 		mov	sl, r1
 1198 0018 920A0AE0 		mul	sl, r2, sl
 1199 001c E44E9FE5 		ldr	r4, .L254
 1200 0020 5CD04DE2 		sub	sp, sp, #92
 1201 0024 095084E0 		add	r5, r4, r9
 1202 0028 54308DE5 		str	r3, [sp, #84]	@ float
 1203 002c 083095E5 		ldr	r3, [r5, #8]	@ float
 1204 0030 0AC084E0 		add	ip, r4, sl
 1205 0034 28008DE5 		str	r0, [sp, #40]
 1206 0038 30108DE5 		str	r1, [sp, #48]
 1207 003c 090094E7 		ldr	r0, [r4, r9]	@ float
 1208 0040 08308CE5 		str	r3, [ip, #8]	@ float
 1209 0044 0A1094E7 		ldr	r1, [r4, sl]	@ float
 1210 0048 0CC08DE5 		str	ip, [sp, #12]
 1211 004c FEFFFFEB 		bl	__aeabi_fsub
 1212 0050 0CC09DE5 		ldr	ip, [sp, #12]
 1213 0054 0080A0E1 		mov	r8, r0
 1214 0058 04109CE5 		ldr	r1, [ip, #4]	@ float
 1215 005c 040095E5 		ldr	r0, [r5, #4]	@ float
 1216 0060 FEFFFFEB 		bl	__aeabi_fsub
 1217 0064 0810A0E1 		mov	r1, r8
 1218 0068 0060A0E1 		mov	r6, r0
 1219 006c 0800A0E1 		mov	r0, r8
 1220 0070 FEFFFFEB 		bl	__aeabi_fmul
 1221 0074 0610A0E1 		mov	r1, r6
 1222 0078 00B0A0E1 		mov	fp, r0
 1223 007c 0600A0E1 		mov	r0, r6
 1224 0080 FEFFFFEB 		bl	__aeabi_fmul
 1225 0084 0010A0E1 		mov	r1, r0
 1226 0088 0B00A0E1 		mov	r0, fp
 1227 008c FEFFFFEB 		bl	__aeabi_fadd
 1228 0090 FEFFFFEB 		bl	__aeabi_f2d
 1229 0094 FEFFFFEB 		bl	sqrt
 1230 0098 FEFFFFEB 		bl	__aeabi_d2f
 1231 009c 00B0A0E1 		mov	fp, r0
 1232 00a0 0B10A0E1 		mov	r1, fp
 1233 00a4 0800A0E1 		mov	r0, r8
 1234 00a8 FEFFFFEB 		bl	__aeabi_fdiv
 1235 00ac 0B10A0E1 		mov	r1, fp
 1236 00b0 0080A0E1 		mov	r8, r0
 1237 00b4 0600A0E1 		mov	r0, r6
 1238 00b8 FEFFFFEB 		bl	__aeabi_fdiv
 1239 00bc 0060A0E1 		mov	r6, r0
 1240 00c0 0610A0E1 		mov	r1, r6
 1241 00c4 0700A0E1 		mov	r0, r7
 1242 00c8 FEFFFFEB 		bl	__aeabi_fmul
 1243 00cc 023188E2 		add	r3, r8, #-2147483648
 1244 00d0 099094E7 		ldr	r9, [r4, r9]	@ float
 1245 00d4 04B095E5 		ldr	fp, [r5, #4]	@ float
 1246 00d8 38308DE5 		str	r3, [sp, #56]
 1247 00dc 38109DE5 		ldr	r1, [sp, #56]	@ float
 1248 00e0 34008DE5 		str	r0, [sp, #52]	@ float
 1249 00e4 0700A0E1 		mov	r0, r7
 1250 00e8 FEFFFFEB 		bl	__aeabi_fmul
 1251 00ec 3C008DE5 		str	r0, [sp, #60]	@ float
 1252 00f0 0700A0E1 		mov	r0, r7
 1253 00f4 FEFFFFEB 		bl	__aeabi_f2d
 1254 00f8 0C2E9FE5 		ldr	r2, .L254+4
 1255 00fc 0C3E9FE5 		ldr	r3, .L254+8
 1256 0100 FEFFFFEB 		bl	__aeabi_dmul
 1257 0104 10008DE5 		str	r0, [sp, #16]
 1258 0108 14108DE5 		str	r1, [sp, #20]
 1259 010c 0800A0E1 		mov	r0, r8
 1260 0110 FEFFFFEB 		bl	__aeabi_f2d
 1261 0114 18008DE5 		str	r0, [sp, #24]
 1262 0118 1C108DE5 		str	r1, [sp, #28]
 1263 011c 0600A0E1 		mov	r0, r6
 1264 0120 FEFFFFEB 		bl	__aeabi_f2d
 1265 0124 026186E2 		add	r6, r6, #-2147483648
 1266 0128 40608DE5 		str	r6, [sp, #64]
 1267 012c 20008DE5 		str	r0, [sp, #32]
 1268 0130 24108DE5 		str	r1, [sp, #36]
 1269 0134 40109DE5 		ldr	r1, [sp, #64]	@ float
 1270 0138 0700A0E1 		mov	r0, r7
 1271 013c FEFFFFEB 		bl	__aeabi_fmul
 1272 0140 0810A0E1 		mov	r1, r8
 1273 0144 44008DE5 		str	r0, [sp, #68]	@ float
 1274 0148 0700A0E1 		mov	r0, r7
 1275 014c FEFFFFEB 		bl	__aeabi_fmul
 1276 0150 0CC09DE5 		ldr	ip, [sp, #12]
 1277 0154 04C09CE5 		ldr	ip, [ip, #4]	@ float
 1278 0158 18308DE2 		add	r3, sp, #24
 1279 015c 0C0093E8 		ldmia	r3, {r2-r3}
 1280 0160 48008DE5 		str	r0, [sp, #72]	@ float
 1281 0164 20108DE2 		add	r1, sp, #32
 1282 0168 030091E8 		ldmia	r1, {r0-r1}
 1283 016c 0A8094E7 		ldr	r8, [r4, sl]	@ float
 1284 0170 2CC08DE5 		str	ip, [sp, #44]	@ float
 1285 0174 FEFFFFEB 		bl	atan2
 1286 0178 0020A0E1 		mov	r2, r0
 1287 017c 0130A0E1 		mov	r3, r1
 1288 0180 8C0D9FE5 		ldr	r0, .L254+12
 1289 0184 8C1D9FE5 		ldr	r1, .L254+16
 1290 0188 FEFFFFEB 		bl	__aeabi_dsub
 1291 018c FEFFFFEB 		bl	__aeabi_d2f
 1292 0190 18308DE2 		add	r3, sp, #24
 1293 0194 0C0093E8 		ldmia	r3, {r2-r3}
 1294 0198 4C008DE5 		str	r0, [sp, #76]	@ float
 1295 019c 20108DE2 		add	r1, sp, #32
 1296 01a0 030091E8 		ldmia	r1, {r0-r1}
 1297 01a4 FEFFFFEB 		bl	atan2
 1298 01a8 0020A0E1 		mov	r2, r0
 1299 01ac 0130A0E1 		mov	r3, r1
 1300 01b0 5C0D9FE5 		ldr	r0, .L254+12
 1301 01b4 601D9FE5 		ldr	r1, .L254+20
 1302 01b8 FEFFFFEB 		bl	__aeabi_dsub
 1303 01bc FEFFFFEB 		bl	__aeabi_d2f
 1304 01c0 18308DE2 		add	r3, sp, #24
 1305 01c4 0C0093E8 		ldmia	r3, {r2-r3}
 1306 01c8 50008DE5 		str	r0, [sp, #80]	@ float
 1307 01cc 20108DE2 		add	r1, sp, #32
 1308 01d0 030091E8 		ldmia	r1, {r0-r1}
 1309 01d4 FEFFFFEB 		bl	atan2
 1310 01d8 0020A0E1 		mov	r2, r0
 1311 01dc 0130A0E1 		mov	r3, r1
 1312 01e0 380D9FE5 		ldr	r0, .L254+24
 1313 01e4 381D9FE5 		ldr	r1, .L254+28
 1314 01e8 FEFFFFEB 		bl	__aeabi_dsub
 1315 01ec FEFFFFEB 		bl	__aeabi_d2f
 1316 01f0 303D9FE5 		ldr	r3, .L254+32
 1317 01f4 0020A0E3 		mov	r2, #0
 1318 01f8 0020C3E5 		strb	r2, [r3, #0]
 1319 01fc 282D9FE5 		ldr	r2, .L254+36
 1320 0200 0030A0E3 		mov	r3, #0
 1321 0204 003082E5 		str	r3, [r2, #0]	@ float
 1322 0208 202D9FE5 		ldr	r2, .L254+40
 1323 020c 0310A0E3 		mov	r1, #3
 1324 0210 0010C2E5 		strb	r1, [r2, #0]
 1325 0214 182D9FE5 		ldr	r2, .L254+44
 1326 0218 081095E5 		ldr	r1, [r5, #8]	@ float
 1327 021c 001082E5 		str	r1, [r2, #0]	@ float
 1328 0220 102D9FE5 		ldr	r2, .L254+48
 1329 0224 003082E5 		str	r3, [r2, #0]	@ float
 1330 0228 0C3D9FE5 		ldr	r3, .L254+52
 1331 022c 0030D3E5 		ldrb	r3, [r3, #0]	@ zero_extendqisi2
 1332 0230 00A0A0E1 		mov	sl, r0
 1333 0234 0C60A0E3 		mov	r6, #12
 1334 0238 070053E3 		cmp	r3, #7
 1335 023c 03F19F97 		ldrls	pc, [pc, r3, asl #2]
 1336 0240 2C0300EA 		b	.L93
 1337              	.L102:
 1338 0244 64020000 		.word	.L94
 1339 0248 BC020000 		.word	.L95
 1340 024c 78040000 		.word	.L96
 1341 0250 C8060000 		.word	.L97
 1342 0254 84080000 		.word	.L98
 1343 0258 F4080000 		.word	.L99
 1344 025c BC0A0000 		.word	.L100
 1345 0260 280D0000 		.word	.L101
 1346              	.L94:
 1347 0264 28209DE5 		ldr	r2, [sp, #40]
 1348 0268 30709DE5 		ldr	r7, [sp, #48]
 1349 026c 960707E0 		mul	r7, r6, r7
 1350 0270 920606E0 		mul	r6, r2, r6
 1351 0274 078084E0 		add	r8, r4, r7
 1352 0278 065084E0 		add	r5, r4, r6
 1353 027c 070094E7 		ldr	r0, [r4, r7]	@ float
 1354 0280 041098E5 		ldr	r1, [r8, #4]	@ float
 1355 0284 062094E7 		ldr	r2, [r4, r6]	@ float
 1356 0288 043095E5 		ldr	r3, [r5, #4]	@ float
 1357 028c FEFFFFEB 		bl	nav_route_xy
 1358 0290 A83C9FE5 		ldr	r3, .L254+56
 1359 0294 00308DE5 		str	r3, [sp, #0]	@ float
 1360 0298 072094E7 		ldr	r2, [r4, r7]	@ float
 1361 029c 060094E7 		ldr	r0, [r4, r6]	@ float
 1362 02a0 041095E5 		ldr	r1, [r5, #4]	@ float
 1363 02a4 043098E5 		ldr	r3, [r8, #4]	@ float
 1364 02a8 FEFFFFEB 		bl	nav_approaching_xy
 1365 02ac 000050E3 		cmp	r0, #0
 1366 02b0 0120A013 		movne	r2, #1
 1367 02b4 0F03000A 		beq	.L93
 1368 02b8 860100EA 		b	.L252
 1369              	.L95:
 1370 02bc 34109DE5 		ldr	r1, [sp, #52]	@ float
 1371 02c0 0900A0E1 		mov	r0, r9
 1372 02c4 FEFFFFEB 		bl	__aeabi_fadd
 1373 02c8 3C109DE5 		ldr	r1, [sp, #60]	@ float
 1374 02cc 0040A0E1 		mov	r4, r0
 1375 02d0 0B00A0E1 		mov	r0, fp
 1376 02d4 FEFFFFEB 		bl	__aeabi_fadd
 1377 02d8 0720A0E1 		mov	r2, r7
 1378 02dc 0010A0E1 		mov	r1, r0
 1379 02e0 0400A0E1 		mov	r0, r4
 1380 02e4 FEFFFFEB 		bl	nav_circle_XY
 1381 02e8 4C009DE5 		ldr	r0, [sp, #76]	@ float
 1382 02ec FEFFFFEB 		bl	__aeabi_f2d
 1383 02f0 4C2C9FE5 		ldr	r2, .L254+60
 1384 02f4 4C3C9FE5 		ldr	r3, .L254+64
 1385 02f8 FEFFFFEB 		bl	__aeabi_dmul
 1386 02fc 0020A0E3 		mov	r2, #0
 1387 0300 443C9FE5 		ldr	r3, .L254+68
 1388 0304 FEFFFFEB 		bl	__aeabi_dsub
 1389 0308 403C9FE5 		ldr	r3, .L254+72
 1390 030c 0040A0E1 		mov	r4, r0
 1391 0310 000093E5 		ldr	r0, [r3, #0]	@ float
 1392 0314 0150A0E1 		mov	r5, r1
 1393 0318 FEFFFFEB 		bl	__aeabi_f2d
 1394 031c 0020A0E1 		mov	r2, r0
 1395 0320 0130A0E1 		mov	r3, r1
 1396 0324 F40B9FE5 		ldr	r0, .L254+24
 1397 0328 241C9FE5 		ldr	r1, .L254+76
 1398 032c FEFFFFEB 		bl	__aeabi_dsub
 1399 0330 0C2C9FE5 		ldr	r2, .L254+60
 1400 0334 0C3C9FE5 		ldr	r3, .L254+64
 1401 0338 FEFFFFEB 		bl	__aeabi_dmul
 1402 033c FEFFFFEB 		bl	__aeabi_d2f
 1403 0340 0070A0E3 		mov	r7, #0
 1404 0344 0060A0E1 		mov	r6, r0
 1405 0348 030000EA 		b	.L103
 1406              	.L106:
 1407 034c 0600A0E1 		mov	r0, r6
 1408 0350 001C9FE5 		ldr	r1, .L254+80
 1409 0354 FEFFFFEB 		bl	__aeabi_fadd
 1410 0358 0060A0E1 		mov	r6, r0
 1411              	.L103:
 1412 035c 0600A0E1 		mov	r0, r6
 1413 0360 0010A0E3 		mov	r1, #0
 1414 0364 FEFFFFEB 		bl	__aeabi_fcmplt
 1415 0368 000050E3 		cmp	r0, #0
 1416 036c FF8007E2 		and	r8, r7, #255
 1417 0370 0700000A 		beq	.L227
 1418 0374 017087E2 		add	r7, r7, #1
 1419 0378 010C57E3 		cmp	r7, #256
 1420 037c F2FFFF1A 		bne	.L106
 1421 0380 0080A0E3 		mov	r8, #0
 1422 0384 020000EA 		b	.L227
 1423              	.L110:
 1424 0388 C81B9FE5 		ldr	r1, .L254+80
 1425 038c FEFFFFEB 		bl	__aeabi_fsub
 1426 0390 0060A0E1 		mov	r6, r0
 1427              	.L227:
 1428 0394 0600A0E1 		mov	r0, r6
 1429 0398 B81B9FE5 		ldr	r1, .L254+80
 1430 039c FEFFFFEB 		bl	__aeabi_fcmpge
 1431 03a0 000050E3 		cmp	r0, #0
 1432 03a4 0600A0E1 		mov	r0, r6
 1433 03a8 0200000A 		beq	.L108
 1434 03ac 018088E2 		add	r8, r8, #1
 1435 03b0 FF8018E2 		ands	r8, r8, #255
 1436 03b4 F3FFFF1A 		bne	.L110
 1437              	.L108:
 1438 03b8 FEFFFFEB 		bl	__aeabi_f2d
 1439 03bc 0020A0E1 		mov	r2, r0
 1440 03c0 0130A0E1 		mov	r3, r1
 1441 03c4 0400A0E1 		mov	r0, r4
 1442 03c8 0510A0E1 		mov	r1, r5
 1443 03cc FEFFFFEB 		bl	__aeabi_dsub
 1444 03d0 FEFFFFEB 		bl	__aeabi_d2f
 1445 03d4 0050A0E3 		mov	r5, #0
 1446 03d8 0040A0E1 		mov	r4, r0
 1447 03dc 030000EA 		b	.L111
 1448              	.L114:
 1449 03e0 0400A0E1 		mov	r0, r4
 1450 03e4 6C1B9FE5 		ldr	r1, .L254+80
 1451 03e8 FEFFFFEB 		bl	__aeabi_fadd
 1452 03ec 0040A0E1 		mov	r4, r0
 1453              	.L111:
 1454 03f0 0400A0E1 		mov	r0, r4
 1455 03f4 0010A0E3 		mov	r1, #0
 1456 03f8 FEFFFFEB 		bl	__aeabi_fcmplt
 1457 03fc 000050E3 		cmp	r0, #0
 1458 0400 FF6005E2 		and	r6, r5, #255
 1459 0404 0700000A 		beq	.L228
 1460 0408 015085E2 		add	r5, r5, #1
 1461 040c 010C55E3 		cmp	r5, #256
 1462 0410 F2FFFF1A 		bne	.L114
 1463 0414 0060A0E3 		mov	r6, #0
 1464 0418 020000EA 		b	.L228
 1465              	.L118:
 1466 041c 341B9FE5 		ldr	r1, .L254+80
 1467 0420 FEFFFFEB 		bl	__aeabi_fsub
 1468 0424 0040A0E1 		mov	r4, r0
 1469              	.L228:
 1470 0428 0400A0E1 		mov	r0, r4
 1471 042c 241B9FE5 		ldr	r1, .L254+80
 1472 0430 FEFFFFEB 		bl	__aeabi_fcmpge
 1473 0434 000050E3 		cmp	r0, #0
 1474 0438 0400A0E1 		mov	r0, r4
 1475 043c 0200000A 		beq	.L116
 1476 0440 016086E2 		add	r6, r6, #1
 1477 0444 FF6016E2 		ands	r6, r6, #255
 1478 0448 F3FFFF1A 		bne	.L118
 1479              	.L116:
 1480 044c 081B9FE5 		ldr	r1, .L254+84
 1481 0450 FEFFFFEB 		bl	__aeabi_fcmpgt
 1482 0454 000050E3 		cmp	r0, #0
 1483 0458 0400001A 		bne	.L119
 1484 045c 0400A0E1 		mov	r0, r4
 1485 0460 F81A9FE5 		ldr	r1, .L254+88
 1486 0464 FEFFFFEB 		bl	__aeabi_fcmplt
 1487 0468 000050E3 		cmp	r0, #0
 1488 046c A102000A 		beq	.L93
 1489              	.L119:
 1490 0470 0220A0E3 		mov	r2, #2
 1491 0474 9C0200EA 		b	.L253
 1492              	.L96:
 1493 0478 0900A0E1 		mov	r0, r9
 1494 047c FEFFFFEB 		bl	__aeabi_f2d
 1495 0480 18308DE2 		add	r3, sp, #24
 1496 0484 0C0093E8 		ldmia	r3, {r2-r3}
 1497 0488 0040A0E1 		mov	r4, r0
 1498 048c 0150A0E1 		mov	r5, r1
 1499 0490 10108DE2 		add	r1, sp, #16
 1500 0494 030091E8 		ldmia	r1, {r0-r1}
 1501 0498 FEFFFFEB 		bl	__aeabi_dmul
 1502 049c 0020A0E1 		mov	r2, r0
 1503 04a0 0130A0E1 		mov	r3, r1
 1504 04a4 0400A0E1 		mov	r0, r4
 1505 04a8 0510A0E1 		mov	r1, r5
 1506 04ac FEFFFFEB 		bl	__aeabi_dadd
 1507 04b0 FEFFFFEB 		bl	__aeabi_d2f
 1508 04b4 0040A0E1 		mov	r4, r0
 1509 04b8 0B00A0E1 		mov	r0, fp
 1510 04bc FEFFFFEB 		bl	__aeabi_f2d
 1511 04c0 20308DE2 		add	r3, sp, #32
 1512 04c4 0C0093E8 		ldmia	r3, {r2-r3}
 1513 04c8 0080A0E1 		mov	r8, r0
 1514 04cc 0190A0E1 		mov	r9, r1
 1515 04d0 10108DE2 		add	r1, sp, #16
 1516 04d4 030091E8 		ldmia	r1, {r0-r1}
 1517 04d8 FEFFFFEB 		bl	__aeabi_dmul
 1518 04dc 0130A0E1 		mov	r3, r1
 1519 04e0 0020A0E1 		mov	r2, r0
 1520 04e4 0910A0E1 		mov	r1, r9
 1521 04e8 0800A0E1 		mov	r0, r8
 1522 04ec FEFFFFEB 		bl	__aeabi_dadd
 1523 04f0 FEFFFFEB 		bl	__aeabi_d2f
 1524 04f4 022187E2 		add	r2, r7, #-2147483648
 1525 04f8 0010A0E1 		mov	r1, r0
 1526 04fc 0400A0E1 		mov	r0, r4
 1527 0500 FEFFFFEB 		bl	nav_circle_XY
 1528 0504 50009DE5 		ldr	r0, [sp, #80]	@ float
 1529 0508 FEFFFFEB 		bl	__aeabi_f2d
 1530 050c 302A9FE5 		ldr	r2, .L254+60
 1531 0510 303A9FE5 		ldr	r3, .L254+64
 1532 0514 FEFFFFEB 		bl	__aeabi_dmul
 1533 0518 0020A0E3 		mov	r2, #0
 1534 051c 283A9FE5 		ldr	r3, .L254+68
 1535 0520 FEFFFFEB 		bl	__aeabi_dadd
 1536 0524 243A9FE5 		ldr	r3, .L254+72
 1537 0528 0040A0E1 		mov	r4, r0
 1538 052c 000093E5 		ldr	r0, [r3, #0]	@ float
 1539 0530 0150A0E1 		mov	r5, r1
 1540 0534 FEFFFFEB 		bl	__aeabi_f2d
 1541 0538 0020A0E1 		mov	r2, r0
 1542 053c 0130A0E1 		mov	r3, r1
 1543 0540 D8099FE5 		ldr	r0, .L254+24
 1544 0544 081A9FE5 		ldr	r1, .L254+76
 1545 0548 FEFFFFEB 		bl	__aeabi_dsub
 1546 054c F0299FE5 		ldr	r2, .L254+60
 1547 0550 F0399FE5 		ldr	r3, .L254+64
 1548 0554 FEFFFFEB 		bl	__aeabi_dmul
 1549 0558 FEFFFFEB 		bl	__aeabi_d2f
 1550 055c 0070A0E3 		mov	r7, #0
 1551 0560 0060A0E1 		mov	r6, r0
 1552 0564 030000EA 		b	.L121
 1553              	.L124:
 1554 0568 0600A0E1 		mov	r0, r6
 1555 056c E4199FE5 		ldr	r1, .L254+80
 1556 0570 FEFFFFEB 		bl	__aeabi_fadd
 1557 0574 0060A0E1 		mov	r6, r0
 1558              	.L121:
 1559 0578 0600A0E1 		mov	r0, r6
 1560 057c 0010A0E3 		mov	r1, #0
 1561 0580 FEFFFFEB 		bl	__aeabi_fcmplt
 1562 0584 000050E3 		cmp	r0, #0
 1563 0588 FF8007E2 		and	r8, r7, #255
 1564 058c 0700000A 		beq	.L229
 1565 0590 017087E2 		add	r7, r7, #1
 1566 0594 010C57E3 		cmp	r7, #256
 1567 0598 F2FFFF1A 		bne	.L124
 1568 059c 0080A0E3 		mov	r8, #0
 1569 05a0 020000EA 		b	.L229
 1570              	.L128:
 1571 05a4 AC199FE5 		ldr	r1, .L254+80
 1572 05a8 FEFFFFEB 		bl	__aeabi_fsub
 1573 05ac 0060A0E1 		mov	r6, r0
 1574              	.L229:
 1575 05b0 0600A0E1 		mov	r0, r6
 1576 05b4 9C199FE5 		ldr	r1, .L254+80
 1577 05b8 FEFFFFEB 		bl	__aeabi_fcmpge
 1578 05bc 000050E3 		cmp	r0, #0
 1579 05c0 0600A0E1 		mov	r0, r6
 1580 05c4 0200000A 		beq	.L126
 1581 05c8 018088E2 		add	r8, r8, #1
 1582 05cc FF8018E2 		ands	r8, r8, #255
 1583 05d0 F3FFFF1A 		bne	.L128
 1584              	.L126:
 1585 05d4 FEFFFFEB 		bl	__aeabi_f2d
 1586 05d8 0020A0E1 		mov	r2, r0
 1587 05dc 0130A0E1 		mov	r3, r1
 1588 05e0 0400A0E1 		mov	r0, r4
 1589 05e4 0510A0E1 		mov	r1, r5
 1590 05e8 FEFFFFEB 		bl	__aeabi_dsub
 1591 05ec FEFFFFEB 		bl	__aeabi_d2f
 1592 05f0 0050A0E3 		mov	r5, #0
 1593 05f4 0040A0E1 		mov	r4, r0
 1594 05f8 030000EA 		b	.L129
 1595              	.L132:
 1596 05fc 0400A0E1 		mov	r0, r4
 1597 0600 50199FE5 		ldr	r1, .L254+80
 1598 0604 FEFFFFEB 		bl	__aeabi_fadd
 1599 0608 0040A0E1 		mov	r4, r0
 1600              	.L129:
 1601 060c 0400A0E1 		mov	r0, r4
 1602 0610 0010A0E3 		mov	r1, #0
 1603 0614 FEFFFFEB 		bl	__aeabi_fcmplt
 1604 0618 000050E3 		cmp	r0, #0
 1605 061c FF6005E2 		and	r6, r5, #255
 1606 0620 0700000A 		beq	.L230
 1607 0624 015085E2 		add	r5, r5, #1
 1608 0628 010C55E3 		cmp	r5, #256
 1609 062c F2FFFF1A 		bne	.L132
 1610 0630 0060A0E3 		mov	r6, #0
 1611 0634 020000EA 		b	.L230
 1612              	.L136:
 1613 0638 18199FE5 		ldr	r1, .L254+80
 1614 063c FEFFFFEB 		bl	__aeabi_fsub
 1615 0640 0040A0E1 		mov	r4, r0
 1616              	.L230:
 1617 0644 0400A0E1 		mov	r0, r4
 1618 0648 08199FE5 		ldr	r1, .L254+80
 1619 064c FEFFFFEB 		bl	__aeabi_fcmpge
 1620 0650 000050E3 		cmp	r0, #0
 1621 0654 0400A0E1 		mov	r0, r4
 1622 0658 0200000A 		beq	.L134
 1623 065c 016086E2 		add	r6, r6, #1
 1624 0660 FF6016E2 		ands	r6, r6, #255
 1625 0664 F3FFFF1A 		bne	.L136
 1626              	.L134:
 1627 0668 EC189FE5 		ldr	r1, .L254+84
 1628 066c FEFFFFEB 		bl	__aeabi_fcmpgt
 1629 0670 000050E3 		cmp	r0, #0
 1630 0674 0400001A 		bne	.L137
 1631 0678 0400A0E1 		mov	r0, r4
 1632 067c DC189FE5 		ldr	r1, .L254+88
 1633 0680 FEFFFFEB 		bl	__aeabi_fcmplt
 1634 0684 000050E3 		cmp	r0, #0
 1635 0688 1A02000A 		beq	.L93
 1636              	.L137:
 1637 068c 28209DE5 		ldr	r2, [sp, #40]
 1638 0690 70389FE5 		ldr	r3, .L254
 1639 0694 0C60A0E3 		mov	r6, #12
 1640 0698 923626E0 		mla	r6, r2, r6, r3
 1641 069c BC189FE5 		ldr	r1, .L254+88
 1642 06a0 080096E5 		ldr	r0, [r6, #8]	@ float
 1643 06a4 FEFFFFEB 		bl	__aeabi_fsub
 1644 06a8 B4389FE5 		ldr	r3, .L254+92
 1645 06ac 0010A0E1 		mov	r1, r0
 1646 06b0 000093E5 		ldr	r0, [r3, #0]	@ float
 1647 06b4 FEFFFFEB 		bl	__aeabi_fcmpge
 1648 06b8 000050E3 		cmp	r0, #0
 1649 06bc 0320A013 		movne	r2, #3
 1650 06c0 0C02000A 		beq	.L93
 1651 06c4 080200EA 		b	.L253
 1652              	.L97:
 1653 06c8 44109DE5 		ldr	r1, [sp, #68]	@ float
 1654 06cc 0900A0E1 		mov	r0, r9
 1655 06d0 FEFFFFEB 		bl	__aeabi_fadd
 1656 06d4 48109DE5 		ldr	r1, [sp, #72]	@ float
 1657 06d8 0040A0E1 		mov	r4, r0
 1658 06dc 0B00A0E1 		mov	r0, fp
 1659 06e0 FEFFFFEB 		bl	__aeabi_fadd
 1660 06e4 0720A0E1 		mov	r2, r7
 1661 06e8 0010A0E1 		mov	r1, r0
 1662 06ec 0400A0E1 		mov	r0, r4
 1663 06f0 FEFFFFEB 		bl	nav_circle_XY
 1664 06f4 0A00A0E1 		mov	r0, sl
 1665 06f8 FEFFFFEB 		bl	__aeabi_f2d
 1666 06fc 40289FE5 		ldr	r2, .L254+60
 1667 0700 40389FE5 		ldr	r3, .L254+64
 1668 0704 FEFFFFEB 		bl	__aeabi_dmul
 1669 0708 0020A0E3 		mov	r2, #0
 1670 070c 38389FE5 		ldr	r3, .L254+68
 1671 0710 FEFFFFEB 		bl	__aeabi_dsub
 1672 0714 34389FE5 		ldr	r3, .L254+72
 1673 0718 0040A0E1 		mov	r4, r0
 1674 071c 000093E5 		ldr	r0, [r3, #0]	@ float
 1675 0720 0150A0E1 		mov	r5, r1
 1676 0724 FEFFFFEB 		bl	__aeabi_f2d
 1677 0728 0020A0E1 		mov	r2, r0
 1678 072c 0130A0E1 		mov	r3, r1
 1679 0730 E8079FE5 		ldr	r0, .L254+24
 1680 0734 18189FE5 		ldr	r1, .L254+76
 1681 0738 FEFFFFEB 		bl	__aeabi_dsub
 1682 073c 00289FE5 		ldr	r2, .L254+60
 1683 0740 00389FE5 		ldr	r3, .L254+64
 1684 0744 FEFFFFEB 		bl	__aeabi_dmul
 1685 0748 FEFFFFEB 		bl	__aeabi_d2f
 1686 074c 0070A0E3 		mov	r7, #0
 1687 0750 0060A0E1 		mov	r6, r0
 1688 0754 030000EA 		b	.L140
 1689              	.L143:
 1690 0758 0600A0E1 		mov	r0, r6
 1691 075c F4179FE5 		ldr	r1, .L254+80
 1692 0760 FEFFFFEB 		bl	__aeabi_fadd
 1693 0764 0060A0E1 		mov	r6, r0
 1694              	.L140:
 1695 0768 0600A0E1 		mov	r0, r6
 1696 076c 0010A0E3 		mov	r1, #0
 1697 0770 FEFFFFEB 		bl	__aeabi_fcmplt
 1698 0774 000050E3 		cmp	r0, #0
 1699 0778 FF8007E2 		and	r8, r7, #255
 1700 077c 0700000A 		beq	.L231
 1701 0780 017087E2 		add	r7, r7, #1
 1702 0784 010C57E3 		cmp	r7, #256
 1703 0788 F2FFFF1A 		bne	.L143
 1704 078c 0080A0E3 		mov	r8, #0
 1705 0790 020000EA 		b	.L231
 1706              	.L147:
 1707 0794 BC179FE5 		ldr	r1, .L254+80
 1708 0798 FEFFFFEB 		bl	__aeabi_fsub
 1709 079c 0060A0E1 		mov	r6, r0
 1710              	.L231:
 1711 07a0 0600A0E1 		mov	r0, r6
 1712 07a4 AC179FE5 		ldr	r1, .L254+80
 1713 07a8 FEFFFFEB 		bl	__aeabi_fcmpge
 1714 07ac 000050E3 		cmp	r0, #0
 1715 07b0 0600A0E1 		mov	r0, r6
 1716 07b4 0200000A 		beq	.L145
 1717 07b8 018088E2 		add	r8, r8, #1
 1718 07bc FF8018E2 		ands	r8, r8, #255
 1719 07c0 F3FFFF1A 		bne	.L147
 1720              	.L145:
 1721 07c4 FEFFFFEB 		bl	__aeabi_f2d
 1722 07c8 0020A0E1 		mov	r2, r0
 1723 07cc 0130A0E1 		mov	r3, r1
 1724 07d0 0400A0E1 		mov	r0, r4
 1725 07d4 0510A0E1 		mov	r1, r5
 1726 07d8 FEFFFFEB 		bl	__aeabi_dsub
 1727 07dc FEFFFFEB 		bl	__aeabi_d2f
 1728 07e0 0050A0E3 		mov	r5, #0
 1729 07e4 0040A0E1 		mov	r4, r0
 1730 07e8 030000EA 		b	.L148
 1731              	.L151:
 1732 07ec 0400A0E1 		mov	r0, r4
 1733 07f0 60179FE5 		ldr	r1, .L254+80
 1734 07f4 FEFFFFEB 		bl	__aeabi_fadd
 1735 07f8 0040A0E1 		mov	r4, r0
 1736              	.L148:
 1737 07fc 0400A0E1 		mov	r0, r4
 1738 0800 0010A0E3 		mov	r1, #0
 1739 0804 FEFFFFEB 		bl	__aeabi_fcmplt
 1740 0808 000050E3 		cmp	r0, #0
 1741 080c FF6005E2 		and	r6, r5, #255
 1742 0810 0700000A 		beq	.L232
 1743 0814 015085E2 		add	r5, r5, #1
 1744 0818 010C55E3 		cmp	r5, #256
 1745 081c F2FFFF1A 		bne	.L151
 1746 0820 0060A0E3 		mov	r6, #0
 1747 0824 020000EA 		b	.L232
 1748              	.L155:
 1749 0828 28179FE5 		ldr	r1, .L254+80
 1750 082c FEFFFFEB 		bl	__aeabi_fsub
 1751 0830 0040A0E1 		mov	r4, r0
 1752              	.L232:
 1753 0834 0400A0E1 		mov	r0, r4
 1754 0838 18179FE5 		ldr	r1, .L254+80
 1755 083c FEFFFFEB 		bl	__aeabi_fcmpge
 1756 0840 000050E3 		cmp	r0, #0
 1757 0844 0400A0E1 		mov	r0, r4
 1758 0848 0200000A 		beq	.L153
 1759 084c 016086E2 		add	r6, r6, #1
 1760 0850 FF6016E2 		ands	r6, r6, #255
 1761 0854 F3FFFF1A 		bne	.L155
 1762              	.L153:
 1763 0858 FC169FE5 		ldr	r1, .L254+84
 1764 085c FEFFFFEB 		bl	__aeabi_fcmpgt
 1765 0860 000050E3 		cmp	r0, #0
 1766 0864 0400001A 		bne	.L156
 1767 0868 0400A0E1 		mov	r0, r4
 1768 086c EC169FE5 		ldr	r1, .L254+88
 1769 0870 FEFFFFEB 		bl	__aeabi_fcmplt
 1770 0874 000050E3 		cmp	r0, #0
 1771 0878 9E01000A 		beq	.L93
 1772              	.L156:
 1773 087c 0420A0E3 		mov	r2, #4
 1774 0880 990100EA 		b	.L253
 1775              	.L98:
 1776 0884 30309DE5 		ldr	r3, [sp, #48]
 1777 0888 28809DE5 		ldr	r8, [sp, #40]
 1778 088c 960808E0 		mul	r8, r6, r8
 1779 0890 930606E0 		mul	r6, r3, r6
 1780 0894 085084E0 		add	r5, r4, r8
 1781 0898 067084E0 		add	r7, r4, r6
 1782 089c 080094E7 		ldr	r0, [r4, r8]	@ float
 1783 08a0 041095E5 		ldr	r1, [r5, #4]	@ float
 1784 08a4 062094E7 		ldr	r2, [r4, r6]	@ float
 1785 08a8 043097E5 		ldr	r3, [r7, #4]	@ float
 1786 08ac FEFFFFEB 		bl	nav_route_xy
 1787 08b0 88369FE5 		ldr	r3, .L254+56
 1788 08b4 00308DE5 		str	r3, [sp, #0]	@ float
 1789 08b8 060094E7 		ldr	r0, [r4, r6]	@ float
 1790 08bc 041097E5 		ldr	r1, [r7, #4]	@ float
 1791 08c0 082094E7 		ldr	r2, [r4, r8]	@ float
 1792 08c4 043095E5 		ldr	r3, [r5, #4]	@ float
 1793 08c8 FEFFFFEB 		bl	nav_approaching_xy
 1794 08cc 000050E3 		cmp	r0, #0
 1795 08d0 8801000A 		beq	.L93
 1796 08d4 0520A0E3 		mov	r2, #5
 1797              	.L252:
 1798 08d8 5C369FE5 		ldr	r3, .L254+52
 1799 08dc 080095E5 		ldr	r0, [r5, #8]	@ float
 1800 08e0 54109DE5 		ldr	r1, [sp, #84]	@ float
 1801 08e4 0020C3E5 		strb	r2, [r3, #0]
 1802 08e8 FEFFFFEB 		bl	__aeabi_fadd
 1803 08ec 080085E5 		str	r0, [r5, #8]	@ float
 1804 08f0 7F0100EA 		b	.L251
 1805              	.L99:
 1806 08f4 44109DE5 		ldr	r1, [sp, #68]	@ float
 1807 08f8 0800A0E1 		mov	r0, r8
 1808 08fc FEFFFFEB 		bl	__aeabi_fadd
 1809 0900 48109DE5 		ldr	r1, [sp, #72]	@ float
 1810 0904 0040A0E1 		mov	r4, r0
 1811 0908 2C009DE5 		ldr	r0, [sp, #44]	@ float
 1812 090c FEFFFFEB 		bl	__aeabi_fadd
 1813 0910 0720A0E1 		mov	r2, r7
 1814 0914 0010A0E1 		mov	r1, r0
 1815 0918 0400A0E1 		mov	r0, r4
 1816 091c FEFFFFEB 		bl	nav_circle_XY
 1817 0920 4C009DE5 		ldr	r0, [sp, #76]	@ float
 1818 0924 FEFFFFEB 		bl	__aeabi_f2d
 1819 0928 F0259FE5 		ldr	r2, .L254+24
 1820 092c F0359FE5 		ldr	r3, .L254+28
 1821 0930 FEFFFFEB 		bl	__aeabi_dadd
 1822 0934 08269FE5 		ldr	r2, .L254+60
 1823 0938 08369FE5 		ldr	r3, .L254+64
 1824 093c FEFFFFEB 		bl	__aeabi_dmul
 1825 0940 0020A0E3 		mov	r2, #0
 1826 0944 00369FE5 		ldr	r3, .L254+68
 1827 0948 FEFFFFEB 		bl	__aeabi_dsub
 1828 094c FC359FE5 		ldr	r3, .L254+72
 1829 0950 0040A0E1 		mov	r4, r0
 1830 0954 000093E5 		ldr	r0, [r3, #0]	@ float
 1831 0958 0150A0E1 		mov	r5, r1
 1832 095c FEFFFFEB 		bl	__aeabi_f2d
 1833 0960 0020A0E1 		mov	r2, r0
 1834 0964 0130A0E1 		mov	r3, r1
 1835 0968 B0059FE5 		ldr	r0, .L254+24
 1836 096c E0159FE5 		ldr	r1, .L254+76
 1837 0970 FEFFFFEB 		bl	__aeabi_dsub
 1838 0974 C8259FE5 		ldr	r2, .L254+60
 1839 0978 C8359FE5 		ldr	r3, .L254+64
 1840 097c FEFFFFEB 		bl	__aeabi_dmul
 1841 0980 FEFFFFEB 		bl	__aeabi_d2f
 1842 0984 0070A0E3 		mov	r7, #0
 1843 0988 0060A0E1 		mov	r6, r0
 1844 098c 030000EA 		b	.L158
 1845              	.L161:
 1846 0990 0600A0E1 		mov	r0, r6
 1847 0994 BC159FE5 		ldr	r1, .L254+80
 1848 0998 FEFFFFEB 		bl	__aeabi_fadd
 1849 099c 0060A0E1 		mov	r6, r0
 1850              	.L158:
 1851 09a0 0600A0E1 		mov	r0, r6
 1852 09a4 0010A0E3 		mov	r1, #0
 1853 09a8 FEFFFFEB 		bl	__aeabi_fcmplt
 1854 09ac 000050E3 		cmp	r0, #0
 1855 09b0 FF8007E2 		and	r8, r7, #255
 1856 09b4 0700000A 		beq	.L233
 1857 09b8 017087E2 		add	r7, r7, #1
 1858 09bc 010C57E3 		cmp	r7, #256
 1859 09c0 F2FFFF1A 		bne	.L161
 1860 09c4 0080A0E3 		mov	r8, #0
 1861 09c8 020000EA 		b	.L233
 1862              	.L165:
 1863 09cc 84159FE5 		ldr	r1, .L254+80
 1864 09d0 FEFFFFEB 		bl	__aeabi_fsub
 1865 09d4 0060A0E1 		mov	r6, r0
 1866              	.L233:
 1867 09d8 0600A0E1 		mov	r0, r6
 1868 09dc 74159FE5 		ldr	r1, .L254+80
 1869 09e0 FEFFFFEB 		bl	__aeabi_fcmpge
 1870 09e4 000050E3 		cmp	r0, #0
 1871 09e8 0600A0E1 		mov	r0, r6
 1872 09ec 0200000A 		beq	.L163
 1873 09f0 018088E2 		add	r8, r8, #1
 1874 09f4 FF8018E2 		ands	r8, r8, #255
 1875 09f8 F3FFFF1A 		bne	.L165
 1876              	.L163:
 1877 09fc FEFFFFEB 		bl	__aeabi_f2d
 1878 0a00 0020A0E1 		mov	r2, r0
 1879 0a04 0130A0E1 		mov	r3, r1
 1880 0a08 0400A0E1 		mov	r0, r4
 1881 0a0c 0510A0E1 		mov	r1, r5
 1882 0a10 FEFFFFEB 		bl	__aeabi_dsub
 1883 0a14 FEFFFFEB 		bl	__aeabi_d2f
 1884 0a18 0050A0E3 		mov	r5, #0
 1885 0a1c 0040A0E1 		mov	r4, r0
 1886 0a20 030000EA 		b	.L166
 1887              	.L169:
 1888 0a24 0400A0E1 		mov	r0, r4
 1889 0a28 28159FE5 		ldr	r1, .L254+80
 1890 0a2c FEFFFFEB 		bl	__aeabi_fadd
 1891 0a30 0040A0E1 		mov	r4, r0
 1892              	.L166:
 1893 0a34 0400A0E1 		mov	r0, r4
 1894 0a38 0010A0E3 		mov	r1, #0
 1895 0a3c FEFFFFEB 		bl	__aeabi_fcmplt
 1896 0a40 000050E3 		cmp	r0, #0
 1897 0a44 FF6005E2 		and	r6, r5, #255
 1898 0a48 0700000A 		beq	.L234
 1899 0a4c 015085E2 		add	r5, r5, #1
 1900 0a50 010C55E3 		cmp	r5, #256
 1901 0a54 F2FFFF1A 		bne	.L169
 1902 0a58 0060A0E3 		mov	r6, #0
 1903 0a5c 020000EA 		b	.L234
 1904              	.L173:
 1905 0a60 F0149FE5 		ldr	r1, .L254+80
 1906 0a64 FEFFFFEB 		bl	__aeabi_fsub
 1907 0a68 0040A0E1 		mov	r4, r0
 1908              	.L234:
 1909 0a6c 0400A0E1 		mov	r0, r4
 1910 0a70 E0149FE5 		ldr	r1, .L254+80
 1911 0a74 FEFFFFEB 		bl	__aeabi_fcmpge
 1912 0a78 000050E3 		cmp	r0, #0
 1913 0a7c 0400A0E1 		mov	r0, r4
 1914 0a80 0200000A 		beq	.L171
 1915 0a84 016086E2 		add	r6, r6, #1
 1916 0a88 FF6016E2 		ands	r6, r6, #255
 1917 0a8c F3FFFF1A 		bne	.L173
 1918              	.L171:
 1919 0a90 C4149FE5 		ldr	r1, .L254+84
 1920 0a94 FEFFFFEB 		bl	__aeabi_fcmpgt
 1921 0a98 000050E3 		cmp	r0, #0
 1922 0a9c 0400001A 		bne	.L174
 1923 0aa0 0400A0E1 		mov	r0, r4
 1924 0aa4 B4149FE5 		ldr	r1, .L254+88
 1925 0aa8 FEFFFFEB 		bl	__aeabi_fcmplt
 1926 0aac 000050E3 		cmp	r0, #0
 1927 0ab0 1001000A 		beq	.L93
 1928              	.L174:
 1929 0ab4 0620A0E3 		mov	r2, #6
 1930 0ab8 0B0100EA 		b	.L253
 1931              	.L100:
 1932 0abc 0800A0E1 		mov	r0, r8
 1933 0ac0 FEFFFFEB 		bl	__aeabi_f2d
 1934 0ac4 0040A0E1 		mov	r4, r0
 1935 0ac8 38009DE5 		ldr	r0, [sp, #56]	@ float
 1936 0acc 0150A0E1 		mov	r5, r1
 1937 0ad0 FEFFFFEB 		bl	__aeabi_f2d
 1938 0ad4 0020A0E1 		mov	r2, r0
 1939 0ad8 0130A0E1 		mov	r3, r1
 1940 0adc 10108DE2 		add	r1, sp, #16
 1941 0ae0 030091E8 		ldmia	r1, {r0-r1}
 1942 0ae4 FEFFFFEB 		bl	__aeabi_dmul
 1943 0ae8 0020A0E1 		mov	r2, r0
 1944 0aec 0130A0E1 		mov	r3, r1
 1945 0af0 0400A0E1 		mov	r0, r4
 1946 0af4 0510A0E1 		mov	r1, r5
 1947 0af8 FEFFFFEB 		bl	__aeabi_dadd
 1948 0afc FEFFFFEB 		bl	__aeabi_d2f
 1949 0b00 0040A0E1 		mov	r4, r0
 1950 0b04 2C009DE5 		ldr	r0, [sp, #44]	@ float
 1951 0b08 FEFFFFEB 		bl	__aeabi_f2d
 1952 0b0c 0080A0E1 		mov	r8, r0
 1953 0b10 40009DE5 		ldr	r0, [sp, #64]	@ float
 1954 0b14 0190A0E1 		mov	r9, r1
 1955 0b18 FEFFFFEB 		bl	__aeabi_f2d
 1956 0b1c 0020A0E1 		mov	r2, r0
 1957 0b20 0130A0E1 		mov	r3, r1
 1958 0b24 10108DE2 		add	r1, sp, #16
 1959 0b28 030091E8 		ldmia	r1, {r0-r1}
 1960 0b2c FEFFFFEB 		bl	__aeabi_dmul
 1961 0b30 0130A0E1 		mov	r3, r1
 1962 0b34 0020A0E1 		mov	r2, r0
 1963 0b38 0910A0E1 		mov	r1, r9
 1964 0b3c 0800A0E1 		mov	r0, r8
 1965 0b40 FEFFFFEB 		bl	__aeabi_dadd
 1966 0b44 FEFFFFEB 		bl	__aeabi_d2f
 1967 0b48 022187E2 		add	r2, r7, #-2147483648
 1968 0b4c 0010A0E1 		mov	r1, r0
 1969 0b50 0400A0E1 		mov	r0, r4
 1970 0b54 FEFFFFEB 		bl	nav_circle_XY
 1971 0b58 50009DE5 		ldr	r0, [sp, #80]	@ float
 1972 0b5c FEFFFFEB 		bl	__aeabi_f2d
 1973 0b60 B8239FE5 		ldr	r2, .L254+24
 1974 0b64 B8339FE5 		ldr	r3, .L254+28
 1975 0b68 FEFFFFEB 		bl	__aeabi_dadd
 1976 0b6c D0239FE5 		ldr	r2, .L254+60
 1977 0b70 D0339FE5 		ldr	r3, .L254+64
 1978 0b74 FEFFFFEB 		bl	__aeabi_dmul
 1979 0b78 0020A0E3 		mov	r2, #0
 1980 0b7c C8339FE5 		ldr	r3, .L254+68
 1981 0b80 FEFFFFEB 		bl	__aeabi_dadd
 1982 0b84 C4339FE5 		ldr	r3, .L254+72
 1983 0b88 0040A0E1 		mov	r4, r0
 1984 0b8c 000093E5 		ldr	r0, [r3, #0]	@ float
 1985 0b90 0150A0E1 		mov	r5, r1
 1986 0b94 FEFFFFEB 		bl	__aeabi_f2d
 1987 0b98 0020A0E1 		mov	r2, r0
 1988 0b9c 0130A0E1 		mov	r3, r1
 1989 0ba0 78039FE5 		ldr	r0, .L254+24
 1990 0ba4 A8139FE5 		ldr	r1, .L254+76
 1991 0ba8 FEFFFFEB 		bl	__aeabi_dsub
 1992 0bac 90239FE5 		ldr	r2, .L254+60
 1993 0bb0 90339FE5 		ldr	r3, .L254+64
 1994 0bb4 FEFFFFEB 		bl	__aeabi_dmul
 1995 0bb8 FEFFFFEB 		bl	__aeabi_d2f
 1996 0bbc 0070A0E3 		mov	r7, #0
 1997 0bc0 0060A0E1 		mov	r6, r0
 1998 0bc4 030000EA 		b	.L176
 1999              	.L179:
 2000 0bc8 0600A0E1 		mov	r0, r6
 2001 0bcc 84139FE5 		ldr	r1, .L254+80
 2002 0bd0 FEFFFFEB 		bl	__aeabi_fadd
 2003 0bd4 0060A0E1 		mov	r6, r0
 2004              	.L176:
 2005 0bd8 0600A0E1 		mov	r0, r6
 2006 0bdc 0010A0E3 		mov	r1, #0
 2007 0be0 FEFFFFEB 		bl	__aeabi_fcmplt
 2008 0be4 000050E3 		cmp	r0, #0
 2009 0be8 FF8007E2 		and	r8, r7, #255
 2010 0bec 0700000A 		beq	.L235
 2011 0bf0 017087E2 		add	r7, r7, #1
 2012 0bf4 010C57E3 		cmp	r7, #256
 2013 0bf8 F2FFFF1A 		bne	.L179
 2014 0bfc 0080A0E3 		mov	r8, #0
 2015 0c00 020000EA 		b	.L235
 2016              	.L183:
 2017 0c04 4C139FE5 		ldr	r1, .L254+80
 2018 0c08 FEFFFFEB 		bl	__aeabi_fsub
 2019 0c0c 0060A0E1 		mov	r6, r0
 2020              	.L235:
 2021 0c10 0600A0E1 		mov	r0, r6
 2022 0c14 3C139FE5 		ldr	r1, .L254+80
 2023 0c18 FEFFFFEB 		bl	__aeabi_fcmpge
 2024 0c1c 000050E3 		cmp	r0, #0
 2025 0c20 0600A0E1 		mov	r0, r6
 2026 0c24 0200000A 		beq	.L181
 2027 0c28 018088E2 		add	r8, r8, #1
 2028 0c2c FF8018E2 		ands	r8, r8, #255
 2029 0c30 F3FFFF1A 		bne	.L183
 2030              	.L181:
 2031 0c34 FEFFFFEB 		bl	__aeabi_f2d
 2032 0c38 0020A0E1 		mov	r2, r0
 2033 0c3c 0130A0E1 		mov	r3, r1
 2034 0c40 0400A0E1 		mov	r0, r4
 2035 0c44 0510A0E1 		mov	r1, r5
 2036 0c48 FEFFFFEB 		bl	__aeabi_dsub
 2037 0c4c FEFFFFEB 		bl	__aeabi_d2f
 2038 0c50 0050A0E3 		mov	r5, #0
 2039 0c54 0040A0E1 		mov	r4, r0
 2040 0c58 030000EA 		b	.L184
 2041              	.L187:
 2042 0c5c 0400A0E1 		mov	r0, r4
 2043 0c60 F0129FE5 		ldr	r1, .L254+80
 2044 0c64 FEFFFFEB 		bl	__aeabi_fadd
 2045 0c68 0040A0E1 		mov	r4, r0
 2046              	.L184:
 2047 0c6c 0400A0E1 		mov	r0, r4
 2048 0c70 0010A0E3 		mov	r1, #0
 2049 0c74 FEFFFFEB 		bl	__aeabi_fcmplt
 2050 0c78 000050E3 		cmp	r0, #0
 2051 0c7c FF6005E2 		and	r6, r5, #255
 2052 0c80 0700000A 		beq	.L236
 2053 0c84 015085E2 		add	r5, r5, #1
 2054 0c88 010C55E3 		cmp	r5, #256
 2055 0c8c F2FFFF1A 		bne	.L187
 2056 0c90 0060A0E3 		mov	r6, #0
 2057 0c94 020000EA 		b	.L236
 2058              	.L191:
 2059 0c98 B8129FE5 		ldr	r1, .L254+80
 2060 0c9c FEFFFFEB 		bl	__aeabi_fsub
 2061 0ca0 0040A0E1 		mov	r4, r0
 2062              	.L236:
 2063 0ca4 0400A0E1 		mov	r0, r4
 2064 0ca8 A8129FE5 		ldr	r1, .L254+80
 2065 0cac FEFFFFEB 		bl	__aeabi_fcmpge
 2066 0cb0 000050E3 		cmp	r0, #0
 2067 0cb4 0400A0E1 		mov	r0, r4
 2068 0cb8 0200000A 		beq	.L189
 2069 0cbc 016086E2 		add	r6, r6, #1
 2070 0cc0 FF6016E2 		ands	r6, r6, #255
 2071 0cc4 F3FFFF1A 		bne	.L191
 2072              	.L189:
 2073 0cc8 8C129FE5 		ldr	r1, .L254+84
 2074 0ccc FEFFFFEB 		bl	__aeabi_fcmpgt
 2075 0cd0 000050E3 		cmp	r0, #0
 2076 0cd4 0400001A 		bne	.L192
 2077 0cd8 0400A0E1 		mov	r0, r4
 2078 0cdc 7C129FE5 		ldr	r1, .L254+88
 2079 0ce0 FEFFFFEB 		bl	__aeabi_fcmplt
 2080 0ce4 000050E3 		cmp	r0, #0
 2081 0ce8 8200000A 		beq	.L93
 2082              	.L192:
 2083 0cec 28209DE5 		ldr	r2, [sp, #40]
 2084 0cf0 10329FE5 		ldr	r3, .L254
 2085 0cf4 0C60A0E3 		mov	r6, #12
 2086 0cf8 923626E0 		mla	r6, r2, r6, r3
 2087 0cfc 3C129FE5 		ldr	r1, .L254+56
 2088 0d00 080096E5 		ldr	r0, [r6, #8]	@ float
 2089 0d04 FEFFFFEB 		bl	__aeabi_fsub
 2090 0d08 54329FE5 		ldr	r3, .L254+92
 2091 0d0c 0010A0E1 		mov	r1, r0
 2092 0d10 000093E5 		ldr	r0, [r3, #0]	@ float
 2093 0d14 FEFFFFEB 		bl	__aeabi_fcmpge
 2094 0d18 000050E3 		cmp	r0, #0
 2095 0d1c 0720A013 		movne	r2, #7
 2096 0d20 7400000A 		beq	.L93
 2097 0d24 700000EA 		b	.L253
 2098              	.L101:
 2099 0d28 34109DE5 		ldr	r1, [sp, #52]	@ float
 2100 0d2c 0800A0E1 		mov	r0, r8
 2101 0d30 FEFFFFEB 		bl	__aeabi_fadd
 2102 0d34 3C109DE5 		ldr	r1, [sp, #60]	@ float
 2103 0d38 0040A0E1 		mov	r4, r0
 2104 0d3c 2C009DE5 		ldr	r0, [sp, #44]	@ float
 2105 0d40 FEFFFFEB 		bl	__aeabi_fadd
 2106 0d44 0720A0E1 		mov	r2, r7
 2107 0d48 0010A0E1 		mov	r1, r0
 2108 0d4c 0400A0E1 		mov	r0, r4
 2109 0d50 FEFFFFEB 		bl	nav_circle_XY
 2110 0d54 0A00A0E1 		mov	r0, sl
 2111 0d58 FEFFFFEB 		bl	__aeabi_f2d
 2112 0d5c BC219FE5 		ldr	r2, .L254+24
 2113 0d60 BC319FE5 		ldr	r3, .L254+28
 2114 0d64 FEFFFFEB 		bl	__aeabi_dadd
 2115 0d68 D4219FE5 		ldr	r2, .L254+60
 2116 0d6c D4319FE5 		ldr	r3, .L254+64
 2117 0d70 FEFFFFEB 		bl	__aeabi_dmul
 2118 0d74 0020A0E3 		mov	r2, #0
 2119 0d78 CC319FE5 		ldr	r3, .L254+68
 2120 0d7c FEFFFFEB 		bl	__aeabi_dsub
 2121 0d80 C8319FE5 		ldr	r3, .L254+72
 2122 0d84 0040A0E1 		mov	r4, r0
 2123 0d88 000093E5 		ldr	r0, [r3, #0]	@ float
 2124 0d8c 0150A0E1 		mov	r5, r1
 2125 0d90 FEFFFFEB 		bl	__aeabi_f2d
 2126 0d94 0020A0E1 		mov	r2, r0
 2127 0d98 0130A0E1 		mov	r3, r1
 2128 0d9c 7C019FE5 		ldr	r0, .L254+24
 2129 0da0 AC119FE5 		ldr	r1, .L254+76
 2130 0da4 FEFFFFEB 		bl	__aeabi_dsub
 2131 0da8 94219FE5 		ldr	r2, .L254+60
 2132 0dac 94319FE5 		ldr	r3, .L254+64
 2133 0db0 FEFFFFEB 		bl	__aeabi_dmul
 2134 0db4 FEFFFFEB 		bl	__aeabi_d2f
 2135 0db8 0070A0E3 		mov	r7, #0
 2136 0dbc 0060A0E1 		mov	r6, r0
 2137 0dc0 030000EA 		b	.L195
 2138              	.L198:
 2139 0dc4 0600A0E1 		mov	r0, r6
 2140 0dc8 88119FE5 		ldr	r1, .L254+80
 2141 0dcc FEFFFFEB 		bl	__aeabi_fadd
 2142 0dd0 0060A0E1 		mov	r6, r0
 2143              	.L195:
 2144 0dd4 0600A0E1 		mov	r0, r6
 2145 0dd8 0010A0E3 		mov	r1, #0
 2146 0ddc FEFFFFEB 		bl	__aeabi_fcmplt
 2147 0de0 000050E3 		cmp	r0, #0
 2148 0de4 FF8007E2 		and	r8, r7, #255
 2149 0de8 0700000A 		beq	.L237
 2150 0dec 017087E2 		add	r7, r7, #1
 2151 0df0 010C57E3 		cmp	r7, #256
 2152 0df4 F2FFFF1A 		bne	.L198
 2153 0df8 0080A0E3 		mov	r8, #0
 2154 0dfc 020000EA 		b	.L237
 2155              	.L202:
 2156 0e00 50119FE5 		ldr	r1, .L254+80
 2157 0e04 FEFFFFEB 		bl	__aeabi_fsub
 2158 0e08 0060A0E1 		mov	r6, r0
 2159              	.L237:
 2160 0e0c 0600A0E1 		mov	r0, r6
 2161 0e10 40119FE5 		ldr	r1, .L254+80
 2162 0e14 FEFFFFEB 		bl	__aeabi_fcmpge
 2163 0e18 000050E3 		cmp	r0, #0
 2164 0e1c 0600A0E1 		mov	r0, r6
 2165 0e20 0200000A 		beq	.L200
 2166 0e24 018088E2 		add	r8, r8, #1
 2167 0e28 FF8018E2 		ands	r8, r8, #255
 2168 0e2c F3FFFF1A 		bne	.L202
 2169              	.L200:
 2170 0e30 FEFFFFEB 		bl	__aeabi_f2d
 2171 0e34 0020A0E1 		mov	r2, r0
 2172 0e38 0130A0E1 		mov	r3, r1
 2173 0e3c 0400A0E1 		mov	r0, r4
 2174 0e40 0510A0E1 		mov	r1, r5
 2175 0e44 FEFFFFEB 		bl	__aeabi_dsub
 2176 0e48 FEFFFFEB 		bl	__aeabi_d2f
 2177 0e4c 0050A0E3 		mov	r5, #0
 2178 0e50 0040A0E1 		mov	r4, r0
 2179 0e54 030000EA 		b	.L203
 2180              	.L206:
 2181 0e58 0400A0E1 		mov	r0, r4
 2182 0e5c F4109FE5 		ldr	r1, .L254+80
 2183 0e60 FEFFFFEB 		bl	__aeabi_fadd
 2184 0e64 0040A0E1 		mov	r4, r0
 2185              	.L203:
 2186 0e68 0400A0E1 		mov	r0, r4
 2187 0e6c 0010A0E3 		mov	r1, #0
 2188 0e70 FEFFFFEB 		bl	__aeabi_fcmplt
 2189 0e74 000050E3 		cmp	r0, #0
 2190 0e78 FF6005E2 		and	r6, r5, #255
 2191 0e7c 0700000A 		beq	.L238
 2192 0e80 015085E2 		add	r5, r5, #1
 2193 0e84 010C55E3 		cmp	r5, #256
 2194 0e88 F2FFFF1A 		bne	.L206
 2195 0e8c 0060A0E3 		mov	r6, #0
 2196 0e90 020000EA 		b	.L238
 2197              	.L210:
 2198 0e94 BC109FE5 		ldr	r1, .L254+80
 2199 0e98 FEFFFFEB 		bl	__aeabi_fsub
 2200 0e9c 0040A0E1 		mov	r4, r0
 2201              	.L238:
 2202 0ea0 0400A0E1 		mov	r0, r4
 2203 0ea4 AC109FE5 		ldr	r1, .L254+80
 2204 0ea8 FEFFFFEB 		bl	__aeabi_fcmpge
 2205 0eac 000050E3 		cmp	r0, #0
 2206 0eb0 0400A0E1 		mov	r0, r4
 2207 0eb4 0200000A 		beq	.L208
 2208 0eb8 016086E2 		add	r6, r6, #1
 2209 0ebc FF6016E2 		ands	r6, r6, #255
 2210 0ec0 F3FFFF1A 		bne	.L210
 2211              	.L208:
 2212 0ec4 90109FE5 		ldr	r1, .L254+84
 2213 0ec8 FEFFFFEB 		bl	__aeabi_fcmpgt
 2214 0ecc 000050E3 		cmp	r0, #0
 2215 0ed0 0400001A 		bne	.L211
 2216 0ed4 0400A0E1 		mov	r0, r4
 2217 0ed8 80109FE5 		ldr	r1, .L254+88
 2218 0edc FEFFFFEB 		bl	__aeabi_fcmplt
 2219 0ee0 000050E3 		cmp	r0, #0
 2220 0ee4 0300000A 		beq	.L93
 2221              	.L211:
 2222 0ee8 0020A0E3 		mov	r2, #0
 2223              	.L253:
 2224 0eec 48309FE5 		ldr	r3, .L254+52
 2225 0ef0 0020C3E5 		strb	r2, [r3, #0]
 2226              	.L251:
 2227 0ef4 FEFFFFEB 		bl	nav_init_stage
 2228              	.L93:
 2229 0ef8 0100A0E3 		mov	r0, #1
 2230 0efc 5CD08DE2 		add	sp, sp, #92
 2231 0f00 F04FBDE8 		ldmfd	sp!, {r4, r5, r6, r7, r8, r9, sl, fp, lr}
 2232 0f04 1EFF2FE1 		bx	lr
 2233              	.L255:
 2234              		.align	2
 2235              	.L254:
 2236 0f08 00000000 		.word	waypoints
 2237 0f0c 83C0CAA1 		.word	-1580547965
 2238 0f10 45B6FB3F 		.word	1073460805
 2239 0f14 65732D38 		.word	942502757
 2240 0f18 52C1F03F 		.word	1072742738
 2241 0f1c 52C1F0BF 		.word	-1074740910
 2242 0f20 182D4454 		.word	1413754136
 2243 0f24 FB210940 		.word	1074340347
 2244 0f28 00000000 		.word	v_ctl_climb_mode
 2245 0f2c 00000000 		.word	nav_pitch
 2246 0f30 00000000 		.word	v_ctl_mode
 2247 0f34 00000000 		.word	nav_altitude
 2248 0f38 00000000 		.word	v_ctl_altitude_pre_climb
 2249 0f3c 00000000 		.word	.LANCHOR26
 2250 0f40 0000A040 		.word	1084227584
 2251 0f44 F8C1631A 		.word	442745336
 2252 0f48 DCA54C40 		.word	1078765020
 2253 0f4c 00002440 		.word	1076101120
 2254 0f50 00000000 		.word	nav_circle_trigo_qdr
 2255 0f54 FB21F93F 		.word	1073291771
 2256 0f58 0000B443 		.word	1135869952
 2257 0f5c 0000AF43 		.word	1135542272
 2258 0f60 00002041 		.word	1092616192
 2259 0f64 00000000 		.word	estimator_z
 2261              		.section	.text.InitializeSkidLanding,"ax",%progbits
 2262              		.align	2
 2263              		.global	InitializeSkidLanding
 2265              	InitializeSkidLanding:
 2266              		@ Function supports interworking.
 2267              		@ args = 0, pretend = 0, frame = 0
 2268              		@ frame_needed = 0, uses_anonymous_args = 0
 2269 0000 F84F2DE9 		stmfd	sp!, {r3, r4, r5, r6, r7, r8, r9, sl, fp, lr}
 2270 0004 08329FE5 		ldr	r3, .L263
 2271 0008 0C60A0E3 		mov	r6, #12
 2272 000c 96000AE0 		mul	sl, r6, r0
 2273 0010 910606E0 		mul	r6, r1, r6
 2274 0014 0000C3E5 		strb	r0, [r3, #0]
 2275 0018 F8319FE5 		ldr	r3, .L263+4
 2276 001c 0010C3E5 		strb	r1, [r3, #0]
 2277 0020 F4319FE5 		ldr	r3, .L263+8
 2278 0024 0240A0E1 		mov	r4, r2
 2279 0028 0020A0E3 		mov	r2, #0
 2280 002c 0020C3E5 		strb	r2, [r3, #0]
 2281 0030 E8319FE5 		ldr	r3, .L263+12
 2282 0034 004083E5 		str	r4, [r3, #0]	@ float
 2283 0038 E4319FE5 		ldr	r3, .L263+16
 2284 003c 002093E5 		ldr	r2, [r3, #0]	@ float
 2285 0040 E0319FE5 		ldr	r3, .L263+20
 2286 0044 002083E5 		str	r2, [r3, #0]	@ float
 2287 0048 DC219FE5 		ldr	r2, .L263+24
 2288 004c DC319FE5 		ldr	r3, .L263+28
 2289 0050 002083E5 		str	r2, [r3, #0]	@ float
 2290 0054 D8319FE5 		ldr	r3, .L263+32
 2291 0058 0120A0E3 		mov	r2, #1
 2292 005c D4519FE5 		ldr	r5, .L263+36
 2293 0060 0020C3E5 		strb	r2, [r3, #0]
 2294 0064 067085E0 		add	r7, r5, r6
 2295 0068 080097E5 		ldr	r0, [r7, #8]	@ float
 2296 006c C8119FE5 		ldr	r1, .L263+40
 2297 0070 FEFFFFEB 		bl	__aeabi_fadd
 2298 0074 0A8085E0 		add	r8, r5, sl
 2299 0078 0A1095E7 		ldr	r1, [r5, sl]	@ float
 2300 007c 080088E5 		str	r0, [r8, #8]	@ float
 2301 0080 060095E7 		ldr	r0, [r5, r6]	@ float
 2302 0084 FEFFFFEB 		bl	__aeabi_fsub
 2303 0088 041098E5 		ldr	r1, [r8, #4]	@ float
 2304 008c 0060A0E1 		mov	r6, r0
 2305 0090 040097E5 		ldr	r0, [r7, #4]	@ float
 2306 0094 FEFFFFEB 		bl	__aeabi_fsub
 2307 0098 0610A0E1 		mov	r1, r6
 2308 009c 0070A0E1 		mov	r7, r0
 2309 00a0 0600A0E1 		mov	r0, r6
 2310 00a4 FEFFFFEB 		bl	__aeabi_fmul
 2311 00a8 0710A0E1 		mov	r1, r7
 2312 00ac 0090A0E1 		mov	r9, r0
 2313 00b0 0700A0E1 		mov	r0, r7
 2314 00b4 FEFFFFEB 		bl	__aeabi_fmul
 2315 00b8 0010A0E1 		mov	r1, r0
 2316 00bc 0900A0E1 		mov	r0, r9
 2317 00c0 FEFFFFEB 		bl	__aeabi_fadd
 2318 00c4 FEFFFFEB 		bl	__aeabi_f2d
 2319 00c8 FEFFFFEB 		bl	sqrt
 2320 00cc FEFFFFEB 		bl	__aeabi_d2f
 2321 00d0 00B0A0E1 		mov	fp, r0
 2322 00d4 0B10A0E1 		mov	r1, fp
 2323 00d8 0700A0E1 		mov	r0, r7
 2324 00dc FEFFFFEB 		bl	__aeabi_fdiv
 2325 00e0 0410A0E1 		mov	r1, r4
 2326 00e4 FEFFFFEB 		bl	__aeabi_fmul
 2327 00e8 0AA095E7 		ldr	sl, [r5, sl]	@ float
 2328 00ec 0010A0E1 		mov	r1, r0
 2329 00f0 0A00A0E1 		mov	r0, sl
 2330 00f4 FEFFFFEB 		bl	__aeabi_fadd
 2331 00f8 40919FE5 		ldr	r9, .L263+44
 2332 00fc 0070A0E1 		mov	r7, r0
 2333 0100 000089E5 		str	r0, [r9, #0]	@ float
 2334 0104 0B10A0E1 		mov	r1, fp
 2335 0108 0600A0E1 		mov	r0, r6
 2336 010c FEFFFFEB 		bl	__aeabi_fdiv
 2337 0110 0410A0E1 		mov	r1, r4
 2338 0114 FEFFFFEB 		bl	__aeabi_fmul
 2339 0118 048098E5 		ldr	r8, [r8, #4]	@ float
 2340 011c 0010A0E1 		mov	r1, r0
 2341 0120 0800A0E1 		mov	r0, r8
 2342 0124 FEFFFFEB 		bl	__aeabi_fsub
 2343 0128 0710A0E1 		mov	r1, r7
 2344 012c 0050A0E1 		mov	r5, r0
 2345 0130 040089E5 		str	r0, [r9, #4]	@ float
 2346 0134 0A00A0E1 		mov	r0, sl
 2347 0138 FEFFFFEB 		bl	__aeabi_fsub
 2348 013c FEFFFFEB 		bl	__aeabi_f2d
 2349 0140 0060A0E1 		mov	r6, r0
 2350 0144 0170A0E1 		mov	r7, r1
 2351 0148 0800A0E1 		mov	r0, r8
 2352 014c 0510A0E1 		mov	r1, r5
 2353 0150 FEFFFFEB 		bl	__aeabi_fsub
 2354 0154 FEFFFFEB 		bl	__aeabi_f2d
 2355 0158 0020A0E1 		mov	r2, r0
 2356 015c 0130A0E1 		mov	r3, r1
 2357 0160 0600A0E1 		mov	r0, r6
 2358 0164 0710A0E1 		mov	r1, r7
 2359 0168 FEFFFFEB 		bl	atan2
 2360 016c FEFFFFEB 		bl	__aeabi_d2f
 2361 0170 0010A0E3 		mov	r1, #0
 2362 0174 0060A0E1 		mov	r6, r0
 2363 0178 0400A0E1 		mov	r0, r4
 2364 017c FEFFFFEB 		bl	__aeabi_fcmpgt
 2365 0180 000050E3 		cmp	r0, #0
 2366 0184 B8509FE5 		ldr	r5, .L263+48
 2367 0188 B8409FE5 		ldr	r4, .L263+52
 2368 018c 0600A0E1 		mov	r0, r6
 2369 0190 0D00000A 		beq	.L261
 2370 0194 FEFFFFEB 		bl	__aeabi_f2d
 2371 0198 AC209FE5 		ldr	r2, .L263+56
 2372 019c AC309FE5 		ldr	r3, .L263+60
 2373 01a0 0060A0E1 		mov	r6, r0
 2374 01a4 0170A0E1 		mov	r7, r1
 2375 01a8 FEFFFFEB 		bl	__aeabi_dsub
 2376 01ac FEFFFFEB 		bl	__aeabi_d2f
 2377 01b0 0710A0E1 		mov	r1, r7
 2378 01b4 000084E5 		str	r0, [r4, #0]	@ float
 2379 01b8 8C209FE5 		ldr	r2, .L263+56
 2380 01bc 0600A0E1 		mov	r0, r6
 2381 01c0 8C309FE5 		ldr	r3, .L263+64
 2382 01c4 FEFFFFEB 		bl	__aeabi_dsub
 2383 01c8 0C0000EA 		b	.L262
 2384              	.L261:
 2385 01cc FEFFFFEB 		bl	__aeabi_f2d
 2386 01d0 74209FE5 		ldr	r2, .L263+56
 2387 01d4 74309FE5 		ldr	r3, .L263+60
 2388 01d8 0060A0E1 		mov	r6, r0
 2389 01dc 0170A0E1 		mov	r7, r1
 2390 01e0 FEFFFFEB 		bl	__aeabi_dadd
 2391 01e4 FEFFFFEB 		bl	__aeabi_d2f
 2392 01e8 0710A0E1 		mov	r1, r7
 2393 01ec 000084E5 		str	r0, [r4, #0]	@ float
 2394 01f0 54209FE5 		ldr	r2, .L263+56
 2395 01f4 0600A0E1 		mov	r0, r6
 2396 01f8 54309FE5 		ldr	r3, .L263+64
 2397 01fc FEFFFFEB 		bl	__aeabi_dadd
 2398              	.L262:
 2399 0200 FEFFFFEB 		bl	__aeabi_d2f
 2400 0204 000085E5 		str	r0, [r5, #0]	@ float
 2401 0208 0000A0E3 		mov	r0, #0
 2402 020c F84FBDE8 		ldmfd	sp!, {r3, r4, r5, r6, r7, r8, r9, sl, fp, lr}
 2403 0210 1EFF2FE1 		bx	lr
 2404              	.L264:
 2405              		.align	2
 2406              	.L263:
 2407 0214 00000000 		.word	.LANCHOR27
 2408 0218 00000000 		.word	.LANCHOR28
 2409 021c 00000000 		.word	.LANCHOR29
 2410 0220 00000000 		.word	.LANCHOR30
 2411 0224 00000000 		.word	estimator_z
 2412 0228 00000000 		.word	.LANCHOR31
 2413 022c 0000A040 		.word	1084227584
 2414 0230 00000000 		.word	.LANCHOR32
 2415 0234 00000000 		.word	.LANCHOR33
 2416 0238 00000000 		.word	waypoints
 2417 023c 00004842 		.word	1112014848
 2418 0240 00000000 		.word	.LANCHOR34
 2419 0244 00000000 		.word	.LANCHOR35
 2420 0248 00000000 		.word	.LANCHOR36
 2421 024c 182D4454 		.word	1413754136
 2422 0250 FB21F93F 		.word	1073291771
 2423 0254 FB21E93F 		.word	1072243195
 2425              		.global	__aeabi_dcmplt
 2426              		.global	__aeabi_dcmpgt
 2427              		.section	.text.SkidLanding,"ax",%progbits
 2428              		.align	2
 2429              		.global	SkidLanding
 2431              	SkidLanding:
 2432              		@ Function supports interworking.
 2433              		@ args = 0, pretend = 0, frame = 0
 2434              		@ frame_needed = 0, uses_anonymous_args = 0
 2435 0000 F8452DE9 		stmfd	sp!, {r3, r4, r5, r6, r7, r8, sl, lr}
 2436 0004 C8359FE5 		ldr	r3, .L329
 2437 0008 0030D3E5 		ldrb	r3, [r3, #0]	@ zero_extendqisi2
 2438 000c 030053E3 		cmp	r3, #3
 2439 0010 03F19F97 		ldrls	pc, [pc, r3, asl #2]
 2440 0014 6B0100EA 		b	.L266
 2441              	.L271:
 2442 0018 28000000 		.word	.L267
 2443 001c 00010000 		.word	.L268
 2444 0020 08050000 		.word	.L269
 2445 0024 1C030000 		.word	.L270
 2446              	.L267:
 2447 0028 A8359FE5 		ldr	r3, .L329+4
 2448 002c 0020A0E3 		mov	r2, #0
 2449 0030 0020C3E5 		strb	r2, [r3, #0]
 2450 0034 A0359FE5 		ldr	r3, .L329+8
 2451 0038 0040A0E3 		mov	r4, #0
 2452 003c 004083E5 		str	r4, [r3, #0]	@ float
 2453 0040 98359FE5 		ldr	r3, .L329+12
 2454 0044 000093E5 		ldr	r0, [r3, #0]
 2455 0048 0201C0E3 		bic	r0, r0, #-2147483648
 2456 004c FEFFFFEB 		bl	__aeabi_f2d
 2457 0050 8C259FE5 		ldr	r2, .L329+16
 2458 0054 8C359FE5 		ldr	r3, .L329+20
 2459 0058 FEFFFFEB 		bl	__aeabi_ddiv
 2460 005c 88259FE5 		ldr	r2, .L329+24
 2461 0060 88359FE5 		ldr	r3, .L329+28
 2462 0064 FEFFFFEB 		bl	__aeabi_dcmplt
 2463 0068 84259FE5 		ldr	r2, .L329+32
 2464 006c 000050E3 		cmp	r0, #0
 2465 0070 0310A0E3 		mov	r1, #3
 2466 0074 0010C2E5 		strb	r1, [r2, #0]
 2467 0078 78259F05 		ldreq	r2, .L329+36
 2468 007c 78159F05 		ldreq	r1, .L329+40
 2469 0080 0020D205 		ldreqb	r2, [r2, #0]	@ zero_extendqisi2
 2470 0084 0C00A003 		moveq	r0, #12
 2471 0088 90122200 		mlaeq	r2, r0, r2, r1
 2472 008c 6C259F15 		ldrne	r2, .L329+44
 2473 0090 08209205 		ldreq	r2, [r2, #8]	@ float
 2474 0094 00209215 		ldrne	r2, [r2, #0]	@ float
 2475 0098 64359FE5 		ldr	r3, .L329+48
 2476 009c 002083E5 		str	r2, [r3, #0]	@ float
 2477 00a0 60359FE5 		ldr	r3, .L329+52
 2478 00a4 004083E5 		str	r4, [r3, #0]	@ float
 2479 00a8 5C359FE5 		ldr	r3, .L329+56
 2480 00ac 000093E5 		ldr	r0, [r3, #0]	@ float
 2481 00b0 041093E5 		ldr	r1, [r3, #4]	@ float
 2482 00b4 54359FE5 		ldr	r3, .L329+60
 2483 00b8 002093E5 		ldr	r2, [r3, #0]	@ float
 2484 00bc FEFFFFEB 		bl	nav_circle_XY
 2485 00c0 30359FE5 		ldr	r3, .L329+36
 2486 00c4 30259FE5 		ldr	r2, .L329+40
 2487 00c8 0030D3E5 		ldrb	r3, [r3, #0]	@ zero_extendqisi2
 2488 00cc 0C10A0E3 		mov	r1, #12
 2489 00d0 912323E0 		mla	r3, r1, r3, r2
 2490 00d4 38159FE5 		ldr	r1, .L329+64
 2491 00d8 080093E5 		ldr	r0, [r3, #8]	@ float
 2492 00dc FEFFFFEB 		bl	__aeabi_fadd
 2493 00e0 30359FE5 		ldr	r3, .L329+68
 2494 00e4 0010A0E1 		mov	r1, r0
 2495 00e8 000093E5 		ldr	r0, [r3, #0]	@ float
 2496 00ec FEFFFFEB 		bl	__aeabi_fcmplt
 2497 00f0 000050E3 		cmp	r0, #0
 2498 00f4 0120A013 		movne	r2, #1
 2499 00f8 3201000A 		beq	.L266
 2500 00fc 820000EA 		b	.L328
 2501              	.L268:
 2502 0100 D0349FE5 		ldr	r3, .L329+4
 2503 0104 0040A0E3 		mov	r4, #0
 2504 0108 CC249FE5 		ldr	r2, .L329+8
 2505 010c 0040C3E5 		strb	r4, [r3, #0]
 2506 0110 0030A0E3 		mov	r3, #0
 2507 0114 003082E5 		str	r3, [r2, #0]	@ float
 2508 0118 D4249FE5 		ldr	r2, .L329+32
 2509 011c 0310A0E3 		mov	r1, #3
 2510 0120 0010C2E5 		strb	r1, [r2, #0]
 2511 0124 CC249FE5 		ldr	r2, .L329+36
 2512 0128 CC149FE5 		ldr	r1, .L329+40
 2513 012c 0020D2E5 		ldrb	r2, [r2, #0]	@ zero_extendqisi2
 2514 0130 0C00A0E3 		mov	r0, #12
 2515 0134 901222E0 		mla	r2, r0, r2, r1
 2516 0138 081092E5 		ldr	r1, [r2, #8]	@ float
 2517 013c C0249FE5 		ldr	r2, .L329+48
 2518 0140 001082E5 		str	r1, [r2, #0]	@ float
 2519 0144 BC249FE5 		ldr	r2, .L329+52
 2520 0148 003082E5 		str	r3, [r2, #0]	@ float
 2521 014c B8349FE5 		ldr	r3, .L329+56
 2522 0150 000093E5 		ldr	r0, [r3, #0]	@ float
 2523 0154 041093E5 		ldr	r1, [r3, #4]	@ float
 2524 0158 B0349FE5 		ldr	r3, .L329+60
 2525 015c 002093E5 		ldr	r2, [r3, #0]	@ float
 2526 0160 FEFFFFEB 		bl	nav_circle_XY
 2527 0164 74349FE5 		ldr	r3, .L329+12
 2528 0168 000093E5 		ldr	r0, [r3, #0]
 2529 016c 0201C0E3 		bic	r0, r0, #-2147483648
 2530 0170 FEFFFFEB 		bl	__aeabi_f2d
 2531 0174 68249FE5 		ldr	r2, .L329+16
 2532 0178 68349FE5 		ldr	r3, .L329+20
 2533 017c FEFFFFEB 		bl	__aeabi_ddiv
 2534 0180 0020A0E3 		mov	r2, #0
 2535 0184 90349FE5 		ldr	r3, .L329+72
 2536 0188 FEFFFFEB 		bl	__aeabi_dcmpgt
 2537 018c 040050E1 		cmp	r0, r4
 2538 0190 0C01000A 		beq	.L266
 2539 0194 84349FE5 		ldr	r3, .L329+76
 2540 0198 000093E5 		ldr	r0, [r3, #0]	@ float
 2541 019c FEFFFFEB 		bl	__aeabi_f2d
 2542 01a0 7C249FE5 		ldr	r2, .L329+80
 2543 01a4 7C349FE5 		ldr	r3, .L329+84
 2544 01a8 FEFFFFEB 		bl	__aeabi_dmul
 2545 01ac 78349FE5 		ldr	r3, .L329+88
 2546 01b0 0060A0E1 		mov	r6, r0
 2547 01b4 000093E5 		ldr	r0, [r3, #0]	@ float
 2548 01b8 0170A0E1 		mov	r7, r1
 2549 01bc FEFFFFEB 		bl	__aeabi_f2d
 2550 01c0 0020A0E1 		mov	r2, r0
 2551 01c4 0130A0E1 		mov	r3, r1
 2552 01c8 14049FE5 		ldr	r0, .L329+16
 2553 01cc 5C149FE5 		ldr	r1, .L329+92
 2554 01d0 FEFFFFEB 		bl	__aeabi_dsub
 2555 01d4 48249FE5 		ldr	r2, .L329+80
 2556 01d8 48349FE5 		ldr	r3, .L329+84
 2557 01dc FEFFFFEB 		bl	__aeabi_dmul
 2558 01e0 FEFFFFEB 		bl	__aeabi_d2f
 2559 01e4 020000EA 		b	.L326
 2560              	.L280:
 2561 01e8 0500A0E1 		mov	r0, r5
 2562 01ec 40149FE5 		ldr	r1, .L329+96
 2563 01f0 FEFFFFEB 		bl	__aeabi_fadd
 2564              	.L326:
 2565 01f4 0010A0E3 		mov	r1, #0
 2566 01f8 0050A0E1 		mov	r5, r0
 2567 01fc FEFFFFEB 		bl	__aeabi_fcmplt
 2568 0200 000050E3 		cmp	r0, #0
 2569 0204 FF8004E2 		and	r8, r4, #255
 2570 0208 0700000A 		beq	.L321
 2571 020c 014084E2 		add	r4, r4, #1
 2572 0210 010C54E3 		cmp	r4, #256
 2573 0214 F3FFFF1A 		bne	.L280
 2574 0218 0080A0E3 		mov	r8, #0
 2575 021c 020000EA 		b	.L321
 2576              	.L284:
 2577 0220 0C149FE5 		ldr	r1, .L329+96
 2578 0224 FEFFFFEB 		bl	__aeabi_fsub
 2579 0228 0050A0E1 		mov	r5, r0
 2580              	.L321:
 2581 022c 0500A0E1 		mov	r0, r5
 2582 0230 FC139FE5 		ldr	r1, .L329+96
 2583 0234 FEFFFFEB 		bl	__aeabi_fcmpge
 2584 0238 000050E3 		cmp	r0, #0
 2585 023c 0500A0E1 		mov	r0, r5
 2586 0240 0200000A 		beq	.L282
 2587 0244 018088E2 		add	r8, r8, #1
 2588 0248 FF8018E2 		ands	r8, r8, #255
 2589 024c F3FFFF1A 		bne	.L284
 2590              	.L282:
 2591 0250 FEFFFFEB 		bl	__aeabi_f2d
 2592 0254 0020A0E1 		mov	r2, r0
 2593 0258 0130A0E1 		mov	r3, r1
 2594 025c 0600A0E1 		mov	r0, r6
 2595 0260 0710A0E1 		mov	r1, r7
 2596 0264 FEFFFFEB 		bl	__aeabi_dsub
 2597 0268 FEFFFFEB 		bl	__aeabi_d2f
 2598 026c 0050A0E3 		mov	r5, #0
 2599 0270 0040A0E1 		mov	r4, r0
 2600 0274 030000EA 		b	.L285
 2601              	.L288:
 2602 0278 0400A0E1 		mov	r0, r4
 2603 027c B0139FE5 		ldr	r1, .L329+96
 2604 0280 FEFFFFEB 		bl	__aeabi_fadd
 2605 0284 0040A0E1 		mov	r4, r0
 2606              	.L285:
 2607 0288 0400A0E1 		mov	r0, r4
 2608 028c 0010A0E3 		mov	r1, #0
 2609 0290 FEFFFFEB 		bl	__aeabi_fcmplt
 2610 0294 000050E3 		cmp	r0, #0
 2611 0298 FF6005E2 		and	r6, r5, #255
 2612 029c 0700000A 		beq	.L322
 2613 02a0 015085E2 		add	r5, r5, #1
 2614 02a4 010C55E3 		cmp	r5, #256
 2615 02a8 F2FFFF1A 		bne	.L288
 2616 02ac 0060A0E3 		mov	r6, #0
 2617 02b0 020000EA 		b	.L322
 2618              	.L292:
 2619 02b4 78139FE5 		ldr	r1, .L329+96
 2620 02b8 FEFFFFEB 		bl	__aeabi_fsub
 2621 02bc 0040A0E1 		mov	r4, r0
 2622              	.L322:
 2623 02c0 0400A0E1 		mov	r0, r4
 2624 02c4 68139FE5 		ldr	r1, .L329+96
 2625 02c8 FEFFFFEB 		bl	__aeabi_fcmpge
 2626 02cc 000050E3 		cmp	r0, #0
 2627 02d0 0400A0E1 		mov	r0, r4
 2628 02d4 0200000A 		beq	.L290
 2629 02d8 016086E2 		add	r6, r6, #1
 2630 02dc FF6016E2 		ands	r6, r6, #255
 2631 02e0 F3FFFF1A 		bne	.L292
 2632              	.L290:
 2633 02e4 4C139FE5 		ldr	r1, .L329+100
 2634 02e8 FEFFFFEB 		bl	__aeabi_fcmpgt
 2635 02ec 000050E3 		cmp	r0, #0
 2636 02f0 0400001A 		bne	.L293
 2637 02f4 0400A0E1 		mov	r0, r4
 2638 02f8 3C139FE5 		ldr	r1, .L329+104
 2639 02fc FEFFFFEB 		bl	__aeabi_fcmplt
 2640 0300 000050E3 		cmp	r0, #0
 2641 0304 AF00000A 		beq	.L266
 2642              	.L293:
 2643 0308 0320A0E3 		mov	r2, #3
 2644              	.L328:
 2645 030c C0329FE5 		ldr	r3, .L329
 2646 0310 0020C3E5 		strb	r2, [r3, #0]
 2647 0314 FEFFFFEB 		bl	nav_init_stage
 2648 0318 AA0000EA 		b	.L266
 2649              	.L270:
 2650 031c 1C339FE5 		ldr	r3, .L329+108
 2651 0320 0120A0E3 		mov	r2, #1
 2652 0324 0020C3E5 		strb	r2, [r3, #0]
 2653 0328 A8329FE5 		ldr	r3, .L329+4
 2654 032c 0040A0E3 		mov	r4, #0
 2655 0330 A4229FE5 		ldr	r2, .L329+8
 2656 0334 0040C3E5 		strb	r4, [r3, #0]
 2657 0338 0030A0E3 		mov	r3, #0
 2658 033c 003082E5 		str	r3, [r2, #0]	@ float
 2659 0340 AC229FE5 		ldr	r2, .L329+32
 2660 0344 0310A0E3 		mov	r1, #3
 2661 0348 0010C2E5 		strb	r1, [r2, #0]
 2662 034c A4229FE5 		ldr	r2, .L329+36
 2663 0350 A4129FE5 		ldr	r1, .L329+40
 2664 0354 0020D2E5 		ldrb	r2, [r2, #0]	@ zero_extendqisi2
 2665 0358 0C00A0E3 		mov	r0, #12
 2666 035c 901222E0 		mla	r2, r0, r2, r1
 2667 0360 081092E5 		ldr	r1, [r2, #8]	@ float
 2668 0364 98229FE5 		ldr	r2, .L329+48
 2669 0368 001082E5 		str	r1, [r2, #0]	@ float
 2670 036c 94229FE5 		ldr	r2, .L329+52
 2671 0370 003082E5 		str	r3, [r2, #0]	@ float
 2672 0374 90329FE5 		ldr	r3, .L329+56
 2673 0378 000093E5 		ldr	r0, [r3, #0]	@ float
 2674 037c 041093E5 		ldr	r1, [r3, #4]	@ float
 2675 0380 88329FE5 		ldr	r3, .L329+60
 2676 0384 002093E5 		ldr	r2, [r3, #0]	@ float
 2677 0388 FEFFFFEB 		bl	nav_circle_XY
 2678 038c B0329FE5 		ldr	r3, .L329+112
 2679 0390 000093E5 		ldr	r0, [r3, #0]	@ float
 2680 0394 FEFFFFEB 		bl	__aeabi_f2d
 2681 0398 84229FE5 		ldr	r2, .L329+80
 2682 039c 84329FE5 		ldr	r3, .L329+84
 2683 03a0 FEFFFFEB 		bl	__aeabi_dmul
 2684 03a4 80329FE5 		ldr	r3, .L329+88
 2685 03a8 0060A0E1 		mov	r6, r0
 2686 03ac 000093E5 		ldr	r0, [r3, #0]	@ float
 2687 03b0 0170A0E1 		mov	r7, r1
 2688 03b4 FEFFFFEB 		bl	__aeabi_f2d
 2689 03b8 0020A0E1 		mov	r2, r0
 2690 03bc 0130A0E1 		mov	r3, r1
 2691 03c0 1C029FE5 		ldr	r0, .L329+16
 2692 03c4 64129FE5 		ldr	r1, .L329+92
 2693 03c8 FEFFFFEB 		bl	__aeabi_dsub
 2694 03cc 50229FE5 		ldr	r2, .L329+80
 2695 03d0 50329FE5 		ldr	r3, .L329+84
 2696 03d4 FEFFFFEB 		bl	__aeabi_dmul
 2697 03d8 FEFFFFEB 		bl	__aeabi_d2f
 2698 03dc 020000EA 		b	.L327
 2699              	.L298:
 2700 03e0 0500A0E1 		mov	r0, r5
 2701 03e4 48129FE5 		ldr	r1, .L329+96
 2702 03e8 FEFFFFEB 		bl	__aeabi_fadd
 2703              	.L327:
 2704 03ec 0010A0E3 		mov	r1, #0
 2705 03f0 0050A0E1 		mov	r5, r0
 2706 03f4 FEFFFFEB 		bl	__aeabi_fcmplt
 2707 03f8 000050E3 		cmp	r0, #0
 2708 03fc FF8004E2 		and	r8, r4, #255
 2709 0400 0700000A 		beq	.L323
 2710 0404 014084E2 		add	r4, r4, #1
 2711 0408 010C54E3 		cmp	r4, #256
 2712 040c F3FFFF1A 		bne	.L298
 2713 0410 0080A0E3 		mov	r8, #0
 2714 0414 020000EA 		b	.L323
 2715              	.L302:
 2716 0418 14129FE5 		ldr	r1, .L329+96
 2717 041c FEFFFFEB 		bl	__aeabi_fsub
 2718 0420 0050A0E1 		mov	r5, r0
 2719              	.L323:
 2720 0424 0500A0E1 		mov	r0, r5
 2721 0428 04129FE5 		ldr	r1, .L329+96
 2722 042c FEFFFFEB 		bl	__aeabi_fcmpge
 2723 0430 000050E3 		cmp	r0, #0
 2724 0434 0500A0E1 		mov	r0, r5
 2725 0438 0200000A 		beq	.L300
 2726 043c 018088E2 		add	r8, r8, #1
 2727 0440 FF8018E2 		ands	r8, r8, #255
 2728 0444 F3FFFF1A 		bne	.L302
 2729              	.L300:
 2730 0448 FEFFFFEB 		bl	__aeabi_f2d
 2731 044c 0020A0E1 		mov	r2, r0
 2732 0450 0130A0E1 		mov	r3, r1
 2733 0454 0600A0E1 		mov	r0, r6
 2734 0458 0710A0E1 		mov	r1, r7
 2735 045c FEFFFFEB 		bl	__aeabi_dsub
 2736 0460 FEFFFFEB 		bl	__aeabi_d2f
 2737 0464 0050A0E3 		mov	r5, #0
 2738 0468 0040A0E1 		mov	r4, r0
 2739 046c 030000EA 		b	.L303
 2740              	.L306:
 2741 0470 0400A0E1 		mov	r0, r4
 2742 0474 B8119FE5 		ldr	r1, .L329+96
 2743 0478 FEFFFFEB 		bl	__aeabi_fadd
 2744 047c 0040A0E1 		mov	r4, r0
 2745              	.L303:
 2746 0480 0400A0E1 		mov	r0, r4
 2747 0484 0010A0E3 		mov	r1, #0
 2748 0488 FEFFFFEB 		bl	__aeabi_fcmplt
 2749 048c 000050E3 		cmp	r0, #0
 2750 0490 FF6005E2 		and	r6, r5, #255
 2751 0494 0700000A 		beq	.L324
 2752 0498 015085E2 		add	r5, r5, #1
 2753 049c 010C55E3 		cmp	r5, #256
 2754 04a0 F2FFFF1A 		bne	.L306
 2755 04a4 0060A0E3 		mov	r6, #0
 2756 04a8 020000EA 		b	.L324
 2757              	.L310:
 2758 04ac 80119FE5 		ldr	r1, .L329+96
 2759 04b0 FEFFFFEB 		bl	__aeabi_fsub
 2760 04b4 0040A0E1 		mov	r4, r0
 2761              	.L324:
 2762 04b8 0400A0E1 		mov	r0, r4
 2763 04bc 70119FE5 		ldr	r1, .L329+96
 2764 04c0 FEFFFFEB 		bl	__aeabi_fcmpge
 2765 04c4 000050E3 		cmp	r0, #0
 2766 04c8 0400A0E1 		mov	r0, r4
 2767 04cc 0200000A 		beq	.L308
 2768 04d0 016086E2 		add	r6, r6, #1
 2769 04d4 FF6016E2 		ands	r6, r6, #255
 2770 04d8 F3FFFF1A 		bne	.L310
 2771              	.L308:
 2772 04dc 54119FE5 		ldr	r1, .L329+100
 2773 04e0 FEFFFFEB 		bl	__aeabi_fcmpgt
 2774 04e4 000050E3 		cmp	r0, #0
 2775 04e8 0400001A 		bne	.L311
 2776 04ec 0400A0E1 		mov	r0, r4
 2777 04f0 44119FE5 		ldr	r1, .L329+104
 2778 04f4 FEFFFFEB 		bl	__aeabi_fcmplt
 2779 04f8 000050E3 		cmp	r0, #0
 2780 04fc 3100000A 		beq	.L266
 2781              	.L311:
 2782 0500 0220A0E3 		mov	r2, #2
 2783 0504 80FFFFEA 		b	.L328
 2784              	.L269:
 2785 0508 30319FE5 		ldr	r3, .L329+108
 2786 050c 0120A0E3 		mov	r2, #1
 2787 0510 0020C3E5 		strb	r2, [r3, #0]
 2788 0514 BC309FE5 		ldr	r3, .L329+4
 2789 0518 0020A0E3 		mov	r2, #0
 2790 051c 0020C3E5 		strb	r2, [r3, #0]
 2791 0520 B4309FE5 		ldr	r3, .L329+8
 2792 0524 00A0A0E3 		mov	sl, #0
 2793 0528 00A083E5 		str	sl, [r3, #0]	@ float
 2794 052c C0309FE5 		ldr	r3, .L329+32
 2795 0530 0320A0E3 		mov	r2, #3
 2796 0534 0020C3E5 		strb	r2, [r3, #0]
 2797 0538 08319FE5 		ldr	r3, .L329+116
 2798 053c 0070D3E5 		ldrb	r7, [r3, #0]	@ zero_extendqisi2
 2799 0540 0C80A0E3 		mov	r8, #12
 2800 0544 980707E0 		mul	r7, r8, r7
 2801 0548 AC609FE5 		ldr	r6, .L329+40
 2802 054c F8409FE5 		ldr	r4, .L329+120
 2803 0550 075086E0 		add	r5, r6, r7
 2804 0554 080095E5 		ldr	r0, [r5, #8]	@ float
 2805 0558 001094E5 		ldr	r1, [r4, #0]	@ float
 2806 055c FEFFFFEB 		bl	__aeabi_fadd
 2807 0560 9C309FE5 		ldr	r3, .L329+48
 2808 0564 000083E5 		str	r0, [r3, #0]	@ float
 2809 0568 98309FE5 		ldr	r3, .L329+52
 2810 056c 00A083E5 		str	sl, [r3, #0]	@ float
 2811 0570 80309FE5 		ldr	r3, .L329+36
 2812 0574 0030D3E5 		ldrb	r3, [r3, #0]	@ zero_extendqisi2
 2813 0578 930808E0 		mul	r8, r3, r8
 2814 057c 083086E0 		add	r3, r6, r8
 2815 0580 072096E7 		ldr	r2, [r6, r7]	@ float
 2816 0584 080096E7 		ldr	r0, [r6, r8]	@ float
 2817 0588 041093E5 		ldr	r1, [r3, #4]	@ float
 2818 058c BC609FE5 		ldr	r6, .L329+124
 2819 0590 043095E5 		ldr	r3, [r5, #4]	@ float
 2820 0594 FEFFFFEB 		bl	nav_route_xy
 2821 0598 B4309FE5 		ldr	r3, .L329+128
 2822 059c 0050D6E5 		ldrb	r5, [r6, #0]	@ zero_extendqisi2
 2823 05a0 B020D3E1 		ldrh	r2, [r3, #0]
 2824 05a4 053185E0 		add	r3, r5, r5, asl #2
 2825 05a8 030052E1 		cmp	r2, r3
 2826 05ac 050000BA 		blt	.L266
 2827 05b0 000094E5 		ldr	r0, [r4, #0]	@ float
 2828 05b4 3F14A0E3 		mov	r1, #1056964608
 2829 05b8 FEFFFFEB 		bl	__aeabi_fmul
 2830 05bc 015085E2 		add	r5, r5, #1
 2831 05c0 000084E5 		str	r0, [r4, #0]	@ float
 2832 05c4 0050C6E5 		strb	r5, [r6, #0]
 2833              	.L266:
 2834 05c8 0100A0E3 		mov	r0, #1
 2835 05cc F845BDE8 		ldmfd	sp!, {r3, r4, r5, r6, r7, r8, sl, lr}
 2836 05d0 1EFF2FE1 		bx	lr
 2837              	.L330:
 2838              		.align	2
 2839              	.L329:
 2840 05d4 00000000 		.word	.LANCHOR29
 2841 05d8 00000000 		.word	v_ctl_climb_mode
 2842 05dc 00000000 		.word	nav_pitch
 2843 05e0 00000000 		.word	nav_circle_radians
 2844 05e4 182D4454 		.word	1413754136
 2845 05e8 FB211940 		.word	1075388923
 2846 05ec 9A999999 		.word	-1717986918
 2847 05f0 9999B93F 		.word	1069128089
 2848 05f4 00000000 		.word	v_ctl_mode
 2849 05f8 00000000 		.word	.LANCHOR27
 2850 05fc 00000000 		.word	waypoints
 2851 0600 00000000 		.word	.LANCHOR31
 2852 0604 00000000 		.word	nav_altitude
 2853 0608 00000000 		.word	v_ctl_altitude_pre_climb
 2854 060c 00000000 		.word	.LANCHOR34
 2855 0610 00000000 		.word	.LANCHOR30
 2856 0614 0000A040 		.word	1084227584
 2857 0618 00000000 		.word	estimator_z
 2858 061c 0000E03F 		.word	1071644672
 2859 0620 00000000 		.word	.LANCHOR36
 2860 0624 F8C1631A 		.word	442745336
 2861 0628 DCA54C40 		.word	1078765020
 2862 062c 00000000 		.word	nav_circle_trigo_qdr
 2863 0630 FB21F93F 		.word	1073291771
 2864 0634 0000B443 		.word	1135869952
 2865 0638 0000AF43 		.word	1135542272
 2866 063c 00002041 		.word	1092616192
 2867 0640 00000000 		.word	kill_throttle
 2868 0644 00000000 		.word	.LANCHOR35
 2869 0648 00000000 		.word	.LANCHOR28
 2870 064c 00000000 		.word	.LANCHOR32
 2871 0650 00000000 		.word	.LANCHOR33
 2872 0654 00000000 		.word	stage_time
 2874              		.section	.text.TranslateAndRotateFromWorld,"ax",%progbits
 2875              		.align	2
 2876              		.global	TranslateAndRotateFromWorld
 2878              	TranslateAndRotateFromWorld:
 2879              		@ Function supports interworking.
 2880              		@ args = 0, pretend = 0, frame = 16
 2881              		@ frame_needed = 0, uses_anonymous_args = 0
 2882 0000 F04F2DE9 		stmfd	sp!, {r4, r5, r6, r7, r8, r9, sl, fp, lr}
 2883 0004 0040A0E1 		mov	r4, r0
 2884 0008 14D04DE2 		sub	sp, sp, #20
 2885 000c 0170A0E1 		mov	r7, r1
 2886 0010 000090E5 		ldr	r0, [r0, #0]	@ float
 2887 0014 0210A0E1 		mov	r1, r2
 2888 0018 0350A0E1 		mov	r5, r3
 2889 001c FEFFFFEB 		bl	__aeabi_fsub
 2890 0020 0060A0E1 		mov	r6, r0
 2891 0024 0700A0E1 		mov	r0, r7
 2892 0028 FEFFFFEB 		bl	__aeabi_f2d
 2893 002c 0080A0E1 		mov	r8, r0
 2894 0030 0190A0E1 		mov	r9, r1
 2895 0034 FEFFFFEB 		bl	cos
 2896 0038 03008DE8 		stmia	sp, {r0-r1}
 2897 003c 040094E5 		ldr	r0, [r4, #4]	@ float
 2898 0040 0510A0E1 		mov	r1, r5
 2899 0044 FEFFFFEB 		bl	__aeabi_fsub
 2900 0048 FEFFFFEB 		bl	__aeabi_f2d
 2901 004c 00A0A0E1 		mov	sl, r0
 2902 0050 01B0A0E1 		mov	fp, r1
 2903 0054 0800A0E1 		mov	r0, r8
 2904 0058 0910A0E1 		mov	r1, r9
 2905 005c FEFFFFEB 		bl	sin
 2906 0060 0080A0E1 		mov	r8, r0
 2907 0064 0600A0E1 		mov	r0, r6
 2908 0068 0190A0E1 		mov	r9, r1
 2909 006c FEFFFFEB 		bl	__aeabi_f2d
 2910 0070 0C009DE8 		ldmia	sp, {r2-r3}
 2911 0074 FEFFFFEB 		bl	__aeabi_dmul
 2912 0078 0820A0E1 		mov	r2, r8
 2913 007c 08008DE5 		str	r0, [sp, #8]
 2914 0080 0C108DE5 		str	r1, [sp, #12]
 2915 0084 0930A0E1 		mov	r3, r9
 2916 0088 0A00A0E1 		mov	r0, sl
 2917 008c 0B10A0E1 		mov	r1, fp
 2918 0090 FEFFFFEB 		bl	__aeabi_dmul
 2919 0094 0020A0E1 		mov	r2, r0
 2920 0098 0130A0E1 		mov	r3, r1
 2921 009c 08108DE2 		add	r1, sp, #8
 2922 00a0 030091E8 		ldmia	r1, {r0-r1}
 2923 00a4 FEFFFFEB 		bl	__aeabi_dadd
 2924 00a8 FEFFFFEB 		bl	__aeabi_d2f
 2925 00ac 000084E5 		str	r0, [r4, #0]	@ float
 2926 00b0 020186E2 		add	r0, r6, #-2147483648
 2927 00b4 FEFFFFEB 		bl	__aeabi_f2d
 2928 00b8 0820A0E1 		mov	r2, r8
 2929 00bc 0930A0E1 		mov	r3, r9
 2930 00c0 FEFFFFEB 		bl	__aeabi_dmul
 2931 00c4 0C009DE8 		ldmia	sp, {r2-r3}
 2932 00c8 0060A0E1 		mov	r6, r0
 2933 00cc 0170A0E1 		mov	r7, r1
 2934 00d0 0A00A0E1 		mov	r0, sl
 2935 00d4 0B10A0E1 		mov	r1, fp
 2936 00d8 FEFFFFEB 		bl	__aeabi_dmul
 2937 00dc 0020A0E1 		mov	r2, r0
 2938 00e0 0130A0E1 		mov	r3, r1
 2939 00e4 0600A0E1 		mov	r0, r6
 2940 00e8 0710A0E1 		mov	r1, r7
 2941 00ec FEFFFFEB 		bl	__aeabi_dadd
 2942 00f0 FEFFFFEB 		bl	__aeabi_d2f
 2943 00f4 040084E5 		str	r0, [r4, #4]	@ float
 2944 00f8 14D08DE2 		add	sp, sp, #20
 2945 00fc F04FBDE8 		ldmfd	sp!, {r4, r5, r6, r7, r8, r9, sl, fp, lr}
 2946 0100 1EFF2FE1 		bx	lr
 2948              		.section	.text.FlightLine,"ax",%progbits
 2949              		.align	2
 2950              		.global	FlightLine
 2952              	FlightLine:
 2953              		@ Function supports interworking.
 2954              		@ args = 4, pretend = 0, frame = 32
 2955              		@ frame_needed = 0, uses_anonymous_args = 0
 2956 0000 F04F2DE9 		stmfd	sp!, {r4, r5, r6, r7, r8, r9, sl, fp, lr}
 2957 0004 0290A0E1 		mov	r9, r2
 2958 0008 4C259FE5 		ldr	r2, .L379
 2959 000c 03B0A0E1 		mov	fp, r3
 2960 0010 0030D2E5 		ldrb	r3, [r2, #0]	@ zero_extendqisi2
 2961 0014 2CD04DE2 		sub	sp, sp, #44
 2962 0018 00A0A0E1 		mov	sl, r0
 2963 001c 030053E3 		cmp	r3, #3
 2964 0020 03F19F97 		ldrls	pc, [pc, r3, asl #2]
 2965 0024 480100EA 		b	.L364
 2966              	.L338:
 2967 0028 38000000 		.word	.L334
 2968 002c 98020000 		.word	.L335
 2969 0030 A8040000 		.word	.L336
 2970 0034 38050000 		.word	.L337
 2971              	.L334:
 2972 0038 0C60A0E3 		mov	r6, #12
 2973 003c 960101E0 		mul	r1, r6, r1
 2974 0040 900606E0 		mul	r6, r0, r6
 2975 0044 14459FE5 		ldr	r4, .L379+4
 2976 0048 010094E7 		ldr	r0, [r4, r1]	@ float
 2977 004c 017084E0 		add	r7, r4, r1
 2978 0050 061094E7 		ldr	r1, [r4, r6]	@ float
 2979 0054 FEFFFFEB 		bl	__aeabi_fsub
 2980 0058 068084E0 		add	r8, r4, r6
 2981 005c 041098E5 		ldr	r1, [r8, #4]	@ float
 2982 0060 0050A0E1 		mov	r5, r0
 2983 0064 040097E5 		ldr	r0, [r7, #4]	@ float
 2984 0068 FEFFFFEB 		bl	__aeabi_fsub
 2985 006c F0349FE5 		ldr	r3, .L379+8
 2986 0070 003093E5 		ldr	r3, [r3, #0]	@ float
 2987 0074 20308DE5 		str	r3, [sp, #32]	@ float
 2988 0078 E8349FE5 		ldr	r3, .L379+12
 2989 007c 003093E5 		ldr	r3, [r3, #0]	@ float
 2990 0080 0070A0E1 		mov	r7, r0
 2991 0084 24308DE5 		str	r3, [sp, #36]	@ float
 2992 0088 FEFFFFEB 		bl	__aeabi_f2d
 2993 008c 08008DE5 		str	r0, [sp, #8]
 2994 0090 0C108DE5 		str	r1, [sp, #12]
 2995 0094 0500A0E1 		mov	r0, r5
 2996 0098 FEFFFFEB 		bl	__aeabi_f2d
 2997 009c 0020A0E1 		mov	r2, r0
 2998 00a0 0130A0E1 		mov	r3, r1
 2999 00a4 08108DE2 		add	r1, sp, #8
 3000 00a8 030091E8 		ldmia	r1, {r0-r1}
 3001 00ac FEFFFFEB 		bl	atan2
 3002 00b0 FEFFFFEB 		bl	__aeabi_d2f
 3003 00b4 062094E7 		ldr	r2, [r4, r6]	@ float
 3004 00b8 043098E5 		ldr	r3, [r8, #4]	@ float
 3005 00bc 0010A0E1 		mov	r1, r0
 3006 00c0 20008DE2 		add	r0, sp, #32
 3007 00c4 FEFFFFEB 		bl	TranslateAndRotateFromWorld
 3008 00c8 24009DE5 		ldr	r0, [sp, #36]	@ float
 3009 00cc 0010A0E3 		mov	r1, #0
 3010 00d0 FEFFFFEB 		bl	__aeabi_fcmpgt
 3011 00d4 90349FE5 		ldr	r3, .L379+16
 3012 00d8 000050E3 		cmp	r0, #0
 3013 00dc 02918912 		addne	r9, r9, #-2147483648
 3014 00e0 009083E5 		str	r9, [r3, #0]	@ float
 3015 00e4 0510A0E1 		mov	r1, r5
 3016 00e8 0500A0E1 		mov	r0, r5
 3017 00ec FEFFFFEB 		bl	__aeabi_fmul
 3018 00f0 0710A0E1 		mov	r1, r7
 3019 00f4 0040A0E1 		mov	r4, r0
 3020 00f8 0700A0E1 		mov	r0, r7
 3021 00fc FEFFFFEB 		bl	__aeabi_fmul
 3022 0100 0010A0E1 		mov	r1, r0
 3023 0104 0400A0E1 		mov	r0, r4
 3024 0108 FEFFFFEB 		bl	__aeabi_fadd
 3025 010c FEFFFFEB 		bl	__aeabi_f2d
 3026 0110 FEFFFFEB 		bl	sqrt
 3027 0114 FEFFFFEB 		bl	__aeabi_d2f
 3028 0118 0090A0E1 		mov	r9, r0
 3029 011c 0910A0E1 		mov	r1, r9
 3030 0120 0500A0E1 		mov	r0, r5
 3031 0124 FEFFFFEB 		bl	__aeabi_fdiv
 3032 0128 0910A0E1 		mov	r1, r9
 3033 012c 0080A0E1 		mov	r8, r0
 3034 0130 0700A0E1 		mov	r0, r7
 3035 0134 FEFFFFEB 		bl	__aeabi_fdiv
 3036 0138 0B10A0E1 		mov	r1, fp
 3037 013c 0060A0E1 		mov	r6, r0
 3038 0140 020188E2 		add	r0, r8, #-2147483648
 3039 0144 FEFFFFEB 		bl	__aeabi_fmul
 3040 0148 0B10A0E1 		mov	r1, fp
 3041 014c 0040A0E1 		mov	r4, r0
 3042 0150 020186E2 		add	r0, r6, #-2147483648
 3043 0154 FEFFFFEB 		bl	__aeabi_fmul
 3044 0158 50109DE5 		ldr	r1, [sp, #80]	@ float
 3045 015c 0050A0E1 		mov	r5, r0
 3046 0160 0900A0E1 		mov	r0, r9
 3047 0164 FEFFFFEB 		bl	__aeabi_fadd
 3048 0168 FC339FE5 		ldr	r3, .L379+16
 3049 016c 009093E5 		ldr	r9, [r3, #0]	@ float
 3050 0170 0070A0E1 		mov	r7, r0
 3051 0174 0910A0E1 		mov	r1, r9
 3052 0178 0600A0E1 		mov	r0, r6
 3053 017c FEFFFFEB 		bl	__aeabi_fmul
 3054 0180 0010A0E1 		mov	r1, r0
 3055 0184 0400A0E1 		mov	r0, r4
 3056 0188 FEFFFFEB 		bl	__aeabi_fadd
 3057 018c 0910A0E1 		mov	r1, r9
 3058 0190 08008DE5 		str	r0, [sp, #8]	@ float
 3059 0194 0800A0E1 		mov	r0, r8
 3060 0198 FEFFFFEB 		bl	__aeabi_fmul
 3061 019c 0010A0E1 		mov	r1, r0
 3062 01a0 0500A0E1 		mov	r0, r5
 3063 01a4 FEFFFFEB 		bl	__aeabi_fsub
 3064 01a8 08109DE5 		ldr	r1, [sp, #8]	@ float
 3065 01ac 14008DE5 		str	r0, [sp, #20]	@ float
 3066 01b0 0400A0E1 		mov	r0, r4
 3067 01b4 FEFFFFEB 		bl	__aeabi_fsub
 3068 01b8 FEFFFFEB 		bl	__aeabi_f2d
 3069 01bc 18008DE5 		str	r0, [sp, #24]
 3070 01c0 1C108DE5 		str	r1, [sp, #28]
 3071 01c4 14109DE5 		ldr	r1, [sp, #20]	@ float
 3072 01c8 0500A0E1 		mov	r0, r5
 3073 01cc FEFFFFEB 		bl	__aeabi_fsub
 3074 01d0 FEFFFFEB 		bl	__aeabi_f2d
 3075 01d4 0020A0E1 		mov	r2, r0
 3076 01d8 0130A0E1 		mov	r3, r1
 3077 01dc 18108DE2 		add	r1, sp, #24
 3078 01e0 030091E8 		ldmia	r1, {r0-r1}
 3079 01e4 FEFFFFEB 		bl	atan2
 3080 01e8 FEFFFFEB 		bl	__aeabi_d2f
 3081 01ec 0C20A0E3 		mov	r2, #12
 3082 01f0 920A0AE0 		mul	sl, r2, sl
 3083 01f4 74339FE5 		ldr	r3, .L379+20
 3084 01f8 000083E5 		str	r0, [r3, #0]	@ float
 3085 01fc 5C339FE5 		ldr	r3, .L379+4
 3086 0200 0AB083E0 		add	fp, r3, sl
 3087 0204 0AA093E7 		ldr	sl, [r3, sl]	@ float
 3088 0208 0400A0E1 		mov	r0, r4
 3089 020c 0A10A0E1 		mov	r1, sl
 3090 0210 FEFFFFEB 		bl	__aeabi_fadd
 3091 0214 58939FE5 		ldr	r9, .L379+24
 3092 0218 000089E5 		str	r0, [r9, #0]	@ float
 3093 021c 04409BE5 		ldr	r4, [fp, #4]	@ float
 3094 0220 0500A0E1 		mov	r0, r5
 3095 0224 0410A0E1 		mov	r1, r4
 3096 0228 FEFFFFEB 		bl	__aeabi_fadd
 3097 022c 0710A0E1 		mov	r1, r7
 3098 0230 040089E5 		str	r0, [r9, #4]	@ float
 3099 0234 0800A0E1 		mov	r0, r8
 3100 0238 FEFFFFEB 		bl	__aeabi_fmul
 3101 023c 0A10A0E1 		mov	r1, sl
 3102 0240 FEFFFFEB 		bl	__aeabi_fadd
 3103 0244 2C539FE5 		ldr	r5, .L379+28
 3104 0248 0710A0E1 		mov	r1, r7
 3105 024c 000085E5 		str	r0, [r5, #0]	@ float
 3106 0250 0600A0E1 		mov	r0, r6
 3107 0254 FEFFFFEB 		bl	__aeabi_fmul
 3108 0258 0410A0E1 		mov	r1, r4
 3109 025c FEFFFFEB 		bl	__aeabi_fadd
 3110 0260 0A10A0E1 		mov	r1, sl
 3111 0264 040085E5 		str	r0, [r5, #4]	@ float
 3112 0268 08009DE5 		ldr	r0, [sp, #8]	@ float
 3113 026c FEFFFFEB 		bl	__aeabi_fadd
 3114 0270 04539FE5 		ldr	r5, .L379+32
 3115 0274 0410A0E1 		mov	r1, r4
 3116 0278 000085E5 		str	r0, [r5, #0]	@ float
 3117 027c 14009DE5 		ldr	r0, [sp, #20]	@ float
 3118 0280 FEFFFFEB 		bl	__aeabi_fadd
 3119 0284 D0329FE5 		ldr	r3, .L379
 3120 0288 0140A0E3 		mov	r4, #1
 3121 028c 040085E5 		str	r0, [r5, #4]	@ float
 3122 0290 0040C3E5 		strb	r4, [r3, #0]
 3123 0294 A90000EA 		b	.L377
 3124              	.L335:
 3125 0298 E0329FE5 		ldr	r3, .L379+36
 3126 029c 0040A0E3 		mov	r4, #0
 3127 02a0 DC229FE5 		ldr	r2, .L379+40
 3128 02a4 0040C3E5 		strb	r4, [r3, #0]
 3129 02a8 0030A0E3 		mov	r3, #0
 3130 02ac 003082E5 		str	r3, [r2, #0]	@ float
 3131 02b0 D0229FE5 		ldr	r2, .L379+44
 3132 02b4 0310A0E3 		mov	r1, #3
 3133 02b8 0010C2E5 		strb	r1, [r2, #0]
 3134 02bc 9C229FE5 		ldr	r2, .L379+4
 3135 02c0 0C10A0E3 		mov	r1, #12
 3136 02c4 912A2AE0 		mla	sl, r1, sl, r2
 3137 02c8 BC229FE5 		ldr	r2, .L379+48
 3138 02cc 08109AE5 		ldr	r1, [sl, #8]	@ float
 3139 02d0 001082E5 		str	r1, [r2, #0]	@ float
 3140 02d4 B4229FE5 		ldr	r2, .L379+52
 3141 02d8 003082E5 		str	r3, [r2, #0]	@ float
 3142 02dc 98329FE5 		ldr	r3, .L379+32
 3143 02e0 000093E5 		ldr	r0, [r3, #0]	@ float
 3144 02e4 041093E5 		ldr	r1, [r3, #4]	@ float
 3145 02e8 7C329FE5 		ldr	r3, .L379+16
 3146 02ec 002093E5 		ldr	r2, [r3, #0]	@ float
 3147 02f0 FEFFFFEB 		bl	nav_circle_XY
 3148 02f4 98329FE5 		ldr	r3, .L379+56
 3149 02f8 000093E5 		ldr	r0, [r3, #0]
 3150 02fc 0201C0E3 		bic	r0, r0, #-2147483648
 3151 0300 FEFFFFEB 		bl	__aeabi_f2d
 3152 0304 8C229FE5 		ldr	r2, .L379+60
 3153 0308 8C329FE5 		ldr	r3, .L379+64
 3154 030c FEFFFFEB 		bl	__aeabi_ddiv
 3155 0310 88229FE5 		ldr	r2, .L379+68
 3156 0314 88329FE5 		ldr	r3, .L379+72
 3157 0318 FEFFFFEB 		bl	__aeabi_dcmpgt
 3158 031c 040050E1 		cmp	r0, r4
 3159 0320 8900000A 		beq	.L364
 3160 0324 44329FE5 		ldr	r3, .L379+20
 3161 0328 000093E5 		ldr	r0, [r3, #0]	@ float
 3162 032c FEFFFFEB 		bl	__aeabi_f2d
 3163 0330 70229FE5 		ldr	r2, .L379+76
 3164 0334 70329FE5 		ldr	r3, .L379+80
 3165 0338 FEFFFFEB 		bl	__aeabi_dmul
 3166 033c 6C329FE5 		ldr	r3, .L379+84
 3167 0340 0060A0E1 		mov	r6, r0
 3168 0344 000093E5 		ldr	r0, [r3, #0]	@ float
 3169 0348 0170A0E1 		mov	r7, r1
 3170 034c FEFFFFEB 		bl	__aeabi_f2d
 3171 0350 0020A0E1 		mov	r2, r0
 3172 0354 0130A0E1 		mov	r3, r1
 3173 0358 38029FE5 		ldr	r0, .L379+60
 3174 035c 50129FE5 		ldr	r1, .L379+88
 3175 0360 FEFFFFEB 		bl	__aeabi_dsub
 3176 0364 3C229FE5 		ldr	r2, .L379+76
 3177 0368 3C329FE5 		ldr	r3, .L379+80
 3178 036c FEFFFFEB 		bl	__aeabi_dmul
 3179 0370 FEFFFFEB 		bl	__aeabi_d2f
 3180 0374 020000EA 		b	.L376
 3181              	.L346:
 3182 0378 0500A0E1 		mov	r0, r5
 3183 037c 34129FE5 		ldr	r1, .L379+92
 3184 0380 FEFFFFEB 		bl	__aeabi_fadd
 3185              	.L376:
 3186 0384 0010A0E3 		mov	r1, #0
 3187 0388 0050A0E1 		mov	r5, r0
 3188 038c FEFFFFEB 		bl	__aeabi_fcmplt
 3189 0390 000050E3 		cmp	r0, #0
 3190 0394 FF8004E2 		and	r8, r4, #255
 3191 0398 0700000A 		beq	.L373
 3192 039c 014084E2 		add	r4, r4, #1
 3193 03a0 010C54E3 		cmp	r4, #256
 3194 03a4 F3FFFF1A 		bne	.L346
 3195 03a8 0080A0E3 		mov	r8, #0
 3196 03ac 020000EA 		b	.L373
 3197              	.L350:
 3198 03b0 00129FE5 		ldr	r1, .L379+92
 3199 03b4 FEFFFFEB 		bl	__aeabi_fsub
 3200 03b8 0050A0E1 		mov	r5, r0
 3201              	.L373:
 3202 03bc 0500A0E1 		mov	r0, r5
 3203 03c0 F0119FE5 		ldr	r1, .L379+92
 3204 03c4 FEFFFFEB 		bl	__aeabi_fcmpge
 3205 03c8 000050E3 		cmp	r0, #0
 3206 03cc 0500A0E1 		mov	r0, r5
 3207 03d0 0200000A 		beq	.L348
 3208 03d4 018088E2 		add	r8, r8, #1
 3209 03d8 FF8018E2 		ands	r8, r8, #255
 3210 03dc F3FFFF1A 		bne	.L350
 3211              	.L348:
 3212 03e0 FEFFFFEB 		bl	__aeabi_f2d
 3213 03e4 0020A0E1 		mov	r2, r0
 3214 03e8 0130A0E1 		mov	r3, r1
 3215 03ec 0600A0E1 		mov	r0, r6
 3216 03f0 0710A0E1 		mov	r1, r7
 3217 03f4 FEFFFFEB 		bl	__aeabi_dsub
 3218 03f8 FEFFFFEB 		bl	__aeabi_d2f
 3219 03fc 0050A0E3 		mov	r5, #0
 3220 0400 0040A0E1 		mov	r4, r0
 3221 0404 030000EA 		b	.L351
 3222              	.L354:
 3223 0408 0400A0E1 		mov	r0, r4
 3224 040c A4119FE5 		ldr	r1, .L379+92
 3225 0410 FEFFFFEB 		bl	__aeabi_fadd
 3226 0414 0040A0E1 		mov	r4, r0
 3227              	.L351:
 3228 0418 0400A0E1 		mov	r0, r4
 3229 041c 0010A0E3 		mov	r1, #0
 3230 0420 FEFFFFEB 		bl	__aeabi_fcmplt
 3231 0424 000050E3 		cmp	r0, #0
 3232 0428 FF6005E2 		and	r6, r5, #255
 3233 042c 0700000A 		beq	.L374
 3234 0430 015085E2 		add	r5, r5, #1
 3235 0434 010C55E3 		cmp	r5, #256
 3236 0438 F2FFFF1A 		bne	.L354
 3237 043c 0060A0E3 		mov	r6, #0
 3238 0440 020000EA 		b	.L374
 3239              	.L358:
 3240 0444 6C119FE5 		ldr	r1, .L379+92
 3241 0448 FEFFFFEB 		bl	__aeabi_fsub
 3242 044c 0040A0E1 		mov	r4, r0
 3243              	.L374:
 3244 0450 0400A0E1 		mov	r0, r4
 3245 0454 5C119FE5 		ldr	r1, .L379+92
 3246 0458 FEFFFFEB 		bl	__aeabi_fcmpge
 3247 045c 000050E3 		cmp	r0, #0
 3248 0460 0400A0E1 		mov	r0, r4
 3249 0464 0200000A 		beq	.L356
 3250 0468 016086E2 		add	r6, r6, #1
 3251 046c FF6016E2 		ands	r6, r6, #255
 3252 0470 F3FFFF1A 		bne	.L358
 3253              	.L356:
 3254 0474 40119FE5 		ldr	r1, .L379+96
 3255 0478 FEFFFFEB 		bl	__aeabi_fcmpgt
 3256 047c 000050E3 		cmp	r0, #0
 3257 0480 0400001A 		bne	.L359
 3258 0484 0400A0E1 		mov	r0, r4
 3259 0488 30119FE5 		ldr	r1, .L379+100
 3260 048c FEFFFFEB 		bl	__aeabi_fcmplt
 3261 0490 000050E3 		cmp	r0, #0
 3262 0494 2C00000A 		beq	.L364
 3263              	.L359:
 3264 0498 BC309FE5 		ldr	r3, .L379
 3265 049c 0220A0E3 		mov	r2, #2
 3266 04a0 0020C3E5 		strb	r2, [r3, #0]
 3267 04a4 210000EA 		b	.L378
 3268              	.L336:
 3269 04a8 D0309FE5 		ldr	r3, .L379+36
 3270 04ac 0020A0E3 		mov	r2, #0
 3271 04b0 0020C3E5 		strb	r2, [r3, #0]
 3272 04b4 C8309FE5 		ldr	r3, .L379+40
 3273 04b8 0050A0E3 		mov	r5, #0
 3274 04bc 005083E5 		str	r5, [r3, #0]	@ float
 3275 04c0 C0309FE5 		ldr	r3, .L379+44
 3276 04c4 0360A0E3 		mov	r6, #3
 3277 04c8 0060C3E5 		strb	r6, [r3, #0]
 3278 04cc 8C309FE5 		ldr	r3, .L379+4
 3279 04d0 0C20A0E3 		mov	r2, #12
 3280 04d4 923A2AE0 		mla	sl, r2, sl, r3
 3281 04d8 AC309FE5 		ldr	r3, .L379+48
 3282 04dc 08209AE5 		ldr	r2, [sl, #8]	@ float
 3283 04e0 8C409FE5 		ldr	r4, .L379+24
 3284 04e4 002083E5 		str	r2, [r3, #0]	@ float
 3285 04e8 88709FE5 		ldr	r7, .L379+28
 3286 04ec 9C309FE5 		ldr	r3, .L379+52
 3287 04f0 000094E5 		ldr	r0, [r4, #0]	@ float
 3288 04f4 005083E5 		str	r5, [r3, #0]	@ float
 3289 04f8 041094E5 		ldr	r1, [r4, #4]	@ float
 3290 04fc 002097E5 		ldr	r2, [r7, #0]	@ float
 3291 0500 043097E5 		ldr	r3, [r7, #4]	@ float
 3292 0504 FEFFFFEB 		bl	nav_route_xy
 3293 0508 00508DE5 		str	r5, [sp, #0]	@ float
 3294 050c 000097E5 		ldr	r0, [r7, #0]	@ float
 3295 0510 041097E5 		ldr	r1, [r7, #4]	@ float
 3296 0514 002094E5 		ldr	r2, [r4, #0]	@ float
 3297 0518 043094E5 		ldr	r3, [r4, #4]	@ float
 3298 051c FEFFFFEB 		bl	nav_approaching_xy
 3299 0520 000050E3 		cmp	r0, #0
 3300 0524 0800000A 		beq	.L364
 3301 0528 2C309FE5 		ldr	r3, .L379
 3302 052c 0060C3E5 		strb	r6, [r3, #0]
 3303              	.L378:
 3304 0530 FEFFFFEB 		bl	nav_init_stage
 3305 0534 040000EA 		b	.L364
 3306              	.L337:
 3307 0538 0040A0E3 		mov	r4, #0
 3308 053c 0040C2E5 		strb	r4, [r2, #0]
 3309              	.L377:
 3310 0540 FEFFFFEB 		bl	nav_init_stage
 3311 0544 0400A0E1 		mov	r0, r4
 3312 0548 000000EA 		b	.L333
 3313              	.L364:
 3314 054c 0100A0E3 		mov	r0, #1
 3315              	.L333:
 3316 0550 2CD08DE2 		add	sp, sp, #44
 3317 0554 F04FBDE8 		ldmfd	sp!, {r4, r5, r6, r7, r8, r9, sl, fp, lr}
 3318 0558 1EFF2FE1 		bx	lr
 3319              	.L380:
 3320              		.align	2
 3321              	.L379:
 3322 055c 00000000 		.word	.LANCHOR37
 3323 0560 00000000 		.word	waypoints
 3324 0564 00000000 		.word	estimator_x
 3325 0568 00000000 		.word	estimator_y
 3326 056c 00000000 		.word	.LANCHOR38
 3327 0570 00000000 		.word	.LANCHOR39
 3328 0574 00000000 		.word	.LANCHOR40
 3329 0578 00000000 		.word	.LANCHOR41
 3330 057c 00000000 		.word	.LANCHOR42
 3331 0580 00000000 		.word	v_ctl_climb_mode
 3332 0584 00000000 		.word	nav_pitch
 3333 0588 00000000 		.word	v_ctl_mode
 3334 058c 00000000 		.word	nav_altitude
 3335 0590 00000000 		.word	v_ctl_altitude_pre_climb
 3336 0594 00000000 		.word	nav_circle_radians
 3337 0598 182D4454 		.word	1413754136
 3338 059c FB211940 		.word	1075388923
 3339 05a0 9A999999 		.word	-1717986918
 3340 05a4 9999C93F 		.word	1070176665
 3341 05a8 F8C1631A 		.word	442745336
 3342 05ac DCA54C40 		.word	1078765020
 3343 05b0 00000000 		.word	nav_circle_trigo_qdr
 3344 05b4 FB21F93F 		.word	1073291771
 3345 05b8 0000B443 		.word	1135869952
 3346 05bc 0000AF43 		.word	1135542272
 3347 05c0 00002041 		.word	1092616192
 3349              		.section	.text.FlightLineBlock,"ax",%progbits
 3350              		.align	2
 3351              		.global	FlightLineBlock
 3353              	FlightLineBlock:
 3354              		@ Function supports interworking.
 3355              		@ args = 4, pretend = 0, frame = 0
 3356              		@ frame_needed = 0, uses_anonymous_args = 0
 3357 0000 73402DE9 		stmfd	sp!, {r0, r1, r4, r5, r6, lr}
 3358 0004 B4409FE5 		ldr	r4, .L389
 3359 0008 010050E1 		cmp	r0, r1
 3360 000c 0050A0E1 		mov	r5, r0
 3361 0010 0160A0E1 		mov	r6, r1
 3362 0014 18C09DE5 		ldr	ip, [sp, #24]	@ float
 3363 0018 0000D4E5 		ldrb	r0, [r4, #0]	@ zero_extendqisi2
 3364 001c 1100002A 		bcs	.L382
 3365 0020 000085E0 		add	r0, r5, r0
 3366 0024 FF0000E2 		and	r0, r0, #255
 3367 0028 011080E2 		add	r1, r0, #1
 3368 002c FF1001E2 		and	r1, r1, #255
 3369 0030 00C08DE5 		str	ip, [sp, #0]	@ float
 3370 0034 FEFFFFEB 		bl	FlightLine
 3371 0038 84309FE5 		ldr	r3, .L389+4
 3372 003c 0000D3E5 		ldrb	r0, [r3, #0]	@ zero_extendqisi2
 3373 0040 000050E3 		cmp	r0, #0
 3374 0044 1A00001A 		bne	.L387
 3375 0048 0030D4E5 		ldrb	r3, [r4, #0]	@ zero_extendqisi2
 3376 004c 013083E2 		add	r3, r3, #1
 3377 0050 FF3003E2 		and	r3, r3, #255
 3378 0054 035085E0 		add	r5, r5, r3
 3379 0058 060055E1 		cmp	r5, r6
 3380 005c 0030C4E5 		strb	r3, [r4, #0]
 3381 0060 130000BA 		blt	.L387
 3382 0064 100000EA 		b	.L388
 3383              	.L382:
 3384 0068 050060E0 		rsb	r0, r0, r5
 3385 006c FF0000E2 		and	r0, r0, #255
 3386 0070 011040E2 		sub	r1, r0, #1
 3387 0074 FF1001E2 		and	r1, r1, #255
 3388 0078 00C08DE5 		str	ip, [sp, #0]	@ float
 3389 007c FEFFFFEB 		bl	FlightLine
 3390 0080 3C309FE5 		ldr	r3, .L389+4
 3391 0084 0000D3E5 		ldrb	r0, [r3, #0]	@ zero_extendqisi2
 3392 0088 000050E3 		cmp	r0, #0
 3393 008c 0800001A 		bne	.L387
 3394 0090 0030D4E5 		ldrb	r3, [r4, #0]	@ zero_extendqisi2
 3395 0094 013083E2 		add	r3, r3, #1
 3396 0098 FF3003E2 		and	r3, r3, #255
 3397 009c 055063E0 		rsb	r5, r3, r5
 3398 00a0 060055E1 		cmp	r5, r6
 3399 00a4 0030C4E5 		strb	r3, [r4, #0]
 3400 00a8 010000CA 		bgt	.L387
 3401              	.L388:
 3402 00ac 0000C4E5 		strb	r0, [r4, #0]
 3403 00b0 000000EA 		b	.L383
 3404              	.L387:
 3405 00b4 0100A0E3 		mov	r0, #1
 3406              	.L383:
 3407 00b8 7C40BDE8 		ldmfd	sp!, {r2, r3, r4, r5, r6, lr}
 3408 00bc 1EFF2FE1 		bx	lr
 3409              	.L390:
 3410              		.align	2
 3411              	.L389:
 3412 00c0 00000000 		.word	.LANCHOR43
 3413 00c4 00000000 		.word	.LANCHOR37
 3415              		.global	__aeabi_fcmple
 3416              		.global	__aeabi_fcmpeq
 3417              		.section	.text.InitializePolygonSurvey,"ax",%progbits
 3418              		.align	2
 3419              		.global	InitializePolygonSurvey
 3421              	InitializePolygonSurvey:
 3422              		@ Function supports interworking.
 3423              		@ args = 0, pretend = 0, frame = 112
 3424              		@ frame_needed = 0, uses_anonymous_args = 0
 3425 0000 F04F2DE9 		stmfd	sp!, {r4, r5, r6, r7, r8, r9, sl, fp, lr}
 3426 0004 0350A0E1 		mov	r5, r3
 3427 0008 74D04DE2 		sub	sp, sp, #116
 3428 000c 38389FE5 		ldr	r3, .L488
 3429 0010 18208DE5 		str	r2, [sp, #24]	@ float
 3430 0014 0020A0E3 		mov	r2, #0
 3431 0018 002083E5 		str	r2, [r3, #0]	@ float
 3432 001c 042083E5 		str	r2, [r3, #4]	@ float
 3433 0020 0070A0E1 		mov	r7, r0
 3434 0024 0500A0E1 		mov	r0, r5
 3435 0028 0140A0E1 		mov	r4, r1
 3436 002c FEFFFFEB 		bl	__aeabi_f2d
 3437 0030 18389FE5 		ldr	r3, .L488+4
 3438 0034 18289FE5 		ldr	r2, .L488+8
 3439 0038 FEFFFFEB 		bl	__aeabi_dmul
 3440 003c FEFFFFEB 		bl	__aeabi_d2f
 3441 0040 10389FE5 		ldr	r3, .L488+12
 3442 0044 000083E5 		str	r0, [r3, #0]	@ float
 3443 0048 0C389FE5 		ldr	r3, .L488+16
 3444 004c 0080A0E3 		mov	r8, #0
 3445 0050 B080C3E1 		strh	r8, [r3, #0]	@ movhi
 3446 0054 04389FE5 		ldr	r3, .L488+20
 3447 0058 B080C3E1 		strh	r8, [r3, #0]	@ movhi
 3448 005c 00389FE5 		ldr	r3, .L488+24
 3449 0060 0070C3E5 		strb	r7, [r3, #0]
 3450 0064 FC379FE5 		ldr	r3, .L488+28
 3451 0068 0040C3E5 		strb	r4, [r3, #0]
 3452 006c F8379FE5 		ldr	r3, .L488+32
 3453 0070 080054E1 		cmp	r4, r8
 3454 0074 0080C3E5 		strb	r8, [r3, #0]
 3455 0078 0060A0E1 		mov	r6, r0
 3456 007c 0180A003 		moveq	r8, #1
 3457 0080 ED01000A 		beq	.L392
 3458 0084 0A0054E3 		cmp	r4, #10
 3459 0088 EB01008A 		bhi	.L392
 3460 008c 0500A0E1 		mov	r0, r5
 3461 0090 D8179FE5 		ldr	r1, .L488+36
 3462 0094 FEFFFFEB 		bl	__aeabi_fcmpge
 3463 0098 080050E1 		cmp	r0, r8
 3464 009c E601000A 		beq	.L392
 3465 00a0 0500A0E1 		mov	r0, r5
 3466 00a4 C8179FE5 		ldr	r1, .L488+40
 3467 00a8 FEFFFFEB 		bl	__aeabi_fcmple
 3468 00ac 080050E1 		cmp	r0, r8
 3469 00b0 E101000A 		beq	.L392
 3470 00b4 BC179FE5 		ldr	r1, .L488+44
 3471 00b8 0C00A0E3 		mov	r0, #12
 3472 00bc 20308DE2 		add	r3, sp, #32
 3473 00c0 0820A0E1 		mov	r2, r8
 3474 00c4 901727E0 		mla	r7, r0, r7, r1
 3475 00c8 060000EA 		b	.L395
 3476              	.L396:
 3477 00cc 0710A0E1 		mov	r1, r7
 3478 00d0 0800B1E7 		ldr	r0, [r1, r8]!	@ float
 3479 00d4 041091E5 		ldr	r1, [r1, #4]	@ float
 3480 00d8 080003E5 		str	r0, [r3, #-8]	@ float
 3481 00dc 041003E5 		str	r1, [r3, #-4]	@ float
 3482 00e0 012082E2 		add	r2, r2, #1
 3483 00e4 0C8088E2 		add	r8, r8, #12
 3484              	.L395:
 3485 00e8 040052E1 		cmp	r2, r4
 3486 00ec 083083E2 		add	r3, r3, #8
 3487 00f0 F5FFFFBA 		blt	.L396
 3488 00f4 0050A0E3 		mov	r5, #0
 3489              	.L397:
 3490 00f8 20108DE2 		add	r1, sp, #32
 3491 00fc 0020A0E3 		mov	r2, #0
 3492 0100 850181E0 		add	r0, r1, r5, asl #3
 3493 0104 0230A0E1 		mov	r3, r2
 3494 0108 0610A0E1 		mov	r1, r6
 3495 010c 015085E2 		add	r5, r5, #1
 3496 0110 FEFFFFEB 		bl	TranslateAndRotateFromWorld
 3497 0114 040055E1 		cmp	r5, r4
 3498 0118 F6FFFFBA 		blt	.L397
 3499 011c 20709DE5 		ldr	r7, [sp, #32]	@ float
 3500 0120 24809DE5 		ldr	r8, [sp, #36]	@ float
 3501 0124 20508DE2 		add	r5, sp, #32
 3502 0128 0160A0E3 		mov	r6, #1
 3503 012c 0D0000EA 		b	.L398
 3504              	.L403:
 3505 0130 0CA095E5 		ldr	sl, [r5, #12]	@ float
 3506 0134 0810A0E1 		mov	r1, r8
 3507 0138 0A00A0E1 		mov	r0, sl
 3508 013c FEFFFFEB 		bl	__aeabi_fcmplt
 3509 0140 000050E3 		cmp	r0, #0
 3510 0144 0A80A011 		movne	r8, sl
 3511 0148 08A095E5 		ldr	sl, [r5, #8]	@ float
 3512 014c 0710A0E1 		mov	r1, r7
 3513 0150 0A00A0E1 		mov	r0, sl
 3514 0154 FEFFFFEB 		bl	__aeabi_fcmplt
 3515 0158 000050E3 		cmp	r0, #0
 3516 015c 0A70A011 		movne	r7, sl
 3517 0160 016086E2 		add	r6, r6, #1
 3518 0164 085085E2 		add	r5, r5, #8
 3519              	.L398:
 3520 0168 040056E1 		cmp	r6, r4
 3521 016c EFFFFFBA 		blt	.L403
 3522 0170 D4669FE5 		ldr	r6, .L488
 3523 0174 048086E5 		str	r8, [r6, #4]	@ float
 3524 0178 007086E5 		str	r7, [r6, #0]	@ float
 3525 017c 0050A0E3 		mov	r5, #0
 3526              	.L404:
 3527 0180 20208DE2 		add	r2, sp, #32
 3528 0184 850182E0 		add	r0, r2, r5, asl #3
 3529 0188 0010A0E3 		mov	r1, #0
 3530 018c 002096E5 		ldr	r2, [r6, #0]	@ float
 3531 0190 043096E5 		ldr	r3, [r6, #4]	@ float
 3532 0194 015085E2 		add	r5, r5, #1
 3533 0198 FEFFFFEB 		bl	TranslateAndRotateFromWorld
 3534 019c 040055E1 		cmp	r5, r4
 3535 01a0 F6FFFFBA 		blt	.L404
 3536 01a4 D0369FE5 		ldr	r3, .L488+48
 3537 01a8 20209DE5 		ldr	r2, [sp, #32]	@ float
 3538 01ac 24509DE5 		ldr	r5, [sp, #36]	@ float
 3539 01b0 002083E5 		str	r2, [r3, #0]	@ float
 3540 01b4 045083E5 		str	r5, [r3, #4]	@ float
 3541 01b8 0160A0E3 		mov	r6, #1
 3542 01bc 080000EA 		b	.L405
 3543              	.L408:
 3544 01c0 20108DE2 		add	r1, sp, #32
 3545 01c4 863181E0 		add	r3, r1, r6, asl #3
 3546 01c8 047093E5 		ldr	r7, [r3, #4]	@ float
 3547 01cc 0510A0E1 		mov	r1, r5
 3548 01d0 0700A0E1 		mov	r0, r7
 3549 01d4 FEFFFFEB 		bl	__aeabi_fcmpgt
 3550 01d8 000050E3 		cmp	r0, #0
 3551 01dc 0750A011 		movne	r5, r7
 3552 01e0 016086E2 		add	r6, r6, #1
 3553              	.L405:
 3554 01e4 040056E1 		cmp	r6, r4
 3555 01e8 F4FFFFBA 		blt	.L408
 3556 01ec 8C369FE5 		ldr	r3, .L488+52
 3557 01f0 24209DE5 		ldr	r2, [sp, #36]	@ float
 3558 01f4 005083E5 		str	r5, [r3, #0]	@ float
 3559 01f8 10208DE5 		str	r2, [sp, #16]	@ float
 3560 01fc 013044E2 		sub	r3, r4, #1
 3561 0200 70208DE2 		add	r2, sp, #112
 3562 0204 832182E0 		add	r2, r2, r3, asl #3
 3563 0208 0060A0E3 		mov	r6, #0
 3564 020c 20909DE5 		ldr	r9, [sp, #32]	@ float
 3565 0210 6C869FE5 		ldr	r8, .L488+56
 3566 0214 0C208DE5 		str	r2, [sp, #12]
 3567 0218 1C708DE2 		add	r7, sp, #28
 3568 021c 06A0A0E1 		mov	sl, r6
 3569              	.L415:
 3570 0220 00005AE3 		cmp	sl, #0
 3571 0224 1500001A 		bne	.L409
 3572 0228 0C309DE5 		ldr	r3, [sp, #12]
 3573 022c 505013E5 		ldr	r5, [r3, #-80]	@ float
 3574 0230 0910A0E1 		mov	r1, r9
 3575 0234 0500A0E1 		mov	r0, r5
 3576 0238 FEFFFFEB 		bl	__aeabi_fcmpeq
 3577 023c 000050E3 		cmp	r0, #0
 3578 0240 40169F15 		ldrne	r1, .L488+60
 3579 0244 00108815 		strne	r1, [r8, #0]	@ float
 3580 0248 2200001A 		bne	.L412
 3581 024c 0C209DE5 		ldr	r2, [sp, #12]
 3582 0250 10109DE5 		ldr	r1, [sp, #16]	@ float
 3583 0254 4C0012E5 		ldr	r0, [r2, #-76]	@ float
 3584 0258 FEFFFFEB 		bl	__aeabi_fsub
 3585 025c 0910A0E1 		mov	r1, r9
 3586 0260 00B0A0E1 		mov	fp, r0
 3587 0264 0500A0E1 		mov	r0, r5
 3588 0268 FEFFFFEB 		bl	__aeabi_fsub
 3589 026c 0010A0E1 		mov	r1, r0
 3590 0270 0B00A0E1 		mov	r0, fp
 3591 0274 FEFFFFEB 		bl	__aeabi_fdiv
 3592 0278 000088E5 		str	r0, [r8, #0]	@ float
 3593 027c 150000EA 		b	.L412
 3594              	.L409:
 3595 0280 04B097E5 		ldr	fp, [r7, #4]	@ float
 3596 0284 045017E5 		ldr	r5, [r7, #-4]	@ float
 3597 0288 0B00A0E1 		mov	r0, fp
 3598 028c 0510A0E1 		mov	r1, r5
 3599 0290 FEFFFFEB 		bl	__aeabi_fcmpeq
 3600 0294 000050E3 		cmp	r0, #0
 3601 0298 E8359F15 		ldrne	r3, .L488+60
 3602 029c 06308817 		strne	r3, [r8, r6]	@ float
 3603 02a0 0C00001A 		bne	.L412
 3604 02a4 001097E5 		ldr	r1, [r7, #0]	@ float
 3605 02a8 080097E5 		ldr	r0, [r7, #8]	@ float
 3606 02ac FEFFFFEB 		bl	__aeabi_fsub
 3607 02b0 0510A0E1 		mov	r1, r5
 3608 02b4 0030A0E1 		mov	r3, r0
 3609 02b8 0B00A0E1 		mov	r0, fp
 3610 02bc 04308DE5 		str	r3, [sp, #4]
 3611 02c0 FEFFFFEB 		bl	__aeabi_fsub
 3612 02c4 04309DE5 		ldr	r3, [sp, #4]
 3613 02c8 0010A0E1 		mov	r1, r0
 3614 02cc 0300A0E1 		mov	r0, r3
 3615 02d0 FEFFFFEB 		bl	__aeabi_fdiv
 3616 02d4 060088E7 		str	r0, [r8, r6]	@ float
 3617              	.L412:
 3618 02d8 081096E7 		ldr	r1, [r6, r8]	@ float
 3619 02dc 040097E5 		ldr	r0, [r7, #4]	@ float
 3620 02e0 FEFFFFEB 		bl	__aeabi_fmul
 3621 02e4 0010A0E1 		mov	r1, r0
 3622 02e8 0800B7E5 		ldr	r0, [r7, #8]!	@ float
 3623 02ec FEFFFFEB 		bl	__aeabi_fsub
 3624 02f0 01A08AE2 		add	sl, sl, #1
 3625 02f4 06B088E0 		add	fp, r8, r6
 3626 02f8 04005AE1 		cmp	sl, r4
 3627 02fc 80559FE5 		ldr	r5, .L488+56
 3628 0300 04008BE5 		str	r0, [fp, #4]	@ float
 3629 0304 0C6086E2 		add	r6, r6, #12
 3630 0308 C4FFFFBA 		blt	.L415
 3631 030c 047095E5 		ldr	r7, [r5, #4]	@ float
 3632 0310 100095E5 		ldr	r0, [r5, #16]	@ float
 3633 0314 0710A0E1 		mov	r1, r7
 3634 0318 FEFFFFEB 		bl	__aeabi_fsub
 3635 031c 008095E5 		ldr	r8, [r5, #0]	@ float
 3636 0320 0060A0E1 		mov	r6, r0
 3637 0324 0C1095E5 		ldr	r1, [r5, #12]	@ float
 3638 0328 0800A0E1 		mov	r0, r8
 3639 032c FEFFFFEB 		bl	__aeabi_fsub
 3640 0330 0010A0E1 		mov	r1, r0
 3641 0334 0600A0E1 		mov	r0, r6
 3642 0338 FEFFFFEB 		bl	__aeabi_fdiv
 3643 033c 0010A0E1 		mov	r1, r0
 3644 0340 0800A0E1 		mov	r0, r8
 3645 0344 FEFFFFEB 		bl	__aeabi_fmul
 3646 0348 0710A0E1 		mov	r1, r7
 3647 034c FEFFFFEB 		bl	__aeabi_fadd
 3648 0350 016044E2 		sub	r6, r4, #1
 3649 0354 0C30A0E3 		mov	r3, #12
 3650 0358 930602E0 		mul	r2, r3, r6
 3651 035c 023085E0 		add	r3, r5, r2
 3652 0360 00A0A0E1 		mov	sl, r0
 3653 0364 0710A0E1 		mov	r1, r7
 3654 0368 040093E5 		ldr	r0, [r3, #4]	@ float
 3655 036c 10308DE5 		str	r3, [sp, #16]
 3656 0370 0C208DE5 		str	r2, [sp, #12]
 3657 0374 FEFFFFEB 		bl	__aeabi_fsub
 3658 0378 0C209DE5 		ldr	r2, [sp, #12]
 3659 037c 0090A0E1 		mov	r9, r0
 3660 0380 021095E7 		ldr	r1, [r5, r2]	@ float
 3661 0384 0800A0E1 		mov	r0, r8
 3662 0388 FEFFFFEB 		bl	__aeabi_fsub
 3663 038c 0010A0E1 		mov	r1, r0
 3664 0390 0900A0E1 		mov	r0, r9
 3665 0394 FEFFFFEB 		bl	__aeabi_fdiv
 3666 0398 0010A0E1 		mov	r1, r0
 3667 039c 0800A0E1 		mov	r0, r8
 3668 03a0 FEFFFFEB 		bl	__aeabi_fmul
 3669 03a4 0710A0E1 		mov	r1, r7
 3670 03a8 FEFFFFEB 		bl	__aeabi_fadd
 3671 03ac 0070A0E1 		mov	r7, r0
 3672 03b0 0710A0E1 		mov	r1, r7
 3673 03b4 0A00A0E1 		mov	r0, sl
 3674 03b8 FEFFFFEB 		bl	__aeabi_fcmpgt
 3675 03bc C8349FE5 		ldr	r3, .L488+64
 3676 03c0 000050E3 		cmp	r0, #0
 3677 03c4 C4249FE5 		ldr	r2, .L488+68
 3678 03c8 00708315 		strne	r7, [r3, #0]	@ float
 3679 03cc 00A08305 		streq	sl, [r3, #0]	@ float
 3680 03d0 B4349FE5 		ldr	r3, .L488+64
 3681 03d4 00A08215 		strne	sl, [r2, #0]	@ float
 3682 03d8 00708205 		streq	r7, [r2, #0]	@ float
 3683 03dc 06B0A0E1 		mov	fp, r6
 3684 03e0 A8A49FE5 		ldr	sl, .L488+68
 3685 03e4 0180A0E3 		mov	r8, #1
 3686 03e8 94749FE5 		ldr	r7, .L488+56
 3687 03ec 0CC0A0E3 		mov	ip, #12
 3688 03f0 0360A0E1 		mov	r6, r3
 3689 03f4 1C408DE5 		str	r4, [sp, #28]
 3690 03f8 420000EA 		b	.L419
 3691              	.L423:
 3692 03fc 9C0801E0 		mul	r1, ip, r8
 3693 0400 013088E2 		add	r3, r8, #1
 3694 0404 14308DE5 		str	r3, [sp, #20]
 3695 0408 013087E0 		add	r3, r7, r1
 3696 040c 044093E5 		ldr	r4, [r3, #4]	@ float
 3697 0410 14309DE5 		ldr	r3, [sp, #20]
 3698 0414 9C0303E0 		mul	r3, ip, r3
 3699 0418 019097E7 		ldr	r9, [r7, r1]	@ float
 3700 041c 031087E0 		add	r1, r7, r3
 3701 0420 040091E5 		ldr	r0, [r1, #4]	@ float
 3702 0424 0410A0E1 		mov	r1, r4
 3703 0428 00C08DE5 		str	ip, [sp, #0]
 3704 042c 04308DE5 		str	r3, [sp, #4]
 3705 0430 FEFFFFEB 		bl	__aeabi_fsub
 3706 0434 04309DE5 		ldr	r3, [sp, #4]
 3707 0438 0020A0E1 		mov	r2, r0
 3708 043c 031097E7 		ldr	r1, [r7, r3]	@ float
 3709 0440 0900A0E1 		mov	r0, r9
 3710 0444 08208DE5 		str	r2, [sp, #8]
 3711 0448 FEFFFFEB 		bl	__aeabi_fsub
 3712 044c 08209DE5 		ldr	r2, [sp, #8]
 3713 0450 0010A0E1 		mov	r1, r0
 3714 0454 0200A0E1 		mov	r0, r2
 3715 0458 FEFFFFEB 		bl	__aeabi_fdiv
 3716 045c 0010A0E1 		mov	r1, r0
 3717 0460 0900A0E1 		mov	r0, r9
 3718 0464 FEFFFFEB 		bl	__aeabi_fmul
 3719 0468 0410A0E1 		mov	r1, r4
 3720 046c FEFFFFEB 		bl	__aeabi_fadd
 3721 0470 00C09DE5 		ldr	ip, [sp, #0]
 3722 0474 018048E2 		sub	r8, r8, #1
 3723 0478 9C0808E0 		mul	r8, ip, r8
 3724 047c 081087E0 		add	r1, r7, r8
 3725 0480 0030A0E1 		mov	r3, r0
 3726 0484 040091E5 		ldr	r0, [r1, #4]	@ float
 3727 0488 0410A0E1 		mov	r1, r4
 3728 048c 04308DE5 		str	r3, [sp, #4]
 3729 0490 FEFFFFEB 		bl	__aeabi_fsub
 3730 0494 081097E7 		ldr	r1, [r7, r8]	@ float
 3731 0498 0020A0E1 		mov	r2, r0
 3732 049c 0900A0E1 		mov	r0, r9
 3733 04a0 08208DE5 		str	r2, [sp, #8]
 3734 04a4 FEFFFFEB 		bl	__aeabi_fsub
 3735 04a8 08209DE5 		ldr	r2, [sp, #8]
 3736 04ac 0010A0E1 		mov	r1, r0
 3737 04b0 0200A0E1 		mov	r0, r2
 3738 04b4 FEFFFFEB 		bl	__aeabi_fdiv
 3739 04b8 0010A0E1 		mov	r1, r0
 3740 04bc 0900A0E1 		mov	r0, r9
 3741 04c0 FEFFFFEB 		bl	__aeabi_fmul
 3742 04c4 0410A0E1 		mov	r1, r4
 3743 04c8 FEFFFFEB 		bl	__aeabi_fadd
 3744 04cc 04309DE5 		ldr	r3, [sp, #4]
 3745 04d0 0040A0E1 		mov	r4, r0
 3746 04d4 0410A0E1 		mov	r1, r4
 3747 04d8 0300A0E1 		mov	r0, r3
 3748 04dc FEFFFFEB 		bl	__aeabi_fcmpgt
 3749 04e0 04309DE5 		ldr	r3, [sp, #4]
 3750 04e4 000050E3 		cmp	r0, #0
 3751 04e8 14809DE5 		ldr	r8, [sp, #20]
 3752 04ec 00C09DE5 		ldr	ip, [sp, #0]
 3753 04f0 04308A15 		strne	r3, [sl, #4]	@ float
 3754 04f4 04408615 		strne	r4, [r6, #4]	@ float
 3755 04f8 04408A05 		streq	r4, [sl, #4]	@ float
 3756 04fc 04308605 		streq	r3, [r6, #4]	@ float
 3757 0500 04A08AE2 		add	sl, sl, #4
 3758 0504 046086E2 		add	r6, r6, #4
 3759              	.L419:
 3760 0508 0B0058E1 		cmp	r8, fp
 3761 050c 70939FE5 		ldr	r9, .L488+56
 3762 0510 B9FFFFBA 		blt	.L423
 3763 0514 0C209DE5 		ldr	r2, [sp, #12]
 3764 0518 10309DE5 		ldr	r3, [sp, #16]
 3765 051c 027095E7 		ldr	r7, [r5, r2]	@ float
 3766 0520 045093E5 		ldr	r5, [r3, #4]	@ float
 3767 0524 040099E5 		ldr	r0, [r9, #4]	@ float
 3768 0528 0510A0E1 		mov	r1, r5
 3769 052c FEFFFFEB 		bl	__aeabi_fsub
 3770 0530 001099E5 		ldr	r1, [r9, #0]	@ float
 3771 0534 0080A0E1 		mov	r8, r0
 3772 0538 0700A0E1 		mov	r0, r7
 3773 053c FEFFFFEB 		bl	__aeabi_fsub
 3774 0540 0010A0E1 		mov	r1, r0
 3775 0544 0800A0E1 		mov	r0, r8
 3776 0548 FEFFFFEB 		bl	__aeabi_fdiv
 3777 054c 0010A0E1 		mov	r1, r0
 3778 0550 0700A0E1 		mov	r0, r7
 3779 0554 FEFFFFEB 		bl	__aeabi_fmul
 3780 0558 0510A0E1 		mov	r1, r5
 3781 055c FEFFFFEB 		bl	__aeabi_fadd
 3782 0560 1C409DE5 		ldr	r4, [sp, #28]
 3783 0564 0C30A0E3 		mov	r3, #12
 3784 0568 024044E2 		sub	r4, r4, #2
 3785 056c 930404E0 		mul	r4, r3, r4
 3786 0570 043089E0 		add	r3, r9, r4
 3787 0574 0080A0E1 		mov	r8, r0
 3788 0578 0510A0E1 		mov	r1, r5
 3789 057c 040093E5 		ldr	r0, [r3, #4]	@ float
 3790 0580 FEFFFFEB 		bl	__aeabi_fsub
 3791 0584 041099E7 		ldr	r1, [r9, r4]	@ float
 3792 0588 00A0A0E1 		mov	sl, r0
 3793 058c 0700A0E1 		mov	r0, r7
 3794 0590 FEFFFFEB 		bl	__aeabi_fsub
 3795 0594 0010A0E1 		mov	r1, r0
 3796 0598 0A00A0E1 		mov	r0, sl
 3797 059c FEFFFFEB 		bl	__aeabi_fdiv
 3798 05a0 0010A0E1 		mov	r1, r0
 3799 05a4 0700A0E1 		mov	r0, r7
 3800 05a8 FEFFFFEB 		bl	__aeabi_fmul
 3801 05ac 0510A0E1 		mov	r1, r5
 3802 05b0 FEFFFFEB 		bl	__aeabi_fadd
 3803 05b4 0040A0E1 		mov	r4, r0
 3804 05b8 0410A0E1 		mov	r1, r4
 3805 05bc 0800A0E1 		mov	r0, r8
 3806 05c0 FEFFFFEB 		bl	__aeabi_fcmpgt
 3807 05c4 C0329FE5 		ldr	r3, .L488+64
 3808 05c8 000050E3 		cmp	r0, #0
 3809 05cc 0B418317 		strne	r4, [r3, fp, asl #2]	@ float
 3810 05d0 0B818307 		streq	r8, [r3, fp, asl #2]	@ float
 3811 05d4 A0329FE5 		ldr	r3, .L488+48
 3812 05d8 B0229FE5 		ldr	r2, .L488+68
 3813 05dc 046093E5 		ldr	r6, [r3, #4]	@ float
 3814 05e0 98329FE5 		ldr	r3, .L488+52
 3815 05e4 0B418207 		streq	r4, [r2, fp, asl #2]	@ float
 3816 05e8 0B818217 		strne	r8, [r2, fp, asl #2]	@ float
 3817 05ec 000093E5 		ldr	r0, [r3, #0]	@ float
 3818 05f0 3F14A0E3 		mov	r1, #1056964608
 3819 05f4 FEFFFFEB 		bl	__aeabi_fmul
 3820 05f8 0010A0E1 		mov	r1, r0
 3821 05fc 0600A0E1 		mov	r0, r6
 3822 0600 FEFFFFEB 		bl	__aeabi_fcmpge
 3823 0604 000050E3 		cmp	r0, #0
 3824 0608 18109D15 		ldrne	r1, [sp, #24]
 3825 060c 80329FE5 		ldr	r3, .L488+72
 3826 0610 18209D05 		ldreq	r2, [sp, #24]	@ float
 3827 0614 02218112 		addne	r2, r1, #-2147483648
 3828 0618 002083E5 		str	r2, [r3, #0]	@ float
 3829 061c 004093E5 		ldr	r4, [r3, #0]	@ float
 3830 0620 0010A0E3 		mov	r1, #0
 3831 0624 0400A0E1 		mov	r0, r4
 3832 0628 FEFFFFEB 		bl	__aeabi_fcmpge
 3833 062c 24329FE5 		ldr	r3, .L488+12
 3834 0630 000050E3 		cmp	r0, #0
 3835 0634 5C529FE5 		ldr	r5, .L488+76
 3836 0638 000093E5 		ldr	r0, [r3, #0]	@ float
 3837 063c 0600000A 		beq	.L482
 3838 0640 FEFFFFEB 		bl	__aeabi_f2d
 3839 0644 50229FE5 		ldr	r2, .L488+80
 3840 0648 50329FE5 		ldr	r3, .L488+84
 3841 064c FEFFFFEB 		bl	__aeabi_dmul
 3842 0650 FEFFFFEB 		bl	__aeabi_d2f
 3843 0654 020180E2 		add	r0, r0, #-2147483648
 3844 0658 090000EA 		b	.L485
 3845              	.L482:
 3846 065c FEFFFFEB 		bl	__aeabi_f2d
 3847 0660 34229FE5 		ldr	r2, .L488+80
 3848 0664 34329FE5 		ldr	r3, .L488+84
 3849 0668 FEFFFFEB 		bl	__aeabi_dmul
 3850 066c 0020A0E1 		mov	r2, r0
 3851 0670 0130A0E1 		mov	r3, r1
 3852 0674 0000A0E3 		mov	r0, #0
 3853 0678 24129FE5 		ldr	r1, .L488+88
 3854 067c FEFFFFEB 		bl	__aeabi_dsub
 3855 0680 FEFFFFEB 		bl	__aeabi_d2f
 3856              	.L485:
 3857 0684 000085E5 		str	r0, [r5, #0]	@ float
 3858 0688 3F14A0E3 		mov	r1, #1056964608
 3859 068c 0400A0E1 		mov	r0, r4
 3860 0690 FEFFFFEB 		bl	__aeabi_fmul
 3861 0694 0090A0E1 		mov	r9, r0
 3862 0698 0910A0E1 		mov	r1, r9
 3863 069c 0600A0E1 		mov	r0, r6
 3864 06a0 FEFFFFEB 		bl	__aeabi_fadd
 3865 06a4 BC319FE5 		ldr	r3, .L488+28
 3866 06a8 0030D3E5 		ldrb	r3, [r3, #0]	@ zero_extendqisi2
 3867 06ac 0080A0E3 		mov	r8, #0
 3868 06b0 0070A0E3 		mov	r7, #0
 3869 06b4 0050A0E1 		mov	r5, r0
 3870 06b8 0C308DE5 		str	r3, [sp, #12]
 3871 06bc 0760A0E1 		mov	r6, r7
 3872 06c0 08A0A0E1 		mov	sl, r8
 3873 06c4 B8B19FE5 		ldr	fp, .L488+56
 3874 06c8 170000EA 		b	.L433
 3875              	.L437:
 3876 06cc B8319FE5 		ldr	r3, .L488+64
 3877 06d0 0510A0E1 		mov	r1, r5
 3878 06d4 030098E7 		ldr	r0, [r8, r3]	@ float
 3879 06d8 FEFFFFEB 		bl	__aeabi_fcmple
 3880 06dc 000050E3 		cmp	r0, #0
 3881 06e0 0F00000A 		beq	.L434
 3882 06e4 A4119FE5 		ldr	r1, .L488+68
 3883 06e8 010098E7 		ldr	r0, [r8, r1]	@ float
 3884 06ec 0510A0E1 		mov	r1, r5
 3885 06f0 FEFFFFEB 		bl	__aeabi_fcmpgt
 3886 06f4 000050E3 		cmp	r0, #0
 3887 06f8 0900000A 		beq	.L434
 3888 06fc 0C20A0E3 		mov	r2, #12
 3889 0700 920A07E0 		mul	r7, r2, sl
 3890 0704 07308BE0 		add	r3, fp, r7
 3891 0708 041093E5 		ldr	r1, [r3, #4]	@ float
 3892 070c 0500A0E1 		mov	r0, r5
 3893 0710 FEFFFFEB 		bl	__aeabi_fsub
 3894 0714 07109BE7 		ldr	r1, [fp, r7]	@ float
 3895 0718 FEFFFFEB 		bl	__aeabi_fdiv
 3896 071c 0670A0E1 		mov	r7, r6
 3897 0720 0060A0E1 		mov	r6, r0
 3898              	.L434:
 3899 0724 01A08AE2 		add	sl, sl, #1
 3900 0728 048088E2 		add	r8, r8, #4
 3901              	.L433:
 3902 072c 0C309DE5 		ldr	r3, [sp, #12]
 3903 0730 03005AE1 		cmp	sl, r3
 3904 0734 E4FFFFBA 		blt	.L437
 3905 0738 3C319FE5 		ldr	r3, .L488+48
 3906 073c 008093E5 		ldr	r8, [r3, #0]	@ float
 3907 0740 0710A0E1 		mov	r1, r7
 3908 0744 0800A0E1 		mov	r0, r8
 3909 0748 FEFFFFEB 		bl	__aeabi_fsub
 3910 074c 0610A0E1 		mov	r1, r6
 3911 0750 02A1C0E3 		bic	sl, r0, #-2147483648
 3912 0754 0800A0E1 		mov	r0, r8
 3913 0758 FEFFFFEB 		bl	__aeabi_fsub
 3914 075c 0211C0E3 		bic	r1, r0, #-2147483648
 3915 0760 0A00A0E1 		mov	r0, sl
 3916 0764 FEFFFFEB 		bl	__aeabi_fcmple
 3917 0768 38219FE5 		ldr	r2, .L488+92
 3918 076c 38319FE5 		ldr	r3, .L488+96
 3919 0770 000050E3 		cmp	r0, #0
 3920 0774 00608215 		strne	r6, [r2, #0]	@ float
 3921 0778 04508215 		strne	r5, [r2, #4]	@ float
 3922 077c 00708315 		strne	r7, [r3, #0]	@ float
 3923 0780 00708205 		streq	r7, [r2, #0]	@ float
 3924 0784 04508205 		streq	r5, [r2, #4]	@ float
 3925 0788 00608305 		streq	r6, [r3, #0]	@ float
 3926 078c 045083E5 		str	r5, [r3, #4]	@ float
 3927 0790 0500A0E1 		mov	r0, r5
 3928 0794 0010A0E3 		mov	r1, #0
 3929 0798 FEFFFFEB 		bl	__aeabi_fcmpgt
 3930 079c 000050E3 		cmp	r0, #0
 3931 07a0 0600000A 		beq	.L441
 3932 07a4 FC309FE5 		ldr	r3, .L488+92
 3933 07a8 000093E5 		ldr	r0, [r3, #0]	@ float
 3934 07ac F8309FE5 		ldr	r3, .L488+96
 3935 07b0 001093E5 		ldr	r1, [r3, #0]	@ float
 3936 07b4 FEFFFFEB 		bl	__aeabi_fcmpgt
 3937 07b8 000050E3 		cmp	r0, #0
 3938 07bc 0B00001A 		bne	.L487
 3939              	.L441:
 3940 07c0 0500A0E1 		mov	r0, r5
 3941 07c4 0010A0E3 		mov	r1, #0
 3942 07c8 FEFFFFEB 		bl	__aeabi_fcmplt
 3943 07cc 000050E3 		cmp	r0, #0
 3944 07d0 0900000A 		beq	.L445
 3945 07d4 CC309FE5 		ldr	r3, .L488+92
 3946 07d8 000093E5 		ldr	r0, [r3, #0]	@ float
 3947 07dc C8309FE5 		ldr	r3, .L488+96
 3948 07e0 001093E5 		ldr	r1, [r3, #0]	@ float
 3949 07e4 FEFFFFEB 		bl	__aeabi_fcmplt
 3950 07e8 000050E3 		cmp	r0, #0
 3951 07ec 0200000A 		beq	.L445
 3952              	.L487:
 3953 07f0 B8309FE5 		ldr	r3, .L488+100
 3954 07f4 009083E5 		str	r9, [r3, #0]	@ float
 3955 07f8 040000EA 		b	.L444
 3956              	.L445:
 3957 07fc 020184E2 		add	r0, r4, #-2147483648
 3958 0800 3F14A0E3 		mov	r1, #1056964608
 3959 0804 FEFFFFEB 		bl	__aeabi_fmul
 3960 0808 A0309FE5 		ldr	r3, .L488+100
 3961 080c 000083E5 		str	r0, [r3, #0]	@ float
 3962              	.L444:
 3963 0810 94209FE5 		ldr	r2, .L488+96
 3964 0814 98309FE5 		ldr	r3, .L488+104
 3965 0818 002092E5 		ldr	r2, [r2, #0]	@ float
 3966 081c 002083E5 		str	r2, [r3, #0]	@ float
 3967 0820 54209FE5 		ldr	r2, .L488+48
 3968 0824 042092E5 		ldr	r2, [r2, #4]	@ float
 3969 0828 042083E5 		str	r2, [r3, #4]	@ float
 3970 082c 38309FE5 		ldr	r3, .L488+32
 3971 0830 0120A0E3 		mov	r2, #1
 3972 0834 0020C3E5 		strb	r2, [r3, #0]
 3973 0838 0080A0E3 		mov	r8, #0
 3974              	.L392:
 3975 083c 0800A0E1 		mov	r0, r8
 3976 0840 74D08DE2 		add	sp, sp, #116
 3977 0844 F04FBDE8 		ldmfd	sp!, {r4, r5, r6, r7, r8, r9, sl, fp, lr}
 3978 0848 1EFF2FE1 		bx	lr
 3979              	.L489:
 3980              		.align	2
 3981              	.L488:
 3982 084c 00000000 		.word	.LANCHOR44
 3983 0850 46DF913F 		.word	1066524486
 3984 0854 399D52A2 		.word	-1571644103
 3985 0858 00000000 		.word	.LANCHOR45
 3986 085c 00000000 		.word	PolySurveySweepNum
 3987 0860 00000000 		.word	PolySurveySweepBackNum
 3988 0864 00000000 		.word	.LANCHOR46
 3989 0868 00000000 		.word	.LANCHOR47
 3990 086c 00000000 		.word	.LANCHOR48
 3991 0870 0000B4C2 		.word	-1028390912
 3992 0874 0000B442 		.word	1119092736
 3993 0878 00000000 		.word	waypoints
 3994 087c 00000000 		.word	.LANCHOR49
 3995 0880 00000000 		.word	.LANCHOR50
 3996 0884 00000000 		.word	.LANCHOR51
 3997 0888 286B6E4E 		.word	1315859240
 3998 088c 00000000 		.word	.LANCHOR53
 3999 0890 00000000 		.word	.LANCHOR52
 4000 0894 00000000 		.word	.LANCHOR54
 4001 0898 00000000 		.word	.LANCHOR55
 4002 089c F8C1631A 		.word	442745336
 4003 08a0 DCA54C40 		.word	1078765020
 4004 08a4 00806640 		.word	1080459264
 4005 08a8 00000000 		.word	.LANCHOR56
 4006 08ac 00000000 		.word	.LANCHOR57
 4007 08b0 00000000 		.word	.LANCHOR58
 4008 08b4 00000000 		.word	.LANCHOR59
 4010              		.section	.text.RotateAndTranslateToWorld,"ax",%progbits
 4011              		.align	2
 4012              		.global	RotateAndTranslateToWorld
 4014              	RotateAndTranslateToWorld:
 4015              		@ Function supports interworking.
 4016              		@ args = 0, pretend = 0, frame = 24
 4017              		@ frame_needed = 0, uses_anonymous_args = 0
 4018 0000 F04F2DE9 		stmfd	sp!, {r4, r5, r6, r7, r8, r9, sl, fp, lr}
 4019 0004 0040A0E1 		mov	r4, r0
 4020 0008 1CD04DE2 		sub	sp, sp, #28
 4021 000c 000090E5 		ldr	r0, [r0, #0]	@ float
 4022 0010 0260A0E1 		mov	r6, r2
 4023 0014 0370A0E1 		mov	r7, r3
 4024 0018 0150A0E1 		mov	r5, r1
 4025 001c FEFFFFEB 		bl	__aeabi_f2d
 4026 0020 00A0A0E1 		mov	sl, r0
 4027 0024 0500A0E1 		mov	r0, r5
 4028 0028 01B0A0E1 		mov	fp, r1
 4029 002c FEFFFFEB 		bl	__aeabi_f2d
 4030 0030 0080A0E1 		mov	r8, r0
 4031 0034 0190A0E1 		mov	r9, r1
 4032 0038 FEFFFFEB 		bl	cos
 4033 003c 03008DE8 		stmia	sp, {r0-r1}
 4034 0040 040094E5 		ldr	r0, [r4, #4]	@ float
 4035 0044 FEFFFFEB 		bl	__aeabi_f2d
 4036 0048 08008DE5 		str	r0, [sp, #8]
 4037 004c 0C108DE5 		str	r1, [sp, #12]
 4038 0050 0800A0E1 		mov	r0, r8
 4039 0054 0910A0E1 		mov	r1, r9
 4040 0058 FEFFFFEB 		bl	sin
 4041 005c 0C009DE8 		ldmia	sp, {r2-r3}
 4042 0060 0080A0E1 		mov	r8, r0
 4043 0064 0190A0E1 		mov	r9, r1
 4044 0068 0A00A0E1 		mov	r0, sl
 4045 006c 0B10A0E1 		mov	r1, fp
 4046 0070 FEFFFFEB 		bl	__aeabi_dmul
 4047 0074 0820A0E1 		mov	r2, r8
 4048 0078 0930A0E1 		mov	r3, r9
 4049 007c 10008DE5 		str	r0, [sp, #16]
 4050 0080 14108DE5 		str	r1, [sp, #20]
 4051 0084 08108DE2 		add	r1, sp, #8
 4052 0088 030091E8 		ldmia	r1, {r0-r1}
 4053 008c FEFFFFEB 		bl	__aeabi_dmul
 4054 0090 0020A0E1 		mov	r2, r0
 4055 0094 0130A0E1 		mov	r3, r1
 4056 0098 10108DE2 		add	r1, sp, #16
 4057 009c 030091E8 		ldmia	r1, {r0-r1}
 4058 00a0 FEFFFFEB 		bl	__aeabi_dsub
 4059 00a4 FEFFFFEB 		bl	__aeabi_d2f
 4060 00a8 0610A0E1 		mov	r1, r6
 4061 00ac FEFFFFEB 		bl	__aeabi_fadd
 4062 00b0 0820A0E1 		mov	r2, r8
 4063 00b4 0930A0E1 		mov	r3, r9
 4064 00b8 000084E5 		str	r0, [r4, #0]	@ float
 4065 00bc 0B10A0E1 		mov	r1, fp
 4066 00c0 0A00A0E1 		mov	r0, sl
 4067 00c4 FEFFFFEB 		bl	__aeabi_dmul
 4068 00c8 0C009DE8 		ldmia	sp, {r2-r3}
 4069 00cc 0080A0E1 		mov	r8, r0
 4070 00d0 0190A0E1 		mov	r9, r1
 4071 00d4 08108DE2 		add	r1, sp, #8
 4072 00d8 030091E8 		ldmia	r1, {r0-r1}
 4073 00dc FEFFFFEB 		bl	__aeabi_dmul
 4074 00e0 0020A0E1 		mov	r2, r0
 4075 00e4 0130A0E1 		mov	r3, r1
 4076 00e8 0800A0E1 		mov	r0, r8
 4077 00ec 0910A0E1 		mov	r1, r9
 4078 00f0 FEFFFFEB 		bl	__aeabi_dadd
 4079 00f4 FEFFFFEB 		bl	__aeabi_d2f
 4080 00f8 0710A0E1 		mov	r1, r7
 4081 00fc FEFFFFEB 		bl	__aeabi_fadd
 4082 0100 040084E5 		str	r0, [r4, #4]	@ float
 4083 0104 1CD08DE2 		add	sp, sp, #28
 4084 0108 F04FBDE8 		ldmfd	sp!, {r4, r5, r6, r7, r8, r9, sl, fp, lr}
 4085 010c 1EFF2FE1 		bx	lr
 4087              		.section	.text.PolygonSurvey,"ax",%progbits
 4088              		.align	2
 4089              		.global	PolygonSurvey
 4091              	PolygonSurvey:
 4092              		@ Function supports interworking.
 4093              		@ args = 0, pretend = 0, frame = 32
 4094              		@ frame_needed = 0, uses_anonymous_args = 0
 4095 0000 EC389FE5 		ldr	r3, .L627
 4096 0004 F04F2DE9 		stmfd	sp!, {r4, r5, r6, r7, r8, r9, sl, fp, lr}
 4097 0008 0080A0E3 		mov	r8, #0
 4098 000c 0080C3E5 		strb	r8, [r3, #0]
 4099 0010 E0389FE5 		ldr	r3, .L627+4
 4100 0014 0070A0E3 		mov	r7, #0
 4101 0018 007083E5 		str	r7, [r3, #0]	@ float
 4102 001c D8389FE5 		ldr	r3, .L627+8
 4103 0020 0320A0E3 		mov	r2, #3
 4104 0024 0020C3E5 		strb	r2, [r3, #0]
 4105 0028 D0389FE5 		ldr	r3, .L627+12
 4106 002c D0289FE5 		ldr	r2, .L627+16
 4107 0030 0030D3E5 		ldrb	r3, [r3, #0]	@ zero_extendqisi2
 4108 0034 0C10A0E3 		mov	r1, #12
 4109 0038 912323E0 		mla	r3, r1, r3, r2
 4110 003c 082093E5 		ldr	r2, [r3, #8]	@ float
 4111 0040 C0389FE5 		ldr	r3, .L627+20
 4112 0044 002083E5 		str	r2, [r3, #0]	@ float
 4113 0048 BC389FE5 		ldr	r3, .L627+24
 4114 004c 007083E5 		str	r7, [r3, #0]	@ float
 4115 0050 B8389FE5 		ldr	r3, .L627+28
 4116 0054 0030D3E5 		ldrb	r3, [r3, #0]	@ zero_extendqisi2
 4117 0058 020053E3 		cmp	r3, #2
 4118 005c 2CD04DE2 		sub	sp, sp, #44
 4119 0060 8600000A 		beq	.L494
 4120 0064 030053E3 		cmp	r3, #3
 4121 0068 A501000A 		beq	.L495
 4122 006c 010053E3 		cmp	r3, #1
 4123 0070 0800A011 		movne	r0, r8
 4124 0074 1B02001A 		bne	.L492
 4125 0078 94389FE5 		ldr	r3, .L627+32
 4126 007c 002093E5 		ldr	r2, [r3, #0]	@ float
 4127 0080 043093E5 		ldr	r3, [r3, #4]	@ float
 4128 0084 14308DE5 		str	r3, [sp, #20]	@ float
 4129 0088 88389FE5 		ldr	r3, .L627+36
 4130 008c 10208DE5 		str	r2, [sp, #16]	@ float
 4131 0090 10008DE2 		add	r0, sp, #16
 4132 0094 0710A0E1 		mov	r1, r7
 4133 0098 002093E5 		ldr	r2, [r3, #0]	@ float
 4134 009c 043093E5 		ldr	r3, [r3, #4]	@ float
 4135 00a0 FEFFFFEB 		bl	RotateAndTranslateToWorld
 4136 00a4 70389FE5 		ldr	r3, .L627+40
 4137 00a8 10008DE2 		add	r0, sp, #16
 4138 00ac 001093E5 		ldr	r1, [r3, #0]	@ float
 4139 00b0 0720A0E1 		mov	r2, r7
 4140 00b4 0730A0E1 		mov	r3, r7
 4141 00b8 FEFFFFEB 		bl	RotateAndTranslateToWorld
 4142 00bc 5C389FE5 		ldr	r3, .L627+44
 4143 00c0 10009DE5 		ldr	r0, [sp, #16]	@ float
 4144 00c4 002093E5 		ldr	r2, [r3, #0]	@ float
 4145 00c8 14109DE5 		ldr	r1, [sp, #20]	@ float
 4146 00cc FEFFFFEB 		bl	nav_circle_XY
 4147 00d0 4C389FE5 		ldr	r3, .L627+48
 4148 00d4 004093E5 		ldr	r4, [r3, #0]	@ float
 4149 00d8 48389FE5 		ldr	r3, .L627+52
 4150 00dc 000093E5 		ldr	r0, [r3, #0]	@ float
 4151 00e0 FEFFFFEB 		bl	__aeabi_f2d
 4152 00e4 0020A0E1 		mov	r2, r0
 4153 00e8 0130A0E1 		mov	r3, r1
 4154 00ec 38089FE5 		ldr	r0, .L627+56
 4155 00f0 38189FE5 		ldr	r1, .L627+60
 4156 00f4 FEFFFFEB 		bl	__aeabi_dsub
 4157 00f8 34289FE5 		ldr	r2, .L627+64
 4158 00fc 34389FE5 		ldr	r3, .L627+68
 4159 0100 FEFFFFEB 		bl	__aeabi_dmul
 4160 0104 FEFFFFEB 		bl	__aeabi_d2f
 4161 0108 020000EA 		b	.L617
 4162              	.L499:
 4163 010c 0500A0E1 		mov	r0, r5
 4164 0110 24189FE5 		ldr	r1, .L627+72
 4165 0114 FEFFFFEB 		bl	__aeabi_fadd
 4166              	.L617:
 4167 0118 0010A0E3 		mov	r1, #0
 4168 011c 0050A0E1 		mov	r5, r0
 4169 0120 FEFFFFEB 		bl	__aeabi_fcmplt
 4170 0124 000050E3 		cmp	r0, #0
 4171 0128 FF6008E2 		and	r6, r8, #255
 4172 012c 0800000A 		beq	.L599
 4173 0130 018088E2 		add	r8, r8, #1
 4174 0134 010C58E3 		cmp	r8, #256
 4175 0138 F3FFFF1A 		bne	.L499
 4176 013c 0060A0E3 		mov	r6, #0
 4177 0140 030000EA 		b	.L599
 4178              	.L503:
 4179 0144 0500A0E1 		mov	r0, r5
 4180 0148 EC179FE5 		ldr	r1, .L627+72
 4181 014c FEFFFFEB 		bl	__aeabi_fsub
 4182 0150 0050A0E1 		mov	r5, r0
 4183              	.L599:
 4184 0154 0500A0E1 		mov	r0, r5
 4185 0158 DC179FE5 		ldr	r1, .L627+72
 4186 015c FEFFFFEB 		bl	__aeabi_fcmpge
 4187 0160 000050E3 		cmp	r0, #0
 4188 0164 0200000A 		beq	.L501
 4189 0168 016086E2 		add	r6, r6, #1
 4190 016c FF6016E2 		ands	r6, r6, #255
 4191 0170 F3FFFF1A 		bne	.L503
 4192              	.L501:
 4193 0174 0400A0E1 		mov	r0, r4
 4194 0178 0510A0E1 		mov	r1, r5
 4195 017c FEFFFFEB 		bl	__aeabi_fsub
 4196 0180 0050A0E3 		mov	r5, #0
 4197 0184 0040A0E1 		mov	r4, r0
 4198 0188 030000EA 		b	.L504
 4199              	.L507:
 4200 018c 0400A0E1 		mov	r0, r4
 4201 0190 A4179FE5 		ldr	r1, .L627+72
 4202 0194 FEFFFFEB 		bl	__aeabi_fadd
 4203 0198 0040A0E1 		mov	r4, r0
 4204              	.L504:
 4205 019c 0400A0E1 		mov	r0, r4
 4206 01a0 0010A0E3 		mov	r1, #0
 4207 01a4 FEFFFFEB 		bl	__aeabi_fcmplt
 4208 01a8 000050E3 		cmp	r0, #0
 4209 01ac FF6005E2 		and	r6, r5, #255
 4210 01b0 0700000A 		beq	.L600
 4211 01b4 015085E2 		add	r5, r5, #1
 4212 01b8 010C55E3 		cmp	r5, #256
 4213 01bc F2FFFF1A 		bne	.L507
 4214 01c0 0060A0E3 		mov	r6, #0
 4215 01c4 020000EA 		b	.L600
 4216              	.L511:
 4217 01c8 6C179FE5 		ldr	r1, .L627+72
 4218 01cc FEFFFFEB 		bl	__aeabi_fsub
 4219 01d0 0040A0E1 		mov	r4, r0
 4220              	.L600:
 4221 01d4 0400A0E1 		mov	r0, r4
 4222 01d8 5C179FE5 		ldr	r1, .L627+72
 4223 01dc FEFFFFEB 		bl	__aeabi_fcmpge
 4224 01e0 000050E3 		cmp	r0, #0
 4225 01e4 0400A0E1 		mov	r0, r4
 4226 01e8 0200000A 		beq	.L509
 4227 01ec 016086E2 		add	r6, r6, #1
 4228 01f0 FF6016E2 		ands	r6, r6, #255
 4229 01f4 F3FFFF1A 		bne	.L511
 4230              	.L509:
 4231 01f8 40179FE5 		ldr	r1, .L627+76
 4232 01fc FEFFFFEB 		bl	__aeabi_fcmpgt
 4233 0200 000050E3 		cmp	r0, #0
 4234 0204 0400001A 		bne	.L512
 4235 0208 0400A0E1 		mov	r0, r4
 4236 020c 30179FE5 		ldr	r1, .L627+80
 4237 0210 FEFFFFEB 		bl	__aeabi_fcmplt
 4238 0214 000050E3 		cmp	r0, #0
 4239 0218 B101000A 		beq	.L612
 4240              	.L512:
 4241 021c 24379FE5 		ldr	r3, .L627+84
 4242 0220 000093E5 		ldr	r0, [r3, #0]
 4243 0224 0201C0E3 		bic	r0, r0, #-2147483648
 4244 0228 FEFFFFEB 		bl	__aeabi_f2d
 4245 022c F8269FE5 		ldr	r2, .L627+56
 4246 0230 14379FE5 		ldr	r3, .L627+88
 4247 0234 FEFFFFEB 		bl	__aeabi_ddiv
 4248 0238 10279FE5 		ldr	r2, .L627+92
 4249 023c 10379FE5 		ldr	r3, .L627+96
 4250 0240 FEFFFFEB 		bl	__aeabi_dcmpgt
 4251 0244 000050E3 		cmp	r0, #0
 4252 0248 A501000A 		beq	.L612
 4253 024c AC369FE5 		ldr	r3, .L627+12
 4254 0250 AC269FE5 		ldr	r2, .L627+16
 4255 0254 0030D3E5 		ldrb	r3, [r3, #0]	@ zero_extendqisi2
 4256 0258 0C10A0E3 		mov	r1, #12
 4257 025c 912323E0 		mla	r3, r1, r3, r2
 4258 0260 DC169FE5 		ldr	r1, .L627+80
 4259 0264 080093E5 		ldr	r0, [r3, #8]	@ float
 4260 0268 FEFFFFEB 		bl	__aeabi_fsub
 4261 026c E4369FE5 		ldr	r3, .L627+100
 4262 0270 0010A0E1 		mov	r1, r0
 4263 0274 000093E5 		ldr	r0, [r3, #0]	@ float
 4264 0278 FEFFFFEB 		bl	__aeabi_fcmpgt
 4265 027c 930100EA 		b	.L626
 4266              	.L494:
 4267 0280 D4469FE5 		ldr	r4, .L627+104
 4268 0284 003094E5 		ldr	r3, [r4, #0]	@ float
 4269 0288 18308DE5 		str	r3, [sp, #24]	@ float
 4270 028c 043094E5 		ldr	r3, [r4, #4]	@ float
 4271 0290 1C308DE5 		str	r3, [sp, #28]	@ float
 4272 0294 C4369FE5 		ldr	r3, .L627+108
 4273 0298 002093E5 		ldr	r2, [r3, #0]	@ float
 4274 029c 043093E5 		ldr	r3, [r3, #4]	@ float
 4275 02a0 24308DE5 		str	r3, [sp, #36]	@ float
 4276 02a4 6C369FE5 		ldr	r3, .L627+36
 4277 02a8 005093E5 		ldr	r5, [r3, #0]	@ float
 4278 02ac 046093E5 		ldr	r6, [r3, #4]	@ float
 4279 02b0 20208DE5 		str	r2, [sp, #32]	@ float
 4280 02b4 18008DE2 		add	r0, sp, #24
 4281 02b8 0710A0E1 		mov	r1, r7
 4282 02bc 0520A0E1 		mov	r2, r5
 4283 02c0 0630A0E1 		mov	r3, r6
 4284 02c4 FEFFFFEB 		bl	RotateAndTranslateToWorld
 4285 02c8 4C369FE5 		ldr	r3, .L627+40
 4286 02cc 00A093E5 		ldr	sl, [r3, #0]	@ float
 4287 02d0 18008DE2 		add	r0, sp, #24
 4288 02d4 0A10A0E1 		mov	r1, sl
 4289 02d8 0720A0E1 		mov	r2, r7
 4290 02dc 0730A0E1 		mov	r3, r7
 4291 02e0 FEFFFFEB 		bl	RotateAndTranslateToWorld
 4292 02e4 20008DE2 		add	r0, sp, #32
 4293 02e8 0710A0E1 		mov	r1, r7
 4294 02ec 0520A0E1 		mov	r2, r5
 4295 02f0 0630A0E1 		mov	r3, r6
 4296 02f4 FEFFFFEB 		bl	RotateAndTranslateToWorld
 4297 02f8 20008DE2 		add	r0, sp, #32
 4298 02fc 0A10A0E1 		mov	r1, sl
 4299 0300 0720A0E1 		mov	r2, r7
 4300 0304 0730A0E1 		mov	r3, r7
 4301 0308 FEFFFFEB 		bl	RotateAndTranslateToWorld
 4302 030c 20009DE5 		ldr	r0, [sp, #32]	@ float
 4303 0310 24109DE5 		ldr	r1, [sp, #36]	@ float
 4304 0314 18209DE5 		ldr	r2, [sp, #24]	@ float
 4305 0318 1C309DE5 		ldr	r3, [sp, #28]	@ float
 4306 031c FEFFFFEB 		bl	nav_route_xy
 4307 0320 18009DE5 		ldr	r0, [sp, #24]	@ float
 4308 0324 1C109DE5 		ldr	r1, [sp, #28]	@ float
 4309 0328 20209DE5 		ldr	r2, [sp, #32]	@ float
 4310 032c 24309DE5 		ldr	r3, [sp, #36]	@ float
 4311 0330 00708DE5 		str	r7, [sp, #0]	@ float
 4312 0334 FEFFFFEB 		bl	nav_approaching_xy
 4313 0338 000050E3 		cmp	r0, #0
 4314 033c 6801000A 		beq	.L612
 4315 0340 1C969FE5 		ldr	r9, .L627+112
 4316 0344 1C369FE5 		ldr	r3, .L627+116
 4317 0348 046094E5 		ldr	r6, [r4, #4]	@ float
 4318 034c 005094E5 		ldr	r5, [r4, #0]	@ float
 4319 0350 00A099E5 		ldr	sl, [r9, #0]	@ float
 4320 0354 005083E5 		str	r5, [r3, #0]	@ float
 4321 0358 046083E5 		str	r6, [r3, #4]	@ float
 4322 035c 0A10A0E1 		mov	r1, sl
 4323 0360 0600A0E1 		mov	r0, r6
 4324 0364 FEFFFFEB 		bl	__aeabi_fadd
 4325 0368 FC359FE5 		ldr	r3, .L627+120
 4326 036c 001093E5 		ldr	r1, [r3, #0]	@ float
 4327 0370 0040A0E1 		mov	r4, r0
 4328 0374 FEFFFFEB 		bl	__aeabi_fcmpge
 4329 0378 000050E3 		cmp	r0, #0
 4330 037c 0500001A 		bne	.L516
 4331 0380 0400A0E1 		mov	r0, r4
 4332 0384 0710A0E1 		mov	r1, r7
 4333 0388 FEFFFFEB 		bl	__aeabi_fcmple
 4334 038c 000050E3 		cmp	r0, #0
 4335 0390 08808D05 		streq	r8, [sp, #8]
 4336 0394 2800000A 		beq	.L517
 4337              	.L516:
 4338 0398 02718AE2 		add	r7, sl, #-2147483648
 4339 039c 007089E5 		str	r7, [r9, #0]	@ float
 4340 03a0 0700A0E1 		mov	r0, r7
 4341 03a4 3F14A0E3 		mov	r1, #1056964608
 4342 03a8 FEFFFFEB 		bl	__aeabi_fmul
 4343 03ac 0010A0E1 		mov	r1, r0
 4344 03b0 0600A0E1 		mov	r0, r6
 4345 03b4 FEFFFFEB 		bl	__aeabi_fadd
 4346 03b8 0010A0E3 		mov	r1, #0
 4347 03bc 0040A0E1 		mov	r4, r0
 4348 03c0 0700A0E1 		mov	r0, r7
 4349 03c4 FEFFFFEB 		bl	__aeabi_fcmpge
 4350 03c8 4C359FE5 		ldr	r3, .L627+40
 4351 03cc 000050E3 		cmp	r0, #0
 4352 03d0 4C759FE5 		ldr	r7, .L627+48
 4353 03d4 000093E5 		ldr	r0, [r3, #0]	@ float
 4354 03d8 0600000A 		beq	.L605
 4355 03dc FEFFFFEB 		bl	__aeabi_f2d
 4356 03e0 4C259FE5 		ldr	r2, .L627+64
 4357 03e4 4C359FE5 		ldr	r3, .L627+68
 4358 03e8 FEFFFFEB 		bl	__aeabi_dmul
 4359 03ec FEFFFFEB 		bl	__aeabi_d2f
 4360 03f0 020180E2 		add	r0, r0, #-2147483648
 4361 03f4 090000EA 		b	.L618
 4362              	.L605:
 4363 03f8 FEFFFFEB 		bl	__aeabi_f2d
 4364 03fc 30259FE5 		ldr	r2, .L627+64
 4365 0400 30359FE5 		ldr	r3, .L627+68
 4366 0404 FEFFFFEB 		bl	__aeabi_dmul
 4367 0408 0020A0E1 		mov	r2, r0
 4368 040c 0130A0E1 		mov	r3, r1
 4369 0410 0000A0E3 		mov	r0, #0
 4370 0414 54159FE5 		ldr	r1, .L627+124
 4371 0418 FEFFFFEB 		bl	__aeabi_dsub
 4372 041c FEFFFFEB 		bl	__aeabi_d2f
 4373              	.L618:
 4374 0420 4C359FE5 		ldr	r3, .L627+128
 4375 0424 B020D3E1 		ldrh	r2, [r3, #0]
 4376 0428 012082E2 		add	r2, r2, #1
 4377 042c B020C3E1 		strh	r2, [r3, #0]	@ movhi
 4378 0430 0130A0E3 		mov	r3, #1
 4379 0434 000087E5 		str	r0, [r7, #0]	@ float
 4380 0438 08308DE5 		str	r3, [sp, #8]
 4381              	.L517:
 4382 043c 34359FE5 		ldr	r3, .L627+132
 4383 0440 0030D3E5 		ldrb	r3, [r3, #0]	@ zero_extendqisi2
 4384 0444 00A0A0E3 		mov	sl, #0
 4385 0448 0080A0E3 		mov	r8, #0
 4386 044c 0C308DE5 		str	r3, [sp, #12]
 4387 0450 0870A0E1 		mov	r7, r8
 4388 0454 0A90A0E1 		mov	r9, sl
 4389 0458 1CB59FE5 		ldr	fp, .L627+136
 4390 045c 170000EA 		b	.L522
 4391              	.L526:
 4392 0460 18359FE5 		ldr	r3, .L627+140
 4393 0464 0410A0E1 		mov	r1, r4
 4394 0468 03009AE7 		ldr	r0, [sl, r3]	@ float
 4395 046c FEFFFFEB 		bl	__aeabi_fcmplt
 4396 0470 000050E3 		cmp	r0, #0
 4397 0474 0F00000A 		beq	.L523
 4398 0478 04359FE5 		ldr	r3, .L627+144
 4399 047c 0410A0E1 		mov	r1, r4
 4400 0480 03009AE7 		ldr	r0, [sl, r3]	@ float
 4401 0484 FEFFFFEB 		bl	__aeabi_fcmpge
 4402 0488 000050E3 		cmp	r0, #0
 4403 048c 0900000A 		beq	.L523
 4404 0490 0C30A0E3 		mov	r3, #12
 4405 0494 930908E0 		mul	r8, r3, r9
 4406 0498 08308BE0 		add	r3, fp, r8
 4407 049c 041093E5 		ldr	r1, [r3, #4]	@ float
 4408 04a0 0400A0E1 		mov	r0, r4
 4409 04a4 FEFFFFEB 		bl	__aeabi_fsub
 4410 04a8 08109BE7 		ldr	r1, [fp, r8]	@ float
 4411 04ac FEFFFFEB 		bl	__aeabi_fdiv
 4412 04b0 0780A0E1 		mov	r8, r7
 4413 04b4 0070A0E1 		mov	r7, r0
 4414              	.L523:
 4415 04b8 019089E2 		add	r9, r9, #1
 4416 04bc 04A08AE2 		add	sl, sl, #4
 4417              	.L522:
 4418 04c0 0C309DE5 		ldr	r3, [sp, #12]
 4419 04c4 030059E1 		cmp	r9, r3
 4420 04c8 E4FFFFBA 		blt	.L526
 4421 04cc 0510A0E1 		mov	r1, r5
 4422 04d0 0700A0E1 		mov	r0, r7
 4423 04d4 FEFFFFEB 		bl	__aeabi_fsub
 4424 04d8 0510A0E1 		mov	r1, r5
 4425 04dc 0090A0E1 		mov	r9, r0
 4426 04e0 0800A0E1 		mov	r0, r8
 4427 04e4 FEFFFFEB 		bl	__aeabi_fsub
 4428 04e8 00A0A0E1 		mov	sl, r0
 4429 04ec 0A10A0E1 		mov	r1, sl
 4430 04f0 0900A0E1 		mov	r0, r9
 4431 04f4 FEFFFFEB 		bl	__aeabi_fmul
 4432 04f8 0010A0E3 		mov	r1, #0
 4433 04fc FEFFFFEB 		bl	__aeabi_fcmpge
 4434 0500 000050E3 		cmp	r0, #0
 4435 0504 0B00000A 		beq	.L606
 4436 0508 0201CAE3 		bic	r0, sl, #-2147483648
 4437 050c 0211C9E3 		bic	r1, r9, #-2147483648
 4438 0510 FEFFFFEB 		bl	__aeabi_fcmple
 4439 0514 40249FE5 		ldr	r2, .L627+104
 4440 0518 000050E3 		cmp	r0, #0
 4441 051c 3C349FE5 		ldr	r3, .L627+108
 4442 0520 00708215 		strne	r7, [r2, #0]	@ float
 4443 0524 04408215 		strne	r4, [r2, #4]	@ float
 4444 0528 00808205 		streq	r8, [r2, #0]	@ float
 4445 052c 04408205 		streq	r4, [r2, #4]	@ float
 4446 0530 2700000A 		beq	.L623
 4447 0534 210000EA 		b	.L622
 4448              	.L606:
 4449 0538 20949FE5 		ldr	r9, .L627+108
 4450 053c 0500A0E1 		mov	r0, r5
 4451 0540 001099E5 		ldr	r1, [r9, #0]	@ float
 4452 0544 FEFFFFEB 		bl	__aeabi_fsub
 4453 0548 0010A0E3 		mov	r1, #0
 4454 054c 00B0A0E1 		mov	fp, r0
 4455 0550 FEFFFFEB 		bl	__aeabi_fcmpgt
 4456 0554 000050E3 		cmp	r0, #0
 4457 0558 0A00000A 		beq	.L532
 4458 055c 0A00A0E1 		mov	r0, sl
 4459 0560 0010A0E3 		mov	r1, #0
 4460 0564 FEFFFFEB 		bl	__aeabi_fcmpgt
 4461 0568 000050E3 		cmp	r0, #0
 4462 056c 0500000A 		beq	.L532
 4463 0570 E4339FE5 		ldr	r3, .L627+104
 4464 0574 008089E5 		str	r8, [r9, #0]	@ float
 4465 0578 007083E5 		str	r7, [r3, #0]	@ float
 4466 057c 044083E5 		str	r4, [r3, #4]	@ float
 4467 0580 044089E5 		str	r4, [r9, #4]	@ float
 4468 0584 140000EA 		b	.L531
 4469              	.L532:
 4470 0588 0B00A0E1 		mov	r0, fp
 4471 058c 0010A0E3 		mov	r1, #0
 4472 0590 FEFFFFEB 		bl	__aeabi_fcmplt
 4473 0594 000050E3 		cmp	r0, #0
 4474 0598 BC939FE5 		ldr	r9, .L627+104
 4475 059c 0900000A 		beq	.L535
 4476 05a0 0A00A0E1 		mov	r0, sl
 4477 05a4 0010A0E3 		mov	r1, #0
 4478 05a8 FEFFFFEB 		bl	__aeabi_fcmplt
 4479 05ac 000050E3 		cmp	r0, #0
 4480 05b0 0400000A 		beq	.L535
 4481 05b4 007089E5 		str	r7, [r9, #0]	@ float
 4482 05b8 044089E5 		str	r4, [r9, #4]	@ float
 4483 05bc 9C339FE5 		ldr	r3, .L627+108
 4484              	.L622:
 4485 05c0 008083E5 		str	r8, [r3, #0]	@ float
 4486 05c4 030000EA 		b	.L619
 4487              	.L535:
 4488 05c8 008089E5 		str	r8, [r9, #0]	@ float
 4489 05cc 044089E5 		str	r4, [r9, #4]	@ float
 4490 05d0 88339FE5 		ldr	r3, .L627+108
 4491              	.L623:
 4492 05d4 007083E5 		str	r7, [r3, #0]	@ float
 4493              	.L619:
 4494 05d8 044083E5 		str	r4, [r3, #4]	@ float
 4495              	.L531:
 4496 05dc 78339FE5 		ldr	r3, .L627+104
 4497 05e0 008093E5 		ldr	r8, [r3, #0]	@ float
 4498 05e4 74339FE5 		ldr	r3, .L627+108
 4499 05e8 0810A0E1 		mov	r1, r8
 4500 05ec 0500A0E1 		mov	r0, r5
 4501 05f0 007093E5 		ldr	r7, [r3, #0]	@ float
 4502 05f4 FEFFFFEB 		bl	__aeabi_fsub
 4503 05f8 0810A0E1 		mov	r1, r8
 4504 05fc 02A1C0E3 		bic	sl, r0, #-2147483648
 4505 0600 0700A0E1 		mov	r0, r7
 4506 0604 FEFFFFEB 		bl	__aeabi_fsub
 4507 0608 0211C0E3 		bic	r1, r0, #-2147483648
 4508 060c 0A00A0E1 		mov	r0, sl
 4509 0610 FEFFFFEB 		bl	__aeabi_fcmpgt
 4510 0614 F8A29FE5 		ldr	sl, .L627+32
 4511 0618 08309DE5 		ldr	r3, [sp, #8]
 4512 061c 000050E3 		cmp	r0, #0
 4513 0620 00508A15 		strne	r5, [sl, #0]	@ float
 4514 0624 00708A05 		streq	r7, [sl, #0]	@ float
 4515 0628 000053E3 		cmp	r3, #0
 4516 062c 04608A15 		strne	r6, [sl, #4]	@ float
 4517 0630 0700001A 		bne	.L542
 4518 0634 28339FE5 		ldr	r3, .L627+112
 4519 0638 3F14A0E3 		mov	r1, #1056964608
 4520 063c 000093E5 		ldr	r0, [r3, #0]	@ float
 4521 0640 FEFFFFEB 		bl	__aeabi_fmul
 4522 0644 0010A0E1 		mov	r1, r0
 4523 0648 0600A0E1 		mov	r0, r6
 4524 064c FEFFFFEB 		bl	__aeabi_fadd
 4525 0650 04008AE5 		str	r0, [sl, #4]	@ float
 4526              	.L542:
 4527 0654 0400A0E1 		mov	r0, r4
 4528 0658 0010A0E3 		mov	r1, #0
 4529 065c FEFFFFEB 		bl	__aeabi_fcmpgt
 4530 0660 000050E3 		cmp	r0, #0
 4531 0664 0B00000A 		beq	.L543
 4532 0668 0800A0E1 		mov	r0, r8
 4533 066c 0710A0E1 		mov	r1, r7
 4534 0670 FEFFFFEB 		bl	__aeabi_fcmpgt
 4535 0674 000050E3 		cmp	r0, #0
 4536 0678 0600000A 		beq	.L543
 4537 067c E0329FE5 		ldr	r3, .L627+112
 4538 0680 3F14A0E3 		mov	r1, #1056964608
 4539 0684 000093E5 		ldr	r0, [r3, #0]	@ float
 4540 0688 FEFFFFEB 		bl	__aeabi_fmul
 4541 068c 8C329FE5 		ldr	r3, .L627+44
 4542 0690 000083E5 		str	r0, [r3, #0]	@ float
 4543 0694 110000EA 		b	.L546
 4544              	.L543:
 4545 0698 0400A0E1 		mov	r0, r4
 4546 069c 0010A0E3 		mov	r1, #0
 4547 06a0 FEFFFFEB 		bl	__aeabi_fcmplt
 4548 06a4 000050E3 		cmp	r0, #0
 4549 06a8 70429FE5 		ldr	r4, .L627+44
 4550 06ac B0529FE5 		ldr	r5, .L627+112
 4551 06b0 0500000A 		beq	.L547
 4552 06b4 0800A0E1 		mov	r0, r8
 4553 06b8 0710A0E1 		mov	r1, r7
 4554 06bc FEFFFFEB 		bl	__aeabi_fcmplt
 4555 06c0 000050E3 		cmp	r0, #0
 4556 06c4 00009515 		ldrne	r0, [r5, #0]	@ float
 4557 06c8 0100001A 		bne	.L620
 4558              	.L547:
 4559 06cc 000095E5 		ldr	r0, [r5, #0]
 4560 06d0 020180E2 		add	r0, r0, #-2147483648
 4561              	.L620:
 4562 06d4 3F14A0E3 		mov	r1, #1056964608
 4563 06d8 FEFFFFEB 		bl	__aeabi_fmul
 4564 06dc 000084E5 		str	r0, [r4, #0]	@ float
 4565              	.L546:
 4566 06e0 28329FE5 		ldr	r3, .L627+28
 4567 06e4 0320A0E3 		mov	r2, #3
 4568 06e8 0020C3E5 		strb	r2, [r3, #0]
 4569 06ec FEFFFFEB 		bl	nav_init_stage
 4570 06f0 90329FE5 		ldr	r3, .L627+148
 4571 06f4 B020D3E1 		ldrh	r2, [r3, #0]
 4572 06f8 012082E2 		add	r2, r2, #1
 4573 06fc B020C3E1 		strh	r2, [r3, #0]	@ movhi
 4574 0700 770000EA 		b	.L612
 4575              	.L495:
 4576 0704 08329FE5 		ldr	r3, .L627+32
 4577 0708 002093E5 		ldr	r2, [r3, #0]	@ float
 4578 070c 043093E5 		ldr	r3, [r3, #4]	@ float
 4579 0710 14308DE5 		str	r3, [sp, #20]	@ float
 4580 0714 FC319FE5 		ldr	r3, .L627+36
 4581 0718 10208DE5 		str	r2, [sp, #16]	@ float
 4582 071c 10008DE2 		add	r0, sp, #16
 4583 0720 0710A0E1 		mov	r1, r7
 4584 0724 002093E5 		ldr	r2, [r3, #0]	@ float
 4585 0728 043093E5 		ldr	r3, [r3, #4]	@ float
 4586 072c FEFFFFEB 		bl	RotateAndTranslateToWorld
 4587 0730 E4319FE5 		ldr	r3, .L627+40
 4588 0734 10008DE2 		add	r0, sp, #16
 4589 0738 001093E5 		ldr	r1, [r3, #0]	@ float
 4590 073c 0720A0E1 		mov	r2, r7
 4591 0740 0730A0E1 		mov	r3, r7
 4592 0744 FEFFFFEB 		bl	RotateAndTranslateToWorld
 4593 0748 D0319FE5 		ldr	r3, .L627+44
 4594 074c 10009DE5 		ldr	r0, [sp, #16]	@ float
 4595 0750 002093E5 		ldr	r2, [r3, #0]	@ float
 4596 0754 14109DE5 		ldr	r1, [sp, #20]	@ float
 4597 0758 FEFFFFEB 		bl	nav_circle_XY
 4598 075c C0319FE5 		ldr	r3, .L627+48
 4599 0760 004093E5 		ldr	r4, [r3, #0]	@ float
 4600 0764 BC319FE5 		ldr	r3, .L627+52
 4601 0768 000093E5 		ldr	r0, [r3, #0]	@ float
 4602 076c FEFFFFEB 		bl	__aeabi_f2d
 4603 0770 0020A0E1 		mov	r2, r0
 4604 0774 0130A0E1 		mov	r3, r1
 4605 0778 AC019FE5 		ldr	r0, .L627+56
 4606 077c AC119FE5 		ldr	r1, .L627+60
 4607 0780 FEFFFFEB 		bl	__aeabi_dsub
 4608 0784 A8219FE5 		ldr	r2, .L627+64
 4609 0788 A8319FE5 		ldr	r3, .L627+68
 4610 078c FEFFFFEB 		bl	__aeabi_dmul
 4611 0790 FEFFFFEB 		bl	__aeabi_d2f
 4612 0794 020000EA 		b	.L621
 4613              	.L553:
 4614 0798 0500A0E1 		mov	r0, r5
 4615 079c 98119FE5 		ldr	r1, .L627+72
 4616 07a0 FEFFFFEB 		bl	__aeabi_fadd
 4617              	.L621:
 4618 07a4 0010A0E3 		mov	r1, #0
 4619 07a8 0050A0E1 		mov	r5, r0
 4620 07ac FEFFFFEB 		bl	__aeabi_fcmplt
 4621 07b0 000050E3 		cmp	r0, #0
 4622 07b4 FF6008E2 		and	r6, r8, #255
 4623 07b8 0800000A 		beq	.L609
 4624 07bc 018088E2 		add	r8, r8, #1
 4625 07c0 010C58E3 		cmp	r8, #256
 4626 07c4 F3FFFF1A 		bne	.L553
 4627 07c8 0060A0E3 		mov	r6, #0
 4628 07cc 030000EA 		b	.L609
 4629              	.L557:
 4630 07d0 0500A0E1 		mov	r0, r5
 4631 07d4 60119FE5 		ldr	r1, .L627+72
 4632 07d8 FEFFFFEB 		bl	__aeabi_fsub
 4633 07dc 0050A0E1 		mov	r5, r0
 4634              	.L609:
 4635 07e0 0500A0E1 		mov	r0, r5
 4636 07e4 50119FE5 		ldr	r1, .L627+72
 4637 07e8 FEFFFFEB 		bl	__aeabi_fcmpge
 4638 07ec 000050E3 		cmp	r0, #0
 4639 07f0 0200000A 		beq	.L555
 4640 07f4 016086E2 		add	r6, r6, #1
 4641 07f8 FF6016E2 		ands	r6, r6, #255
 4642 07fc F3FFFF1A 		bne	.L557
 4643              	.L555:
 4644 0800 0400A0E1 		mov	r0, r4
 4645 0804 0510A0E1 		mov	r1, r5
 4646 0808 FEFFFFEB 		bl	__aeabi_fsub
 4647 080c 0050A0E3 		mov	r5, #0
 4648 0810 0040A0E1 		mov	r4, r0
 4649 0814 030000EA 		b	.L558
 4650              	.L561:
 4651 0818 0400A0E1 		mov	r0, r4
 4652 081c 18119FE5 		ldr	r1, .L627+72
 4653 0820 FEFFFFEB 		bl	__aeabi_fadd
 4654 0824 0040A0E1 		mov	r4, r0
 4655              	.L558:
 4656 0828 0400A0E1 		mov	r0, r4
 4657 082c 0010A0E3 		mov	r1, #0
 4658 0830 FEFFFFEB 		bl	__aeabi_fcmplt
 4659 0834 000050E3 		cmp	r0, #0
 4660 0838 FF6005E2 		and	r6, r5, #255
 4661 083c 0700000A 		beq	.L610
 4662 0840 015085E2 		add	r5, r5, #1
 4663 0844 010C55E3 		cmp	r5, #256
 4664 0848 F2FFFF1A 		bne	.L561
 4665 084c 0060A0E3 		mov	r6, #0
 4666 0850 020000EA 		b	.L610
 4667              	.L565:
 4668 0854 E0109FE5 		ldr	r1, .L627+72
 4669 0858 FEFFFFEB 		bl	__aeabi_fsub
 4670 085c 0040A0E1 		mov	r4, r0
 4671              	.L610:
 4672 0860 0400A0E1 		mov	r0, r4
 4673 0864 D0109FE5 		ldr	r1, .L627+72
 4674 0868 FEFFFFEB 		bl	__aeabi_fcmpge
 4675 086c 000050E3 		cmp	r0, #0
 4676 0870 0400A0E1 		mov	r0, r4
 4677 0874 0200000A 		beq	.L563
 4678 0878 016086E2 		add	r6, r6, #1
 4679 087c FF6016E2 		ands	r6, r6, #255
 4680 0880 F3FFFF1A 		bne	.L565
 4681              	.L563:
 4682 0884 B4109FE5 		ldr	r1, .L627+76
 4683 0888 FEFFFFEB 		bl	__aeabi_fcmpgt
 4684 088c 000050E3 		cmp	r0, #0
 4685 0890 0400001A 		bne	.L566
 4686 0894 0400A0E1 		mov	r0, r4
 4687 0898 A4109FE5 		ldr	r1, .L627+80
 4688 089c FEFFFFEB 		bl	__aeabi_fcmplt
 4689 08a0 000050E3 		cmp	r0, #0
 4690 08a4 0E00000A 		beq	.L612
 4691              	.L566:
 4692 08a8 98309FE5 		ldr	r3, .L627+84
 4693 08ac 000093E5 		ldr	r0, [r3, #0]
 4694 08b0 0201C0E3 		bic	r0, r0, #-2147483648
 4695 08b4 FEFFFFEB 		bl	__aeabi_f2d
 4696 08b8 6C209FE5 		ldr	r2, .L627+56
 4697 08bc 88309FE5 		ldr	r3, .L627+88
 4698 08c0 FEFFFFEB 		bl	__aeabi_ddiv
 4699 08c4 0020A0E3 		mov	r2, #0
 4700 08c8 0030A0E3 		mov	r3, #0
 4701 08cc FEFFFFEB 		bl	__aeabi_dcmpgt
 4702              	.L626:
 4703 08d0 000050E3 		cmp	r0, #0
 4704 08d4 34309F15 		ldrne	r3, .L627+28
 4705 08d8 0220A013 		movne	r2, #2
 4706 08dc 0020C315 		strneb	r2, [r3, #0]
 4707 08e0 FEFFFF1B 		blne	nav_init_stage
 4708              	.L612:
 4709 08e4 0100A0E3 		mov	r0, #1
 4710              	.L492:
 4711 08e8 2CD08DE2 		add	sp, sp, #44
 4712 08ec F04FBDE8 		ldmfd	sp!, {r4, r5, r6, r7, r8, r9, sl, fp, lr}
 4713 08f0 1EFF2FE1 		bx	lr
 4714              	.L628:
 4715              		.align	2
 4716              	.L627:
 4717 08f4 00000000 		.word	v_ctl_climb_mode
 4718 08f8 00000000 		.word	nav_pitch
 4719 08fc 00000000 		.word	v_ctl_mode
 4720 0900 00000000 		.word	.LANCHOR46
 4721 0904 00000000 		.word	waypoints
 4722 0908 00000000 		.word	nav_altitude
 4723 090c 00000000 		.word	v_ctl_altitude_pre_climb
 4724 0910 00000000 		.word	.LANCHOR48
 4725 0914 00000000 		.word	.LANCHOR59
 4726 0918 00000000 		.word	.LANCHOR44
 4727 091c 00000000 		.word	.LANCHOR45
 4728 0920 00000000 		.word	.LANCHOR58
 4729 0924 00000000 		.word	.LANCHOR55
 4730 0928 00000000 		.word	nav_circle_trigo_qdr
 4731 092c 182D4454 		.word	1413754136
 4732 0930 FB21F93F 		.word	1073291771
 4733 0934 F8C1631A 		.word	442745336
 4734 0938 DCA54C40 		.word	1078765020
 4735 093c 0000B443 		.word	1135869952
 4736 0940 0000AF43 		.word	1135542272
 4737 0944 00002041 		.word	1092616192
 4738 0948 00000000 		.word	nav_circle_radians
 4739 094c FB211940 		.word	1075388923
 4740 0950 9A999999 		.word	-1717986918
 4741 0954 9999B93F 		.word	1069128089
 4742 0958 00000000 		.word	estimator_z
 4743 095c 00000000 		.word	.LANCHOR56
 4744 0960 00000000 		.word	.LANCHOR57
 4745 0964 00000000 		.word	.LANCHOR54
 4746 0968 00000000 		.word	.LANCHOR60
 4747 096c 00000000 		.word	.LANCHOR50
 4748 0970 00806640 		.word	1080459264
 4749 0974 00000000 		.word	PolySurveySweepBackNum
 4750 0978 00000000 		.word	.LANCHOR47
 4751 097c 00000000 		.word	.LANCHOR51
 4752 0980 00000000 		.word	.LANCHOR53
 4753 0984 00000000 		.word	.LANCHOR52
 4754 0988 00000000 		.word	PolySurveySweepNum
 4756              		.section	.text.FindInterceptOfTwoLines,"ax",%progbits
 4757              		.align	2
 4758              		.global	FindInterceptOfTwoLines
 4760              	FindInterceptOfTwoLines:
 4761              		@ Function supports interworking.
 4762              		@ args = 24, pretend = 8, frame = 0
 4763              		@ frame_needed = 0, uses_anonymous_args = 0
 4764 0000 08D04DE2 		sub	sp, sp, #8
 4765 0004 F0412DE9 		stmfd	sp!, {r4, r5, r6, r7, r8, lr}
 4766 0008 0140A0E1 		mov	r4, r1
 4767 000c 14108DE2 		add	r1, sp, #20
 4768 0010 0C0081E9 		stmib	r1, {r2, r3}
 4769 0014 1C609DE5 		ldr	r6, [sp, #28]	@ float
 4770 0018 0050A0E1 		mov	r5, r0
 4771 001c 0610A0E1 		mov	r1, r6
 4772 0020 28009DE5 		ldr	r0, [sp, #40]	@ float
 4773 0024 FEFFFFEB 		bl	__aeabi_fsub
 4774 0028 18709DE5 		ldr	r7, [sp, #24]	@ float
 4775 002c 0080A0E1 		mov	r8, r0
 4776 0030 24109DE5 		ldr	r1, [sp, #36]	@ float
 4777 0034 0700A0E1 		mov	r0, r7
 4778 0038 FEFFFFEB 		bl	__aeabi_fsub
 4779 003c 0010A0E1 		mov	r1, r0
 4780 0040 0800A0E1 		mov	r0, r8
 4781 0044 FEFFFFEB 		bl	__aeabi_fdiv
 4782 0048 0010A0E1 		mov	r1, r0
 4783 004c 000085E5 		str	r0, [r5, #0]	@ float
 4784 0050 0700A0E1 		mov	r0, r7
 4785 0054 FEFFFFEB 		bl	__aeabi_fmul
 4786 0058 0610A0E1 		mov	r1, r6
 4787 005c FEFFFFEB 		bl	__aeabi_fadd
 4788 0060 000084E5 		str	r0, [r4, #0]	@ float
 4789 0064 F041BDE8 		ldmfd	sp!, {r4, r5, r6, r7, r8, lr}
 4790 0068 08D08DE2 		add	sp, sp, #8
 4791 006c 1EFF2FE1 		bx	lr
 4793              		.section	.text.EvaluateLineForY,"ax",%progbits
 4794              		.align	2
 4795              		.global	EvaluateLineForY
 4797              	EvaluateLineForY:
 4798              		@ Function supports interworking.
 4799              		@ args = 0, pretend = 0, frame = 16
 4800              		@ frame_needed = 0, uses_anonymous_args = 0
 4801 0000 1F402DE9 		stmfd	sp!, {r0, r1, r2, r3, r4, lr}
 4802 0004 10C08DE2 		add	ip, sp, #16
 4803 0008 0E000CE9 		stmdb	ip, {r1, r2, r3}
 4804 000c 04109DE5 		ldr	r1, [sp, #4]	@ float
 4805 0010 FEFFFFEB 		bl	__aeabi_fmul
 4806 0014 08109DE5 		ldr	r1, [sp, #8]	@ float
 4807 0018 FEFFFFEB 		bl	__aeabi_fadd
 4808 001c 14D08DE2 		add	sp, sp, #20
 4809 0020 04E09DE4 		ldr	lr, [sp], #4
 4810 0024 1EFF2FE1 		bx	lr
 4812              		.section	.text.EvaluateLineForX,"ax",%progbits
 4813              		.align	2
 4814              		.global	EvaluateLineForX
 4816              	EvaluateLineForX:
 4817              		@ Function supports interworking.
 4818              		@ args = 0, pretend = 0, frame = 16
 4819              		@ frame_needed = 0, uses_anonymous_args = 0
 4820 0000 1F402DE9 		stmfd	sp!, {r0, r1, r2, r3, r4, lr}
 4821 0004 10C08DE2 		add	ip, sp, #16
 4822 0008 0E000CE9 		stmdb	ip, {r1, r2, r3}
 4823 000c 08109DE5 		ldr	r1, [sp, #8]	@ float
 4824 0010 FEFFFFEB 		bl	__aeabi_fsub
 4825 0014 04109DE5 		ldr	r1, [sp, #4]	@ float
 4826 0018 FEFFFFEB 		bl	__aeabi_fdiv
 4827 001c 14D08DE2 		add	sp, sp, #20
 4828 0020 04E09DE4 		ldr	lr, [sp], #4
 4829 0024 1EFF2FE1 		bx	lr
 4831              		.section	.text.DistanceEquation,"ax",%progbits
 4832              		.align	2
 4833              		.global	DistanceEquation
 4835              	DistanceEquation:
 4836              		@ Function supports interworking.
 4837              		@ args = 0, pretend = 0, frame = 16
 4838              		@ frame_needed = 0, uses_anonymous_args = 0
 4839 0000 30402DE9 		stmfd	sp!, {r4, r5, lr}
 4840 0004 14D04DE2 		sub	sp, sp, #20
 4841 0008 10C08DE2 		add	ip, sp, #16
 4842 000c 03000CE9 		stmdb	ip, {r0, r1}
 4843 0010 0C008DE8 		stmia	sp, {r2, r3}
 4844 0014 08009DE5 		ldr	r0, [sp, #8]	@ float
 4845 0018 00109DE5 		ldr	r1, [sp, #0]	@ float
 4846 001c FEFFFFEB 		bl	__aeabi_fsub
 4847 0020 04109DE5 		ldr	r1, [sp, #4]	@ float
 4848 0024 0040A0E1 		mov	r4, r0
 4849 0028 0C009DE5 		ldr	r0, [sp, #12]	@ float
 4850 002c FEFFFFEB 		bl	__aeabi_fsub
 4851 0030 0410A0E1 		mov	r1, r4
 4852 0034 0050A0E1 		mov	r5, r0
 4853 0038 0400A0E1 		mov	r0, r4
 4854 003c FEFFFFEB 		bl	__aeabi_fmul
 4855 0040 0510A0E1 		mov	r1, r5
 4856 0044 0040A0E1 		mov	r4, r0
 4857 0048 0500A0E1 		mov	r0, r5
 4858 004c FEFFFFEB 		bl	__aeabi_fmul
 4859 0050 0010A0E1 		mov	r1, r0
 4860 0054 0400A0E1 		mov	r0, r4
 4861 0058 FEFFFFEB 		bl	__aeabi_fadd
 4862 005c FEFFFFEB 		bl	__aeabi_f2d
 4863 0060 FEFFFFEB 		bl	sqrt
 4864 0064 FEFFFFEB 		bl	__aeabi_d2f
 4865 0068 14D08DE2 		add	sp, sp, #20
 4866 006c 3040BDE8 		ldmfd	sp!, {r4, r5, lr}
 4867 0070 1EFF2FE1 		bx	lr
 4869              		.comm	PolySurveySweepBackNum,2,2
 4870              		.comm	PolySurveySweepNum,2,2
 4871              		.section	.bss.DistanceFromCenter,"aw",%nobits
 4872              		.align	2
 4873              		.set	.LANCHOR7,. + 0
 4876              	DistanceFromCenter:
 4877 0000 00000000 		.space	4
 4878              		.section	.bss.EdgeMinY,"aw",%nobits
 4879              		.align	2
 4880              		.set	.LANCHOR53,. + 0
 4883              	EdgeMinY:
 4884 0000 00000000 		.space	40
 4884      00000000 
 4884      00000000 
 4884      00000000 
 4884      00000000 
 4885              		.section	.bss.SurveyTheta,"aw",%nobits
 4886              		.align	2
 4887              		.set	.LANCHOR45,. + 0
 4890              	SurveyTheta:
 4891 0000 00000000 		.space	4
 4892              		.section	.bss.SurveyCircleQdr,"aw",%nobits
 4893              		.align	2
 4894              		.set	.LANCHOR55,. + 0
 4897              	SurveyCircleQdr:
 4898 0000 00000000 		.space	4
 4899              		.section	.bss.FlyFromX,"aw",%nobits
 4900              		.align	2
 4901              		.set	.LANCHOR11,. + 0
 4904              	FlyFromX:
 4905 0000 00000000 		.space	4
 4906              		.section	.bss.FlyFromY,"aw",%nobits
 4907              		.align	2
 4908              		.set	.LANCHOR12,. + 0
 4911              	FlyFromY:
 4912 0000 00000000 		.space	4
 4913              		.section	.bss.FLBlockCount,"aw",%nobits
 4914              		.set	.LANCHOR43,. + 0
 4917              	FLBlockCount:
 4918 0000 00       		.space	1
 4919              		.section	.bss.LandAppAlt,"aw",%nobits
 4920              		.align	2
 4921              		.set	.LANCHOR31,. + 0
 4924              	LandAppAlt:
 4925 0000 00000000 		.space	4
 4926              		.section	.bss.SurveyCircle,"aw",%nobits
 4927              		.align	2
 4928              		.set	.LANCHOR59,. + 0
 4931              	SurveyCircle:
 4932 0000 00000000 		.space	8
 4932      00000000 
 4933              		.section	.bss.Fly2X,"aw",%nobits
 4934              		.align	2
 4935              		.set	.LANCHOR9,. + 0
 4938              	Fly2X:
 4939 0000 00000000 		.space	4
 4940              		.section	.bss.Fly2Y,"aw",%nobits
 4941              		.align	2
 4942              		.set	.LANCHOR10,. + 0
 4945              	Fly2Y:
 4946 0000 00000000 		.space	4
 4947              		.section	.bss.EntryPoint.3133,"aw",%nobits
 4948              		.align	2
 4949              		.set	.LANCHOR49,. + 0
 4952              	EntryPoint.3133:
 4953 0000 00000000 		.space	8
 4953      00000000 
 4954              		.section	.bss.Flowerradius,"aw",%nobits
 4955              		.align	2
 4956              		.set	.LANCHOR4,. + 0
 4959              	Flowerradius:
 4960 0000 00000000 		.space	4
 4961              		.section	.bss.SurveySize,"aw",%nobits
 4962              		.set	.LANCHOR47,. + 0
 4965              	SurveySize:
 4966 0000 00       		.space	1
 4967              		.section	.bss.LandCircle,"aw",%nobits
 4968              		.align	2
 4969              		.set	.LANCHOR34,. + 0
 4972              	LandCircle:
 4973 0000 00000000 		.space	8
 4973      00000000 
 4974              		.section	.bss.TDWaypoint,"aw",%nobits
 4975              		.set	.LANCHOR28,. + 0
 4978              	TDWaypoint:
 4979 0000 00       		.space	1
 4980              		.section	.bss.line_status,"aw",%nobits
 4981              		.set	.LANCHOR26,. + 0
 4984              	line_status:
 4985 0000 00       		.space	1
 4986              		.section	.bss.FLCircle,"aw",%nobits
 4987              		.align	2
 4988              		.set	.LANCHOR42,. + 0
 4991              	FLCircle:
 4992 0000 00000000 		.space	8
 4992      00000000 
 4993              		.section	.bss.FLFROMWP,"aw",%nobits
 4994              		.align	2
 4995              		.set	.LANCHOR40,. + 0
 4998              	FLFROMWP:
 4999 0000 00000000 		.space	8
 4999      00000000 
 5000              		.section	.bss.EdgeCurrentX,"aw",%nobits
 5001              		.align	2
 5002              		.set	.LANCHOR2,. + 0
 5005              	EdgeCurrentX:
 5006 0000 00000000 		.space	4
 5007              		.section	.bss.Edge,"aw",%nobits
 5008              		.set	.LANCHOR1,. + 0
 5011              	Edge:
 5012 0000 00       		.space	1
 5013              		.section	.bss.EdgeCurrentY,"aw",%nobits
 5014              		.align	2
 5015              		.set	.LANCHOR3,. + 0
 5018              	EdgeCurrentY:
 5019 0000 00000000 		.space	4
 5020              		.section	.bss.BungeeAlt,"aw",%nobits
 5021              		.align	2
 5022              		.set	.LANCHOR20,. + 0
 5025              	BungeeAlt:
 5026 0000 00000000 		.space	4
 5027              		.section	.bss.ThrottleSlope,"aw",%nobits
 5028              		.align	2
 5029              		.set	.LANCHOR23,. + 0
 5032              	ThrottleSlope:
 5033 0000 00000000 		.space	4
 5034              		.section	.bss.throttlePy,"aw",%nobits
 5035              		.align	2
 5036              		.set	.LANCHOR22,. + 0
 5039              	throttlePy:
 5040 0000 00000000 		.space	4
 5041              		.section	.bss.Edges,"aw",%nobits
 5042              		.align	2
 5043              		.set	.LANCHOR51,. + 0
 5046              	Edges:
 5047 0000 00000000 		.space	120
 5047      00000000 
 5047      00000000 
 5047      00000000 
 5047      00000000 
 5048              		.section	.bss.throttlePx,"aw",%nobits
 5049              		.align	2
 5050              		.set	.LANCHOR21,. + 0
 5053              	throttlePx:
 5054 0000 00000000 		.space	4
 5055              		.section	.bss.TDistance,"aw",%nobits
 5056              		.align	2
 5057              		.set	.LANCHOR19,. + 0
 5060              	TDistance:
 5061 0000 00000000 		.space	4
 5062              		.section	.bss.FinalLandAltitude,"aw",%nobits
 5063              		.align	2
 5064              		.set	.LANCHOR32,. + 0
 5067              	FinalLandAltitude:
 5068 0000 00000000 		.space	4
 5069              		.section	.bss.LandCircleQDR,"aw",%nobits
 5070              		.align	2
 5071              		.set	.LANCHOR35,. + 0
 5074              	LandCircleQDR:
 5075 0000 00000000 		.space	4
 5076              		.section	.bss.SurveyEntryWP,"aw",%nobits
 5077              		.set	.LANCHOR46,. + 0
 5080              	SurveyEntryWP:
 5081 0000 00       		.space	1
 5082              		.section	.bss.CircleX,"aw",%nobits
 5083              		.align	2
 5084              		.set	.LANCHOR14,. + 0
 5087              	CircleX:
 5088 0000 00000000 		.space	4
 5089              		.section	.bss.CircleY,"aw",%nobits
 5090              		.align	2
 5091              		.set	.LANCHOR15,. + 0
 5094              	CircleY:
 5095 0000 00000000 		.space	4
 5096              		.section	.bss.CFLStatus,"aw",%nobits
 5097              		.set	.LANCHOR37,. + 0
 5100              	CFLStatus:
 5101 0000 00       		.space	1
 5102              		.section	.bss.BungeeWaypoint,"aw",%nobits
 5103              		.set	.LANCHOR18,. + 0
 5106              	BungeeWaypoint:
 5107 0000 00       		.space	1
 5108              		.section	.bss.FinalLandCount,"aw",%nobits
 5109              		.set	.LANCHOR33,. + 0
 5112              	FinalLandCount:
 5113 0000 00       		.space	1
 5114              		.section	.bss.dSweep,"aw",%nobits
 5115              		.align	2
 5116              		.set	.LANCHOR54,. + 0
 5119              	dSweep:
 5120 0000 00000000 		.space	4
 5121              		.section	.bss.LastPoint.3171,"aw",%nobits
 5122              		.align	2
 5123              		.set	.LANCHOR60,. + 0
 5126              	LastPoint.3171:
 5127 0000 00000000 		.space	8
 5127      00000000 
 5128              		.section	.bss.FlowerTheta,"aw",%nobits
 5129              		.align	2
 5130              		.set	.LANCHOR8,. + 0
 5133              	FlowerTheta:
 5134 0000 00000000 		.space	4
 5135              		.section	.bss.AFWaypoint,"aw",%nobits
 5136              		.set	.LANCHOR27,. + 0
 5139              	AFWaypoint:
 5140 0000 00       		.space	1
 5141              		.section	.bss.TransCurrentX,"aw",%nobits
 5142              		.align	2
 5143              		.set	.LANCHOR5,. + 0
 5146              	TransCurrentX:
 5147 0000 00000000 		.space	4
 5148              		.section	.bss.CLandingStatus,"aw",%nobits
 5149              		.set	.LANCHOR29,. + 0
 5152              	CLandingStatus:
 5153 0000 00       		.space	1
 5154              		.section	.bss.initialx,"aw",%nobits
 5155              		.align	2
 5156              		.set	.LANCHOR16,. + 0
 5159              	initialx:
 5160 0000 00000000 		.space	4
 5161              		.section	.bss.initialy,"aw",%nobits
 5162              		.align	2
 5163              		.set	.LANCHOR17,. + 0
 5166              	initialy:
 5167 0000 00000000 		.space	4
 5168              		.section	.bss.EdgeMaxY,"aw",%nobits
 5169              		.align	2
 5170              		.set	.LANCHOR52,. + 0
 5173              	EdgeMaxY:
 5174 0000 00000000 		.space	40
 5174      00000000 
 5174      00000000 
 5174      00000000 
 5174      00000000 
 5175              		.section	.bss.CTakeoffStatus,"aw",%nobits
 5176              		.set	.LANCHOR25,. + 0
 5179              	CTakeoffStatus:
 5180 0000 00       		.space	1
 5181              		.section	.bss.TransCurrentY,"aw",%nobits
 5182              		.align	2
 5183              		.set	.LANCHOR6,. + 0
 5186              	TransCurrentY:
 5187 0000 00000000 		.space	4
 5188              		.section	.bss.SmallestCorner,"aw",%nobits
 5189              		.align	2
 5190              		.set	.LANCHOR44,. + 0
 5193              	SmallestCorner:
 5194 0000 00000000 		.space	8
 5194      00000000 
 5195              		.section	.bss.CFlowerStatus,"aw",%nobits
 5196              		.set	.LANCHOR13,. + 0
 5199              	CFlowerStatus:
 5200 0000 00       		.space	1
 5201              		.section	.bss.SurveyFromWP,"aw",%nobits
 5202              		.align	2
 5203              		.set	.LANCHOR57,. + 0
 5206              	SurveyFromWP:
 5207 0000 00000000 		.space	8
 5207      00000000 
 5208              		.section	.bss.SurveyToWP,"aw",%nobits
 5209              		.align	2
 5210              		.set	.LANCHOR56,. + 0
 5213              	SurveyToWP:
 5214 0000 00000000 		.space	8
 5214      00000000 
 5215              		.section	.bss.MaxY,"aw",%nobits
 5216              		.align	2
 5217              		.set	.LANCHOR50,. + 0
 5220              	MaxY:
 5221 0000 00000000 		.space	4
 5222              		.section	.bss.FLTOWP,"aw",%nobits
 5223              		.align	2
 5224              		.set	.LANCHOR41,. + 0
 5227              	FLTOWP:
 5228 0000 00000000 		.space	8
 5228      00000000 
 5229              		.section	.bss.LandRadius,"aw",%nobits
 5230              		.align	2
 5231              		.set	.LANCHOR30,. + 0
 5234              	LandRadius:
 5235 0000 00000000 		.space	4
 5236              		.section	.bss.Center,"aw",%nobits
 5237              		.set	.LANCHOR0,. + 0
 5240              	Center:
 5241 0000 00       		.space	1
 5242              		.section	.bss.FLQDR,"aw",%nobits
 5243              		.align	2
 5244              		.set	.LANCHOR39,. + 0
 5247              	FLQDR:
 5248 0000 00000000 		.space	4
 5249              		.section	.bss.SurveyRadius,"aw",%nobits
 5250              		.align	2
 5251              		.set	.LANCHOR58,. + 0
 5254              	SurveyRadius:
 5255 0000 00000000 		.space	4
 5256              		.section	.bss.AboveLine,"aw",%nobits
 5257              		.set	.LANCHOR24,. + 0
 5260              	AboveLine:
 5261 0000 00       		.space	1
 5262              		.section	.bss.CSurveyStatus,"aw",%nobits
 5263              		.set	.LANCHOR48,. + 0
 5266              	CSurveyStatus:
 5267 0000 00       		.space	1
 5268              		.section	.bss.FLRadius,"aw",%nobits
 5269              		.align	2
 5270              		.set	.LANCHOR38,. + 0
 5273              	FLRadius:
 5274 0000 00000000 		.space	4
 5275              		.section	.bss.ApproachQDR,"aw",%nobits
 5276              		.align	2
 5277              		.set	.LANCHOR36,. + 0
 5280              	ApproachQDR:
 5281 0000 00000000 		.space	4
 5282              		.ident	"GCC: (Linaro GCC 4.6-2011.09-1) 4.6.2 20110908 (prerelease)"
DEFINED SYMBOLS
                            *ABS*:00000000 OSAMNav.c
     /tmp/ccO5TZBx.s:21     .text.InitializeFlower:00000000 $a
     /tmp/ccO5TZBx.s:24     .text.InitializeFlower:00000000 InitializeFlower
     /tmp/ccO5TZBx.s:190    .text.InitializeFlower:0000027c $d
     /tmp/ccO5TZBx.s:215    .text.FlowerNav:00000000 $a
     /tmp/ccO5TZBx.s:218    .text.FlowerNav:00000000 FlowerNav
     /tmp/ccO5TZBx.s:602    .text.FlowerNav:000005d0 $d
     /tmp/ccO5TZBx.s:633    .text.InitializeBungeeTakeoff:00000000 $a
     /tmp/ccO5TZBx.s:636    .text.InitializeBungeeTakeoff:00000000 InitializeBungeeTakeoff
     /tmp/ccO5TZBx.s:804    .text.InitializeBungeeTakeoff:00000274 $d
     /tmp/ccO5TZBx.s:825    .text.BungeeTakeoff:00000000 $a
     /tmp/ccO5TZBx.s:828    .text.BungeeTakeoff:00000000 BungeeTakeoff
     /tmp/ccO5TZBx.s:1135   .text.BungeeTakeoff:00000488 $d
     /tmp/ccO5TZBx.s:1166   .text.InitializeVerticalRaster:00000000 $a
     /tmp/ccO5TZBx.s:1169   .text.InitializeVerticalRaster:00000000 InitializeVerticalRaster
     /tmp/ccO5TZBx.s:1181   .text.InitializeVerticalRaster:00000010 $d
     /tmp/ccO5TZBx.s:1185   .text.VerticalRaster:00000000 $a
     /tmp/ccO5TZBx.s:1188   .text.VerticalRaster:00000000 VerticalRaster
     /tmp/ccO5TZBx.s:1338   .text.VerticalRaster:00000244 $d
     /tmp/ccO5TZBx.s:1347   .text.VerticalRaster:00000264 $a
     /tmp/ccO5TZBx.s:2236   .text.VerticalRaster:00000f08 $d
     /tmp/ccO5TZBx.s:2262   .text.InitializeSkidLanding:00000000 $a
     /tmp/ccO5TZBx.s:2265   .text.InitializeSkidLanding:00000000 InitializeSkidLanding
     /tmp/ccO5TZBx.s:2407   .text.InitializeSkidLanding:00000214 $d
     /tmp/ccO5TZBx.s:2428   .text.SkidLanding:00000000 $a
     /tmp/ccO5TZBx.s:2431   .text.SkidLanding:00000000 SkidLanding
     /tmp/ccO5TZBx.s:2442   .text.SkidLanding:00000018 $d
     /tmp/ccO5TZBx.s:2447   .text.SkidLanding:00000028 $a
     /tmp/ccO5TZBx.s:2840   .text.SkidLanding:000005d4 $d
     /tmp/ccO5TZBx.s:2875   .text.TranslateAndRotateFromWorld:00000000 $a
     /tmp/ccO5TZBx.s:2878   .text.TranslateAndRotateFromWorld:00000000 TranslateAndRotateFromWorld
     /tmp/ccO5TZBx.s:2949   .text.FlightLine:00000000 $a
     /tmp/ccO5TZBx.s:2952   .text.FlightLine:00000000 FlightLine
     /tmp/ccO5TZBx.s:2967   .text.FlightLine:00000028 $d
     /tmp/ccO5TZBx.s:2972   .text.FlightLine:00000038 $a
     /tmp/ccO5TZBx.s:3322   .text.FlightLine:0000055c $d
     /tmp/ccO5TZBx.s:3350   .text.FlightLineBlock:00000000 $a
     /tmp/ccO5TZBx.s:3353   .text.FlightLineBlock:00000000 FlightLineBlock
     /tmp/ccO5TZBx.s:3412   .text.FlightLineBlock:000000c0 $d
     /tmp/ccO5TZBx.s:3418   .text.InitializePolygonSurvey:00000000 $a
     /tmp/ccO5TZBx.s:3421   .text.InitializePolygonSurvey:00000000 InitializePolygonSurvey
     /tmp/ccO5TZBx.s:3982   .text.InitializePolygonSurvey:0000084c $d
                            *COM*:00000002 PolySurveySweepNum
                            *COM*:00000002 PolySurveySweepBackNum
     /tmp/ccO5TZBx.s:4011   .text.RotateAndTranslateToWorld:00000000 $a
     /tmp/ccO5TZBx.s:4014   .text.RotateAndTranslateToWorld:00000000 RotateAndTranslateToWorld
     /tmp/ccO5TZBx.s:4088   .text.PolygonSurvey:00000000 $a
     /tmp/ccO5TZBx.s:4091   .text.PolygonSurvey:00000000 PolygonSurvey
     /tmp/ccO5TZBx.s:4717   .text.PolygonSurvey:000008f4 $d
     /tmp/ccO5TZBx.s:4757   .text.FindInterceptOfTwoLines:00000000 $a
     /tmp/ccO5TZBx.s:4760   .text.FindInterceptOfTwoLines:00000000 FindInterceptOfTwoLines
     /tmp/ccO5TZBx.s:4794   .text.EvaluateLineForY:00000000 $a
     /tmp/ccO5TZBx.s:4797   .text.EvaluateLineForY:00000000 EvaluateLineForY
     /tmp/ccO5TZBx.s:4813   .text.EvaluateLineForX:00000000 $a
     /tmp/ccO5TZBx.s:4816   .text.EvaluateLineForX:00000000 EvaluateLineForX
     /tmp/ccO5TZBx.s:4832   .text.DistanceEquation:00000000 $a
     /tmp/ccO5TZBx.s:4835   .text.DistanceEquation:00000000 DistanceEquation
     /tmp/ccO5TZBx.s:4872   .bss.DistanceFromCenter:00000000 $d
     /tmp/ccO5TZBx.s:4876   .bss.DistanceFromCenter:00000000 DistanceFromCenter
     /tmp/ccO5TZBx.s:4879   .bss.EdgeMinY:00000000 $d
     /tmp/ccO5TZBx.s:4883   .bss.EdgeMinY:00000000 EdgeMinY
     /tmp/ccO5TZBx.s:4886   .bss.SurveyTheta:00000000 $d
     /tmp/ccO5TZBx.s:4890   .bss.SurveyTheta:00000000 SurveyTheta
     /tmp/ccO5TZBx.s:4893   .bss.SurveyCircleQdr:00000000 $d
     /tmp/ccO5TZBx.s:4897   .bss.SurveyCircleQdr:00000000 SurveyCircleQdr
     /tmp/ccO5TZBx.s:4900   .bss.FlyFromX:00000000 $d
     /tmp/ccO5TZBx.s:4904   .bss.FlyFromX:00000000 FlyFromX
     /tmp/ccO5TZBx.s:4907   .bss.FlyFromY:00000000 $d
     /tmp/ccO5TZBx.s:4911   .bss.FlyFromY:00000000 FlyFromY
     /tmp/ccO5TZBx.s:4917   .bss.FLBlockCount:00000000 FLBlockCount
     /tmp/ccO5TZBx.s:4918   .bss.FLBlockCount:00000000 $d
     /tmp/ccO5TZBx.s:4920   .bss.LandAppAlt:00000000 $d
     /tmp/ccO5TZBx.s:4924   .bss.LandAppAlt:00000000 LandAppAlt
     /tmp/ccO5TZBx.s:4927   .bss.SurveyCircle:00000000 $d
     /tmp/ccO5TZBx.s:4931   .bss.SurveyCircle:00000000 SurveyCircle
     /tmp/ccO5TZBx.s:4934   .bss.Fly2X:00000000 $d
     /tmp/ccO5TZBx.s:4938   .bss.Fly2X:00000000 Fly2X
     /tmp/ccO5TZBx.s:4941   .bss.Fly2Y:00000000 $d
     /tmp/ccO5TZBx.s:4945   .bss.Fly2Y:00000000 Fly2Y
     /tmp/ccO5TZBx.s:4948   .bss.EntryPoint.3133:00000000 $d
     /tmp/ccO5TZBx.s:4952   .bss.EntryPoint.3133:00000000 EntryPoint.3133
     /tmp/ccO5TZBx.s:4955   .bss.Flowerradius:00000000 $d
     /tmp/ccO5TZBx.s:4959   .bss.Flowerradius:00000000 Flowerradius
     /tmp/ccO5TZBx.s:4965   .bss.SurveySize:00000000 SurveySize
     /tmp/ccO5TZBx.s:4966   .bss.SurveySize:00000000 $d
     /tmp/ccO5TZBx.s:4968   .bss.LandCircle:00000000 $d
     /tmp/ccO5TZBx.s:4972   .bss.LandCircle:00000000 LandCircle
     /tmp/ccO5TZBx.s:4978   .bss.TDWaypoint:00000000 TDWaypoint
     /tmp/ccO5TZBx.s:4979   .bss.TDWaypoint:00000000 $d
     /tmp/ccO5TZBx.s:4984   .bss.line_status:00000000 line_status
     /tmp/ccO5TZBx.s:4985   .bss.line_status:00000000 $d
     /tmp/ccO5TZBx.s:4987   .bss.FLCircle:00000000 $d
     /tmp/ccO5TZBx.s:4991   .bss.FLCircle:00000000 FLCircle
     /tmp/ccO5TZBx.s:4994   .bss.FLFROMWP:00000000 $d
     /tmp/ccO5TZBx.s:4998   .bss.FLFROMWP:00000000 FLFROMWP
     /tmp/ccO5TZBx.s:5001   .bss.EdgeCurrentX:00000000 $d
     /tmp/ccO5TZBx.s:5005   .bss.EdgeCurrentX:00000000 EdgeCurrentX
     /tmp/ccO5TZBx.s:5011   .bss.Edge:00000000 Edge
     /tmp/ccO5TZBx.s:5012   .bss.Edge:00000000 $d
     /tmp/ccO5TZBx.s:5014   .bss.EdgeCurrentY:00000000 $d
     /tmp/ccO5TZBx.s:5018   .bss.EdgeCurrentY:00000000 EdgeCurrentY
     /tmp/ccO5TZBx.s:5021   .bss.BungeeAlt:00000000 $d
     /tmp/ccO5TZBx.s:5025   .bss.BungeeAlt:00000000 BungeeAlt
     /tmp/ccO5TZBx.s:5028   .bss.ThrottleSlope:00000000 $d
     /tmp/ccO5TZBx.s:5032   .bss.ThrottleSlope:00000000 ThrottleSlope
     /tmp/ccO5TZBx.s:5035   .bss.throttlePy:00000000 $d
     /tmp/ccO5TZBx.s:5039   .bss.throttlePy:00000000 throttlePy
     /tmp/ccO5TZBx.s:5042   .bss.Edges:00000000 $d
     /tmp/ccO5TZBx.s:5046   .bss.Edges:00000000 Edges
     /tmp/ccO5TZBx.s:5049   .bss.throttlePx:00000000 $d
     /tmp/ccO5TZBx.s:5053   .bss.throttlePx:00000000 throttlePx
     /tmp/ccO5TZBx.s:5056   .bss.TDistance:00000000 $d
     /tmp/ccO5TZBx.s:5060   .bss.TDistance:00000000 TDistance
     /tmp/ccO5TZBx.s:5063   .bss.FinalLandAltitude:00000000 $d
     /tmp/ccO5TZBx.s:5067   .bss.FinalLandAltitude:00000000 FinalLandAltitude
     /tmp/ccO5TZBx.s:5070   .bss.LandCircleQDR:00000000 $d
     /tmp/ccO5TZBx.s:5074   .bss.LandCircleQDR:00000000 LandCircleQDR
     /tmp/ccO5TZBx.s:5080   .bss.SurveyEntryWP:00000000 SurveyEntryWP
     /tmp/ccO5TZBx.s:5081   .bss.SurveyEntryWP:00000000 $d
     /tmp/ccO5TZBx.s:5083   .bss.CircleX:00000000 $d
     /tmp/ccO5TZBx.s:5087   .bss.CircleX:00000000 CircleX
     /tmp/ccO5TZBx.s:5090   .bss.CircleY:00000000 $d
     /tmp/ccO5TZBx.s:5094   .bss.CircleY:00000000 CircleY
     /tmp/ccO5TZBx.s:5100   .bss.CFLStatus:00000000 CFLStatus
     /tmp/ccO5TZBx.s:5101   .bss.CFLStatus:00000000 $d
     /tmp/ccO5TZBx.s:5106   .bss.BungeeWaypoint:00000000 BungeeWaypoint
     /tmp/ccO5TZBx.s:5107   .bss.BungeeWaypoint:00000000 $d
     /tmp/ccO5TZBx.s:5112   .bss.FinalLandCount:00000000 FinalLandCount
     /tmp/ccO5TZBx.s:5113   .bss.FinalLandCount:00000000 $d
     /tmp/ccO5TZBx.s:5115   .bss.dSweep:00000000 $d
     /tmp/ccO5TZBx.s:5119   .bss.dSweep:00000000 dSweep
     /tmp/ccO5TZBx.s:5122   .bss.LastPoint.3171:00000000 $d
     /tmp/ccO5TZBx.s:5126   .bss.LastPoint.3171:00000000 LastPoint.3171
     /tmp/ccO5TZBx.s:5129   .bss.FlowerTheta:00000000 $d
     /tmp/ccO5TZBx.s:5133   .bss.FlowerTheta:00000000 FlowerTheta
     /tmp/ccO5TZBx.s:5139   .bss.AFWaypoint:00000000 AFWaypoint
     /tmp/ccO5TZBx.s:5140   .bss.AFWaypoint:00000000 $d
     /tmp/ccO5TZBx.s:5142   .bss.TransCurrentX:00000000 $d
     /tmp/ccO5TZBx.s:5146   .bss.TransCurrentX:00000000 TransCurrentX
     /tmp/ccO5TZBx.s:5152   .bss.CLandingStatus:00000000 CLandingStatus
     /tmp/ccO5TZBx.s:5153   .bss.CLandingStatus:00000000 $d
     /tmp/ccO5TZBx.s:5155   .bss.initialx:00000000 $d
     /tmp/ccO5TZBx.s:5159   .bss.initialx:00000000 initialx
     /tmp/ccO5TZBx.s:5162   .bss.initialy:00000000 $d
     /tmp/ccO5TZBx.s:5166   .bss.initialy:00000000 initialy
     /tmp/ccO5TZBx.s:5169   .bss.EdgeMaxY:00000000 $d
     /tmp/ccO5TZBx.s:5173   .bss.EdgeMaxY:00000000 EdgeMaxY
     /tmp/ccO5TZBx.s:5179   .bss.CTakeoffStatus:00000000 CTakeoffStatus
     /tmp/ccO5TZBx.s:5180   .bss.CTakeoffStatus:00000000 $d
     /tmp/ccO5TZBx.s:5182   .bss.TransCurrentY:00000000 $d
     /tmp/ccO5TZBx.s:5186   .bss.TransCurrentY:00000000 TransCurrentY
     /tmp/ccO5TZBx.s:5189   .bss.SmallestCorner:00000000 $d
     /tmp/ccO5TZBx.s:5193   .bss.SmallestCorner:00000000 SmallestCorner
     /tmp/ccO5TZBx.s:5199   .bss.CFlowerStatus:00000000 CFlowerStatus
     /tmp/ccO5TZBx.s:5200   .bss.CFlowerStatus:00000000 $d
     /tmp/ccO5TZBx.s:5202   .bss.SurveyFromWP:00000000 $d
     /tmp/ccO5TZBx.s:5206   .bss.SurveyFromWP:00000000 SurveyFromWP
     /tmp/ccO5TZBx.s:5209   .bss.SurveyToWP:00000000 $d
     /tmp/ccO5TZBx.s:5213   .bss.SurveyToWP:00000000 SurveyToWP
     /tmp/ccO5TZBx.s:5216   .bss.MaxY:00000000 $d
     /tmp/ccO5TZBx.s:5220   .bss.MaxY:00000000 MaxY
     /tmp/ccO5TZBx.s:5223   .bss.FLTOWP:00000000 $d
     /tmp/ccO5TZBx.s:5227   .bss.FLTOWP:00000000 FLTOWP
     /tmp/ccO5TZBx.s:5230   .bss.LandRadius:00000000 $d
     /tmp/ccO5TZBx.s:5234   .bss.LandRadius:00000000 LandRadius
     /tmp/ccO5TZBx.s:5240   .bss.Center:00000000 Center
     /tmp/ccO5TZBx.s:5241   .bss.Center:00000000 $d
     /tmp/ccO5TZBx.s:5243   .bss.FLQDR:00000000 $d
     /tmp/ccO5TZBx.s:5247   .bss.FLQDR:00000000 FLQDR
     /tmp/ccO5TZBx.s:5250   .bss.SurveyRadius:00000000 $d
     /tmp/ccO5TZBx.s:5254   .bss.SurveyRadius:00000000 SurveyRadius
     /tmp/ccO5TZBx.s:5260   .bss.AboveLine:00000000 AboveLine
     /tmp/ccO5TZBx.s:5261   .bss.AboveLine:00000000 $d
     /tmp/ccO5TZBx.s:5266   .bss.CSurveyStatus:00000000 CSurveyStatus
     /tmp/ccO5TZBx.s:5267   .bss.CSurveyStatus:00000000 $d
     /tmp/ccO5TZBx.s:5269   .bss.FLRadius:00000000 $d
     /tmp/ccO5TZBx.s:5273   .bss.FLRadius:00000000 FLRadius
     /tmp/ccO5TZBx.s:5276   .bss.ApproachQDR:00000000 $d
     /tmp/ccO5TZBx.s:5280   .bss.ApproachQDR:00000000 ApproachQDR

UNDEFINED SYMBOLS
__aeabi_fsub
__aeabi_fmul
__aeabi_fadd
__aeabi_f2d
__aeabi_d2f
__aeabi_dadd
__aeabi_dmul
__aeabi_fcmpgt
sqrt
atan2
cos
sin
waypoints
estimator_x
estimator_y
__aeabi_fdiv
__aeabi_dsub
nav_route_xy
nav_circle_XY
nav_init_stage
v_ctl_climb_mode
nav_pitch
v_ctl_mode
nav_altitude
v_ctl_altitude_pre_climb
nav_radius
__aeabi_fcmplt
__aeabi_ddiv
tan
kill_throttle
estimator_hspeed_mod
nav_throttle_setpoint
estimator_z
__aeabi_fcmpge
nav_approaching_xy
nav_circle_trigo_qdr
__aeabi_dcmplt
__aeabi_dcmpgt
nav_circle_radians
stage_time
__aeabi_fcmple
__aeabi_fcmpeq
