   1              		.cpu arm7tdmi
   2              		.fpu softvfp
   3              		.eabi_attribute 20, 1
   4              		.eabi_attribute 21, 1
   5              		.eabi_attribute 23, 3
   6              		.eabi_attribute 24, 1
   7              		.eabi_attribute 25, 1
   8              		.eabi_attribute 26, 1
   9              		.eabi_attribute 30, 4
  10              		.eabi_attribute 34, 0
  11              		.eabi_attribute 18, 4
  12              		.file	"poly_survey_adv.c"
  13              		.global	__aeabi_fsub
  14              		.global	__aeabi_fmul
  15              		.global	__aeabi_fadd
  16              		.global	__aeabi_fcmpeq
  17              		.global	__aeabi_fdiv
  18              		.global	__aeabi_fcmpgt
  19              		.global	__aeabi_fcmplt
  20              		.section	.text.get_two_intersects.constprop.0,"ax",%progbits
  21              		.align	2
  23              	get_two_intersects.constprop.0:
  24              		@ Function supports interworking.
  25              		@ args = 0, pretend = 0, frame = 64
  26              		@ frame_needed = 0, uses_anonymous_args = 0
  27 0000 F04F2DE9 		stmfd	sp!, {r4, r5, r6, r7, r8, r9, r10, fp, lr}
  28 0004 44D04DE2 		sub	sp, sp, #68
  29 0008 40C08DE2 		add	ip, sp, #64
  30 000c 03000CE9 		stmdb	ip, {r0, r1}
  31 0010 30108DE2 		add	r1, sp, #48
  32 0014 0C0081E8 		stmia	r1, {r2, r3}
  33 0018 84349FE5 		ldr	r3, .L26
  34 001c 0030D3E5 		ldrb	r3, [r3]	@ zero_extendqisi2
  35 0020 012043E2 		sub	r2, r3, #1
  36 0024 28208DE5 		str	r2, [sp, #40]
  37 0028 30209DE5 		ldr	r2, [sp, #48]	@ float
  38 002c 38C09DE5 		ldr	ip, [sp, #56]	@ float
  39 0030 10308DE5 		str	r3, [sp, #16]
  40 0034 6C349FE5 		ldr	r3, .L26+4
  41 0038 14208DE5 		str	r2, [sp, #20]	@ float
  42 003c 68249FE5 		ldr	r2, .L26+8
  43 0040 0030D3E5 		ldrb	r3, [r3]	@ zero_extendqisi2
  44 0044 18C08DE5 		str	ip, [sp, #24]	@ float
  45 0048 34C09DE5 		ldr	ip, [sp, #52]	@ float
  46 004c 00B092E5 		ldr	fp, [r2]	@ float
  47 0050 04A092E5 		ldr	r10, [r2, #4]	@ float
  48 0054 0C20A0E3 		mov	r2, #12
  49 0058 0CC08DE5 		str	ip, [sp, #12]	@ float
  50 005c 92030CE0 		mul	ip, r2, r3
  51 0060 48449FE5 		ldr	r4, .L26+12
  52 0064 0B20E0E3 		mvn	r2, #11
  53 0068 1CC08DE5 		str	ip, [sp, #28]
  54 006c 04408CE0 		add	r4, ip, r4
  55 0070 92030CE0 		mul	ip, r2, r3
  56 0074 0050A0E3 		mov	r5, #0
  57 0078 3C709DE5 		ldr	r7, [sp, #60]	@ float
  58 007c 2CC08DE5 		str	ip, [sp, #44]
  59 0080 08508DE5 		str	r5, [sp, #8]
  60              	.L2:
  61 0084 08209DE5 		ldr	r2, [sp, #8]
  62 0088 28309DE5 		ldr	r3, [sp, #40]
  63 008c 030052E1 		cmp	r2, r3
  64 0090 690000AA 		bge	.L25
  65 0094 2C209DE5 		ldr	r2, [sp, #44]
  66 0098 1C309DE5 		ldr	r3, [sp, #28]
  67 009c 028084E0 		add	r8, r4, r2
  68 00a0 046094E5 		ldr	r6, [r4, #4]	@ float
  69 00a4 038088E0 		add	r8, r8, r3
  70 00a8 100098E5 		ldr	r0, [r8, #16]	@ float
  71 00ac 0610A0E1 		mov	r1, r6
  72 00b0 FEFFFFEB 		bl	__aeabi_fsub
  73 00b4 009094E5 		ldr	r9, [r4]	@ float
  74 00b8 20008DE5 		str	r0, [sp, #32]	@ float
  75 00bc 0910A0E1 		mov	r1, r9
  76 00c0 0C0098E5 		ldr	r0, [r8, #12]	@ float
  77 00c4 FEFFFFEB 		bl	__aeabi_fsub
  78 00c8 18109DE5 		ldr	r1, [sp, #24]	@ float
  79 00cc 24008DE5 		str	r0, [sp, #36]	@ float
  80 00d0 14009DE5 		ldr	r0, [sp, #20]	@ float
  81 00d4 FEFFFFEB 		bl	__aeabi_fsub
  82 00d8 0010A0E1 		mov	r1, r0
  83 00dc 20009DE5 		ldr	r0, [sp, #32]	@ float
  84 00e0 FEFFFFEB 		bl	__aeabi_fmul
  85 00e4 0C109DE5 		ldr	r1, [sp, #12]	@ float
  86 00e8 0080A0E1 		mov	r8, r0
  87 00ec 0700A0E1 		mov	r0, r7
  88 00f0 FEFFFFEB 		bl	__aeabi_fsub
  89 00f4 24109DE5 		ldr	r1, [sp, #36]	@ float
  90 00f8 FEFFFFEB 		bl	__aeabi_fmul
  91 00fc 0010A0E1 		mov	r1, r0
  92 0100 0800A0E1 		mov	r0, r8
  93 0104 FEFFFFEB 		bl	__aeabi_fadd
  94 0108 0010A0E3 		mov	r1, #0
  95 010c 0080A0E1 		mov	r8, r0
  96 0110 FEFFFFEB 		bl	__aeabi_fcmpeq
  97 0114 000050E3 		cmp	r0, #0
  98 0118 4200001A 		bne	.L3
  99 011c 0610A0E1 		mov	r1, r6
 100 0120 0700A0E1 		mov	r0, r7
 101 0124 FEFFFFEB 		bl	__aeabi_fsub
 102 0128 0010A0E1 		mov	r1, r0
 103 012c 14009DE5 		ldr	r0, [sp, #20]	@ float
 104 0130 FEFFFFEB 		bl	__aeabi_fmul
 105 0134 0C109DE5 		ldr	r1, [sp, #12]	@ float
 106 0138 0030A0E1 		mov	r3, r0
 107 013c 0600A0E1 		mov	r0, r6
 108 0140 04308DE5 		str	r3, [sp, #4]
 109 0144 FEFFFFEB 		bl	__aeabi_fsub
 110 0148 0010A0E1 		mov	r1, r0
 111 014c 18009DE5 		ldr	r0, [sp, #24]	@ float
 112 0150 FEFFFFEB 		bl	__aeabi_fmul
 113 0154 04309DE5 		ldr	r3, [sp, #4]
 114 0158 0010A0E1 		mov	r1, r0
 115 015c 0300A0E1 		mov	r0, r3
 116 0160 FEFFFFEB 		bl	__aeabi_fadd
 117 0164 0710A0E1 		mov	r1, r7
 118 0168 0030A0E1 		mov	r3, r0
 119 016c 0C009DE5 		ldr	r0, [sp, #12]	@ float
 120 0170 04308DE5 		str	r3, [sp, #4]
 121 0174 FEFFFFEB 		bl	__aeabi_fsub
 122 0178 0010A0E1 		mov	r1, r0
 123 017c 0900A0E1 		mov	r0, r9
 124 0180 FEFFFFEB 		bl	__aeabi_fmul
 125 0184 04309DE5 		ldr	r3, [sp, #4]
 126 0188 0010A0E1 		mov	r1, r0
 127 018c 0300A0E1 		mov	r0, r3
 128 0190 FEFFFFEB 		bl	__aeabi_fadd
 129 0194 0810A0E1 		mov	r1, r8
 130 0198 FEFFFFEB 		bl	__aeabi_fdiv
 131 019c FE15A0E3 		mov	r1, #1065353216
 132 01a0 0080A0E1 		mov	r8, r0
 133 01a4 FEFFFFEB 		bl	__aeabi_fcmpgt
 134 01a8 000050E3 		cmp	r0, #0
 135 01ac 1D00001A 		bne	.L3
 136 01b0 0800A0E1 		mov	r0, r8
 137 01b4 0010A0E3 		mov	r1, #0
 138 01b8 FEFFFFEB 		bl	__aeabi_fcmplt
 139 01bc 000050E3 		cmp	r0, #0
 140 01c0 1800001A 		bne	.L3
 141 01c4 24109DE5 		ldr	r1, [sp, #36]	@ float
 142 01c8 0800A0E1 		mov	r0, r8
 143 01cc FEFFFFEB 		bl	__aeabi_fmul
 144 01d0 0010A0E1 		mov	r1, r0
 145 01d4 0900A0E1 		mov	r0, r9
 146 01d8 FEFFFFEB 		bl	__aeabi_fadd
 147 01dc 20109DE5 		ldr	r1, [sp, #32]	@ float
 148 01e0 0090A0E1 		mov	r9, r0
 149 01e4 0800A0E1 		mov	r0, r8
 150 01e8 FEFFFFEB 		bl	__aeabi_fmul
 151 01ec 0010A0E1 		mov	r1, r0
 152 01f0 0600A0E1 		mov	r0, r6
 153 01f4 FEFFFFEB 		bl	__aeabi_fadd
 154 01f8 000055E3 		cmp	r5, #0
 155 01fc 0600000A 		beq	.L11
 156 0200 A4329FE5 		ldr	r3, .L26+8
 157 0204 00B083E5 		str	fp, [r3]	@ float
 158 0208 04A083E5 		str	r10, [r3, #4]	@ float
 159 020c A0329FE5 		ldr	r3, .L26+16
 160 0210 009083E5 		str	r9, [r3]	@ float
 161 0214 040083E5 		str	r0, [r3, #4]	@ float
 162 0218 730000EA 		b	.L4
 163              	.L11:
 164 021c 00A0A0E1 		mov	r10, r0
 165 0220 09B0A0E1 		mov	fp, r9
 166 0224 0150A0E3 		mov	r5, #1
 167              	.L3:
 168 0228 08C09DE5 		ldr	ip, [sp, #8]
 169 022c 01C08CE2 		add	ip, ip, #1
 170 0230 08C08DE5 		str	ip, [sp, #8]
 171 0234 0C4084E2 		add	r4, r4, #12
 172 0238 91FFFFEA 		b	.L2
 173              	.L25:
 174 023c 68329FE5 		ldr	r3, .L26+8
 175 0240 010055E3 		cmp	r5, #1
 176 0244 00B083E5 		str	fp, [r3]	@ float
 177 0248 04A083E5 		str	r10, [r3, #4]	@ float
 178 024c 8E00001A 		bne	.L13
 179 0250 50329FE5 		ldr	r3, .L26+4
 180 0254 10C09DE5 		ldr	ip, [sp, #16]
 181 0258 0030D3E5 		ldrb	r3, [r3]	@ zero_extendqisi2
 182 025c 0C1083E0 		add	r1, r3, ip
 183 0260 0C20A0E3 		mov	r2, #12
 184 0264 011041E2 		sub	r1, r1, #1
 185 0268 920101E0 		mul	r1, r2, r1
 186 026c 920303E0 		mul	r3, r2, r3
 187 0270 38929FE5 		ldr	r9, .L26+12
 188 0274 010089E0 		add	r0, r9, r1
 189 0278 044090E5 		ldr	r4, [r0, #4]	@ float
 190 027c 032089E0 		add	r2, r9, r3
 191 0280 040092E5 		ldr	r0, [r2, #4]	@ float
 192 0284 015099E7 		ldr	r5, [r9, r1]	@ float
 193 0288 0410A0E1 		mov	r1, r4
 194 028c 04308DE5 		str	r3, [sp, #4]
 195 0290 FEFFFFEB 		bl	__aeabi_fsub
 196 0294 04309DE5 		ldr	r3, [sp, #4]
 197 0298 0080A0E1 		mov	r8, r0
 198 029c 0510A0E1 		mov	r1, r5
 199 02a0 030099E7 		ldr	r0, [r9, r3]	@ float
 200 02a4 FEFFFFEB 		bl	__aeabi_fsub
 201 02a8 38A09DE5 		ldr	r10, [sp, #56]	@ float
 202 02ac 30B09DE5 		ldr	fp, [sp, #48]	@ float
 203 02b0 0090A0E1 		mov	r9, r0
 204 02b4 0A10A0E1 		mov	r1, r10
 205 02b8 0B00A0E1 		mov	r0, fp
 206 02bc FEFFFFEB 		bl	__aeabi_fsub
 207 02c0 0010A0E1 		mov	r1, r0
 208 02c4 0800A0E1 		mov	r0, r8
 209 02c8 FEFFFFEB 		bl	__aeabi_fmul
 210 02cc 3C609DE5 		ldr	r6, [sp, #60]	@ float
 211 02d0 34709DE5 		ldr	r7, [sp, #52]	@ float
 212 02d4 0030A0E1 		mov	r3, r0
 213 02d8 0710A0E1 		mov	r1, r7
 214 02dc 0600A0E1 		mov	r0, r6
 215 02e0 04308DE5 		str	r3, [sp, #4]
 216 02e4 FEFFFFEB 		bl	__aeabi_fsub
 217 02e8 0910A0E1 		mov	r1, r9
 218 02ec FEFFFFEB 		bl	__aeabi_fmul
 219 02f0 04309DE5 		ldr	r3, [sp, #4]
 220 02f4 0010A0E1 		mov	r1, r0
 221 02f8 0300A0E1 		mov	r0, r3
 222 02fc FEFFFFEB 		bl	__aeabi_fadd
 223 0300 0010A0E3 		mov	r1, #0
 224 0304 08008DE5 		str	r0, [sp, #8]	@ float
 225 0308 FEFFFFEB 		bl	__aeabi_fcmpeq
 226 030c 003050E2 		subs	r3, r0, #0
 227 0310 5D00001A 		bne	.L13
 228 0314 0600A0E1 		mov	r0, r6
 229 0318 0410A0E1 		mov	r1, r4
 230 031c 04308DE5 		str	r3, [sp, #4]
 231 0320 FEFFFFEB 		bl	__aeabi_fsub
 232 0324 0010A0E1 		mov	r1, r0
 233 0328 0B00A0E1 		mov	r0, fp
 234 032c FEFFFFEB 		bl	__aeabi_fmul
 235 0330 0710A0E1 		mov	r1, r7
 236 0334 00B0A0E1 		mov	fp, r0
 237 0338 0400A0E1 		mov	r0, r4
 238 033c FEFFFFEB 		bl	__aeabi_fsub
 239 0340 0010A0E1 		mov	r1, r0
 240 0344 0A00A0E1 		mov	r0, r10
 241 0348 FEFFFFEB 		bl	__aeabi_fmul
 242 034c 0010A0E1 		mov	r1, r0
 243 0350 0B00A0E1 		mov	r0, fp
 244 0354 FEFFFFEB 		bl	__aeabi_fadd
 245 0358 0610A0E1 		mov	r1, r6
 246 035c 00A0A0E1 		mov	r10, r0
 247 0360 0700A0E1 		mov	r0, r7
 248 0364 FEFFFFEB 		bl	__aeabi_fsub
 249 0368 0010A0E1 		mov	r1, r0
 250 036c 0500A0E1 		mov	r0, r5
 251 0370 FEFFFFEB 		bl	__aeabi_fmul
 252 0374 0010A0E1 		mov	r1, r0
 253 0378 0A00A0E1 		mov	r0, r10
 254 037c FEFFFFEB 		bl	__aeabi_fadd
 255 0380 08109DE5 		ldr	r1, [sp, #8]	@ float
 256 0384 FEFFFFEB 		bl	__aeabi_fdiv
 257 0388 FE15A0E3 		mov	r1, #1065353216
 258 038c 0060A0E1 		mov	r6, r0
 259 0390 FEFFFFEB 		bl	__aeabi_fcmpgt
 260 0394 007050E2 		subs	r7, r0, #0
 261 0398 3B00001A 		bne	.L13
 262 039c 0600A0E1 		mov	r0, r6
 263 03a0 0010A0E3 		mov	r1, #0
 264 03a4 FEFFFFEB 		bl	__aeabi_fcmplt
 265 03a8 000050E3 		cmp	r0, #0
 266 03ac 3600001A 		bne	.L13
 267 03b0 0910A0E1 		mov	r1, r9
 268 03b4 0600A0E1 		mov	r0, r6
 269 03b8 FEFFFFEB 		bl	__aeabi_fmul
 270 03bc 0010A0E1 		mov	r1, r0
 271 03c0 0500A0E1 		mov	r0, r5
 272 03c4 FEFFFFEB 		bl	__aeabi_fadd
 273 03c8 E4709FE5 		ldr	r7, .L26+16
 274 03cc 0810A0E1 		mov	r1, r8
 275 03d0 000087E5 		str	r0, [r7]	@ float
 276 03d4 0600A0E1 		mov	r0, r6
 277 03d8 FEFFFFEB 		bl	__aeabi_fmul
 278 03dc 0010A0E1 		mov	r1, r0
 279 03e0 0400A0E1 		mov	r0, r4
 280 03e4 FEFFFFEB 		bl	__aeabi_fadd
 281 03e8 040087E5 		str	r0, [r7, #4]	@ float
 282              	.L4:
 283 03ec C4309FE5 		ldr	r3, .L26+20
 284 03f0 007093E5 		ldr	r7, [r3]	@ float
 285 03f4 046093E5 		ldr	r6, [r3, #4]	@ float
 286 03f8 0201C7E3 		bic	r0, r7, #-2147483648
 287 03fc 0211C6E3 		bic	r1, r6, #-2147483648
 288 0400 FEFFFFEB 		bl	__aeabi_fcmpgt
 289 0404 000050E3 		cmp	r0, #0
 290 0408 9C509FE5 		ldr	r5, .L26+8
 291 040c A0409FE5 		ldr	r4, .L26+16
 292 0410 0E00000A 		beq	.L21
 293 0414 006095E5 		ldr	r6, [r5]	@ float
 294 0418 000094E5 		ldr	r0, [r4]	@ float
 295 041c 0610A0E1 		mov	r1, r6
 296 0420 FEFFFFEB 		bl	__aeabi_fsub
 297 0424 0710A0E1 		mov	r1, r7
 298 0428 FEFFFFEB 		bl	__aeabi_fdiv
 299 042c 0010A0E3 		mov	r1, #0
 300 0430 FEFFFFEB 		bl	__aeabi_fcmplt
 301 0434 000050E3 		cmp	r0, #0
 302 0438 03009418 		ldmneia	r4, {r0, r1}
 303 043c 04309515 		ldrne	r3, [r5, #4]	@ float
 304 0440 00608415 		strne	r6, [r4]	@ float
 305 0444 03008518 		stmneia	r5, {r0, r1}
 306 0448 04308415 		strne	r3, [r4, #4]	@ float
 307 044c 100000EA 		b	.L23
 308              	.L21:
 309 0450 047095E5 		ldr	r7, [r5, #4]	@ float
 310 0454 040094E5 		ldr	r0, [r4, #4]	@ float
 311 0458 0710A0E1 		mov	r1, r7
 312 045c FEFFFFEB 		bl	__aeabi_fsub
 313 0460 0610A0E1 		mov	r1, r6
 314 0464 FEFFFFEB 		bl	__aeabi_fdiv
 315 0468 0010A0E3 		mov	r1, #0
 316 046c FEFFFFEB 		bl	__aeabi_fcmplt
 317 0470 000050E3 		cmp	r0, #0
 318 0474 03009418 		ldmneia	r4, {r0, r1}
 319 0478 00309515 		ldrne	r3, [r5]	@ float
 320 047c 04708415 		strne	r7, [r4, #4]	@ float
 321 0480 03008518 		stmneia	r5, {r0, r1}
 322 0484 00308415 		strne	r3, [r4]	@ float
 323 0488 010000EA 		b	.L23
 324              	.L13:
 325 048c 0000A0E3 		mov	r0, #0
 326 0490 000000EA 		b	.L6
 327              	.L23:
 328 0494 0100A0E3 		mov	r0, #1
 329              	.L6:
 330 0498 44D08DE2 		add	sp, sp, #68
 331              		@ sp needed
 332 049c F04FBDE8 		ldmfd	sp!, {r4, r5, r6, r7, r8, r9, r10, fp, lr}
 333 04a0 1EFF2FE1 		bx	lr
 334              	.L27:
 335              		.align	2
 336              	.L26:
 337 04a4 00000000 		.word	poly_count
 338 04a8 00000000 		.word	poly_first
 339 04ac 00000000 		.word	seg_start
 340 04b0 00000000 		.word	waypoints
 341 04b4 00000000 		.word	seg_end
 342 04b8 00000000 		.word	dir_vec
 344              		.global	__aeabi_f2d
 345              		.global	__aeabi_ddiv
 346              		.global	__aeabi_dmul
 347              		.global	__aeabi_d2f
 348              		.global	__aeabi_fcmpge
 349              		.global	__aeabi_f2iz
 350              		.global	__aeabi_fcmple
 351              		.global	__aeabi_dadd
 352              		.section	.text.init_poly_survey_adv,"ax",%progbits
 353              		.align	2
 354              		.global	init_poly_survey_adv
 356              	init_poly_survey_adv:
 357              		@ Function supports interworking.
 358              		@ args = 12, pretend = 0, frame = 16
 359              		@ frame_needed = 0, uses_anonymous_args = 0
 360 0000 F04F2DE9 		stmfd	sp!, {r4, r5, r6, r7, r8, r9, r10, fp, lr}
 361 0004 0080A0E1 		mov	r8, r0
 362 0008 14D04DE2 		sub	sp, sp, #20
 363 000c 0200A0E1 		mov	r0, r2
 364 0010 0240A0E1 		mov	r4, r2
 365 0014 0350A0E1 		mov	r5, r3
 366 0018 0170A0E1 		mov	r7, r1
 367 001c FEFFFFEB 		bl	__aeabi_f2d
 368 0020 0020A0E3 		mov	r2, #0
 369 0024 44359FE5 		ldr	r3, .L61
 370 0028 FEFFFFEB 		bl	__aeabi_ddiv
 371 002c 40259FE5 		ldr	r2, .L61+4
 372 0030 40359FE5 		ldr	r3, .L61+8
 373 0034 FEFFFFEB 		bl	__aeabi_dmul
 374 0038 FEFFFFEB 		bl	__aeabi_d2f
 375 003c 0010A0E3 		mov	r1, #0
 376 0040 00A0A0E1 		mov	r10, r0
 377 0044 0400A0E1 		mov	r0, r4
 378 0048 FEFFFFEB 		bl	__aeabi_fcmplt
 379 004c 000050E3 		cmp	r0, #0
 380 0050 0300000A 		beq	.L29
 381 0054 0400A0E1 		mov	r0, r4
 382 0058 1C159FE5 		ldr	r1, .L61+12
 383 005c FEFFFFEB 		bl	__aeabi_fadd
 384 0060 0040A0E1 		mov	r4, r0
 385              	.L29:
 386 0064 0400A0E1 		mov	r0, r4
 387 0068 0C159FE5 		ldr	r1, .L61+12
 388 006c FEFFFFEB 		bl	__aeabi_fcmpge
 389 0070 000050E3 		cmp	r0, #0
 390 0074 0300000A 		beq	.L31
 391 0078 0400A0E1 		mov	r0, r4
 392 007c F8149FE5 		ldr	r1, .L61+12
 393 0080 FEFFFFEB 		bl	__aeabi_fsub
 394 0084 0040A0E1 		mov	r4, r0
 395              	.L31:
 396 0088 3C309DE5 		ldr	r3, [sp, #60]	@ float
 397 008c EC949FE5 		ldr	r9, .L61+16
 398 0090 38209DE5 		ldr	r2, [sp, #56]	@ float
 399 0094 003089E5 		str	r3, [r9]	@ float
 400 0098 E4649FE5 		ldr	r6, .L61+20
 401 009c E4349FE5 		ldr	r3, .L61+24
 402 00a0 0080C6E5 		strb	r8, [r6]
 403 00a4 002083E5 		str	r2, [r3]	@ float
 404 00a8 DCB49FE5 		ldr	fp, .L61+28
 405 00ac 40209DE5 		ldr	r2, [sp, #64]	@ float
 406 00b0 D8349FE5 		ldr	r3, .L61+32
 407 00b4 D8849FE5 		ldr	r8, .L61+36
 408 00b8 002083E5 		str	r2, [r3]	@ float
 409 00bc 005088E5 		str	r5, [r8]	@ float
 410 00c0 0070CBE5 		strb	r7, [fp]
 411 00c4 0400A0E1 		mov	r0, r4
 412 00c8 FEFFFFEB 		bl	__aeabi_f2iz
 413 00cc C4349FE5 		ldr	r3, .L61+40
 414 00d0 C4149FE5 		ldr	r1, .L61+44
 415 00d4 000083E5 		str	r0, [r3]
 416 00d8 0400A0E1 		mov	r0, r4
 417 00dc FEFFFFEB 		bl	__aeabi_fadd
 418 00e0 FEFFFFEB 		bl	__aeabi_f2iz
 419 00e4 B4349FE5 		ldr	r3, .L61+48
 420 00e8 5A0F50E3 		cmp	r0, #360
 421 00ec 5A0F40A2 		subge	r0, r0, #360
 422 00f0 000083E5 		str	r0, [r3]
 423 00f4 A8149FE5 		ldr	r1, .L61+52
 424 00f8 0400A0E1 		mov	r0, r4
 425 00fc FEFFFFEB 		bl	__aeabi_fcmple
 426 0100 000050E3 		cmp	r0, #0
 427 0104 9C549FE5 		ldr	r5, .L61+56
 428 0108 0400001A 		bne	.L35
 429 010c 0400A0E1 		mov	r0, r4
 430 0110 94149FE5 		ldr	r1, .L61+60
 431 0114 FEFFFFEB 		bl	__aeabi_fcmpge
 432 0118 000050E3 		cmp	r0, #0
 433 011c 0600000A 		beq	.L57
 434              	.L35:
 435 0120 0A00A0E1 		mov	r0, r10
 436 0124 FE45A0E3 		mov	r4, #1065353216
 437 0128 044085E5 		str	r4, [r5, #4]	@ float
 438 012c FEFFFFEB 		bl	tanf
 439 0130 000085E5 		str	r0, [r5]	@ float
 440 0134 02A180E2 		add	r10, r0, #-2147483648
 441 0138 260000EA 		b	.L38
 442              	.L57:
 443 013c 0400A0E1 		mov	r0, r4
 444 0140 68149FE5 		ldr	r1, .L61+64
 445 0144 FEFFFFEB 		bl	__aeabi_fcmple
 446 0148 000050E3 		cmp	r0, #0
 447 014c 60749FE5 		ldr	r7, .L61+68
 448 0150 0A00000A 		beq	.L58
 449 0154 FE45A0E3 		mov	r4, #1065353216
 450 0158 0A00A0E1 		mov	r0, r10
 451 015c 004085E5 		str	r4, [r5]	@ float
 452 0160 FEFFFFEB 		bl	tanf
 453 0164 0010A0E1 		mov	r1, r0
 454 0168 0400A0E1 		mov	r0, r4
 455 016c FEFFFFEB 		bl	__aeabi_fdiv
 456 0170 07A0A0E1 		mov	r10, r7
 457 0174 0040A0E1 		mov	r4, r0
 458 0178 040085E5 		str	r0, [r5, #4]	@ float
 459 017c 150000EA 		b	.L38
 460              	.L58:
 461 0180 0400A0E1 		mov	r0, r4
 462 0184 2C149FE5 		ldr	r1, .L61+72
 463 0188 FEFFFFEB 		bl	__aeabi_fcmple
 464 018c 000050E3 		cmp	r0, #0
 465 0190 0700000A 		beq	.L59
 466 0194 0A00A0E1 		mov	r0, r10
 467 0198 047085E5 		str	r7, [r5, #4]	@ float
 468 019c FEFFFFEB 		bl	tanf
 469 01a0 023180E2 		add	r3, r0, #-2147483648
 470 01a4 00A0A0E1 		mov	r10, r0
 471 01a8 003085E5 		str	r3, [r5]	@ float
 472 01ac 0740A0E1 		mov	r4, r7
 473 01b0 080000EA 		b	.L38
 474              	.L59:
 475 01b4 0A00A0E1 		mov	r0, r10
 476 01b8 007085E5 		str	r7, [r5]	@ float
 477 01bc FEFFFFEB 		bl	tanf
 478 01c0 0010A0E1 		mov	r1, r0
 479 01c4 0700A0E1 		mov	r0, r7
 480 01c8 FEFFFFEB 		bl	__aeabi_fdiv
 481 01cc 040085E5 		str	r0, [r5, #4]	@ float
 482 01d0 0040A0E1 		mov	r4, r0
 483 01d4 FEA5A0E3 		mov	r10, #1065353216
 484              	.L38:
 485 01d8 0410A0E1 		mov	r1, r4
 486 01dc 0400A0E1 		mov	r0, r4
 487 01e0 FEFFFFEB 		bl	__aeabi_fmul
 488 01e4 0A10A0E1 		mov	r1, r10
 489 01e8 0050A0E1 		mov	r5, r0
 490 01ec 0A00A0E1 		mov	r0, r10
 491 01f0 FEFFFFEB 		bl	__aeabi_fmul
 492 01f4 0010A0E1 		mov	r1, r0
 493 01f8 0500A0E1 		mov	r0, r5
 494 01fc FEFFFFEB 		bl	__aeabi_fadd
 495 0200 FEFFFFEB 		bl	__aeabi_f2d
 496 0204 FEFFFFEB 		bl	sqrt
 497 0208 FEFFFFEB 		bl	__aeabi_d2f
 498 020c 0070A0E1 		mov	r7, r0
 499 0210 0710A0E1 		mov	r1, r7
 500 0214 0400A0E1 		mov	r0, r4
 501 0218 FEFFFFEB 		bl	__aeabi_fdiv
 502 021c 0710A0E1 		mov	r1, r7
 503 0220 0050A0E1 		mov	r5, r0
 504 0224 0A00A0E1 		mov	r0, r10
 505 0228 FEFFFFEB 		bl	__aeabi_fdiv
 506 022c 007099E5 		ldr	r7, [r9]	@ float
 507 0230 0040A0E1 		mov	r4, r0
 508 0234 0710A0E1 		mov	r1, r7
 509 0238 0500A0E1 		mov	r0, r5
 510 023c FEFFFFEB 		bl	__aeabi_fmul
 511 0240 74A39FE5 		ldr	r10, .L61+76
 512 0244 0710A0E1 		mov	r1, r7
 513 0248 00008AE5 		str	r0, [r10]	@ float
 514 024c 0400A0E1 		mov	r0, r4
 515 0250 FEFFFFEB 		bl	__aeabi_fmul
 516 0254 007098E5 		ldr	r7, [r8]	@ float
 517 0258 04008AE5 		str	r0, [r10, #4]	@ float
 518 025c 0710A0E1 		mov	r1, r7
 519 0260 0500A0E1 		mov	r0, r5
 520 0264 FEFFFFEB 		bl	__aeabi_fmul
 521 0268 50539FE5 		ldr	r5, .L61+80
 522 026c 0710A0E1 		mov	r1, r7
 523 0270 000085E5 		str	r0, [r5]	@ float
 524 0274 0090A0E1 		mov	r9, r0
 525 0278 0400A0E1 		mov	r0, r4
 526 027c FEFFFFEB 		bl	__aeabi_fmul
 527 0280 0030D6E5 		ldrb	r3, [r6]	@ zero_extendqisi2
 528 0284 0C10A0E3 		mov	r1, #12
 529 0288 910303E0 		mul	r3, r1, r3
 530 028c 30239FE5 		ldr	r2, .L61+84
 531 0290 040085E5 		str	r0, [r5, #4]	@ float
 532 0294 035082E0 		add	r5, r2, r3
 533 0298 034092E7 		ldr	r4, [r2, r3]	@ float
 534 029c 04339FE5 		ldr	r3, .L61+56
 535 02a0 008093E5 		ldr	r8, [r3]	@ float
 536 02a4 0810A0E1 		mov	r1, r8
 537 02a8 047093E5 		ldr	r7, [r3, #4]	@ float
 538 02ac 0C008DE5 		str	r0, [sp, #12]	@ float
 539 02b0 FEFFFFEB 		bl	__aeabi_fmul
 540 02b4 0710A0E1 		mov	r1, r7
 541 02b8 0030A0E1 		mov	r3, r0
 542 02bc 0900A0E1 		mov	r0, r9
 543 02c0 046095E5 		ldr	r6, [r5, #4]	@ float
 544 02c4 00308DE5 		str	r3, [sp]
 545 02c8 FEFFFFEB 		bl	__aeabi_fmul
 546 02cc 00309DE5 		ldr	r3, [sp]
 547 02d0 0010A0E1 		mov	r1, r0
 548 02d4 0300A0E1 		mov	r0, r3
 549 02d8 FEFFFFEB 		bl	__aeabi_fsub
 550 02dc 0010A0E3 		mov	r1, #0
 551 02e0 FEFFFFEB 		bl	__aeabi_fcmplt
 552 02e4 000050E3 		cmp	r0, #0
 553 02e8 0020DBE5 		ldrb	r2, [fp]	@ zero_extendqisi2
 554 02ec 01A0A0E3 		mov	r10, #1
 555 02f0 2500000A 		beq	.L44
 556              	.L45:
 557 02f4 02005AE1 		cmp	r10, r2
 558 02f8 490000AA 		bge	.L48
 559 02fc 0C10A0E3 		mov	r1, #12
 560 0300 9A0101E0 		mul	r1, r10, r1
 561 0304 013085E0 		add	r3, r5, r1
 562 0308 043093E5 		ldr	r3, [r3, #4]	@ float
 563 030c 01B095E7 		ldr	fp, [r5, r1]	@ float
 564 0310 0300A0E1 		mov	r0, r3
 565 0314 0610A0E1 		mov	r1, r6
 566 0318 04208DE5 		str	r2, [sp, #4]
 567 031c 00308DE5 		str	r3, [sp]
 568 0320 FEFFFFEB 		bl	__aeabi_fsub
 569 0324 0010A0E1 		mov	r1, r0
 570 0328 0800A0E1 		mov	r0, r8
 571 032c FEFFFFEB 		bl	__aeabi_fmul
 572 0330 0B10A0E1 		mov	r1, fp
 573 0334 00C0A0E1 		mov	ip, r0
 574 0338 0400A0E1 		mov	r0, r4
 575 033c 08C08DE5 		str	ip, [sp, #8]
 576 0340 FEFFFFEB 		bl	__aeabi_fsub
 577 0344 0010A0E1 		mov	r1, r0
 578 0348 0700A0E1 		mov	r0, r7
 579 034c FEFFFFEB 		bl	__aeabi_fmul
 580 0350 08C09DE5 		ldr	ip, [sp, #8]
 581 0354 0010A0E1 		mov	r1, r0
 582 0358 0C00A0E1 		mov	r0, ip
 583 035c FEFFFFEB 		bl	__aeabi_fadd
 584 0360 0010A0E3 		mov	r1, #0
 585 0364 FEFFFFEB 		bl	__aeabi_fcmpgt
 586 0368 00309DE5 		ldr	r3, [sp]
 587 036c 000050E3 		cmp	r0, #0
 588 0370 0630A001 		moveq	r3, r6
 589 0374 04B0A001 		moveq	fp, r4
 590 0378 04209DE5 		ldr	r2, [sp, #4]
 591 037c 01A08AE2 		add	r10, r10, #1
 592 0380 0360A0E1 		mov	r6, r3
 593 0384 0B40A0E1 		mov	r4, fp
 594 0388 D9FFFFEA 		b	.L45
 595              	.L44:
 596 038c 02005AE1 		cmp	r10, r2
 597 0390 230000AA 		bge	.L48
 598 0394 0C10A0E3 		mov	r1, #12
 599 0398 9A0101E0 		mul	r1, r10, r1
 600 039c 013085E0 		add	r3, r5, r1
 601 03a0 043093E5 		ldr	r3, [r3, #4]	@ float
 602 03a4 01B095E7 		ldr	fp, [r5, r1]	@ float
 603 03a8 0300A0E1 		mov	r0, r3
 604 03ac 0610A0E1 		mov	r1, r6
 605 03b0 04208DE5 		str	r2, [sp, #4]
 606 03b4 00308DE5 		str	r3, [sp]
 607 03b8 FEFFFFEB 		bl	__aeabi_fsub
 608 03bc 0010A0E1 		mov	r1, r0
 609 03c0 0800A0E1 		mov	r0, r8
 610 03c4 FEFFFFEB 		bl	__aeabi_fmul
 611 03c8 0B10A0E1 		mov	r1, fp
 612 03cc 00C0A0E1 		mov	ip, r0
 613 03d0 0400A0E1 		mov	r0, r4
 614 03d4 08C08DE5 		str	ip, [sp, #8]
 615 03d8 FEFFFFEB 		bl	__aeabi_fsub
 616 03dc 0010A0E1 		mov	r1, r0
 617 03e0 0700A0E1 		mov	r0, r7
 618 03e4 FEFFFFEB 		bl	__aeabi_fmul
 619 03e8 08C09DE5 		ldr	ip, [sp, #8]
 620 03ec 0010A0E1 		mov	r1, r0
 621 03f0 0C00A0E1 		mov	r0, ip
 622 03f4 FEFFFFEB 		bl	__aeabi_fadd
 623 03f8 0010A0E3 		mov	r1, #0
 624 03fc FEFFFFEB 		bl	__aeabi_fcmpgt
 625 0400 00309DE5 		ldr	r3, [sp]
 626 0404 000050E3 		cmp	r0, #0
 627 0408 0630A001 		moveq	r3, r6
 628 040c 04B0A001 		moveq	fp, r4
 629 0410 04209DE5 		ldr	r2, [sp, #4]
 630 0414 01A08AE2 		add	r10, r10, #1
 631 0418 0360A0E1 		mov	r6, r3
 632 041c 0B40A0E1 		mov	r4, fp
 633 0420 D9FFFFEA 		b	.L44
 634              	.L48:
 635 0424 0400A0E1 		mov	r0, r4
 636 0428 FEFFFFEB 		bl	__aeabi_f2d
 637 042c 0040A0E1 		mov	r4, r0
 638 0430 0900A0E1 		mov	r0, r9
 639 0434 0150A0E1 		mov	r5, r1
 640 0438 FEFFFFEB 		bl	__aeabi_f2d
 641 043c 0020A0E3 		mov	r2, #0
 642 0440 80319FE5 		ldr	r3, .L61+88
 643 0444 FEFFFFEB 		bl	__aeabi_dmul
 644 0448 0020A0E1 		mov	r2, r0
 645 044c 0130A0E1 		mov	r3, r1
 646 0450 0400A0E1 		mov	r0, r4
 647 0454 0510A0E1 		mov	r1, r5
 648 0458 FEFFFFEB 		bl	__aeabi_dadd
 649 045c FEFFFFEB 		bl	__aeabi_d2f
 650 0460 64919FE5 		ldr	r9, .L61+92
 651 0464 00A0A0E1 		mov	r10, r0
 652 0468 000089E5 		str	r0, [r9]	@ float
 653 046c 0600A0E1 		mov	r0, r6
 654 0470 FEFFFFEB 		bl	__aeabi_f2d
 655 0474 0040A0E1 		mov	r4, r0
 656 0478 0C009DE5 		ldr	r0, [sp, #12]	@ float
 657 047c 0150A0E1 		mov	r5, r1
 658 0480 FEFFFFEB 		bl	__aeabi_f2d
 659 0484 0020A0E3 		mov	r2, #0
 660 0488 38319FE5 		ldr	r3, .L61+88
 661 048c FEFFFFEB 		bl	__aeabi_dmul
 662 0490 0020A0E1 		mov	r2, r0
 663 0494 0130A0E1 		mov	r3, r1
 664 0498 0400A0E1 		mov	r0, r4
 665 049c 0510A0E1 		mov	r1, r5
 666 04a0 FEFFFFEB 		bl	__aeabi_dadd
 667 04a4 FEFFFFEB 		bl	__aeabi_d2f
 668 04a8 0810A0E1 		mov	r1, r8
 669 04ac 0050A0E1 		mov	r5, r0
 670 04b0 040089E5 		str	r0, [r9, #4]	@ float
 671 04b4 0A00A0E1 		mov	r0, r10
 672 04b8 FEFFFFEB 		bl	__aeabi_fadd
 673 04bc 0C419FE5 		ldr	r4, .L61+96
 674 04c0 0710A0E1 		mov	r1, r7
 675 04c4 000084E5 		str	r0, [r4]	@ float
 676 04c8 0500A0E1 		mov	r0, r5
 677 04cc FEFFFFEB 		bl	__aeabi_fadd
 678 04d0 040084E5 		str	r0, [r4, #4]	@ float
 679 04d4 030099E8 		ldmia	r9, {r0, r1}
 680 04d8 0C0094E8 		ldmia	r4, {r2, r3}
 681 04dc FEFFFFEB 		bl	get_two_intersects.constprop.0
 682 04e0 EC509FE5 		ldr	r5, .L61+100
 683 04e4 000050E3 		cmp	r0, #0
 684 04e8 0000C505 		streqb	r0, [r5]
 685 04ec 1B00000A 		beq	.L52
 686 04f0 C4309FE5 		ldr	r3, .L61+76
 687 04f4 000099E5 		ldr	r0, [r9]	@ float
 688 04f8 001093E5 		ldr	r1, [r3]	@ float
 689 04fc FEFFFFEB 		bl	__aeabi_fsub
 690 0500 D0409FE5 		ldr	r4, .L61+104
 691 0504 B0309FE5 		ldr	r3, .L61+76
 692 0508 000084E5 		str	r0, [r4]	@ float
 693 050c 041093E5 		ldr	r1, [r3, #4]	@ float
 694 0510 040099E5 		ldr	r0, [r9, #4]	@ float
 695 0514 FEFFFFEB 		bl	__aeabi_fsub
 696 0518 BC309FE5 		ldr	r3, .L61+108
 697 051c 0020A0E3 		mov	r2, #0
 698 0520 0020C3E5 		strb	r2, [r3]
 699 0524 B4209FE5 		ldr	r2, .L61+112
 700 0528 0030A0E3 		mov	r3, #0
 701 052c 003082E5 		str	r3, [r2]	@ float
 702 0530 AC209FE5 		ldr	r2, .L61+116
 703 0534 0310A0E3 		mov	r1, #3
 704 0538 0010C2E5 		strb	r1, [r2]
 705 053c 4C209FE5 		ldr	r2, .L61+32
 706 0540 001092E5 		ldr	r1, [r2]	@ float
 707 0544 9C209FE5 		ldr	r2, .L61+120
 708 0548 001082E5 		str	r1, [r2]	@ float
 709 054c 98209FE5 		ldr	r2, .L61+124
 710 0550 003082E5 		str	r3, [r2]	@ float
 711 0554 0130A0E3 		mov	r3, #1
 712 0558 040084E5 		str	r0, [r4, #4]	@ float
 713 055c 0030C5E5 		strb	r3, [r5]
 714              	.L52:
 715 0560 0000A0E3 		mov	r0, #0
 716 0564 14D08DE2 		add	sp, sp, #20
 717              		@ sp needed
 718 0568 F04FBDE8 		ldmfd	sp!, {r4, r5, r6, r7, r8, r9, r10, fp, lr}
 719 056c 1EFF2FE1 		bx	lr
 720              	.L62:
 721              		.align	2
 722              	.L61:
 723 0570 00806640 		.word	1080459264
 724 0574 182D4454 		.word	1413754136
 725 0578 FB210940 		.word	1074340347
 726 057c 0000B443 		.word	1135869952
 727 0580 00000000 		.word	psa_min_rad
 728 0584 00000000 		.word	poly_first
 729 0588 00000000 		.word	psa_shot_dist
 730 058c 00000000 		.word	poly_count
 731 0590 00000000 		.word	psa_altitude
 732 0594 00000000 		.word	psa_sweep_width
 733 0598 00000000 		.word	segment_angle
 734 059c 00003443 		.word	1127481344
 735 05a0 00000000 		.word	return_angle
 736 05a4 00003442 		.word	1110704128
 737 05a8 00000000 		.word	dir_vec
 738 05ac 00809D43 		.word	1134395392
 739 05b0 00000743 		.word	1124532224
 740 05b4 000080BF 		.word	-1082130432
 741 05b8 00006143 		.word	1130430464
 742 05bc 00000000 		.word	rad_vec
 743 05c0 00000000 		.word	sweep_vec
 744 05c4 00000000 		.word	waypoints
 745 05c8 0000E03F 		.word	1071644672
 746 05cc 00000000 		.word	seg_start
 747 05d0 00000000 		.word	seg_end
 748 05d4 00000000 		.word	psa_stage
 749 05d8 00000000 		.word	entry_center
 750 05dc 00000000 		.word	v_ctl_climb_mode
 751 05e0 00000000 		.word	nav_pitch
 752 05e4 00000000 		.word	v_ctl_mode
 753 05e8 00000000 		.word	nav_altitude
 754 05ec 00000000 		.word	v_ctl_altitude_pre_climb
 756              		.global	__aeabi_i2d
 757              		.global	__aeabi_dsub
 758              		.section	.text.poly_survey_adv,"ax",%progbits
 759              		.align	2
 760              		.global	poly_survey_adv
 762              	poly_survey_adv:
 763              		@ Function supports interworking.
 764              		@ args = 0, pretend = 0, frame = 32
 765              		@ frame_needed = 0, uses_anonymous_args = 0
 766 0000 F4369FE5 		ldr	r3, .L123
 767 0004 F04F2DE9 		stmfd	sp!, {r4, r5, r6, r7, r8, r9, r10, fp, lr}
 768 0008 0090A0E3 		mov	r9, #0
 769 000c 0090C3E5 		strb	r9, [r3]
 770 0010 E8369FE5 		ldr	r3, .L123+4
 771 0014 0080A0E3 		mov	r8, #0
 772 0018 008083E5 		str	r8, [r3]	@ float
 773 001c E0769FE5 		ldr	r7, .L123+8
 774 0020 E0369FE5 		ldr	r3, .L123+12
 775 0024 0320A0E3 		mov	r2, #3
 776 0028 0020C3E5 		strb	r2, [r3]
 777 002c D8369FE5 		ldr	r3, .L123+16
 778 0030 002097E5 		ldr	r2, [r7]	@ float
 779 0034 D4669FE5 		ldr	r6, .L123+20
 780 0038 002083E5 		str	r2, [r3]	@ float
 781 003c D0369FE5 		ldr	r3, .L123+24
 782 0040 008083E5 		str	r8, [r3]	@ float
 783 0044 0030D6E5 		ldrb	r3, [r6]	@ zero_extendqisi2
 784 0048 010053E3 		cmp	r3, #1
 785 004c 2CD04DE2 		sub	sp, sp, #44
 786 0050 5600001A 		bne	.L65
 787 0054 BC269FE5 		ldr	r2, .L123+28
 788 0058 BC369FE5 		ldr	r3, .L123+32
 789 005c 002092E5 		ldr	r2, [r2]
 790 0060 000093E5 		ldr	r0, [r3]	@ float
 791 0064 022182E2 		add	r2, r2, #-2147483648
 792 0068 041093E5 		ldr	r1, [r3, #4]	@ float
 793 006c FEFFFFEB 		bl	nav_circle_XY
 794 0070 A8369FE5 		ldr	r3, .L123+36
 795 0074 000093E5 		ldr	r0, [r3]
 796 0078 FEFFFFEB 		bl	__aeabi_i2d
 797 007c A0369FE5 		ldr	r3, .L123+40
 798 0080 0040A0E1 		mov	r4, r0
 799 0084 000093E5 		ldr	r0, [r3]	@ float
 800 0088 0150A0E1 		mov	r5, r1
 801 008c FEFFFFEB 		bl	__aeabi_f2d
 802 0090 90269FE5 		ldr	r2, .L123+44
 803 0094 90369FE5 		ldr	r3, .L123+48
 804 0098 FEFFFFEB 		bl	__aeabi_dmul
 805 009c 0020A0E1 		mov	r2, r0
 806 00a0 0130A0E1 		mov	r3, r1
 807 00a4 0400A0E1 		mov	r0, r4
 808 00a8 0510A0E1 		mov	r1, r5
 809 00ac FEFFFFEB 		bl	__aeabi_dsub
 810 00b0 FEFFFFEB 		bl	__aeabi_d2f
 811 00b4 0950A0E1 		mov	r5, r9
 812 00b8 0040A0E1 		mov	r4, r0
 813              	.L66:
 814 00bc 0400A0E1 		mov	r0, r4
 815 00c0 0010A0E3 		mov	r1, #0
 816 00c4 FEFFFFEB 		bl	__aeabi_fcmplt
 817 00c8 000050E3 		cmp	r0, #0
 818 00cc FF9005E2 		and	r9, r5, #255
 819 00d0 1000000A 		beq	.L68
 820 00d4 015085E2 		add	r5, r5, #1
 821 00d8 010C55E3 		cmp	r5, #256
 822 00dc 0400000A 		beq	.L120
 823 00e0 0400A0E1 		mov	r0, r4
 824 00e4 44169FE5 		ldr	r1, .L123+52
 825 00e8 FEFFFFEB 		bl	__aeabi_fadd
 826 00ec 0040A0E1 		mov	r4, r0
 827 00f0 F1FFFFEA 		b	.L66
 828              	.L120:
 829 00f4 0090A0E3 		mov	r9, #0
 830 00f8 060000EA 		b	.L68
 831              	.L71:
 832 00fc 019089E2 		add	r9, r9, #1
 833 0100 FF9019E2 		ands	r9, r9, #255
 834 0104 0800000A 		beq	.L75
 835 0108 0400A0E1 		mov	r0, r4
 836 010c 1C169FE5 		ldr	r1, .L123+52
 837 0110 FEFFFFEB 		bl	__aeabi_fsub
 838 0114 0040A0E1 		mov	r4, r0
 839              	.L68:
 840 0118 0400A0E1 		mov	r0, r4
 841 011c 0C169FE5 		ldr	r1, .L123+52
 842 0120 FEFFFFEB 		bl	__aeabi_fcmpge
 843 0124 000050E3 		cmp	r0, #0
 844 0128 F3FFFF1A 		bne	.L71
 845              	.L75:
 846 012c 0400A0E1 		mov	r0, r4
 847 0130 FC159FE5 		ldr	r1, .L123+56
 848 0134 FEFFFFEB 		bl	__aeabi_fcmpgt
 849 0138 000050E3 		cmp	r0, #0
 850 013c 0400001A 		bne	.L72
 851 0140 0400A0E1 		mov	r0, r4
 852 0144 EC159FE5 		ldr	r1, .L123+60
 853 0148 FEFFFFEB 		bl	__aeabi_fcmplt
 854 014c 000050E3 		cmp	r0, #0
 855 0150 1600000A 		beq	.L65
 856              	.L72:
 857 0154 E0259FE5 		ldr	r2, .L123+64
 858 0158 E0359FE5 		ldr	r3, .L123+68
 859 015c 00208DE5 		str	r2, [sp]	@ float
 860 0160 000093E5 		ldr	r0, [r3]	@ float
 861 0164 041093E5 		ldr	r1, [r3, #4]	@ float
 862 0168 D4359FE5 		ldr	r3, .L123+72
 863 016c 002093E5 		ldr	r2, [r3]	@ float
 864 0170 D0359FE5 		ldr	r3, .L123+76
 865 0174 003093E5 		ldr	r3, [r3]	@ float
 866 0178 FEFFFFEB 		bl	nav_approaching_xy
 867 017c 000050E3 		cmp	r0, #0
 868 0180 0A00000A 		beq	.L65
 869 0184 C0359FE5 		ldr	r3, .L123+80
 870 0188 001097E5 		ldr	r1, [r7]	@ float
 871 018c 000093E5 		ldr	r0, [r3]	@ float
 872 0190 FEFFFFEB 		bl	__aeabi_fsub
 873 0194 B4159FE5 		ldr	r1, .L123+84
 874 0198 0201C0E3 		bic	r0, r0, #-2147483648
 875 019c FEFFFFEB 		bl	__aeabi_fcmple
 876 01a0 000050E3 		cmp	r0, #0
 877 01a4 0230A013 		movne	r3, #2
 878 01a8 0030C615 		strneb	r3, [r6]
 879 01ac FEFFFF1B 		blne	nav_init_stage
 880              	.L65:
 881 01b0 0030D6E5 		ldrb	r3, [r6]	@ zero_extendqisi2
 882 01b4 020053E3 		cmp	r3, #2
 883 01b8 50759FE5 		ldr	r7, .L123+20
 884 01bc A300001A 		bne	.L78
 885 01c0 78459FE5 		ldr	r4, .L123+68
 886 01c4 88559FE5 		ldr	r5, .L123+88
 887 01c8 000094E5 		ldr	r0, [r4]	@ float
 888 01cc 041094E5 		ldr	r1, [r4, #4]	@ float
 889 01d0 002095E5 		ldr	r2, [r5]	@ float
 890 01d4 043095E5 		ldr	r3, [r5, #4]	@ float
 891 01d8 FEFFFFEB 		bl	nav_route_xy
 892 01dc 00808DE5 		str	r8, [sp]	@ float
 893 01e0 000095E5 		ldr	r0, [r5]	@ float
 894 01e4 041095E5 		ldr	r1, [r5, #4]	@ float
 895 01e8 002094E5 		ldr	r2, [r4]	@ float
 896 01ec 043094E5 		ldr	r3, [r4, #4]	@ float
 897 01f0 FEFFFFEB 		bl	nav_approaching_xy
 898 01f4 000050E3 		cmp	r0, #0
 899 01f8 3B01000A 		beq	.L118
 900 01fc 54659FE5 		ldr	r6, .L123+92
 901 0200 009095E5 		ldr	r9, [r5]	@ float
 902 0204 00B096E5 		ldr	fp, [r6]	@ float
 903 0208 0900A0E1 		mov	r0, r9
 904 020c 0B10A0E1 		mov	r1, fp
 905 0210 FEFFFFEB 		bl	__aeabi_fsub
 906 0214 40859FE5 		ldr	r8, .L123+96
 907 0218 04A096E5 		ldr	r10, [r6, #4]	@ float
 908 021c 045095E5 		ldr	r5, [r5, #4]	@ float
 909 0220 000088E5 		str	r0, [r8]	@ float
 910 0224 0A10A0E1 		mov	r1, r10
 911 0228 0500A0E1 		mov	r0, r5
 912 022c FEFFFFEB 		bl	__aeabi_fsub
 913 0230 0B10A0E1 		mov	r1, fp
 914 0234 040088E5 		str	r0, [r8, #4]	@ float
 915 0238 0B00A0E1 		mov	r0, fp
 916 023c FEFFFFEB 		bl	__aeabi_fadd
 917 0240 0010A0E1 		mov	r1, r0
 918 0244 0900A0E1 		mov	r0, r9
 919 0248 FEFFFFEB 		bl	__aeabi_fsub
 920 024c 0C859FE5 		ldr	r8, .L123+100
 921 0250 0A10A0E1 		mov	r1, r10
 922 0254 000088E5 		str	r0, [r8]	@ float
 923 0258 0A00A0E1 		mov	r0, r10
 924 025c FEFFFFEB 		bl	__aeabi_fadd
 925 0260 0010A0E1 		mov	r1, r0
 926 0264 0500A0E1 		mov	r0, r5
 927 0268 FEFFFFEB 		bl	__aeabi_fsub
 928 026c 040088E5 		str	r0, [r8, #4]	@ float
 929 0270 EC849FE5 		ldr	r8, .L123+104
 930 0274 04B098E5 		ldr	fp, [r8, #4]	@ float
 931 0278 041094E5 		ldr	r1, [r4, #4]	@ float
 932 027c 0B00A0E1 		mov	r0, fp
 933 0280 FEFFFFEB 		bl	__aeabi_fadd
 934 0284 00A098E5 		ldr	r10, [r8]	@ float
 935 0288 0030A0E1 		mov	r3, r0
 936 028c 0A10A0E1 		mov	r1, r10
 937 0290 000094E5 		ldr	r0, [r4]	@ float
 938 0294 0C308DE5 		str	r3, [sp, #12]
 939 0298 FEFFFFEB 		bl	__aeabi_fadd
 940 029c 0C309DE5 		ldr	r3, [sp, #12]
 941 02a0 18008DE5 		str	r0, [sp, #24]	@ float
 942 02a4 0A10A0E1 		mov	r1, r10
 943 02a8 0900A0E1 		mov	r0, r9
 944 02ac 1C308DE5 		str	r3, [sp, #28]	@ float
 945 02b0 FEFFFFEB 		bl	__aeabi_fadd
 946 02b4 0B10A0E1 		mov	r1, fp
 947 02b8 20008DE5 		str	r0, [sp, #32]	@ float
 948 02bc 0500A0E1 		mov	r0, r5
 949 02c0 FEFFFFEB 		bl	__aeabi_fadd
 950 02c4 24008DE5 		str	r0, [sp, #36]	@ float
 951 02c8 18308DE2 		add	r3, sp, #24
 952 02cc 28C08DE2 		add	ip, sp, #40
 953 02d0 030093E8 		ldmia	r3, {r0, r1}
 954 02d4 0C001CE9 		ldmdb	ip, {r2, r3}
 955 02d8 FEFFFFEB 		bl	get_two_intersects.constprop.0
 956 02dc 000050E3 		cmp	r0, #0
 957 02e0 0201000A 		beq	.L108
 958 02e4 002094E5 		ldr	r2, [r4]	@ float
 959 02e8 00B098E5 		ldr	fp, [r8]	@ float
 960 02ec 0200A0E1 		mov	r0, r2
 961 02f0 0B10A0E1 		mov	r1, fp
 962 02f4 005096E5 		ldr	r5, [r6]	@ float
 963 02f8 0C208DE5 		str	r2, [sp, #12]
 964 02fc FEFFFFEB 		bl	__aeabi_fsub
 965 0300 0510A0E1 		mov	r1, r5
 966 0304 0090A0E1 		mov	r9, r0
 967 0308 0500A0E1 		mov	r0, r5
 968 030c FEFFFFEB 		bl	__aeabi_fadd
 969 0310 0010A0E1 		mov	r1, r0
 970 0314 0900A0E1 		mov	r0, r9
 971 0318 FEFFFFEB 		bl	__aeabi_fsub
 972 031c 44349FE5 		ldr	r3, .L123+108
 973 0320 04A094E5 		ldr	r10, [r4, #4]	@ float
 974 0324 049098E5 		ldr	r9, [r8, #4]	@ float
 975 0328 000083E5 		str	r0, [r3]	@ float
 976 032c 0910A0E1 		mov	r1, r9
 977 0330 0A00A0E1 		mov	r0, r10
 978 0334 FEFFFFEB 		bl	__aeabi_fsub
 979 0338 046096E5 		ldr	r6, [r6, #4]	@ float
 980 033c 0040A0E1 		mov	r4, r0
 981 0340 0610A0E1 		mov	r1, r6
 982 0344 0600A0E1 		mov	r0, r6
 983 0348 FEFFFFEB 		bl	__aeabi_fadd
 984 034c 0010A0E1 		mov	r1, r0
 985 0350 0400A0E1 		mov	r0, r4
 986 0354 FEFFFFEB 		bl	__aeabi_fsub
 987 0358 08C49FE5 		ldr	ip, .L123+108
 988 035c 0C209DE5 		ldr	r2, [sp, #12]
 989 0360 04008CE5 		str	r0, [ip, #4]	@ float
 990 0364 0200A0E1 		mov	r0, r2
 991 0368 FEFFFFEB 		bl	__aeabi_f2d
 992 036c 10008DE5 		str	r0, [sp, #16]
 993 0370 14108DE5 		str	r1, [sp, #20]
 994 0374 0500A0E1 		mov	r0, r5
 995 0378 FEFFFFEB 		bl	__aeabi_f2d
 996 037c 0020A0E1 		mov	r2, r0
 997 0380 0130A0E1 		mov	r3, r1
 998 0384 FEFFFFEB 		bl	__aeabi_dadd
 999 0388 0040A0E1 		mov	r4, r0
 1000 038c 0B00A0E1 		mov	r0, fp
 1001 0390 0150A0E1 		mov	r5, r1
 1002 0394 FEFFFFEB 		bl	__aeabi_f2d
 1003 0398 0020A0E1 		mov	r2, r0
 1004 039c 0130A0E1 		mov	r3, r1
 1005 03a0 0400A0E1 		mov	r0, r4
 1006 03a4 0510A0E1 		mov	r1, r5
 1007 03a8 FEFFFFEB 		bl	__aeabi_dadd
 1008 03ac 0020A0E3 		mov	r2, #0
 1009 03b0 B4339FE5 		ldr	r3, .L123+112
 1010 03b4 FEFFFFEB 		bl	__aeabi_dmul
 1011 03b8 0020A0E1 		mov	r2, r0
 1012 03bc 0130A0E1 		mov	r3, r1
 1013 03c0 10108DE2 		add	r1, sp, #16
 1014 03c4 030091E8 		ldmia	r1, {r0-r1}
 1015 03c8 FEFFFFEB 		bl	__aeabi_dsub
 1016 03cc FEFFFFEB 		bl	__aeabi_d2f
 1017 03d0 98839FE5 		ldr	r8, .L123+116
 1018 03d4 000088E5 		str	r0, [r8]	@ float
 1019 03d8 0A00A0E1 		mov	r0, r10
 1020 03dc FEFFFFEB 		bl	__aeabi_f2d
 1021 03e0 00A0A0E1 		mov	r10, r0
 1022 03e4 0600A0E1 		mov	r0, r6
 1023 03e8 01B0A0E1 		mov	fp, r1
 1024 03ec FEFFFFEB 		bl	__aeabi_f2d
 1025 03f0 0020A0E1 		mov	r2, r0
 1026 03f4 0130A0E1 		mov	r3, r1
 1027 03f8 FEFFFFEB 		bl	__aeabi_dadd
 1028 03fc 0040A0E1 		mov	r4, r0
 1029 0400 0900A0E1 		mov	r0, r9
 1030 0404 0150A0E1 		mov	r5, r1
 1031 0408 FEFFFFEB 		bl	__aeabi_f2d
 1032 040c 0020A0E1 		mov	r2, r0
 1033 0410 0130A0E1 		mov	r3, r1
 1034 0414 0400A0E1 		mov	r0, r4
 1035 0418 0510A0E1 		mov	r1, r5
 1036 041c FEFFFFEB 		bl	__aeabi_dadd
 1037 0420 0020A0E3 		mov	r2, #0
 1038 0424 40339FE5 		ldr	r3, .L123+112
 1039 0428 FEFFFFEB 		bl	__aeabi_dmul
 1040 042c 0130A0E1 		mov	r3, r1
 1041 0430 0020A0E1 		mov	r2, r0
 1042 0434 0B10A0E1 		mov	r1, fp
 1043 0438 0A00A0E1 		mov	r0, r10
 1044 043c FEFFFFEB 		bl	__aeabi_dsub
 1045 0440 FEFFFFEB 		bl	__aeabi_d2f
 1046 0444 0330A0E3 		mov	r3, #3
 1047 0448 040088E5 		str	r0, [r8, #4]	@ float
 1048 044c 540000EA 		b	.L119
 1049              	.L78:
 1050 0450 030053E3 		cmp	r3, #3
 1051 0454 4000001A 		bne	.L81
 1052 0458 B8229FE5 		ldr	r2, .L123+28
 1053 045c F8329FE5 		ldr	r3, .L123+96
 1054 0460 002092E5 		ldr	r2, [r2]
 1055 0464 000093E5 		ldr	r0, [r3]	@ float
 1056 0468 022182E2 		add	r2, r2, #-2147483648
 1057 046c 041093E5 		ldr	r1, [r3, #4]	@ float
 1058 0470 FEFFFFEB 		bl	nav_circle_XY
 1059 0474 F8329FE5 		ldr	r3, .L123+120
 1060 0478 000093E5 		ldr	r0, [r3]
 1061 047c FEFFFFEB 		bl	__aeabi_i2d
 1062 0480 9C329FE5 		ldr	r3, .L123+40
 1063 0484 0040A0E1 		mov	r4, r0
 1064 0488 000093E5 		ldr	r0, [r3]	@ float
 1065 048c 0150A0E1 		mov	r5, r1
 1066 0490 FEFFFFEB 		bl	__aeabi_f2d
 1067 0494 8C229FE5 		ldr	r2, .L123+44
 1068 0498 8C329FE5 		ldr	r3, .L123+48
 1069 049c FEFFFFEB 		bl	__aeabi_dmul
 1070 04a0 0020A0E1 		mov	r2, r0
 1071 04a4 0130A0E1 		mov	r3, r1
 1072 04a8 0400A0E1 		mov	r0, r4
 1073 04ac 0510A0E1 		mov	r1, r5
 1074 04b0 FEFFFFEB 		bl	__aeabi_dsub
 1075 04b4 FEFFFFEB 		bl	__aeabi_d2f
 1076 04b8 0050A0E3 		mov	r5, #0
 1077 04bc 0040A0E1 		mov	r4, r0
 1078              	.L82:
 1079 04c0 0400A0E1 		mov	r0, r4
 1080 04c4 0010A0E3 		mov	r1, #0
 1081 04c8 FEFFFFEB 		bl	__aeabi_fcmplt
 1082 04cc 000050E3 		cmp	r0, #0
 1083 04d0 FF7005E2 		and	r7, r5, #255
 1084 04d4 1000000A 		beq	.L84
 1085 04d8 015085E2 		add	r5, r5, #1
 1086 04dc 010C55E3 		cmp	r5, #256
 1087 04e0 0400000A 		beq	.L121
 1088 04e4 0400A0E1 		mov	r0, r4
 1089 04e8 40129FE5 		ldr	r1, .L123+52
 1090 04ec FEFFFFEB 		bl	__aeabi_fadd
 1091 04f0 0040A0E1 		mov	r4, r0
 1092 04f4 F1FFFFEA 		b	.L82
 1093              	.L121:
 1094 04f8 0070A0E3 		mov	r7, #0
 1095 04fc 060000EA 		b	.L84
 1096              	.L87:
 1097 0500 017087E2 		add	r7, r7, #1
 1098 0504 FF7017E2 		ands	r7, r7, #255
 1099 0508 0800000A 		beq	.L91
 1100 050c 0400A0E1 		mov	r0, r4
 1101 0510 18129FE5 		ldr	r1, .L123+52
 1102 0514 FEFFFFEB 		bl	__aeabi_fsub
 1103 0518 0040A0E1 		mov	r4, r0
 1104              	.L84:
 1105 051c 0400A0E1 		mov	r0, r4
 1106 0520 08129FE5 		ldr	r1, .L123+52
 1107 0524 FEFFFFEB 		bl	__aeabi_fcmpge
 1108 0528 000050E3 		cmp	r0, #0
 1109 052c F3FFFF1A 		bne	.L87
 1110              	.L91:
 1111 0530 0400A0E1 		mov	r0, r4
 1112 0534 F8119FE5 		ldr	r1, .L123+56
 1113 0538 FEFFFFEB 		bl	__aeabi_fcmpgt
 1114 053c 000050E3 		cmp	r0, #0
 1115 0540 6400001A 		bne	.L88
 1116 0544 0400A0E1 		mov	r0, r4
 1117 0548 E8119FE5 		ldr	r1, .L123+60
 1118 054c FEFFFFEB 		bl	__aeabi_fcmplt
 1119 0550 000050E3 		cmp	r0, #0
 1120 0554 5F00001A 		bne	.L88
 1121 0558 630000EA 		b	.L118
 1122              	.L81:
 1123 055c 040053E3 		cmp	r3, #4
 1124 0560 1100001A 		bne	.L93
 1125 0564 F4419FE5 		ldr	r4, .L123+100
 1126 0568 F8519FE5 		ldr	r5, .L123+108
 1127 056c 000094E5 		ldr	r0, [r4]	@ float
 1128 0570 041094E5 		ldr	r1, [r4, #4]	@ float
 1129 0574 002095E5 		ldr	r2, [r5]	@ float
 1130 0578 043095E5 		ldr	r3, [r5, #4]	@ float
 1131 057c FEFFFFEB 		bl	nav_route_xy
 1132 0580 00808DE5 		str	r8, [sp]	@ float
 1133 0584 000095E5 		ldr	r0, [r5]	@ float
 1134 0588 041095E5 		ldr	r1, [r5, #4]	@ float
 1135 058c 002094E5 		ldr	r2, [r4]	@ float
 1136 0590 043094E5 		ldr	r3, [r4, #4]	@ float
 1137 0594 FEFFFFEB 		bl	nav_approaching_xy
 1138 0598 000050E3 		cmp	r0, #0
 1139 059c 5200000A 		beq	.L118
 1140 05a0 0530A0E3 		mov	r3, #5
 1141              	.L119:
 1142 05a4 0030C7E5 		strb	r3, [r7]
 1143 05a8 4E0000EA 		b	.L116
 1144              	.L93:
 1145 05ac 050053E3 		cmp	r3, #5
 1146 05b0 4D00001A 		bne	.L118
 1147 05b4 5C319FE5 		ldr	r3, .L123+28
 1148 05b8 000093E5 		ldr	r0, [r3]	@ float
 1149 05bc 0010A0E1 		mov	r1, r0
 1150 05c0 FEFFFFEB 		bl	__aeabi_fadd
 1151 05c4 AC319FE5 		ldr	r3, .L123+124
 1152 05c8 001093E5 		ldr	r1, [r3]	@ float
 1153 05cc FEFFFFEB 		bl	__aeabi_fadd
 1154 05d0 3F14A0E3 		mov	r1, #1056964608
 1155 05d4 020180E2 		add	r0, r0, #-2147483648
 1156 05d8 FEFFFFEB 		bl	__aeabi_fmul
 1157 05dc 8C419FE5 		ldr	r4, .L123+116
 1158 05e0 0020A0E1 		mov	r2, r0
 1159 05e4 041094E5 		ldr	r1, [r4, #4]	@ float
 1160 05e8 000094E5 		ldr	r0, [r4]	@ float
 1161 05ec FEFFFFEB 		bl	nav_circle_XY
 1162 05f0 28319FE5 		ldr	r3, .L123+36
 1163 05f4 000093E5 		ldr	r0, [r3]
 1164 05f8 FEFFFFEB 		bl	__aeabi_i2d
 1165 05fc 20319FE5 		ldr	r3, .L123+40
 1166 0600 0040A0E1 		mov	r4, r0
 1167 0604 000093E5 		ldr	r0, [r3]	@ float
 1168 0608 0150A0E1 		mov	r5, r1
 1169 060c FEFFFFEB 		bl	__aeabi_f2d
 1170 0610 10219FE5 		ldr	r2, .L123+44
 1171 0614 10319FE5 		ldr	r3, .L123+48
 1172 0618 FEFFFFEB 		bl	__aeabi_dmul
 1173 061c 0020A0E1 		mov	r2, r0
 1174 0620 0130A0E1 		mov	r3, r1
 1175 0624 0400A0E1 		mov	r0, r4
 1176 0628 0510A0E1 		mov	r1, r5
 1177 062c FEFFFFEB 		bl	__aeabi_dsub
 1178 0630 FEFFFFEB 		bl	__aeabi_d2f
 1179 0634 0050A0E3 		mov	r5, #0
 1180 0638 0040A0E1 		mov	r4, r0
 1181              	.L94:
 1182 063c 0400A0E1 		mov	r0, r4
 1183 0640 0010A0E3 		mov	r1, #0
 1184 0644 FEFFFFEB 		bl	__aeabi_fcmplt
 1185 0648 000050E3 		cmp	r0, #0
 1186 064c FF7005E2 		and	r7, r5, #255
 1187 0650 1000000A 		beq	.L96
 1188 0654 015085E2 		add	r5, r5, #1
 1189 0658 010C55E3 		cmp	r5, #256
 1190 065c 0400000A 		beq	.L122
 1191 0660 0400A0E1 		mov	r0, r4
 1192 0664 C4109FE5 		ldr	r1, .L123+52
 1193 0668 FEFFFFEB 		bl	__aeabi_fadd
 1194 066c 0040A0E1 		mov	r4, r0
 1195 0670 F1FFFFEA 		b	.L94
 1196              	.L122:
 1197 0674 0070A0E3 		mov	r7, #0
 1198 0678 060000EA 		b	.L96
 1199              	.L99:
 1200 067c 017087E2 		add	r7, r7, #1
 1201 0680 FF7017E2 		ands	r7, r7, #255
 1202 0684 0800000A 		beq	.L103
 1203 0688 0400A0E1 		mov	r0, r4
 1204 068c 9C109FE5 		ldr	r1, .L123+52
 1205 0690 FEFFFFEB 		bl	__aeabi_fsub
 1206 0694 0040A0E1 		mov	r4, r0
 1207              	.L96:
 1208 0698 0400A0E1 		mov	r0, r4
 1209 069c 8C109FE5 		ldr	r1, .L123+52
 1210 06a0 FEFFFFEB 		bl	__aeabi_fcmpge
 1211 06a4 000050E3 		cmp	r0, #0
 1212 06a8 F3FFFF1A 		bne	.L99
 1213              	.L103:
 1214 06ac 0400A0E1 		mov	r0, r4
 1215 06b0 7C109FE5 		ldr	r1, .L123+56
 1216 06b4 FEFFFFEB 		bl	__aeabi_fcmpgt
 1217 06b8 000050E3 		cmp	r0, #0
 1218 06bc 0700001A 		bne	.L100
 1219 06c0 0400A0E1 		mov	r0, r4
 1220 06c4 6C109FE5 		ldr	r1, .L123+60
 1221 06c8 FEFFFFEB 		bl	__aeabi_fcmplt
 1222 06cc 000050E3 		cmp	r0, #0
 1223 06d0 0200001A 		bne	.L100
 1224 06d4 040000EA 		b	.L118
 1225              	.L88:
 1226 06d8 0430A0E3 		mov	r3, #4
 1227 06dc 000000EA 		b	.L117
 1228              	.L100:
 1229 06e0 0230A0E3 		mov	r3, #2
 1230              	.L117:
 1231 06e4 0030C6E5 		strb	r3, [r6]
 1232              	.L116:
 1233 06e8 FEFFFFEB 		bl	nav_init_stage
 1234              	.L118:
 1235 06ec 0100A0E3 		mov	r0, #1
 1236              	.L108:
 1237 06f0 2CD08DE2 		add	sp, sp, #44
 1238              		@ sp needed
 1239 06f4 F04FBDE8 		ldmfd	sp!, {r4, r5, r6, r7, r8, r9, r10, fp, lr}
 1240 06f8 1EFF2FE1 		bx	lr
 1241              	.L124:
 1242              		.align	2
 1243              	.L123:
 1244 06fc 00000000 		.word	v_ctl_climb_mode
 1245 0700 00000000 		.word	nav_pitch
 1246 0704 00000000 		.word	psa_altitude
 1247 0708 00000000 		.word	v_ctl_mode
 1248 070c 00000000 		.word	nav_altitude
 1249 0710 00000000 		.word	psa_stage
 1250 0714 00000000 		.word	v_ctl_altitude_pre_climb
 1251 0718 00000000 		.word	psa_min_rad
 1252 071c 00000000 		.word	entry_center
 1253 0720 00000000 		.word	segment_angle
 1254 0724 00000000 		.word	estimator_hspeed_dir
 1255 0728 F8C1631A 		.word	442745336
 1256 072c DCA54C40 		.word	1078765020
 1257 0730 0000B443 		.word	1135869952
 1258 0734 0000AF43 		.word	1135542272
 1259 0738 00002041 		.word	1092616192
 1260 073c 0000A040 		.word	1084227584
 1261 0740 00000000 		.word	seg_start
 1262 0744 00000000 		.word	last_x
 1263 0748 00000000 		.word	last_y
 1264 074c 00000000 		.word	estimator_z
 1265 0750 0000A041 		.word	1101004800
 1266 0754 00000000 		.word	seg_end
 1267 0758 00000000 		.word	rad_vec
 1268 075c 00000000 		.word	seg_center1
 1269 0760 00000000 		.word	ret_start
 1270 0764 00000000 		.word	sweep_vec
 1271 0768 00000000 		.word	ret_end
 1272 076c 0000E03F 		.word	1071644672
 1273 0770 00000000 		.word	seg_center2
 1274 0774 00000000 		.word	return_angle
 1275 0778 00000000 		.word	psa_sweep_width
 1277              		.comm	ret_end,8,4
 1278              		.comm	ret_start,8,4
 1279              		.comm	entry_center,8,4
 1280              		.comm	seg_center2,8,4
 1281              		.comm	seg_center1,8,4
 1282              		.comm	seg_end,8,4
 1283              		.comm	seg_start,8,4
 1284              		.comm	psa_stage,1,1
 1285              		.comm	return_angle,4,4
 1286              		.comm	segment_angle,4,4
 1287              		.comm	psa_altitude,4,4
 1288              		.comm	psa_shot_dist,4,4
 1289              		.comm	psa_sweep_width,4,4
 1290              		.comm	psa_min_rad,4,4
 1291              		.comm	poly_count,1,1
 1292              		.comm	poly_first,1,1
 1293              		.comm	rad_vec,8,4
 1294              		.comm	sweep_vec,8,4
 1295              		.comm	dir_vec,8,4
 1296              		.ident	"GCC: (GNU Tools for ARM Embedded Processors) 4.8.3 20131129 (release) [ARM/embedded-4_8-br