   1              		.cpu arm7tdmi
   2              		.fpu softvfp
   3              		.eabi_attribute 20, 1
   4              		.eabi_attribute 21, 1
   5              		.eabi_attribute 23, 3
   6              		.eabi_attribute 24, 1
   7              		.eabi_attribute 25, 1
   8              		.eabi_attribute 26, 1
   9              		.eabi_attribute 30, 4
  10              		.eabi_attribute 34, 0
  11              		.eabi_attribute 18, 4
  12              		.file	"pprz_geodetic_float.c"
  13              		.global	__aeabi_f2d
  14              		.global	__aeabi_dmul
  15              		.global	__aeabi_dadd
  16              		.global	__aeabi_d2f
  17              		.section	.text.isometric_latitude_fast_f,"ax",%progbits
  18              		.align	2
  20              	isometric_latitude_fast_f:
  21              		@ Function supports interworking.
  22              		@ args = 0, pretend = 0, frame = 0
  23              		@ frame_needed = 0, uses_anonymous_args = 0
  24 0000 08402DE9 		stmfd	sp!, {r3, lr}
  25 0004 FEFFFFEB 		bl	__aeabi_f2d
  26 0008 0020A0E3 		mov	r2, #0
  27 000c 20309FE5 		ldr	r3, .L2
  28 0010 FEFFFFEB 		bl	__aeabi_dmul
  29 0014 1C309FE5 		ldr	r3, .L2+4
  30 0018 1C209FE5 		ldr	r2, .L2+8
  31 001c FEFFFFEB 		bl	__aeabi_dadd
  32 0020 FEFFFFEB 		bl	tan
  33 0024 FEFFFFEB 		bl	log
  34 0028 FEFFFFEB 		bl	__aeabi_d2f
  35 002c 0840BDE8 		ldmfd	sp!, {r3, lr}
  36 0030 1EFF2FE1 		bx	lr
  37              	.L3:
  38              		.align	2
  39              	.L2:
  40 0034 0000E03F 		.word	1071644672
  41 0038 FB21E93F 		.word	1072243195
  42 003c 182D4454 		.word	1413754136
  44              		.global	__aeabi_fsub
  45              		.global	__aeabi_fmul
  46              		.global	__aeabi_fadd
  47              		.section	.text.enu_of_ecef_point_f,"ax",%progbits
  48              		.align	2
  49              		.global	enu_of_ecef_point_f
  51              	enu_of_ecef_point_f:
  52              		@ Function supports interworking.
  53              		@ args = 0, pretend = 0, frame = 0
  54              		@ frame_needed = 0, uses_anonymous_args = 0
  55 0000 F8432DE9 		stmfd	sp!, {r3, r4, r5, r6, r7, r8, r9, lr}
  56 0004 0140A0E1 		mov	r4, r1
  57 0008 0050A0E1 		mov	r5, r0
  58 000c 001091E5 		ldr	r1, [r1]	@ float
  59 0010 000092E5 		ldr	r0, [r2]	@ float
  60 0014 0260A0E1 		mov	r6, r2
  61 0018 FEFFFFEB 		bl	__aeabi_fsub
  62 001c 041094E5 		ldr	r1, [r4, #4]	@ float
  63 0020 0080A0E1 		mov	r8, r0
  64 0024 040096E5 		ldr	r0, [r6, #4]	@ float
  65 0028 FEFFFFEB 		bl	__aeabi_fsub
  66 002c 081094E5 		ldr	r1, [r4, #8]	@ float
  67 0030 0070A0E1 		mov	r7, r0
  68 0034 080096E5 		ldr	r0, [r6, #8]	@ float
  69 0038 FEFFFFEB 		bl	__aeabi_fsub
  70 003c 181094E5 		ldr	r1, [r4, #24]	@ float
  71 0040 0060A0E1 		mov	r6, r0
  72 0044 0800A0E1 		mov	r0, r8
  73 0048 FEFFFFEB 		bl	__aeabi_fmul
  74 004c 1C1094E5 		ldr	r1, [r4, #28]	@ float
  75 0050 0090A0E1 		mov	r9, r0
  76 0054 0700A0E1 		mov	r0, r7
  77 0058 FEFFFFEB 		bl	__aeabi_fmul
  78 005c 0010A0E1 		mov	r1, r0
  79 0060 0900A0E1 		mov	r0, r9
  80 0064 FEFFFFEB 		bl	__aeabi_fadd
  81 0068 201094E5 		ldr	r1, [r4, #32]	@ float
  82 006c 0090A0E1 		mov	r9, r0
  83 0070 0600A0E1 		mov	r0, r6
  84 0074 FEFFFFEB 		bl	__aeabi_fmul
  85 0078 0010A0E1 		mov	r1, r0
  86 007c 0900A0E1 		mov	r0, r9
  87 0080 FEFFFFEB 		bl	__aeabi_fadd
  88 0084 241094E5 		ldr	r1, [r4, #36]	@ float
  89 0088 000085E5 		str	r0, [r5]	@ float
  90 008c 0800A0E1 		mov	r0, r8
  91 0090 FEFFFFEB 		bl	__aeabi_fmul
  92 0094 281094E5 		ldr	r1, [r4, #40]	@ float
  93 0098 0090A0E1 		mov	r9, r0
  94 009c 0700A0E1 		mov	r0, r7
  95 00a0 FEFFFFEB 		bl	__aeabi_fmul
  96 00a4 0010A0E1 		mov	r1, r0
  97 00a8 0900A0E1 		mov	r0, r9
  98 00ac FEFFFFEB 		bl	__aeabi_fadd
  99 00b0 2C1094E5 		ldr	r1, [r4, #44]	@ float
 100 00b4 0090A0E1 		mov	r9, r0
 101 00b8 0600A0E1 		mov	r0, r6
 102 00bc FEFFFFEB 		bl	__aeabi_fmul
 103 00c0 0010A0E1 		mov	r1, r0
 104 00c4 0900A0E1 		mov	r0, r9
 105 00c8 FEFFFFEB 		bl	__aeabi_fadd
 106 00cc 301094E5 		ldr	r1, [r4, #48]	@ float
 107 00d0 040085E5 		str	r0, [r5, #4]	@ float
 108 00d4 0800A0E1 		mov	r0, r8
 109 00d8 FEFFFFEB 		bl	__aeabi_fmul
 110 00dc 341094E5 		ldr	r1, [r4, #52]	@ float
 111 00e0 0080A0E1 		mov	r8, r0
 112 00e4 0700A0E1 		mov	r0, r7
 113 00e8 FEFFFFEB 		bl	__aeabi_fmul
 114 00ec 0010A0E1 		mov	r1, r0
 115 00f0 0800A0E1 		mov	r0, r8
 116 00f4 FEFFFFEB 		bl	__aeabi_fadd
 117 00f8 381094E5 		ldr	r1, [r4, #56]	@ float
 118 00fc 0070A0E1 		mov	r7, r0
 119 0100 0600A0E1 		mov	r0, r6
 120 0104 FEFFFFEB 		bl	__aeabi_fmul
 121 0108 0010A0E1 		mov	r1, r0
 122 010c 0700A0E1 		mov	r0, r7
 123 0110 FEFFFFEB 		bl	__aeabi_fadd
 124 0114 080085E5 		str	r0, [r5, #8]	@ float
 125 0118 F843BDE8 		ldmfd	sp!, {r3, r4, r5, r6, r7, r8, r9, lr}
 126 011c 1EFF2FE1 		bx	lr
 128              		.section	.text.ned_of_ecef_point_f,"ax",%progbits
 129              		.align	2
 130              		.global	ned_of_ecef_point_f
 132              	ned_of_ecef_point_f:
 133              		@ Function supports interworking.
 134              		@ args = 0, pretend = 0, frame = 16
 135              		@ frame_needed = 0, uses_anonymous_args = 0
 136 0000 1F402DE9 		stmfd	sp!, {r0, r1, r2, r3, r4, lr}
 137 0004 0040A0E1 		mov	r4, r0
 138 0008 04008DE2 		add	r0, sp, #4
 139 000c FEFFFFEB 		bl	enu_of_ecef_point_f
 140 0010 08309DE5 		ldr	r3, [sp, #8]	@ float
 141 0014 003084E5 		str	r3, [r4]	@ float
 142 0018 04309DE5 		ldr	r3, [sp, #4]	@ float
 143 001c 043084E5 		str	r3, [r4, #4]	@ float
 144 0020 0C309DE5 		ldr	r3, [sp, #12]
 145 0024 023183E2 		add	r3, r3, #-2147483648
 146 0028 083084E5 		str	r3, [r4, #8]	@ float
 147 002c 10D08DE2 		add	sp, sp, #16
 148              		@ sp needed
 149 0030 1040BDE8 		ldmfd	sp!, {r4, lr}
 150 0034 1EFF2FE1 		bx	lr
 152              		.section	.text.enu_of_ecef_vect_f,"ax",%progbits
 153              		.align	2
 154              		.global	enu_of_ecef_vect_f
 156              	enu_of_ecef_vect_f:
 157              		@ Function supports interworking.
 158              		@ args = 0, pretend = 0, frame = 0
 159              		@ frame_needed = 0, uses_anonymous_args = 0
 160 0000 F8432DE9 		stmfd	sp!, {r3, r4, r5, r6, r7, r8, r9, lr}
 161 0004 008092E5 		ldr	r8, [r2]	@ float
 162 0008 0140A0E1 		mov	r4, r1
 163 000c 0050A0E1 		mov	r5, r0
 164 0010 181091E5 		ldr	r1, [r1, #24]	@ float
 165 0014 0800A0E1 		mov	r0, r8
 166 0018 047092E5 		ldr	r7, [r2, #4]	@ float
 167 001c 086092E5 		ldr	r6, [r2, #8]	@ float
 168 0020 FEFFFFEB 		bl	__aeabi_fmul
 169 0024 1C1094E5 		ldr	r1, [r4, #28]	@ float
 170 0028 0090A0E1 		mov	r9, r0
 171 002c 0700A0E1 		mov	r0, r7
 172 0030 FEFFFFEB 		bl	__aeabi_fmul
 173 0034 0010A0E1 		mov	r1, r0
 174 0038 0900A0E1 		mov	r0, r9
 175 003c FEFFFFEB 		bl	__aeabi_fadd
 176 0040 201094E5 		ldr	r1, [r4, #32]	@ float
 177 0044 0090A0E1 		mov	r9, r0
 178 0048 0600A0E1 		mov	r0, r6
 179 004c FEFFFFEB 		bl	__aeabi_fmul
 180 0050 0010A0E1 		mov	r1, r0
 181 0054 0900A0E1 		mov	r0, r9
 182 0058 FEFFFFEB 		bl	__aeabi_fadd
 183 005c 241094E5 		ldr	r1, [r4, #36]	@ float
 184 0060 000085E5 		str	r0, [r5]	@ float
 185 0064 0800A0E1 		mov	r0, r8
 186 0068 FEFFFFEB 		bl	__aeabi_fmul
 187 006c 281094E5 		ldr	r1, [r4, #40]	@ float
 188 0070 0090A0E1 		mov	r9, r0
 189 0074 0700A0E1 		mov	r0, r7
 190 0078 FEFFFFEB 		bl	__aeabi_fmul
 191 007c 0010A0E1 		mov	r1, r0
 192 0080 0900A0E1 		mov	r0, r9
 193 0084 FEFFFFEB 		bl	__aeabi_fadd
 194 0088 2C1094E5 		ldr	r1, [r4, #44]	@ float
 195 008c 0090A0E1 		mov	r9, r0
 196 0090 0600A0E1 		mov	r0, r6
 197 0094 FEFFFFEB 		bl	__aeabi_fmul
 198 0098 0010A0E1 		mov	r1, r0
 199 009c 0900A0E1 		mov	r0, r9
 200 00a0 FEFFFFEB 		bl	__aeabi_fadd
 201 00a4 301094E5 		ldr	r1, [r4, #48]	@ float
 202 00a8 040085E5 		str	r0, [r5, #4]	@ float
 203 00ac 0800A0E1 		mov	r0, r8
 204 00b0 FEFFFFEB 		bl	__aeabi_fmul
 205 00b4 341094E5 		ldr	r1, [r4, #52]	@ float
 206 00b8 0080A0E1 		mov	r8, r0
 207 00bc 0700A0E1 		mov	r0, r7
 208 00c0 FEFFFFEB 		bl	__aeabi_fmul
 209 00c4 0010A0E1 		mov	r1, r0
 210 00c8 0800A0E1 		mov	r0, r8
 211 00cc FEFFFFEB 		bl	__aeabi_fadd
 212 00d0 381094E5 		ldr	r1, [r4, #56]	@ float
 213 00d4 0070A0E1 		mov	r7, r0
 214 00d8 0600A0E1 		mov	r0, r6
 215 00dc FEFFFFEB 		bl	__aeabi_fmul
 216 00e0 0010A0E1 		mov	r1, r0
 217 00e4 0700A0E1 		mov	r0, r7
 218 00e8 FEFFFFEB 		bl	__aeabi_fadd
 219 00ec 080085E5 		str	r0, [r5, #8]	@ float
 220 00f0 F843BDE8 		ldmfd	sp!, {r3, r4, r5, r6, r7, r8, r9, lr}
 221 00f4 1EFF2FE1 		bx	lr
 223              		.section	.text.ned_of_ecef_vect_f,"ax",%progbits
 224              		.align	2
 225              		.global	ned_of_ecef_vect_f
 227              	ned_of_ecef_vect_f:
 228              		@ Function supports interworking.
 229              		@ args = 0, pretend = 0, frame = 16
 230              		@ frame_needed = 0, uses_anonymous_args = 0
 231 0000 1F402DE9 		stmfd	sp!, {r0, r1, r2, r3, r4, lr}
 232 0004 0040A0E1 		mov	r4, r0
 233 0008 04008DE2 		add	r0, sp, #4
 234 000c FEFFFFEB 		bl	enu_of_ecef_vect_f
 235 0010 08309DE5 		ldr	r3, [sp, #8]	@ float
 236 0014 003084E5 		str	r3, [r4]	@ float
 237 0018 04309DE5 		ldr	r3, [sp, #4]	@ float
 238 001c 043084E5 		str	r3, [r4, #4]	@ float
 239 0020 0C309DE5 		ldr	r3, [sp, #12]
 240 0024 023183E2 		add	r3, r3, #-2147483648
 241 0028 083084E5 		str	r3, [r4, #8]	@ float
 242 002c 10D08DE2 		add	sp, sp, #16
 243              		@ sp needed
 244 0030 1040BDE8 		ldmfd	sp!, {r4, lr}
 245 0034 1EFF2FE1 		bx	lr
 247              		.section	.text.ecef_of_enu_point_f,"ax",%progbits
 248              		.align	2
 249              		.global	ecef_of_enu_point_f
 251              	ecef_of_enu_point_f:
 252              		@ Function supports interworking.
 253              		@ args = 0, pretend = 0, frame = 16
 254              		@ frame_needed = 0, uses_anonymous_args = 0
 255 0000 F04F2DE9 		stmfd	sp!, {r4, r5, r6, r7, r8, r9, r10, fp, lr}
 256 0004 0090A0E1 		mov	r9, r0
 257 0008 14D04DE2 		sub	sp, sp, #20
 258 000c 000092E5 		ldr	r0, [r2]	@ float
 259 0010 0180A0E1 		mov	r8, r1
 260 0014 0240A0E1 		mov	r4, r2
 261 0018 FEFFFFEB 		bl	__aeabi_f2d
 262 001c 0060A0E1 		mov	r6, r0
 263 0020 040094E5 		ldr	r0, [r4, #4]	@ float
 264 0024 0170A0E1 		mov	r7, r1
 265 0028 FEFFFFEB 		bl	__aeabi_f2d
 266 002c 00A0A0E1 		mov	r10, r0
 267 0030 080094E5 		ldr	r0, [r4, #8]	@ float
 268 0034 01B0A0E1 		mov	fp, r1
 269 0038 FEFFFFEB 		bl	__aeabi_f2d
 270 003c 03008DE8 		stmia	sp, {r0-r1}
 271 0040 1C0098E5 		ldr	r0, [r8, #28]	@ float
 272 0044 FEFFFFEB 		bl	__aeabi_f2d
 273 0048 0620A0E1 		mov	r2, r6
 274 004c 0730A0E1 		mov	r3, r7
 275 0050 FEFFFFEB 		bl	__aeabi_dmul
 276 0054 0040A0E1 		mov	r4, r0
 277 0058 280098E5 		ldr	r0, [r8, #40]	@ float
 278 005c 0150A0E1 		mov	r5, r1
 279 0060 FEFFFFEB 		bl	__aeabi_f2d
 280 0064 0A20A0E1 		mov	r2, r10
 281 0068 0B30A0E1 		mov	r3, fp
 282 006c FEFFFFEB 		bl	__aeabi_dmul
 283 0070 0020A0E1 		mov	r2, r0
 284 0074 0130A0E1 		mov	r3, r1
 285 0078 0400A0E1 		mov	r0, r4
 286 007c 0510A0E1 		mov	r1, r5
 287 0080 FEFFFFEB 		bl	__aeabi_dadd
 288 0084 0040A0E1 		mov	r4, r0
 289 0088 340098E5 		ldr	r0, [r8, #52]	@ float
 290 008c 0150A0E1 		mov	r5, r1
 291 0090 FEFFFFEB 		bl	__aeabi_f2d
 292 0094 0C009DE8 		ldmia	sp, {r2-r3}
 293 0098 FEFFFFEB 		bl	__aeabi_dmul
 294 009c 0020A0E1 		mov	r2, r0
 295 00a0 0130A0E1 		mov	r3, r1
 296 00a4 0400A0E1 		mov	r0, r4
 297 00a8 0510A0E1 		mov	r1, r5
 298 00ac FEFFFFEB 		bl	__aeabi_dadd
 299 00b0 08008DE5 		str	r0, [sp, #8]
 300 00b4 0C108DE5 		str	r1, [sp, #12]
 301 00b8 200098E5 		ldr	r0, [r8, #32]	@ float
 302 00bc FEFFFFEB 		bl	__aeabi_f2d
 303 00c0 0620A0E1 		mov	r2, r6
 304 00c4 0730A0E1 		mov	r3, r7
 305 00c8 FEFFFFEB 		bl	__aeabi_dmul
 306 00cc 0040A0E1 		mov	r4, r0
 307 00d0 2C0098E5 		ldr	r0, [r8, #44]	@ float
 308 00d4 0150A0E1 		mov	r5, r1
 309 00d8 FEFFFFEB 		bl	__aeabi_f2d
 310 00dc 0A20A0E1 		mov	r2, r10
 311 00e0 0B30A0E1 		mov	r3, fp
 312 00e4 FEFFFFEB 		bl	__aeabi_dmul
 313 00e8 0020A0E1 		mov	r2, r0
 314 00ec 0130A0E1 		mov	r3, r1
 315 00f0 0400A0E1 		mov	r0, r4
 316 00f4 0510A0E1 		mov	r1, r5
 317 00f8 FEFFFFEB 		bl	__aeabi_dadd
 318 00fc 0040A0E1 		mov	r4, r0
 319 0100 380098E5 		ldr	r0, [r8, #56]	@ float
 320 0104 0150A0E1 		mov	r5, r1
 321 0108 FEFFFFEB 		bl	__aeabi_f2d
 322 010c 0C009DE8 		ldmia	sp, {r2-r3}
 323 0110 FEFFFFEB 		bl	__aeabi_dmul
 324 0114 0020A0E1 		mov	r2, r0
 325 0118 0130A0E1 		mov	r3, r1
 326 011c 0400A0E1 		mov	r0, r4
 327 0120 0510A0E1 		mov	r1, r5
 328 0124 FEFFFFEB 		bl	__aeabi_dadd
 329 0128 0040A0E1 		mov	r4, r0
 330 012c 180098E5 		ldr	r0, [r8, #24]	@ float
 331 0130 0150A0E1 		mov	r5, r1
 332 0134 FEFFFFEB 		bl	__aeabi_f2d
 333 0138 0620A0E1 		mov	r2, r6
 334 013c 0730A0E1 		mov	r3, r7
 335 0140 FEFFFFEB 		bl	__aeabi_dmul
 336 0144 0060A0E1 		mov	r6, r0
 337 0148 240098E5 		ldr	r0, [r8, #36]	@ float
 338 014c 0170A0E1 		mov	r7, r1
 339 0150 FEFFFFEB 		bl	__aeabi_f2d
 340 0154 0A20A0E1 		mov	r2, r10
 341 0158 0B30A0E1 		mov	r3, fp
 342 015c FEFFFFEB 		bl	__aeabi_dmul
 343 0160 0020A0E1 		mov	r2, r0
 344 0164 0130A0E1 		mov	r3, r1
 345 0168 0600A0E1 		mov	r0, r6
 346 016c 0710A0E1 		mov	r1, r7
 347 0170 FEFFFFEB 		bl	__aeabi_dadd
 348 0174 0060A0E1 		mov	r6, r0
 349 0178 300098E5 		ldr	r0, [r8, #48]	@ float
 350 017c 0170A0E1 		mov	r7, r1
 351 0180 FEFFFFEB 		bl	__aeabi_f2d
 352 0184 0C009DE8 		ldmia	sp, {r2-r3}
 353 0188 FEFFFFEB 		bl	__aeabi_dmul
 354 018c 0020A0E1 		mov	r2, r0
 355 0190 0130A0E1 		mov	r3, r1
 356 0194 0600A0E1 		mov	r0, r6
 357 0198 0710A0E1 		mov	r1, r7
 358 019c FEFFFFEB 		bl	__aeabi_dadd
 359 01a0 FEFFFFEB 		bl	__aeabi_d2f
 360 01a4 001098E5 		ldr	r1, [r8]	@ float
 361 01a8 FEFFFFEB 		bl	__aeabi_fadd
 362 01ac 000089E5 		str	r0, [r9]	@ float
 363 01b0 08108DE2 		add	r1, sp, #8
 364 01b4 030091E8 		ldmia	r1, {r0-r1}
 365 01b8 FEFFFFEB 		bl	__aeabi_d2f
 366 01bc 041098E5 		ldr	r1, [r8, #4]	@ float
 367 01c0 FEFFFFEB 		bl	__aeabi_fadd
 368 01c4 0510A0E1 		mov	r1, r5
 369 01c8 040089E5 		str	r0, [r9, #4]	@ float
 370 01cc 0400A0E1 		mov	r0, r4
 371 01d0 FEFFFFEB 		bl	__aeabi_d2f
 372 01d4 081098E5 		ldr	r1, [r8, #8]	@ float
 373 01d8 FEFFFFEB 		bl	__aeabi_fadd
 374 01dc 080089E5 		str	r0, [r9, #8]	@ float
 375 01e0 14D08DE2 		add	sp, sp, #20
 376              		@ sp needed
 377 01e4 F04FBDE8 		ldmfd	sp!, {r4, r5, r6, r7, r8, r9, r10, fp, lr}
 378 01e8 1EFF2FE1 		bx	lr
 380              		.section	.text.ecef_of_ned_point_f,"ax",%progbits
 381              		.align	2
 382              		.global	ecef_of_ned_point_f
 384              	ecef_of_ned_point_f:
 385              		@ Function supports interworking.
 386              		@ args = 0, pretend = 0, frame = 16
 387              		@ frame_needed = 0, uses_anonymous_args = 0
 388 0000 1F402DE9 		stmfd	sp!, {r0, r1, r2, r3, r4, lr}
 389 0004 043092E5 		ldr	r3, [r2, #4]	@ float
 390 0008 04308DE5 		str	r3, [sp, #4]	@ float
 391 000c 003092E5 		ldr	r3, [r2]	@ float
 392 0010 08308DE5 		str	r3, [sp, #8]	@ float
 393 0014 083092E5 		ldr	r3, [r2, #8]
 394 0018 04208DE2 		add	r2, sp, #4
 395 001c 023183E2 		add	r3, r3, #-2147483648
 396 0020 0C308DE5 		str	r3, [sp, #12]	@ float
 397 0024 FEFFFFEB 		bl	ecef_of_enu_point_f
 398 0028 14D08DE2 		add	sp, sp, #20
 399              		@ sp needed
 400 002c 04E09DE4 		ldr	lr, [sp], #4
 401 0030 1EFF2FE1 		bx	lr
 403              		.section	.text.ecef_of_enu_vect_f,"ax",%progbits
 404              		.align	2
 405              		.global	ecef_of_enu_vect_f
 407              	ecef_of_enu_vect_f:
 408              		@ Function supports interworking.
 409              		@ args = 0, pretend = 0, frame = 16
 410              		@ frame_needed = 0, uses_anonymous_args = 0
 411 0000 F04F2DE9 		stmfd	sp!, {r4, r5, r6, r7, r8, r9, r10, fp, lr}
 412 0004 0090A0E1 		mov	r9, r0
 413 0008 14D04DE2 		sub	sp, sp, #20
 414 000c 000092E5 		ldr	r0, [r2]	@ float
 415 0010 0180A0E1 		mov	r8, r1
 416 0014 0240A0E1 		mov	r4, r2
 417 0018 FEFFFFEB 		bl	__aeabi_f2d
 418 001c 0060A0E1 		mov	r6, r0
 419 0020 040094E5 		ldr	r0, [r4, #4]	@ float
 420 0024 0170A0E1 		mov	r7, r1
 421 0028 FEFFFFEB 		bl	__aeabi_f2d
 422 002c 00A0A0E1 		mov	r10, r0
 423 0030 080094E5 		ldr	r0, [r4, #8]	@ float
 424 0034 01B0A0E1 		mov	fp, r1
 425 0038 FEFFFFEB 		bl	__aeabi_f2d
 426 003c 03008DE8 		stmia	sp, {r0-r1}
 427 0040 1C0098E5 		ldr	r0, [r8, #28]	@ float
 428 0044 FEFFFFEB 		bl	__aeabi_f2d
 429 0048 0620A0E1 		mov	r2, r6
 430 004c 0730A0E1 		mov	r3, r7
 431 0050 FEFFFFEB 		bl	__aeabi_dmul
 432 0054 0040A0E1 		mov	r4, r0
 433 0058 280098E5 		ldr	r0, [r8, #40]	@ float
 434 005c 0150A0E1 		mov	r5, r1
 435 0060 FEFFFFEB 		bl	__aeabi_f2d
 436 0064 0A20A0E1 		mov	r2, r10
 437 0068 0B30A0E1 		mov	r3, fp
 438 006c FEFFFFEB 		bl	__aeabi_dmul
 439 0070 0020A0E1 		mov	r2, r0
 440 0074 0130A0E1 		mov	r3, r1
 441 0078 0400A0E1 		mov	r0, r4
 442 007c 0510A0E1 		mov	r1, r5
 443 0080 FEFFFFEB 		bl	__aeabi_dadd
 444 0084 0040A0E1 		mov	r4, r0
 445 0088 340098E5 		ldr	r0, [r8, #52]	@ float
 446 008c 0150A0E1 		mov	r5, r1
 447 0090 FEFFFFEB 		bl	__aeabi_f2d
 448 0094 0C009DE8 		ldmia	sp, {r2-r3}
 449 0098 FEFFFFEB 		bl	__aeabi_dmul
 450 009c 0020A0E1 		mov	r2, r0
 451 00a0 0130A0E1 		mov	r3, r1
 452 00a4 0400A0E1 		mov	r0, r4
 453 00a8 0510A0E1 		mov	r1, r5
 454 00ac FEFFFFEB 		bl	__aeabi_dadd
 455 00b0 08008DE5 		str	r0, [sp, #8]
 456 00b4 0C108DE5 		str	r1, [sp, #12]
 457 00b8 200098E5 		ldr	r0, [r8, #32]	@ float
 458 00bc FEFFFFEB 		bl	__aeabi_f2d
 459 00c0 0620A0E1 		mov	r2, r6
 460 00c4 0730A0E1 		mov	r3, r7
 461 00c8 FEFFFFEB 		bl	__aeabi_dmul
 462 00cc 0040A0E1 		mov	r4, r0
 463 00d0 2C0098E5 		ldr	r0, [r8, #44]	@ float
 464 00d4 0150A0E1 		mov	r5, r1
 465 00d8 FEFFFFEB 		bl	__aeabi_f2d
 466 00dc 0A20A0E1 		mov	r2, r10
 467 00e0 0B30A0E1 		mov	r3, fp
 468 00e4 FEFFFFEB 		bl	__aeabi_dmul
 469 00e8 0020A0E1 		mov	r2, r0
 470 00ec 0130A0E1 		mov	r3, r1
 471 00f0 0400A0E1 		mov	r0, r4
 472 00f4 0510A0E1 		mov	r1, r5
 473 00f8 FEFFFFEB 		bl	__aeabi_dadd
 474 00fc 0040A0E1 		mov	r4, r0
 475 0100 380098E5 		ldr	r0, [r8, #56]	@ float
 476 0104 0150A0E1 		mov	r5, r1
 477 0108 FEFFFFEB 		bl	__aeabi_f2d
 478 010c 0C009DE8 		ldmia	sp, {r2-r3}
 479 0110 FEFFFFEB 		bl	__aeabi_dmul
 480 0114 0020A0E1 		mov	r2, r0
 481 0118 0130A0E1 		mov	r3, r1
 482 011c 0400A0E1 		mov	r0, r4
 483 0120 0510A0E1 		mov	r1, r5
 484 0124 FEFFFFEB 		bl	__aeabi_dadd
 485 0128 0040A0E1 		mov	r4, r0
 486 012c 180098E5 		ldr	r0, [r8, #24]	@ float
 487 0130 0150A0E1 		mov	r5, r1
 488 0134 FEFFFFEB 		bl	__aeabi_f2d
 489 0138 0620A0E1 		mov	r2, r6
 490 013c 0730A0E1 		mov	r3, r7
 491 0140 FEFFFFEB 		bl	__aeabi_dmul
 492 0144 0060A0E1 		mov	r6, r0
 493 0148 240098E5 		ldr	r0, [r8, #36]	@ float
 494 014c 0170A0E1 		mov	r7, r1
 495 0150 FEFFFFEB 		bl	__aeabi_f2d
 496 0154 0A20A0E1 		mov	r2, r10
 497 0158 0B30A0E1 		mov	r3, fp
 498 015c FEFFFFEB 		bl	__aeabi_dmul
 499 0160 0020A0E1 		mov	r2, r0
 500 0164 0130A0E1 		mov	r3, r1
 501 0168 0600A0E1 		mov	r0, r6
 502 016c 0710A0E1 		mov	r1, r7
 503 0170 FEFFFFEB 		bl	__aeabi_dadd
 504 0174 0060A0E1 		mov	r6, r0
 505 0178 300098E5 		ldr	r0, [r8, #48]	@ float
 506 017c 0170A0E1 		mov	r7, r1
 507 0180 FEFFFFEB 		bl	__aeabi_f2d
 508 0184 0C009DE8 		ldmia	sp, {r2-r3}
 509 0188 FEFFFFEB 		bl	__aeabi_dmul
 510 018c 0020A0E1 		mov	r2, r0
 511 0190 0130A0E1 		mov	r3, r1
 512 0194 0600A0E1 		mov	r0, r6
 513 0198 0710A0E1 		mov	r1, r7
 514 019c FEFFFFEB 		bl	__aeabi_dadd
 515 01a0 FEFFFFEB 		bl	__aeabi_d2f
 516 01a4 000089E5 		str	r0, [r9]	@ float
 517 01a8 08108DE2 		add	r1, sp, #8
 518 01ac 030091E8 		ldmia	r1, {r0-r1}
 519 01b0 FEFFFFEB 		bl	__aeabi_d2f
 520 01b4 0510A0E1 		mov	r1, r5
 521 01b8 040089E5 		str	r0, [r9, #4]	@ float
 522 01bc 0400A0E1 		mov	r0, r4
 523 01c0 FEFFFFEB 		bl	__aeabi_d2f
 524 01c4 080089E5 		str	r0, [r9, #8]	@ float
 525 01c8 14D08DE2 		add	sp, sp, #20
 526              		@ sp needed
 527 01cc F04FBDE8 		ldmfd	sp!, {r4, r5, r6, r7, r8, r9, r10, fp, lr}
 528 01d0 1EFF2FE1 		bx	lr
 530              		.section	.text.ecef_of_ned_vect_f,"ax",%progbits
 531              		.align	2
 532              		.global	ecef_of_ned_vect_f
 534              	ecef_of_ned_vect_f:
 535              		@ Function supports interworking.
 536              		@ args = 0, pretend = 0, frame = 16
 537              		@ frame_needed = 0, uses_anonymous_args = 0
 538 0000 1F402DE9 		stmfd	sp!, {r0, r1, r2, r3, r4, lr}
 539 0004 043092E5 		ldr	r3, [r2, #4]	@ float
 540 0008 04308DE5 		str	r3, [sp, #4]	@ float
 541 000c 003092E5 		ldr	r3, [r2]	@ float
 542 0010 08308DE5 		str	r3, [sp, #8]	@ float
 543 0014 083092E5 		ldr	r3, [r2, #8]
 544 0018 04208DE2 		add	r2, sp, #4
 545 001c 023183E2 		add	r3, r3, #-2147483648
 546 0020 0C308DE5 		str	r3, [sp, #12]	@ float
 547 0024 FEFFFFEB 		bl	ecef_of_enu_vect_f
 548 0028 14D08DE2 		add	sp, sp, #20
 549              		@ sp needed
 550 002c 04E09DE4 		ldr	lr, [sp], #4
 551 0030 1EFF2FE1 		bx	lr
 553              		.global	__aeabi_fdiv
 554              		.section	.text.lla_of_ecef_f,"ax",%progbits
 555              		.align	2
 556              		.global	lla_of_ecef_f
 558              	lla_of_ecef_f:
 559              		@ Function supports interworking.
 560              		@ args = 0, pretend = 0, frame = 16
 561              		@ frame_needed = 0, uses_anonymous_args = 0
 562 0000 F04F2DE9 		stmfd	sp!, {r4, r5, r6, r7, r8, r9, r10, fp, lr}
 563 0004 0080A0E1 		mov	r8, r0
 564 0008 080091E5 		ldr	r0, [r1, #8]	@ float
 565 000c 14D04DE2 		sub	sp, sp, #20
 566 0010 0140A0E1 		mov	r4, r1
 567 0014 0010A0E1 		mov	r1, r0
 568 0018 FEFFFFEB 		bl	__aeabi_fmul
 569 001c 0060A0E1 		mov	r6, r0
 570 0020 000094E5 		ldr	r0, [r4]	@ float
 571 0024 0010A0E1 		mov	r1, r0
 572 0028 FEFFFFEB 		bl	__aeabi_fmul
 573 002c 047094E5 		ldr	r7, [r4, #4]	@ float
 574 0030 0050A0E1 		mov	r5, r0
 575 0034 0710A0E1 		mov	r1, r7
 576 0038 0700A0E1 		mov	r0, r7
 577 003c FEFFFFEB 		bl	__aeabi_fmul
 578 0040 0010A0E1 		mov	r1, r0
 579 0044 0500A0E1 		mov	r0, r5
 580 0048 FEFFFFEB 		bl	__aeabi_fadd
 581 004c 00A0A0E1 		mov	r10, r0
 582 0050 FEFFFFEB 		bl	sqrtf
 583 0054 0090A0E1 		mov	r9, r0
 584 0058 0600A0E1 		mov	r0, r6
 585 005c FEFFFFEB 		bl	__aeabi_f2d
 586 0060 3723A0E3 		mov	r2, #-603979776
 587 0064 DC329FE5 		ldr	r3, .L13
 588 0068 FEFFFFEB 		bl	__aeabi_dmul
 589 006c FEFFFFEB 		bl	__aeabi_d2f
 590 0070 D4129FE5 		ldr	r1, .L13+4
 591 0074 00B0A0E1 		mov	fp, r0
 592 0078 0600A0E1 		mov	r0, r6
 593 007c FEFFFFEB 		bl	__aeabi_fmul
 594 0080 0030A0E1 		mov	r3, r0
 595 0084 0310A0E1 		mov	r1, r3
 596 0088 0A00A0E1 		mov	r0, r10
 597 008c 04308DE5 		str	r3, [sp, #4]
 598 0090 FEFFFFEB 		bl	__aeabi_fadd
 599 0094 B4129FE5 		ldr	r1, .L13+8
 600 0098 FEFFFFEB 		bl	__aeabi_fsub
 601 009c B0129FE5 		ldr	r1, .L13+12
 602 00a0 0050A0E1 		mov	r5, r0
 603 00a4 0B00A0E1 		mov	r0, fp
 604 00a8 FEFFFFEB 		bl	__aeabi_fmul
 605 00ac 0A10A0E1 		mov	r1, r10
 606 00b0 FEFFFFEB 		bl	__aeabi_fmul
 607 00b4 0510A0E1 		mov	r1, r5
 608 00b8 0070A0E1 		mov	r7, r0
 609 00bc 0500A0E1 		mov	r0, r5
 610 00c0 FEFFFFEB 		bl	__aeabi_fmul
 611 00c4 0510A0E1 		mov	r1, r5
 612 00c8 FEFFFFEB 		bl	__aeabi_fmul
 613 00cc 0010A0E1 		mov	r1, r0
 614 00d0 0700A0E1 		mov	r0, r7
 615 00d4 FEFFFFEB 		bl	__aeabi_fdiv
 616 00d8 0010A0E1 		mov	r1, r0
 617 00dc 0070A0E1 		mov	r7, r0
 618 00e0 FEFFFFEB 		bl	__aeabi_fmul
 619 00e4 0710A0E1 		mov	r1, r7
 620 00e8 0020A0E1 		mov	r2, r0
 621 00ec 0700A0E1 		mov	r0, r7
 622 00f0 08208DE5 		str	r2, [sp, #8]
 623 00f4 FEFFFFEB 		bl	__aeabi_fadd
 624 00f8 08209DE5 		ldr	r2, [sp, #8]
 625 00fc 0010A0E1 		mov	r1, r0
 626 0100 0200A0E1 		mov	r0, r2
 627 0104 FEFFFFEB 		bl	__aeabi_fadd
 628 0108 FEFFFFEB 		bl	sqrtf
 629 010c FE15A0E3 		mov	r1, #1065353216
 630 0110 0020A0E1 		mov	r2, r0
 631 0114 0700A0E1 		mov	r0, r7
 632 0118 08208DE5 		str	r2, [sp, #8]
 633 011c FEFFFFEB 		bl	__aeabi_fadd
 634 0120 08209DE5 		ldr	r2, [sp, #8]
 635 0124 0210A0E1 		mov	r1, r2
 636 0128 FEFFFFEB 		bl	__aeabi_fadd
 637 012c 24129FE5 		ldr	r1, .L13+16
 638 0130 FEFFFFEB 		bl	powf
 639 0134 FE15A0E3 		mov	r1, #1065353216
 640 0138 08008DE5 		str	r0, [sp, #8]
 641 013c FEFFFFEB 		bl	__aeabi_fadd
 642 0140 08209DE5 		ldr	r2, [sp, #8]
 643 0144 0070A0E1 		mov	r7, r0
 644 0148 0210A0E1 		mov	r1, r2
 645 014c FE05A0E3 		mov	r0, #1065353216
 646 0150 FEFFFFEB 		bl	__aeabi_fdiv
 647 0154 0010A0E1 		mov	r1, r0
 648 0158 0700A0E1 		mov	r0, r7
 649 015c FEFFFFEB 		bl	__aeabi_fadd
 650 0160 F4119FE5 		ldr	r1, .L13+20
 651 0164 0070A0E1 		mov	r7, r0
 652 0168 FEFFFFEB 		bl	__aeabi_fmul
 653 016c 0710A0E1 		mov	r1, r7
 654 0170 FEFFFFEB 		bl	__aeabi_fmul
 655 0174 0510A0E1 		mov	r1, r5
 656 0178 FEFFFFEB 		bl	__aeabi_fmul
 657 017c 0510A0E1 		mov	r1, r5
 658 0180 FEFFFFEB 		bl	__aeabi_fmul
 659 0184 0010A0E1 		mov	r1, r0
 660 0188 0B00A0E1 		mov	r0, fp
 661 018c FEFFFFEB 		bl	__aeabi_fdiv
 662 0190 C8119FE5 		ldr	r1, .L13+24
 663 0194 0050A0E1 		mov	r5, r0
 664 0198 FEFFFFEB 		bl	__aeabi_fmul
 665 019c FE15A0E3 		mov	r1, #1065353216
 666 01a0 FEFFFFEB 		bl	__aeabi_fadd
 667 01a4 FEFFFFEB 		bl	sqrtf
 668 01a8 FE15A0E3 		mov	r1, #1065353216
 669 01ac 00B0A0E1 		mov	fp, r0
 670 01b0 FEFFFFEB 		bl	__aeabi_fadd
 671 01b4 0B10A0E1 		mov	r1, fp
 672 01b8 0070A0E1 		mov	r7, r0
 673 01bc FE05A0E3 		mov	r0, #1065353216
 674 01c0 FEFFFFEB 		bl	__aeabi_fdiv
 675 01c4 FE15A0E3 		mov	r1, #1065353216
 676 01c8 FEFFFFEB 		bl	__aeabi_fadd
 677 01cc 90119FE5 		ldr	r1, .L13+28
 678 01d0 FEFFFFEB 		bl	__aeabi_fmul
 679 01d4 70119FE5 		ldr	r1, .L13+4
 680 01d8 0020A0E1 		mov	r2, r0
 681 01dc 0500A0E1 		mov	r0, r5
 682 01e0 08208DE5 		str	r2, [sp, #8]
 683 01e4 FEFFFFEB 		bl	__aeabi_fmul
 684 01e8 0610A0E1 		mov	r1, r6
 685 01ec FEFFFFEB 		bl	__aeabi_fmul
 686 01f0 0710A0E1 		mov	r1, r7
 687 01f4 00C0A0E1 		mov	ip, r0
 688 01f8 0B00A0E1 		mov	r0, fp
 689 01fc 0CC08DE5 		str	ip, [sp, #12]
 690 0200 FEFFFFEB 		bl	__aeabi_fmul
 691 0204 0CC09DE5 		ldr	ip, [sp, #12]
 692 0208 0010A0E1 		mov	r1, r0
 693 020c 0C00A0E1 		mov	r0, ip
 694 0210 FEFFFFEB 		bl	__aeabi_fdiv
 695 0214 08209DE5 		ldr	r2, [sp, #8]
 696 0218 0010A0E1 		mov	r1, r0
 697 021c 0200A0E1 		mov	r0, r2
 698 0220 FEFFFFEB 		bl	__aeabi_fsub
 699 0224 0A10A0E1 		mov	r1, r10
 700 0228 00B0A0E1 		mov	fp, r0
 701 022c 0500A0E1 		mov	r0, r5
 702 0230 FEFFFFEB 		bl	__aeabi_fmul
 703 0234 3F14A0E3 		mov	r1, #1056964608
 704 0238 FEFFFFEB 		bl	__aeabi_fmul
 705 023c 0010A0E1 		mov	r1, r0
 706 0240 0B00A0E1 		mov	r0, fp
 707 0244 FEFFFFEB 		bl	__aeabi_fsub
 708 0248 FEFFFFEB 		bl	sqrtf
 709 024c 14119FE5 		ldr	r1, .L13+32
 710 0250 00A0A0E1 		mov	r10, r0
 711 0254 0500A0E1 		mov	r0, r5
 712 0258 FEFFFFEB 		bl	__aeabi_fmul
 713 025c 0910A0E1 		mov	r1, r9
 714 0260 FEFFFFEB 		bl	__aeabi_fmul
 715 0264 0710A0E1 		mov	r1, r7
 716 0268 020180E2 		add	r0, r0, #-2147483648
 717 026c FEFFFFEB 		bl	__aeabi_fdiv
 718 0270 0A10A0E1 		mov	r1, r10
 719 0274 FEFFFFEB 		bl	__aeabi_fadd
 720 0278 E8109FE5 		ldr	r1, .L13+32
 721 027c FEFFFFEB 		bl	__aeabi_fmul
 722 0280 0010A0E1 		mov	r1, r0
 723 0284 0900A0E1 		mov	r0, r9
 724 0288 FEFFFFEB 		bl	__aeabi_fsub
 725 028c 0010A0E1 		mov	r1, r0
 726 0290 FEFFFFEB 		bl	__aeabi_fmul
 727 0294 0610A0E1 		mov	r1, r6
 728 0298 0050A0E1 		mov	r5, r0
 729 029c FEFFFFEB 		bl	__aeabi_fadd
 730 02a0 FEFFFFEB 		bl	sqrtf
 731 02a4 04309DE5 		ldr	r3, [sp, #4]
 732 02a8 0070A0E1 		mov	r7, r0
 733 02ac 0310A0E1 		mov	r1, r3
 734 02b0 0500A0E1 		mov	r0, r5
 735 02b4 FEFFFFEB 		bl	__aeabi_fadd
 736 02b8 FEFFFFEB 		bl	sqrtf
 737 02bc A8109FE5 		ldr	r1, .L13+36
 738 02c0 FEFFFFEB 		bl	__aeabi_fmul
 739 02c4 0060A0E1 		mov	r6, r0
 740 02c8 0610A0E1 		mov	r1, r6
 741 02cc 9C009FE5 		ldr	r0, .L13+40
 742 02d0 FEFFFFEB 		bl	__aeabi_fdiv
 743 02d4 0010A0E1 		mov	r1, r0
 744 02d8 FE05A0E3 		mov	r0, #1065353216
 745 02dc FEFFFFEB 		bl	__aeabi_fsub
 746 02e0 0010A0E1 		mov	r1, r0
 747 02e4 0700A0E1 		mov	r0, r7
 748 02e8 FEFFFFEB 		bl	__aeabi_fmul
 749 02ec 085094E5 		ldr	r5, [r4, #8]	@ float
 750 02f0 78109FE5 		ldr	r1, .L13+40
 751 02f4 080088E5 		str	r0, [r8, #8]	@ float
 752 02f8 0500A0E1 		mov	r0, r5
 753 02fc FEFFFFEB 		bl	__aeabi_fmul
 754 0300 0610A0E1 		mov	r1, r6
 755 0304 FEFFFFEB 		bl	__aeabi_fdiv
 756 0308 64109FE5 		ldr	r1, .L13+44
 757 030c FEFFFFEB 		bl	__aeabi_fmul
 758 0310 0010A0E1 		mov	r1, r0
 759 0314 0500A0E1 		mov	r0, r5
 760 0318 FEFFFFEB 		bl	__aeabi_fadd
 761 031c 0910A0E1 		mov	r1, r9
 762 0320 FEFFFFEB 		bl	__aeabi_fdiv
 763 0324 FEFFFFEB 		bl	atanf
 764 0328 001094E5 		ldr	r1, [r4]	@ float
 765 032c 040088E5 		str	r0, [r8, #4]	@ float
 766 0330 040094E5 		ldr	r0, [r4, #4]	@ float
 767 0334 FEFFFFEB 		bl	atan2f
 768 0338 000088E5 		str	r0, [r8]	@ float
 769 033c 14D08DE2 		add	sp, sp, #20
 770              		@ sp needed
 771 0340 F04FBDE8 		ldmfd	sp!, {r4, r5, r6, r7, r8, r9, r10, fp, lr}
 772 0344 1EFF2FE1 		bx	lr
 773              	.L14:
 774              		.align	2
 775              	.L13:
 776 0348 3E021F43 		.word	1126105662
 777 034c 47497E3F 		.word	1065240903
 778 0350 8B53D94E 		.word	1322865547
 779 0354 70F73B38 		.word	943454064
 780 0358 ABAAAA3E 		.word	1051372203
 781 035c 00004040 		.word	1077936128
 782 0360 70F7BB38 		.word	951842672
 783 0364 CAFE9355 		.word	1435762378
 784 0368 875CDB3B 		.word	1004231815
 785 036c 32A5C24A 		.word	1254270258
 786 0370 2A011356 		.word	1444086058
 787 0374 FFD6DC3B 		.word	1004328703
 789              		.section	.text.ltp_def_from_ecef_f,"ax",%progbits
 790              		.align	2
 791              		.global	ltp_def_from_ecef_f
 793              	ltp_def_from_ecef_f:
 794              		@ Function supports interworking.
 795              		@ args = 0, pretend = 0, frame = 0
 796              		@ frame_needed = 0, uses_anonymous_args = 0
 797 0000 F8432DE9 		stmfd	sp!, {r3, r4, r5, r6, r7, r8, r9, lr}
 798 0004 003091E5 		ldr	r3, [r1]	@ float
 799 0008 003080E5 		str	r3, [r0]	@ float
 800 000c 043091E5 		ldr	r3, [r1, #4]	@ float
 801 0010 043080E5 		str	r3, [r0, #4]	@ float
 802 0014 083091E5 		ldr	r3, [r1, #8]	@ float
 803 0018 0040A0E1 		mov	r4, r0
 804 001c 083080E5 		str	r3, [r0, #8]	@ float
 805 0020 0410A0E1 		mov	r1, r4
 806 0024 0C0080E2 		add	r0, r0, #12
 807 0028 FEFFFFEB 		bl	lla_of_ecef_f
 808 002c 105094E5 		ldr	r5, [r4, #16]	@ float
 809 0030 0500A0E1 		mov	r0, r5
 810 0034 FEFFFFEB 		bl	sinf
 811 0038 0080A0E1 		mov	r8, r0
 812 003c 0500A0E1 		mov	r0, r5
 813 0040 FEFFFFEB 		bl	cosf
 814 0044 0C7094E5 		ldr	r7, [r4, #12]	@ float
 815 0048 0060A0E1 		mov	r6, r0
 816 004c 0700A0E1 		mov	r0, r7
 817 0050 FEFFFFEB 		bl	sinf
 818 0054 0050A0E1 		mov	r5, r0
 819 0058 0700A0E1 		mov	r0, r7
 820 005c FEFFFFEB 		bl	cosf
 821 0060 023185E2 		add	r3, r5, #-2147483648
 822 0064 0070A0E1 		mov	r7, r0
 823 0068 183084E5 		str	r3, [r4, #24]	@ float
 824 006c 029188E2 		add	r9, r8, #-2147483648
 825 0070 0030A0E3 		mov	r3, #0
 826 0074 203084E5 		str	r3, [r4, #32]	@ float
 827 0078 1C0084E5 		str	r0, [r4, #28]	@ float
 828 007c 0710A0E1 		mov	r1, r7
 829 0080 0900A0E1 		mov	r0, r9
 830 0084 FEFFFFEB 		bl	__aeabi_fmul
 831 0088 0510A0E1 		mov	r1, r5
 832 008c 240084E5 		str	r0, [r4, #36]	@ float
 833 0090 0900A0E1 		mov	r0, r9
 834 0094 FEFFFFEB 		bl	__aeabi_fmul
 835 0098 0710A0E1 		mov	r1, r7
 836 009c 280084E5 		str	r0, [r4, #40]	@ float
 837 00a0 2C6084E5 		str	r6, [r4, #44]	@ float
 838 00a4 0600A0E1 		mov	r0, r6
 839 00a8 FEFFFFEB 		bl	__aeabi_fmul
 840 00ac 0510A0E1 		mov	r1, r5
 841 00b0 300084E5 		str	r0, [r4, #48]	@ float
 842 00b4 0600A0E1 		mov	r0, r6
 843 00b8 FEFFFFEB 		bl	__aeabi_fmul
 844 00bc 388084E5 		str	r8, [r4, #56]	@ float
 845 00c0 340084E5 		str	r0, [r4, #52]	@ float
 846 00c4 F843BDE8 		ldmfd	sp!, {r3, r4, r5, r6, r7, r8, r9, lr}
 847 00c8 1EFF2FE1 		bx	lr
 849              		.section	.text.ecef_of_lla_f,"ax",%progbits
 850              		.align	2
 851              		.global	ecef_of_lla_f
 853              	ecef_of_lla_f:
 854              		@ Function supports interworking.
 855              		@ args = 0, pretend = 0, frame = 0
 856              		@ frame_needed = 0, uses_anonymous_args = 0
 857 0000 F84F2DE9 		stmfd	sp!, {r3, r4, r5, r6, r7, r8, r9, r10, fp, lr}
 858 0004 045091E5 		ldr	r5, [r1, #4]	@ float
 859 0008 0060A0E1 		mov	r6, r0
 860 000c 0500A0E1 		mov	r0, r5
 861 0010 0140A0E1 		mov	r4, r1
 862 0014 FEFFFFEB 		bl	sinf
 863 0018 0070A0E1 		mov	r7, r0
 864 001c 0500A0E1 		mov	r0, r5
 865 0020 FEFFFFEB 		bl	cosf
 866 0024 005094E5 		ldr	r5, [r4]	@ float
 867 0028 00B0A0E1 		mov	fp, r0
 868 002c 0500A0E1 		mov	r0, r5
 869 0030 FEFFFFEB 		bl	sinf
 870 0034 0090A0E1 		mov	r9, r0
 871 0038 0500A0E1 		mov	r0, r5
 872 003c FEFFFFEB 		bl	cosf
 873 0040 D0109FE5 		ldr	r1, .L17
 874 0044 00A0A0E1 		mov	r10, r0
 875 0048 0700A0E1 		mov	r0, r7
 876 004c FEFFFFEB 		bl	__aeabi_fmul
 877 0050 0710A0E1 		mov	r1, r7
 878 0054 FEFFFFEB 		bl	__aeabi_fmul
 879 0058 0010A0E1 		mov	r1, r0
 880 005c FE05A0E3 		mov	r0, #1065353216
 881 0060 FEFFFFEB 		bl	__aeabi_fsub
 882 0064 FEFFFFEB 		bl	sqrtf
 883 0068 0010A0E1 		mov	r1, r0
 884 006c A8009FE5 		ldr	r0, .L17+4
 885 0070 FEFFFFEB 		bl	__aeabi_fdiv
 886 0074 088094E5 		ldr	r8, [r4, #8]	@ float
 887 0078 0810A0E1 		mov	r1, r8
 888 007c 0050A0E1 		mov	r5, r0
 889 0080 FEFFFFEB 		bl	__aeabi_fadd
 890 0084 0B10A0E1 		mov	r1, fp
 891 0088 FEFFFFEB 		bl	__aeabi_fmul
 892 008c 0A10A0E1 		mov	r1, r10
 893 0090 0040A0E1 		mov	r4, r0
 894 0094 FEFFFFEB 		bl	__aeabi_fmul
 895 0098 0910A0E1 		mov	r1, r9
 896 009c 000086E5 		str	r0, [r6]	@ float
 897 00a0 0400A0E1 		mov	r0, r4
 898 00a4 FEFFFFEB 		bl	__aeabi_fmul
 899 00a8 040086E5 		str	r0, [r6, #4]	@ float
 900 00ac 0500A0E1 		mov	r0, r5
 901 00b0 FEFFFFEB 		bl	__aeabi_f2d
 902 00b4 64209FE5 		ldr	r2, .L17+8
 903 00b8 64309FE5 		ldr	r3, .L17+12
 904 00bc FEFFFFEB 		bl	__aeabi_dmul
 905 00c0 0040A0E1 		mov	r4, r0
 906 00c4 0800A0E1 		mov	r0, r8
 907 00c8 0150A0E1 		mov	r5, r1
 908 00cc FEFFFFEB 		bl	__aeabi_f2d
 909 00d0 0020A0E1 		mov	r2, r0
 910 00d4 0130A0E1 		mov	r3, r1
 911 00d8 0400A0E1 		mov	r0, r4
 912 00dc 0510A0E1 		mov	r1, r5
 913 00e0 FEFFFFEB 		bl	__aeabi_dadd
 914 00e4 0040A0E1 		mov	r4, r0
 915 00e8 0700A0E1 		mov	r0, r7
 916 00ec 0150A0E1 		mov	r5, r1
 917 00f0 FEFFFFEB 		bl	__aeabi_f2d
 918 00f4 0130A0E1 		mov	r3, r1
 919 00f8 0020A0E1 		mov	r2, r0
 920 00fc 0510A0E1 		mov	r1, r5
 921 0100 0400A0E1 		mov	r0, r4
 922 0104 FEFFFFEB 		bl	__aeabi_dmul
 923 0108 FEFFFFEB 		bl	__aeabi_d2f
 924 010c 080086E5 		str	r0, [r6, #8]	@ float
 925 0110 F84FBDE8 		ldmfd	sp!, {r3, r4, r5, r6, r7, r8, r9, r10, fp, lr}
 926 0114 1EFF2FE1 		bx	lr
 927              	.L18:
 928              		.align	2
 929              	.L17:
 930 0118 875CDB3B 		.word	1004231815
 931 011c 32A5C24A 		.word	1254270258
 932 0120 000040DE 		.word	-566231040
 933 0124 28C9EF3F 		.word	1072679208
 935              		.section	.text.ltp_def_from_lla_f,"ax",%progbits
 936              		.align	2
 937              		.global	ltp_def_from_lla_f
 939              	ltp_def_from_lla_f:
 940              		@ Function supports interworking.
 941              		@ args = 0, pretend = 0, frame = 0
 942              		@ frame_needed = 0, uses_anonymous_args = 0
 943 0000 F8432DE9 		stmfd	sp!, {r3, r4, r5, r6, r7, r8, r9, lr}
 944 0004 043091E5 		ldr	r3, [r1, #4]	@ float
 945 0008 103080E5 		str	r3, [r0, #16]	@ float
 946 000c 003091E5 		ldr	r3, [r1]	@ float
 947 0010 0C3080E5 		str	r3, [r0, #12]	@ float
 948 0014 083091E5 		ldr	r3, [r1, #8]	@ float
 949 0018 0040A0E1 		mov	r4, r0
 950 001c 143080E5 		str	r3, [r0, #20]	@ float
 951 0020 0C1080E2 		add	r1, r0, #12
 952 0024 FEFFFFEB 		bl	ecef_of_lla_f
 953 0028 105094E5 		ldr	r5, [r4, #16]	@ float
 954 002c 0500A0E1 		mov	r0, r5
 955 0030 FEFFFFEB 		bl	sinf
 956 0034 0080A0E1 		mov	r8, r0
 957 0038 0500A0E1 		mov	r0, r5
 958 003c FEFFFFEB 		bl	cosf
 959 0040 0C7094E5 		ldr	r7, [r4, #12]	@ float
 960 0044 0060A0E1 		mov	r6, r0
 961 0048 0700A0E1 		mov	r0, r7
 962 004c FEFFFFEB 		bl	sinf
 963 0050 0050A0E1 		mov	r5, r0
 964 0054 0700A0E1 		mov	r0, r7
 965 0058 FEFFFFEB 		bl	cosf
 966 005c 023185E2 		add	r3, r5, #-2147483648
 967 0060 0070A0E1 		mov	r7, r0
 968 0064 183084E5 		str	r3, [r4, #24]	@ float
 969 0068 029188E2 		add	r9, r8, #-2147483648
 970 006c 0030A0E3 		mov	r3, #0
 971 0070 203084E5 		str	r3, [r4, #32]	@ float
 972 0074 1C0084E5 		str	r0, [r4, #28]	@ float
 973 0078 0710A0E1 		mov	r1, r7
 974 007c 0900A0E1 		mov	r0, r9
 975 0080 FEFFFFEB 		bl	__aeabi_fmul
 976 0084 0510A0E1 		mov	r1, r5
 977 0088 240084E5 		str	r0, [r4, #36]	@ float
 978 008c 0900A0E1 		mov	r0, r9
 979 0090 FEFFFFEB 		bl	__aeabi_fmul
 980 0094 0710A0E1 		mov	r1, r7
 981 0098 280084E5 		str	r0, [r4, #40]	@ float
 982 009c 2C6084E5 		str	r6, [r4, #44]	@ float
 983 00a0 0600A0E1 		mov	r0, r6
 984 00a4 FEFFFFEB 		bl	__aeabi_fmul
 985 00a8 0510A0E1 		mov	r1, r5
 986 00ac 300084E5 		str	r0, [r4, #48]	@ float
 987 00b0 0600A0E1 		mov	r0, r6
 988 00b4 FEFFFFEB 		bl	__aeabi_fmul
 989 00b8 388084E5 		str	r8, [r4, #56]	@ float
 990 00bc 340084E5 		str	r0, [r4, #52]	@ float
 991 00c0 F843BDE8 		ldmfd	sp!, {r3, r4, r5, r6, r7, r8, r9, lr}
 992 00c4 1EFF2FE1 		bx	lr
 994              		.section	.text.enu_of_lla_point_f,"ax",%progbits
 995              		.align	2
 996              		.global	enu_of_lla_point_f
 998              	enu_of_lla_point_f:
 999              		@ Function supports interworking.
 1000              		@ args = 0, pretend = 0, frame = 16
 1001              		@ frame_needed = 0, uses_anonymous_args = 0
 1002 0000 30402DE9 		stmfd	sp!, {r4, r5, lr}
 1003 0004 14D04DE2 		sub	sp, sp, #20
 1004 0008 0050A0E1 		mov	r5, r0
 1005 000c 0140A0E1 		mov	r4, r1
 1006 0010 04008DE2 		add	r0, sp, #4
 1007 0014 0210A0E1 		mov	r1, r2
 1008 0018 FEFFFFEB 		bl	ecef_of_lla_f
 1009 001c 0500A0E1 		mov	r0, r5
 1010 0020 0410A0E1 		mov	r1, r4
 1011 0024 04208DE2 		add	r2, sp, #4
 1012 0028 FEFFFFEB 		bl	enu_of_ecef_point_f
 1013 002c 14D08DE2 		add	sp, sp, #20
 1014              		@ sp needed
 1015 0030 3040BDE8 		ldmfd	sp!, {r4, r5, lr}
 1016 0034 1EFF2FE1 		bx	lr
 1018              		.section	.text.ned_of_lla_point_f,"ax",%progbits
 1019              		.align	2
 1020              		.global	ned_of_lla_point_f
 1022              	ned_of_lla_point_f:
 1023              		@ Function supports interworking.
 1024              		@ args = 0, pretend = 0, frame = 16
 1025              		@ frame_needed = 0, uses_anonymous_args = 0
 1026 0000 30402DE9 		stmfd	sp!, {r4, r5, lr}
 1027 0004 14D04DE2 		sub	sp, sp, #20
 1028 0008 0050A0E1 		mov	r5, r0
 1029 000c 0140A0E1 		mov	r4, r1
 1030 0010 04008DE2 		add	r0, sp, #4
 1031 0014 0210A0E1 		mov	r1, r2
 1032 0018 FEFFFFEB 		bl	ecef_of_lla_f
 1033 001c 0500A0E1 		mov	r0, r5
 1034 0020 0410A0E1 		mov	r1, r4
 1035 0024 04208DE2 		add	r2, sp, #4
 1036 0028 FEFFFFEB 		bl	ned_of_ecef_point_f
 1037 002c 14D08DE2 		add	sp, sp, #20
 1038              		@ sp needed
 1039 0030 3040BDE8 		ldmfd	sp!, {r4, r5, lr}
 1040 0034 1EFF2FE1 		bx	lr
 1042              		.global	__aeabi_i2d
 1043              		.global	__aeabi_dsub
 1044              		.global	__aeabi_ddiv
 1045              		.global	__aeabi_i2f
 1046              		.section	.text.utm_of_lla_f,"ax",%progbits
 1047              		.align	2
 1048              		.global	utm_of_lla_f
 1050              	utm_of_lla_f:
 1051              		@ Function supports interworking.
 1052              		@ args = 0, pretend = 0, frame = 24
 1053              		@ frame_needed = 0, uses_anonymous_args = 0
 1054 0000 F04F2DE9 		stmfd	sp!, {r4, r5, r6, r7, r8, r9, r10, fp, lr}
 1055 0004 0080A0E1 		mov	r8, r0
 1056 0008 0C00D0E5 		ldrb	r0, [r0, #12]	@ zero_extendqisi2
 1057 000c 0630A0E3 		mov	r3, #6
 1058 0010 010040E2 		sub	r0, r0, #1
 1059 0014 930000E0 		mul	r0, r3, r0
 1060 0018 1CD04DE2 		sub	sp, sp, #28
 1061 001c B10040E2 		sub	r0, r0, #177
 1062 0020 0190A0E1 		mov	r9, r1
 1063 0024 FEFFFFEB 		bl	__aeabi_i2d
 1064 0028 0C239FE5 		ldr	r2, .L26
 1065 002c 0C339FE5 		ldr	r3, .L26+4
 1066 0030 FEFFFFEB 		bl	__aeabi_dmul
 1067 0034 FEFFFFEB 		bl	__aeabi_d2f
 1068 0038 00C0A0E1 		mov	ip, r0
 1069 003c 040099E5 		ldr	r0, [r9, #4]	@ float
 1070 0040 04C08DE5 		str	ip, [sp, #4]
 1071 0044 FEFFFFEB 		bl	__aeabi_f2d
 1072 0048 0020A0E3 		mov	r2, #0
 1073 004c F0329FE5 		ldr	r3, .L26+8
 1074 0050 0060A0E1 		mov	r6, r0
 1075 0054 0170A0E1 		mov	r7, r1
 1076 0058 FEFFFFEB 		bl	__aeabi_dmul
 1077 005c E4229FE5 		ldr	r2, .L26+12
 1078 0060 E4329FE5 		ldr	r3, .L26+16
 1079 0064 FEFFFFEB 		bl	__aeabi_dadd
 1080 0068 FEFFFFEB 		bl	tan
 1081 006c FEFFFFEB 		bl	log
 1082 0070 0040A0E1 		mov	r4, r0
 1083 0074 0150A0E1 		mov	r5, r1
 1084 0078 0600A0E1 		mov	r0, r6
 1085 007c 0710A0E1 		mov	r1, r7
 1086 0080 FEFFFFEB 		bl	sin
 1087 0084 0121A0E3 		mov	r2, #1073741824
 1088 0088 C0329FE5 		ldr	r3, .L26+20
 1089 008c FEFFFFEB 		bl	__aeabi_dmul
 1090 0090 0020A0E3 		mov	r2, #0
 1091 0094 B8329FE5 		ldr	r3, .L26+24
 1092 0098 00A0A0E1 		mov	r10, r0
 1093 009c 01B0A0E1 		mov	fp, r1
 1094 00a0 FEFFFFEB 		bl	__aeabi_dadd
 1095 00a4 0A20A0E1 		mov	r2, r10
 1096 00a8 0060A0E1 		mov	r6, r0
 1097 00ac 0170A0E1 		mov	r7, r1
 1098 00b0 0B30A0E1 		mov	r3, fp
 1099 00b4 0000A0E3 		mov	r0, #0
 1100 00b8 94129FE5 		ldr	r1, .L26+24
 1101 00bc FEFFFFEB 		bl	__aeabi_dsub
 1102 00c0 0020A0E1 		mov	r2, r0
 1103 00c4 0130A0E1 		mov	r3, r1
 1104 00c8 0600A0E1 		mov	r0, r6
 1105 00cc 0710A0E1 		mov	r1, r7
 1106 00d0 FEFFFFEB 		bl	__aeabi_ddiv
 1107 00d4 FEFFFFEB 		bl	log
 1108 00d8 04C09DE5 		ldr	ip, [sp, #4]
 1109 00dc 0060A0E1 		mov	r6, r0
 1110 00e0 0170A0E1 		mov	r7, r1
 1111 00e4 000099E5 		ldr	r0, [r9]	@ float
 1112 00e8 0C10A0E1 		mov	r1, ip
 1113 00ec FEFFFFEB 		bl	__aeabi_fsub
 1114 00f0 FEFFFFEB 		bl	__aeabi_f2d
 1115 00f4 08008DE5 		str	r0, [sp, #8]
 1116 00f8 0C108DE5 		str	r1, [sp, #12]
 1117 00fc FEFFFFEB 		bl	sin
 1118 0100 0121A0E3 		mov	r2, #1073741824
 1119 0104 00A0A0E1 		mov	r10, r0
 1120 0108 01B0A0E1 		mov	fp, r1
 1121 010c 0600A0E1 		mov	r0, r6
 1122 0110 40329FE5 		ldr	r3, .L26+28
 1123 0114 0710A0E1 		mov	r1, r7
 1124 0118 FEFFFFEB 		bl	__aeabi_dmul
 1125 011c 0020A0E1 		mov	r2, r0
 1126 0120 0130A0E1 		mov	r3, r1
 1127 0124 0400A0E1 		mov	r0, r4
 1128 0128 0510A0E1 		mov	r1, r5
 1129 012c FEFFFFEB 		bl	__aeabi_dsub
 1130 0130 FEFFFFEB 		bl	__aeabi_d2f
 1131 0134 FEFFFFEB 		bl	__aeabi_f2d
 1132 0138 0040A0E1 		mov	r4, r0
 1133 013c 0150A0E1 		mov	r5, r1
 1134 0140 FEFFFFEB 		bl	cosh
 1135 0144 0020A0E1 		mov	r2, r0
 1136 0148 0130A0E1 		mov	r3, r1
 1137 014c 0A00A0E1 		mov	r0, r10
 1138 0150 0B10A0E1 		mov	r1, fp
 1139 0154 FEFFFFEB 		bl	__aeabi_ddiv
 1140 0158 FEFFFFEB 		bl	asin
 1141 015c FEFFFFEB 		bl	__aeabi_d2f
 1142 0160 FEFFFFEB 		bl	isometric_latitude_fast_f
 1143 0164 0510A0E1 		mov	r1, r5
 1144 0168 14008DE5 		str	r0, [sp, #20]	@ float
 1145 016c 0400A0E1 		mov	r0, r4
 1146 0170 FEFFFFEB 		bl	sinh
 1147 0174 0040A0E1 		mov	r4, r0
 1148 0178 0150A0E1 		mov	r5, r1
 1149 017c 08108DE2 		add	r1, sp, #8
 1150 0180 030091E8 		ldmia	r1, {r0-r1}
 1151 0184 FEFFFFEB 		bl	cos
 1152 0188 0020A0E1 		mov	r2, r0
 1153 018c 0130A0E1 		mov	r3, r1
 1154 0190 0400A0E1 		mov	r0, r4
 1155 0194 0510A0E1 		mov	r1, r5
 1156 0198 FEFFFFEB 		bl	__aeabi_ddiv
 1157 019c FEFFFFEB 		bl	atan
 1158 01a0 FEFFFFEB 		bl	__aeabi_d2f
 1159 01a4 B0119FE5 		ldr	r1, .L26+32
 1160 01a8 08008DE5 		str	r0, [sp, #8]	@ float
 1161 01ac FEFFFFEB 		bl	__aeabi_fmul
 1162 01b0 A4119FE5 		ldr	r1, .L26+32
 1163 01b4 00A0A0E1 		mov	r10, r0
 1164 01b8 14009DE5 		ldr	r0, [sp, #20]	@ float
 1165 01bc FEFFFFEB 		bl	__aeabi_fmul
 1166 01c0 0260A0E3 		mov	r6, #2
 1167 01c4 0020A0E1 		mov	r2, r0
 1168              	.L24:
 1169 01c8 0600A0E1 		mov	r0, r6
 1170 01cc 00208DE5 		str	r2, [sp]
 1171 01d0 FEFFFFEB 		bl	__aeabi_i2f
 1172 01d4 0040A0E1 		mov	r4, r0
 1173 01d8 0410A0E1 		mov	r1, r4
 1174 01dc 14009DE5 		ldr	r0, [sp, #20]	@ float
 1175 01e0 FEFFFFEB 		bl	__aeabi_fmul
 1176 01e4 020180E2 		add	r0, r0, #-2147483648
 1177 01e8 FEFFFFEB 		bl	__aeabi_f2d
 1178 01ec FEFFFFEB 		bl	exp
 1179 01f0 FEFFFFEB 		bl	__aeabi_d2f
 1180 01f4 0410A0E1 		mov	r1, r4
 1181 01f8 0070A0E1 		mov	r7, r0
 1182 01fc 08009DE5 		ldr	r0, [sp, #8]	@ float
 1183 0200 FEFFFFEB 		bl	__aeabi_fmul
 1184 0204 FEFFFFEB 		bl	__aeabi_f2d
 1185 0208 0040A0E1 		mov	r4, r0
 1186 020c 0150A0E1 		mov	r5, r1
 1187 0210 FEFFFFEB 		bl	cos
 1188 0214 FEFFFFEB 		bl	__aeabi_d2f
 1189 0218 0510A0E1 		mov	r1, r5
 1190 021c 00B0A0E1 		mov	fp, r0
 1191 0220 0400A0E1 		mov	r0, r4
 1192 0224 FEFFFFEB 		bl	sin
 1193 0228 FEFFFFEB 		bl	__aeabi_d2f
 1194 022c 2C119FE5 		ldr	r1, .L26+36
 1195 0230 0050A0E1 		mov	r5, r0
 1196 0234 864091E7 		ldr	r4, [r1, r6, asl #1]	@ float
 1197 0238 0700A0E1 		mov	r0, r7
 1198 023c 0510A0E1 		mov	r1, r5
 1199 0240 FEFFFFEB 		bl	__aeabi_fmul
 1200 0244 0710A0E1 		mov	r1, r7
 1201 0248 00C0A0E1 		mov	ip, r0
 1202 024c 020185E2 		add	r0, r5, #-2147483648
 1203 0250 04C08DE5 		str	ip, [sp, #4]
 1204 0254 FEFFFFEB 		bl	__aeabi_fdiv
 1205 0258 04C09DE5 		ldr	ip, [sp, #4]
 1206 025c 0010A0E1 		mov	r1, r0
 1207 0260 0C00A0E1 		mov	r0, ip
 1208 0264 FEFFFFEB 		bl	__aeabi_fsub
 1209 0268 BF14A0E3 		mov	r1, #-1090519040
 1210 026c FEFFFFEB 		bl	__aeabi_fmul
 1211 0270 0410A0E1 		mov	r1, r4
 1212 0274 020180E2 		add	r0, r0, #-2147483648
 1213 0278 FEFFFFEB 		bl	__aeabi_fmul
 1214 027c 0010A0E1 		mov	r1, r0
 1215 0280 0A00A0E1 		mov	r0, r10
 1216 0284 FEFFFFEB 		bl	__aeabi_fadd
 1217 0288 0B10A0E1 		mov	r1, fp
 1218 028c 00A0A0E1 		mov	r10, r0
 1219 0290 0700A0E1 		mov	r0, r7
 1220 0294 FEFFFFEB 		bl	__aeabi_fmul
 1221 0298 0710A0E1 		mov	r1, r7
 1222 029c 0050A0E1 		mov	r5, r0
 1223 02a0 0B00A0E1 		mov	r0, fp
 1224 02a4 FEFFFFEB 		bl	__aeabi_fdiv
 1225 02a8 0010A0E1 		mov	r1, r0
 1226 02ac 0500A0E1 		mov	r0, r5
 1227 02b0 FEFFFFEB 		bl	__aeabi_fsub
 1228 02b4 BF14A0E3 		mov	r1, #-1090519040
 1229 02b8 FEFFFFEB 		bl	__aeabi_fmul
 1230 02bc 0410A0E1 		mov	r1, r4
 1231 02c0 FEFFFFEB 		bl	__aeabi_fmul
 1232 02c4 00209DE5 		ldr	r2, [sp]
 1233 02c8 0010A0E1 		mov	r1, r0
 1234 02cc 0200A0E1 		mov	r0, r2
 1235 02d0 FEFFFFEB 		bl	__aeabi_fadd
 1236 02d4 026086E2 		add	r6, r6, #2
 1237 02d8 060056E3 		cmp	r6, #6
 1238 02dc 0020A0E1 		mov	r2, r0
 1239 02e0 B8FFFF1A 		bne	.L24
 1240 02e4 FEFFFFEB 		bl	__aeabi_f2d
 1241 02e8 74209FE5 		ldr	r2, .L26+40
 1242 02ec 74309FE5 		ldr	r3, .L26+44
 1243 02f0 FEFFFFEB 		bl	__aeabi_dmul
 1244 02f4 FEFFFFEB 		bl	__aeabi_d2f
 1245 02f8 6C109FE5 		ldr	r1, .L26+48
 1246 02fc FEFFFFEB 		bl	__aeabi_fadd
 1247 0300 040088E5 		str	r0, [r8, #4]	@ float
 1248 0304 0A00A0E1 		mov	r0, r10
 1249 0308 FEFFFFEB 		bl	__aeabi_f2d
 1250 030c 50209FE5 		ldr	r2, .L26+40
 1251 0310 50309FE5 		ldr	r3, .L26+44
 1252 0314 FEFFFFEB 		bl	__aeabi_dmul
 1253 0318 FEFFFFEB 		bl	__aeabi_d2f
 1254 031c 0010A0E3 		mov	r1, #0
 1255 0320 FEFFFFEB 		bl	__aeabi_fadd
 1256 0324 083099E5 		ldr	r3, [r9, #8]	@ float
 1257 0328 000088E5 		str	r0, [r8]	@ float
 1258 032c 083088E5 		str	r3, [r8, #8]	@ float
 1259 0330 1CD08DE2 		add	sp, sp, #28
 1260              		@ sp needed
 1261 0334 F04FBDE8 		ldmfd	sp!, {r4, r5, r6, r7, r8, r9, r10, fp, lr}
 1262 0338 1EFF2FE1 		bx	lr
 1263              	.L27:
 1264              		.align	2
 1265              	.L26:
 1266 033c 399D52A2 		.word	-1571644103
 1267 0340 46DF913F 		.word	1066524486
 1268 0344 0000E03F 		.word	1071644672
 1269 0348 182D4454 		.word	1413754136
 1270 034c FB21E93F 		.word	1072243195
 1271 0350 1AF2B43F 		.word	1068823066
 1272 0354 0000F03F 		.word	1072693248
 1273 0358 1AF2A43F 		.word	1067774490
 1274 035c 2E927F3F 		.word	1065325102
 1275 0360 00000000 		.word	.LANCHOR0
 1276 0364 585BB16F 		.word	1873894232
 1277 0368 28525841 		.word	1096307240
 1278 036c 0024F448 		.word	1223959552
 1280              		.global	__aeabi_fcmpgt
 1281              		.section	.text.lla_of_utm_f,"ax",%progbits
 1282              		.align	2
 1283              		.global	lla_of_utm_f
 1285              	lla_of_utm_f:
 1286              		@ Function supports interworking.
 1287              		@ args = 0, pretend = 0, frame = 32
 1288              		@ frame_needed = 0, uses_anonymous_args = 0
 1289 0000 F04F2DE9 		stmfd	sp!, {r4, r5, r6, r7, r8, r9, r10, fp, lr}
 1290 0004 0180A0E1 		mov	r8, r1
 1291 0008 24D04DE2 		sub	sp, sp, #36
 1292 000c 00A0A0E1 		mov	r10, r0
 1293 0010 000091E5 		ldr	r0, [r1]	@ float
 1294 0014 14139FE5 		ldr	r1, .L35
 1295 0018 FEFFFFEB 		bl	__aeabi_fmul
 1296 001c 00B0A0E1 		mov	fp, r0
 1297 0020 040098E5 		ldr	r0, [r8, #4]	@ float
 1298 0024 FEFFFFEB 		bl	__aeabi_f2d
 1299 0028 0020A0E3 		mov	r2, #0
 1300 002c 00339FE5 		ldr	r3, .L35+4
 1301 0030 FEFFFFEB 		bl	__aeabi_dsub
 1302 0034 0622A0E3 		mov	r2, #1610612736
 1303 0038 F8329FE5 		ldr	r3, .L35+8
 1304 003c FEFFFFEB 		bl	__aeabi_dmul
 1305 0040 FEFFFFEB 		bl	__aeabi_d2f
 1306 0044 0010A0E1 		mov	r1, r0
 1307 0048 0070A0E1 		mov	r7, r0
 1308 004c FEFFFFEB 		bl	__aeabi_fadd
 1309 0050 020180E2 		add	r0, r0, #-2147483648
 1310 0054 FEFFFFEB 		bl	__aeabi_f2d
 1311 0058 FEFFFFEB 		bl	exp
 1312 005c FEFFFFEB 		bl	__aeabi_d2f
 1313 0060 0B10A0E1 		mov	r1, fp
 1314 0064 0090A0E1 		mov	r9, r0
 1315 0068 0B00A0E1 		mov	r0, fp
 1316 006c FEFFFFEB 		bl	__aeabi_fadd
 1317 0070 FEFFFFEB 		bl	__aeabi_f2d
 1318 0074 0040A0E1 		mov	r4, r0
 1319 0078 0150A0E1 		mov	r5, r1
 1320 007c FEFFFFEB 		bl	cos
 1321 0080 FEFFFFEB 		bl	__aeabi_d2f
 1322 0084 0510A0E1 		mov	r1, r5
 1323 0088 0060A0E1 		mov	r6, r0
 1324 008c 0400A0E1 		mov	r0, r4
 1325 0090 FEFFFFEB 		bl	sin
 1326 0094 FEFFFFEB 		bl	__aeabi_d2f
 1327 0098 0040A0E1 		mov	r4, r0
 1328 009c 0C00D8E5 		ldrb	r0, [r8, #12]	@ zero_extendqisi2
 1329 00a0 0630A0E3 		mov	r3, #6
 1330 00a4 010040E2 		sub	r0, r0, #1
 1331 00a8 930000E0 		mul	r0, r3, r0
 1332 00ac B10040E2 		sub	r0, r0, #177
 1333 00b0 FEFFFFEB 		bl	__aeabi_i2d
 1334 00b4 80229FE5 		ldr	r2, .L35+12
 1335 00b8 80329FE5 		ldr	r3, .L35+16
 1336 00bc FEFFFFEB 		bl	__aeabi_dmul
 1337 00c0 FEFFFFEB 		bl	__aeabi_d2f
 1338 00c4 FEFFFFEB 		bl	__aeabi_f2d
 1339 00c8 08008DE5 		str	r0, [sp, #8]
 1340 00cc 0C108DE5 		str	r1, [sp, #12]
 1341 00d0 0610A0E1 		mov	r1, r6
 1342 00d4 0900A0E1 		mov	r0, r9
 1343 00d8 FEFFFFEB 		bl	__aeabi_fmul
 1344 00dc 0910A0E1 		mov	r1, r9
 1345 00e0 0050A0E1 		mov	r5, r0
 1346 00e4 0600A0E1 		mov	r0, r6
 1347 00e8 FEFFFFEB 		bl	__aeabi_fdiv
 1348 00ec 0010A0E1 		mov	r1, r0
 1349 00f0 0500A0E1 		mov	r0, r5
 1350 00f4 FEFFFFEB 		bl	__aeabi_fsub
 1351 00f8 BF14A0E3 		mov	r1, #-1090519040
 1352 00fc FEFFFFEB 		bl	__aeabi_fmul
 1353 0100 3C129FE5 		ldr	r1, .L35+20
 1354 0104 FEFFFFEB 		bl	__aeabi_fmul
 1355 0108 0010A0E1 		mov	r1, r0
 1356 010c 0700A0E1 		mov	r0, r7
 1357 0110 FEFFFFEB 		bl	__aeabi_fsub
 1358 0114 FEFFFFEB 		bl	__aeabi_f2d
 1359 0118 10008DE5 		str	r0, [sp, #16]
 1360 011c 14108DE5 		str	r1, [sp, #20]
 1361 0120 FEFFFFEB 		bl	sinh
 1362 0124 0060A0E1 		mov	r6, r0
 1363 0128 0170A0E1 		mov	r7, r1
 1364 012c 0900A0E1 		mov	r0, r9
 1365 0130 0410A0E1 		mov	r1, r4
 1366 0134 FEFFFFEB 		bl	__aeabi_fmul
 1367 0138 0910A0E1 		mov	r1, r9
 1368 013c 0030A0E1 		mov	r3, r0
 1369 0140 020184E2 		add	r0, r4, #-2147483648
 1370 0144 04308DE5 		str	r3, [sp, #4]
 1371 0148 FEFFFFEB 		bl	__aeabi_fdiv
 1372 014c 04309DE5 		ldr	r3, [sp, #4]
 1373 0150 0010A0E1 		mov	r1, r0
 1374 0154 0300A0E1 		mov	r0, r3
 1375 0158 FEFFFFEB 		bl	__aeabi_fsub
 1376 015c BF14A0E3 		mov	r1, #-1090519040
 1377 0160 FEFFFFEB 		bl	__aeabi_fmul
 1378 0164 D8119FE5 		ldr	r1, .L35+20
 1379 0168 020180E2 		add	r0, r0, #-2147483648
 1380 016c FEFFFFEB 		bl	__aeabi_fmul
 1381 0170 0010A0E1 		mov	r1, r0
 1382 0174 0B00A0E1 		mov	r0, fp
 1383 0178 FEFFFFEB 		bl	__aeabi_fsub
 1384 017c FEFFFFEB 		bl	__aeabi_f2d
 1385 0180 18008DE5 		str	r0, [sp, #24]
 1386 0184 1C108DE5 		str	r1, [sp, #28]
 1387 0188 FEFFFFEB 		bl	cos
 1388 018c 0020A0E1 		mov	r2, r0
 1389 0190 0130A0E1 		mov	r3, r1
 1390 0194 0600A0E1 		mov	r0, r6
 1391 0198 0710A0E1 		mov	r1, r7
 1392 019c FEFFFFEB 		bl	__aeabi_ddiv
 1393 01a0 FEFFFFEB 		bl	atan
 1394 01a4 0020A0E1 		mov	r2, r0
 1395 01a8 0130A0E1 		mov	r3, r1
 1396 01ac 08108DE2 		add	r1, sp, #8
 1397 01b0 030091E8 		ldmia	r1, {r0-r1}
 1398 01b4 FEFFFFEB 		bl	__aeabi_dadd
 1399 01b8 FEFFFFEB 		bl	__aeabi_d2f
 1400 01bc 00008AE5 		str	r0, [r10]	@ float
 1401 01c0 18108DE2 		add	r1, sp, #24
 1402 01c4 030091E8 		ldmia	r1, {r0-r1}
 1403 01c8 FEFFFFEB 		bl	sin
 1404 01cc 0040A0E1 		mov	r4, r0
 1405 01d0 0150A0E1 		mov	r5, r1
 1406 01d4 10108DE2 		add	r1, sp, #16
 1407 01d8 030091E8 		ldmia	r1, {r0-r1}
 1408 01dc FEFFFFEB 		bl	cosh
 1409 01e0 0020A0E1 		mov	r2, r0
 1410 01e4 0130A0E1 		mov	r3, r1
 1411 01e8 0400A0E1 		mov	r0, r4
 1412 01ec 0510A0E1 		mov	r1, r5
 1413 01f0 FEFFFFEB 		bl	__aeabi_ddiv
 1414 01f4 FEFFFFEB 		bl	asin
 1415 01f8 FEFFFFEB 		bl	__aeabi_d2f
 1416 01fc FEFFFFEB 		bl	isometric_latitude_fast_f
 1417 0200 FEFFFFEB 		bl	__aeabi_f2d
 1418 0204 FEFFFFEB 		bl	exp
 1419 0208 FEFFFFEB 		bl	__aeabi_d2f
 1420 020c FEFFFFEB 		bl	__aeabi_f2d
 1421 0210 0060A0E1 		mov	r6, r0
 1422 0214 0170A0E1 		mov	r7, r1
 1423 0218 FEFFFFEB 		bl	atan
 1424 021c 0020A0E1 		mov	r2, r0
 1425 0220 0130A0E1 		mov	r3, r1
 1426 0224 FEFFFFEB 		bl	__aeabi_dadd
 1427 0228 18219FE5 		ldr	r2, .L35+24
 1428 022c 18319FE5 		ldr	r3, .L35+28
 1429 0230 FEFFFFEB 		bl	__aeabi_dsub
 1430 0234 FEFFFFEB 		bl	__aeabi_d2f
 1431 0238 03B0A0E3 		mov	fp, #3
 1432 023c 0090A0E1 		mov	r9, r0
 1433              	.L32:
 1434 0240 0900A0E1 		mov	r0, r9
 1435 0244 FEFFFFEB 		bl	__aeabi_f2d
 1436 0248 FEFFFFEB 		bl	sin
 1437 024c 0121A0E3 		mov	r2, #1073741824
 1438 0250 F8309FE5 		ldr	r3, .L35+32
 1439 0254 FEFFFFEB 		bl	__aeabi_dmul
 1440 0258 FEFFFFEB 		bl	__aeabi_d2f
 1441 025c FE15A0E3 		mov	r1, #1065353216
 1442 0260 04008DE5 		str	r0, [sp, #4]
 1443 0264 FEFFFFEB 		bl	__aeabi_fadd
 1444 0268 FEFFFFEB 		bl	__aeabi_f2d
 1445 026c 04309DE5 		ldr	r3, [sp, #4]
 1446 0270 0040A0E1 		mov	r4, r0
 1447 0274 0300A0E1 		mov	r0, r3
 1448 0278 0150A0E1 		mov	r5, r1
 1449 027c FEFFFFEB 		bl	__aeabi_f2d
 1450 0280 0020A0E1 		mov	r2, r0
 1451 0284 0130A0E1 		mov	r3, r1
 1452 0288 0000A0E3 		mov	r0, #0
 1453 028c C0109FE5 		ldr	r1, .L35+36
 1454 0290 FEFFFFEB 		bl	__aeabi_dsub
 1455 0294 0020A0E1 		mov	r2, r0
 1456 0298 0130A0E1 		mov	r3, r1
 1457 029c 0400A0E1 		mov	r0, r4
 1458 02a0 0510A0E1 		mov	r1, r5
 1459 02a4 FEFFFFEB 		bl	__aeabi_ddiv
 1460 02a8 0121A0E3 		mov	r2, #1073741824
 1461 02ac A4309FE5 		ldr	r3, .L35+40
 1462 02b0 FEFFFFEB 		bl	pow
 1463 02b4 0620A0E1 		mov	r2, r6
 1464 02b8 0730A0E1 		mov	r3, r7
 1465 02bc FEFFFFEB 		bl	__aeabi_dmul
 1466 02c0 FEFFFFEB 		bl	atan
 1467 02c4 0020A0E1 		mov	r2, r0
 1468 02c8 0130A0E1 		mov	r3, r1
 1469 02cc FEFFFFEB 		bl	__aeabi_dadd
 1470 02d0 70209FE5 		ldr	r2, .L35+24
 1471 02d4 70309FE5 		ldr	r3, .L35+28
 1472 02d8 FEFFFFEB 		bl	__aeabi_dsub
 1473 02dc FEFFFFEB 		bl	__aeabi_d2f
 1474 02e0 01B04BE2 		sub	fp, fp, #1
 1475 02e4 FFB01BE2 		ands	fp, fp, #255
 1476 02e8 0040A0E1 		mov	r4, r0
 1477 02ec 0500001A 		bne	.L29
 1478              	.L30:
 1479 02f0 083098E5 		ldr	r3, [r8, #8]	@ float
 1480 02f4 04408AE5 		str	r4, [r10, #4]	@ float
 1481 02f8 08308AE5 		str	r3, [r10, #8]	@ float
 1482 02fc 24D08DE2 		add	sp, sp, #36
 1483              		@ sp needed
 1484 0300 F04FBDE8 		ldmfd	sp!, {r4, r5, r6, r7, r8, r9, r10, fp, lr}
 1485 0304 1EFF2FE1 		bx	lr
 1486              	.L29:
 1487 0308 0410A0E1 		mov	r1, r4
 1488 030c 0900A0E1 		mov	r0, r9
 1489 0310 FEFFFFEB 		bl	__aeabi_fsub
 1490 0314 40109FE5 		ldr	r1, .L35+44
 1491 0318 0201C0E3 		bic	r0, r0, #-2147483648
 1492 031c FEFFFFEB 		bl	__aeabi_fcmpgt
 1493 0320 000050E3 		cmp	r0, #0
 1494 0324 F1FFFF0A 		beq	.L30
 1495 0328 0490A0E1 		mov	r9, r4
 1496 032c C3FFFFEA 		b	.L32
 1497              	.L36:
 1498              		.align	2
 1499              	.L35:
 1500 0330 83B22834 		.word	875082371
 1501 0334 80841E41 		.word	1092519040
 1502 0338 5016853E 		.word	1048909392
 1503 033c 399D52A2 		.word	-1571644103
 1504 0340 46DF913F 		.word	1066524486
 1505 0344 419B5B3A 		.word	979082049
 1506 0348 182D4454 		.word	1413754136
 1507 034c FB21F93F 		.word	1073291771
 1508 0350 1AF2B43F 		.word	1068823066
 1509 0354 0000F03F 		.word	1072693248
 1510 0358 1AF2A43F 		.word	1067774490
 1511 035c 77CC2B32 		.word	841731191
 1513              		.section	.rodata.serie_coeff_proj_mercator,"a",%progbits
 1514              		.align	2
 1515              		.set	.LANCHOR0,. + 0
 1518              	serie_coeff_proj_mercator:
 1519 0000 2E927F3F 		.word	1065325102
 1520 0004 063D5B3A 		.word	979057926
 1521 0008 CBE54B35 		.word	894166475
 1522 000c 8A53A430 		.word	816075658
 1523 0010 19A5292C 		.word	740926745
 1524              		.ident	"GCC: (GNU Tools for ARM Embedded Processors) 4.8.3 20131129 (release) [ARM/embedded-4_8-br