   1              		.cpu arm7tdmi
   2              		.fpu softvfp
   3              		.eabi_attribute 20, 1
   4              		.eabi_attribute 21, 1
   5              		.eabi_attribute 23, 3
   6              		.eabi_attribute 24, 1
   7              		.eabi_attribute 25, 1
   8              		.eabi_attribute 26, 1
   9              		.eabi_attribute 30, 4
  10              		.eabi_attribute 34, 0
  11              		.eabi_attribute 18, 4
  12              		.file	"pprz_geodetic_double.c"
  13              		.global	__aeabi_dmul
  14              		.global	__aeabi_dadd
  15              		.global	__aeabi_dsub
  16              		.global	__aeabi_ddiv
  17              		.section	.text.lla_of_ecef_d,"ax",%progbits
  18              		.align	2
  19              		.global	lla_of_ecef_d
  21              	lla_of_ecef_d:
  22              		@ Function supports interworking.
  23              		@ args = 0, pretend = 0, frame = 48
  24              		@ frame_needed = 0, uses_anonymous_args = 0
  25 0000 F04F2DE9 		stmfd	sp!, {r4, r5, r6, r7, r8, r9, r10, fp, lr}
  26 0004 01A0A0E1 		mov	r10, r1
  27 0008 00B0A0E1 		mov	fp, r0
  28 000c 101081E2 		add	r1, r1, #16
  29 0010 030091E8 		ldmia	r1, {r0-r1}
  30 0014 34D04DE2 		sub	sp, sp, #52
  31 0018 0020A0E1 		mov	r2, r0
  32 001c 0130A0E1 		mov	r3, r1
  33 0020 FEFFFFEB 		bl	__aeabi_dmul
  34 0024 03008DE8 		stmia	sp, {r0-r1}
  35 0028 03009AE8 		ldmia	r10, {r0-r1}
  36 002c 0020A0E1 		mov	r2, r0
  37 0030 0130A0E1 		mov	r3, r1
  38 0034 FEFFFFEB 		bl	__aeabi_dmul
  39 0038 08708AE2 		add	r7, r10, #8
  40 003c C00097E8 		ldmia	r7, {r6-r7}
  41 0040 0040A0E1 		mov	r4, r0
  42 0044 0150A0E1 		mov	r5, r1
  43 0048 0620A0E1 		mov	r2, r6
  44 004c 0730A0E1 		mov	r3, r7
  45 0050 0600A0E1 		mov	r0, r6
  46 0054 0710A0E1 		mov	r1, r7
  47 0058 FEFFFFEB 		bl	__aeabi_dmul
  48 005c 0020A0E1 		mov	r2, r0
  49 0060 0130A0E1 		mov	r3, r1
  50 0064 0400A0E1 		mov	r0, r4
  51 0068 0510A0E1 		mov	r1, r5
  52 006c FEFFFFEB 		bl	__aeabi_dadd
  53 0070 18008DE5 		str	r0, [sp, #24]
  54 0074 1C108DE5 		str	r1, [sp, #28]
  55 0078 FEFFFFEB 		bl	sqrt
  56 007c 54249FE5 		ldr	r2, .L2
  57 0080 10008DE5 		str	r0, [sp, #16]
  58 0084 14108DE5 		str	r1, [sp, #20]
  59 0088 4C349FE5 		ldr	r3, .L2+4
  60 008c 03009DE8 		ldmia	sp, {r0-r1}
  61 0090 FEFFFFEB 		bl	__aeabi_dmul
  62 0094 44249FE5 		ldr	r2, .L2+8
  63 0098 08008DE5 		str	r0, [sp, #8]
  64 009c 0C108DE5 		str	r1, [sp, #12]
  65 00a0 3C349FE5 		ldr	r3, .L2+12
  66 00a4 03009DE8 		ldmia	sp, {r0-r1}
  67 00a8 FEFFFFEB 		bl	__aeabi_dmul
  68 00ac 20008DE5 		str	r0, [sp, #32]
  69 00b0 24108DE5 		str	r1, [sp, #36]
  70 00b4 20308DE2 		add	r3, sp, #32
  71 00b8 0C0093E8 		ldmia	r3, {r2-r3}
  72 00bc 18108DE2 		add	r1, sp, #24
  73 00c0 030091E8 		ldmia	r1, {r0-r1}
  74 00c4 FEFFFFEB 		bl	__aeabi_dadd
  75 00c8 18249FE5 		ldr	r2, .L2+16
  76 00cc 18349FE5 		ldr	r3, .L2+20
  77 00d0 FEFFFFEB 		bl	__aeabi_dsub
  78 00d4 14249FE5 		ldr	r2, .L2+24
  79 00d8 0080A0E1 		mov	r8, r0
  80 00dc 0190A0E1 		mov	r9, r1
  81 00e0 0C349FE5 		ldr	r3, .L2+28
  82 00e4 08108DE2 		add	r1, sp, #8
  83 00e8 030091E8 		ldmia	r1, {r0-r1}
  84 00ec FEFFFFEB 		bl	__aeabi_dmul
  85 00f0 18308DE2 		add	r3, sp, #24
  86 00f4 0C0093E8 		ldmia	r3, {r2-r3}
  87 00f8 FEFFFFEB 		bl	__aeabi_dmul
  88 00fc 0820A0E1 		mov	r2, r8
  89 0100 0040A0E1 		mov	r4, r0
  90 0104 0150A0E1 		mov	r5, r1
  91 0108 0930A0E1 		mov	r3, r9
  92 010c 0800A0E1 		mov	r0, r8
  93 0110 0910A0E1 		mov	r1, r9
  94 0114 FEFFFFEB 		bl	__aeabi_dmul
  95 0118 0820A0E1 		mov	r2, r8
  96 011c 0930A0E1 		mov	r3, r9
  97 0120 FEFFFFEB 		bl	__aeabi_dmul
  98 0124 0020A0E1 		mov	r2, r0
  99 0128 0130A0E1 		mov	r3, r1
 100 012c 0400A0E1 		mov	r0, r4
 101 0130 0510A0E1 		mov	r1, r5
 102 0134 FEFFFFEB 		bl	__aeabi_ddiv
 103 0138 0020A0E1 		mov	r2, r0
 104 013c 0130A0E1 		mov	r3, r1
 105 0140 0040A0E1 		mov	r4, r0
 106 0144 0150A0E1 		mov	r5, r1
 107 0148 FEFFFFEB 		bl	__aeabi_dmul
 108 014c 0420A0E1 		mov	r2, r4
 109 0150 0060A0E1 		mov	r6, r0
 110 0154 0170A0E1 		mov	r7, r1
 111 0158 0530A0E1 		mov	r3, r5
 112 015c 0400A0E1 		mov	r0, r4
 113 0160 0510A0E1 		mov	r1, r5
 114 0164 FEFFFFEB 		bl	__aeabi_dadd
 115 0168 0020A0E1 		mov	r2, r0
 116 016c 0130A0E1 		mov	r3, r1
 117 0170 0600A0E1 		mov	r0, r6
 118 0174 0710A0E1 		mov	r1, r7
 119 0178 FEFFFFEB 		bl	__aeabi_dadd
 120 017c FEFFFFEB 		bl	sqrt
 121 0180 0020A0E3 		mov	r2, #0
 122 0184 0060A0E1 		mov	r6, r0
 123 0188 0170A0E1 		mov	r7, r1
 124 018c 0400A0E1 		mov	r0, r4
 125 0190 0510A0E1 		mov	r1, r5
 126 0194 5C339FE5 		ldr	r3, .L2+32
 127 0198 FEFFFFEB 		bl	__aeabi_dadd
 128 019c 0620A0E1 		mov	r2, r6
 129 01a0 0730A0E1 		mov	r3, r7
 130 01a4 FEFFFFEB 		bl	__aeabi_dadd
 131 01a8 4C239FE5 		ldr	r2, .L2+36
 132 01ac 4C339FE5 		ldr	r3, .L2+40
 133 01b0 FEFFFFEB 		bl	pow
 134 01b4 0020A0E3 		mov	r2, #0
 135 01b8 38339FE5 		ldr	r3, .L2+32
 136 01bc 0060A0E1 		mov	r6, r0
 137 01c0 0170A0E1 		mov	r7, r1
 138 01c4 FEFFFFEB 		bl	__aeabi_dadd
 139 01c8 0620A0E1 		mov	r2, r6
 140 01cc 0040A0E1 		mov	r4, r0
 141 01d0 0150A0E1 		mov	r5, r1
 142 01d4 0730A0E1 		mov	r3, r7
 143 01d8 0000A0E3 		mov	r0, #0
 144 01dc 14139FE5 		ldr	r1, .L2+32
 145 01e0 FEFFFFEB 		bl	__aeabi_ddiv
 146 01e4 0020A0E1 		mov	r2, r0
 147 01e8 0130A0E1 		mov	r3, r1
 148 01ec 0400A0E1 		mov	r0, r4
 149 01f0 0510A0E1 		mov	r1, r5
 150 01f4 FEFFFFEB 		bl	__aeabi_dadd
 151 01f8 0020A0E3 		mov	r2, #0
 152 01fc 0040A0E1 		mov	r4, r0
 153 0200 0150A0E1 		mov	r5, r1
 154 0204 F8329FE5 		ldr	r3, .L2+44
 155 0208 FEFFFFEB 		bl	__aeabi_dmul
 156 020c 0420A0E1 		mov	r2, r4
 157 0210 0530A0E1 		mov	r3, r5
 158 0214 FEFFFFEB 		bl	__aeabi_dmul
 159 0218 0820A0E1 		mov	r2, r8
 160 021c 0930A0E1 		mov	r3, r9
 161 0220 FEFFFFEB 		bl	__aeabi_dmul
 162 0224 0820A0E1 		mov	r2, r8
 163 0228 0930A0E1 		mov	r3, r9
 164 022c FEFFFFEB 		bl	__aeabi_dmul
 165 0230 0020A0E1 		mov	r2, r0
 166 0234 0130A0E1 		mov	r3, r1
 167 0238 08108DE2 		add	r1, sp, #8
 168 023c 030091E8 		ldmia	r1, {r0-r1}
 169 0240 FEFFFFEB 		bl	__aeabi_ddiv
 170 0244 A4229FE5 		ldr	r2, .L2+24
 171 0248 B8329FE5 		ldr	r3, .L2+48
 172 024c 0080A0E1 		mov	r8, r0
 173 0250 0190A0E1 		mov	r9, r1
 174 0254 FEFFFFEB 		bl	__aeabi_dmul
 175 0258 0020A0E3 		mov	r2, #0
 176 025c 94329FE5 		ldr	r3, .L2+32
 177 0260 FEFFFFEB 		bl	__aeabi_dadd
 178 0264 FEFFFFEB 		bl	sqrt
 179 0268 0020A0E3 		mov	r2, #0
 180 026c 84329FE5 		ldr	r3, .L2+32
 181 0270 0040A0E1 		mov	r4, r0
 182 0274 0150A0E1 		mov	r5, r1
 183 0278 FEFFFFEB 		bl	__aeabi_dadd
 184 027c 0420A0E1 		mov	r2, r4
 185 0280 0060A0E1 		mov	r6, r0
 186 0284 0170A0E1 		mov	r7, r1
 187 0288 0530A0E1 		mov	r3, r5
 188 028c 0000A0E3 		mov	r0, #0
 189 0290 60129FE5 		ldr	r1, .L2+32
 190 0294 FEFFFFEB 		bl	__aeabi_ddiv
 191 0298 0020A0E3 		mov	r2, #0
 192 029c 54329FE5 		ldr	r3, .L2+32
 193 02a0 FEFFFFEB 		bl	__aeabi_dadd
 194 02a4 60229FE5 		ldr	r2, .L2+52
 195 02a8 60329FE5 		ldr	r3, .L2+56
 196 02ac FEFFFFEB 		bl	__aeabi_dmul
 197 02b0 28229FE5 		ldr	r2, .L2+8
 198 02b4 08008DE5 		str	r0, [sp, #8]
 199 02b8 0C108DE5 		str	r1, [sp, #12]
 200 02bc 20329FE5 		ldr	r3, .L2+12
 201 02c0 0800A0E1 		mov	r0, r8
 202 02c4 0910A0E1 		mov	r1, r9
 203 02c8 FEFFFFEB 		bl	__aeabi_dmul
 204 02cc 0C009DE8 		ldmia	sp, {r2-r3}
 205 02d0 FEFFFFEB 		bl	__aeabi_dmul
 206 02d4 0620A0E1 		mov	r2, r6
 207 02d8 28008DE5 		str	r0, [sp, #40]
 208 02dc 2C108DE5 		str	r1, [sp, #44]
 209 02e0 0730A0E1 		mov	r3, r7
 210 02e4 0400A0E1 		mov	r0, r4
 211 02e8 0510A0E1 		mov	r1, r5
 212 02ec FEFFFFEB 		bl	__aeabi_dmul
 213 02f0 0020A0E1 		mov	r2, r0
 214 02f4 0130A0E1 		mov	r3, r1
 215 02f8 28108DE2 		add	r1, sp, #40
 216 02fc 030091E8 		ldmia	r1, {r0-r1}
 217 0300 FEFFFFEB 		bl	__aeabi_ddiv
 218 0304 0020A0E1 		mov	r2, r0
 219 0308 0130A0E1 		mov	r3, r1
 220 030c 08108DE2 		add	r1, sp, #8
 221 0310 030091E8 		ldmia	r1, {r0-r1}
 222 0314 FEFFFFEB 		bl	__aeabi_dsub
 223 0318 18308DE2 		add	r3, sp, #24
 224 031c 0C0093E8 		ldmia	r3, {r2-r3}
 225 0320 0040A0E1 		mov	r4, r0
 226 0324 0150A0E1 		mov	r5, r1
 227 0328 0800A0E1 		mov	r0, r8
 228 032c 0910A0E1 		mov	r1, r9
 229 0330 FEFFFFEB 		bl	__aeabi_dmul
 230 0334 0020A0E3 		mov	r2, #0
 231 0338 D4319FE5 		ldr	r3, .L2+60
 232 033c FEFFFFEB 		bl	__aeabi_dmul
 233 0340 0020A0E1 		mov	r2, r0
 234 0344 0130A0E1 		mov	r3, r1
 235 0348 0400A0E1 		mov	r0, r4
 236 034c 0510A0E1 		mov	r1, r5
 237 0350 FEFFFFEB 		bl	__aeabi_dsub
 238 0354 FEFFFFEB 		bl	sqrt
 239 0358 B8219FE5 		ldr	r2, .L2+64
 240 035c 0040A0E1 		mov	r4, r0
 241 0360 0150A0E1 		mov	r5, r1
 242 0364 0800A0E1 		mov	r0, r8
 243 0368 0910A0E1 		mov	r1, r9
 244 036c A8319FE5 		ldr	r3, .L2+68
 245 0370 FEFFFFEB 		bl	__aeabi_dmul
 246 0374 10308DE2 		add	r3, sp, #16
 247 0378 0C0093E8 		ldmia	r3, {r2-r3}
 248 037c FEFFFFEB 		bl	__aeabi_dmul
 249 0380 023181E2 		add	r3, r1, #-2147483648
 250 0384 0620A0E1 		mov	r2, r6
 251 0388 0310A0E1 		mov	r1, r3
 252 038c 0730A0E1 		mov	r3, r7
 253 0390 FEFFFFEB 		bl	__aeabi_ddiv
 254 0394 0420A0E1 		mov	r2, r4
 255 0398 0530A0E1 		mov	r3, r5
 256 039c FEFFFFEB 		bl	__aeabi_dadd
 257 03a0 70219FE5 		ldr	r2, .L2+64
 258 03a4 70319FE5 		ldr	r3, .L2+68
 259 03a8 FEFFFFEB 		bl	__aeabi_dmul
 260 03ac 0020A0E1 		mov	r2, r0
 261 03b0 0130A0E1 		mov	r3, r1
 262 03b4 10108DE2 		add	r1, sp, #16
 263 03b8 030091E8 		ldmia	r1, {r0-r1}
 264 03bc FEFFFFEB 		bl	__aeabi_dsub
 265 03c0 0020A0E1 		mov	r2, r0
 266 03c4 0130A0E1 		mov	r3, r1
 267 03c8 FEFFFFEB 		bl	__aeabi_dmul
 268 03cc 0C009DE8 		ldmia	sp, {r2-r3}
 269 03d0 0040A0E1 		mov	r4, r0
 270 03d4 0150A0E1 		mov	r5, r1
 271 03d8 FEFFFFEB 		bl	__aeabi_dadd
 272 03dc FEFFFFEB 		bl	sqrt
 273 03e0 20308DE2 		add	r3, sp, #32
 274 03e4 0C0093E8 		ldmia	r3, {r2-r3}
 275 03e8 0080A0E1 		mov	r8, r0
 276 03ec 0190A0E1 		mov	r9, r1
 277 03f0 0400A0E1 		mov	r0, r4
 278 03f4 0510A0E1 		mov	r1, r5
 279 03f8 FEFFFFEB 		bl	__aeabi_dadd
 280 03fc FEFFFFEB 		bl	sqrt
 281 0400 0121A0E3 		mov	r2, #1073741824
 282 0404 14319FE5 		ldr	r3, .L2+72
 283 0408 FEFFFFEB 		bl	__aeabi_dmul
 284 040c 0060A0E1 		mov	r6, r0
 285 0410 0170A0E1 		mov	r7, r1
 286 0414 0620A0E1 		mov	r2, r6
 287 0418 0730A0E1 		mov	r3, r7
 288 041c 00019FE5 		ldr	r0, .L2+76
 289 0420 00119FE5 		ldr	r1, .L2+80
 290 0424 FEFFFFEB 		bl	__aeabi_ddiv
 291 0428 0020A0E1 		mov	r2, r0
 292 042c 0130A0E1 		mov	r3, r1
 293 0430 0000A0E3 		mov	r0, #0
 294 0434 BC109FE5 		ldr	r1, .L2+32
 295 0438 FEFFFFEB 		bl	__aeabi_dsub
 296 043c 0020A0E1 		mov	r2, r0
 297 0440 0130A0E1 		mov	r3, r1
 298 0444 0800A0E1 		mov	r0, r8
 299 0448 0910A0E1 		mov	r1, r9
 300 044c FEFFFFEB 		bl	__aeabi_dmul
 301 0450 10508AE2 		add	r5, r10, #16
 302 0454 300095E8 		ldmia	r5, {r4-r5}
 303 0458 C4209FE5 		ldr	r2, .L2+76
 304 045c 10008BE5 		str	r0, [fp, #16]
 305 0460 14108BE5 		str	r1, [fp, #20]
 306 0464 BC309FE5 		ldr	r3, .L2+80
 307 0468 0400A0E1 		mov	r0, r4
 308 046c 0510A0E1 		mov	r1, r5
 309 0470 FEFFFFEB 		bl	__aeabi_dmul
 310 0474 0620A0E1 		mov	r2, r6
 311 0478 0730A0E1 		mov	r3, r7
 312 047c FEFFFFEB 		bl	__aeabi_ddiv
 313 0480 A4209FE5 		ldr	r2, .L2+84
 314 0484 A4309FE5 		ldr	r3, .L2+88
 315 0488 FEFFFFEB 		bl	__aeabi_dmul
 316 048c 0020A0E1 		mov	r2, r0
 317 0490 0130A0E1 		mov	r3, r1
 318 0494 0400A0E1 		mov	r0, r4
 319 0498 0510A0E1 		mov	r1, r5
 320 049c FEFFFFEB 		bl	__aeabi_dadd
 321 04a0 10308DE2 		add	r3, sp, #16
 322 04a4 0C0093E8 		ldmia	r3, {r2-r3}
 323 04a8 FEFFFFEB 		bl	__aeabi_ddiv
 324 04ac FEFFFFEB 		bl	atan
 325 04b0 0C009AE8 		ldmia	r10, {r2-r3}
 326 04b4 08008BE5 		str	r0, [fp, #8]
 327 04b8 0C108BE5 		str	r1, [fp, #12]
 328 04bc 08108AE2 		add	r1, r10, #8
 329 04c0 030091E8 		ldmia	r1, {r0-r1}
 330 04c4 FEFFFFEB 		bl	atan2
 331 04c8 03008BE8 		stmia	fp, {r0-r1}
 332 04cc 34D08DE2 		add	sp, sp, #52
 333              		@ sp needed
 334 04d0 F04FBDE8 		ldmfd	sp!, {r4, r5, r6, r7, r8, r9, r10, fp, lr}
 335 04d4 1EFF2FE1 		bx	lr
 336              	.L3:
 337              		.align	2
 338              	.L2:
 339 04d8 187A2DBF 		.word	-1087538664
 340 04dc 3E021F43 		.word	1126105662
 341 04e0 D6021CDE 		.word	-568589610
 342 04e4 28C9EF3F 		.word	1072679208
 343 04e8 6801A78D 		.word	-1918434968
 344 04ec 8A2ADB41 		.word	1104882314
 345 04f0 F27A402C 		.word	742423282
 346 04f4 EE7E073F 		.word	1057455854
 347 04f8 0000F03F 		.word	1072693248
 348 04fc 55555555 		.word	1431655765
 349 0500 5555D53F 		.word	1070945621
 350 0504 00000840 		.word	1074266112
 351 0508 EE7E173F 		.word	1058504430
 352 050c 80B82F4C 		.word	1278195840
 353 0510 D97FB242 		.word	1118994393
 354 0514 0000E03F 		.word	1071644672
 355 0518 F094FEF1 		.word	-234973968
 356 051c 906B7B3F 		.word	1065053072
 357 0520 A6545841 		.word	1096307878
 358 0524 B98AEB2E 		.word	787188409
 359 0528 2560C242 		.word	1120034853
 360 052c D2DC97E1 		.word	-510141230
 361 0530 DF9A7B3F 		.word	1065065183
 363              		.section	.text.ltp_def_from_ecef_d,"ax",%progbits
 364              		.align	2
 365              		.global	ltp_def_from_ecef_d
 367              	ltp_def_from_ecef_d:
 368              		@ Function supports interworking.
 369              		@ args = 0, pretend = 0, frame = 16
 370              		@ frame_needed = 0, uses_anonymous_args = 0
 371 0000 0C0091E8 		ldmia	r1, {r2-r3}
 372 0004 F04F2DE9 		stmfd	sp!, {r4, r5, r6, r7, r8, r9, r10, fp, lr}
 373 0008 0C0080E8 		stmia	r0, {r2-r3}
 374 000c 083081E2 		add	r3, r1, #8
 375 0010 0C0093E8 		ldmia	r3, {r2-r3}
 376 0014 082080E5 		str	r2, [r0, #8]
 377 0018 0C3080E5 		str	r3, [r0, #12]
 378 001c 103081E2 		add	r3, r1, #16
 379 0020 0C0093E8 		ldmia	r3, {r2-r3}
 380 0024 0060A0E1 		mov	r6, r0
 381 0028 14D04DE2 		sub	sp, sp, #20
 382 002c 102080E5 		str	r2, [r0, #16]
 383 0030 143080E5 		str	r3, [r0, #20]
 384 0034 0610A0E1 		mov	r1, r6
 385 0038 180080E2 		add	r0, r0, #24
 386 003c FEFFFFEB 		bl	lla_of_ecef_d
 387 0040 205086E2 		add	r5, r6, #32
 388 0044 300095E8 		ldmia	r5, {r4-r5}
 389 0048 0400A0E1 		mov	r0, r4
 390 004c 0510A0E1 		mov	r1, r5
 391 0050 FEFFFFEB 		bl	sin
 392 0054 0070A0E1 		mov	r7, r0
 393 0058 01A0A0E1 		mov	r10, r1
 394 005c 0400A0E1 		mov	r0, r4
 395 0060 0510A0E1 		mov	r1, r5
 396 0064 FEFFFFEB 		bl	cos
 397 0068 183086E2 		add	r3, r6, #24
 398 006c 0C0093E8 		ldmia	r3, {r2-r3}
 399 0070 0040A0E1 		mov	r4, r0
 400 0074 0150A0E1 		mov	r5, r1
 401 0078 0200A0E1 		mov	r0, r2
 402 007c 0310A0E1 		mov	r1, r3
 403 0080 04208DE5 		str	r2, [sp, #4]
 404 0084 00308DE5 		str	r3, [sp]
 405 0088 FEFFFFEB 		bl	sin
 406 008c 04209DE5 		ldr	r2, [sp, #4]
 407 0090 00309DE5 		ldr	r3, [sp]
 408 0094 0090A0E1 		mov	r9, r0
 409 0098 0180A0E1 		mov	r8, r1
 410 009c 0200A0E1 		mov	r0, r2
 411 00a0 0310A0E1 		mov	r1, r3
 412 00a4 FEFFFFEB 		bl	cos
 413 00a8 023188E2 		add	r3, r8, #-2147483648
 414 00ac 343086E5 		str	r3, [r6, #52]
 415 00b0 0020A0E1 		mov	r2, r0
 416 00b4 0130A0E1 		mov	r3, r1
 417 00b8 08008DE5 		str	r0, [sp, #8]
 418 00bc 0C108DE5 		str	r1, [sp, #12]
 419 00c0 382086E5 		str	r2, [r6, #56]
 420 00c4 3C3086E5 		str	r3, [r6, #60]
 421 00c8 02B18AE2 		add	fp, r10, #-2147483648
 422 00cc 0020A0E3 		mov	r2, #0
 423 00d0 0030A0E3 		mov	r3, #0
 424 00d4 402086E5 		str	r2, [r6, #64]
 425 00d8 443086E5 		str	r3, [r6, #68]
 426 00dc 309086E5 		str	r9, [r6, #48]
 427 00e0 08308DE2 		add	r3, sp, #8
 428 00e4 0C0093E8 		ldmia	r3, {r2-r3}
 429 00e8 0700A0E1 		mov	r0, r7
 430 00ec 0B10A0E1 		mov	r1, fp
 431 00f0 FEFFFFEB 		bl	__aeabi_dmul
 432 00f4 0920A0E1 		mov	r2, r9
 433 00f8 480086E5 		str	r0, [r6, #72]
 434 00fc 4C1086E5 		str	r1, [r6, #76]
 435 0100 0830A0E1 		mov	r3, r8
 436 0104 0700A0E1 		mov	r0, r7
 437 0108 0B10A0E1 		mov	r1, fp
 438 010c FEFFFFEB 		bl	__aeabi_dmul
 439 0110 08308DE2 		add	r3, sp, #8
 440 0114 0C0093E8 		ldmia	r3, {r2-r3}
 441 0118 500086E5 		str	r0, [r6, #80]
 442 011c 541086E5 		str	r1, [r6, #84]
 443 0120 584086E5 		str	r4, [r6, #88]
 444 0124 5C5086E5 		str	r5, [r6, #92]
 445 0128 0400A0E1 		mov	r0, r4
 446 012c 0510A0E1 		mov	r1, r5
 447 0130 FEFFFFEB 		bl	__aeabi_dmul
 448 0134 0920A0E1 		mov	r2, r9
 449 0138 600086E5 		str	r0, [r6, #96]
 450 013c 641086E5 		str	r1, [r6, #100]
 451 0140 0830A0E1 		mov	r3, r8
 452 0144 0400A0E1 		mov	r0, r4
 453 0148 0510A0E1 		mov	r1, r5
 454 014c FEFFFFEB 		bl	__aeabi_dmul
 455 0150 0720A0E1 		mov	r2, r7
 456 0154 0A30A0E1 		mov	r3, r10
 457 0158 680086E5 		str	r0, [r6, #104]
 458 015c 6C1086E5 		str	r1, [r6, #108]
 459 0160 702086E5 		str	r2, [r6, #112]
 460 0164 743086E5 		str	r3, [r6, #116]
 461 0168 14D08DE2 		add	sp, sp, #20
 462              		@ sp needed
 463 016c F04FBDE8 		ldmfd	sp!, {r4, r5, r6, r7, r8, r9, r10, fp, lr}
 464 0170 1EFF2FE1 		bx	lr
 466              		.global	__aeabi_d2f
 467              		.global	__aeabi_f2d
 468              		.section	.text.ecef_of_lla_d,"ax",%progbits
 469              		.align	2
 470              		.global	ecef_of_lla_d
 472              	ecef_of_lla_d:
 473              		@ Function supports interworking.
 474              		@ args = 0, pretend = 0, frame = 32
 475              		@ frame_needed = 0, uses_anonymous_args = 0
 476 0000 F0472DE9 		stmfd	sp!, {r4, r5, r6, r7, r8, r9, r10, lr}
 477 0004 089081E2 		add	r9, r1, #8
 478 0008 000399E8 		ldmia	r9, {r8-r9}
 479 000c 20D04DE2 		sub	sp, sp, #32
 480 0010 00A0A0E1 		mov	r10, r0
 481 0014 0160A0E1 		mov	r6, r1
 482 0018 0800A0E1 		mov	r0, r8
 483 001c 0910A0E1 		mov	r1, r9
 484 0020 FEFFFFEB 		bl	sin
 485 0024 0040A0E1 		mov	r4, r0
 486 0028 0150A0E1 		mov	r5, r1
 487 002c 0800A0E1 		mov	r0, r8
 488 0030 0910A0E1 		mov	r1, r9
 489 0034 FEFFFFEB 		bl	cos
 490 0038 0C0096E8 		ldmia	r6, {r2-r3}
 491 003c 0080A0E1 		mov	r8, r0
 492 0040 0190A0E1 		mov	r9, r1
 493 0044 0200A0E1 		mov	r0, r2
 494 0048 0310A0E1 		mov	r1, r3
 495 004c 04208DE5 		str	r2, [sp, #4]
 496 0050 00308DE5 		str	r3, [sp]
 497 0054 FEFFFFEB 		bl	sin
 498 0058 04209DE5 		ldr	r2, [sp, #4]
 499 005c 00309DE5 		ldr	r3, [sp]
 500 0060 08008DE5 		str	r0, [sp, #8]
 501 0064 0C108DE5 		str	r1, [sp, #12]
 502 0068 0200A0E1 		mov	r0, r2
 503 006c 0310A0E1 		mov	r1, r3
 504 0070 FEFFFFEB 		bl	cos
 505 0074 F0209FE5 		ldr	r2, .L6
 506 0078 10008DE5 		str	r0, [sp, #16]
 507 007c 14108DE5 		str	r1, [sp, #20]
 508 0080 E8309FE5 		ldr	r3, .L6+4
 509 0084 0400A0E1 		mov	r0, r4
 510 0088 0510A0E1 		mov	r1, r5
 511 008c FEFFFFEB 		bl	__aeabi_dmul
 512 0090 0420A0E1 		mov	r2, r4
 513 0094 0530A0E1 		mov	r3, r5
 514 0098 FEFFFFEB 		bl	__aeabi_dmul
 515 009c 0020A0E1 		mov	r2, r0
 516 00a0 0130A0E1 		mov	r3, r1
 517 00a4 0000A0E3 		mov	r0, #0
 518 00a8 C4109FE5 		ldr	r1, .L6+8
 519 00ac FEFFFFEB 		bl	__aeabi_dsub
 520 00b0 FEFFFFEB 		bl	__aeabi_d2f
 521 00b4 FEFFFFEB 		bl	sqrtf
 522 00b8 FEFFFFEB 		bl	__aeabi_f2d
 523 00bc 0020A0E1 		mov	r2, r0
 524 00c0 0130A0E1 		mov	r3, r1
 525 00c4 0101A0E3 		mov	r0, #1073741824
 526 00c8 A8109FE5 		ldr	r1, .L6+12
 527 00cc FEFFFFEB 		bl	__aeabi_ddiv
 528 00d0 107086E2 		add	r7, r6, #16
 529 00d4 C00097E8 		ldmia	r7, {r6-r7}
 530 00d8 0620A0E1 		mov	r2, r6
 531 00dc 0730A0E1 		mov	r3, r7
 532 00e0 18008DE5 		str	r0, [sp, #24]
 533 00e4 1C108DE5 		str	r1, [sp, #28]
 534 00e8 FEFFFFEB 		bl	__aeabi_dadd
 535 00ec 0820A0E1 		mov	r2, r8
 536 00f0 0930A0E1 		mov	r3, r9
 537 00f4 FEFFFFEB 		bl	__aeabi_dmul
 538 00f8 10308DE2 		add	r3, sp, #16
 539 00fc 0C0093E8 		ldmia	r3, {r2-r3}
 540 0100 0080A0E1 		mov	r8, r0
 541 0104 0190A0E1 		mov	r9, r1
 542 0108 FEFFFFEB 		bl	__aeabi_dmul
 543 010c 08308DE2 		add	r3, sp, #8
 544 0110 0C0093E8 		ldmia	r3, {r2-r3}
 545 0114 03008AE8 		stmia	r10, {r0-r1}
 546 0118 0800A0E1 		mov	r0, r8
 547 011c 0910A0E1 		mov	r1, r9
 548 0120 FEFFFFEB 		bl	__aeabi_dmul
 549 0124 50209FE5 		ldr	r2, .L6+16
 550 0128 08008AE5 		str	r0, [r10, #8]
 551 012c 0C108AE5 		str	r1, [r10, #12]
 552 0130 48309FE5 		ldr	r3, .L6+20
 553 0134 18108DE2 		add	r1, sp, #24
 554 0138 030091E8 		ldmia	r1, {r0-r1}
 555 013c FEFFFFEB 		bl	__aeabi_dmul
 556 0140 0620A0E1 		mov	r2, r6
 557 0144 0730A0E1 		mov	r3, r7
 558 0148 FEFFFFEB 		bl	__aeabi_dadd
 559 014c 0420A0E1 		mov	r2, r4
 560 0150 0530A0E1 		mov	r3, r5
 561 0154 FEFFFFEB 		bl	__aeabi_dmul
 562 0158 10008AE5 		str	r0, [r10, #16]
 563 015c 14108AE5 		str	r1, [r10, #20]
 564 0160 20D08DE2 		add	sp, sp, #32
 565              		@ sp needed
 566 0164 F047BDE8 		ldmfd	sp!, {r4, r5, r6, r7, r8, r9, r10, lr}
 567 0168 1EFF2FE1 		bx	lr
 568              	.L7:
 569              		.align	2
 570              	.L6:
 571 016c F094FEF1 		.word	-234973968
 572 0170 906B7B3F 		.word	1065053072
 573 0174 0000F03F 		.word	1072693248
 574 0178 A6545841 		.word	1096307878
 575 017c D6021CDE 		.word	-568589610
 576 0180 28C9EF3F 		.word	1072679208
 578              		.section	.text.enu_of_ecef_point_d,"ax",%progbits
 579              		.align	2
 580              		.global	enu_of_ecef_point_d
 582              	enu_of_ecef_point_d:
 583              		@ Function supports interworking.
 584              		@ args = 0, pretend = 0, frame = 8
 585              		@ frame_needed = 0, uses_anonymous_args = 0
 586 0000 F74F2DE9 		stmfd	sp!, {r0, r1, r2, r4, r5, r6, r7, r8, r9, r10, fp, lr}
 587 0004 0160A0E1 		mov	r6, r1
 588 0008 0070A0E1 		mov	r7, r0
 589 000c 0240A0E1 		mov	r4, r2
 590 0010 030092E8 		ldmia	r2, {r0-r1}
 591 0014 0C0096E8 		ldmia	r6, {r2-r3}
 592 0018 FEFFFFEB 		bl	__aeabi_dsub
 593 001c 083086E2 		add	r3, r6, #8
 594 0020 0C0093E8 		ldmia	r3, {r2-r3}
 595 0024 0080A0E1 		mov	r8, r0
 596 0028 0190A0E1 		mov	r9, r1
 597 002c 081084E2 		add	r1, r4, #8
 598 0030 030091E8 		ldmia	r1, {r0-r1}
 599 0034 FEFFFFEB 		bl	__aeabi_dsub
 600 0038 103086E2 		add	r3, r6, #16
 601 003c 0C0093E8 		ldmia	r3, {r2-r3}
 602 0040 00A0A0E1 		mov	r10, r0
 603 0044 01B0A0E1 		mov	fp, r1
 604 0048 101084E2 		add	r1, r4, #16
 605 004c 030091E8 		ldmia	r1, {r0-r1}
 606 0050 FEFFFFEB 		bl	__aeabi_dsub
 607 0054 303086E2 		add	r3, r6, #48
 608 0058 0C0093E8 		ldmia	r3, {r2-r3}
 609 005c 03008DE8 		stmia	sp, {r0-r1}
 610 0060 0800A0E1 		mov	r0, r8
 611 0064 0910A0E1 		mov	r1, r9
 612 0068 FEFFFFEB 		bl	__aeabi_dmul
 613 006c 383086E2 		add	r3, r6, #56
 614 0070 0C0093E8 		ldmia	r3, {r2-r3}
 615 0074 0040A0E1 		mov	r4, r0
 616 0078 0150A0E1 		mov	r5, r1
 617 007c 0A00A0E1 		mov	r0, r10
 618 0080 0B10A0E1 		mov	r1, fp
 619 0084 FEFFFFEB 		bl	__aeabi_dmul
 620 0088 0020A0E1 		mov	r2, r0
 621 008c 0130A0E1 		mov	r3, r1
 622 0090 0400A0E1 		mov	r0, r4
 623 0094 0510A0E1 		mov	r1, r5
 624 0098 FEFFFFEB 		bl	__aeabi_dadd
 625 009c 403086E2 		add	r3, r6, #64
 626 00a0 0C0093E8 		ldmia	r3, {r2-r3}
 627 00a4 0040A0E1 		mov	r4, r0
 628 00a8 0150A0E1 		mov	r5, r1
 629 00ac 03009DE8 		ldmia	sp, {r0-r1}
 630 00b0 FEFFFFEB 		bl	__aeabi_dmul
 631 00b4 0020A0E1 		mov	r2, r0
 632 00b8 0130A0E1 		mov	r3, r1
 633 00bc 0400A0E1 		mov	r0, r4
 634 00c0 0510A0E1 		mov	r1, r5
 635 00c4 FEFFFFEB 		bl	__aeabi_dadd
 636 00c8 483086E2 		add	r3, r6, #72
 637 00cc 0C0093E8 		ldmia	r3, {r2-r3}
 638 00d0 030087E8 		stmia	r7, {r0-r1}
 639 00d4 0800A0E1 		mov	r0, r8
 640 00d8 0910A0E1 		mov	r1, r9
 641 00dc FEFFFFEB 		bl	__aeabi_dmul
 642 00e0 503086E2 		add	r3, r6, #80
 643 00e4 0C0093E8 		ldmia	r3, {r2-r3}
 644 00e8 0040A0E1 		mov	r4, r0
 645 00ec 0150A0E1 		mov	r5, r1
 646 00f0 0A00A0E1 		mov	r0, r10
 647 00f4 0B10A0E1 		mov	r1, fp
 648 00f8 FEFFFFEB 		bl	__aeabi_dmul
 649 00fc 0020A0E1 		mov	r2, r0
 650 0100 0130A0E1 		mov	r3, r1
 651 0104 0400A0E1 		mov	r0, r4
 652 0108 0510A0E1 		mov	r1, r5
 653 010c FEFFFFEB 		bl	__aeabi_dadd
 654 0110 583086E2 		add	r3, r6, #88
 655 0114 0C0093E8 		ldmia	r3, {r2-r3}
 656 0118 0040A0E1 		mov	r4, r0
 657 011c 0150A0E1 		mov	r5, r1
 658 0120 03009DE8 		ldmia	sp, {r0-r1}
 659 0124 FEFFFFEB 		bl	__aeabi_dmul
 660 0128 0020A0E1 		mov	r2, r0
 661 012c 0130A0E1 		mov	r3, r1
 662 0130 0400A0E1 		mov	r0, r4
 663 0134 0510A0E1 		mov	r1, r5
 664 0138 FEFFFFEB 		bl	__aeabi_dadd
 665 013c 603086E2 		add	r3, r6, #96
 666 0140 0C0093E8 		ldmia	r3, {r2-r3}
 667 0144 080087E5 		str	r0, [r7, #8]
 668 0148 0C1087E5 		str	r1, [r7, #12]
 669 014c 0800A0E1 		mov	r0, r8
 670 0150 0910A0E1 		mov	r1, r9
 671 0154 FEFFFFEB 		bl	__aeabi_dmul
 672 0158 683086E2 		add	r3, r6, #104
 673 015c 0C0093E8 		ldmia	r3, {r2-r3}
 674 0160 0040A0E1 		mov	r4, r0
 675 0164 0150A0E1 		mov	r5, r1
 676 0168 0A00A0E1 		mov	r0, r10
 677 016c 0B10A0E1 		mov	r1, fp
 678 0170 FEFFFFEB 		bl	__aeabi_dmul
 679 0174 0020A0E1 		mov	r2, r0
 680 0178 0130A0E1 		mov	r3, r1
 681 017c 0400A0E1 		mov	r0, r4
 682 0180 0510A0E1 		mov	r1, r5
 683 0184 FEFFFFEB 		bl	__aeabi_dadd
 684 0188 703086E2 		add	r3, r6, #112
 685 018c 0C0093E8 		ldmia	r3, {r2-r3}
 686 0190 0040A0E1 		mov	r4, r0
 687 0194 0150A0E1 		mov	r5, r1
 688 0198 03009DE8 		ldmia	sp, {r0-r1}
 689 019c FEFFFFEB 		bl	__aeabi_dmul
 690 01a0 0020A0E1 		mov	r2, r0
 691 01a4 0130A0E1 		mov	r3, r1
 692 01a8 0400A0E1 		mov	r0, r4
 693 01ac 0510A0E1 		mov	r1, r5
 694 01b0 FEFFFFEB 		bl	__aeabi_dadd
 695 01b4 100087E5 		str	r0, [r7, #16]
 696 01b8 141087E5 		str	r1, [r7, #20]
 697 01bc 0CD08DE2 		add	sp, sp, #12
 698              		@ sp needed
 699 01c0 F04FBDE8 		ldmfd	sp!, {r4, r5, r6, r7, r8, r9, r10, fp, lr}
 700 01c4 1EFF2FE1 		bx	lr
 702              		.section	.text.ned_of_ecef_point_d,"ax",%progbits
 703              		.align	2
 704              		.global	ned_of_ecef_point_d
 706              	ned_of_ecef_point_d:
 707              		@ Function supports interworking.
 708              		@ args = 0, pretend = 0, frame = 24
 709              		@ frame_needed = 0, uses_anonymous_args = 0
 710 0000 10402DE9 		stmfd	sp!, {r4, lr}
 711 0004 18D04DE2 		sub	sp, sp, #24
 712 0008 0040A0E1 		mov	r4, r0
 713 000c 0D00A0E1 		mov	r0, sp
 714 0010 FEFFFFEB 		bl	enu_of_ecef_point_d
 715 0014 08308DE2 		add	r3, sp, #8
 716 0018 0C0093E8 		ldmia	r3, {r2-r3}
 717 001c 0C0084E8 		stmia	r4, {r2-r3}
 718 0020 0C009DE8 		ldmia	sp, {r2-r3}
 719 0024 082084E5 		str	r2, [r4, #8]
 720 0028 0C3084E5 		str	r3, [r4, #12]
 721 002c 10309DE5 		ldr	r3, [sp, #16]
 722 0030 103084E5 		str	r3, [r4, #16]
 723 0034 14309DE5 		ldr	r3, [sp, #20]
 724 0038 023183E2 		add	r3, r3, #-2147483648
 725 003c 143084E5 		str	r3, [r4, #20]
 726 0040 18D08DE2 		add	sp, sp, #24
 727              		@ sp needed
 728 0044 1040BDE8 		ldmfd	sp!, {r4, lr}
 729 0048 1EFF2FE1 		bx	lr
 731              		.section	.text.enu_of_ecef_vect_d,"ax",%progbits
 732              		.align	2
 733              		.global	enu_of_ecef_vect_d
 735              	enu_of_ecef_vect_d:
 736              		@ Function supports interworking.
 737              		@ args = 0, pretend = 0, frame = 8
 738              		@ frame_needed = 0, uses_anonymous_args = 0
 739 0000 F74F2DE9 		stmfd	sp!, {r0, r1, r2, r4, r5, r6, r7, r8, r9, r10, fp, lr}
 740 0004 000392E8 		ldmia	r2, {r8-r9}
 741 0008 104082E2 		add	r4, r2, #16
 742 000c 180094E8 		ldmia	r4, {r3-r4}
 743 0010 0160A0E1 		mov	r6, r1
 744 0014 08B082E2 		add	fp, r2, #8
 745 0018 000C9BE8 		ldmia	fp, {r10-fp}
 746 001c 0070A0E1 		mov	r7, r0
 747 0020 18008DE8 		stmia	sp, {r3-r4}
 748 0024 0800A0E1 		mov	r0, r8
 749 0028 303086E2 		add	r3, r6, #48
 750 002c 0C0093E8 		ldmia	r3, {r2-r3}
 751 0030 0910A0E1 		mov	r1, r9
 752 0034 FEFFFFEB 		bl	__aeabi_dmul
 753 0038 383086E2 		add	r3, r6, #56
 754 003c 0C0093E8 		ldmia	r3, {r2-r3}
 755 0040 0040A0E1 		mov	r4, r0
 756 0044 0150A0E1 		mov	r5, r1
 757 0048 0A00A0E1 		mov	r0, r10
 758 004c 0B10A0E1 		mov	r1, fp
 759 0050 FEFFFFEB 		bl	__aeabi_dmul
 760 0054 0020A0E1 		mov	r2, r0
 761 0058 0130A0E1 		mov	r3, r1
 762 005c 0400A0E1 		mov	r0, r4
 763 0060 0510A0E1 		mov	r1, r5
 764 0064 FEFFFFEB 		bl	__aeabi_dadd
 765 0068 403086E2 		add	r3, r6, #64
 766 006c 0C0093E8 		ldmia	r3, {r2-r3}
 767 0070 0040A0E1 		mov	r4, r0
 768 0074 0150A0E1 		mov	r5, r1
 769 0078 03009DE8 		ldmia	sp, {r0-r1}
 770 007c FEFFFFEB 		bl	__aeabi_dmul
 771 0080 0020A0E1 		mov	r2, r0
 772 0084 0130A0E1 		mov	r3, r1
 773 0088 0400A0E1 		mov	r0, r4
 774 008c 0510A0E1 		mov	r1, r5
 775 0090 FEFFFFEB 		bl	__aeabi_dadd
 776 0094 483086E2 		add	r3, r6, #72
 777 0098 0C0093E8 		ldmia	r3, {r2-r3}
 778 009c 030087E8 		stmia	r7, {r0-r1}
 779 00a0 0800A0E1 		mov	r0, r8
 780 00a4 0910A0E1 		mov	r1, r9
 781 00a8 FEFFFFEB 		bl	__aeabi_dmul
 782 00ac 503086E2 		add	r3, r6, #80
 783 00b0 0C0093E8 		ldmia	r3, {r2-r3}
 784 00b4 0040A0E1 		mov	r4, r0
 785 00b8 0150A0E1 		mov	r5, r1
 786 00bc 0A00A0E1 		mov	r0, r10
 787 00c0 0B10A0E1 		mov	r1, fp
 788 00c4 FEFFFFEB 		bl	__aeabi_dmul
 789 00c8 0020A0E1 		mov	r2, r0
 790 00cc 0130A0E1 		mov	r3, r1
 791 00d0 0400A0E1 		mov	r0, r4
 792 00d4 0510A0E1 		mov	r1, r5
 793 00d8 FEFFFFEB 		bl	__aeabi_dadd
 794 00dc 583086E2 		add	r3, r6, #88
 795 00e0 0C0093E8 		ldmia	r3, {r2-r3}
 796 00e4 0040A0E1 		mov	r4, r0
 797 00e8 0150A0E1 		mov	r5, r1
 798 00ec 03009DE8 		ldmia	sp, {r0-r1}
 799 00f0 FEFFFFEB 		bl	__aeabi_dmul
 800 00f4 0020A0E1 		mov	r2, r0
 801 00f8 0130A0E1 		mov	r3, r1
 802 00fc 0400A0E1 		mov	r0, r4
 803 0100 0510A0E1 		mov	r1, r5
 804 0104 FEFFFFEB 		bl	__aeabi_dadd
 805 0108 603086E2 		add	r3, r6, #96
 806 010c 0C0093E8 		ldmia	r3, {r2-r3}
 807 0110 080087E5 		str	r0, [r7, #8]
 808 0114 0C1087E5 		str	r1, [r7, #12]
 809 0118 0800A0E1 		mov	r0, r8
 810 011c 0910A0E1 		mov	r1, r9
 811 0120 FEFFFFEB 		bl	__aeabi_dmul
 812 0124 683086E2 		add	r3, r6, #104
 813 0128 0C0093E8 		ldmia	r3, {r2-r3}
 814 012c 0040A0E1 		mov	r4, r0
 815 0130 0150A0E1 		mov	r5, r1
 816 0134 0A00A0E1 		mov	r0, r10
 817 0138 0B10A0E1 		mov	r1, fp
 818 013c FEFFFFEB 		bl	__aeabi_dmul
 819 0140 0020A0E1 		mov	r2, r0
 820 0144 0130A0E1 		mov	r3, r1
 821 0148 0400A0E1 		mov	r0, r4
 822 014c 0510A0E1 		mov	r1, r5
 823 0150 FEFFFFEB 		bl	__aeabi_dadd
 824 0154 703086E2 		add	r3, r6, #112
 825 0158 0C0093E8 		ldmia	r3, {r2-r3}
 826 015c 0040A0E1 		mov	r4, r0
 827 0160 0150A0E1 		mov	r5, r1
 828 0164 03009DE8 		ldmia	sp, {r0-r1}
 829 0168 FEFFFFEB 		bl	__aeabi_dmul
 830 016c 0020A0E1 		mov	r2, r0
 831 0170 0130A0E1 		mov	r3, r1
 832 0174 0400A0E1 		mov	r0, r4
 833 0178 0510A0E1 		mov	r1, r5
 834 017c FEFFFFEB 		bl	__aeabi_dadd
 835 0180 100087E5 		str	r0, [r7, #16]
 836 0184 141087E5 		str	r1, [r7, #20]
 837 0188 0CD08DE2 		add	sp, sp, #12
 838              		@ sp needed
 839 018c F04FBDE8 		ldmfd	sp!, {r4, r5, r6, r7, r8, r9, r10, fp, lr}
 840 0190 1EFF2FE1 		bx	lr
 842              		.section	.text.ned_of_ecef_vect_d,"ax",%progbits
 843              		.align	2
 844              		.global	ned_of_ecef_vect_d
 846              	ned_of_ecef_vect_d:
 847              		@ Function supports interworking.
 848              		@ args = 0, pretend = 0, frame = 24
 849              		@ frame_needed = 0, uses_anonymous_args = 0
 850 0000 10402DE9 		stmfd	sp!, {r4, lr}
 851 0004 18D04DE2 		sub	sp, sp, #24
 852 0008 0040A0E1 		mov	r4, r0
 853 000c 0D00A0E1 		mov	r0, sp
 854 0010 FEFFFFEB 		bl	enu_of_ecef_vect_d
 855 0014 08308DE2 		add	r3, sp, #8
 856 0018 0C0093E8 		ldmia	r3, {r2-r3}
 857 001c 0C0084E8 		stmia	r4, {r2-r3}
 858 0020 0C009DE8 		ldmia	sp, {r2-r3}
 859 0024 082084E5 		str	r2, [r4, #8]
 860 0028 0C3084E5 		str	r3, [r4, #12]
 861 002c 10309DE5 		ldr	r3, [sp, #16]
 862 0030 103084E5 		str	r3, [r4, #16]
 863 0034 14309DE5 		ldr	r3, [sp, #20]
 864 0038 023183E2 		add	r3, r3, #-2147483648
 865 003c 143084E5 		str	r3, [r4, #20]
 866 0040 18D08DE2 		add	sp, sp, #24
 867              		@ sp needed
 868 0044 1040BDE8 		ldmfd	sp!, {r4, lr}
 869 0048 1EFF2FE1 		bx	lr
 871              		.section	.text.ecef_of_enu_point_d,"ax",%progbits
 872              		.align	2
 873              		.global	ecef_of_enu_point_d
 875              	ecef_of_enu_point_d:
 876              		@ Function supports interworking.
 877              		@ args = 0, pretend = 0, frame = 16
 878              		@ frame_needed = 0, uses_anonymous_args = 0
 879 0000 F04F2DE9 		stmfd	sp!, {r4, r5, r6, r7, r8, r9, r10, fp, lr}
 880 0004 C00092E8 		ldmia	r2, {r6-r7}
 881 0008 104082E2 		add	r4, r2, #16
 882 000c 180094E8 		ldmia	r4, {r3-r4}
 883 0010 14D04DE2 		sub	sp, sp, #20
 884 0014 0180A0E1 		mov	r8, r1
 885 0018 08B082E2 		add	fp, r2, #8
 886 001c 000C9BE8 		ldmia	fp, {r10-fp}
 887 0020 0090A0E1 		mov	r9, r0
 888 0024 18008DE8 		stmia	sp, {r3-r4}
 889 0028 0600A0E1 		mov	r0, r6
 890 002c 303088E2 		add	r3, r8, #48
 891 0030 0C0093E8 		ldmia	r3, {r2-r3}
 892 0034 0710A0E1 		mov	r1, r7
 893 0038 FEFFFFEB 		bl	__aeabi_dmul
 894 003c 483088E2 		add	r3, r8, #72
 895 0040 0C0093E8 		ldmia	r3, {r2-r3}
 896 0044 0040A0E1 		mov	r4, r0
 897 0048 0150A0E1 		mov	r5, r1
 898 004c 0A00A0E1 		mov	r0, r10
 899 0050 0B10A0E1 		mov	r1, fp
 900 0054 FEFFFFEB 		bl	__aeabi_dmul
 901 0058 0020A0E1 		mov	r2, r0
 902 005c 0130A0E1 		mov	r3, r1
 903 0060 0400A0E1 		mov	r0, r4
 904 0064 0510A0E1 		mov	r1, r5
 905 0068 FEFFFFEB 		bl	__aeabi_dadd
 906 006c 603088E2 		add	r3, r8, #96
 907 0070 0C0093E8 		ldmia	r3, {r2-r3}
 908 0074 0040A0E1 		mov	r4, r0
 909 0078 0150A0E1 		mov	r5, r1
 910 007c 03009DE8 		ldmia	sp, {r0-r1}
 911 0080 FEFFFFEB 		bl	__aeabi_dmul
 912 0084 0020A0E1 		mov	r2, r0
 913 0088 0130A0E1 		mov	r3, r1
 914 008c 0400A0E1 		mov	r0, r4
 915 0090 0510A0E1 		mov	r1, r5
 916 0094 FEFFFFEB 		bl	__aeabi_dadd
 917 0098 383088E2 		add	r3, r8, #56
 918 009c 0C0093E8 		ldmia	r3, {r2-r3}
 919 00a0 08008DE5 		str	r0, [sp, #8]
 920 00a4 0C108DE5 		str	r1, [sp, #12]
 921 00a8 030089E8 		stmia	r9, {r0-r1}
 922 00ac 0600A0E1 		mov	r0, r6
 923 00b0 0710A0E1 		mov	r1, r7
 924 00b4 FEFFFFEB 		bl	__aeabi_dmul
 925 00b8 503088E2 		add	r3, r8, #80
 926 00bc 0C0093E8 		ldmia	r3, {r2-r3}
 927 00c0 0040A0E1 		mov	r4, r0
 928 00c4 0150A0E1 		mov	r5, r1
 929 00c8 0A00A0E1 		mov	r0, r10
 930 00cc 0B10A0E1 		mov	r1, fp
 931 00d0 FEFFFFEB 		bl	__aeabi_dmul
 932 00d4 0020A0E1 		mov	r2, r0
 933 00d8 0130A0E1 		mov	r3, r1
 934 00dc 0400A0E1 		mov	r0, r4
 935 00e0 0510A0E1 		mov	r1, r5
 936 00e4 FEFFFFEB 		bl	__aeabi_dadd
 937 00e8 683088E2 		add	r3, r8, #104
 938 00ec 0C0093E8 		ldmia	r3, {r2-r3}
 939 00f0 0040A0E1 		mov	r4, r0
 940 00f4 0150A0E1 		mov	r5, r1
 941 00f8 03009DE8 		ldmia	sp, {r0-r1}
 942 00fc FEFFFFEB 		bl	__aeabi_dmul
 943 0100 0020A0E1 		mov	r2, r0
 944 0104 0130A0E1 		mov	r3, r1
 945 0108 0400A0E1 		mov	r0, r4
 946 010c 0510A0E1 		mov	r1, r5
 947 0110 FEFFFFEB 		bl	__aeabi_dadd
 948 0114 0040A0E1 		mov	r4, r0
 949 0118 0150A0E1 		mov	r5, r1
 950 011c 403088E2 		add	r3, r8, #64
 951 0120 0C0093E8 		ldmia	r3, {r2-r3}
 952 0124 084089E5 		str	r4, [r9, #8]
 953 0128 0C5089E5 		str	r5, [r9, #12]
 954 012c 0600A0E1 		mov	r0, r6
 955 0130 0710A0E1 		mov	r1, r7
 956 0134 FEFFFFEB 		bl	__aeabi_dmul
 957 0138 583088E2 		add	r3, r8, #88
 958 013c 0C0093E8 		ldmia	r3, {r2-r3}
 959 0140 0060A0E1 		mov	r6, r0
 960 0144 0170A0E1 		mov	r7, r1
 961 0148 0A00A0E1 		mov	r0, r10
 962 014c 0B10A0E1 		mov	r1, fp
 963 0150 FEFFFFEB 		bl	__aeabi_dmul
 964 0154 0020A0E1 		mov	r2, r0
 965 0158 0130A0E1 		mov	r3, r1
 966 015c 0600A0E1 		mov	r0, r6
 967 0160 0710A0E1 		mov	r1, r7
 968 0164 FEFFFFEB 		bl	__aeabi_dadd
 969 0168 703088E2 		add	r3, r8, #112
 970 016c 0C0093E8 		ldmia	r3, {r2-r3}
 971 0170 0060A0E1 		mov	r6, r0
 972 0174 0170A0E1 		mov	r7, r1
 973 0178 03009DE8 		ldmia	sp, {r0-r1}
 974 017c FEFFFFEB 		bl	__aeabi_dmul
 975 0180 0020A0E1 		mov	r2, r0
 976 0184 0130A0E1 		mov	r3, r1
 977 0188 0600A0E1 		mov	r0, r6
 978 018c 0710A0E1 		mov	r1, r7
 979 0190 FEFFFFEB 		bl	__aeabi_dadd
 980 0194 0060A0E1 		mov	r6, r0
 981 0198 0170A0E1 		mov	r7, r1
 982 019c 0C0098E8 		ldmia	r8, {r2-r3}
 983 01a0 08108DE2 		add	r1, sp, #8
 984 01a4 030091E8 		ldmia	r1, {r0-r1}
 985 01a8 106089E5 		str	r6, [r9, #16]
 986 01ac 147089E5 		str	r7, [r9, #20]
 987 01b0 FEFFFFEB 		bl	__aeabi_dadd
 988 01b4 030089E8 		stmia	r9, {r0-r1}
 989 01b8 083088E2 		add	r3, r8, #8
 990 01bc 0C0093E8 		ldmia	r3, {r2-r3}
 991 01c0 0400A0E1 		mov	r0, r4
 992 01c4 0510A0E1 		mov	r1, r5
 993 01c8 FEFFFFEB 		bl	__aeabi_dadd
 994 01cc 103088E2 		add	r3, r8, #16
 995 01d0 0C0093E8 		ldmia	r3, {r2-r3}
 996 01d4 080089E5 		str	r0, [r9, #8]
 997 01d8 0C1089E5 		str	r1, [r9, #12]
 998 01dc 0600A0E1 		mov	r0, r6
 999 01e0 0710A0E1 		mov	r1, r7
 1000 01e4 FEFFFFEB 		bl	__aeabi_dadd
 1001 01e8 100089E5 		str	r0, [r9, #16]
 1002 01ec 141089E5 		str	r1, [r9, #20]
 1003 01f0 14D08DE2 		add	sp, sp, #20
 1004              		@ sp needed
 1005 01f4 F04FBDE8 		ldmfd	sp!, {r4, r5, r6, r7, r8, r9, r10, fp, lr}
 1006 01f8 1EFF2FE1 		bx	lr
 1008              		.section	.text.ecef_of_ned_point_d,"ax",%progbits
 1009              		.align	2
 1010              		.global	ecef_of_ned_point_d
 1012              	ecef_of_ned_point_d:
 1013              		@ Function supports interworking.
 1014              		@ args = 0, pretend = 0, frame = 24
 1015              		@ frame_needed = 0, uses_anonymous_args = 0
 1016 0000 30402DE9 		stmfd	sp!, {r4, r5, lr}
 1017 0004 103092E5 		ldr	r3, [r2, #16]
 1018 0008 1CD04DE2 		sub	sp, sp, #28
 1019 000c 085082E2 		add	r5, r2, #8
 1020 0010 300095E8 		ldmia	r5, {r4-r5}
 1021 0014 10308DE5 		str	r3, [sp, #16]
 1022 0018 143092E5 		ldr	r3, [r2, #20]
 1023 001c 30008DE8 		stmia	sp, {r4-r5}
 1024 0020 300092E8 		ldmia	r2, {r4-r5}
 1025 0024 023183E2 		add	r3, r3, #-2147483648
 1026 0028 0D20A0E1 		mov	r2, sp
 1027 002c 08408DE5 		str	r4, [sp, #8]
 1028 0030 0C508DE5 		str	r5, [sp, #12]
 1029 0034 14308DE5 		str	r3, [sp, #20]
 1030 0038 FEFFFFEB 		bl	ecef_of_enu_point_d
 1031 003c 1CD08DE2 		add	sp, sp, #28
 1032              		@ sp needed
 1033 0040 3040BDE8 		ldmfd	sp!, {r4, r5, lr}
 1034 0044 1EFF2FE1 		bx	lr
 1036              		.section	.text.ecef_of_enu_vect_d,"ax",%progbits
 1037              		.align	2
 1038              		.global	ecef_of_enu_vect_d
 1040              	ecef_of_enu_vect_d:
 1041              		@ Function supports interworking.
 1042              		@ args = 0, pretend = 0, frame = 8
 1043              		@ frame_needed = 0, uses_anonymous_args = 0
 1044 0000 F74F2DE9 		stmfd	sp!, {r0, r1, r2, r4, r5, r6, r7, r8, r9, r10, fp, lr}
 1045 0004 000392E8 		ldmia	r2, {r8-r9}
 1046 0008 104082E2 		add	r4, r2, #16
 1047 000c 180094E8 		ldmia	r4, {r3-r4}
 1048 0010 0160A0E1 		mov	r6, r1
 1049 0014 08B082E2 		add	fp, r2, #8
 1050 0018 000C9BE8 		ldmia	fp, {r10-fp}
 1051 001c 0070A0E1 		mov	r7, r0
 1052 0020 18008DE8 		stmia	sp, {r3-r4}
 1053 0024 0800A0E1 		mov	r0, r8
 1054 0028 303086E2 		add	r3, r6, #48
 1055 002c 0C0093E8 		ldmia	r3, {r2-r3}
 1056 0030 0910A0E1 		mov	r1, r9
 1057 0034 FEFFFFEB 		bl	__aeabi_dmul
 1058 0038 483086E2 		add	r3, r6, #72
 1059 003c 0C0093E8 		ldmia	r3, {r2-r3}
 1060 0040 0040A0E1 		mov	r4, r0
 1061 0044 0150A0E1 		mov	r5, r1
 1062 0048 0A00A0E1 		mov	r0, r10
 1063 004c 0B10A0E1 		mov	r1, fp
 1064 0050 FEFFFFEB 		bl	__aeabi_dmul
 1065 0054 0020A0E1 		mov	r2, r0
 1066 0058 0130A0E1 		mov	r3, r1
 1067 005c 0400A0E1 		mov	r0, r4
 1068 0060 0510A0E1 		mov	r1, r5
 1069 0064 FEFFFFEB 		bl	__aeabi_dadd
 1070 0068 603086E2 		add	r3, r6, #96
 1071 006c 0C0093E8 		ldmia	r3, {r2-r3}
 1072 0070 0040A0E1 		mov	r4, r0
 1073 0074 0150A0E1 		mov	r5, r1
 1074 0078 03009DE8 		ldmia	sp, {r0-r1}
 1075 007c FEFFFFEB 		bl	__aeabi_dmul
 1076 0080 0020A0E1 		mov	r2, r0
 1077 0084 0130A0E1 		mov	r3, r1
 1078 0088 0400A0E1 		mov	r0, r4
 1079 008c 0510A0E1 		mov	r1, r5
 1080 0090 FEFFFFEB 		bl	__aeabi_dadd
 1081 0094 383086E2 		add	r3, r6, #56
 1082 0098 0C0093E8 		ldmia	r3, {r2-r3}
 1083 009c 030087E8 		stmia	r7, {r0-r1}
 1084 00a0 0800A0E1 		mov	r0, r8
 1085 00a4 0910A0E1 		mov	r1, r9
 1086 00a8 FEFFFFEB 		bl	__aeabi_dmul
 1087 00ac 503086E2 		add	r3, r6, #80
 1088 00b0 0C0093E8 		ldmia	r3, {r2-r3}
 1089 00b4 0040A0E1 		mov	r4, r0
 1090 00b8 0150A0E1 		mov	r5, r1
 1091 00bc 0A00A0E1 		mov	r0, r10
 1092 00c0 0B10A0E1 		mov	r1, fp
 1093 00c4 FEFFFFEB 		bl	__aeabi_dmul
 1094 00c8 0020A0E1 		mov	r2, r0
 1095 00cc 0130A0E1 		mov	r3, r1
 1096 00d0 0400A0E1 		mov	r0, r4
 1097 00d4 0510A0E1 		mov	r1, r5
 1098 00d8 FEFFFFEB 		bl	__aeabi_dadd
 1099 00dc 683086E2 		add	r3, r6, #104
 1100 00e0 0C0093E8 		ldmia	r3, {r2-r3}
 1101 00e4 0040A0E1 		mov	r4, r0
 1102 00e8 0150A0E1 		mov	r5, r1
 1103 00ec 03009DE8 		ldmia	sp, {r0-r1}
 1104 00f0 FEFFFFEB 		bl	__aeabi_dmul
 1105 00f4 0020A0E1 		mov	r2, r0
 1106 00f8 0130A0E1 		mov	r3, r1
 1107 00fc 0400A0E1 		mov	r0, r4
 1108 0100 0510A0E1 		mov	r1, r5
 1109 0104 FEFFFFEB 		bl	__aeabi_dadd
 1110 0108 403086E2 		add	r3, r6, #64
 1111 010c 0C0093E8 		ldmia	r3, {r2-r3}
 1112 0110 080087E5 		str	r0, [r7, #8]
 1113 0114 0C1087E5 		str	r1, [r7, #12]
 1114 0118 0800A0E1 		mov	r0, r8
 1115 011c 0910A0E1 		mov	r1, r9
 1116 0120 FEFFFFEB 		bl	__aeabi_dmul
 1117 0124 583086E2 		add	r3, r6, #88
 1118 0128 0C0093E8 		ldmia	r3, {r2-r3}
 1119 012c 0040A0E1 		mov	r4, r0
 1120 0130 0150A0E1 		mov	r5, r1
 1121 0134 0A00A0E1 		mov	r0, r10
 1122 0138 0B10A0E1 		mov	r1, fp
 1123 013c FEFFFFEB 		bl	__aeabi_dmul
 1124 0140 0020A0E1 		mov	r2, r0
 1125 0144 0130A0E1 		mov	r3, r1
 1126 0148 0400A0E1 		mov	r0, r4
 1127 014c 0510A0E1 		mov	r1, r5
 1128 0150 FEFFFFEB 		bl	__aeabi_dadd
 1129 0154 703086E2 		add	r3, r6, #112
 1130 0158 0C0093E8 		ldmia	r3, {r2-r3}
 1131 015c 0040A0E1 		mov	r4, r0
 1132 0160 0150A0E1 		mov	r5, r1
 1133 0164 03009DE8 		ldmia	sp, {r0-r1}
 1134 0168 FEFFFFEB 		bl	__aeabi_dmul
 1135 016c 0020A0E1 		mov	r2, r0
 1136 0170 0130A0E1 		mov	r3, r1
 1137 0174 0400A0E1 		mov	r0, r4
 1138 0178 0510A0E1 		mov	r1, r5
 1139 017c FEFFFFEB 		bl	__aeabi_dadd
 1140 0180 100087E5 		str	r0, [r7, #16]
 1141 0184 141087E5 		str	r1, [r7, #20]
 1142 0188 0CD08DE2 		add	sp, sp, #12
 1143              		@ sp needed
 1144 018c F04FBDE8 		ldmfd	sp!, {r4, r5, r6, r7, r8, r9, r10, fp, lr}
 1145 0190 1EFF2FE1 		bx	lr
 1147              		.section	.text.ecef_of_ned_vect_d,"ax",%progbits
 1148              		.align	2
 1149              		.global	ecef_of_ned_vect_d
 1151              	ecef_of_ned_vect_d:
 1152              		@ Function supports interworking.
 1153              		@ args = 0, pretend = 0, frame = 24
 1154              		@ frame_needed = 0, uses_anonymous_args = 0
 1155 0000 30402DE9 		stmfd	sp!, {r4, r5, lr}
 1156 0004 103092E5 		ldr	r3, [r2, #16]
 1157 0008 1CD04DE2 		sub	sp, sp, #28
 1158 000c 085082E2 		add	r5, r2, #8
 1159 0010 300095E8 		ldmia	r5, {r4-r5}
 1160 0014 10308DE5 		str	r3, [sp, #16]
 1161 0018 143092E5 		ldr	r3, [r2, #20]
 1162 001c 30008DE8 		stmia	sp, {r4-r5}
 1163 0020 300092E8 		ldmia	r2, {r4-r5}
 1164 0024 023183E2 		add	r3, r3, #-2147483648
 1165 0028 0D20A0E1 		mov	r2, sp
 1166 002c 08408DE5 		str	r4, [sp, #8]
 1167 0030 0C508DE5 		str	r5, [sp, #12]
 1168 0034 14308DE5 		str	r3, [sp, #20]
 1169 0038 FEFFFFEB 		bl	ecef_of_enu_vect_d
 1170 003c 1CD08DE2 		add	sp, sp, #28
 1171              		@ sp needed
 1172 0040 3040BDE8 		ldmfd	sp!, {r4, r5, lr}
 1173 0044 1EFF2FE1 		bx	lr
 1175              		.section	.text.gc_of_gd_lat_d,"ax",%progbits
 1176              		.align	2
 1177              		.global	gc_of_gd_lat_d
 1179              	gc_of_gd_lat_d:
 1180              		@ Function supports interworking.
 1181              		@ args = 0, pretend = 0, frame = 16
 1182              		@ frame_needed = 0, uses_anonymous_args = 0
 1183 0000 F04F2DE9 		stmfd	sp!, {r4, r5, r6, r7, r8, r9, r10, fp, lr}
 1184 0004 14D04DE2 		sub	sp, sp, #20
 1185 0008 0240A0E1 		mov	r4, r2
 1186 000c 0350A0E1 		mov	r5, r3
 1187 0010 0080A0E1 		mov	r8, r0
 1188 0014 0190A0E1 		mov	r9, r1
 1189 0018 FEFFFFEB 		bl	tan
 1190 001c 18219FE5 		ldr	r2, .L17
 1191 0020 18319FE5 		ldr	r3, .L17+4
 1192 0024 FEFFFFEB 		bl	__aeabi_dmul
 1193 0028 FEFFFFEB 		bl	atan
 1194 002c 0060A0E1 		mov	r6, r0
 1195 0030 0170A0E1 		mov	r7, r1
 1196 0034 0800A0E1 		mov	r0, r8
 1197 0038 0910A0E1 		mov	r1, r9
 1198 003c FEFFFFEB 		bl	sin
 1199 0040 0020A0E1 		mov	r2, r0
 1200 0044 0130A0E1 		mov	r3, r1
 1201 0048 0600A0E1 		mov	r0, r6
 1202 004c 0710A0E1 		mov	r1, r7
 1203 0050 04208DE5 		str	r2, [sp, #4]
 1204 0054 00308DE5 		str	r3, [sp]
 1205 0058 FEFFFFEB 		bl	sin
 1206 005c 00A0A0E1 		mov	r10, r0
 1207 0060 01B0A0E1 		mov	fp, r1
 1208 0064 0800A0E1 		mov	r0, r8
 1209 0068 0910A0E1 		mov	r1, r9
 1210 006c FEFFFFEB 		bl	cos
 1211 0070 08008DE5 		str	r0, [sp, #8]
 1212 0074 0C108DE5 		str	r1, [sp, #12]
 1213 0078 0600A0E1 		mov	r0, r6
 1214 007c 0710A0E1 		mov	r1, r7
 1215 0080 FEFFFFEB 		bl	cos
 1216 0084 04209DE5 		ldr	r2, [sp, #4]
 1217 0088 00309DE5 		ldr	r3, [sp]
 1218 008c 0080A0E1 		mov	r8, r0
 1219 0090 0190A0E1 		mov	r9, r1
 1220 0094 0400A0E1 		mov	r0, r4
 1221 0098 0510A0E1 		mov	r1, r5
 1222 009c FEFFFFEB 		bl	__aeabi_dmul
 1223 00a0 0121A0E3 		mov	r2, #1073741824
 1224 00a4 0060A0E1 		mov	r6, r0
 1225 00a8 0170A0E1 		mov	r7, r1
 1226 00ac 0A00A0E1 		mov	r0, r10
 1227 00b0 0B10A0E1 		mov	r1, fp
 1228 00b4 88309FE5 		ldr	r3, .L17+8
 1229 00b8 FEFFFFEB 		bl	__aeabi_dmul
 1230 00bc 0020A0E1 		mov	r2, r0
 1231 00c0 0130A0E1 		mov	r3, r1
 1232 00c4 0600A0E1 		mov	r0, r6
 1233 00c8 0710A0E1 		mov	r1, r7
 1234 00cc FEFFFFEB 		bl	__aeabi_dadd
 1235 00d0 08308DE2 		add	r3, sp, #8
 1236 00d4 0C0093E8 		ldmia	r3, {r2-r3}
 1237 00d8 0060A0E1 		mov	r6, r0
 1238 00dc 0170A0E1 		mov	r7, r1
 1239 00e0 0400A0E1 		mov	r0, r4
 1240 00e4 0510A0E1 		mov	r1, r5
 1241 00e8 FEFFFFEB 		bl	__aeabi_dmul
 1242 00ec 0121A0E3 		mov	r2, #1073741824
 1243 00f0 0040A0E1 		mov	r4, r0
 1244 00f4 0150A0E1 		mov	r5, r1
 1245 00f8 0800A0E1 		mov	r0, r8
 1246 00fc 0910A0E1 		mov	r1, r9
 1247 0100 3C309FE5 		ldr	r3, .L17+8
 1248 0104 FEFFFFEB 		bl	__aeabi_dmul
 1249 0108 0020A0E1 		mov	r2, r0
 1250 010c 0130A0E1 		mov	r3, r1
 1251 0110 0400A0E1 		mov	r0, r4
 1252 0114 0510A0E1 		mov	r1, r5
 1253 0118 FEFFFFEB 		bl	__aeabi_dadd
 1254 011c 0020A0E1 		mov	r2, r0
 1255 0120 0130A0E1 		mov	r3, r1
 1256 0124 0600A0E1 		mov	r0, r6
 1257 0128 0710A0E1 		mov	r1, r7
 1258 012c FEFFFFEB 		bl	atan2
 1259 0130 14D08DE2 		add	sp, sp, #20
 1260              		@ sp needed
 1261 0134 F04FBDE8 		ldmfd	sp!, {r4, r5, r6, r7, r8, r9, r10, fp, lr}
 1262 0138 1EFF2FE1 		bx	lr
 1263              	.L18:
 1264              		.align	2
 1265              	.L17:
 1266 013c D6021CDE 		.word	-568589610
 1267 0140 28C9EF3F 		.word	1072679208
 1268 0144 A6545841 		.word	1096307878
 1270              		.global	__aeabi_i2d
 1271              		.global	__aeabi_dcmpgt
 1272              		.section	.text.lla_of_utm_d,"ax",%progbits
 1273              		.align	2
 1274              		.global	lla_of_utm_d
 1276              	lla_of_utm_d:
 1277              		@ Function supports interworking.
 1278              		@ args = 0, pretend = 0, frame = 32
 1279              		@ frame_needed = 0, uses_anonymous_args = 0
 1280 0000 F04F2DE9 		stmfd	sp!, {r4, r5, r6, r7, r8, r9, r10, fp, lr}
 1281 0004 24D04DE2 		sub	sp, sp, #36
 1282 0008 0C008DE5 		str	r0, [sp, #12]
 1283 000c 08108DE5 		str	r1, [sp, #8]
 1284 0010 04249FE5 		ldr	r2, .L27
 1285 0014 030091E8 		ldmia	r1, {r0-r1}
 1286 0018 00349FE5 		ldr	r3, .L27+4
 1287 001c FEFFFFEB 		bl	__aeabi_dmul
 1288 0020 08309DE5 		ldr	r3, [sp, #8]
 1289 0024 0060A0E1 		mov	r6, r0
 1290 0028 0170A0E1 		mov	r7, r1
 1291 002c 0020A0E3 		mov	r2, #0
 1292 0030 081083E2 		add	r1, r3, #8
 1293 0034 030091E8 		ldmia	r1, {r0-r1}
 1294 0038 E4339FE5 		ldr	r3, .L27+8
 1295 003c FEFFFFEB 		bl	__aeabi_dsub
 1296 0040 D4239FE5 		ldr	r2, .L27
 1297 0044 D4339FE5 		ldr	r3, .L27+4
 1298 0048 FEFFFFEB 		bl	__aeabi_dmul
 1299 004c 0620A0E1 		mov	r2, r6
 1300 0050 03008DE8 		stmia	sp, {r0-r1}
 1301 0054 0730A0E1 		mov	r3, r7
 1302 0058 0600A0E1 		mov	r0, r6
 1303 005c 0710A0E1 		mov	r1, r7
 1304 0060 FEFFFFEB 		bl	__aeabi_dadd
 1305 0064 0050A0E1 		mov	r5, r0
 1306 0068 0140A0E1 		mov	r4, r1
 1307 006c 03009DE8 		ldmia	sp, {r0-r1}
 1308 0070 0020A0E1 		mov	r2, r0
 1309 0074 0130A0E1 		mov	r3, r1
 1310 0078 FEFFFFEB 		bl	__aeabi_dadd
 1311 007c 0180A0E1 		mov	r8, r1
 1312 0080 021181E2 		add	r1, r1, #-2147483648
 1313 0084 00A0A0E1 		mov	r10, r0
 1314 0088 FEFFFFEB 		bl	exp
 1315 008c 10008DE5 		str	r0, [sp, #16]
 1316 0090 14108DE5 		str	r1, [sp, #20]
 1317 0094 0410A0E1 		mov	r1, r4
 1318 0098 0500A0E1 		mov	r0, r5
 1319 009c FEFFFFEB 		bl	__aeabi_d2f
 1320 00a0 00B0A0E1 		mov	fp, r0
 1321 00a4 FEFFFFEB 		bl	cosf
 1322 00a8 0090A0E1 		mov	r9, r0
 1323 00ac 0B00A0E1 		mov	r0, fp
 1324 00b0 FEFFFFEB 		bl	sinf
 1325 00b4 0810A0E1 		mov	r1, r8
 1326 00b8 00B0A0E1 		mov	fp, r0
 1327 00bc 0A00A0E1 		mov	r0, r10
 1328 00c0 FEFFFFEB 		bl	exp
 1329 00c4 18008DE5 		str	r0, [sp, #24]
 1330 00c8 1C108DE5 		str	r1, [sp, #28]
 1331 00cc 021184E2 		add	r1, r4, #-2147483648
 1332 00d0 0500A0E1 		mov	r0, r5
 1333 00d4 FEFFFFEB 		bl	__aeabi_d2f
 1334 00d8 0040A0E1 		mov	r4, r0
 1335 00dc FEFFFFEB 		bl	cosf
 1336 00e0 0080A0E1 		mov	r8, r0
 1337 00e4 0400A0E1 		mov	r0, r4
 1338 00e8 FEFFFFEB 		bl	sinf
 1339 00ec 00A0A0E1 		mov	r10, r0
 1340 00f0 0B00A0E1 		mov	r0, fp
 1341 00f4 FEFFFFEB 		bl	__aeabi_f2d
 1342 00f8 0020A0E1 		mov	r2, r0
 1343 00fc 0130A0E1 		mov	r3, r1
 1344 0100 10108DE2 		add	r1, sp, #16
 1345 0104 030091E8 		ldmia	r1, {r0-r1}
 1346 0108 FEFFFFEB 		bl	__aeabi_dmul
 1347 010c 0040A0E1 		mov	r4, r0
 1348 0110 0A00A0E1 		mov	r0, r10
 1349 0114 0150A0E1 		mov	r5, r1
 1350 0118 FEFFFFEB 		bl	__aeabi_f2d
 1351 011c 0020A0E1 		mov	r2, r0
 1352 0120 0130A0E1 		mov	r3, r1
 1353 0124 18108DE2 		add	r1, sp, #24
 1354 0128 030091E8 		ldmia	r1, {r0-r1}
 1355 012c FEFFFFEB 		bl	__aeabi_dmul
 1356 0130 0020A0E1 		mov	r2, r0
 1357 0134 0130A0E1 		mov	r3, r1
 1358 0138 0400A0E1 		mov	r0, r4
 1359 013c 0510A0E1 		mov	r1, r5
 1360 0140 FEFFFFEB 		bl	__aeabi_dsub
 1361 0144 0020A0E3 		mov	r2, #0
 1362 0148 D8329FE5 		ldr	r3, .L27+12
 1363 014c FEFFFFEB 		bl	__aeabi_dmul
 1364 0150 023181E2 		add	r3, r1, #-2147483648
 1365 0154 0310A0E1 		mov	r1, r3
 1366 0158 0321A0E3 		mov	r2, #-1073741824
 1367 015c C8329FE5 		ldr	r3, .L27+16
 1368 0160 FEFFFFEB 		bl	__aeabi_dmul
 1369 0164 0020A0E1 		mov	r2, r0
 1370 0168 0130A0E1 		mov	r3, r1
 1371 016c 0600A0E1 		mov	r0, r6
 1372 0170 0710A0E1 		mov	r1, r7
 1373 0174 FEFFFFEB 		bl	__aeabi_dsub
 1374 0178 0060A0E1 		mov	r6, r0
 1375 017c 0900A0E1 		mov	r0, r9
 1376 0180 0170A0E1 		mov	r7, r1
 1377 0184 FEFFFFEB 		bl	__aeabi_f2d
 1378 0188 0020A0E1 		mov	r2, r0
 1379 018c 0130A0E1 		mov	r3, r1
 1380 0190 10108DE2 		add	r1, sp, #16
 1381 0194 030091E8 		ldmia	r1, {r0-r1}
 1382 0198 FEFFFFEB 		bl	__aeabi_dmul
 1383 019c 0040A0E1 		mov	r4, r0
 1384 01a0 0800A0E1 		mov	r0, r8
 1385 01a4 0150A0E1 		mov	r5, r1
 1386 01a8 FEFFFFEB 		bl	__aeabi_f2d
 1387 01ac 0020A0E1 		mov	r2, r0
 1388 01b0 0130A0E1 		mov	r3, r1
 1389 01b4 18108DE2 		add	r1, sp, #24
 1390 01b8 030091E8 		ldmia	r1, {r0-r1}
 1391 01bc FEFFFFEB 		bl	__aeabi_dmul
 1392 01c0 0020A0E1 		mov	r2, r0
 1393 01c4 0130A0E1 		mov	r3, r1
 1394 01c8 0400A0E1 		mov	r0, r4
 1395 01cc 0510A0E1 		mov	r1, r5
 1396 01d0 FEFFFFEB 		bl	__aeabi_dsub
 1397 01d4 0020A0E3 		mov	r2, #0
 1398 01d8 48329FE5 		ldr	r3, .L27+12
 1399 01dc FEFFFFEB 		bl	__aeabi_dmul
 1400 01e0 0321A0E3 		mov	r2, #-1073741824
 1401 01e4 40329FE5 		ldr	r3, .L27+16
 1402 01e8 FEFFFFEB 		bl	__aeabi_dmul
 1403 01ec 0020A0E1 		mov	r2, r0
 1404 01f0 0130A0E1 		mov	r3, r1
 1405 01f4 03009DE8 		ldmia	sp, {r0-r1}
 1406 01f8 FEFFFFEB 		bl	__aeabi_dsub
 1407 01fc 0150A0E1 		mov	r5, r1
 1408 0200 08109DE5 		ldr	r1, [sp, #8]
 1409 0204 0040A0E1 		mov	r4, r0
 1410 0208 1800D1E5 		ldrb	r0, [r1, #24]	@ zero_extendqisi2
 1411 020c 0630A0E3 		mov	r3, #6
 1412 0210 010040E2 		sub	r0, r0, #1
 1413 0214 930000E0 		mul	r0, r3, r0
 1414 0218 B10040E2 		sub	r0, r0, #177
 1415 021c FEFFFFEB 		bl	__aeabi_i2d
 1416 0220 08229FE5 		ldr	r2, .L27+20
 1417 0224 08329FE5 		ldr	r3, .L27+24
 1418 0228 FEFFFFEB 		bl	__aeabi_dmul
 1419 022c 00A0A0E1 		mov	r10, r0
 1420 0230 01B0A0E1 		mov	fp, r1
 1421 0234 0400A0E1 		mov	r0, r4
 1422 0238 0510A0E1 		mov	r1, r5
 1423 023c FEFFFFEB 		bl	sinh
 1424 0240 0080A0E1 		mov	r8, r0
 1425 0244 0190A0E1 		mov	r9, r1
 1426 0248 0600A0E1 		mov	r0, r6
 1427 024c 0710A0E1 		mov	r1, r7
 1428 0250 FEFFFFEB 		bl	cos
 1429 0254 0020A0E1 		mov	r2, r0
 1430 0258 0130A0E1 		mov	r3, r1
 1431 025c 0800A0E1 		mov	r0, r8
 1432 0260 0910A0E1 		mov	r1, r9
 1433 0264 FEFFFFEB 		bl	__aeabi_ddiv
 1434 0268 FEFFFFEB 		bl	atan
 1435 026c 0020A0E1 		mov	r2, r0
 1436 0270 0130A0E1 		mov	r3, r1
 1437 0274 0A00A0E1 		mov	r0, r10
 1438 0278 0B10A0E1 		mov	r1, fp
 1439 027c FEFFFFEB 		bl	__aeabi_dadd
 1440 0280 0C309DE5 		ldr	r3, [sp, #12]
 1441 0284 030083E8 		stmia	r3, {r0-r1}
 1442 0288 0600A0E1 		mov	r0, r6
 1443 028c 0710A0E1 		mov	r1, r7
 1444 0290 FEFFFFEB 		bl	sin
 1445 0294 0060A0E1 		mov	r6, r0
 1446 0298 0170A0E1 		mov	r7, r1
 1447 029c 0400A0E1 		mov	r0, r4
 1448 02a0 0510A0E1 		mov	r1, r5
 1449 02a4 FEFFFFEB 		bl	cosh
 1450 02a8 0020A0E1 		mov	r2, r0
 1451 02ac 0130A0E1 		mov	r3, r1
 1452 02b0 0600A0E1 		mov	r0, r6
 1453 02b4 0710A0E1 		mov	r1, r7
 1454 02b8 FEFFFFEB 		bl	__aeabi_ddiv
 1455 02bc FEFFFFEB 		bl	asin
 1456 02c0 0020A0E3 		mov	r2, #0
 1457 02c4 6C319FE5 		ldr	r3, .L27+28
 1458 02c8 FEFFFFEB 		bl	__aeabi_dmul
 1459 02cc 68219FE5 		ldr	r2, .L27+32
 1460 02d0 68319FE5 		ldr	r3, .L27+36
 1461 02d4 FEFFFFEB 		bl	__aeabi_dadd
 1462 02d8 FEFFFFEB 		bl	tan
 1463 02dc FEFFFFEB 		bl	log
 1464 02e0 FEFFFFEB 		bl	exp
 1465 02e4 03008DE8 		stmia	sp, {r0-r1}
 1466 02e8 FEFFFFEB 		bl	atan
 1467 02ec 0020A0E1 		mov	r2, r0
 1468 02f0 0130A0E1 		mov	r3, r1
 1469 02f4 FEFFFFEB 		bl	__aeabi_dadd
 1470 02f8 3C219FE5 		ldr	r2, .L27+32
 1471 02fc 40319FE5 		ldr	r3, .L27+40
 1472 0300 FEFFFFEB 		bl	__aeabi_dsub
 1473 0304 03A0A0E3 		mov	r10, #3
 1474 0308 0040A0E1 		mov	r4, r0
 1475 030c 0150A0E1 		mov	r5, r1
 1476              	.L23:
 1477 0310 0400A0E1 		mov	r0, r4
 1478 0314 0510A0E1 		mov	r1, r5
 1479 0318 FEFFFFEB 		bl	sin
 1480 031c 24219FE5 		ldr	r2, .L27+44
 1481 0320 24319FE5 		ldr	r3, .L27+48
 1482 0324 FEFFFFEB 		bl	__aeabi_dmul
 1483 0328 0020A0E3 		mov	r2, #0
 1484 032c 1C319FE5 		ldr	r3, .L27+52
 1485 0330 0080A0E1 		mov	r8, r0
 1486 0334 0190A0E1 		mov	r9, r1
 1487 0338 FEFFFFEB 		bl	__aeabi_dadd
 1488 033c 0820A0E1 		mov	r2, r8
 1489 0340 0060A0E1 		mov	r6, r0
 1490 0344 0170A0E1 		mov	r7, r1
 1491 0348 0930A0E1 		mov	r3, r9
 1492 034c 0000A0E3 		mov	r0, #0
 1493 0350 F8109FE5 		ldr	r1, .L27+52
 1494 0354 FEFFFFEB 		bl	__aeabi_dsub
 1495 0358 0020A0E1 		mov	r2, r0
 1496 035c 0130A0E1 		mov	r3, r1
 1497 0360 0600A0E1 		mov	r0, r6
 1498 0364 0710A0E1 		mov	r1, r7
 1499 0368 FEFFFFEB 		bl	__aeabi_ddiv
 1500 036c D4209FE5 		ldr	r2, .L27+44
 1501 0370 DC309FE5 		ldr	r3, .L27+56
 1502 0374 FEFFFFEB 		bl	pow
 1503 0378 0C009DE8 		ldmia	sp, {r2-r3}
 1504 037c FEFFFFEB 		bl	__aeabi_dmul
 1505 0380 FEFFFFEB 		bl	atan
 1506 0384 0020A0E1 		mov	r2, r0
 1507 0388 0130A0E1 		mov	r3, r1
 1508 038c FEFFFFEB 		bl	__aeabi_dadd
 1509 0390 A4209FE5 		ldr	r2, .L27+32
 1510 0394 A8309FE5 		ldr	r3, .L27+40
 1511 0398 FEFFFFEB 		bl	__aeabi_dsub
 1512 039c 01A04AE2 		sub	r10, r10, #1
 1513 03a0 FFA01AE2 		ands	r10, r10, #255
 1514 03a4 0060A0E1 		mov	r6, r0
 1515 03a8 0170A0E1 		mov	r7, r1
 1516 03ac 0B00001A 		bne	.L20
 1517              	.L21:
 1518 03b0 0C109DE5 		ldr	r1, [sp, #12]
 1519 03b4 086081E5 		str	r6, [r1, #8]
 1520 03b8 0C7081E5 		str	r7, [r1, #12]
 1521 03bc 08109DE5 		ldr	r1, [sp, #8]
 1522 03c0 103081E2 		add	r3, r1, #16
 1523 03c4 0C0093E8 		ldmia	r3, {r2-r3}
 1524 03c8 0C109DE5 		ldr	r1, [sp, #12]
 1525 03cc 102081E5 		str	r2, [r1, #16]
 1526 03d0 143081E5 		str	r3, [r1, #20]
 1527 03d4 24D08DE2 		add	sp, sp, #36
 1528              		@ sp needed
 1529 03d8 F04FBDE8 		ldmfd	sp!, {r4, r5, r6, r7, r8, r9, r10, fp, lr}
 1530 03dc 1EFF2FE1 		bx	lr
 1531              	.L20:
 1532 03e0 0620A0E1 		mov	r2, r6
 1533 03e4 0730A0E1 		mov	r3, r7
 1534 03e8 0400A0E1 		mov	r0, r4
 1535 03ec 0510A0E1 		mov	r1, r5
 1536 03f0 FEFFFFEB 		bl	__aeabi_dsub
 1537 03f4 0231C1E3 		bic	r3, r1, #-2147483648
 1538 03f8 0310A0E1 		mov	r1, r3
 1539 03fc 54209FE5 		ldr	r2, .L27+60
 1540 0400 54309FE5 		ldr	r3, .L27+64
 1541 0404 FEFFFFEB 		bl	__aeabi_dcmpgt
 1542 0408 000050E3 		cmp	r0, #0
 1543 040c E7FFFF0A 		beq	.L21
 1544 0410 0640A0E1 		mov	r4, r6
 1545 0414 0750A0E1 		mov	r5, r7
 1546 0418 BCFFFFEA 		b	.L23
 1547              	.L28:
 1548              		.align	2
 1549              	.L27:
 1550 041c 3E72EF54 		.word	1424978494
 1551 0420 5016853E 		.word	1048909392
 1552 0424 80841E41 		.word	1092519040
 1553 0428 0000E0BF 		.word	-1075838976
 1554 042c A0674B3F 		.word	1061906336
 1555 0430 399D52A2 		.word	-1571644103
 1556 0434 46DF913F 		.word	1066524486
 1557 0438 0000E03F 		.word	1071644672
 1558 043c 182D4454 		.word	1413754136
 1559 0440 FB21E93F 		.word	1072243195
 1560 0444 FB21F93F 		.word	1073291771
 1561 0448 37B2C93D 		.word	1036628535
 1562 044c 1AF2B43F 		.word	1068823066
 1563 0450 0000F03F 		.word	1072693248
 1564 0454 1AF2A43F 		.word	1067774490
 1565 0458 3A8C30E2 		.word	-500134854
 1566 045c 8E79453E 		.word	1044740494
 1568              		.ident	"GCC: (GNU Tools for ARM Embedded Processors) 4.8.3 20131129 (release) [ARM/embedded-4_8-br