   1              		.cpu arm7tdmi
   2              		.fpu softvfp
   3              		.eabi_attribute 20, 1
   4              		.eabi_attribute 21, 1
   5              		.eabi_attribute 23, 3
   6              		.eabi_attribute 24, 1
   7              		.eabi_attribute 25, 1
   8              		.eabi_attribute 26, 1
   9              		.eabi_attribute 30, 4
  10              		.eabi_attribute 34, 0
  11              		.eabi_attribute 18, 4
  12              		.file	"pprz_geodetic_int.c"
  13              		.section	.text.enu_of_ecef_point_i,"ax",%progbits
  14              		.align	2
  15              		.global	enu_of_ecef_point_i
  17              	enu_of_ecef_point_i:
  18              		@ Function supports interworking.
  19              		@ args = 0, pretend = 0, frame = 0
  20              		@ frame_needed = 0, uses_anonymous_args = 0
  21              		@ link register save eliminated.
  22 0000 003091E5 		ldr	r3, [r1]
  23 0004 00C092E5 		ldr	ip, [r2]
  24 0008 F0012DE9 		stmfd	sp!, {r4, r5, r6, r7, r8}
  25 000c 0CC063E0 		rsb	ip, r3, ip
  26 0010 044092E5 		ldr	r4, [r2, #4]
  27 0014 043091E5 		ldr	r3, [r1, #4]
  28 0018 186081E2 		add	r6, r1, #24
  29 001c C00096E8 		ldmia	r6, {r6, r7}
  30 0020 044063E0 		rsb	r4, r3, r4
  31 0024 085092E5 		ldr	r5, [r2, #8]
  32 0028 083091E5 		ldr	r3, [r1, #8]
  33 002c 055063E0 		rsb	r5, r3, r5
  34 0030 9724C3E0 		smull	r2, r3, r7, r4
  35 0034 9C26E3E0 		smlal	r2, r3, ip, r6
  36 0038 247081E2 		add	r7, r1, #36
  37 003c 800197E8 		ldmia	r7, {r7, r8}
  38 0040 222AA0E1 		mov	r2, r2, lsr #20
  39 0044 032682E1 		orr	r2, r2, r3, asl #12
  40 0048 002080E5 		str	r2, [r0]
  41 004c 9824C3E0 		smull	r2, r3, r8, r4
  42 0050 9C27E3E0 		smlal	r2, r3, ip, r7
  43 0054 2C6091E5 		ldr	r6, [r1, #44]
  44 0058 9526E3E0 		smlal	r2, r3, r5, r6
  45 005c 306081E2 		add	r6, r1, #48
  46 0060 C00096E8 		ldmia	r6, {r6, r7}
  47 0064 222AA0E1 		mov	r2, r2, lsr #20
  48 0068 032682E1 		orr	r2, r2, r3, asl #12
  49 006c 042080E5 		str	r2, [r0, #4]
  50 0070 9724C3E0 		smull	r2, r3, r7, r4
  51 0074 9C26E3E0 		smlal	r2, r3, ip, r6
  52 0078 381091E5 		ldr	r1, [r1, #56]
  53 007c 9521E3E0 		smlal	r2, r3, r5, r1
  54 0080 222AA0E1 		mov	r2, r2, lsr #20
  55 0084 032682E1 		orr	r2, r2, r3, asl #12
  56 0088 082080E5 		str	r2, [r0, #8]
  57 008c F001BDE8 		ldmfd	sp!, {r4, r5, r6, r7, r8}
  58 0090 1EFF2FE1 		bx	lr
  60              		.section	.text.ned_of_ecef_point_i,"ax",%progbits
  61              		.align	2
  62              		.global	ned_of_ecef_point_i
  64              	ned_of_ecef_point_i:
  65              		@ Function supports interworking.
  66              		@ args = 0, pretend = 0, frame = 16
  67              		@ frame_needed = 0, uses_anonymous_args = 0
  68 0000 1F402DE9 		stmfd	sp!, {r0, r1, r2, r3, r4, lr}
  69 0004 0040A0E1 		mov	r4, r0
  70 0008 04008DE2 		add	r0, sp, #4
  71 000c FEFFFFEB 		bl	enu_of_ecef_point_i
  72 0010 08309DE5 		ldr	r3, [sp, #8]
  73 0014 003084E5 		str	r3, [r4]
  74 0018 04309DE5 		ldr	r3, [sp, #4]
  75 001c 043084E5 		str	r3, [r4, #4]
  76 0020 0C309DE5 		ldr	r3, [sp, #12]
  77 0024 003063E2 		rsb	r3, r3, #0
  78 0028 083084E5 		str	r3, [r4, #8]
  79 002c 10D08DE2 		add	sp, sp, #16
  80              		@ sp needed
  81 0030 1040BDE8 		ldmfd	sp!, {r4, lr}
  82 0034 1EFF2FE1 		bx	lr
  84              		.section	.text.enu_of_ecef_vect_i,"ax",%progbits
  85              		.align	2
  86              		.global	enu_of_ecef_vect_i
  88              	enu_of_ecef_vect_i:
  89              		@ Function supports interworking.
  90              		@ args = 0, pretend = 0, frame = 0
  91              		@ frame_needed = 0, uses_anonymous_args = 0
  92              		@ link register save eliminated.
  93 0000 F0012DE9 		stmfd	sp!, {r4, r5, r6, r7, r8}
  94 0004 046092E5 		ldr	r6, [r2, #4]
  95 0008 1C7091E5 		ldr	r7, [r1, #28]
  96 000c 9746C5E0 		smull	r4, r5, r7, r6
  97 0010 00C092E5 		ldr	ip, [r2]
  98 0014 183091E5 		ldr	r3, [r1, #24]
  99 0018 9C43E5E0 		smlal	r4, r5, ip, r3
 100 001c 247081E2 		add	r7, r1, #36
 101 0020 800197E8 		ldmia	r7, {r7, r8}
 102 0024 243AA0E1 		mov	r3, r4, lsr #20
 103 0028 053683E1 		orr	r3, r3, r5, asl #12
 104 002c 084092E5 		ldr	r4, [r2, #8]
 105 0030 003080E5 		str	r3, [r0]
 106 0034 9826C3E0 		smull	r2, r3, r8, r6
 107 0038 9C27E3E0 		smlal	r2, r3, ip, r7
 108 003c 2C5091E5 		ldr	r5, [r1, #44]
 109 0040 9425E3E0 		smlal	r2, r3, r4, r5
 110 0044 305081E2 		add	r5, r1, #48
 111 0048 A00095E8 		ldmia	r5, {r5, r7}
 112 004c 222AA0E1 		mov	r2, r2, lsr #20
 113 0050 032682E1 		orr	r2, r2, r3, asl #12
 114 0054 042080E5 		str	r2, [r0, #4]
 115 0058 9726C3E0 		smull	r2, r3, r7, r6
 116 005c 9C25E3E0 		smlal	r2, r3, ip, r5
 117 0060 381091E5 		ldr	r1, [r1, #56]
 118 0064 9421E3E0 		smlal	r2, r3, r4, r1
 119 0068 222AA0E1 		mov	r2, r2, lsr #20
 120 006c 032682E1 		orr	r2, r2, r3, asl #12
 121 0070 082080E5 		str	r2, [r0, #8]
 122 0074 F001BDE8 		ldmfd	sp!, {r4, r5, r6, r7, r8}
 123 0078 1EFF2FE1 		bx	lr
 125              		.section	.text.ned_of_ecef_vect_i,"ax",%progbits
 126              		.align	2
 127              		.global	ned_of_ecef_vect_i
 129              	ned_of_ecef_vect_i:
 130              		@ Function supports interworking.
 131              		@ args = 0, pretend = 0, frame = 16
 132              		@ frame_needed = 0, uses_anonymous_args = 0
 133 0000 1F402DE9 		stmfd	sp!, {r0, r1, r2, r3, r4, lr}
 134 0004 0040A0E1 		mov	r4, r0
 135 0008 04008DE2 		add	r0, sp, #4
 136 000c FEFFFFEB 		bl	enu_of_ecef_vect_i
 137 0010 08309DE5 		ldr	r3, [sp, #8]
 138 0014 003084E5 		str	r3, [r4]
 139 0018 04309DE5 		ldr	r3, [sp, #4]
 140 001c 043084E5 		str	r3, [r4, #4]
 141 0020 0C309DE5 		ldr	r3, [sp, #12]
 142 0024 003063E2 		rsb	r3, r3, #0
 143 0028 083084E5 		str	r3, [r4, #8]
 144 002c 10D08DE2 		add	sp, sp, #16
 145              		@ sp needed
 146 0030 1040BDE8 		ldmfd	sp!, {r4, lr}
 147 0034 1EFF2FE1 		bx	lr
 149              		.section	.text.ecef_of_enu_point_i,"ax",%progbits
 150              		.align	2
 151              		.global	ecef_of_enu_point_i
 153              	ecef_of_enu_point_i:
 154              		@ Function supports interworking.
 155              		@ args = 0, pretend = 0, frame = 0
 156              		@ frame_needed = 0, uses_anonymous_args = 0
 157              		@ link register save eliminated.
 158 0000 F0002DE9 		stmfd	sp!, {r4, r5, r6, r7}
 159 0004 044092E5 		ldr	r4, [r2, #4]
 160 0008 245091E5 		ldr	r5, [r1, #36]
 161 000c 940505E0 		mul	r5, r4, r5
 162 0010 00C092E5 		ldr	ip, [r2]
 163 0014 083092E5 		ldr	r3, [r2, #8]
 164 0018 182091E5 		ldr	r2, [r1, #24]
 165 001c 925C25E0 		mla	r5, r2, ip, r5
 166 0020 302091E5 		ldr	r2, [r1, #48]
 167 0024 925325E0 		mla	r5, r2, r3, r5
 168 0028 282091E5 		ldr	r2, [r1, #40]
 169 002c 940202E0 		mul	r2, r4, r2
 170 0030 1C6091E5 		ldr	r6, [r1, #28]
 171 0034 2C7091E5 		ldr	r7, [r1, #44]
 172 0038 962C22E0 		mla	r2, r6, ip, r2
 173 003c 970404E0 		mul	r4, r7, r4
 174 0040 346091E5 		ldr	r6, [r1, #52]
 175 0044 962322E0 		mla	r2, r6, r3, r2
 176 0048 206091E5 		ldr	r6, [r1, #32]
 177 004c 964C2CE0 		mla	ip, r6, ip, r4
 178 0050 384091E5 		ldr	r4, [r1, #56]
 179 0054 94C323E0 		mla	r3, r4, r3, ip
 180 0058 4557A0E1 		mov	r5, r5, asr #14
 181 005c 005080E5 		str	r5, [r0]
 182 0060 4227A0E1 		mov	r2, r2, asr #14
 183 0064 00C091E5 		ldr	ip, [r1]
 184 0068 042080E5 		str	r2, [r0, #4]
 185 006c 0C5085E0 		add	r5, r5, ip
 186 0070 4337A0E1 		mov	r3, r3, asr #14
 187 0074 04C091E5 		ldr	ip, [r1, #4]
 188 0078 083080E5 		str	r3, [r0, #8]
 189 007c 0C2082E0 		add	r2, r2, ip
 190 0080 042080E5 		str	r2, [r0, #4]
 191 0084 082091E5 		ldr	r2, [r1, #8]
 192 0088 023083E0 		add	r3, r3, r2
 193 008c 005080E5 		str	r5, [r0]
 194 0090 083080E5 		str	r3, [r0, #8]
 195 0094 F000BDE8 		ldmfd	sp!, {r4, r5, r6, r7}
 196 0098 1EFF2FE1 		bx	lr
 198              		.section	.text.ecef_of_ned_point_i,"ax",%progbits
 199              		.align	2
 200              		.global	ecef_of_ned_point_i
 202              	ecef_of_ned_point_i:
 203              		@ Function supports interworking.
 204              		@ args = 0, pretend = 0, frame = 16
 205              		@ frame_needed = 0, uses_anonymous_args = 0
 206 0000 1F402DE9 		stmfd	sp!, {r0, r1, r2, r3, r4, lr}
 207 0004 043092E5 		ldr	r3, [r2, #4]
 208 0008 04308DE5 		str	r3, [sp, #4]
 209 000c 003092E5 		ldr	r3, [r2]
 210 0010 08308DE5 		str	r3, [sp, #8]
 211 0014 083092E5 		ldr	r3, [r2, #8]
 212 0018 04208DE2 		add	r2, sp, #4
 213 001c 003063E2 		rsb	r3, r3, #0
 214 0020 0C308DE5 		str	r3, [sp, #12]
 215 0024 FEFFFFEB 		bl	ecef_of_enu_point_i
 216 0028 14D08DE2 		add	sp, sp, #20
 217              		@ sp needed
 218 002c 04E09DE4 		ldr	lr, [sp], #4
 219 0030 1EFF2FE1 		bx	lr
 221              		.section	.text.ecef_of_enu_vect_i,"ax",%progbits
 222              		.align	2
 223              		.global	ecef_of_enu_vect_i
 225              	ecef_of_enu_vect_i:
 226              		@ Function supports interworking.
 227              		@ args = 0, pretend = 0, frame = 0
 228              		@ frame_needed = 0, uses_anonymous_args = 0
 229              		@ link register save eliminated.
 230 0000 00C092E5 		ldr	ip, [r2]
 231 0004 083092E5 		ldr	r3, [r2, #8]
 232 0008 30002DE9 		stmfd	sp!, {r4, r5}
 233 000c 044092E5 		ldr	r4, [r2, #4]
 234 0010 242091E5 		ldr	r2, [r1, #36]
 235 0014 940202E0 		mul	r2, r4, r2
 236 0018 185091E5 		ldr	r5, [r1, #24]
 237 001c 952C22E0 		mla	r2, r5, ip, r2
 238 0020 305091E5 		ldr	r5, [r1, #48]
 239 0024 952322E0 		mla	r2, r5, r3, r2
 240 0028 4227A0E1 		mov	r2, r2, asr #14
 241 002c 002080E5 		str	r2, [r0]
 242 0030 282091E5 		ldr	r2, [r1, #40]
 243 0034 940202E0 		mul	r2, r4, r2
 244 0038 1C5091E5 		ldr	r5, [r1, #28]
 245 003c 952C22E0 		mla	r2, r5, ip, r2
 246 0040 345091E5 		ldr	r5, [r1, #52]
 247 0044 952322E0 		mla	r2, r5, r3, r2
 248 0048 2C5091E5 		ldr	r5, [r1, #44]
 249 004c 950404E0 		mul	r4, r5, r4
 250 0050 4227A0E1 		mov	r2, r2, asr #14
 251 0054 042080E5 		str	r2, [r0, #4]
 252 0058 202091E5 		ldr	r2, [r1, #32]
 253 005c 924C2CE0 		mla	ip, r2, ip, r4
 254 0060 384091E5 		ldr	r4, [r1, #56]
 255 0064 94C323E0 		mla	r3, r4, r3, ip
 256 0068 4337A0E1 		mov	r3, r3, asr #14
 257 006c 083080E5 		str	r3, [r0, #8]
 258 0070 3000BDE8 		ldmfd	sp!, {r4, r5}
 259 0074 1EFF2FE1 		bx	lr
 261              		.section	.text.ecef_of_ned_vect_i,"ax",%progbits
 262              		.align	2
 263              		.global	ecef_of_ned_vect_i
 265              	ecef_of_ned_vect_i:
 266              		@ Function supports interworking.
 267              		@ args = 0, pretend = 0, frame = 16
 268              		@ frame_needed = 0, uses_anonymous_args = 0
 269 0000 1F402DE9 		stmfd	sp!, {r0, r1, r2, r3, r4, lr}
 270 0004 043092E5 		ldr	r3, [r2, #4]
 271 0008 04308DE5 		str	r3, [sp, #4]
 272 000c 003092E5 		ldr	r3, [r2]
 273 0010 08308DE5 		str	r3, [sp, #8]
 274 0014 083092E5 		ldr	r3, [r2, #8]
 275 0018 04208DE2 		add	r2, sp, #4
 276 001c 003063E2 		rsb	r3, r3, #0
 277 0020 0C308DE5 		str	r3, [sp, #12]
 278 0024 FEFFFFEB 		bl	ecef_of_enu_vect_i
 279 0028 14D08DE2 		add	sp, sp, #20
 280              		@ sp needed
 281 002c 04E09DE4 		ldr	lr, [sp], #4
 282 0030 1EFF2FE1 		bx	lr
 284              		.global	__aeabi_i2d
 285              		.global	__aeabi_ddiv
 286              		.global	__aeabi_dmul
 287              		.global	__aeabi_d2iz
 288              		.section	.text.lla_of_ecef_i,"ax",%progbits
 289              		.align	2
 290              		.global	lla_of_ecef_i
 292              	lla_of_ecef_i:
 293              		@ Function supports interworking.
 294              		@ args = 0, pretend = 0, frame = 48
 295              		@ frame_needed = 0, uses_anonymous_args = 0
 296 0000 30402DE9 		stmfd	sp!, {r4, r5, lr}
 297 0004 0040A0E1 		mov	r4, r0
 298 0008 34D04DE2 		sub	sp, sp, #52
 299 000c 000091E5 		ldr	r0, [r1]
 300 0010 0150A0E1 		mov	r5, r1
 301 0014 FEFFFFEB 		bl	__aeabi_i2d
 302 0018 0020A0E3 		mov	r2, #0
 303 001c B0309FE5 		ldr	r3, .L10
 304 0020 FEFFFFEB 		bl	__aeabi_ddiv
 305 0024 03008DE8 		stmia	sp, {r0-r1}
 306 0028 040095E5 		ldr	r0, [r5, #4]
 307 002c FEFFFFEB 		bl	__aeabi_i2d
 308 0030 0020A0E3 		mov	r2, #0
 309 0034 98309FE5 		ldr	r3, .L10
 310 0038 FEFFFFEB 		bl	__aeabi_ddiv
 311 003c 08008DE5 		str	r0, [sp, #8]
 312 0040 0C108DE5 		str	r1, [sp, #12]
 313 0044 080095E5 		ldr	r0, [r5, #8]
 314 0048 FEFFFFEB 		bl	__aeabi_i2d
 315 004c 0020A0E3 		mov	r2, #0
 316 0050 7C309FE5 		ldr	r3, .L10
 317 0054 FEFFFFEB 		bl	__aeabi_ddiv
 318 0058 10008DE5 		str	r0, [sp, #16]
 319 005c 14108DE5 		str	r1, [sp, #20]
 320 0060 18008DE2 		add	r0, sp, #24
 321 0064 0D10A0E1 		mov	r1, sp
 322 0068 FEFFFFEB 		bl	lla_of_ecef_d
 323 006c 0020A0E3 		mov	r2, #0
 324 0070 60309FE5 		ldr	r3, .L10+4
 325 0074 18108DE2 		add	r1, sp, #24
 326 0078 030091E8 		ldmia	r1, {r0-r1}
 327 007c FEFFFFEB 		bl	__aeabi_dmul
 328 0080 FEFFFFEB 		bl	rint
 329 0084 FEFFFFEB 		bl	__aeabi_d2iz
 330 0088 0020A0E3 		mov	r2, #0
 331 008c 44309FE5 		ldr	r3, .L10+4
 332 0090 000084E5 		str	r0, [r4]
 333 0094 20108DE2 		add	r1, sp, #32
 334 0098 030091E8 		ldmia	r1, {r0-r1}
 335 009c FEFFFFEB 		bl	__aeabi_dmul
 336 00a0 FEFFFFEB 		bl	rint
 337 00a4 FEFFFFEB 		bl	__aeabi_d2iz
 338 00a8 0020A0E3 		mov	r2, #0
 339 00ac 040084E5 		str	r0, [r4, #4]
 340 00b0 24309FE5 		ldr	r3, .L10+8
 341 00b4 28108DE2 		add	r1, sp, #40
 342 00b8 030091E8 		ldmia	r1, {r0-r1}
 343 00bc FEFFFFEB 		bl	__aeabi_dmul
 344 00c0 FEFFFFEB 		bl	__aeabi_d2iz
 345 00c4 080084E5 		str	r0, [r4, #8]
 346 00c8 34D08DE2 		add	sp, sp, #52
 347              		@ sp needed
 348 00cc 3040BDE8 		ldmfd	sp!, {r4, r5, lr}
 349 00d0 1EFF2FE1 		bx	lr
 350              	.L11:
 351              		.align	2
 352              	.L10:
 353 00d4 00005940 		.word	1079574528
 354 00d8 D0126341 		.word	1097011920
 355 00dc 00408F40 		.word	1083129856
 357              		.global	__aeabi_i2f
 358              		.global	__aeabi_fdiv
 359              		.global	__aeabi_fmul
 360              		.global	__aeabi_f2d
 361              		.section	.text.ltp_def_from_ecef_i,"ax",%progbits
 362              		.align	2
 363              		.global	ltp_def_from_ecef_i
 365              	ltp_def_from_ecef_i:
 366              		@ Function supports interworking.
 367              		@ args = 0, pretend = 0, frame = 0
 368              		@ frame_needed = 0, uses_anonymous_args = 0
 369 0000 F8432DE9 		stmfd	sp!, {r3, r4, r5, r6, r7, r8, r9, lr}
 370 0004 003091E5 		ldr	r3, [r1]
 371 0008 003080E5 		str	r3, [r0]
 372 000c 043091E5 		ldr	r3, [r1, #4]
 373 0010 043080E5 		str	r3, [r0, #4]
 374 0014 083091E5 		ldr	r3, [r1, #8]
 375 0018 0060A0E1 		mov	r6, r0
 376 001c 083080E5 		str	r3, [r0, #8]
 377 0020 0610A0E1 		mov	r1, r6
 378 0024 0C0080E2 		add	r0, r0, #12
 379 0028 FEFFFFEB 		bl	lla_of_ecef_i
 380 002c 100096E5 		ldr	r0, [r6, #16]
 381 0030 FEFFFFEB 		bl	__aeabi_i2f
 382 0034 30119FE5 		ldr	r1, .L13
 383 0038 FEFFFFEB 		bl	__aeabi_fdiv
 384 003c FEFFFFEB 		bl	sinf
 385 0040 28119FE5 		ldr	r1, .L13+4
 386 0044 FEFFFFEB 		bl	__aeabi_fmul
 387 0048 FEFFFFEB 		bl	__aeabi_f2d
 388 004c FEFFFFEB 		bl	rint
 389 0050 FEFFFFEB 		bl	__aeabi_d2iz
 390 0054 0090A0E1 		mov	r9, r0
 391 0058 100096E5 		ldr	r0, [r6, #16]
 392 005c FEFFFFEB 		bl	__aeabi_i2f
 393 0060 04119FE5 		ldr	r1, .L13
 394 0064 FEFFFFEB 		bl	__aeabi_fdiv
 395 0068 FEFFFFEB 		bl	cosf
 396 006c FC109FE5 		ldr	r1, .L13+4
 397 0070 FEFFFFEB 		bl	__aeabi_fmul
 398 0074 FEFFFFEB 		bl	__aeabi_f2d
 399 0078 FEFFFFEB 		bl	rint
 400 007c FEFFFFEB 		bl	__aeabi_d2iz
 401 0080 0080A0E1 		mov	r8, r0
 402 0084 0C0096E5 		ldr	r0, [r6, #12]
 403 0088 FEFFFFEB 		bl	__aeabi_i2f
 404 008c D8109FE5 		ldr	r1, .L13
 405 0090 FEFFFFEB 		bl	__aeabi_fdiv
 406 0094 FEFFFFEB 		bl	sinf
 407 0098 D0109FE5 		ldr	r1, .L13+4
 408 009c FEFFFFEB 		bl	__aeabi_fmul
 409 00a0 FEFFFFEB 		bl	__aeabi_f2d
 410 00a4 FEFFFFEB 		bl	rint
 411 00a8 FEFFFFEB 		bl	__aeabi_d2iz
 412 00ac 0070A0E1 		mov	r7, r0
 413 00b0 0C0096E5 		ldr	r0, [r6, #12]
 414 00b4 FEFFFFEB 		bl	__aeabi_i2f
 415 00b8 AC109FE5 		ldr	r1, .L13
 416 00bc FEFFFFEB 		bl	__aeabi_fdiv
 417 00c0 FEFFFFEB 		bl	cosf
 418 00c4 A4109FE5 		ldr	r1, .L13+4
 419 00c8 FEFFFFEB 		bl	__aeabi_fmul
 420 00cc FEFFFFEB 		bl	__aeabi_f2d
 421 00d0 FEFFFFEB 		bl	rint
 422 00d4 FEFFFFEB 		bl	__aeabi_d2iz
 423 00d8 003067E2 		rsb	r3, r7, #0
 424 00dc 183086E5 		str	r3, [r6, #24]
 425 00e0 0030A0E3 		mov	r3, #0
 426 00e4 203086E5 		str	r3, [r6, #32]
 427 00e8 0920A0E1 		mov	r2, r9
 428 00ec C93FA0E1 		mov	r3, r9, asr #31
 429 00f0 002072E2 		rsbs	r2, r2, #0
 430 00f4 0030E3E2 		rsc	r3, r3, #0
 431 00f8 C05FA0E1 		mov	r5, r0, asr #31
 432 00fc 920501E0 		mul	r1, r2, r5
 433 0100 924085E0 		umull	r4, r5, r2, r0
 434 0104 901321E0 		mla	r1, r0, r3, r1
 435 0108 055081E0 		add	r5, r1, r5
 436 010c 241AA0E1 		mov	r1, r4, lsr #20
 437 0110 051681E1 		orr	r1, r1, r5, asl #12
 438 0114 C75FA0E1 		mov	r5, r7, asr #31
 439 0118 241086E5 		str	r1, [r6, #36]
 440 011c 920501E0 		mul	r1, r2, r5
 441 0120 924785E0 		umull	r4, r5, r2, r7
 442 0124 971323E0 		mla	r3, r7, r3, r1
 443 0128 055083E0 		add	r5, r3, r5
 444 012c 243AA0E1 		mov	r3, r4, lsr #20
 445 0130 053683E1 		orr	r3, r3, r5, asl #12
 446 0134 283086E5 		str	r3, [r6, #40]
 447 0138 9820C3E0 		smull	r2, r3, r8, r0
 448 013c 222AA0E1 		mov	r2, r2, lsr #20
 449 0140 032682E1 		orr	r2, r2, r3, asl #12
 450 0144 302086E5 		str	r2, [r6, #48]
 451 0148 9827C3E0 		smull	r2, r3, r8, r7
 452 014c 222AA0E1 		mov	r2, r2, lsr #20
 453 0150 032682E1 		orr	r2, r2, r3, asl #12
 454 0154 1C0086E5 		str	r0, [r6, #28]
 455 0158 2C8086E5 		str	r8, [r6, #44]
 456 015c 342086E5 		str	r2, [r6, #52]
 457 0160 389086E5 		str	r9, [r6, #56]
 458 0164 F843BDE8 		ldmfd	sp!, {r3, r4, r5, r6, r7, r8, r9, lr}
 459 0168 1EFF2FE1 		bx	lr
 460              	.L14:
 461              		.align	2
 462              	.L13:
 463 016c 8096184B 		.word	1259902592
 464 0170 00008049 		.word	1233125376
 466              		.section	.text.ecef_of_lla_i,"ax",%progbits
 467              		.align	2
 468              		.global	ecef_of_lla_i
 470              	ecef_of_lla_i:
 471              		@ Function supports interworking.
 472              		@ args = 0, pretend = 0, frame = 48
 473              		@ frame_needed = 0, uses_anonymous_args = 0
 474 0000 30402DE9 		stmfd	sp!, {r4, r5, lr}
 475 0004 0040A0E1 		mov	r4, r0
 476 0008 34D04DE2 		sub	sp, sp, #52
 477 000c 000091E5 		ldr	r0, [r1]
 478 0010 0150A0E1 		mov	r5, r1
 479 0014 FEFFFFEB 		bl	__aeabi_i2d
 480 0018 0020A0E3 		mov	r2, #0
 481 001c A8309FE5 		ldr	r3, .L16
 482 0020 FEFFFFEB 		bl	__aeabi_ddiv
 483 0024 03008DE8 		stmia	sp, {r0-r1}
 484 0028 040095E5 		ldr	r0, [r5, #4]
 485 002c FEFFFFEB 		bl	__aeabi_i2d
 486 0030 0020A0E3 		mov	r2, #0
 487 0034 90309FE5 		ldr	r3, .L16
 488 0038 FEFFFFEB 		bl	__aeabi_ddiv
 489 003c 08008DE5 		str	r0, [sp, #8]
 490 0040 0C108DE5 		str	r1, [sp, #12]
 491 0044 080095E5 		ldr	r0, [r5, #8]
 492 0048 FEFFFFEB 		bl	__aeabi_i2d
 493 004c 0020A0E3 		mov	r2, #0
 494 0050 78309FE5 		ldr	r3, .L16+4
 495 0054 FEFFFFEB 		bl	__aeabi_ddiv
 496 0058 10008DE5 		str	r0, [sp, #16]
 497 005c 14108DE5 		str	r1, [sp, #20]
 498 0060 18008DE2 		add	r0, sp, #24
 499 0064 0D10A0E1 		mov	r1, sp
 500 0068 FEFFFFEB 		bl	ecef_of_lla_d
 501 006c 0020A0E3 		mov	r2, #0
 502 0070 5C309FE5 		ldr	r3, .L16+8
 503 0074 18108DE2 		add	r1, sp, #24
 504 0078 030091E8 		ldmia	r1, {r0-r1}
 505 007c FEFFFFEB 		bl	__aeabi_dmul
 506 0080 FEFFFFEB 		bl	__aeabi_d2iz
 507 0084 0020A0E3 		mov	r2, #0
 508 0088 000084E5 		str	r0, [r4]
 509 008c 40309FE5 		ldr	r3, .L16+8
 510 0090 20108DE2 		add	r1, sp, #32
 511 0094 030091E8 		ldmia	r1, {r0-r1}
 512 0098 FEFFFFEB 		bl	__aeabi_dmul
 513 009c FEFFFFEB 		bl	__aeabi_d2iz
 514 00a0 0020A0E3 		mov	r2, #0
 515 00a4 040084E5 		str	r0, [r4, #4]
 516 00a8 24309FE5 		ldr	r3, .L16+8
 517 00ac 28108DE2 		add	r1, sp, #40
 518 00b0 030091E8 		ldmia	r1, {r0-r1}
 519 00b4 FEFFFFEB 		bl	__aeabi_dmul
 520 00b8 FEFFFFEB 		bl	__aeabi_d2iz
 521 00bc 080084E5 		str	r0, [r4, #8]
 522 00c0 34D08DE2 		add	sp, sp, #52
 523              		@ sp needed
 524 00c4 3040BDE8 		ldmfd	sp!, {r4, r5, lr}
 525 00c8 1EFF2FE1 		bx	lr
 526              	.L17:
 527              		.align	2
 528              	.L16:
 529 00cc D0126341 		.word	1097011920
 530 00d0 00408F40 		.word	1083129856
 531 00d4 00005940 		.word	1079574528
 533              		.section	.text.ltp_def_from_lla_i,"ax",%progbits
 534              		.align	2
 535              		.global	ltp_def_from_lla_i
 537              	ltp_def_from_lla_i:
 538              		@ Function supports interworking.
 539              		@ args = 0, pretend = 0, frame = 0
 540              		@ frame_needed = 0, uses_anonymous_args = 0
 541 0000 F8432DE9 		stmfd	sp!, {r3, r4, r5, r6, r7, r8, r9, lr}
 542 0004 043091E5 		ldr	r3, [r1, #4]
 543 0008 103080E5 		str	r3, [r0, #16]
 544 000c 003091E5 		ldr	r3, [r1]
 545 0010 0C3080E5 		str	r3, [r0, #12]
 546 0014 083091E5 		ldr	r3, [r1, #8]
 547 0018 0060A0E1 		mov	r6, r0
 548 001c 143080E5 		str	r3, [r0, #20]
 549 0020 0C1080E2 		add	r1, r0, #12
 550 0024 FEFFFFEB 		bl	ecef_of_lla_i
 551 0028 100096E5 		ldr	r0, [r6, #16]
 552 002c FEFFFFEB 		bl	__aeabi_i2f
 553 0030 30119FE5 		ldr	r1, .L19
 554 0034 FEFFFFEB 		bl	__aeabi_fdiv
 555 0038 FEFFFFEB 		bl	sinf
 556 003c 28119FE5 		ldr	r1, .L19+4
 557 0040 FEFFFFEB 		bl	__aeabi_fmul
 558 0044 FEFFFFEB 		bl	__aeabi_f2d
 559 0048 FEFFFFEB 		bl	rint
 560 004c FEFFFFEB 		bl	__aeabi_d2iz
 561 0050 0090A0E1 		mov	r9, r0
 562 0054 100096E5 		ldr	r0, [r6, #16]
 563 0058 FEFFFFEB 		bl	__aeabi_i2f
 564 005c 04119FE5 		ldr	r1, .L19
 565 0060 FEFFFFEB 		bl	__aeabi_fdiv
 566 0064 FEFFFFEB 		bl	cosf
 567 0068 FC109FE5 		ldr	r1, .L19+4
 568 006c FEFFFFEB 		bl	__aeabi_fmul
 569 0070 FEFFFFEB 		bl	__aeabi_f2d
 570 0074 FEFFFFEB 		bl	rint
 571 0078 FEFFFFEB 		bl	__aeabi_d2iz
 572 007c 0080A0E1 		mov	r8, r0
 573 0080 0C0096E5 		ldr	r0, [r6, #12]
 574 0084 FEFFFFEB 		bl	__aeabi_i2f
 575 0088 D8109FE5 		ldr	r1, .L19
 576 008c FEFFFFEB 		bl	__aeabi_fdiv
 577 0090 FEFFFFEB 		bl	sinf
 578 0094 D0109FE5 		ldr	r1, .L19+4
 579 0098 FEFFFFEB 		bl	__aeabi_fmul
 580 009c FEFFFFEB 		bl	__aeabi_f2d
 581 00a0 FEFFFFEB 		bl	rint
 582 00a4 FEFFFFEB 		bl	__aeabi_d2iz
 583 00a8 0070A0E1 		mov	r7, r0
 584 00ac 0C0096E5 		ldr	r0, [r6, #12]
 585 00b0 FEFFFFEB 		bl	__aeabi_i2f
 586 00b4 AC109FE5 		ldr	r1, .L19
 587 00b8 FEFFFFEB 		bl	__aeabi_fdiv
 588 00bc FEFFFFEB 		bl	cosf
 589 00c0 A4109FE5 		ldr	r1, .L19+4
 590 00c4 FEFFFFEB 		bl	__aeabi_fmul
 591 00c8 FEFFFFEB 		bl	__aeabi_f2d
 592 00cc FEFFFFEB 		bl	rint
 593 00d0 FEFFFFEB 		bl	__aeabi_d2iz
 594 00d4 003067E2 		rsb	r3, r7, #0
 595 00d8 183086E5 		str	r3, [r6, #24]
 596 00dc 0030A0E3 		mov	r3, #0
 597 00e0 203086E5 		str	r3, [r6, #32]
 598 00e4 0920A0E1 		mov	r2, r9
 599 00e8 C93FA0E1 		mov	r3, r9, asr #31
 600 00ec 002072E2 		rsbs	r2, r2, #0
 601 00f0 0030E3E2 		rsc	r3, r3, #0
 602 00f4 C05FA0E1 		mov	r5, r0, asr #31
 603 00f8 920501E0 		mul	r1, r2, r5
 604 00fc 924085E0 		umull	r4, r5, r2, r0
 605 0100 901321E0 		mla	r1, r0, r3, r1
 606 0104 055081E0 		add	r5, r1, r5
 607 0108 241AA0E1 		mov	r1, r4, lsr #20
 608 010c 051681E1 		orr	r1, r1, r5, asl #12
 609 0110 C75FA0E1 		mov	r5, r7, asr #31
 610 0114 241086E5 		str	r1, [r6, #36]
 611 0118 920501E0 		mul	r1, r2, r5
 612 011c 924785E0 		umull	r4, r5, r2, r7
 613 0120 971323E0 		mla	r3, r7, r3, r1
 614 0124 055083E0 		add	r5, r3, r5
 615 0128 243AA0E1 		mov	r3, r4, lsr #20
 616 012c 053683E1 		orr	r3, r3, r5, asl #12
 617 0130 283086E5 		str	r3, [r6, #40]
 618 0134 9820C3E0 		smull	r2, r3, r8, r0
 619 0138 222AA0E1 		mov	r2, r2, lsr #20
 620 013c 032682E1 		orr	r2, r2, r3, asl #12
 621 0140 302086E5 		str	r2, [r6, #48]
 622 0144 9827C3E0 		smull	r2, r3, r8, r7
 623 0148 222AA0E1 		mov	r2, r2, lsr #20
 624 014c 032682E1 		orr	r2, r2, r3, asl #12
 625 0150 1C0086E5 		str	r0, [r6, #28]
 626 0154 2C8086E5 		str	r8, [r6, #44]
 627 0158 342086E5 		str	r2, [r6, #52]
 628 015c 389086E5 		str	r9, [r6, #56]
 629 0160 F843BDE8 		ldmfd	sp!, {r3, r4, r5, r6, r7, r8, r9, lr}
 630 0164 1EFF2FE1 		bx	lr
 631              	.L20:
 632              		.align	2
 633              	.L19:
 634 0168 8096184B 		.word	1259902592
 635 016c 00008049 		.word	1233125376
 637              		.section	.text.enu_of_lla_point_i,"ax",%progbits
 638              		.align	2
 639              		.global	enu_of_lla_point_i
 641              	enu_of_lla_point_i:
 642              		@ Function supports interworking.
 643              		@ args = 0, pretend = 0, frame = 16
 644              		@ frame_needed = 0, uses_anonymous_args = 0
 645 0000 30402DE9 		stmfd	sp!, {r4, r5, lr}
 646 0004 14D04DE2 		sub	sp, sp, #20
 647 0008 0050A0E1 		mov	r5, r0
 648 000c 0140A0E1 		mov	r4, r1
 649 0010 04008DE2 		add	r0, sp, #4
 650 0014 0210A0E1 		mov	r1, r2
 651 0018 FEFFFFEB 		bl	ecef_of_lla_i
 652 001c 0500A0E1 		mov	r0, r5
 653 0020 0410A0E1 		mov	r1, r4
 654 0024 04208DE2 		add	r2, sp, #4
 655 0028 FEFFFFEB 		bl	enu_of_ecef_point_i
 656 002c 14D08DE2 		add	sp, sp, #20
 657              		@ sp needed
 658 0030 3040BDE8 		ldmfd	sp!, {r4, r5, lr}
 659 0034 1EFF2FE1 		bx	lr
 661              		.section	.text.ned_of_lla_point_i,"ax",%progbits
 662              		.align	2
 663              		.global	ned_of_lla_point_i
 665              	ned_of_lla_point_i:
 666              		@ Function supports interworking.
 667              		@ args = 0, pretend = 0, frame = 16
 668              		@ frame_needed = 0, uses_anonymous_args = 0
 669 0000 30402DE9 		stmfd	sp!, {r4, r5, lr}
 670 0004 14D04DE2 		sub	sp, sp, #20
 671 0008 0050A0E1 		mov	r5, r0
 672 000c 0140A0E1 		mov	r4, r1
 673 0010 04008DE2 		add	r0, sp, #4
 674 0014 0210A0E1 		mov	r1, r2
 675 0018 FEFFFFEB 		bl	ecef_of_lla_i
 676 001c 0500A0E1 		mov	r0, r5
 677 0020 0410A0E1 		mov	r1, r4
 678 0024 04208DE2 		add	r2, sp, #4
 679 0028 FEFFFFEB 		bl	ned_of_ecef_point_i
 680 002c 14D08DE2 		add	sp, sp, #20
 681              		@ sp needed
 682 0030 3040BDE8 		ldmfd	sp!, {r4, r5, lr}
 683 0034 1EFF2FE1 		bx	lr
 685              		.section	.text.enu_of_lla_vect_i,"ax",%progbits
 686              		.align	2
 687              		.global	enu_of_lla_vect_i
 689              	enu_of_lla_vect_i:
 690              		@ Function supports interworking.
 691              		@ args = 0, pretend = 0, frame = 16
 692              		@ frame_needed = 0, uses_anonymous_args = 0
 693 0000 30402DE9 		stmfd	sp!, {r4, r5, lr}
 694 0004 14D04DE2 		sub	sp, sp, #20
 695 0008 0050A0E1 		mov	r5, r0
 696 000c 0140A0E1 		mov	r4, r1
 697 0010 04008DE2 		add	r0, sp, #4
 698 0014 0210A0E1 		mov	r1, r2
 699 0018 FEFFFFEB 		bl	ecef_of_lla_i
 700 001c 0500A0E1 		mov	r0, r5
 701 0020 0410A0E1 		mov	r1, r4
 702 0024 04208DE2 		add	r2, sp, #4
 703 0028 FEFFFFEB 		bl	enu_of_ecef_vect_i
 704 002c 14D08DE2 		add	sp, sp, #20
 705              		@ sp needed
 706 0030 3040BDE8 		ldmfd	sp!, {r4, r5, lr}
 707 0034 1EFF2FE1 		bx	lr
 709              		.section	.text.ned_of_lla_vect_i,"ax",%progbits
 710              		.align	2
 711              		.global	ned_of_lla_vect_i
 713              	ned_of_lla_vect_i:
 714              		@ Function supports interworking.
 715              		@ args = 0, pretend = 0, frame = 16
 716              		@ frame_needed = 0, uses_anonymous_args = 0
 717 0000 30402DE9 		stmfd	sp!, {r4, r5, lr}
 718 0004 14D04DE2 		sub	sp, sp, #20
 719 0008 0050A0E1 		mov	r5, r0
 720 000c 0140A0E1 		mov	r4, r1
 721 0010 04008DE2 		add	r0, sp, #4
 722 0014 0210A0E1 		mov	r1, r2
 723 0018 FEFFFFEB 		bl	ecef_of_lla_i
 724 001c 0500A0E1 		mov	r0, r5
 725 0020 0410A0E1 		mov	r1, r4
 726 0024 04208DE2 		add	r2, sp, #4
 727 0028 FEFFFFEB 		bl	ned_of_ecef_vect_i
 728 002c 14D08DE2 		add	sp, sp, #20
 729              		@ sp needed
 730 0030 3040BDE8 		ldmfd	sp!, {r4, r5, lr}
 731 0034 1EFF2FE1 		bx	lr
 733              		.ident	"GCC: (GNU Tools for ARM Embedded Processors) 4.8.3 20131129 (release) [ARM/embedded-4_8-br