   1              		.cpu arm7tdmi
   2              		.fpu softvfp
   3              		.eabi_attribute 20, 1
   4              		.eabi_attribute 21, 1
   5              		.eabi_attribute 23, 3
   6              		.eabi_attribute 24, 1
   7              		.eabi_attribute 25, 1
   8              		.eabi_attribute 26, 1
   9              		.eabi_attribute 30, 4
  10              		.eabi_attribute 34, 0
  11              		.eabi_attribute 18, 4
  12              		.file	"settings_arch.c"
  13              		.section	.text.flash_detect,"ax",%progbits
  14              		.align	2
  16              	flash_detect:
  17              		@ Function supports interworking.
  18              		@ args = 0, pretend = 0, frame = 32
  19              		@ frame_needed = 0, uses_anonymous_args = 0
  20 0000 30402DE9 		stmfd	sp!, {r4, r5, lr}
  21 0004 24D04DE2 		sub	sp, sp, #36
  22 0008 3630A0E3 		mov	r3, #54
  23 000c 20508DE2 		add	r5, sp, #32
  24 0010 143025E5 		str	r3, [r5, #-20]!
  25 0014 0040A0E1 		mov	r4, r0
  26 0018 FEFFFFEB 		bl	disableIRQ
  27 001c 0500A0E1 		mov	r0, r5
  28 0020 0D10A0E1 		mov	r1, sp
  29 0024 3A31E0E3 		mvn	r3, #-2147483634
  30 0028 0FE0A0E1 		mov	lr, pc
  31 002c 13FF2FE1 		bx	r3
  32 0030 FEFFFFEB 		bl	enableIRQ
  33 0034 00009DE5 		ldr	r0, [sp]
  34 0038 000050E3 		cmp	r0, #0
  35 003c 0900001A 		bne	.L3
  36 0040 2C309FE5 		ldr	r3, .L8
  37 0044 04209DE5 		ldr	r2, [sp, #4]
  38 0048 030052E1 		cmp	r2, r3
  39 004c 013AA003 		moveq	r3, #4096
  40 0050 0C308405 		streq	r3, [r4, #12]
  41 0054 1A30A003 		moveq	r3, #26
  42 0058 08308405 		streq	r3, [r4, #8]
  43 005c 1F39A003 		moveq	r3, #507904
  44 0060 00308405 		streq	r3, [r4]
  45 0064 0000E013 		mvnne	r0, #0
  46              	.L3:
  47 0068 24D08DE2 		add	sp, sp, #36
  48              		@ sp needed
  49 006c 3040BDE8 		ldmfd	sp!, {r4, r5, lr}
  50 0070 1EFF2FE1 		bx	lr
  51              	.L9:
  52              		.align	2
  53              	.L8:
  54 0074 25FF0204 		.word	67305253
  56              		.section	.text.pflash_program_array.isra.1,"ax",%progbits
  57              		.align	2
  59              	pflash_program_array.isra.1:
  60              		@ Function supports interworking.
  61              		@ args = 0, pretend = 0, frame = 32
  62              		@ frame_needed = 0, uses_anonymous_args = 0
  63 0000 70402DE9 		stmfd	sp!, {r4, r5, r6, lr}
  64 0004 3230A0E3 		mov	r3, #50
  65 0008 20D04DE2 		sub	sp, sp, #32
  66 000c 0260A0E1 		mov	r6, r2
  67 0010 0C308DE5 		str	r3, [sp, #12]
  68 0014 0150A0E1 		mov	r5, r1
  69 0018 10008DE5 		str	r0, [sp, #16]
  70 001c 14008DE5 		str	r0, [sp, #20]
  71 0020 3A41E0E3 		mvn	r4, #-2147483634
  72 0024 FEFFFFEB 		bl	disableIRQ
  73 0028 0C008DE2 		add	r0, sp, #12
  74 002c 0D10A0E1 		mov	r1, sp
  75 0030 0FE0A0E1 		mov	lr, pc
  76 0034 14FF2FE1 		bx	r4
  77 0038 FEFFFFEB 		bl	enableIRQ
  78 003c 00009DE5 		ldr	r0, [sp]
  79 0040 000050E3 		cmp	r0, #0
  80 0044 0E00001A 		bne	.L12
  81 0048 3330A0E3 		mov	r3, #51
  82 004c 0C308DE5 		str	r3, [sp, #12]
  83 0050 013CA0E3 		mov	r3, #256
  84 0054 18308DE5 		str	r3, [sp, #24]
  85 0058 30309FE5 		ldr	r3, .L14
  86 005c 10508DE5 		str	r5, [sp, #16]
  87 0060 1C308DE5 		str	r3, [sp, #28]
  88 0064 14608DE5 		str	r6, [sp, #20]
  89 0068 FEFFFFEB 		bl	disableIRQ
  90 006c 0C008DE2 		add	r0, sp, #12
  91 0070 0D10A0E1 		mov	r1, sp
  92 0074 0FE0A0E1 		mov	lr, pc
  93 0078 14FF2FE1 		bx	r4
  94 007c FEFFFFEB 		bl	enableIRQ
  95 0080 00009DE5 		ldr	r0, [sp]
  96              	.L12:
  97 0084 20D08DE2 		add	sp, sp, #32
  98              		@ sp needed
  99 0088 7040BDE8 		ldmfd	sp!, {r4, r5, r6, lr}
 100 008c 1EFF2FE1 		bx	lr
 101              	.L15:
 102              		.align	2
 103              	.L14:
 104 0090 60EA0000 		.word	60000
 106              		.section	.text.pflash_program_bytes,"ax",%progbits
 107              		.align	2
 109              	pflash_program_bytes:
 110              		@ Function supports interworking.
 111              		@ args = 0, pretend = 0, frame = 272
 112              		@ frame_needed = 0, uses_anonymous_args = 0
 113 0000 F0432DE9 		stmfd	sp!, {r4, r5, r6, r7, r8, r9, lr}
 114 0004 0380A0E1 		mov	r8, r3
 115 0008 45DF4DE2 		sub	sp, sp, #276
 116 000c 3230A0E3 		mov	r3, #50
 117 0010 10308DE5 		str	r3, [sp, #16]
 118 0014 083090E5 		ldr	r3, [r0, #8]
 119 0018 10608DE2 		add	r6, sp, #16
 120 001c 0270A0E1 		mov	r7, r2
 121 0020 14308DE5 		str	r3, [sp, #20]
 122 0024 18308DE5 		str	r3, [sp, #24]
 123 0028 0190A0E1 		mov	r9, r1
 124 002c 0040A0E1 		mov	r4, r0
 125 0030 3A51E0E3 		mvn	r5, #-2147483634
 126 0034 FEFFFFEB 		bl	disableIRQ
 127 0038 0600A0E1 		mov	r0, r6
 128 003c 04108DE2 		add	r1, sp, #4
 129 0040 0FE0A0E1 		mov	lr, pc
 130 0044 15FF2FE1 		bx	r5
 131 0048 FEFFFFEB 		bl	enableIRQ
 132 004c 04C09DE5 		ldr	ip, [sp, #4]
 133 0050 00005CE3 		cmp	ip, #0
 134 0054 1900001A 		bne	.L36
 135 0058 3430A0E3 		mov	r3, #52
 136 005c 10308DE5 		str	r3, [sp, #16]
 137 0060 083094E5 		ldr	r3, [r4, #8]
 138 0064 14308DE5 		str	r3, [sp, #20]
 139 0068 18308DE5 		str	r3, [sp, #24]
 140 006c FEFFFFEB 		bl	disableIRQ
 141 0070 0600A0E1 		mov	r0, r6
 142 0074 04108DE2 		add	r1, sp, #4
 143 0078 0FE0A0E1 		mov	lr, pc
 144 007c 15FF2FE1 		bx	r5
 145 0080 FEFFFFEB 		bl	enableIRQ
 146 0084 04C09DE5 		ldr	ip, [sp, #4]
 147 0088 00005CE3 		cmp	ip, #0
 148 008c 0B00001A 		bne	.L36
 149 0090 3530A0E3 		mov	r3, #53
 150 0094 10308DE5 		str	r3, [sp, #16]
 151 0098 083094E5 		ldr	r3, [r4, #8]
 152 009c 0600A0E1 		mov	r0, r6
 153 00a0 14308DE5 		str	r3, [sp, #20]
 154 00a4 18308DE5 		str	r3, [sp, #24]
 155 00a8 04108DE2 		add	r1, sp, #4
 156 00ac 0FE0A0E1 		mov	lr, pc
 157 00b0 15FF2FE1 		bx	r5
 158 00b4 04C09DE5 		ldr	ip, [sp, #4]
 159 00b8 00005CE3 		cmp	ip, #0
 160 00bc 0200000A 		beq	.L35
 161              	.L36:
 162 00c0 00005CE3 		cmp	ip, #0
 163 00c4 0C00A0E1 		mov	r0, ip
 164 00c8 3D00001A 		bne	.L20
 165              	.L35:
 166 00cc 0050A0E3 		mov	r5, #0
 167              	.L21:
 168 00d0 070055E1 		cmp	r5, r7
 169 00d4 1400002A 		bcs	.L24
 170 00d8 0030A0E3 		mov	r3, #0
 171              	.L25:
 172 00dc 092085E0 		add	r2, r5, r9
 173 00e0 0320D2E7 		ldrb	r2, [r2, r3]	@ zero_extendqisi2
 174 00e4 0320C6E7 		strb	r2, [r6, r3]
 175 00e8 013083E2 		add	r3, r3, #1
 176 00ec 010C53E3 		cmp	r3, #256
 177 00f0 F9FFFF1A 		bne	.L25
 178 00f4 0C3094E5 		ldr	r3, [r4, #12]
 179 00f8 001094E5 		ldr	r1, [r4]
 180 00fc 013C43E2 		sub	r3, r3, #256
 181 0100 030055E1 		cmp	r5, r3
 182 0104 080094E5 		ldr	r0, [r4, #8]
 183 0108 011085E0 		add	r1, r5, r1
 184 010c 0620A0E1 		mov	r2, r6
 185 0110 08718D05 		streq	r7, [sp, #264]
 186 0114 0C818D05 		streq	r8, [sp, #268]
 187 0118 FEFFFFEB 		bl	pflash_program_array.isra.1
 188 011c 000050E3 		cmp	r0, #0
 189 0120 2700001A 		bne	.L20
 190 0124 015C85E2 		add	r5, r5, #256
 191 0128 E8FFFFEA 		b	.L21
 192              	.L24:
 193 012c 0C3094E5 		ldr	r3, [r4, #12]
 194 0130 012C43E2 		sub	r2, r3, #256
 195 0134 020055E1 		cmp	r5, r2
 196 0138 0100009A 		bls	.L26
 197              	.L28:
 198 013c 0000A0E3 		mov	r0, #0
 199 0140 0F0000EA 		b	.L27
 200              	.L26:
 201 0144 002094E5 		ldr	r2, [r4]
 202 0148 021083E0 		add	r1, r3, r2
 203 014c 080094E5 		ldr	r0, [r4, #8]
 204 0150 011C41E2 		sub	r1, r1, #256
 205 0154 0620A0E1 		mov	r2, r6
 206 0158 08718DE5 		str	r7, [sp, #264]
 207 015c 0C818DE5 		str	r8, [sp, #268]
 208 0160 FEFFFFEB 		bl	pflash_program_array.isra.1
 209 0164 000050E3 		cmp	r0, #0
 210 0168 F3FFFF0A 		beq	.L28
 211 016c 140000EA 		b	.L20
 212              	.L29:
 213 0170 0320D0E7 		ldrb	r2, [r0, r3]	@ zero_extendqisi2
 214 0174 0930D0E7 		ldrb	r3, [r0, r9]	@ zero_extendqisi2
 215 0178 030052E1 		cmp	r2, r3
 216 017c 0D00001A 		bne	.L33
 217 0180 010080E2 		add	r0, r0, #1
 218              	.L27:
 219 0184 070050E1 		cmp	r0, r7
 220 0188 003094E5 		ldr	r3, [r4]
 221 018c F7FFFF1A 		bne	.L29
 222 0190 0C2094E5 		ldr	r2, [r4, #12]
 223 0194 033082E0 		add	r3, r2, r3
 224 0198 082013E5 		ldr	r2, [r3, #-8]
 225 019c 000052E1 		cmp	r2, r0
 226 01a0 0600001A 		bne	.L34
 227 01a4 043013E5 		ldr	r3, [r3, #-4]
 228 01a8 080053E1 		cmp	r3, r8
 229 01ac 0000A003 		moveq	r0, #0
 230 01b0 0300E013 		mvnne	r0, #3
 231 01b4 020000EA 		b	.L20
 232              	.L33:
 233 01b8 0100E0E3 		mvn	r0, #1
 234 01bc 000000EA 		b	.L20
 235              	.L34:
 236 01c0 0200E0E3 		mvn	r0, #2
 237              	.L20:
 238 01c4 45DF8DE2 		add	sp, sp, #276
 239              		@ sp needed
 240 01c8 F043BDE8 		ldmfd	sp!, {r4, r5, r6, r7, r8, r9, lr}
 241 01cc 1EFF2FE1 		bx	lr
 243              		.section	.text.persistent_write,"ax",%progbits
 244              		.align	2
 245              		.global	persistent_write
 247              	persistent_write:
 248              		@ Function supports interworking.
 249              		@ args = 0, pretend = 0, frame = 16
 250              		@ frame_needed = 0, uses_anonymous_args = 0
 251 0000 30402DE9 		stmfd	sp!, {r4, r5, lr}
 252 0004 14D04DE2 		sub	sp, sp, #20
 253 0008 0050A0E1 		mov	r5, r0
 254 000c 0D00A0E1 		mov	r0, sp
 255 0010 0140A0E1 		mov	r4, r1
 256 0014 FEFFFFEB 		bl	flash_detect
 257 0018 000050E3 		cmp	r0, #0
 258 001c 1000001A 		bne	.L41
 259 0020 0C209DE5 		ldr	r2, [sp, #12]
 260 0024 082042E2 		sub	r2, r2, #8
 261 0028 020054E1 		cmp	r4, r2
 262 002c 0E00008A 		bhi	.L43
 263 0030 000054E3 		cmp	r4, #0
 264 0034 0C00000A 		beq	.L43
 265 0038 0030A0E1 		mov	r3, r0
 266 003c 0020A0E1 		mov	r2, r0
 267              	.L40:
 268 0040 0510D2E7 		ldrb	r1, [r2, r5]	@ zero_extendqisi2
 269 0044 012082E2 		add	r2, r2, #1
 270 0048 040052E1 		cmp	r2, r4
 271 004c 013083E0 		add	r3, r3, r1
 272 0050 FAFFFF1A 		bne	.L40
 273 0054 0D00A0E1 		mov	r0, sp
 274 0058 0510A0E1 		mov	r1, r5
 275 005c FEFFFFEB 		bl	pflash_program_bytes
 276 0060 020000EA 		b	.L38
 277              	.L41:
 278 0064 0000E0E3 		mvn	r0, #0
 279 0068 000000EA 		b	.L38
 280              	.L43:
 281 006c 0100E0E3 		mvn	r0, #1
 282              	.L38:
 283 0070 14D08DE2 		add	sp, sp, #20
 284              		@ sp needed
 285 0074 3040BDE8 		ldmfd	sp!, {r4, r5, lr}
 286 0078 1EFF2FE1 		bx	lr
 288              		.section	.text.persistent_read,"ax",%progbits
 289              		.align	2
 290              		.global	persistent_read
 292              	persistent_read:
 293              		@ Function supports interworking.
 294              		@ args = 0, pretend = 0, frame = 16
 295              		@ frame_needed = 0, uses_anonymous_args = 0
 296 0000 7F402DE9 		stmfd	sp!, {r0, r1, r2, r3, r4, r5, r6, lr}
 297 0004 0050A0E1 		mov	r5, r0
 298 0008 0D00A0E1 		mov	r0, sp
 299 000c 0140A0E1 		mov	r4, r1
 300 0010 FEFFFFEB 		bl	flash_detect
 301 0014 000050E3 		cmp	r0, #0
 302 0018 1B00001A 		bne	.L50
 303 001c 0CC09DE5 		ldr	ip, [sp, #12]
 304 0020 08304CE2 		sub	r3, ip, #8
 305 0024 030054E1 		cmp	r4, r3
 306 0028 1900008A 		bhi	.L52
 307 002c 000054E3 		cmp	r4, #0
 308 0030 1700000A 		beq	.L52
 309 0034 00209DE5 		ldr	r2, [sp]
 310 0038 0CC082E0 		add	ip, r2, ip
 311 003c 08301CE5 		ldr	r3, [ip, #-8]
 312 0040 030054E1 		cmp	r4, r3
 313 0044 1400001A 		bne	.L53
 314 0048 0010A0E1 		mov	r1, r0
 315 004c 0030A0E1 		mov	r3, r0
 316              	.L48:
 317 0050 0260D3E7 		ldrb	r6, [r3, r2]	@ zero_extendqisi2
 318 0054 013083E2 		add	r3, r3, #1
 319 0058 040053E1 		cmp	r3, r4
 320 005c 061081E0 		add	r1, r1, r6
 321 0060 FAFFFF1A 		bne	.L48
 322 0064 04301CE5 		ldr	r3, [ip, #-4]
 323 0068 030051E1 		cmp	r1, r3
 324 006c 0C00001A 		bne	.L54
 325 0070 0030A0E3 		mov	r3, #0
 326              	.L49:
 327 0074 0210D3E7 		ldrb	r1, [r3, r2]	@ zero_extendqisi2
 328 0078 0510C3E7 		strb	r1, [r3, r5]
 329 007c 013083E2 		add	r3, r3, #1
 330 0080 040053E1 		cmp	r3, r4
 331 0084 FAFFFF1A 		bne	.L49
 332 0088 060000EA 		b	.L46
 333              	.L50:
 334 008c 0000E0E3 		mvn	r0, #0
 335 0090 040000EA 		b	.L46
 336              	.L52:
 337 0094 0100E0E3 		mvn	r0, #1
 338 0098 020000EA 		b	.L46
 339              	.L53:
 340 009c 0200E0E3 		mvn	r0, #2
 341 00a0 000000EA 		b	.L46
 342              	.L54:
 343 00a4 0300E0E3 		mvn	r0, #3
 344              	.L46:
 345 00a8 10D08DE2 		add	sp, sp, #16
 346              		@ sp needed
 347 00ac 7040BDE8 		ldmfd	sp!, {r4, r5, r6, lr}
 348 00b0 1EFF2FE1 		bx	lr
 350              		.ident	"GCC: (GNU Tools for ARM Embedded Processors) 4.8.3 20131129 (release) [ARM/embedded-4_8-br
DEFINED SYMBOLS
                            *ABS*:00000000 settings_arch.c
     /tmp/ccCnk1Ia.s:14     .text.flash_detect:00000000 $a
     /tmp/ccCnk1Ia.s:16     .text.flash_detect:00000000 flash_detect
     /tmp/ccCnk1Ia.s:54     .text.flash_detect:00000074 $d
     /tmp/ccCnk1Ia.s:57     .text.pflash_program_array.isra.1:00000000 $a
     /tmp/ccCnk1Ia.s:59     .text.pflash_program_array.isra.1:00000000 pflash_program_array.isra.1
     /tmp/ccCnk1Ia.s:104    .text.pflash_program_array.isra.1:00000090 $d
     /tmp/ccCnk1Ia.s:107    .text.pflash_program_bytes:00000000 $a
     /tmp/ccCnk1Ia.s:109    .text.pflash_program_bytes:00000000 pflash_program_bytes
     /tmp/ccCnk1Ia.s:244    .text.persistent_write:00000000 $a
     /tmp/ccCnk1Ia.s:247    .text.persistent_write:00000000 persistent_write
     /tmp/ccCnk1Ia.s:289    .text.persistent_read:00000000 $a
     /tmp/ccCnk1Ia.s:292    .text.persistent_read:00000000 persistent_read

UNDEFINED SYMBOLS
disableIRQ
enableIRQ
