   1              		.cpu arm7tdmi
   2              		.fpu softvfp
   3              		.eabi_attribute 20, 1
   4              		.eabi_attribute 21, 1
   5              		.eabi_attribute 23, 3
   6              		.eabi_attribute 24, 1
   7              		.eabi_attribute 25, 1
   8              		.eabi_attribute 26, 1
   9              		.eabi_attribute 30, 4
  10              		.eabi_attribute 18, 4
  11              		.file	"stabilization_attitude.c"
  12              		.section	.text.h_ctl_init,"ax",%progbits
  13              		.align	2
  14              		.global	h_ctl_init
  16              	h_ctl_init:
  17              		@ Function supports interworking.
  18              		@ args = 0, pretend = 0, frame = 0
  19              		@ frame_needed = 0, uses_anonymous_args = 0
  20              		@ link register save eliminated.
  21 0000 C4209FE5 		ldr	r2, .L2
  22 0004 0030A0E3 		mov	r3, #0
  23 0008 003082E5 		str	r3, [r2, #0]	@ float
  24 000c BC209FE5 		ldr	r2, .L2+4
  25 0010 BC109FE5 		ldr	r1, .L2+8
  26 0014 003082E5 		str	r3, [r2, #0]	@ float
  27 0018 B8209FE5 		ldr	r2, .L2+12
  28 001c 001082E5 		str	r1, [r2, #0]	@ float
  29 0020 B4109FE5 		ldr	r1, .L2+16
  30 0024 B4209FE5 		ldr	r2, .L2+20
  31 0028 001082E5 		str	r1, [r2, #0]	@ float
  32 002c B0109FE5 		ldr	r1, .L2+24
  33 0030 B0209FE5 		ldr	r2, .L2+28
  34 0034 001082E5 		str	r1, [r2, #0]	@ float
  35 0038 AC109FE5 		ldr	r1, .L2+32
  36 003c AC209FE5 		ldr	r2, .L2+36
  37 0040 001082E5 		str	r1, [r2, #0]	@ float
  38 0044 A8109FE5 		ldr	r1, .L2+40
  39 0048 0020A0E3 		mov	r2, #0
  40 004c 0020C1E5 		strb	r2, [r1, #0]
  41 0050 A0109FE5 		ldr	r1, .L2+44
  42 0054 003081E5 		str	r3, [r1, #0]	@ float
  43 0058 9C109FE5 		ldr	r1, .L2+48
  44 005c B020C1E1 		strh	r2, [r1, #0]	@ movhi
  45 0060 98109FE5 		ldr	r1, .L2+52
  46 0064 003081E5 		str	r3, [r1, #0]	@ float
  47 0068 94109FE5 		ldr	r1, .L2+56
  48 006c 003081E5 		str	r3, [r1, #0]	@ float
  49 0070 90109FE5 		ldr	r1, .L2+60
  50 0074 90009FE5 		ldr	r0, .L2+64
  51 0078 003081E5 		str	r3, [r1, #0]	@ float
  52 007c 8C109FE5 		ldr	r1, .L2+68
  53 0080 000081E5 		str	r0, [r1, #0]	@ float
  54 0084 88109FE5 		ldr	r1, .L2+72
  55 0088 003081E5 		str	r3, [r1, #0]	@ float
  56 008c 84109FE5 		ldr	r1, .L2+76
  57 0090 B020C1E1 		strh	r2, [r1, #0]	@ movhi
  58 0094 80109FE5 		ldr	r1, .L2+80
  59 0098 80209FE5 		ldr	r2, .L2+84
  60 009c 001082E5 		str	r1, [r2, #0]	@ float
  61 00a0 7C109FE5 		ldr	r1, .L2+88
  62 00a4 7C209FE5 		ldr	r2, .L2+92
  63 00a8 001082E5 		str	r1, [r2, #0]	@ float
  64 00ac 78209FE5 		ldr	r2, .L2+96
  65 00b0 78109FE5 		ldr	r1, .L2+100
  66 00b4 001082E5 		str	r1, [r2, #0]	@ float
  67 00b8 74209FE5 		ldr	r2, .L2+104
  68 00bc 003082E5 		str	r3, [r2, #0]	@ float
  69 00c0 70209FE5 		ldr	r2, .L2+108
  70 00c4 003082E5 		str	r3, [r2, #0]	@ float
  71 00c8 1EFF2FE1 		bx	lr
  72              	.L3:
  73              		.align	2
  74              	.L2:
  75 00cc 00000000 		.word	h_ctl_course_setpoint
  76 00d0 00000000 		.word	h_ctl_course_pre_bank
  77 00d4 14AEA73F 		.word	1067953684
  78 00d8 00000000 		.word	h_ctl_course_pre_bank_correction
  79 00dc 986E923F 		.word	1066561176
  80 00e0 00000000 		.word	h_ctl_course_pgain
  81 00e4 9A99993F 		.word	1067030938
  82 00e8 00000000 		.word	h_ctl_course_dgain
  83 00ec C3F5483F 		.word	1061746115
  84 00f0 00000000 		.word	h_ctl_roll_max_setpoint
  85 00f4 00000000 		.word	h_ctl_disabled
  86 00f8 00000000 		.word	h_ctl_roll_setpoint
  87 00fc 00000000 		.word	h_ctl_aileron_setpoint
  88 0100 00000000 		.word	h_ctl_aileron_of_throttle
  89 0104 00000000 		.word	h_ctl_pitch_setpoint
  90 0108 00000000 		.word	h_ctl_pitch_loop_setpoint
  91 010c 00F01E46 		.word	1176432640
  92 0110 00000000 		.word	h_ctl_pitch_pgain
  93 0114 00000000 		.word	h_ctl_pitch_dgain
  94 0118 00000000 		.word	h_ctl_elevator_setpoint
  95 011c 00004E44 		.word	1145962496
  96 0120 00000000 		.word	h_ctl_elevator_of_roll
  97 0124 00007A43 		.word	1132068864
  98 0128 00000000 		.word	h_ctl_roll_slew
  99 012c 00000000 		.word	h_ctl_roll_attitude_gain
 100 0130 0000FA45 		.word	1174011904
 101 0134 00000000 		.word	h_ctl_roll_rate_gain
 102 0138 00000000 		.word	.LANCHOR0
 104              		.global	__aeabi_fsub
 105              		.global	__aeabi_dsub
 106              		.global	__aeabi_d2f
 107              		.global	__aeabi_f2d
 108              		.global	__aeabi_dcmpgt
 109              		.global	__aeabi_dadd
 110              		.global	__aeabi_dcmplt
 111              		.global	__aeabi_fdiv
 112              		.global	__aeabi_fcmpgt
 113              		.global	__aeabi_fmul
 114              		.global	__aeabi_fadd
 115              		.global	__aeabi_fcmplt
 116              		.global	__aeabi_ddiv
 117              		.global	__aeabi_dmul
 118              		.section	.text.h_ctl_course_loop,"ax",%progbits
 119              		.align	2
 120              		.global	h_ctl_course_loop
 122              	h_ctl_course_loop:
 123              		@ Function supports interworking.
 124              		@ args = 0, pretend = 0, frame = 0
 125              		@ frame_needed = 0, uses_anonymous_args = 0
 126 0000 EC339FE5 		ldr	r3, .L48
 127 0004 000093E5 		ldr	r0, [r3, #0]	@ float
 128 0008 E8339FE5 		ldr	r3, .L48+4
 129 000c F0412DE9 		stmfd	sp!, {r4, r5, r6, r7, r8, lr}
 130 0010 001093E5 		ldr	r1, [r3, #0]	@ float
 131 0014 FEFFFFEB 		bl	__aeabi_fsub
 132 0018 050000EA 		b	.L45
 133              	.L6:
 134 001c D8239FE5 		ldr	r2, .L48+8
 135 0020 D8339FE5 		ldr	r3, .L48+12
 136 0024 0600A0E1 		mov	r0, r6
 137 0028 0710A0E1 		mov	r1, r7
 138 002c FEFFFFEB 		bl	__aeabi_dsub
 139 0030 FEFFFFEB 		bl	__aeabi_d2f
 140              	.L45:
 141 0034 0050A0E1 		mov	r5, r0
 142 0038 FEFFFFEB 		bl	__aeabi_f2d
 143 003c B8239FE5 		ldr	r2, .L48+8
 144 0040 BC339FE5 		ldr	r3, .L48+16
 145 0044 0060A0E1 		mov	r6, r0
 146 0048 0170A0E1 		mov	r7, r1
 147 004c FEFFFFEB 		bl	__aeabi_dcmpgt
 148 0050 000050E3 		cmp	r0, #0
 149 0054 F0FFFF1A 		bne	.L6
 150 0058 060000EA 		b	.L39
 151              	.L8:
 152 005c 98239FE5 		ldr	r2, .L48+8
 153 0060 98339FE5 		ldr	r3, .L48+12
 154 0064 0600A0E1 		mov	r0, r6
 155 0068 0710A0E1 		mov	r1, r7
 156 006c FEFFFFEB 		bl	__aeabi_dadd
 157 0070 FEFFFFEB 		bl	__aeabi_d2f
 158 0074 0050A0E1 		mov	r5, r0
 159              	.L39:
 160 0078 0500A0E1 		mov	r0, r5
 161 007c FEFFFFEB 		bl	__aeabi_f2d
 162 0080 74239FE5 		ldr	r2, .L48+8
 163 0084 7C339FE5 		ldr	r3, .L48+20
 164 0088 0060A0E1 		mov	r6, r0
 165 008c 0170A0E1 		mov	r7, r1
 166 0090 FEFFFFEB 		bl	__aeabi_dcmplt
 167 0094 000050E3 		cmp	r0, #0
 168 0098 EFFFFF1A 		bne	.L8
 169 009c 68639FE5 		ldr	r6, .L48+24
 170 00a0 0500A0E1 		mov	r0, r5
 171 00a4 001096E5 		ldr	r1, [r6, #0]	@ float
 172 00a8 FEFFFFEB 		bl	__aeabi_fsub
 173 00ac 005086E5 		str	r5, [r6, #0]	@ float
 174 00b0 0040A0E1 		mov	r4, r0
 175 00b4 060000EA 		b	.L9
 176              	.L10:
 177 00b8 3C239FE5 		ldr	r2, .L48+8
 178 00bc 3C339FE5 		ldr	r3, .L48+12
 179 00c0 0600A0E1 		mov	r0, r6
 180 00c4 0710A0E1 		mov	r1, r7
 181 00c8 FEFFFFEB 		bl	__aeabi_dsub
 182 00cc FEFFFFEB 		bl	__aeabi_d2f
 183 00d0 0040A0E1 		mov	r4, r0
 184              	.L9:
 185 00d4 0400A0E1 		mov	r0, r4
 186 00d8 FEFFFFEB 		bl	__aeabi_f2d
 187 00dc 18239FE5 		ldr	r2, .L48+8
 188 00e0 1C339FE5 		ldr	r3, .L48+16
 189 00e4 0060A0E1 		mov	r6, r0
 190 00e8 0170A0E1 		mov	r7, r1
 191 00ec FEFFFFEB 		bl	__aeabi_dcmpgt
 192 00f0 000050E3 		cmp	r0, #0
 193 00f4 EFFFFF1A 		bne	.L10
 194 00f8 060000EA 		b	.L40
 195              	.L12:
 196 00fc F8229FE5 		ldr	r2, .L48+8
 197 0100 F8329FE5 		ldr	r3, .L48+12
 198 0104 0600A0E1 		mov	r0, r6
 199 0108 0710A0E1 		mov	r1, r7
 200 010c FEFFFFEB 		bl	__aeabi_dadd
 201 0110 FEFFFFEB 		bl	__aeabi_d2f
 202 0114 0040A0E1 		mov	r4, r0
 203              	.L40:
 204 0118 0400A0E1 		mov	r0, r4
 205 011c FEFFFFEB 		bl	__aeabi_f2d
 206 0120 D4229FE5 		ldr	r2, .L48+8
 207 0124 DC329FE5 		ldr	r3, .L48+20
 208 0128 0060A0E1 		mov	r6, r0
 209 012c 0170A0E1 		mov	r7, r1
 210 0130 FEFFFFEB 		bl	__aeabi_dcmplt
 211 0134 000050E3 		cmp	r0, #0
 212 0138 EFFFFF1A 		bne	.L12
 213 013c CC329FE5 		ldr	r3, .L48+28
 214 0140 CC129FE5 		ldr	r1, .L48+32
 215 0144 000093E5 		ldr	r0, [r3, #0]	@ float
 216 0148 FEFFFFEB 		bl	__aeabi_fdiv
 217 014c FF15A0E3 		mov	r1, #1069547520
 218 0150 0060A0E1 		mov	r6, r0
 219 0154 FEFFFFEB 		bl	__aeabi_fcmpgt
 220 0158 000050E3 		cmp	r0, #0
 221 015c FF65A013 		movne	r6, #1069547520
 222 0160 0600001A 		bne	.L13
 223 0164 0600A0E1 		mov	r0, r6
 224 0168 FEFFFFEB 		bl	__aeabi_f2d
 225 016c A4229FE5 		ldr	r2, .L48+36
 226 0170 A4329FE5 		ldr	r3, .L48+40
 227 0174 FEFFFFEB 		bl	__aeabi_dcmplt
 228 0178 000050E3 		cmp	r0, #0
 229 017c 9C629F15 		ldrne	r6, .L48+44
 230              	.L13:
 231 0180 9C329FE5 		ldr	r3, .L48+48
 232 0184 000093E5 		ldr	r0, [r3, #0]
 233 0188 0610A0E1 		mov	r1, r6
 234 018c 020180E2 		add	r0, r0, #-2147483648
 235 0190 FEFFFFEB 		bl	__aeabi_fmul
 236 0194 8C329FE5 		ldr	r3, .L48+52
 237 0198 0060A0E1 		mov	r6, r0
 238 019c 001093E5 		ldr	r1, [r3, #0]	@ float
 239 01a0 0400A0E1 		mov	r0, r4
 240 01a4 FEFFFFEB 		bl	__aeabi_fmul
 241 01a8 0010A0E1 		mov	r1, r0
 242 01ac 0500A0E1 		mov	r0, r5
 243 01b0 FEFFFFEB 		bl	__aeabi_fadd
 244 01b4 0010A0E1 		mov	r1, r0
 245 01b8 0600A0E1 		mov	r0, r6
 246 01bc FEFFFFEB 		bl	__aeabi_fmul
 247 01c0 64329FE5 		ldr	r3, .L48+56
 248 01c4 004093E5 		ldr	r4, [r3, #0]	@ float
 249 01c8 0410A0E1 		mov	r1, r4
 250 01cc 0060A0E1 		mov	r6, r0
 251 01d0 FEFFFFEB 		bl	__aeabi_fcmpgt
 252 01d4 000050E3 		cmp	r0, #0
 253 01d8 0450A011 		movne	r5, r4
 254 01dc 0500001A 		bne	.L14
 255 01e0 025184E2 		add	r5, r4, #-2147483648
 256 01e4 0510A0E1 		mov	r1, r5
 257 01e8 0600A0E1 		mov	r0, r6
 258 01ec FEFFFFEB 		bl	__aeabi_fcmplt
 259 01f0 000050E3 		cmp	r0, #0
 260 01f4 0650A001 		moveq	r5, r6
 261              	.L14:
 262 01f8 30329FE5 		ldr	r3, .L48+60
 263 01fc 006093E5 		ldr	r6, [r3, #0]	@ float
 264 0200 0010A0E3 		mov	r1, #0
 265 0204 0600A0E1 		mov	r0, r6
 266 0208 FEFFFFEB 		bl	__aeabi_fcmpgt
 267 020c 000050E3 		cmp	r0, #0
 268 0210 0201C6E3 		bic	r0, r6, #-2147483648
 269 0214 2400000A 		beq	.L41
 270 0218 FEFFFFEB 		bl	__aeabi_f2d
 271 021c 0020A0E3 		mov	r2, #0
 272 0220 0C329FE5 		ldr	r3, .L48+64
 273 0224 FEFFFFEB 		bl	__aeabi_dsub
 274 0228 0020A0E3 		mov	r2, #0
 275 022c 04329FE5 		ldr	r3, .L48+68
 276 0230 FEFFFFEB 		bl	__aeabi_ddiv
 277 0234 0020A0E1 		mov	r2, r0
 278 0238 0130A0E1 		mov	r3, r1
 279 023c 0000A0E3 		mov	r0, #0
 280 0240 F4119FE5 		ldr	r1, .L48+72
 281 0244 FEFFFFEB 		bl	__aeabi_dsub
 282 0248 F0219FE5 		ldr	r2, .L48+76
 283 024c F0319FE5 		ldr	r3, .L48+80
 284 0250 FEFFFFEB 		bl	__aeabi_dmul
 285 0254 EC219FE5 		ldr	r2, .L48+84
 286 0258 EC319FE5 		ldr	r3, .L48+88
 287 025c FEFFFFEB 		bl	__aeabi_dadd
 288 0260 FEFFFFEB 		bl	__aeabi_d2f
 289 0264 E4619FE5 		ldr	r6, .L48+92
 290 0268 FE85A0E3 		mov	r8, #1065353216
 291 026c 000086E5 		str	r0, [r6, #0]	@ float
 292 0270 0810A0E1 		mov	r1, r8
 293 0274 0070A0E1 		mov	r7, r0
 294 0278 FEFFFFEB 		bl	__aeabi_fcmpgt
 295 027c 000050E3 		cmp	r0, #0
 296 0280 00808615 		strne	r8, [r6, #0]	@ float
 297 0284 2900001A 		bne	.L19
 298 0288 0700A0E1 		mov	r0, r7
 299 028c FEFFFFEB 		bl	__aeabi_f2d
 300 0290 B4319FE5 		ldr	r3, .L48+88
 301 0294 AC219FE5 		ldr	r2, .L48+84
 302 0298 FEFFFFEB 		bl	__aeabi_dcmplt
 303 029c 000050E3 		cmp	r0, #0
 304 02a0 AC319F15 		ldrne	r3, .L48+96
 305 02a4 00308615 		strne	r3, [r6, #0]	@ float
 306 02a8 200000EA 		b	.L19
 307              	.L41:
 308 02ac FEFFFFEB 		bl	__aeabi_f2d
 309 02b0 0020A0E3 		mov	r2, #0
 310 02b4 78319FE5 		ldr	r3, .L48+64
 311 02b8 FEFFFFEB 		bl	__aeabi_dsub
 312 02bc 0020A0E3 		mov	r2, #0
 313 02c0 70319FE5 		ldr	r3, .L48+68
 314 02c4 FEFFFFEB 		bl	__aeabi_ddiv
 315 02c8 0020A0E1 		mov	r2, r0
 316 02cc 0130A0E1 		mov	r3, r1
 317 02d0 0000A0E3 		mov	r0, #0
 318 02d4 60119FE5 		ldr	r1, .L48+72
 319 02d8 FEFFFFEB 		bl	__aeabi_dsub
 320 02dc 0020A0E3 		mov	r2, #0
 321 02e0 0030A0E3 		mov	r3, #0
 322 02e4 FEFFFFEB 		bl	__aeabi_dmul
 323 02e8 0020A0E3 		mov	r2, #0
 324 02ec 48319FE5 		ldr	r3, .L48+72
 325 02f0 FEFFFFEB 		bl	__aeabi_dadd
 326 02f4 FEFFFFEB 		bl	__aeabi_d2f
 327 02f8 50719FE5 		ldr	r7, .L48+92
 328 02fc FE65A0E3 		mov	r6, #1065353216
 329 0300 000087E5 		str	r0, [r7, #0]	@ float
 330 0304 0610A0E1 		mov	r1, r6
 331 0308 0080A0E1 		mov	r8, r0
 332 030c FEFFFFEB 		bl	__aeabi_fcmpgt
 333 0310 000050E3 		cmp	r0, #0
 334 0314 0400001A 		bne	.L46
 335              	.L43:
 336 0318 0800A0E1 		mov	r0, r8
 337 031c 0610A0E1 		mov	r1, r6
 338 0320 FEFFFFEB 		bl	__aeabi_fcmplt
 339 0324 000050E3 		cmp	r0, #0
 340 0328 0000000A 		beq	.L19
 341              	.L46:
 342 032c 006087E5 		str	r6, [r7, #0]	@ float
 343              	.L19:
 344 0330 20319FE5 		ldr	r3, .L48+100
 345 0334 006093E5 		ldr	r6, [r3, #0]	@ float
 346 0338 10319FE5 		ldr	r3, .L48+92
 347 033c 0500A0E1 		mov	r0, r5
 348 0340 001093E5 		ldr	r1, [r3, #0]	@ float
 349 0344 FEFFFFEB 		bl	__aeabi_fmul
 350 0348 0C319FE5 		ldr	r3, .L48+104
 351 034c 0050A0E1 		mov	r5, r0
 352 0350 000093E5 		ldr	r0, [r3, #0]	@ float
 353 0354 04319FE5 		ldr	r3, .L48+108
 354 0358 001093E5 		ldr	r1, [r3, #0]	@ float
 355 035c FEFFFFEB 		bl	__aeabi_fmul
 356 0360 0010A0E1 		mov	r1, r0
 357 0364 0500A0E1 		mov	r0, r5
 358 0368 FEFFFFEB 		bl	__aeabi_fadd
 359 036c 0610A0E1 		mov	r1, r6
 360 0370 FEFFFFEB 		bl	__aeabi_fsub
 361 0374 E8309FE5 		ldr	r3, .L48+112
 362 0378 005093E5 		ldr	r5, [r3, #0]	@ float
 363 037c 0510A0E1 		mov	r1, r5
 364 0380 0070A0E1 		mov	r7, r0
 365 0384 FEFFFFEB 		bl	__aeabi_fcmpgt
 366 0388 000050E3 		cmp	r0, #0
 367 038c 0500001A 		bne	.L24
 368 0390 025185E2 		add	r5, r5, #-2147483648
 369 0394 0510A0E1 		mov	r1, r5
 370 0398 0700A0E1 		mov	r0, r7
 371 039c FEFFFFEB 		bl	__aeabi_fcmplt
 372 03a0 000050E3 		cmp	r0, #0
 373 03a4 0750A001 		moveq	r5, r7
 374              	.L24:
 375 03a8 0510A0E1 		mov	r1, r5
 376 03ac 0600A0E1 		mov	r0, r6
 377 03b0 FEFFFFEB 		bl	__aeabi_fadd
 378 03b4 9C509FE5 		ldr	r5, .L48+100
 379 03b8 0410A0E1 		mov	r1, r4
 380 03bc 000085E5 		str	r0, [r5, #0]	@ float
 381 03c0 0060A0E1 		mov	r6, r0
 382 03c4 FEFFFFEB 		bl	__aeabi_fcmpgt
 383 03c8 000050E3 		cmp	r0, #0
 384 03cc 0500001A 		bne	.L47
 385              	.L44:
 386 03d0 024184E2 		add	r4, r4, #-2147483648
 387 03d4 0600A0E1 		mov	r0, r6
 388 03d8 0410A0E1 		mov	r1, r4
 389 03dc FEFFFFEB 		bl	__aeabi_fcmplt
 390 03e0 000050E3 		cmp	r0, #0
 391 03e4 0000000A 		beq	.L4
 392              	.L47:
 393 03e8 004085E5 		str	r4, [r5, #0]	@ float
 394              	.L4:
 395 03ec F041BDE8 		ldmfd	sp!, {r4, r5, r6, r7, r8, lr}
 396 03f0 1EFF2FE1 		bx	lr
 397              	.L49:
 398              		.align	2
 399              	.L48:
 400 03f4 00000000 		.word	estimator_hspeed_dir
 401 03f8 00000000 		.word	h_ctl_course_setpoint
 402 03fc 182D4454 		.word	1413754136
 403 0400 FB211940 		.word	1075388923
 404 0404 FB210940 		.word	1074340347
 405 0408 FB2109C0 		.word	-1073143301
 406 040c 00000000 		.word	.LANCHOR1
 407 0410 00000000 		.word	estimator_hspeed_mod
 408 0414 00009041 		.word	1099956224
 409 0418 1F85EB51 		.word	1374389535
 410 041c B81EE53F 		.word	1071980216
 411 0420 C3F5283F 		.word	1059648963
 412 0424 00000000 		.word	h_ctl_course_pgain
 413 0428 00000000 		.word	h_ctl_course_dgain
 414 042c 00000000 		.word	h_ctl_roll_max_setpoint
 415 0430 00000000 		.word	v_ctl_altitude_error
 416 0434 00002040 		.word	1075838976
 417 0438 00002440 		.word	1076101120
 418 043c 0000F03F 		.word	1072693248
 419 0440 98999999 		.word	-1717986920
 420 0444 9999C93F 		.word	1070176665
 421 0448 9A999999 		.word	-1717986918
 422 044c 9999E93F 		.word	1072273817
 423 0450 00000000 		.word	.LANCHOR0
 424 0454 CDCC4C3F 		.word	1061997773
 425 0458 00000000 		.word	h_ctl_roll_setpoint
 426 045c 00000000 		.word	h_ctl_course_pre_bank_correction
 427 0460 00000000 		.word	h_ctl_course_pre_bank
 428 0464 00000000 		.word	h_ctl_roll_slew
 430              		.global	__aeabi_i2f
 431              		.global	__aeabi_f2iz
 432              		.section	.text.h_ctl_attitude_loop,"ax",%progbits
 433              		.align	2
 434              		.global	h_ctl_attitude_loop
 436              	h_ctl_attitude_loop:
 437              		@ Function supports interworking.
 438              		@ args = 0, pretend = 0, frame = 0
 439              		@ frame_needed = 0, uses_anonymous_args = 0
 440 0000 F8432DE9 		stmfd	sp!, {r3, r4, r5, r6, r7, r8, r9, lr}
 441 0004 10339FE5 		ldr	r3, .L70
 442 0008 0030D3E5 		ldrb	r3, [r3, #0]	@ zero_extendqisi2
 443 000c 000053E3 		cmp	r3, #0
 444 0010 BF00001A 		bne	.L50
 445 0014 04339FE5 		ldr	r3, .L70+4
 446 0018 005093E5 		ldr	r5, [r3, #0]	@ float
 447 001c 00339FE5 		ldr	r3, .L70+8
 448 0020 0500A0E1 		mov	r0, r5
 449 0024 001093E5 		ldr	r1, [r3, #0]	@ float
 450 0028 FEFFFFEB 		bl	__aeabi_fsub
 451 002c F4329FE5 		ldr	r3, .L70+12
 452 0030 001093E5 		ldr	r1, [r3, #0]	@ float
 453 0034 FEFFFFEB 		bl	__aeabi_fmul
 454 0038 EC329FE5 		ldr	r3, .L70+16
 455 003c 0040A0E1 		mov	r4, r0
 456 0040 000093E5 		ldr	r0, [r3, #0]	@ float
 457 0044 E4329FE5 		ldr	r3, .L70+20
 458 0048 001093E5 		ldr	r1, [r3, #0]	@ float
 459 004c FEFFFFEB 		bl	__aeabi_fmul
 460 0050 0010A0E1 		mov	r1, r0
 461 0054 0400A0E1 		mov	r0, r4
 462 0058 FEFFFFEB 		bl	__aeabi_fadd
 463 005c D0329FE5 		ldr	r3, .L70+24
 464 0060 0040A0E1 		mov	r4, r0
 465 0064 F000D3E1 		ldrsh	r0, [r3, #0]
 466 0068 FEFFFFEB 		bl	__aeabi_i2f
 467 006c C4329FE5 		ldr	r3, .L70+28
 468 0070 001093E5 		ldr	r1, [r3, #0]	@ float
 469 0074 FEFFFFEB 		bl	__aeabi_fmul
 470 0078 0010A0E1 		mov	r1, r0
 471 007c 0400A0E1 		mov	r0, r4
 472 0080 FEFFFFEB 		bl	__aeabi_fadd
 473 0084 B0129FE5 		ldr	r1, .L70+32
 474 0088 0040A0E1 		mov	r4, r0
 475 008c FEFFFFEB 		bl	__aeabi_fcmplt
 476 0090 000050E3 		cmp	r0, #0
 477 0094 A4029F15 		ldrne	r0, .L70+36
 478 0098 0900001A 		bne	.L52
 479 009c 0400A0E1 		mov	r0, r4
 480 00a0 9C129FE5 		ldr	r1, .L70+40
 481 00a4 FEFFFFEB 		bl	__aeabi_fcmpgt
 482 00a8 000050E3 		cmp	r0, #0
 483 00ac 960DA013 		movne	r0, #9600
 484 00b0 0300001A 		bne	.L52
 485 00b4 0400A0E1 		mov	r0, r4
 486 00b8 FEFFFFEB 		bl	__aeabi_f2iz
 487 00bc 0008A0E1 		mov	r0, r0, asl #16
 488 00c0 2008A0E1 		mov	r0, r0, lsr #16
 489              	.L52:
 490 00c4 7C629FE5 		ldr	r6, .L70+44
 491 00c8 7C329FE5 		ldr	r3, .L70+48
 492 00cc 0040A0E3 		mov	r4, #0
 493 00d0 B000C3E1 		strh	r0, [r3, #0]	@ movhi
 494 00d4 0410A0E1 		mov	r1, r4
 495 00d8 000096E5 		ldr	r0, [r6, #0]	@ float
 496 00dc FEFFFFEB 		bl	__aeabi_fcmplt
 497 00e0 68329FE5 		ldr	r3, .L70+52
 498 00e4 000050E3 		cmp	r0, #0
 499 00e8 00408615 		strne	r4, [r6, #0]	@ float
 500 00ec 004093E5 		ldr	r4, [r3, #0]	@ float
 501 00f0 5C329FE5 		ldr	r3, .L70+56
 502 00f4 000093E5 		ldr	r0, [r3, #0]	@ float
 503 00f8 FEFFFFEB 		bl	__aeabi_f2d
 504 00fc 0080A0E1 		mov	r8, r0
 505 0100 0190A0E1 		mov	r9, r1
 506 0104 000096E5 		ldr	r0, [r6, #0]	@ float
 507 0108 0410A0E1 		mov	r1, r4
 508 010c FEFFFFEB 		bl	__aeabi_fdiv
 509 0110 FEFFFFEB 		bl	__aeabi_f2d
 510 0114 0060A0E1 		mov	r6, r0
 511 0118 0201C5E3 		bic	r0, r5, #-2147483648
 512 011c 0170A0E1 		mov	r7, r1
 513 0120 FEFFFFEB 		bl	__aeabi_f2d
 514 0124 0020A0E1 		mov	r2, r0
 515 0128 0130A0E1 		mov	r3, r1
 516 012c 0600A0E1 		mov	r0, r6
 517 0130 0710A0E1 		mov	r1, r7
 518 0134 FEFFFFEB 		bl	__aeabi_dmul
 519 0138 0020A0E1 		mov	r2, r0
 520 013c 0130A0E1 		mov	r3, r1
 521 0140 0800A0E1 		mov	r0, r8
 522 0144 0910A0E1 		mov	r1, r9
 523 0148 FEFFFFEB 		bl	__aeabi_dadd
 524 014c FEFFFFEB 		bl	__aeabi_d2f
 525 0150 00329FE5 		ldr	r3, .L70+60
 526 0154 000083E5 		str	r0, [r3, #0]	@ float
 527 0158 FC319FE5 		ldr	r3, .L70+64
 528 015c 0010A0E1 		mov	r1, r0
 529 0160 000093E5 		ldr	r0, [r3, #0]	@ float
 530 0164 FEFFFFEB 		bl	__aeabi_fsub
 531 0168 F0619FE5 		ldr	r6, .L70+68
 532 016c 001096E5 		ldr	r1, [r6, #0]	@ float
 533 0170 0050A0E1 		mov	r5, r0
 534 0174 FEFFFFEB 		bl	__aeabi_fsub
 535 0178 E4319FE5 		ldr	r3, .L70+72
 536 017c 005086E5 		str	r5, [r6, #0]	@ float
 537 0180 001093E5 		ldr	r1, [r3, #0]	@ float
 538 0184 FEFFFFEB 		bl	__aeabi_fmul
 539 0188 0010A0E1 		mov	r1, r0
 540 018c 0500A0E1 		mov	r0, r5
 541 0190 FEFFFFEB 		bl	__aeabi_fadd
 542 0194 024184E2 		add	r4, r4, #-2147483648
 543 0198 0010A0E1 		mov	r1, r0
 544 019c 0400A0E1 		mov	r0, r4
 545 01a0 FEFFFFEB 		bl	__aeabi_fmul
 546 01a4 BC319FE5 		ldr	r3, .L70+76
 547 01a8 004093E5 		ldr	r4, [r3, #0]	@ float
 548 01ac B8319FE5 		ldr	r3, .L70+80
 549 01b0 0410A0E1 		mov	r1, r4
 550 01b4 0060A0E1 		mov	r6, r0
 551 01b8 000093E5 		ldr	r0, [r3, #0]	@ float
 552 01bc FEFFFFEB 		bl	__aeabi_fsub
 553 01c0 0010A0E3 		mov	r1, #0
 554 01c4 0050A0E1 		mov	r5, r0
 555 01c8 FEFFFFEB 		bl	__aeabi_fcmpgt
 556 01cc 000050E3 		cmp	r0, #0
 557 01d0 0E00000A 		beq	.L68
 558 01d4 0410A0E1 		mov	r1, r4
 559 01d8 FE05A0E3 		mov	r0, #1065353216
 560 01dc FEFFFFEB 		bl	__aeabi_fsub
 561 01e0 0040A0E1 		mov	r4, r0
 562 01e4 FEFFFFEB 		bl	__aeabi_f2d
 563 01e8 80319FE5 		ldr	r3, .L70+84
 564 01ec 80219FE5 		ldr	r2, .L70+88
 565 01f0 FEFFFFEB 		bl	__aeabi_dcmpgt
 566 01f4 000050E3 		cmp	r0, #0
 567 01f8 78419F05 		ldreq	r4, .L70+92
 568 01fc 0500A0E1 		mov	r0, r5
 569 0200 0410A0E1 		mov	r1, r4
 570 0204 FEFFFFEB 		bl	__aeabi_fdiv
 571 0208 6C319FE5 		ldr	r3, .L70+96
 572 020c 0A0000EA 		b	.L69
 573              	.L68:
 574 0210 0400A0E1 		mov	r0, r4
 575 0214 FEFFFFEB 		bl	__aeabi_f2d
 576 0218 50319FE5 		ldr	r3, .L70+84
 577 021c 50219FE5 		ldr	r2, .L70+88
 578 0220 FEFFFFEB 		bl	__aeabi_dcmpgt
 579 0224 000050E3 		cmp	r0, #0
 580 0228 48419F05 		ldreq	r4, .L70+92
 581 022c 020185E2 		add	r0, r5, #-2147483648
 582 0230 0410A0E1 		mov	r1, r4
 583 0234 FEFFFFEB 		bl	__aeabi_fdiv
 584 0238 40319FE5 		ldr	r3, .L70+100
 585              	.L69:
 586 023c 001093E5 		ldr	r1, [r3, #0]	@ float
 587 0240 FEFFFFEB 		bl	__aeabi_fmul
 588 0244 34319FE5 		ldr	r3, .L70+100
 589 0248 0050A0E1 		mov	r5, r0
 590 024c 000093E5 		ldr	r0, [r3, #0]	@ float
 591 0250 24319FE5 		ldr	r3, .L70+96
 592 0254 001093E5 		ldr	r1, [r3, #0]	@ float
 593 0258 FEFFFFEB 		bl	__aeabi_fsub
 594 025c 20119FE5 		ldr	r1, .L70+104
 595 0260 FEFFFFEB 		bl	__aeabi_fdiv
 596 0264 1C319FE5 		ldr	r3, .L70+108
 597 0268 008093E5 		ldr	r8, [r3, #0]	@ float
 598 026c 0070A0E1 		mov	r7, r0
 599 0270 0710A0E1 		mov	r1, r7
 600 0274 0800A0E1 		mov	r0, r8
 601 0278 FEFFFFEB 		bl	__aeabi_fadd
 602 027c 0040A0E1 		mov	r4, r0
 603 0280 0410A0E1 		mov	r1, r4
 604 0284 0500A0E1 		mov	r0, r5
 605 0288 FEFFFFEB 		bl	__aeabi_fcmpgt
 606 028c 000050E3 		cmp	r0, #0
 607 0290 0800001A 		bne	.L60
 608 0294 0710A0E1 		mov	r1, r7
 609 0298 0800A0E1 		mov	r0, r8
 610 029c FEFFFFEB 		bl	__aeabi_fsub
 611 02a0 0040A0E1 		mov	r4, r0
 612 02a4 0410A0E1 		mov	r1, r4
 613 02a8 0500A0E1 		mov	r0, r5
 614 02ac FEFFFFEB 		bl	__aeabi_fcmplt
 615 02b0 000050E3 		cmp	r0, #0
 616 02b4 0540A001 		moveq	r4, r5
 617              	.L60:
 618 02b8 C8309FE5 		ldr	r3, .L70+108
 619 02bc 0410A0E1 		mov	r1, r4
 620 02c0 004083E5 		str	r4, [r3, #0]	@ float
 621 02c4 0600A0E1 		mov	r0, r6
 622 02c8 FEFFFFEB 		bl	__aeabi_fadd
 623 02cc 68109FE5 		ldr	r1, .L70+32
 624 02d0 0040A0E1 		mov	r4, r0
 625 02d4 FEFFFFEB 		bl	__aeabi_fcmplt
 626 02d8 000050E3 		cmp	r0, #0
 627 02dc 5C009F15 		ldrne	r0, .L70+36
 628 02e0 0900001A 		bne	.L61
 629 02e4 0400A0E1 		mov	r0, r4
 630 02e8 54109FE5 		ldr	r1, .L70+40
 631 02ec FEFFFFEB 		bl	__aeabi_fcmpgt
 632 02f0 000050E3 		cmp	r0, #0
 633 02f4 960DA013 		movne	r0, #9600
 634 02f8 0300001A 		bne	.L61
 635 02fc 0400A0E1 		mov	r0, r4
 636 0300 FEFFFFEB 		bl	__aeabi_f2iz
 637 0304 0008A0E1 		mov	r0, r0, asl #16
 638 0308 2008A0E1 		mov	r0, r0, lsr #16
 639              	.L61:
 640 030c 78309FE5 		ldr	r3, .L70+112
 641 0310 B000C3E1 		strh	r0, [r3, #0]	@ movhi
 642              	.L50:
 643 0314 F843BDE8 		ldmfd	sp!, {r3, r4, r5, r6, r7, r8, r9, lr}
 644 0318 1EFF2FE1 		bx	lr
 645              	.L71:
 646              		.align	2
 647              	.L70:
 648 031c 00000000 		.word	h_ctl_disabled
 649 0320 00000000 		.word	estimator_phi
 650 0324 00000000 		.word	h_ctl_roll_setpoint
 651 0328 00000000 		.word	h_ctl_roll_attitude_gain
 652 032c 00000000 		.word	h_ctl_roll_rate_gain
 653 0330 00000000 		.word	estimator_p
 654 0334 00000000 		.word	v_ctl_throttle_setpoint
 655 0338 00000000 		.word	h_ctl_aileron_of_throttle
 656 033c 000016C6 		.word	-971636736
 657 0340 80DA0000 		.word	55936
 658 0344 00001646 		.word	1175846912
 659 0348 00000000 		.word	h_ctl_elevator_of_roll
 660 034c 00000000 		.word	h_ctl_aileron_setpoint
 661 0350 00000000 		.word	h_ctl_pitch_pgain
 662 0354 00000000 		.word	h_ctl_pitch_setpoint
 663 0358 00000000 		.word	h_ctl_pitch_loop_setpoint
 664 035c 00000000 		.word	estimator_theta
 665 0360 00000000 		.word	.LANCHOR2
 666 0364 00000000 		.word	h_ctl_pitch_dgain
 667 0368 00000000 		.word	v_ctl_auto_throttle_nominal_cruise_throttle
 668 036c 00000000 		.word	v_ctl_auto_throttle_cruise_throttle
 669 0370 9999B93F 		.word	1069128089
 670 0374 9A999999 		.word	-1717986918
 671 0378 CDCCCC3D 		.word	1036831949
 672 037c 00000000 		.word	.LANCHOR3
 673 0380 00000000 		.word	.LANCHOR4
 674 0384 0000A042 		.word	1117782016
 675 0388 00000000 		.word	.LANCHOR5
 676 038c 00000000 		.word	h_ctl_elevator_setpoint
 678              		.global	v_ctl_auto_throttle_dash_trim
 679              		.global	v_ctl_auto_throttle_loiter_trim
 680              		.comm	h_ctl_roll_rate_gain,4,4
 681              		.comm	h_ctl_roll_attitude_gain,4,4
 682              		.comm	h_ctl_elevator_of_roll,4,4
 683              		.comm	h_ctl_aileron_of_throttle,4,4
 684              		.comm	h_ctl_elevator_setpoint,2,2
 685              		.comm	h_ctl_pitch_dgain,4,4
 686              		.comm	h_ctl_pitch_pgain,4,4
 687              		.comm	h_ctl_pitch_loop_setpoint,4,4
 688              		.comm	h_ctl_pitch_setpoint,4,4
 689              		.comm	h_ctl_roll_slew,4,4
 690              		.comm	h_ctl_aileron_setpoint,2,2
 691              		.comm	h_ctl_roll_pgain,4,4
 692              		.comm	h_ctl_roll_setpoint,4,4
 693              		.comm	h_ctl_auto1_rate,1,1
 694              		.comm	h_ctl_disabled,1,1
 695              		.comm	h_ctl_roll_max_setpoint,4,4
 696              		.comm	h_ctl_course_dgain,4,4
 697              		.comm	h_ctl_course_pgain,4,4
 698              		.comm	h_ctl_course_pre_bank_correction,4,4
 699              		.comm	h_ctl_course_pre_bank,4,4
 700              		.comm	h_ctl_course_setpoint,4,4
 701              		.global	route_ap_time
 702              		.section	.bss.last_elevator_trim.3022,"aw",%nobits
 703              		.align	2
 704              		.set	.LANCHOR5,. + 0
 707              	last_elevator_trim.3022:
 708 0000 00000000 		.space	4
 709              		.section	.data.v_ctl_auto_throttle_dash_trim,"aw",%progbits
 710              		.align	2
 711              		.set	.LANCHOR3,. + 0
 714              	v_ctl_auto_throttle_dash_trim:
 715 0000 00007AC4 		.word	-998637568
 716              		.section	.bss.last_err.3031,"aw",%nobits
 717              		.align	2
 718              		.set	.LANCHOR2,. + 0
 721              	last_err.3031:
 722 0000 00000000 		.space	4
 723              		.section	.bss.last_err.2990,"aw",%nobits
 724              		.align	2
 725              		.set	.LANCHOR1,. + 0
 728              	last_err.2990:
 729 0000 00000000 		.space	4
 730              		.section	.bss.route_ap_time,"aw",%nobits
 733              	route_ap_time:
 734 0000 00       		.space	1
 735              		.section	.data.v_ctl_auto_throttle_loiter_trim,"aw",%progbits
 736              		.align	2
 737              		.set	.LANCHOR4,. + 0
 740              	v_ctl_auto_throttle_loiter_trim:
 741 0000 0080BB44 		.word	1153138688
 742              		.section	.bss.nav_ratio,"aw",%nobits
 743              		.align	2
 744              		.set	.LANCHOR0,. + 0
 747              	nav_ratio:
 748 0000 00000000 		.space	4
 749              		.ident	"GCC: (Linaro GCC 4.6-2011.09-1) 4.6.2 20110908 (prerelease)"