   1              		.cpu arm7tdmi
   2              		.fpu softvfp
   3              		.eabi_attribute 20, 1
   4              		.eabi_attribute 21, 1
   5              		.eabi_attribute 23, 3
   6              		.eabi_attribute 24, 1
   7              		.eabi_attribute 25, 1
   8              		.eabi_attribute 26, 1
   9              		.eabi_attribute 30, 4
  10              		.eabi_attribute 34, 0
  11              		.eabi_attribute 18, 4
  12              		.file	"sys_time_arch.c"
  13              		.section	.text.TIMER0_ISR,"ax",%progbits
  14              		.align	2
  15              		.global	TIMER0_ISR
  17              	TIMER0_ISR:
  18              		@ Function supports interworking.
  19              		@ Naked Function: prologue and epilogue provided by programmer.
  20              		@ args = 0, pretend = 0, frame = 0
  21              		@ frame_needed = 0, uses_anonymous_args = 0
  22              	@ 155 "arch/lpc21/mcu_periph/sys_time_arch.c" 1
  23 0000 04E04EE2 		 sub   lr, lr,#4
  24 0004 FF5F2DE9 	 stmfd sp!,{r0-r12,lr}
  25 0008 00104FE1 	 mrs   r1, spsr
  26 000c 02002DE9 	 stmfd sp!,{r1}
  27              	@ 0 "" 2
  28              	.L12:
  29 0010 98319FE5 		ldr	r3, .L23
  30 0014 002093E5 		ldr	r2, [r3]
  31 0018 092012E2 		ands	r2, r2, #9
  32 001c 5E00000A 		beq	.L22
  33 0020 002093E5 		ldr	r2, [r3]
  34 0024 010012E3 		tst	r2, #1
  35 0028 3A00000A 		beq	.L3
  36 002c 182093E5 		ldr	r2, [r3, #24]
  37 0030 3D2A82E2 		add	r2, r2, #249856
  38 0034 8F2082E2 		add	r2, r2, #143
  39 0038 182083E5 		str	r2, [r3, #24]
  40 003c 70319FE5 		ldr	r3, .L23+4
  41 0040 082093E5 		ldr	r2, [r3, #8]
  42 0044 012082E2 		add	r2, r2, #1
  43 0048 082083E5 		str	r2, [r3, #8]
  44 004c 042093E5 		ldr	r2, [r3, #4]
  45 0050 3D2A82E2 		add	r2, r2, #249856
  46 0054 902082E2 		add	r2, r2, #144
  47 0058 042083E5 		str	r2, [r3, #4]
  48 005c 54219FE5 		ldr	r2, .L23+8
  49 0060 041093E5 		ldr	r1, [r3, #4]
  50 0064 020051E1 		cmp	r1, r2
  51 0068 0360A0E1 		mov	r6, r3
  52 006c 0C00009A 		bls	.L4
  53 0070 041093E5 		ldr	r1, [r3, #4]
  54 0074 40219FE5 		ldr	r2, .L23+12
  55 0078 022081E0 		add	r2, r1, r2
  56 007c 042083E5 		str	r2, [r3, #4]
  57 0080 002093E5 		ldr	r2, [r3]
  58 0084 012082E2 		add	r2, r2, #1
  59 0088 002083E5 		str	r2, [r3]
  60 008c 2C319FE5 		ldr	r3, .L23+16
  61 0090 102093E5 		ldr	r2, [r3, #16]
  62 0094 020812E3 		tst	r2, #131072
  63 0098 0228A0E3 		mov	r2, #131072
  64 009c 1C208315 		strne	r2, [r3, #28]
  65 00a0 14208305 		streq	r2, [r3, #20]
  66              	.L4:
  67 00a4 08419FE5 		ldr	r4, .L23+4
  68 00a8 0050A0E3 		mov	r5, #0
  69              	.L10:
  70 00ac 0C30D4E5 		ldrb	r3, [r4, #12]	@ zero_extendqisi2
  71 00b0 000053E3 		cmp	r3, #0
  72 00b4 1000000A 		beq	.L7
  73 00b8 082096E5 		ldr	r2, [r6, #8]
  74 00bc 183094E5 		ldr	r3, [r4, #24]
  75 00c0 030052E1 		cmp	r2, r3
  76 00c4 0C00003A 		bcc	.L7
  77 00c8 1C2094E5 		ldr	r2, [r4, #28]
  78 00cc 033082E0 		add	r3, r2, r3
  79 00d0 183084E5 		str	r3, [r4, #24]
  80 00d4 D8309FE5 		ldr	r3, .L23+4
  81 00d8 1420A0E3 		mov	r2, #20
  82 00dc 923523E0 		mla	r3, r2, r5, r3
  83 00e0 0120A0E3 		mov	r2, #1
  84 00e4 1420C3E5 		strb	r2, [r3, #20]
  85 00e8 103094E5 		ldr	r3, [r4, #16]
  86 00ec 000053E3 		cmp	r3, #0
  87 00f0 FF000512 		andne	r0, r5, #255
  88 00f4 0FE0A011 		movne	lr, pc
  89 00f8 13FF2F11 		bxne	r3
  90              	.L7:
  91 00fc 015085E2 		add	r5, r5, #1
  92 0100 080055E3 		cmp	r5, #8
  93 0104 144084E2 		add	r4, r4, #20
  94 0108 E7FFFF1A 		bne	.L10
  95 010c 9C309FE5 		ldr	r3, .L23
  96 0110 0120A0E3 		mov	r2, #1
  97 0114 002083E5 		str	r2, [r3]
  98              	.L3:
  99 0118 90309FE5 		ldr	r3, .L23
 100 011c 003093E5 		ldr	r3, [r3]
 101 0120 080013E3 		tst	r3, #8
 102 0124 B9FFFF0A 		beq	.L12
 103 0128 94209FE5 		ldr	r2, .L23+20
 104 012c 0030D2E5 		ldrb	r3, [r2]	@ zero_extendqisi2
 105 0130 090053E3 		cmp	r3, #9
 106 0134 0800009A 		bls	.L13
 107 0138 80309FE5 		ldr	r3, .L23+16
 108 013c 141093E5 		ldr	r1, [r3, #20]
 109 0140 011681E3 		orr	r1, r1, #1048576
 110 0144 141083E5 		str	r1, [r3, #20]
 111 0148 0010A0E3 		mov	r1, #0
 112 014c 0010C2E5 		strb	r1, [r2]
 113 0150 1C1093E5 		ldr	r1, [r3, #28]
 114 0154 011681E3 		orr	r1, r1, #1048576
 115 0158 1C1083E5 		str	r1, [r3, #28]
 116              	.L13:
 117 015c 0010D2E5 		ldrb	r1, [r2]	@ zero_extendqisi2
 118 0160 48309FE5 		ldr	r3, .L23
 119 0164 5C409FE5 		ldr	r4, .L23+24
 120 0168 81C0A0E1 		mov	ip, r1, asl #1
 121 016c 240093E5 		ldr	r0, [r3, #36]
 122 0170 BCC094E1 		ldrh	ip, [r4, ip]
 123 0174 00008CE0 		add	r0, ip, r0
 124 0178 240083E5 		str	r0, [r3, #36]
 125 017c 3C0093E5 		ldr	r0, [r3, #60]
 126 0180 011081E2 		add	r1, r1, #1
 127 0184 0800C0E3 		bic	r0, r0, #8
 128 0188 3C0083E5 		str	r0, [r3, #60]
 129 018c 0010C2E5 		strb	r1, [r2]
 130 0190 0820A0E3 		mov	r2, #8
 131 0194 002083E5 		str	r2, [r3]
 132 0198 9CFFFFEA 		b	.L12
 133              	.L22:
 134 019c 0030E0E3 		mvn	r3, #0
 135 01a0 CF2F03E5 		str	r2, [r3, #-4047]
 136              	@ 224 "arch/lpc21/mcu_periph/sys_time_arch.c" 1
 137 01a4 0200BDE8 		 ldmfd sp!,{r1}
 138 01a8 01F061E1 	 msr   spsr_c,r1
 139 01ac FF9FFDE8 	 ldmfd sp!,{r0-r12,pc}^
 140              	@ 0 "" 2
 141              	.L24:
 142              		.align	2
 143              	.L23:
 144 01b0 004000E0 		.word	-536854528
 145 01b4 00000000 		.word	sys_time
 146 01b8 BFE1E400 		.word	14999999
 147 01bc 401E1BFF 		.word	-15000000
 148 01c0 008002E0 		.word	-536707072
 149 01c4 00000000 		.word	servos_4017_idx
 150 01c8 00000000 		.word	servos_values
 152              		.section	.text.sys_time_arch_init,"ax",%progbits
 153              		.align	2
 154              		.global	sys_time_arch_init
 156              	sys_time_arch_init:
 157              		@ Function supports interworking.
 158              		@ args = 0, pretend = 0, frame = 0
 159              		@ frame_needed = 0, uses_anonymous_args = 0
 160              		@ link register save eliminated.
 161 0000 54309FE5 		ldr	r3, .L26
 162 0004 0220A0E3 		mov	r2, #2
 163 0008 042083E5 		str	r2, [r3, #4]
 164 000c 0110A0E3 		mov	r1, #1
 165 0010 0020A0E3 		mov	r2, #0
 166 0014 0C2083E5 		str	r2, [r3, #12]
 167 0018 141083E5 		str	r1, [r3, #20]
 168 001c 282083E5 		str	r2, [r3, #40]
 169 0020 3C2083E5 		str	r2, [r3, #60]
 170 0024 34209FE5 		ldr	r2, .L26+4
 171 0028 182083E5 		str	r2, [r3, #24]
 172 002c 041083E5 		str	r1, [r3, #4]
 173 0030 0030E0E3 		mvn	r3, #0
 174 0034 F32F13E5 		ldr	r2, [r3, #-4083]
 175 0038 1020C2E3 		bic	r2, r2, #16
 176 003c F32F03E5 		str	r2, [r3, #-4083]
 177 0040 1020A0E3 		mov	r2, #16
 178 0044 EF2F03E5 		str	r2, [r3, #-4079]
 179 0048 2420A0E3 		mov	r2, #36
 180 004c FB2D03E5 		str	r2, [r3, #-3579]
 181 0050 0C209FE5 		ldr	r2, .L26+8
 182 0054 FB2E03E5 		str	r2, [r3, #-3835]
 183 0058 1EFF2FE1 		bx	lr
 184              	.L27:
 185              		.align	2
 186              	.L26:
 187 005c 004000E0 		.word	-536854528
 188 0060 90D00300 		.word	250000
 189 0064 00000000 		.word	TIMER0_ISR
 191              		.ident	"GCC: (GNU Tools for ARM Embedded Processors) 4.8.3 20131129 (release) [ARM/embedded-4_8-br
DEFINED SYMBOLS
                            *ABS*:00000000 sys_time_arch.c
     /tmp/cc21GvIl.s:14     .text.TIMER0_ISR:00000000 $a
     /tmp/cc21GvIl.s:17     .text.TIMER0_ISR:00000000 TIMER0_ISR
     /tmp/cc21GvIl.s:144    .text.TIMER0_ISR:000001b0 $d
     /tmp/cc21GvIl.s:153    .text.sys_time_arch_init:00000000 $a
     /tmp/cc21GvIl.s:156    .text.sys_time_arch_init:00000000 sys_time_arch_init
     /tmp/cc21GvIl.s:187    .text.sys_time_arch_init:0000005c $d

UNDEFINED SYMBOLS
sys_time
servos_4017_idx
servos_values
