   1              		.cpu arm7tdmi
   2              		.fpu softvfp
   3              		.eabi_attribute 20, 1
   4              		.eabi_attribute 21, 1
   5              		.eabi_attribute 23, 3
   6              		.eabi_attribute 24, 1
   7              		.eabi_attribute 25, 1
   8              		.eabi_attribute 26, 1
   9              		.eabi_attribute 30, 4
  10              		.eabi_attribute 34, 0
  11              		.eabi_attribute 18, 4
  12              		.file	"sys_time.c"
  13              		.global	__aeabi_f2d
  14              		.global	__aeabi_ddiv
  15              		.global	__aeabi_dadd
  16              		.global	__aeabi_d2uiz
  17              		.section	.text.sys_time_register_timer,"ax",%progbits
  18              		.align	2
  19              		.global	sys_time_register_timer
  21              	sys_time_register_timer:
  22              		@ Function supports interworking.
  23              		@ args = 0, pretend = 0, frame = 0
  24              		@ frame_needed = 0, uses_anonymous_args = 0
  25 0000 80309FE5 		ldr	r3, .L8
  26 0004 70402DE9 		stmfd	sp!, {r4, r5, r6, lr}
  27 0008 086093E5 		ldr	r6, [r3, #8]
  28 000c 0040A0E3 		mov	r4, #0
  29 0010 03C0A0E1 		mov	ip, r3
  30              	.L4:
  31 0014 0C20D3E5 		ldrb	r2, [r3, #12]	@ zero_extendqisi2
  32 0018 000052E3 		cmp	r2, #0
  33 001c 1200001A 		bne	.L2
  34 0020 1450A0E3 		mov	r5, #20
  35 0024 94C525E0 		mla	r5, r4, r5, ip
  36 0028 1420C5E5 		strb	r2, [r5, #20]
  37 002c 101085E5 		str	r1, [r5, #16]
  38 0030 FEFFFFEB 		bl	__aeabi_f2d
  39 0034 50209FE5 		ldr	r2, .L8+4
  40 0038 50309FE5 		ldr	r3, .L8+8
  41 003c FEFFFFEB 		bl	__aeabi_ddiv
  42 0040 4C309FE5 		ldr	r3, .L8+12
  43 0044 0020A0E3 		mov	r2, #0
  44 0048 FEFFFFEB 		bl	__aeabi_dadd
  45 004c FEFFFFEB 		bl	__aeabi_d2uiz
  46 0050 0130A0E3 		mov	r3, #1
  47 0054 066080E0 		add	r6, r0, r6
  48 0058 1C0085E5 		str	r0, [r5, #28]
  49 005c 186085E5 		str	r6, [r5, #24]
  50 0060 0C30C5E5 		strb	r3, [r5, #12]
  51 0064 0400A0E1 		mov	r0, r4
  52 0068 040000EA 		b	.L3
  53              	.L2:
  54 006c 014084E2 		add	r4, r4, #1
  55 0070 080054E3 		cmp	r4, #8
  56 0074 143083E2 		add	r3, r3, #20
  57 0078 E5FFFF1A 		bne	.L4
  58 007c 0000E0E3 		mvn	r0, #0
  59              	.L3:
  60 0080 7040BDE8 		ldmfd	sp!, {r4, r5, r6, lr}
  61 0084 1EFF2FE1 		bx	lr
  62              	.L9:
  63              		.align	2
  64              	.L8:
  65 0088 00000000 		.word	sys_time
  66 008c 11111111 		.word	286331153
  67 0090 1111913F 		.word	1066471697
  68 0094 0000E03F 		.word	1071644672
  70              		.section	.text.sys_time_cancel_timer,"ax",%progbits
  71              		.align	2
  72              		.global	sys_time_cancel_timer
  74              	sys_time_cancel_timer:
  75              		@ Function supports interworking.
  76              		@ args = 0, pretend = 0, frame = 0
  77              		@ frame_needed = 0, uses_anonymous_args = 0
  78              		@ link register save eliminated.
  79 0000 10309FE5 		ldr	r3, .L11
  80 0004 1420A0E3 		mov	r2, #20
  81 0008 923020E0 		mla	r0, r2, r0, r3
  82 000c 0020A0E3 		mov	r2, #0
  83 0010 0C20C0E5 		strb	r2, [r0, #12]
  84 0014 1EFF2FE1 		bx	lr
  85              	.L12:
  86              		.align	2
  87              	.L11:
  88 0018 00000000 		.word	sys_time
  90              		.section	.text.sys_time_update_timer,"ax",%progbits
  91              		.align	2
  92              		.global	sys_time_update_timer
  94              	sys_time_update_timer:
  95              		@ Function supports interworking.
  96              		@ args = 0, pretend = 0, frame = 0
  97              		@ frame_needed = 0, uses_anonymous_args = 0
  98 0000 38402DE9 		stmfd	sp!, {r3, r4, r5, lr}
  99 0004 0150A0E1 		mov	r5, r1
 100 0008 0040A0E1 		mov	r4, r0
 101 000c FEFFFFEB 		bl	disableIRQ
 102 0010 0500A0E1 		mov	r0, r5
 103 0014 FEFFFFEB 		bl	__aeabi_f2d
 104 0018 44209FE5 		ldr	r2, .L14
 105 001c 44309FE5 		ldr	r3, .L14+4
 106 0020 FEFFFFEB 		bl	__aeabi_ddiv
 107 0024 0020A0E3 		mov	r2, #0
 108 0028 3C309FE5 		ldr	r3, .L14+8
 109 002c FEFFFFEB 		bl	__aeabi_dadd
 110 0030 FEFFFFEB 		bl	__aeabi_d2uiz
 111 0034 34309FE5 		ldr	r3, .L14+12
 112 0038 1410A0E3 		mov	r1, #20
 113 003c 913423E0 		mla	r3, r1, r4, r3
 114 0040 182083E2 		add	r2, r3, #24
 115 0044 060092E8 		ldmia	r2, {r1, r2}
 116 0048 021041E0 		sub	r1, r1, r2
 117 004c 001081E0 		add	r1, r1, r0
 118 0050 181083E5 		str	r1, [r3, #24]
 119 0054 1C0083E5 		str	r0, [r3, #28]
 120 0058 FEFFFFEB 		bl	enableIRQ
 121 005c 3840BDE8 		ldmfd	sp!, {r3, r4, r5, lr}
 122 0060 1EFF2FE1 		bx	lr
 123              	.L15:
 124              		.align	2
 125              	.L14:
 126 0064 11111111 		.word	286331153
 127 0068 1111913F 		.word	1066471697
 128 006c 0000E03F 		.word	1071644672
 129 0070 00000000 		.word	sys_time
 131              		.section	.text.sys_time_init,"ax",%progbits
 132              		.align	2
 133              		.global	sys_time_init
 135              	sys_time_init:
 136              		@ Function supports interworking.
 137              		@ args = 0, pretend = 0, frame = 0
 138              		@ frame_needed = 0, uses_anonymous_args = 0
 139 0000 08402DE9 		stmfd	sp!, {r3, lr}
 140 0004 FEFFFFEB 		bl	sys_time_arch_init
 141 0008 48309FE5 		ldr	r3, .L20
 142 000c 0010A0E3 		mov	r1, #0
 143 0010 001083E5 		str	r1, [r3]
 144 0014 041083E5 		str	r1, [r3, #4]
 145 0018 081083E5 		str	r1, [r3, #8]
 146 001c 03C0A0E1 		mov	ip, r3
 147              	.L18:
 148 0020 1400A0E3 		mov	r0, #20
 149 0024 91C020E0 		mla	r0, r1, r0, ip
 150 0028 011081E2 		add	r1, r1, #1
 151 002c 0020A0E3 		mov	r2, #0
 152 0030 080051E3 		cmp	r1, #8
 153 0034 0C20C3E5 		strb	r2, [r3, #12]
 154 0038 102083E5 		str	r2, [r3, #16]
 155 003c 1420C0E5 		strb	r2, [r0, #20]
 156 0040 143083E2 		add	r3, r3, #20
 157 0044 042083E5 		str	r2, [r3, #4]
 158 0048 082083E5 		str	r2, [r3, #8]
 159 004c F3FFFF1A 		bne	.L18
 160 0050 0840BDE8 		ldmfd	sp!, {r3, lr}
 161 0054 1EFF2FE1 		bx	lr
 162              	.L21:
 163              		.align	2
 164              	.L20:
 165 0058 00000000 		.word	sys_time
 167              		.comm	sys_time,172,4
 168              		.ident	"GCC: (GNU Tools for ARM Embedded Processors) 4.8.3 20131129 (release) [ARM/embedded-4_8-br