   1              		.cpu arm7tdmi
   2              		.fpu softvfp
   3              		.eabi_attribute 20, 1
   4              		.eabi_attribute 21, 1
   5              		.eabi_attribute 23, 3
   6              		.eabi_attribute 24, 1
   7              		.eabi_attribute 25, 1
   8              		.eabi_attribute 26, 1
   9              		.eabi_attribute 30, 4
  10              		.eabi_attribute 34, 0
  11              		.eabi_attribute 18, 4
  12              		.file	"uart_arch.c"
  13              		.section	.text.uart_ISR,"ax",%progbits
  14              		.align	2
  16              	uart_ISR:
  17              		@ Function supports interworking.
  18              		@ args = 0, pretend = 0, frame = 0
  19              		@ frame_needed = 0, uses_anonymous_args = 0
  20              		@ link register save eliminated.
  21 0000 04402DE5 		str	r4, [sp, #-4]!
  22              	.L2:
  23 0004 0C3190E5 		ldr	r3, [r0, #268]
  24 0008 0820D3E5 		ldrb	r2, [r3, #8]	@ zero_extendqisi2
  25 000c 010012E3 		tst	r2, #1
  26 0010 3500001A 		bne	.L1
  27 0014 0E2002E2 		and	r2, r2, #14
  28 0018 022042E2 		sub	r2, r2, #2
  29 001c 0A0052E3 		cmp	r2, #10
  30 0020 02F19F97 		ldrls	pc, [pc, r2, asl #2]
  31 0024 2D0000EA 		b	.L4
  32              	.L6:
  33 0028 C0000000 		.word	.L14
  34 002c E0000000 		.word	.L4
  35 0030 5C000000 		.word	.L7
  36 0034 E0000000 		.word	.L4
  37 0038 54000000 		.word	.L8
  38 003c E0000000 		.word	.L4
  39 0040 E0000000 		.word	.L4
  40 0044 E0000000 		.word	.L4
  41 0048 E0000000 		.word	.L4
  42 004c E0000000 		.word	.L4
  43 0050 5C000000 		.word	.L7
  44              	.L8:
  45 0054 1430D3E5 		ldrb	r3, [r3, #20]	@ zero_extendqisi2
  46 0058 E9FFFFEA 		b	.L2
  47              	.L7:
  48 005c B2C8D0E1 		ldrh	ip, [r0, #130]
  49              	.L12:
  50 0060 B018D0E1 		ldrh	r1, [r0, #128]
  51 0064 012081E2 		add	r2, r1, #1
  52 0068 7F2002E2 		and	r2, r2, #127
  53 006c 0040D3E5 		ldrb	r4, [r3]	@ zero_extendqisi2
  54 0070 0C0052E1 		cmp	r2, ip
  55 0074 0140C0E7 		strb	r4, [r0, r1]
  56 0078 B028C011 		strneh	r2, [r0, #128]	@ movhi
  57 007c 1420D3E5 		ldrb	r2, [r3, #20]	@ zero_extendqisi2
  58 0080 010012E3 		tst	r2, #1
  59 0084 F5FFFF1A 		bne	.L12
  60 0088 DDFFFFEA 		b	.L2
  61              	.L15:
  62 008c 60309FE5 		ldr	r3, .L18
  63 0090 41CFA0E3 		mov	ip, #260
  64 0094 B31090E1 		ldrh	r1, [r0, r3]
  65 0098 BCC090E1 		ldrh	ip, [r0, ip]
  66 009c 01005CE1 		cmp	ip, r1
  67 00a0 0B00000A 		beq	.L13
  68 00a4 011080E0 		add	r1, r0, r1
  69 00a8 8410D1E5 		ldrb	r1, [r1, #132]	@ zero_extendqisi2
  70 00ac 0010C2E5 		strb	r1, [r2]
  71 00b0 B32090E1 		ldrh	r2, [r0, r3]
  72 00b4 012082E2 		add	r2, r2, #1
  73 00b8 7F2002E2 		and	r2, r2, #127
  74 00bc B32080E1 		strh	r2, [r0, r3]	@ movhi
  75              	.L14:
  76 00c0 0C2190E5 		ldr	r2, [r0, #268]
  77 00c4 1430D2E5 		ldrb	r3, [r2, #20]	@ zero_extendqisi2
  78 00c8 200013E3 		tst	r3, #32
  79 00cc EEFFFF1A 		bne	.L15
  80 00d0 CBFFFFEA 		b	.L2
  81              	.L13:
  82 00d4 0030A0E3 		mov	r3, #0
  83 00d8 0831C0E5 		strb	r3, [r0, #264]
  84 00dc C8FFFFEA 		b	.L2
  85              	.L4:
  86 00e0 1420D3E5 		ldrb	r2, [r3, #20]	@ zero_extendqisi2
  87 00e4 0030D3E5 		ldrb	r3, [r3]	@ zero_extendqisi2
  88 00e8 C5FFFFEA 		b	.L2
  89              	.L1:
  90 00ec 04409DE4 		ldr	r4, [sp], #4
  91 00f0 1EFF2FE1 		bx	lr
  92              	.L19:
  93              		.align	2
  94              	.L18:
  95 00f4 06010000 		.word	262
  97              		.section	.text.uart0_ISR,"ax",%progbits
  98              		.align	2
  99              		.global	uart0_ISR
 101              	uart0_ISR:
 102              		@ Function supports interworking.
 103              		@ Naked Function: prologue and epilogue provided by programmer.
 104              		@ args = 0, pretend = 0, frame = 0
 105              		@ frame_needed = 0, uses_anonymous_args = 0
 106              	@ 164 "arch/lpc21/mcu_periph/uart_arch.c" 1
 107 0000 04E04EE2 		 sub   lr, lr,#4
 108 0004 FF5F2DE9 	 stmfd sp!,{r0-r12,lr}
 109 0008 00104FE1 	 mrs   r1, spsr
 110 000c 02002DE9 	 stmfd sp!,{r1}
 111              	@ 0 "" 2
 112 0010 18009FE5 		ldr	r0, .L21
 113 0014 FEFFFFEB 		bl	uart_ISR
 114 0018 0020A0E3 		mov	r2, #0
 115 001c 0030E0E3 		mvn	r3, #0
 116 0020 CF2F03E5 		str	r2, [r3, #-4047]
 117              	@ 169 "arch/lpc21/mcu_periph/uart_arch.c" 1
 118 0024 0200BDE8 		 ldmfd sp!,{r1}
 119 0028 01F061E1 	 msr   spsr_c,r1
 120 002c FF9FFDE8 	 ldmfd sp!,{r0-r12,pc}^
 121              	@ 0 "" 2
 122              	.L22:
 123              		.align	2
 124              	.L21:
 125 0030 00000000 		.word	uart0
 127              		.section	.text.uart1_ISR,"ax",%progbits
 128              		.align	2
 129              		.global	uart1_ISR
 131              	uart1_ISR:
 132              		@ Function supports interworking.
 133              		@ Naked Function: prologue and epilogue provided by programmer.
 134              		@ args = 0, pretend = 0, frame = 0
 135              		@ frame_needed = 0, uses_anonymous_args = 0
 136              	@ 210 "arch/lpc21/mcu_periph/uart_arch.c" 1
 137 0000 04E04EE2 		 sub   lr, lr,#4
 138 0004 FF5F2DE9 	 stmfd sp!,{r0-r12,lr}
 139 0008 00104FE1 	 mrs   r1, spsr
 140 000c 02002DE9 	 stmfd sp!,{r1}
 141              	@ 0 "" 2
 142 0010 18009FE5 		ldr	r0, .L24
 143 0014 FEFFFFEB 		bl	uart_ISR
 144 0018 0020A0E3 		mov	r2, #0
 145 001c 0030E0E3 		mvn	r3, #0
 146 0020 CF2F03E5 		str	r2, [r3, #-4047]
 147              	@ 215 "arch/lpc21/mcu_periph/uart_arch.c" 1
 148 0024 0200BDE8 		 ldmfd sp!,{r1}
 149 0028 01F061E1 	 msr   spsr_c,r1
 150 002c FF9FFDE8 	 ldmfd sp!,{r0-r12,pc}^
 151              	@ 0 "" 2
 152              	.L25:
 153              		.align	2
 154              	.L24:
 155 0030 00000000 		.word	uart1
 157              		.section	.text.uart_set_baudrate.isra.2,"ax",%progbits
 158              		.align	2
 160              	uart_set_baudrate.isra.2:
 161              		@ Function supports interworking.
 162              		@ args = 0, pretend = 0, frame = 0
 163              		@ frame_needed = 0, uses_anonymous_args = 0
 164              		@ link register save eliminated.
 165 0000 003090E5 		ldr	r3, [r0]
 166 0004 7F20E0E3 		mvn	r2, #127
 167 0008 0C20C3E5 		strb	r2, [r3, #12]
 168 000c 003090E5 		ldr	r3, [r0]
 169 0010 FF2001E2 		and	r2, r1, #255
 170 0014 0020C3E5 		strb	r2, [r3]
 171 0018 2114A0E1 		mov	r1, r1, lsr #8
 172 001c 003090E5 		ldr	r3, [r0]
 173 0020 FF1001E2 		and	r1, r1, #255
 174 0024 0410C3E5 		strb	r1, [r3, #4]
 175 0028 003090E5 		ldr	r3, [r0]
 176 002c 0320A0E3 		mov	r2, #3
 177 0030 0C20C3E5 		strb	r2, [r3, #12]
 178 0034 003090E5 		ldr	r3, [r0]
 179 0038 7E20E0E3 		mvn	r2, #126
 180 003c 0820C3E5 		strb	r2, [r3, #8]
 181 0040 1EFF2FE1 		bx	lr
 183              		.section	.text.uart_periph_set_baudrate,"ax",%progbits
 184              		.align	2
 185              		.global	uart_periph_set_baudrate
 187              	uart_periph_set_baudrate:
 188              		@ Function supports interworking.
 189              		@ args = 0, pretend = 0, frame = 0
 190              		@ frame_needed = 0, uses_anonymous_args = 0
 191 0000 0C3190E5 		ldr	r3, [r0, #268]
 192 0004 10402DE9 		stmfd	sp!, {r4, lr}
 193 0008 0020A0E3 		mov	r2, #0
 194 000c 0420C3E5 		strb	r2, [r3, #4]
 195 0010 0040A0E1 		mov	r4, r0
 196 0014 0C31B0E5 		ldr	r3, [r0, #268]!
 197 0018 0820D3E5 		ldrb	r2, [r3, #8]	@ zero_extendqisi2
 198 001c 0020D3E5 		ldrb	r2, [r3]	@ zero_extendqisi2
 199 0020 1430D3E5 		ldrb	r3, [r3, #20]	@ zero_extendqisi2
 200 0024 FEFFFFEB 		bl	uart_set_baudrate.isra.2
 201 0028 0C3194E5 		ldr	r3, [r4, #268]
 202 002c 0120A0E3 		mov	r2, #1
 203 0030 0420C3E5 		strb	r2, [r3, #4]
 204 0034 1040BDE8 		ldmfd	sp!, {r4, lr}
 205 0038 1EFF2FE1 		bx	lr
 207              		.section	.text.uart_transmit,"ax",%progbits
 208              		.align	2
 209              		.global	uart_transmit
 211              	uart_transmit:
 212              		@ Function supports interworking.
 213              		@ args = 0, pretend = 0, frame = 0
 214              		@ frame_needed = 0, uses_anonymous_args = 0
 215 0000 F8402DE9 		stmfd	sp!, {r3, r4, r5, r6, r7, lr}
 216 0004 415FA0E3 		mov	r5, #260
 217 0008 B57090E1 		ldrh	r7, [r0, r5]
 218 000c 78309FE5 		ldr	r3, .L32
 219 0010 017087E2 		add	r7, r7, #1
 220 0014 B33090E1 		ldrh	r3, [r0, r3]
 221 0018 7F7007E2 		and	r7, r7, #127
 222 001c 070053E1 		cmp	r3, r7
 223 0020 0040A0E1 		mov	r4, r0
 224 0024 0160A0E1 		mov	r6, r1
 225 0028 1500000A 		beq	.L28
 226 002c FEFFFFEB 		bl	disableIRQ
 227 0030 0C3194E5 		ldr	r3, [r4, #268]
 228 0034 0420D3E5 		ldrb	r2, [r3, #4]	@ zero_extendqisi2
 229 0038 FD2002E2 		and	r2, r2, #253
 230 003c 0420C3E5 		strb	r2, [r3, #4]
 231 0040 FEFFFFEB 		bl	restoreIRQ
 232 0044 0831D4E5 		ldrb	r3, [r4, #264]	@ zero_extendqisi2
 233 0048 000053E3 		cmp	r3, #0
 234 004c B5309411 		ldrneh	r3, [r4, r5]
 235 0050 0130A003 		moveq	r3, #1
 236 0054 0831C405 		streqb	r3, [r4, #264]
 237 0058 0C319405 		ldreq	r3, [r4, #268]
 238 005c 03308410 		addne	r3, r4, r3
 239 0060 8460C315 		strneb	r6, [r3, #132]
 240 0064 0060C305 		streqb	r6, [r3]
 241 0068 B5708411 		strneh	r7, [r4, r5]	@ movhi
 242 006c FEFFFFEB 		bl	disableIRQ
 243 0070 0C3194E5 		ldr	r3, [r4, #268]
 244 0074 0420D3E5 		ldrb	r2, [r3, #4]	@ zero_extendqisi2
 245 0078 022082E3 		orr	r2, r2, #2
 246 007c 0420C3E5 		strb	r2, [r3, #4]
 247 0080 FEFFFFEB 		bl	restoreIRQ
 248              	.L28:
 249 0084 F840BDE8 		ldmfd	sp!, {r3, r4, r5, r6, r7, lr}
 250 0088 1EFF2FE1 		bx	lr
 251              	.L33:
 252              		.align	2
 253              	.L32:
 254 008c 06010000 		.word	262
 256              		.section	.text.uart0_init,"ax",%progbits
 257              		.align	2
 258              		.global	uart0_init
 260              	uart0_init:
 261              		@ Function supports interworking.
 262              		@ args = 0, pretend = 0, frame = 0
 263              		@ frame_needed = 0, uses_anonymous_args = 0
 264 0000 10402DE9 		stmfd	sp!, {r4, lr}
 265 0004 7C409FE5 		ldr	r4, .L35
 266 0008 0400A0E1 		mov	r0, r4
 267 000c FEFFFFEB 		bl	uart_periph_init
 268 0010 74209FE5 		ldr	r2, .L35+4
 269 0014 001092E5 		ldr	r1, [r2]
 270 0018 70309FE5 		ldr	r3, .L35+8
 271 001c 0F10C1E3 		bic	r1, r1, #15
 272 0020 0400A0E1 		mov	r0, r4
 273 0024 051081E3 		orr	r1, r1, #5
 274 0028 0C31A0E5 		str	r3, [r0, #268]!
 275 002c 001082E5 		str	r1, [r2]
 276 0030 0020A0E3 		mov	r2, #0
 277 0034 0420C3E5 		strb	r2, [r3, #4]
 278 0038 1810A0E3 		mov	r1, #24
 279 003c 0820D3E5 		ldrb	r2, [r3, #8]	@ zero_extendqisi2
 280 0040 0020D3E5 		ldrb	r2, [r3]	@ zero_extendqisi2
 281 0044 1430D3E5 		ldrb	r3, [r3, #20]	@ zero_extendqisi2
 282 0048 FEFFFFEB 		bl	uart_set_baudrate.isra.2
 283 004c 0030E0E3 		mvn	r3, #0
 284 0050 F32F13E5 		ldr	r2, [r3, #-4083]
 285 0054 4020C2E3 		bic	r2, r2, #64
 286 0058 F32F03E5 		str	r2, [r3, #-4083]
 287 005c 4020A0E3 		mov	r2, #64
 288 0060 EF2F03E5 		str	r2, [r3, #-4079]
 289 0064 2620A0E3 		mov	r2, #38
 290 0068 EB2D03E5 		str	r2, [r3, #-3563]
 291 006c 20209FE5 		ldr	r2, .L35+12
 292 0070 EB2E03E5 		str	r2, [r3, #-3819]
 293 0074 0C3194E5 		ldr	r3, [r4, #268]
 294 0078 0120A0E3 		mov	r2, #1
 295 007c 0420C3E5 		strb	r2, [r3, #4]
 296 0080 1040BDE8 		ldmfd	sp!, {r4, lr}
 297 0084 1EFF2FE1 		bx	lr
 298              	.L36:
 299              		.align	2
 300              	.L35:
 301 0088 00000000 		.word	uart0
 302 008c 00C002E0 		.word	-536690688
 303 0090 00C000E0 		.word	-536821760
 304 0094 00000000 		.word	uart0_ISR
 306              		.section	.text.uart1_init,"ax",%progbits
 307              		.align	2
 308              		.global	uart1_init
 310              	uart1_init:
 311              		@ Function supports interworking.
 312              		@ args = 0, pretend = 0, frame = 0
 313              		@ frame_needed = 0, uses_anonymous_args = 0
 314 0000 10402DE9 		stmfd	sp!, {r4, lr}
 315 0004 7C409FE5 		ldr	r4, .L38
 316 0008 0400A0E1 		mov	r0, r4
 317 000c FEFFFFEB 		bl	uart_periph_init
 318 0010 74209FE5 		ldr	r2, .L38+4
 319 0014 001092E5 		ldr	r1, [r2]
 320 0018 70309FE5 		ldr	r3, .L38+8
 321 001c 0F18C1E3 		bic	r1, r1, #983040
 322 0020 0400A0E1 		mov	r0, r4
 323 0024 051881E3 		orr	r1, r1, #327680
 324 0028 0C31A0E5 		str	r3, [r0, #268]!
 325 002c 001082E5 		str	r1, [r2]
 326 0030 0020A0E3 		mov	r2, #0
 327 0034 0420C3E5 		strb	r2, [r3, #4]
 328 0038 1010A0E3 		mov	r1, #16
 329 003c 0820D3E5 		ldrb	r2, [r3, #8]	@ zero_extendqisi2
 330 0040 0020D3E5 		ldrb	r2, [r3]	@ zero_extendqisi2
 331 0044 1430D3E5 		ldrb	r3, [r3, #20]	@ zero_extendqisi2
 332 0048 FEFFFFEB 		bl	uart_set_baudrate.isra.2
 333 004c 0030E0E3 		mvn	r3, #0
 334 0050 F32F13E5 		ldr	r2, [r3, #-4083]
 335 0054 8020C2E3 		bic	r2, r2, #128
 336 0058 F32F03E5 		str	r2, [r3, #-4083]
 337 005c 8020A0E3 		mov	r2, #128
 338 0060 EF2F03E5 		str	r2, [r3, #-4079]
 339 0064 2720A0E3 		mov	r2, #39
 340 0068 E72D03E5 		str	r2, [r3, #-3559]
 341 006c 20209FE5 		ldr	r2, .L38+12
 342 0070 E72E03E5 		str	r2, [r3, #-3815]
 343 0074 0C3194E5 		ldr	r3, [r4, #268]
 344 0078 0120A0E3 		mov	r2, #1
 345 007c 0420C3E5 		strb	r2, [r3, #4]
 346 0080 1040BDE8 		ldmfd	sp!, {r4, lr}
 347 0084 1EFF2FE1 		bx	lr
 348              	.L39:
 349              		.align	2
 350              	.L38:
 351 0088 00000000 		.word	uart1
 352 008c 00C002E0 		.word	-536690688
 353 0090 000001E0 		.word	-536805376
 354 0094 00000000 		.word	uart1_ISR
 356              		.ident	"GCC: (GNU Tools for ARM Embedded Processors) 4.8.3 20131129 (release) [ARM/embedded-4_8-br